ARM GAS  C:\Users\zhangge\AppData\Local\Temp\ccK5zSpw.s 			page 1


   1              		.cpu cortex-m4
   2              		.arch armv7e-m
   3              		.fpu fpv4-sp-d16
   4              		.eabi_attribute 27, 1
   5              		.eabi_attribute 28, 1
   6              		.eabi_attribute 20, 1
   7              		.eabi_attribute 21, 1
   8              		.eabi_attribute 23, 3
   9              		.eabi_attribute 24, 1
  10              		.eabi_attribute 25, 1
  11              		.eabi_attribute 26, 1
  12              		.eabi_attribute 30, 1
  13              		.eabi_attribute 34, 1
  14              		.eabi_attribute 18, 4
  15              		.file	"fifo.c"
  16              		.text
  17              	.Ltext0:
  18              		.cfi_sections	.debug_frame
  19              		.section	.text.bytefifo_isfull,"ax",%progbits
  20              		.align	1
  21              		.syntax unified
  22              		.thumb
  23              		.thumb_func
  25              	bytefifo_isfull:
  26              	.LVL0:
  27              	.LFB0:
  28              		.file 1 "../Public/fifo.c"
   1:../Public/fifo.c **** /**------------------------------------------------------------------------------------------------
   2:../Public/fifo.c **** ** Modified by:			
   3:../Public/fifo.c **** ** Modified date:		2023-08-17
   4:../Public/fifo.c **** ** Version:
   5:../Public/fifo.c **** ** Descriptions:	先进先出队列
   6:../Public/fifo.c **** **
   7:../Public/fifo.c **** ***************************************************************************************************
   8:../Public/fifo.c **** #include "fifo.h"
   9:../Public/fifo.c **** 
  10:../Public/fifo.c **** 
  11:../Public/fifo.c **** #define FIFO_LOCK 1
  12:../Public/fifo.c **** #define FIFO_UNLOCK 0
  13:../Public/fifo.c **** static char bytefifo_isfull(byte_fifo_t *pfifo)
  14:../Public/fifo.c **** {
  29              		.loc 1 14 1 view -0
  30              		.cfi_startproc
  31              		@ args = 0, pretend = 0, frame = 0
  32              		@ frame_needed = 0, uses_anonymous_args = 0
  33              		@ link register save eliminated.
  15:../Public/fifo.c **** 	if((pfifo->head+1)%pfifo->buflen == pfifo->tail)
  34              		.loc 1 15 2 view .LVU1
  35              		.loc 1 15 11 is_stmt 0 view .LVU2
  36 0000 0388     		ldrh	r3, [r0]
  37              		.loc 1 15 17 view .LVU3
  38 0002 0133     		adds	r3, r3, #1
  39              		.loc 1 15 26 view .LVU4
  40 0004 8289     		ldrh	r2, [r0, #12]
  41 0006 92B2     		uxth	r2, r2
  42              		.loc 1 15 20 view .LVU5
  43 0008 93FBF2F1 		sdiv	r1, r3, r2
ARM GAS  C:\Users\zhangge\AppData\Local\Temp\ccK5zSpw.s 			page 2


  44 000c 02FB1133 		mls	r3, r2, r1, r3
  45              		.loc 1 15 43 view .LVU6
  46 0010 4288     		ldrh	r2, [r0, #2]
  47              		.loc 1 15 4 view .LVU7
  48 0012 9342     		cmp	r3, r2
  49 0014 01D0     		beq	.L3
  16:../Public/fifo.c **** 	{
  17:../Public/fifo.c **** 		return 0;//已满
  18:../Public/fifo.c **** 	}
  19:../Public/fifo.c **** 	return 1;
  50              		.loc 1 19 9 view .LVU8
  51 0016 0120     		movs	r0, #1
  52              	.LVL1:
  53              		.loc 1 19 9 view .LVU9
  54 0018 7047     		bx	lr
  55              	.LVL2:
  56              	.L3:
  17:../Public/fifo.c **** 	}
  57              		.loc 1 17 10 view .LVU10
  58 001a 0020     		movs	r0, #0
  59              	.LVL3:
  20:../Public/fifo.c **** }
  60              		.loc 1 20 1 view .LVU11
  61 001c 7047     		bx	lr
  62              		.cfi_endproc
  63              	.LFE0:
  65              		.section	.text.bytefifo_isempty,"ax",%progbits
  66              		.align	1
  67              		.syntax unified
  68              		.thumb
  69              		.thumb_func
  71              	bytefifo_isempty:
  72              	.LVL4:
  73              	.LFB1:
  21:../Public/fifo.c **** /*FIFO空，不能读数据*/
  22:../Public/fifo.c **** static char bytefifo_isempty(byte_fifo_t *pfifo)
  23:../Public/fifo.c **** {
  74              		.loc 1 23 1 is_stmt 1 view -0
  75              		.cfi_startproc
  76              		@ args = 0, pretend = 0, frame = 0
  77              		@ frame_needed = 0, uses_anonymous_args = 0
  78              		@ link register save eliminated.
  24:../Public/fifo.c **** 	if(pfifo->head == pfifo->tail)
  79              		.loc 1 24 2 view .LVU13
  80              		.loc 1 24 10 is_stmt 0 view .LVU14
  81 0000 0288     		ldrh	r2, [r0]
  82              		.loc 1 24 25 view .LVU15
  83 0002 4388     		ldrh	r3, [r0, #2]
  84              		.loc 1 24 4 view .LVU16
  85 0004 9A42     		cmp	r2, r3
  86 0006 01D0     		beq	.L6
  25:../Public/fifo.c **** 	{
  26:../Public/fifo.c **** 		return 0;//空
  27:../Public/fifo.c **** 	}
  28:../Public/fifo.c **** 	return 1;
  87              		.loc 1 28 9 view .LVU17
  88 0008 0120     		movs	r0, #1
ARM GAS  C:\Users\zhangge\AppData\Local\Temp\ccK5zSpw.s 			page 3


  89              	.LVL5:
  90              		.loc 1 28 9 view .LVU18
  91 000a 7047     		bx	lr
  92              	.LVL6:
  93              	.L6:
  26:../Public/fifo.c **** 	}
  94              		.loc 1 26 10 view .LVU19
  95 000c 0020     		movs	r0, #0
  96              	.LVL7:
  29:../Public/fifo.c **** }
  97              		.loc 1 29 1 view .LVU20
  98 000e 7047     		bx	lr
  99              		.cfi_endproc
 100              	.LFE1:
 102              		.section	.text.bytefifo_writebyte,"ax",%progbits
 103              		.align	1
 104              		.syntax unified
 105              		.thumb
 106              		.thumb_func
 108              	bytefifo_writebyte:
 109              	.LVL8:
 110              	.LFB2:
  30:../Public/fifo.c **** /*FIFO满不能写数据*/
  31:../Public/fifo.c **** static char bytefifo_writebyte(byte_fifo_t *pfifo,byte_t data)
  32:../Public/fifo.c **** {
 111              		.loc 1 32 1 is_stmt 1 view -0
 112              		.cfi_startproc
 113              		@ args = 0, pretend = 0, frame = 0
 114              		@ frame_needed = 0, uses_anonymous_args = 0
 115              		.loc 1 32 1 is_stmt 0 view .LVU22
 116 0000 38B5     		push	{r3, r4, r5, lr}
 117              	.LCFI0:
 118              		.cfi_def_cfa_offset 16
 119              		.cfi_offset 3, -16
 120              		.cfi_offset 4, -12
 121              		.cfi_offset 5, -8
 122              		.cfi_offset 14, -4
 123 0002 0446     		mov	r4, r0
 124 0004 0D46     		mov	r5, r1
  33:../Public/fifo.c ****     if(bytefifo_isfull(pfifo) == 0)
 125              		.loc 1 33 5 is_stmt 1 view .LVU23
 126              		.loc 1 33 8 is_stmt 0 view .LVU24
 127 0006 FFF7FEFF 		bl	bytefifo_isfull
 128              	.LVL9:
 129              		.loc 1 33 7 view .LVU25
 130 000a 88B1     		cbz	r0, .L9
  34:../Public/fifo.c ****     {
  35:../Public/fifo.c ****         return 1;//满
  36:../Public/fifo.c ****     }
  37:../Public/fifo.c ****     pfifo->pbuf[pfifo->head] = data;
 131              		.loc 1 37 5 is_stmt 1 view .LVU26
 132              		.loc 1 37 10 is_stmt 0 view .LVU27
 133 000c A268     		ldr	r2, [r4, #8]
 134              		.loc 1 37 22 view .LVU28
 135 000e 2388     		ldrh	r3, [r4]
 136              		.loc 1 37 30 view .LVU29
 137 0010 D554     		strb	r5, [r2, r3]
ARM GAS  C:\Users\zhangge\AppData\Local\Temp\ccK5zSpw.s 			page 4


  38:../Public/fifo.c ****     pfifo->head = (pfifo->head + 1) % pfifo->buflen ;
 138              		.loc 1 38 5 is_stmt 1 view .LVU30
 139              		.loc 1 38 25 is_stmt 0 view .LVU31
 140 0012 2388     		ldrh	r3, [r4]
 141              		.loc 1 38 32 view .LVU32
 142 0014 0133     		adds	r3, r3, #1
 143              		.loc 1 38 44 view .LVU33
 144 0016 A289     		ldrh	r2, [r4, #12]
 145 0018 92B2     		uxth	r2, r2
 146              		.loc 1 38 37 view .LVU34
 147 001a 93FBF2F1 		sdiv	r1, r3, r2
 148 001e 02FB1133 		mls	r3, r2, r1, r3
 149              		.loc 1 38 17 view .LVU35
 150 0022 2380     		strh	r3, [r4]	@ movhi
  39:../Public/fifo.c **** 	pfifo->remain_byte--;
 151              		.loc 1 39 2 is_stmt 1 view .LVU36
 152              		.loc 1 39 7 is_stmt 0 view .LVU37
 153 0024 A388     		ldrh	r3, [r4, #4]
 154              		.loc 1 39 20 view .LVU38
 155 0026 013B     		subs	r3, r3, #1
 156 0028 1BB2     		sxth	r3, r3
 157 002a A380     		strh	r3, [r4, #4]	@ movhi
  40:../Public/fifo.c ****     return 0;//写入成功
 158              		.loc 1 40 5 is_stmt 1 view .LVU39
 159              		.loc 1 40 12 is_stmt 0 view .LVU40
 160 002c 0020     		movs	r0, #0
 161              	.L8:
  41:../Public/fifo.c **** }
 162              		.loc 1 41 1 view .LVU41
 163 002e 38BD     		pop	{r3, r4, r5, pc}
 164              	.LVL10:
 165              	.L9:
  35:../Public/fifo.c ****     }
 166              		.loc 1 35 16 view .LVU42
 167 0030 0120     		movs	r0, #1
 168 0032 FCE7     		b	.L8
 169              		.cfi_endproc
 170              	.LFE2:
 172              		.section	.text.bytefifo_readbyte,"ax",%progbits
 173              		.align	1
 174              		.syntax unified
 175              		.thumb
 176              		.thumb_func
 178              	bytefifo_readbyte:
 179              	.LVL11:
 180              	.LFB3:
  42:../Public/fifo.c **** static char bytefifo_readbyte(byte_fifo_t *pfifo,byte_t *pdata)
  43:../Public/fifo.c **** {/*FIFO为空 不能读*/
 181              		.loc 1 43 1 is_stmt 1 view -0
 182              		.cfi_startproc
 183              		@ args = 0, pretend = 0, frame = 0
 184              		@ frame_needed = 0, uses_anonymous_args = 0
 185              		.loc 1 43 1 is_stmt 0 view .LVU44
 186 0000 38B5     		push	{r3, r4, r5, lr}
 187              	.LCFI1:
 188              		.cfi_def_cfa_offset 16
 189              		.cfi_offset 3, -16
ARM GAS  C:\Users\zhangge\AppData\Local\Temp\ccK5zSpw.s 			page 5


 190              		.cfi_offset 4, -12
 191              		.cfi_offset 5, -8
 192              		.cfi_offset 14, -4
 193 0002 0446     		mov	r4, r0
 194 0004 0D46     		mov	r5, r1
  44:../Public/fifo.c ****     if (bytefifo_isempty(pfifo) == 0)
 195              		.loc 1 44 5 is_stmt 1 view .LVU45
 196              		.loc 1 44 9 is_stmt 0 view .LVU46
 197 0006 FFF7FEFF 		bl	bytefifo_isempty
 198              	.LVL12:
 199              		.loc 1 44 8 view .LVU47
 200 000a 90B1     		cbz	r0, .L13
  45:../Public/fifo.c ****     {
  46:../Public/fifo.c ****         return 1;//无法读取
  47:../Public/fifo.c ****     }
  48:../Public/fifo.c **** 	*pdata = pfifo->pbuf[pfifo->tail];
 201              		.loc 1 48 2 is_stmt 1 view .LVU48
 202              		.loc 1 48 16 is_stmt 0 view .LVU49
 203 000c A268     		ldr	r2, [r4, #8]
 204              		.loc 1 48 28 view .LVU50
 205 000e 6388     		ldrh	r3, [r4, #2]
 206              		.loc 1 48 22 view .LVU51
 207 0010 D35C     		ldrb	r3, [r2, r3]	@ zero_extendqisi2
 208              		.loc 1 48 9 view .LVU52
 209 0012 2B70     		strb	r3, [r5]
  49:../Public/fifo.c ****     pfifo->tail = (pfifo->tail + 1)%pfifo->buflen ;
 210              		.loc 1 49 5 is_stmt 1 view .LVU53
 211              		.loc 1 49 25 is_stmt 0 view .LVU54
 212 0014 6388     		ldrh	r3, [r4, #2]
 213              		.loc 1 49 32 view .LVU55
 214 0016 0133     		adds	r3, r3, #1
 215              		.loc 1 49 42 view .LVU56
 216 0018 A289     		ldrh	r2, [r4, #12]
 217 001a 92B2     		uxth	r2, r2
 218              		.loc 1 49 36 view .LVU57
 219 001c 93FBF2F1 		sdiv	r1, r3, r2
 220 0020 02FB1133 		mls	r3, r2, r1, r3
 221              		.loc 1 49 17 view .LVU58
 222 0024 6380     		strh	r3, [r4, #2]	@ movhi
  50:../Public/fifo.c **** 	pfifo->remain_byte++;
 223              		.loc 1 50 2 is_stmt 1 view .LVU59
 224              		.loc 1 50 7 is_stmt 0 view .LVU60
 225 0026 A388     		ldrh	r3, [r4, #4]
 226              		.loc 1 50 20 view .LVU61
 227 0028 0133     		adds	r3, r3, #1
 228 002a 1BB2     		sxth	r3, r3
 229 002c A380     		strh	r3, [r4, #4]	@ movhi
  51:../Public/fifo.c **** 	return 0;
 230              		.loc 1 51 2 is_stmt 1 view .LVU62
 231              		.loc 1 51 9 is_stmt 0 view .LVU63
 232 002e 0020     		movs	r0, #0
 233              	.L12:
  52:../Public/fifo.c **** }
 234              		.loc 1 52 1 view .LVU64
 235 0030 38BD     		pop	{r3, r4, r5, pc}
 236              	.LVL13:
 237              	.L13:
ARM GAS  C:\Users\zhangge\AppData\Local\Temp\ccK5zSpw.s 			page 6


  46:../Public/fifo.c ****     }
 238              		.loc 1 46 16 view .LVU65
 239 0032 0120     		movs	r0, #1
 240 0034 FCE7     		b	.L12
 241              		.cfi_endproc
 242              	.LFE3:
 244              		.section	.text.bytefifo_usendbyte,"ax",%progbits
 245              		.align	1
 246              		.syntax unified
 247              		.thumb
 248              		.thumb_func
 250              	bytefifo_usendbyte:
 251              	.LVL14:
 252              	.LFB4:
  53:../Public/fifo.c **** 
  54:../Public/fifo.c **** /*获取FIFO已使用的字节数*/
  55:../Public/fifo.c **** static unsigned short bytefifo_usendbyte(byte_fifo_t *pfifo)
  56:../Public/fifo.c **** {
 253              		.loc 1 56 1 is_stmt 1 view -0
 254              		.cfi_startproc
 255              		@ args = 0, pretend = 0, frame = 0
 256              		@ frame_needed = 0, uses_anonymous_args = 0
 257              		@ link register save eliminated.
  57:../Public/fifo.c **** 	if(pfifo->tail <= pfifo->head)
 258              		.loc 1 57 2 view .LVU67
 259              		.loc 1 57 10 is_stmt 0 view .LVU68
 260 0000 4288     		ldrh	r2, [r0, #2]
 261              		.loc 1 57 25 view .LVU69
 262 0002 0388     		ldrh	r3, [r0]
 263              		.loc 1 57 4 view .LVU70
 264 0004 9A42     		cmp	r2, r3
 265 0006 02D8     		bhi	.L16
  58:../Public/fifo.c **** 	{
  59:../Public/fifo.c **** 		return (pfifo->head-pfifo->tail);		
 266              		.loc 1 59 3 is_stmt 1 view .LVU71
 267              		.loc 1 59 22 is_stmt 0 view .LVU72
 268 0008 981A     		subs	r0, r3, r2
 269              	.LVL15:
 270              		.loc 1 59 22 view .LVU73
 271 000a 80B2     		uxth	r0, r0
 272 000c 7047     		bx	lr
 273              	.LVL16:
 274              	.L16:
  60:../Public/fifo.c **** 	}else{
  61:../Public/fifo.c **** 		return (pfifo->buflen  + pfifo->head - pfifo->tail);
 275              		.loc 1 61 3 is_stmt 1 view .LVU74
 276              		.loc 1 61 16 is_stmt 0 view .LVU75
 277 000e 8089     		ldrh	r0, [r0, #12]
 278              	.LVL17:
 279              		.loc 1 61 26 view .LVU76
 280 0010 13FA80F0 		uxtah	r0, r3, r0
 281 0014 80B2     		uxth	r0, r0
 282              		.loc 1 61 40 view .LVU77
 283 0016 801A     		subs	r0, r0, r2
 284 0018 80B2     		uxth	r0, r0
  62:../Public/fifo.c **** 	}
  63:../Public/fifo.c **** }
ARM GAS  C:\Users\zhangge\AppData\Local\Temp\ccK5zSpw.s 			page 7


 285              		.loc 1 63 1 view .LVU78
 286 001a 7047     		bx	lr
 287              		.cfi_endproc
 288              	.LFE4:
 290              		.section	.text.bytefifo_init,"ax",%progbits
 291              		.align	1
 292              		.global	bytefifo_init
 293              		.syntax unified
 294              		.thumb
 295              		.thumb_func
 297              	bytefifo_init:
 298              	.LVL18:
 299              	.LFB5:
  64:../Public/fifo.c **** void bytefifo_init(byte_fifo_t *pfifo,byte_t *arry,unsigned short len)
  65:../Public/fifo.c **** {
 300              		.loc 1 65 1 is_stmt 1 view -0
 301              		.cfi_startproc
 302              		@ args = 0, pretend = 0, frame = 0
 303              		@ frame_needed = 0, uses_anonymous_args = 0
 304              		@ link register save eliminated.
  66:../Public/fifo.c ****     pfifo->head = 0;
 305              		.loc 1 66 5 view .LVU80
 306              		.loc 1 66 17 is_stmt 0 view .LVU81
 307 0000 0023     		movs	r3, #0
 308 0002 0380     		strh	r3, [r0]	@ movhi
  67:../Public/fifo.c ****     pfifo->tail = 0;
 309              		.loc 1 67 5 is_stmt 1 view .LVU82
 310              		.loc 1 67 17 is_stmt 0 view .LVU83
 311 0004 4380     		strh	r3, [r0, #2]	@ movhi
  68:../Public/fifo.c ****     pfifo->remain_byte = len;
 312              		.loc 1 68 5 is_stmt 1 view .LVU84
 313              		.loc 1 68 24 is_stmt 0 view .LVU85
 314 0006 0FFA82FC 		sxth	ip, r2
 315 000a A0F804C0 		strh	ip, [r0, #4]	@ movhi
  69:../Public/fifo.c ****     pfifo->pbuf = arry;  
 316              		.loc 1 69 5 is_stmt 1 view .LVU86
 317              		.loc 1 69 17 is_stmt 0 view .LVU87
 318 000e 8160     		str	r1, [r0, #8]
  70:../Public/fifo.c ****     pfifo->buflen = len;
 319              		.loc 1 70 5 is_stmt 1 view .LVU88
 320              		.loc 1 70 19 is_stmt 0 view .LVU89
 321 0010 8281     		strh	r2, [r0, #12]	@ movhi
  71:../Public/fifo.c ****     pfifo->lockstate = FIFO_UNLOCK;
 322              		.loc 1 71 5 is_stmt 1 view .LVU90
 323              		.loc 1 71 22 is_stmt 0 view .LVU91
 324 0012 8373     		strb	r3, [r0, #14]
  72:../Public/fifo.c **** }
 325              		.loc 1 72 1 view .LVU92
 326 0014 7047     		bx	lr
 327              		.cfi_endproc
 328              	.LFE5:
 330              		.section	.text.bytefifo_writemulitebyge,"ax",%progbits
 331              		.align	1
 332              		.global	bytefifo_writemulitebyge
 333              		.syntax unified
 334              		.thumb
 335              		.thumb_func
ARM GAS  C:\Users\zhangge\AppData\Local\Temp\ccK5zSpw.s 			page 8


 337              	bytefifo_writemulitebyge:
 338              	.LVL19:
 339              	.LFB6:
  73:../Public/fifo.c **** char bytefifo_writemulitebyge(byte_fifo_t *pfifo,byte_t *buf,unsigned short len)
  74:../Public/fifo.c **** {
 340              		.loc 1 74 1 is_stmt 1 view -0
 341              		.cfi_startproc
 342              		@ args = 0, pretend = 0, frame = 0
 343              		@ frame_needed = 0, uses_anonymous_args = 0
 344              		.loc 1 74 1 is_stmt 0 view .LVU94
 345 0000 2DE9F041 		push	{r4, r5, r6, r7, r8, lr}
 346              	.LCFI2:
 347              		.cfi_def_cfa_offset 24
 348              		.cfi_offset 4, -24
 349              		.cfi_offset 5, -20
 350              		.cfi_offset 6, -16
 351              		.cfi_offset 7, -12
 352              		.cfi_offset 8, -8
 353              		.cfi_offset 14, -4
  75:../Public/fifo.c **** 	byte_t *pw;
 354              		.loc 1 75 2 is_stmt 1 view .LVU95
  76:../Public/fifo.c **** 	pw = buf;
 355              		.loc 1 76 2 view .LVU96
 356              	.LVL20:
  77:../Public/fifo.c ****     if (pfifo->lockstate)
 357              		.loc 1 77 5 view .LVU97
 358              		.loc 1 77 14 is_stmt 0 view .LVU98
 359 0004 837B     		ldrb	r3, [r0, #14]	@ zero_extendqisi2
 360              		.loc 1 77 8 view .LVU99
 361 0006 23B1     		cbz	r3, .L25
  78:../Public/fifo.c ****     {
  79:../Public/fifo.c ****         return 1;
 362              		.loc 1 79 16 view .LVU100
 363 0008 4FF00108 		mov	r8, #1
 364              	.LVL21:
 365              	.L20:
  80:../Public/fifo.c ****     }
  81:../Public/fifo.c ****     pfifo->lockstate = FIFO_LOCK;
  82:../Public/fifo.c **** 
  83:../Public/fifo.c **** 	if(len > (pfifo->buflen  - bytefifo_usendbyte(pfifo)-1))//-1，因为有一个字节始终没有用到
  84:../Public/fifo.c **** 	{
  85:../Public/fifo.c ****         pfifo->lockstate = FIFO_UNLOCK;
  86:../Public/fifo.c **** 		return 1;//写入失败
  87:../Public/fifo.c **** 	}
  88:../Public/fifo.c **** 	while(len--)
  89:../Public/fifo.c **** 	{
  90:../Public/fifo.c **** 		bytefifo_writebyte(pfifo,*pw);
  91:../Public/fifo.c **** 		pw++;
  92:../Public/fifo.c **** 	}
  93:../Public/fifo.c ****     pfifo->lockstate = FIFO_UNLOCK;
  94:../Public/fifo.c **** 	return 0;
  95:../Public/fifo.c **** }
 366              		.loc 1 95 1 view .LVU101
 367 000c 4046     		mov	r0, r8
 368 000e BDE8F081 		pop	{r4, r5, r6, r7, r8, pc}
 369              	.LVL22:
 370              	.L25:
ARM GAS  C:\Users\zhangge\AppData\Local\Temp\ccK5zSpw.s 			page 9


 371              		.loc 1 95 1 view .LVU102
 372 0012 0646     		mov	r6, r0
 373 0014 0F46     		mov	r7, r1
 374 0016 1446     		mov	r4, r2
 375 0018 03F0FF08 		and	r8, r3, #255
  81:../Public/fifo.c **** 
 376              		.loc 1 81 5 is_stmt 1 view .LVU103
  81:../Public/fifo.c **** 
 377              		.loc 1 81 22 is_stmt 0 view .LVU104
 378 001c 0123     		movs	r3, #1
 379 001e 8373     		strb	r3, [r0, #14]
  83:../Public/fifo.c **** 	{
 380              		.loc 1 83 2 is_stmt 1 view .LVU105
  83:../Public/fifo.c **** 	{
 381              		.loc 1 83 17 is_stmt 0 view .LVU106
 382 0020 8589     		ldrh	r5, [r0, #12]
 383 0022 ADB2     		uxth	r5, r5
  83:../Public/fifo.c **** 	{
 384              		.loc 1 83 29 view .LVU107
 385 0024 FFF7FEFF 		bl	bytefifo_usendbyte
 386              	.LVL23:
  83:../Public/fifo.c **** 	{
 387              		.loc 1 83 27 view .LVU108
 388 0028 2D1A     		subs	r5, r5, r0
  83:../Public/fifo.c **** 	{
 389              		.loc 1 83 4 view .LVU109
 390 002a A542     		cmp	r5, r4
 391 002c 0ADC     		bgt	.L21
  85:../Public/fifo.c **** 		return 1;//写入失败
 392              		.loc 1 85 9 is_stmt 1 view .LVU110
  85:../Public/fifo.c **** 		return 1;//写入失败
 393              		.loc 1 85 26 is_stmt 0 view .LVU111
 394 002e 0023     		movs	r3, #0
 395 0030 B373     		strb	r3, [r6, #14]
  86:../Public/fifo.c **** 	}
 396              		.loc 1 86 3 is_stmt 1 view .LVU112
  86:../Public/fifo.c **** 	}
 397              		.loc 1 86 10 is_stmt 0 view .LVU113
 398 0032 4FF00108 		mov	r8, #1
 399 0036 E9E7     		b	.L20
 400              	.LVL24:
 401              	.L22:
  90:../Public/fifo.c **** 		pw++;
 402              		.loc 1 90 3 is_stmt 1 view .LVU114
 403 0038 17F8011B 		ldrb	r1, [r7], #1	@ zero_extendqisi2
 404              	.LVL25:
  90:../Public/fifo.c **** 		pw++;
 405              		.loc 1 90 3 is_stmt 0 view .LVU115
 406 003c 3046     		mov	r0, r6
 407 003e FFF7FEFF 		bl	bytefifo_writebyte
 408              	.LVL26:
  91:../Public/fifo.c **** 	}
 409              		.loc 1 91 3 is_stmt 1 view .LVU116
  88:../Public/fifo.c **** 	{
 410              		.loc 1 88 11 is_stmt 0 view .LVU117
 411 0042 2C46     		mov	r4, r5
 412              	.LVL27:
ARM GAS  C:\Users\zhangge\AppData\Local\Temp\ccK5zSpw.s 			page 10


 413              	.L21:
  88:../Public/fifo.c **** 	{
 414              		.loc 1 88 7 is_stmt 1 view .LVU118
  88:../Public/fifo.c **** 	{
 415              		.loc 1 88 11 is_stmt 0 view .LVU119
 416 0044 631E     		subs	r3, r4, #1
 417 0046 9DB2     		uxth	r5, r3
 418              	.LVL28:
  88:../Public/fifo.c **** 	{
 419              		.loc 1 88 7 view .LVU120
 420 0048 002C     		cmp	r4, #0
 421 004a F5D1     		bne	.L22
  93:../Public/fifo.c **** 	return 0;
 422              		.loc 1 93 5 is_stmt 1 view .LVU121
  93:../Public/fifo.c **** 	return 0;
 423              		.loc 1 93 22 is_stmt 0 view .LVU122
 424 004c 0023     		movs	r3, #0
 425 004e B373     		strb	r3, [r6, #14]
  94:../Public/fifo.c **** }
 426              		.loc 1 94 2 is_stmt 1 view .LVU123
  94:../Public/fifo.c **** }
 427              		.loc 1 94 9 is_stmt 0 view .LVU124
 428 0050 DCE7     		b	.L20
 429              		.cfi_endproc
 430              	.LFE6:
 432              		.section	.text.bytefifo_readmulintebyte,"ax",%progbits
 433              		.align	1
 434              		.global	bytefifo_readmulintebyte
 435              		.syntax unified
 436              		.thumb
 437              		.thumb_func
 439              	bytefifo_readmulintebyte:
 440              	.LVL29:
 441              	.LFB7:
  96:../Public/fifo.c **** char bytefifo_readmulintebyte(byte_fifo_t *pfifo,byte_t *buf,unsigned short len)
  97:../Public/fifo.c **** {
 442              		.loc 1 97 1 is_stmt 1 view -0
 443              		.cfi_startproc
 444              		@ args = 0, pretend = 0, frame = 8
 445              		@ frame_needed = 0, uses_anonymous_args = 0
 446              		.loc 1 97 1 is_stmt 0 view .LVU126
 447 0000 F0B5     		push	{r4, r5, r6, r7, lr}
 448              	.LCFI3:
 449              		.cfi_def_cfa_offset 20
 450              		.cfi_offset 4, -20
 451              		.cfi_offset 5, -16
 452              		.cfi_offset 6, -12
 453              		.cfi_offset 7, -8
 454              		.cfi_offset 14, -4
 455 0002 83B0     		sub	sp, sp, #12
 456              	.LCFI4:
 457              		.cfi_def_cfa_offset 32
  98:../Public/fifo.c **** 	byte_t temp = 0;
 458              		.loc 1 98 2 is_stmt 1 view .LVU127
 459              		.loc 1 98 9 is_stmt 0 view .LVU128
 460 0004 0023     		movs	r3, #0
 461 0006 8DF80730 		strb	r3, [sp, #7]
ARM GAS  C:\Users\zhangge\AppData\Local\Temp\ccK5zSpw.s 			page 11


  99:../Public/fifo.c **** 	char statues = 1;
 462              		.loc 1 99 2 is_stmt 1 view .LVU129
 463              	.LVL30:
 100:../Public/fifo.c ****     if (pfifo->lockstate)
 464              		.loc 1 100 5 view .LVU130
 465              		.loc 1 100 14 is_stmt 0 view .LVU131
 466 000a 837B     		ldrb	r3, [r0, #14]	@ zero_extendqisi2
 467              		.loc 1 100 8 view .LVU132
 468 000c 13B1     		cbz	r3, .L33
 101:../Public/fifo.c ****     {
 102:../Public/fifo.c ****         return 1;
 469              		.loc 1 102 16 view .LVU133
 470 000e 0120     		movs	r0, #1
 471              	.LVL31:
 472              	.L27:
 103:../Public/fifo.c ****     }
 104:../Public/fifo.c ****     pfifo->lockstate = FIFO_LOCK;
 105:../Public/fifo.c **** 	if(len > bytefifo_usendbyte(pfifo))//
 106:../Public/fifo.c **** 	{
 107:../Public/fifo.c ****         pfifo->lockstate = FIFO_UNLOCK;
 108:../Public/fifo.c **** 		return 1;//读取失败
 109:../Public/fifo.c **** 	}
 110:../Public/fifo.c **** 	while(len--)
 111:../Public/fifo.c **** 	{
 112:../Public/fifo.c **** 		statues = bytefifo_readbyte(pfifo,&temp);
 113:../Public/fifo.c **** 		*buf++ = temp;
 114:../Public/fifo.c **** 	}
 115:../Public/fifo.c ****     pfifo->lockstate = FIFO_UNLOCK;
 116:../Public/fifo.c **** 	return statues;
 117:../Public/fifo.c **** }...
 473              		.loc 1 117 1 view .LVU134
 474 0010 03B0     		add	sp, sp, #12
 475              	.LCFI5:
 476              		.cfi_remember_state
 477              		.cfi_def_cfa_offset 20
 478              		@ sp needed
 479 0012 F0BD     		pop	{r4, r5, r6, r7, pc}
 480              	.LVL32:
 481              	.L33:
 482              	.LCFI6:
 483              		.cfi_restore_state
 484              		.loc 1 117 1 view .LVU135
 485 0014 0746     		mov	r7, r0
 486 0016 0D46     		mov	r5, r1
 487 0018 1646     		mov	r6, r2
 104:../Public/fifo.c ****     pfifo->lockstate = FIFO_LOCK;
 488              		.loc 1 104 5 is_stmt 1 view .LVU136
 104:../Public/fifo.c ****     pfifo->lockstate = FIFO_LOCK;
 489              		.loc 1 104 22 is_stmt 0 view .LVU137
 490 001a 0123     		movs	r3, #1
 491 001c 8373     		strb	r3, [r0, #14]
 105:../Public/fifo.c **** 	if(len > bytefifo_usendbyte(pfifo))//
 492              		.loc 1 105 2 is_stmt 1 view .LVU138
 105:../Public/fifo.c **** 	if(len > bytefifo_usendbyte(pfifo))//
 493              		.loc 1 105 11 is_stmt 0 view .LVU139
 494 001e FFF7FEFF 		bl	bytefifo_usendbyte
 495              	.LVL33:
ARM GAS  C:\Users\zhangge\AppData\Local\Temp\ccK5zSpw.s 			page 12


 105:../Public/fifo.c **** 	if(len > bytefifo_usendbyte(pfifo))//
 496              		.loc 1 105 4 view .LVU140
 497 0022 B042     		cmp	r0, r6
 498 0024 01D3     		bcc	.L34
  99:../Public/fifo.c **** 	char statues = 1;
 499              		.loc 1 99 7 view .LVU141
 500 0026 0120     		movs	r0, #1
 501 0028 0FE0     		b	.L28
 502              	.L34:
 107:../Public/fifo.c ****         pfifo->lockstate = FIFO_UNLOCK;
 503              		.loc 1 107 9 is_stmt 1 view .LVU142
 107:../Public/fifo.c ****         pfifo->lockstate = FIFO_UNLOCK;
 504              		.loc 1 107 26 is_stmt 0 view .LVU143
 505 002a 0023     		movs	r3, #0
 506 002c BB73     		strb	r3, [r7, #14]
 108:../Public/fifo.c **** 		return 1;//读取失败
 507              		.loc 1 108 3 is_stmt 1 view .LVU144
 108:../Public/fifo.c **** 		return 1;//读取失败
 508              		.loc 1 108 10 is_stmt 0 view .LVU145
 509 002e 0120     		movs	r0, #1
 510 0030 EEE7     		b	.L27
 511              	.LVL34:
 512              	.L29:
 112:../Public/fifo.c **** 		statues = bytefifo_readbyte(pfifo,&temp);
 513              		.loc 1 112 3 is_stmt 1 view .LVU146
 112:../Public/fifo.c **** 		statues = bytefifo_readbyte(pfifo,&temp);
 514              		.loc 1 112 13 is_stmt 0 view .LVU147
 515 0032 0DF10701 		add	r1, sp, #7
 516 0036 3846     		mov	r0, r7
 517              	.LVL35:
 112:../Public/fifo.c **** 		statues = bytefifo_readbyte(pfifo,&temp);
 518              		.loc 1 112 13 view .LVU148
 519 0038 FFF7FEFF 		bl	bytefifo_readbyte
 520              	.LVL36:
 113:../Public/fifo.c **** 		*buf++ = temp;
 521              		.loc 1 113 3 is_stmt 1 view .LVU149
 113:../Public/fifo.c **** 		*buf++ = temp;
 522              		.loc 1 113 7 is_stmt 0 view .LVU150
 523 003c 2946     		mov	r1, r5
 524              	.LVL37:
 113:../Public/fifo.c **** 		*buf++ = temp;
 525              		.loc 1 113 10 view .LVU151
 526 003e 9DF80730 		ldrb	r3, [sp, #7]	@ zero_extendqisi2
 527 0042 01F8013B 		strb	r3, [r1], #1
 528              	.LVL38:
 110:../Public/fifo.c **** 	while(len--)
 529              		.loc 1 110 11 view .LVU152
 530 0046 2646     		mov	r6, r4
 113:../Public/fifo.c **** 		*buf++ = temp;
 531              		.loc 1 113 7 view .LVU153
 532 0048 0D46     		mov	r5, r1
 533              	.LVL39:
 534              	.L28:
 110:../Public/fifo.c **** 	while(len--)
 535              		.loc 1 110 7 is_stmt 1 view .LVU154
 110:../Public/fifo.c **** 	while(len--)
 536              		.loc 1 110 11 is_stmt 0 view .LVU155
ARM GAS  C:\Users\zhangge\AppData\Local\Temp\ccK5zSpw.s 			page 13


 537 004a 731E     		subs	r3, r6, #1
 538 004c 9CB2     		uxth	r4, r3
 539              	.LVL40:
 110:../Public/fifo.c **** 	while(len--)
 540              		.loc 1 110 7 view .LVU156
 541 004e 002E     		cmp	r6, #0
 542 0050 EFD1     		bne	.L29
 115:../Public/fifo.c ****     pfifo->lockstate = FIFO_UNLOCK;
 543              		.loc 1 115 5 is_stmt 1 view .LVU157
 115:../Public/fifo.c ****     pfifo->lockstate = FIFO_UNLOCK;
 544              		.loc 1 115 22 is_stmt 0 view .LVU158
 545 0052 0023     		movs	r3, #0
 546 0054 BB73     		strb	r3, [r7, #14]
 116:../Public/fifo.c **** 	return statues;
 547              		.loc 1 116 2 is_stmt 1 view .LVU159
 116:../Public/fifo.c **** 	return statues;
 548              		.loc 1 116 9 is_stmt 0 view .LVU160
 549 0056 DBE7     		b	.L27
 550              		.cfi_endproc
 551              	.LFE7:
 553              		.text
 554              	.Letext0:
 555              		.file 2 "../Public/fifo.h"
ARM GAS  C:\Users\zhangge\AppData\Local\Temp\ccK5zSpw.s 			page 14


DEFINED SYMBOLS
                            *ABS*:00000000 fifo.c
C:\Users\zhangge\AppData\Local\Temp\ccK5zSpw.s:20     .text.bytefifo_isfull:00000000 $t
C:\Users\zhangge\AppData\Local\Temp\ccK5zSpw.s:25     .text.bytefifo_isfull:00000000 bytefifo_isfull
C:\Users\zhangge\AppData\Local\Temp\ccK5zSpw.s:66     .text.bytefifo_isempty:00000000 $t
C:\Users\zhangge\AppData\Local\Temp\ccK5zSpw.s:71     .text.bytefifo_isempty:00000000 bytefifo_isempty
C:\Users\zhangge\AppData\Local\Temp\ccK5zSpw.s:103    .text.bytefifo_writebyte:00000000 $t
C:\Users\zhangge\AppData\Local\Temp\ccK5zSpw.s:108    .text.bytefifo_writebyte:00000000 bytefifo_writebyte
C:\Users\zhangge\AppData\Local\Temp\ccK5zSpw.s:173    .text.bytefifo_readbyte:00000000 $t
C:\Users\zhangge\AppData\Local\Temp\ccK5zSpw.s:178    .text.bytefifo_readbyte:00000000 bytefifo_readbyte
C:\Users\zhangge\AppData\Local\Temp\ccK5zSpw.s:245    .text.bytefifo_usendbyte:00000000 $t
C:\Users\zhangge\AppData\Local\Temp\ccK5zSpw.s:250    .text.bytefifo_usendbyte:00000000 bytefifo_usendbyte
C:\Users\zhangge\AppData\Local\Temp\ccK5zSpw.s:291    .text.bytefifo_init:00000000 $t
C:\Users\zhangge\AppData\Local\Temp\ccK5zSpw.s:297    .text.bytefifo_init:00000000 bytefifo_init
C:\Users\zhangge\AppData\Local\Temp\ccK5zSpw.s:331    .text.bytefifo_writemulitebyge:00000000 $t
C:\Users\zhangge\AppData\Local\Temp\ccK5zSpw.s:337    .text.bytefifo_writemulitebyge:00000000 bytefifo_writemulitebyge
C:\Users\zhangge\AppData\Local\Temp\ccK5zSpw.s:433    .text.bytefifo_readmulintebyte:00000000 $t
C:\Users\zhangge\AppData\Local\Temp\ccK5zSpw.s:439    .text.bytefifo_readmulintebyte:00000000 bytefifo_readmulintebyte

NO UNDEFINED SYMBOLS
