ARM GAS  C:\Users\57308\AppData\Local\Temp\ccXTQsaE.s 			page 1


   1              		.cpu cortex-m4
   2              		.arch armv7e-m
   3              		.fpu fpv4-sp-d16
   4              		.eabi_attribute 27, 1
   5              		.eabi_attribute 28, 1
   6              		.eabi_attribute 20, 1
   7              		.eabi_attribute 21, 1
   8              		.eabi_attribute 23, 3
   9              		.eabi_attribute 24, 1
  10              		.eabi_attribute 25, 1
  11              		.eabi_attribute 26, 1
  12              		.eabi_attribute 30, 1
  13              		.eabi_attribute 34, 1
  14              		.eabi_attribute 18, 4
  15              		.file	"main.c"
  16              		.text
  17              	.Ltext0:
  18              		.cfi_sections	.debug_frame
  19              		.section	.text.HAL_GPIO_EXTI_Callback,"ax",%progbits
  20              		.align	1
  21              		.global	HAL_GPIO_EXTI_Callback
  22              		.syntax unified
  23              		.thumb
  24              		.thumb_func
  26              	HAL_GPIO_EXTI_Callback:
  27              	.LVL0:
  28              	.LFB329:
  29              		.file 1 "Src/main.c"
   1:Src/main.c    **** /* USER CODE BEGIN Header */
   2:Src/main.c    **** /**
   3:Src/main.c    ****   ******************************************************************************
   4:Src/main.c    ****   * @file           : main.c
   5:Src/main.c    ****   * @brief          : Main program body
   6:Src/main.c    ****   ******************************************************************************
   7:Src/main.c    ****   * @attention
   8:Src/main.c    ****   *
   9:Src/main.c    ****   * 1ï¿½ï¿½42BLDC ï¿½ï¿½ï¿½ï¿½ï¿½ï¿½ï¿½Ë³ï¿½ï¿½Î? ï¿½ï¿½Ô´+ ï¿½ï¿½Ô´- ï¿½ï¿½ï¿½ï¿½ ï¿½ï¿½ï¿½ï¿½ ï¿½
  10:Src/main.c    ****   * git
  11:Src/main.c    ****   *     ï¿½ï¿½ï¿½Ô³ï¿½ï¿½Ô¸ï¿½theta -PI/2
  12:Src/main.c    ****   ******************************************************************************
  13:Src/main.c    ****   */
  14:Src/main.c    **** /* USER CODE END Header */
  15:Src/main.c    **** /* Includes ------------------------------------------------------------------*/
  16:Src/main.c    **** #include "main.h"
  17:Src/main.c    **** #include "adc.h"
  18:Src/main.c    **** #include "dma.h"
  19:Src/main.c    **** #include "spi.h"
  20:Src/main.c    **** #include "tim.h"
  21:Src/main.c    **** #include "usart.h"
  22:Src/main.c    **** #include "gpio.h"
  23:Src/main.c    **** 
  24:Src/main.c    **** /* Private includes ----------------------------------------------------------*/
  25:Src/main.c    **** /* USER CODE BEGIN Includes */
  26:Src/main.c    **** 
  27:Src/main.c    **** #include "ipc.h"
  28:Src/main.c    **** #include "sensor.h"
  29:Src/main.c    **** #include "../Protocol/protocol.h"
ARM GAS  C:\Users\57308\AppData\Local\Temp\ccXTQsaE.s 			page 2


  30:Src/main.c    **** #include "../../BLDCMotor/motorctrl.h"
  31:Src/main.c    **** #include "_common.h"
  32:Src/main.c    **** #include "debuglog.h"
  33:Src/main.c    **** #include "hardware.h"
  34:Src/main.c    **** /* USER CODE END Includes */
  35:Src/main.c    **** 
  36:Src/main.c    **** /* Private typedef -----------------------------------------------------------*/
  37:Src/main.c    **** /* USER CODE BEGIN PTD */
  38:Src/main.c    **** 
  39:Src/main.c    **** /* USER CODE END PTD */
  40:Src/main.c    **** 
  41:Src/main.c    **** /* Private define ------------------------------------------------------------*/
  42:Src/main.c    **** /* USER CODE BEGIN PD */
  43:Src/main.c    **** /* USER CODE END PD */
  44:Src/main.c    **** 
  45:Src/main.c    **** /* Private macro -------------------------------------------------------------*/
  46:Src/main.c    **** /* USER CODE BEGIN PM */
  47:Src/main.c    **** /* USER CODE END PM */
  48:Src/main.c    **** 
  49:Src/main.c    **** /* Private variables ---------------------------------------------------------*/
  50:Src/main.c    **** 
  51:Src/main.c    **** /* USER CODE BEGIN PV */
  52:Src/main.c    **** 
  53:Src/main.c    **** 
  54:Src/main.c    **** void HAL_GPIO_EXTI_Callback(uint16_t GPIO_Pin)
  55:Src/main.c    **** {
  30              		.loc 1 55 1 view -0
  31              		.cfi_startproc
  32              		@ args = 0, pretend = 0, frame = 0
  33              		@ frame_needed = 0, uses_anonymous_args = 0
  34              		@ link register save eliminated.
  56:Src/main.c    ****     /*------------------*/
  57:Src/main.c    ****     IPC_SET_EVENT(gEventGroup,KEY01_SHORT_PRESS);
  35              		.loc 1 57 5 view .LVU1
  36 0000 024A     		ldr	r2, .L2
  37 0002 1368     		ldr	r3, [r2]
  38 0004 43F00103 		orr	r3, r3, #1
  39 0008 1360     		str	r3, [r2]
  58:Src/main.c    **** }
  40              		.loc 1 58 1 is_stmt 0 view .LVU2
  41 000a 7047     		bx	lr
  42              	.L3:
  43              		.align	2
  44              	.L2:
  45 000c 00000000 		.word	gEventGroup
  46              		.cfi_endproc
  47              	.LFE329:
  49              		.section	.text.sysrunning_process,"ax",%progbits
  50              		.align	1
  51              		.global	sysrunning_process
  52              		.syntax unified
  53              		.thumb
  54              		.thumb_func
  56              	sysrunning_process:
  57              	.LFB330:
  59:Src/main.c    **** 
  60:Src/main.c    **** /* USER CODE END PV */
ARM GAS  C:\Users\57308\AppData\Local\Temp\ccXTQsaE.s 			page 3


  61:Src/main.c    **** 
  62:Src/main.c    **** /* Private function prototypes -----------------------------------------------*/
  63:Src/main.c    **** void SystemClock_Config(void);
  64:Src/main.c    **** /* USER CODE BEGIN PFP */
  65:Src/main.c    **** /* USER CODE END PFP */
  66:Src/main.c    **** 
  67:Src/main.c    **** /* Private user code ---------------------------------------------------------*/
  68:Src/main.c    **** /* USER CODE BEGIN 0 */
  69:Src/main.c    **** /*--------------ÏµÍ³ï¿½ß³ï¿½-------------------*/
  70:Src/main.c    **** #define SYSRUNNING_PERCI            (1)
  71:Src/main.c    **** #define DELAY_1MS                   (1)/SYSRUNNING_PERCI
  72:Src/main.c    **** #define DELAY_2MS                   (2)/SYSRUNNING_PERCI
  73:Src/main.c    **** #define DELAY_5MS                   (5)/SYSRUNNING_PERCI
  74:Src/main.c    **** #define DELAY_20MS                  (20)/SYSRUNNING_PERCI
  75:Src/main.c    **** #define DELAY_500MS                 (500)/SYSRUNNING_PERCI
  76:Src/main.c    **** #define DELAY_1000MS                (1000)/SYSRUNNING_PERCI
  77:Src/main.c    **** #define DELAY_5000MS                (5000)/SYSRUNNING_PERCI
  78:Src/main.c    **** typedef struct
  79:Src/main.c    **** {
  80:Src/main.c    ****     /* data */
  81:Src/main.c    ****     unsigned int time_cnt;
  82:Src/main.c    ****     unsigned char state;
  83:Src/main.c    **** }sys_run_t;
  84:Src/main.c    **** static sys_run_t sg_SYSRuning;
  85:Src/main.c    **** void sysrunning_process(void)
  86:Src/main.c    **** {
  58              		.loc 1 86 1 is_stmt 1 view -0
  59              		.cfi_startproc
  60              		@ args = 0, pretend = 0, frame = 0
  61              		@ frame_needed = 0, uses_anonymous_args = 0
  62 0000 08B5     		push	{r3, lr}
  63              	.LCFI0:
  64              		.cfi_def_cfa_offset 8
  65              		.cfi_offset 3, -8
  66              		.cfi_offset 14, -4
  87:Src/main.c    ****     enum{
  67              		.loc 1 87 5 view .LVU4
  88:Src/main.c    ****         SYS_IDLE,
  89:Src/main.c    ****         SYS_NORMLE,
  90:Src/main.c    ****     };
  91:Src/main.c    ****     /*-----------------------*/
  92:Src/main.c    ****     sg_SYSRuning.time_cnt++;
  68              		.loc 1 92 5 view .LVU5
  69              		.loc 1 92 17 is_stmt 0 view .LVU6
  70 0002 144A     		ldr	r2, .L10
  71 0004 1368     		ldr	r3, [r2]
  72              		.loc 1 92 26 view .LVU7
  73 0006 0133     		adds	r3, r3, #1
  74 0008 1360     		str	r3, [r2]
  93:Src/main.c    ****     switch (sg_SYSRuning.state)
  75              		.loc 1 93 5 is_stmt 1 view .LVU8
  76              		.loc 1 93 25 is_stmt 0 view .LVU9
  77 000a 1279     		ldrb	r2, [r2, #4]	@ zero_extendqisi2
  78              		.loc 1 93 5 view .LVU10
  79 000c 52B9     		cbnz	r2, .L4
  94:Src/main.c    ****     {
  95:Src/main.c    ****         case SYS_IDLE:
ARM GAS  C:\Users\57308\AppData\Local\Temp\ccXTQsaE.s 			page 4


  96:Src/main.c    ****             if(!(sg_SYSRuning.time_cnt % (DELAY_5000MS))){
  80              		.loc 1 96 13 is_stmt 1 view .LVU11
  81              		.loc 1 96 40 is_stmt 0 view .LVU12
  82 000e 124A     		ldr	r2, .L10+4
  83 0010 A2FB0312 		umull	r1, r2, r2, r3
  84 0014 120B     		lsrs	r2, r2, #12
  85 0016 41F28831 		movw	r1, #5000
  86 001a 01FB1232 		mls	r2, r1, r2, r3
  87              		.loc 1 96 15 view .LVU13
  88 001e 12B9     		cbnz	r2, .L6
  97:Src/main.c    ****                 sg_SYSRuning.time_cnt = 0;
  89              		.loc 1 97 17 is_stmt 1 view .LVU14
  90              		.loc 1 97 39 is_stmt 0 view .LVU15
  91 0020 0C4B     		ldr	r3, .L10
  92 0022 1A60     		str	r2, [r3]
  98:Src/main.c    ****                 break;
  93              		.loc 1 98 17 is_stmt 1 view .LVU16
  94              	.L4:
  99:Src/main.c    ****             }           
 100:Src/main.c    ****             if(!(sg_SYSRuning.time_cnt % (DELAY_1000MS))){
 101:Src/main.c    ****             }
 102:Src/main.c    ****             if(!(sg_SYSRuning.time_cnt % (DELAY_500MS)))
 103:Src/main.c    ****             {
 104:Src/main.c    ****             }            
 105:Src/main.c    ****             if(!(sg_SYSRuning.time_cnt % (DELAY_20MS)))
 106:Src/main.c    ****             {
 107:Src/main.c    ****                 // USER_DEBUG_NORMAL("theta %f\r\n",(*(sensor_data_t*)sensor_user_read(SENSOR_01)).
 108:Src/main.c    ****                 HAL_GPIO_TogglePin(LED_01_GPIO_Port,LED_01_Pin);                
 109:Src/main.c    ****             }
 110:Src/main.c    ****             if(!(sg_SYSRuning.time_cnt % (DELAY_2MS))){
 111:Src/main.c    ****                 protocol02_process();
 112:Src/main.c    ****             }
 113:Src/main.c    ****         default:
 114:Src/main.c    ****             break;
 115:Src/main.c    ****     }
 116:Src/main.c    **** }
  95              		.loc 1 116 1 is_stmt 0 view .LVU17
  96 0024 08BD     		pop	{r3, pc}
  97              	.L6:
 100:Src/main.c    ****             }
  98              		.loc 1 100 13 is_stmt 1 view .LVU18
 101:Src/main.c    ****             if(!(sg_SYSRuning.time_cnt % (DELAY_500MS)))
  99              		.loc 1 101 13 view .LVU19
 102:Src/main.c    ****             {
 100              		.loc 1 102 13 view .LVU20
 104:Src/main.c    ****             if(!(sg_SYSRuning.time_cnt % (DELAY_20MS)))
 101              		.loc 1 104 13 view .LVU21
 105:Src/main.c    ****             {
 102              		.loc 1 105 13 view .LVU22
 105:Src/main.c    ****             {
 103              		.loc 1 105 40 is_stmt 0 view .LVU23
 104 0026 0D4A     		ldr	r2, .L10+8
 105 0028 A2FB0312 		umull	r1, r2, r2, r3
 106 002c 1209     		lsrs	r2, r2, #4
 107 002e 02EB8202 		add	r2, r2, r2, lsl #2
 108 0032 9100     		lsls	r1, r2, #2
 105:Src/main.c    ****             {
ARM GAS  C:\Users\57308\AppData\Local\Temp\ccXTQsaE.s 			page 5


 109              		.loc 1 105 15 view .LVU24
 110 0034 8B42     		cmp	r3, r1
 111 0036 07D0     		beq	.L9
 112              	.L7:
 110:Src/main.c    ****                 protocol02_process();
 113              		.loc 1 110 13 is_stmt 1 view .LVU25
 110:Src/main.c    ****                 protocol02_process();
 114              		.loc 1 110 30 is_stmt 0 view .LVU26
 115 0038 064B     		ldr	r3, .L10
 116 003a 1B68     		ldr	r3, [r3]
 110:Src/main.c    ****                 protocol02_process();
 117              		.loc 1 110 15 view .LVU27
 118 003c 13F0010F 		tst	r3, #1
 119 0040 F0D1     		bne	.L4
 111:Src/main.c    ****             }
 120              		.loc 1 111 17 is_stmt 1 view .LVU28
 121 0042 FFF7FEFF 		bl	protocol02_process
 122              	.LVL1:
 123              		.loc 1 116 1 is_stmt 0 view .LVU29
 124 0046 EDE7     		b	.L4
 125              	.L9:
 108:Src/main.c    ****             }
 126              		.loc 1 108 17 is_stmt 1 view .LVU30
 127 0048 4FF40051 		mov	r1, #8192
 128 004c 0448     		ldr	r0, .L10+12
 129 004e FFF7FEFF 		bl	HAL_GPIO_TogglePin
 130              	.LVL2:
 131 0052 F1E7     		b	.L7
 132              	.L11:
 133              		.align	2
 134              	.L10:
 135 0054 00000000 		.word	.LANCHOR0
 136 0058 5917B7D1 		.word	-776530087
 137 005c CDCCCCCC 		.word	-858993459
 138 0060 00080048 		.word	1207961600
 139              		.cfi_endproc
 140              	.LFE330:
 142              		.section	.text.Error_Handler,"ax",%progbits
 143              		.align	1
 144              		.global	Error_Handler
 145              		.syntax unified
 146              		.thumb
 147              		.thumb_func
 149              	Error_Handler:
 150              	.LFB333:
 117:Src/main.c    **** 
 118:Src/main.c    **** 
 119:Src/main.c    **** /* USER CODE END 0 */
 120:Src/main.c    **** 
 121:Src/main.c    **** /**
 122:Src/main.c    ****   * @brief  The application entry point.
 123:Src/main.c    ****   * @retval int
 124:Src/main.c    ****   */
 125:Src/main.c    **** int main(void)
 126:Src/main.c    **** {
 127:Src/main.c    ****   /* USER CODE BEGIN 1 */
 128:Src/main.c    **** 
ARM GAS  C:\Users\57308\AppData\Local\Temp\ccXTQsaE.s 			page 6


 129:Src/main.c    ****   /* USER CODE END 1 */
 130:Src/main.c    **** 
 131:Src/main.c    ****   /* MCU Configuration--------------------------------------------------------*/
 132:Src/main.c    **** 
 133:Src/main.c    ****   /* Reset of all peripherals, Initializes the Flash interface and the Systick. */
 134:Src/main.c    ****   HAL_Init();
 135:Src/main.c    **** 
 136:Src/main.c    ****   /* USER CODE BEGIN Init */
 137:Src/main.c    **** 
 138:Src/main.c    ****   /* USER CODE END Init */
 139:Src/main.c    **** 
 140:Src/main.c    ****   /* Configure the system clock */
 141:Src/main.c    ****   SystemClock_Config();
 142:Src/main.c    **** 
 143:Src/main.c    ****   /* USER CODE BEGIN SysInit */
 144:Src/main.c    **** 
 145:Src/main.c    ****   /* USER CODE END SysInit */
 146:Src/main.c    **** 
 147:Src/main.c    ****   /* Initialize all configured peripherals */
 148:Src/main.c    ****   MX_GPIO_Init();
 149:Src/main.c    ****   MX_DMA_Init();
 150:Src/main.c    ****   MX_TIM1_Init();
 151:Src/main.c    ****   MX_ADC1_Init();
 152:Src/main.c    ****   MX_SPI1_Init();
 153:Src/main.c    ****   MX_USART1_UART_Init();
 154:Src/main.c    ****   /* USER CODE BEGIN 2 */
 155:Src/main.c    ****   User_Printf_Init();
 156:Src/main.c    ****   USER_DEBUG_NORMAL("hello world\r\n");
 157:Src/main.c    ****   hw_init();
 158:Src/main.c    ****   protocol_init();
 159:Src/main.c    ****   HAL_GPIO_WritePin(LED_01_GPIO_Port,LED_01_Pin,GPIO_PIN_SET);
 160:Src/main.c    ****   USER_DEBUG_NORMAL("SYS start runing\r\n");
 161:Src/main.c    ****   /* USER CODE END 2 */
 162:Src/main.c    **** 
 163:Src/main.c    ****   /* Infinite loop */
 164:Src/main.c    ****   /* USER CODE BEGIN WHILE */
 165:Src/main.c    ****   while (1)
 166:Src/main.c    ****   {
 167:Src/main.c    ****     sysrunning_process();
 168:Src/main.c    ****     hw_sensor_process();
 169:Src/main.c    ****     motortctrl_process();
 170:Src/main.c    ****     protocol_process();
 171:Src/main.c    **** 
 172:Src/main.c    ****     HAL_Delay(1);
 173:Src/main.c    ****     /* USER CODE END WHILE */
 174:Src/main.c    **** 
 175:Src/main.c    ****     /* USER CODE BEGIN 3 */
 176:Src/main.c    ****   }
 177:Src/main.c    ****   /* USER CODE END 3 */
 178:Src/main.c    **** }
 179:Src/main.c    **** 
 180:Src/main.c    **** /**
 181:Src/main.c    ****   * @brief System Clock Configuration
 182:Src/main.c    ****   * @retval None
 183:Src/main.c    ****   */
 184:Src/main.c    **** void SystemClock_Config(void)
 185:Src/main.c    **** {
ARM GAS  C:\Users\57308\AppData\Local\Temp\ccXTQsaE.s 			page 7


 186:Src/main.c    ****   RCC_OscInitTypeDef RCC_OscInitStruct = {0};
 187:Src/main.c    ****   RCC_ClkInitTypeDef RCC_ClkInitStruct = {0};
 188:Src/main.c    **** 
 189:Src/main.c    ****   /** Configure the main internal regulator output voltage
 190:Src/main.c    ****   */
 191:Src/main.c    ****   HAL_PWREx_ControlVoltageScaling(PWR_REGULATOR_VOLTAGE_SCALE1_BOOST);
 192:Src/main.c    **** 
 193:Src/main.c    ****   /** Initializes the RCC Oscillators according to the specified parameters
 194:Src/main.c    ****   * in the RCC_OscInitTypeDef structure.
 195:Src/main.c    ****   */
 196:Src/main.c    ****   RCC_OscInitStruct.OscillatorType = RCC_OSCILLATORTYPE_HSE;
 197:Src/main.c    ****   RCC_OscInitStruct.HSEState = RCC_HSE_ON;
 198:Src/main.c    ****   RCC_OscInitStruct.PLL.PLLState = RCC_PLL_ON;
 199:Src/main.c    ****   RCC_OscInitStruct.PLL.PLLSource = RCC_PLLSOURCE_HSE;
 200:Src/main.c    ****   RCC_OscInitStruct.PLL.PLLM = RCC_PLLM_DIV8;
 201:Src/main.c    ****   RCC_OscInitStruct.PLL.PLLN = 85;
 202:Src/main.c    ****   RCC_OscInitStruct.PLL.PLLP = RCC_PLLP_DIV2;
 203:Src/main.c    ****   RCC_OscInitStruct.PLL.PLLQ = RCC_PLLQ_DIV2;
 204:Src/main.c    ****   RCC_OscInitStruct.PLL.PLLR = RCC_PLLR_DIV2;
 205:Src/main.c    ****   if (HAL_RCC_OscConfig(&RCC_OscInitStruct) != HAL_OK)
 206:Src/main.c    ****   {
 207:Src/main.c    ****     Error_Handler();
 208:Src/main.c    ****   }
 209:Src/main.c    **** 
 210:Src/main.c    ****   /** Initializes the CPU, AHB and APB buses clocks
 211:Src/main.c    ****   */
 212:Src/main.c    ****   RCC_ClkInitStruct.ClockType = RCC_CLOCKTYPE_HCLK|RCC_CLOCKTYPE_SYSCLK
 213:Src/main.c    ****                               |RCC_CLOCKTYPE_PCLK1|RCC_CLOCKTYPE_PCLK2;
 214:Src/main.c    ****   RCC_ClkInitStruct.SYSCLKSource = RCC_SYSCLKSOURCE_PLLCLK;
 215:Src/main.c    ****   RCC_ClkInitStruct.AHBCLKDivider = RCC_SYSCLK_DIV1;
 216:Src/main.c    ****   RCC_ClkInitStruct.APB1CLKDivider = RCC_HCLK_DIV1;
 217:Src/main.c    ****   RCC_ClkInitStruct.APB2CLKDivider = RCC_HCLK_DIV1;
 218:Src/main.c    **** 
 219:Src/main.c    ****   if (HAL_RCC_ClockConfig(&RCC_ClkInitStruct, FLASH_LATENCY_4) != HAL_OK)
 220:Src/main.c    ****   {
 221:Src/main.c    ****     Error_Handler();
 222:Src/main.c    ****   }
 223:Src/main.c    **** }
 224:Src/main.c    **** 
 225:Src/main.c    **** /* USER CODE BEGIN 4 */
 226:Src/main.c    **** 
 227:Src/main.c    **** /* USER CODE END 4 */
 228:Src/main.c    **** 
 229:Src/main.c    **** /**
 230:Src/main.c    ****   * @brief  This function is executed in case of error occurrence.
 231:Src/main.c    ****   * @retval None
 232:Src/main.c    ****   */
 233:Src/main.c    **** void Error_Handler(void)
 234:Src/main.c    **** {
 151              		.loc 1 234 1 view -0
 152              		.cfi_startproc
 153              		@ Volatile: function does not return.
 154              		@ args = 0, pretend = 0, frame = 0
 155              		@ frame_needed = 0, uses_anonymous_args = 0
 156              		@ link register save eliminated.
 235:Src/main.c    ****   /* USER CODE BEGIN Error_Handler_Debug */
 236:Src/main.c    ****   /* User can add his own implementation to report the HAL error return state */
ARM GAS  C:\Users\57308\AppData\Local\Temp\ccXTQsaE.s 			page 8


 237:Src/main.c    ****   __disable_irq();
 157              		.loc 1 237 3 view .LVU32
 158              	.LBB4:
 159              	.LBI4:
 160              		.file 2 "Drivers/CMSIS/Include/cmsis_gcc.h"
   1:Drivers/CMSIS/Include/cmsis_gcc.h **** /**************************************************************************//**
   2:Drivers/CMSIS/Include/cmsis_gcc.h ****  * @file     cmsis_gcc.h
   3:Drivers/CMSIS/Include/cmsis_gcc.h ****  * @brief    CMSIS compiler GCC header file
   4:Drivers/CMSIS/Include/cmsis_gcc.h ****  * @version  V5.2.0
   5:Drivers/CMSIS/Include/cmsis_gcc.h ****  * @date     08. May 2019
   6:Drivers/CMSIS/Include/cmsis_gcc.h ****  ******************************************************************************/
   7:Drivers/CMSIS/Include/cmsis_gcc.h **** /*
   8:Drivers/CMSIS/Include/cmsis_gcc.h ****  * Copyright (c) 2009-2019 Arm Limited. All rights reserved.
   9:Drivers/CMSIS/Include/cmsis_gcc.h ****  *
  10:Drivers/CMSIS/Include/cmsis_gcc.h ****  * SPDX-License-Identifier: Apache-2.0
  11:Drivers/CMSIS/Include/cmsis_gcc.h ****  *
  12:Drivers/CMSIS/Include/cmsis_gcc.h ****  * Licensed under the Apache License, Version 2.0 (the License); you may
  13:Drivers/CMSIS/Include/cmsis_gcc.h ****  * not use this file except in compliance with the License.
  14:Drivers/CMSIS/Include/cmsis_gcc.h ****  * You may obtain a copy of the License at
  15:Drivers/CMSIS/Include/cmsis_gcc.h ****  *
  16:Drivers/CMSIS/Include/cmsis_gcc.h ****  * www.apache.org/licenses/LICENSE-2.0
  17:Drivers/CMSIS/Include/cmsis_gcc.h ****  *
  18:Drivers/CMSIS/Include/cmsis_gcc.h ****  * Unless required by applicable law or agreed to in writing, software
  19:Drivers/CMSIS/Include/cmsis_gcc.h ****  * distributed under the License is distributed on an AS IS BASIS, WITHOUT
  20:Drivers/CMSIS/Include/cmsis_gcc.h ****  * WARRANTIES OR CONDITIONS OF ANY KIND, either express or implied.
  21:Drivers/CMSIS/Include/cmsis_gcc.h ****  * See the License for the specific language governing permissions and
  22:Drivers/CMSIS/Include/cmsis_gcc.h ****  * limitations under the License.
  23:Drivers/CMSIS/Include/cmsis_gcc.h ****  */
  24:Drivers/CMSIS/Include/cmsis_gcc.h **** 
  25:Drivers/CMSIS/Include/cmsis_gcc.h **** #ifndef __CMSIS_GCC_H
  26:Drivers/CMSIS/Include/cmsis_gcc.h **** #define __CMSIS_GCC_H
  27:Drivers/CMSIS/Include/cmsis_gcc.h **** 
  28:Drivers/CMSIS/Include/cmsis_gcc.h **** /* ignore some GCC warnings */
  29:Drivers/CMSIS/Include/cmsis_gcc.h **** #pragma GCC diagnostic push
  30:Drivers/CMSIS/Include/cmsis_gcc.h **** #pragma GCC diagnostic ignored "-Wsign-conversion"
  31:Drivers/CMSIS/Include/cmsis_gcc.h **** #pragma GCC diagnostic ignored "-Wconversion"
  32:Drivers/CMSIS/Include/cmsis_gcc.h **** #pragma GCC diagnostic ignored "-Wunused-parameter"
  33:Drivers/CMSIS/Include/cmsis_gcc.h **** 
  34:Drivers/CMSIS/Include/cmsis_gcc.h **** /* Fallback for __has_builtin */
  35:Drivers/CMSIS/Include/cmsis_gcc.h **** #ifndef __has_builtin
  36:Drivers/CMSIS/Include/cmsis_gcc.h ****   #define __has_builtin(x) (0)
  37:Drivers/CMSIS/Include/cmsis_gcc.h **** #endif
  38:Drivers/CMSIS/Include/cmsis_gcc.h **** 
  39:Drivers/CMSIS/Include/cmsis_gcc.h **** /* CMSIS compiler specific defines */
  40:Drivers/CMSIS/Include/cmsis_gcc.h **** #ifndef   __ASM
  41:Drivers/CMSIS/Include/cmsis_gcc.h ****   #define __ASM                                  __asm
  42:Drivers/CMSIS/Include/cmsis_gcc.h **** #endif
  43:Drivers/CMSIS/Include/cmsis_gcc.h **** #ifndef   __INLINE
  44:Drivers/CMSIS/Include/cmsis_gcc.h ****   #define __INLINE                               inline
  45:Drivers/CMSIS/Include/cmsis_gcc.h **** #endif
  46:Drivers/CMSIS/Include/cmsis_gcc.h **** #ifndef   __STATIC_INLINE
  47:Drivers/CMSIS/Include/cmsis_gcc.h ****   #define __STATIC_INLINE                        static inline
  48:Drivers/CMSIS/Include/cmsis_gcc.h **** #endif
  49:Drivers/CMSIS/Include/cmsis_gcc.h **** #ifndef   __STATIC_FORCEINLINE                 
  50:Drivers/CMSIS/Include/cmsis_gcc.h ****   #define __STATIC_FORCEINLINE                   __attribute__((always_inline)) static inline
  51:Drivers/CMSIS/Include/cmsis_gcc.h **** #endif                                           
  52:Drivers/CMSIS/Include/cmsis_gcc.h **** #ifndef   __NO_RETURN
ARM GAS  C:\Users\57308\AppData\Local\Temp\ccXTQsaE.s 			page 9


  53:Drivers/CMSIS/Include/cmsis_gcc.h ****   #define __NO_RETURN                            __attribute__((__noreturn__))
  54:Drivers/CMSIS/Include/cmsis_gcc.h **** #endif
  55:Drivers/CMSIS/Include/cmsis_gcc.h **** #ifndef   __USED
  56:Drivers/CMSIS/Include/cmsis_gcc.h ****   #define __USED                                 __attribute__((used))
  57:Drivers/CMSIS/Include/cmsis_gcc.h **** #endif
  58:Drivers/CMSIS/Include/cmsis_gcc.h **** #ifndef   __WEAK
  59:Drivers/CMSIS/Include/cmsis_gcc.h ****   #define __WEAK                                 __attribute__((weak))
  60:Drivers/CMSIS/Include/cmsis_gcc.h **** #endif
  61:Drivers/CMSIS/Include/cmsis_gcc.h **** #ifndef   __PACKED
  62:Drivers/CMSIS/Include/cmsis_gcc.h ****   #define __PACKED                               __attribute__((packed, aligned(1)))
  63:Drivers/CMSIS/Include/cmsis_gcc.h **** #endif
  64:Drivers/CMSIS/Include/cmsis_gcc.h **** #ifndef   __PACKED_STRUCT
  65:Drivers/CMSIS/Include/cmsis_gcc.h ****   #define __PACKED_STRUCT                        struct __attribute__((packed, aligned(1)))
  66:Drivers/CMSIS/Include/cmsis_gcc.h **** #endif
  67:Drivers/CMSIS/Include/cmsis_gcc.h **** #ifndef   __PACKED_UNION
  68:Drivers/CMSIS/Include/cmsis_gcc.h ****   #define __PACKED_UNION                         union __attribute__((packed, aligned(1)))
  69:Drivers/CMSIS/Include/cmsis_gcc.h **** #endif
  70:Drivers/CMSIS/Include/cmsis_gcc.h **** #ifndef   __UNALIGNED_UINT32        /* deprecated */
  71:Drivers/CMSIS/Include/cmsis_gcc.h ****   #pragma GCC diagnostic push
  72:Drivers/CMSIS/Include/cmsis_gcc.h ****   #pragma GCC diagnostic ignored "-Wpacked"
  73:Drivers/CMSIS/Include/cmsis_gcc.h ****   #pragma GCC diagnostic ignored "-Wattributes"
  74:Drivers/CMSIS/Include/cmsis_gcc.h ****   struct __attribute__((packed)) T_UINT32 { uint32_t v; };
  75:Drivers/CMSIS/Include/cmsis_gcc.h ****   #pragma GCC diagnostic pop
  76:Drivers/CMSIS/Include/cmsis_gcc.h ****   #define __UNALIGNED_UINT32(x)                  (((struct T_UINT32 *)(x))->v)
  77:Drivers/CMSIS/Include/cmsis_gcc.h **** #endif
  78:Drivers/CMSIS/Include/cmsis_gcc.h **** #ifndef   __UNALIGNED_UINT16_WRITE
  79:Drivers/CMSIS/Include/cmsis_gcc.h ****   #pragma GCC diagnostic push
  80:Drivers/CMSIS/Include/cmsis_gcc.h ****   #pragma GCC diagnostic ignored "-Wpacked"
  81:Drivers/CMSIS/Include/cmsis_gcc.h ****   #pragma GCC diagnostic ignored "-Wattributes"
  82:Drivers/CMSIS/Include/cmsis_gcc.h ****   __PACKED_STRUCT T_UINT16_WRITE { uint16_t v; };
  83:Drivers/CMSIS/Include/cmsis_gcc.h ****   #pragma GCC diagnostic pop
  84:Drivers/CMSIS/Include/cmsis_gcc.h ****   #define __UNALIGNED_UINT16_WRITE(addr, val)    (void)((((struct T_UINT16_WRITE *)(void *)(addr))-
  85:Drivers/CMSIS/Include/cmsis_gcc.h **** #endif
  86:Drivers/CMSIS/Include/cmsis_gcc.h **** #ifndef   __UNALIGNED_UINT16_READ
  87:Drivers/CMSIS/Include/cmsis_gcc.h ****   #pragma GCC diagnostic push
  88:Drivers/CMSIS/Include/cmsis_gcc.h ****   #pragma GCC diagnostic ignored "-Wpacked"
  89:Drivers/CMSIS/Include/cmsis_gcc.h ****   #pragma GCC diagnostic ignored "-Wattributes"
  90:Drivers/CMSIS/Include/cmsis_gcc.h ****   __PACKED_STRUCT T_UINT16_READ { uint16_t v; };
  91:Drivers/CMSIS/Include/cmsis_gcc.h ****   #pragma GCC diagnostic pop
  92:Drivers/CMSIS/Include/cmsis_gcc.h ****   #define __UNALIGNED_UINT16_READ(addr)          (((const struct T_UINT16_READ *)(const void *)(add
  93:Drivers/CMSIS/Include/cmsis_gcc.h **** #endif
  94:Drivers/CMSIS/Include/cmsis_gcc.h **** #ifndef   __UNALIGNED_UINT32_WRITE
  95:Drivers/CMSIS/Include/cmsis_gcc.h ****   #pragma GCC diagnostic push
  96:Drivers/CMSIS/Include/cmsis_gcc.h ****   #pragma GCC diagnostic ignored "-Wpacked"
  97:Drivers/CMSIS/Include/cmsis_gcc.h ****   #pragma GCC diagnostic ignored "-Wattributes"
  98:Drivers/CMSIS/Include/cmsis_gcc.h ****   __PACKED_STRUCT T_UINT32_WRITE { uint32_t v; };
  99:Drivers/CMSIS/Include/cmsis_gcc.h ****   #pragma GCC diagnostic pop
 100:Drivers/CMSIS/Include/cmsis_gcc.h ****   #define __UNALIGNED_UINT32_WRITE(addr, val)    (void)((((struct T_UINT32_WRITE *)(void *)(addr))-
 101:Drivers/CMSIS/Include/cmsis_gcc.h **** #endif
 102:Drivers/CMSIS/Include/cmsis_gcc.h **** #ifndef   __UNALIGNED_UINT32_READ
 103:Drivers/CMSIS/Include/cmsis_gcc.h ****   #pragma GCC diagnostic push
 104:Drivers/CMSIS/Include/cmsis_gcc.h ****   #pragma GCC diagnostic ignored "-Wpacked"
 105:Drivers/CMSIS/Include/cmsis_gcc.h ****   #pragma GCC diagnostic ignored "-Wattributes"
 106:Drivers/CMSIS/Include/cmsis_gcc.h ****   __PACKED_STRUCT T_UINT32_READ { uint32_t v; };
 107:Drivers/CMSIS/Include/cmsis_gcc.h ****   #pragma GCC diagnostic pop
 108:Drivers/CMSIS/Include/cmsis_gcc.h ****   #define __UNALIGNED_UINT32_READ(addr)          (((const struct T_UINT32_READ *)(const void *)(add
 109:Drivers/CMSIS/Include/cmsis_gcc.h **** #endif
ARM GAS  C:\Users\57308\AppData\Local\Temp\ccXTQsaE.s 			page 10


 110:Drivers/CMSIS/Include/cmsis_gcc.h **** #ifndef   __ALIGNED
 111:Drivers/CMSIS/Include/cmsis_gcc.h ****   #define __ALIGNED(x)                           __attribute__((aligned(x)))
 112:Drivers/CMSIS/Include/cmsis_gcc.h **** #endif
 113:Drivers/CMSIS/Include/cmsis_gcc.h **** #ifndef   __RESTRICT
 114:Drivers/CMSIS/Include/cmsis_gcc.h ****   #define __RESTRICT                             __restrict
 115:Drivers/CMSIS/Include/cmsis_gcc.h **** #endif
 116:Drivers/CMSIS/Include/cmsis_gcc.h **** #ifndef   __COMPILER_BARRIER
 117:Drivers/CMSIS/Include/cmsis_gcc.h ****   #define __COMPILER_BARRIER()                   __ASM volatile("":::"memory")
 118:Drivers/CMSIS/Include/cmsis_gcc.h **** #endif
 119:Drivers/CMSIS/Include/cmsis_gcc.h **** 
 120:Drivers/CMSIS/Include/cmsis_gcc.h **** /* #########################  Startup and Lowlevel Init  ######################## */
 121:Drivers/CMSIS/Include/cmsis_gcc.h **** 
 122:Drivers/CMSIS/Include/cmsis_gcc.h **** #ifndef __PROGRAM_START
 123:Drivers/CMSIS/Include/cmsis_gcc.h **** 
 124:Drivers/CMSIS/Include/cmsis_gcc.h **** /**
 125:Drivers/CMSIS/Include/cmsis_gcc.h ****   \brief   Initializes data and bss sections
 126:Drivers/CMSIS/Include/cmsis_gcc.h ****   \details This default implementations initialized all data and additional bss
 127:Drivers/CMSIS/Include/cmsis_gcc.h ****            sections relying on .copy.table and .zero.table specified properly
 128:Drivers/CMSIS/Include/cmsis_gcc.h ****            in the used linker script.
 129:Drivers/CMSIS/Include/cmsis_gcc.h ****   
 130:Drivers/CMSIS/Include/cmsis_gcc.h ****  */
 131:Drivers/CMSIS/Include/cmsis_gcc.h **** __STATIC_FORCEINLINE __NO_RETURN void __cmsis_start(void)
 132:Drivers/CMSIS/Include/cmsis_gcc.h **** {
 133:Drivers/CMSIS/Include/cmsis_gcc.h ****   extern void _start(void) __NO_RETURN;
 134:Drivers/CMSIS/Include/cmsis_gcc.h ****   
 135:Drivers/CMSIS/Include/cmsis_gcc.h ****   typedef struct {
 136:Drivers/CMSIS/Include/cmsis_gcc.h ****     uint32_t const* src;
 137:Drivers/CMSIS/Include/cmsis_gcc.h ****     uint32_t* dest;
 138:Drivers/CMSIS/Include/cmsis_gcc.h ****     uint32_t  wlen;
 139:Drivers/CMSIS/Include/cmsis_gcc.h ****   } __copy_table_t;
 140:Drivers/CMSIS/Include/cmsis_gcc.h ****   
 141:Drivers/CMSIS/Include/cmsis_gcc.h ****   typedef struct {
 142:Drivers/CMSIS/Include/cmsis_gcc.h ****     uint32_t* dest;
 143:Drivers/CMSIS/Include/cmsis_gcc.h ****     uint32_t  wlen;
 144:Drivers/CMSIS/Include/cmsis_gcc.h ****   } __zero_table_t;
 145:Drivers/CMSIS/Include/cmsis_gcc.h ****   
 146:Drivers/CMSIS/Include/cmsis_gcc.h ****   extern const __copy_table_t __copy_table_start__;
 147:Drivers/CMSIS/Include/cmsis_gcc.h ****   extern const __copy_table_t __copy_table_end__;
 148:Drivers/CMSIS/Include/cmsis_gcc.h ****   extern const __zero_table_t __zero_table_start__;
 149:Drivers/CMSIS/Include/cmsis_gcc.h ****   extern const __zero_table_t __zero_table_end__;
 150:Drivers/CMSIS/Include/cmsis_gcc.h **** 
 151:Drivers/CMSIS/Include/cmsis_gcc.h ****   for (__copy_table_t const* pTable = &__copy_table_start__; pTable < &__copy_table_end__; ++pTable
 152:Drivers/CMSIS/Include/cmsis_gcc.h ****     for(uint32_t i=0u; i<pTable->wlen; ++i) {
 153:Drivers/CMSIS/Include/cmsis_gcc.h ****       pTable->dest[i] = pTable->src[i];
 154:Drivers/CMSIS/Include/cmsis_gcc.h ****     }
 155:Drivers/CMSIS/Include/cmsis_gcc.h ****   }
 156:Drivers/CMSIS/Include/cmsis_gcc.h ****  
 157:Drivers/CMSIS/Include/cmsis_gcc.h ****   for (__zero_table_t const* pTable = &__zero_table_start__; pTable < &__zero_table_end__; ++pTable
 158:Drivers/CMSIS/Include/cmsis_gcc.h ****     for(uint32_t i=0u; i<pTable->wlen; ++i) {
 159:Drivers/CMSIS/Include/cmsis_gcc.h ****       pTable->dest[i] = 0u;
 160:Drivers/CMSIS/Include/cmsis_gcc.h ****     }
 161:Drivers/CMSIS/Include/cmsis_gcc.h ****   }
 162:Drivers/CMSIS/Include/cmsis_gcc.h ****  
 163:Drivers/CMSIS/Include/cmsis_gcc.h ****   _start();
 164:Drivers/CMSIS/Include/cmsis_gcc.h **** }
 165:Drivers/CMSIS/Include/cmsis_gcc.h ****   
 166:Drivers/CMSIS/Include/cmsis_gcc.h **** #define __PROGRAM_START           __cmsis_start
ARM GAS  C:\Users\57308\AppData\Local\Temp\ccXTQsaE.s 			page 11


 167:Drivers/CMSIS/Include/cmsis_gcc.h **** #endif
 168:Drivers/CMSIS/Include/cmsis_gcc.h **** 
 169:Drivers/CMSIS/Include/cmsis_gcc.h **** #ifndef __INITIAL_SP
 170:Drivers/CMSIS/Include/cmsis_gcc.h **** #define __INITIAL_SP              __StackTop
 171:Drivers/CMSIS/Include/cmsis_gcc.h **** #endif
 172:Drivers/CMSIS/Include/cmsis_gcc.h **** 
 173:Drivers/CMSIS/Include/cmsis_gcc.h **** #ifndef __STACK_LIMIT
 174:Drivers/CMSIS/Include/cmsis_gcc.h **** #define __STACK_LIMIT             __StackLimit
 175:Drivers/CMSIS/Include/cmsis_gcc.h **** #endif
 176:Drivers/CMSIS/Include/cmsis_gcc.h **** 
 177:Drivers/CMSIS/Include/cmsis_gcc.h **** #ifndef __VECTOR_TABLE
 178:Drivers/CMSIS/Include/cmsis_gcc.h **** #define __VECTOR_TABLE            __Vectors
 179:Drivers/CMSIS/Include/cmsis_gcc.h **** #endif
 180:Drivers/CMSIS/Include/cmsis_gcc.h **** 
 181:Drivers/CMSIS/Include/cmsis_gcc.h **** #ifndef __VECTOR_TABLE_ATTRIBUTE
 182:Drivers/CMSIS/Include/cmsis_gcc.h **** #define __VECTOR_TABLE_ATTRIBUTE  __attribute((used, section(".vectors")))
 183:Drivers/CMSIS/Include/cmsis_gcc.h **** #endif
 184:Drivers/CMSIS/Include/cmsis_gcc.h **** 
 185:Drivers/CMSIS/Include/cmsis_gcc.h **** /* ###########################  Core Function Access  ########################### */
 186:Drivers/CMSIS/Include/cmsis_gcc.h **** /** \ingroup  CMSIS_Core_FunctionInterface
 187:Drivers/CMSIS/Include/cmsis_gcc.h ****     \defgroup CMSIS_Core_RegAccFunctions CMSIS Core Register Access Functions
 188:Drivers/CMSIS/Include/cmsis_gcc.h ****   @{
 189:Drivers/CMSIS/Include/cmsis_gcc.h ****  */
 190:Drivers/CMSIS/Include/cmsis_gcc.h **** 
 191:Drivers/CMSIS/Include/cmsis_gcc.h **** /**
 192:Drivers/CMSIS/Include/cmsis_gcc.h ****   \brief   Enable IRQ Interrupts
 193:Drivers/CMSIS/Include/cmsis_gcc.h ****   \details Enables IRQ interrupts by clearing the I-bit in the CPSR.
 194:Drivers/CMSIS/Include/cmsis_gcc.h ****            Can only be executed in Privileged modes.
 195:Drivers/CMSIS/Include/cmsis_gcc.h ****  */
 196:Drivers/CMSIS/Include/cmsis_gcc.h **** __STATIC_FORCEINLINE void __enable_irq(void)
 197:Drivers/CMSIS/Include/cmsis_gcc.h **** {
 198:Drivers/CMSIS/Include/cmsis_gcc.h ****   __ASM volatile ("cpsie i" : : : "memory");
 199:Drivers/CMSIS/Include/cmsis_gcc.h **** }
 200:Drivers/CMSIS/Include/cmsis_gcc.h **** 
 201:Drivers/CMSIS/Include/cmsis_gcc.h **** 
 202:Drivers/CMSIS/Include/cmsis_gcc.h **** /**
 203:Drivers/CMSIS/Include/cmsis_gcc.h ****   \brief   Disable IRQ Interrupts
 204:Drivers/CMSIS/Include/cmsis_gcc.h ****   \details Disables IRQ interrupts by setting the I-bit in the CPSR.
 205:Drivers/CMSIS/Include/cmsis_gcc.h ****            Can only be executed in Privileged modes.
 206:Drivers/CMSIS/Include/cmsis_gcc.h ****  */
 207:Drivers/CMSIS/Include/cmsis_gcc.h **** __STATIC_FORCEINLINE void __disable_irq(void)
 161              		.loc 2 207 27 view .LVU33
 162              	.LBB5:
 208:Drivers/CMSIS/Include/cmsis_gcc.h **** {
 209:Drivers/CMSIS/Include/cmsis_gcc.h ****   __ASM volatile ("cpsid i" : : : "memory");
 163              		.loc 2 209 3 view .LVU34
 164              		.syntax unified
 165              	@ 209 "Drivers/CMSIS/Include/cmsis_gcc.h" 1
 166 0000 72B6     		cpsid i
 167              	@ 0 "" 2
 168              		.thumb
 169              		.syntax unified
 170              	.L13:
 171              	.LBE5:
 172              	.LBE4:
 238:Src/main.c    ****   while (1)
 173              		.loc 1 238 3 discriminator 1 view .LVU35
ARM GAS  C:\Users\57308\AppData\Local\Temp\ccXTQsaE.s 			page 12


 239:Src/main.c    ****   {
 240:Src/main.c    ****   }
 174              		.loc 1 240 3 discriminator 1 view .LVU36
 238:Src/main.c    ****   while (1)
 175              		.loc 1 238 9 discriminator 1 view .LVU37
 176 0002 FEE7     		b	.L13
 177              		.cfi_endproc
 178              	.LFE333:
 180              		.section	.text.SystemClock_Config,"ax",%progbits
 181              		.align	1
 182              		.global	SystemClock_Config
 183              		.syntax unified
 184              		.thumb
 185              		.thumb_func
 187              	SystemClock_Config:
 188              	.LFB332:
 185:Src/main.c    ****   RCC_OscInitTypeDef RCC_OscInitStruct = {0};
 189              		.loc 1 185 1 view -0
 190              		.cfi_startproc
 191              		@ args = 0, pretend = 0, frame = 80
 192              		@ frame_needed = 0, uses_anonymous_args = 0
 193 0000 00B5     		push	{lr}
 194              	.LCFI1:
 195              		.cfi_def_cfa_offset 4
 196              		.cfi_offset 14, -4
 197 0002 95B0     		sub	sp, sp, #84
 198              	.LCFI2:
 199              		.cfi_def_cfa_offset 88
 186:Src/main.c    ****   RCC_ClkInitTypeDef RCC_ClkInitStruct = {0};
 200              		.loc 1 186 3 view .LVU39
 186:Src/main.c    ****   RCC_ClkInitTypeDef RCC_ClkInitStruct = {0};
 201              		.loc 1 186 22 is_stmt 0 view .LVU40
 202 0004 3822     		movs	r2, #56
 203 0006 0021     		movs	r1, #0
 204 0008 06A8     		add	r0, sp, #24
 205 000a FFF7FEFF 		bl	memset
 206              	.LVL3:
 187:Src/main.c    **** 
 207              		.loc 1 187 3 is_stmt 1 view .LVU41
 187:Src/main.c    **** 
 208              		.loc 1 187 22 is_stmt 0 view .LVU42
 209 000e 0020     		movs	r0, #0
 210 0010 0190     		str	r0, [sp, #4]
 211 0012 0290     		str	r0, [sp, #8]
 212 0014 0390     		str	r0, [sp, #12]
 213 0016 0490     		str	r0, [sp, #16]
 214 0018 0590     		str	r0, [sp, #20]
 191:Src/main.c    **** 
 215              		.loc 1 191 3 is_stmt 1 view .LVU43
 216 001a FFF7FEFF 		bl	HAL_PWREx_ControlVoltageScaling
 217              	.LVL4:
 196:Src/main.c    ****   RCC_OscInitStruct.HSEState = RCC_HSE_ON;
 218              		.loc 1 196 3 view .LVU44
 196:Src/main.c    ****   RCC_OscInitStruct.HSEState = RCC_HSE_ON;
 219              		.loc 1 196 36 is_stmt 0 view .LVU45
 220 001e 0123     		movs	r3, #1
 221 0020 0693     		str	r3, [sp, #24]
ARM GAS  C:\Users\57308\AppData\Local\Temp\ccXTQsaE.s 			page 13


 197:Src/main.c    ****   RCC_OscInitStruct.PLL.PLLState = RCC_PLL_ON;
 222              		.loc 1 197 3 is_stmt 1 view .LVU46
 197:Src/main.c    ****   RCC_OscInitStruct.PLL.PLLState = RCC_PLL_ON;
 223              		.loc 1 197 30 is_stmt 0 view .LVU47
 224 0022 4FF48033 		mov	r3, #65536
 225 0026 0793     		str	r3, [sp, #28]
 198:Src/main.c    ****   RCC_OscInitStruct.PLL.PLLSource = RCC_PLLSOURCE_HSE;
 226              		.loc 1 198 3 is_stmt 1 view .LVU48
 198:Src/main.c    ****   RCC_OscInitStruct.PLL.PLLSource = RCC_PLLSOURCE_HSE;
 227              		.loc 1 198 34 is_stmt 0 view .LVU49
 228 0028 0223     		movs	r3, #2
 229 002a 0D93     		str	r3, [sp, #52]
 199:Src/main.c    ****   RCC_OscInitStruct.PLL.PLLM = RCC_PLLM_DIV8;
 230              		.loc 1 199 3 is_stmt 1 view .LVU50
 199:Src/main.c    ****   RCC_OscInitStruct.PLL.PLLM = RCC_PLLM_DIV8;
 231              		.loc 1 199 35 is_stmt 0 view .LVU51
 232 002c 0322     		movs	r2, #3
 233 002e 0E92     		str	r2, [sp, #56]
 200:Src/main.c    ****   RCC_OscInitStruct.PLL.PLLN = 85;
 234              		.loc 1 200 3 is_stmt 1 view .LVU52
 200:Src/main.c    ****   RCC_OscInitStruct.PLL.PLLN = 85;
 235              		.loc 1 200 30 is_stmt 0 view .LVU53
 236 0030 0822     		movs	r2, #8
 237 0032 0F92     		str	r2, [sp, #60]
 201:Src/main.c    ****   RCC_OscInitStruct.PLL.PLLP = RCC_PLLP_DIV2;
 238              		.loc 1 201 3 is_stmt 1 view .LVU54
 201:Src/main.c    ****   RCC_OscInitStruct.PLL.PLLP = RCC_PLLP_DIV2;
 239              		.loc 1 201 30 is_stmt 0 view .LVU55
 240 0034 5522     		movs	r2, #85
 241 0036 1092     		str	r2, [sp, #64]
 202:Src/main.c    ****   RCC_OscInitStruct.PLL.PLLQ = RCC_PLLQ_DIV2;
 242              		.loc 1 202 3 is_stmt 1 view .LVU56
 202:Src/main.c    ****   RCC_OscInitStruct.PLL.PLLQ = RCC_PLLQ_DIV2;
 243              		.loc 1 202 30 is_stmt 0 view .LVU57
 244 0038 1193     		str	r3, [sp, #68]
 203:Src/main.c    ****   RCC_OscInitStruct.PLL.PLLR = RCC_PLLR_DIV2;
 245              		.loc 1 203 3 is_stmt 1 view .LVU58
 203:Src/main.c    ****   RCC_OscInitStruct.PLL.PLLR = RCC_PLLR_DIV2;
 246              		.loc 1 203 30 is_stmt 0 view .LVU59
 247 003a 1293     		str	r3, [sp, #72]
 204:Src/main.c    ****   if (HAL_RCC_OscConfig(&RCC_OscInitStruct) != HAL_OK)
 248              		.loc 1 204 3 is_stmt 1 view .LVU60
 204:Src/main.c    ****   if (HAL_RCC_OscConfig(&RCC_OscInitStruct) != HAL_OK)
 249              		.loc 1 204 30 is_stmt 0 view .LVU61
 250 003c 1393     		str	r3, [sp, #76]
 205:Src/main.c    ****   {
 251              		.loc 1 205 3 is_stmt 1 view .LVU62
 205:Src/main.c    ****   {
 252              		.loc 1 205 7 is_stmt 0 view .LVU63
 253 003e 06A8     		add	r0, sp, #24
 254 0040 FFF7FEFF 		bl	HAL_RCC_OscConfig
 255              	.LVL5:
 205:Src/main.c    ****   {
 256              		.loc 1 205 6 view .LVU64
 257 0044 80B9     		cbnz	r0, .L18
 212:Src/main.c    ****                               |RCC_CLOCKTYPE_PCLK1|RCC_CLOCKTYPE_PCLK2;
 258              		.loc 1 212 3 is_stmt 1 view .LVU65
ARM GAS  C:\Users\57308\AppData\Local\Temp\ccXTQsaE.s 			page 14


 212:Src/main.c    ****                               |RCC_CLOCKTYPE_PCLK1|RCC_CLOCKTYPE_PCLK2;
 259              		.loc 1 212 31 is_stmt 0 view .LVU66
 260 0046 0F23     		movs	r3, #15
 261 0048 0193     		str	r3, [sp, #4]
 214:Src/main.c    ****   RCC_ClkInitStruct.AHBCLKDivider = RCC_SYSCLK_DIV1;
 262              		.loc 1 214 3 is_stmt 1 view .LVU67
 214:Src/main.c    ****   RCC_ClkInitStruct.AHBCLKDivider = RCC_SYSCLK_DIV1;
 263              		.loc 1 214 34 is_stmt 0 view .LVU68
 264 004a 0323     		movs	r3, #3
 265 004c 0293     		str	r3, [sp, #8]
 215:Src/main.c    ****   RCC_ClkInitStruct.APB1CLKDivider = RCC_HCLK_DIV1;
 266              		.loc 1 215 3 is_stmt 1 view .LVU69
 215:Src/main.c    ****   RCC_ClkInitStruct.APB1CLKDivider = RCC_HCLK_DIV1;
 267              		.loc 1 215 35 is_stmt 0 view .LVU70
 268 004e 0023     		movs	r3, #0
 269 0050 0393     		str	r3, [sp, #12]
 216:Src/main.c    ****   RCC_ClkInitStruct.APB2CLKDivider = RCC_HCLK_DIV1;
 270              		.loc 1 216 3 is_stmt 1 view .LVU71
 216:Src/main.c    ****   RCC_ClkInitStruct.APB2CLKDivider = RCC_HCLK_DIV1;
 271              		.loc 1 216 36 is_stmt 0 view .LVU72
 272 0052 0493     		str	r3, [sp, #16]
 217:Src/main.c    **** 
 273              		.loc 1 217 3 is_stmt 1 view .LVU73
 217:Src/main.c    **** 
 274              		.loc 1 217 36 is_stmt 0 view .LVU74
 275 0054 0593     		str	r3, [sp, #20]
 219:Src/main.c    ****   {
 276              		.loc 1 219 3 is_stmt 1 view .LVU75
 219:Src/main.c    ****   {
 277              		.loc 1 219 7 is_stmt 0 view .LVU76
 278 0056 0421     		movs	r1, #4
 279 0058 0DEB0100 		add	r0, sp, r1
 280 005c FFF7FEFF 		bl	HAL_RCC_ClockConfig
 281              	.LVL6:
 219:Src/main.c    ****   {
 282              		.loc 1 219 6 view .LVU77
 283 0060 20B9     		cbnz	r0, .L19
 223:Src/main.c    **** 
 284              		.loc 1 223 1 view .LVU78
 285 0062 15B0     		add	sp, sp, #84
 286              	.LCFI3:
 287              		.cfi_remember_state
 288              		.cfi_def_cfa_offset 4
 289              		@ sp needed
 290 0064 5DF804FB 		ldr	pc, [sp], #4
 291              	.L18:
 292              	.LCFI4:
 293              		.cfi_restore_state
 207:Src/main.c    ****   }
 294              		.loc 1 207 5 is_stmt 1 view .LVU79
 295 0068 FFF7FEFF 		bl	Error_Handler
 296              	.LVL7:
 297              	.L19:
 221:Src/main.c    ****   }
 298              		.loc 1 221 5 view .LVU80
 299 006c FFF7FEFF 		bl	Error_Handler
 300              	.LVL8:
ARM GAS  C:\Users\57308\AppData\Local\Temp\ccXTQsaE.s 			page 15


 301              		.cfi_endproc
 302              	.LFE332:
 304              		.section	.rodata.main.str1.4,"aMS",%progbits,1
 305              		.align	2
 306              	.LC0:
 307 0000 68656C6C 		.ascii	"hello world\015\012\000"
 307      6F20776F 
 307      726C640D 
 307      0A00
 308 000e 0000     		.align	2
 309              	.LC1:
 310 0010 53595320 		.ascii	"SYS start runing\015\012\000"
 310      73746172 
 310      74207275 
 310      6E696E67 
 310      0D0A00
 311              		.section	.text.main,"ax",%progbits
 312              		.align	1
 313              		.global	main
 314              		.syntax unified
 315              		.thumb
 316              		.thumb_func
 318              	main:
 319              	.LFB331:
 126:Src/main.c    ****   /* USER CODE BEGIN 1 */
 320              		.loc 1 126 1 view -0
 321              		.cfi_startproc
 322              		@ Volatile: function does not return.
 323              		@ args = 0, pretend = 0, frame = 0
 324              		@ frame_needed = 0, uses_anonymous_args = 0
 325 0000 08B5     		push	{r3, lr}
 326              	.LCFI5:
 327              		.cfi_def_cfa_offset 8
 328              		.cfi_offset 3, -8
 329              		.cfi_offset 14, -4
 134:Src/main.c    **** 
 330              		.loc 1 134 3 view .LVU82
 331 0002 FFF7FEFF 		bl	HAL_Init
 332              	.LVL9:
 141:Src/main.c    **** 
 333              		.loc 1 141 3 view .LVU83
 334 0006 FFF7FEFF 		bl	SystemClock_Config
 335              	.LVL10:
 148:Src/main.c    ****   MX_DMA_Init();
 336              		.loc 1 148 3 view .LVU84
 337 000a FFF7FEFF 		bl	MX_GPIO_Init
 338              	.LVL11:
 149:Src/main.c    ****   MX_TIM1_Init();
 339              		.loc 1 149 3 view .LVU85
 340 000e FFF7FEFF 		bl	MX_DMA_Init
 341              	.LVL12:
 150:Src/main.c    ****   MX_ADC1_Init();
 342              		.loc 1 150 3 view .LVU86
 343 0012 FFF7FEFF 		bl	MX_TIM1_Init
 344              	.LVL13:
 151:Src/main.c    ****   MX_SPI1_Init();
 345              		.loc 1 151 3 view .LVU87
ARM GAS  C:\Users\57308\AppData\Local\Temp\ccXTQsaE.s 			page 16


 346 0016 FFF7FEFF 		bl	MX_ADC1_Init
 347              	.LVL14:
 152:Src/main.c    ****   MX_USART1_UART_Init();
 348              		.loc 1 152 3 view .LVU88
 349 001a FFF7FEFF 		bl	MX_SPI1_Init
 350              	.LVL15:
 153:Src/main.c    ****   /* USER CODE BEGIN 2 */
 351              		.loc 1 153 3 view .LVU89
 352 001e FFF7FEFF 		bl	MX_USART1_UART_Init
 353              	.LVL16:
 155:Src/main.c    ****   USER_DEBUG_NORMAL("hello world\r\n");
 354              		.loc 1 155 3 view .LVU90
 355 0022 FFF7FEFF 		bl	User_Printf_Init
 356              	.LVL17:
 156:Src/main.c    ****   hw_init();
 357              		.loc 1 156 3 view .LVU91
 358 0026 0F49     		ldr	r1, .L23
 359 0028 0020     		movs	r0, #0
 360 002a FFF7FEFF 		bl	SEGGER_RTT_printf
 361              	.LVL18:
 157:Src/main.c    ****   protocol_init();
 362              		.loc 1 157 3 view .LVU92
 363 002e FFF7FEFF 		bl	hw_init
 364              	.LVL19:
 158:Src/main.c    ****   HAL_GPIO_WritePin(LED_01_GPIO_Port,LED_01_Pin,GPIO_PIN_SET);
 365              		.loc 1 158 3 view .LVU93
 366 0032 FFF7FEFF 		bl	protocol_init
 367              	.LVL20:
 159:Src/main.c    ****   USER_DEBUG_NORMAL("SYS start runing\r\n");
 368              		.loc 1 159 3 view .LVU94
 369 0036 0122     		movs	r2, #1
 370 0038 4FF40051 		mov	r1, #8192
 371 003c 0A48     		ldr	r0, .L23+4
 372 003e FFF7FEFF 		bl	HAL_GPIO_WritePin
 373              	.LVL21:
 160:Src/main.c    ****   /* USER CODE END 2 */
 374              		.loc 1 160 3 view .LVU95
 375 0042 0A49     		ldr	r1, .L23+8
 376 0044 0020     		movs	r0, #0
 377 0046 FFF7FEFF 		bl	SEGGER_RTT_printf
 378              	.LVL22:
 379              	.L21:
 165:Src/main.c    ****   {
 380              		.loc 1 165 3 discriminator 1 view .LVU96
 167:Src/main.c    ****     hw_sensor_process();
 381              		.loc 1 167 5 discriminator 1 view .LVU97
 382 004a FFF7FEFF 		bl	sysrunning_process
 383              	.LVL23:
 168:Src/main.c    ****     motortctrl_process();
 384              		.loc 1 168 5 discriminator 1 view .LVU98
 385 004e FFF7FEFF 		bl	hw_sensor_process
 386              	.LVL24:
 169:Src/main.c    ****     protocol_process();
 387              		.loc 1 169 5 discriminator 1 view .LVU99
 388 0052 FFF7FEFF 		bl	motortctrl_process
 389              	.LVL25:
 170:Src/main.c    **** 
ARM GAS  C:\Users\57308\AppData\Local\Temp\ccXTQsaE.s 			page 17


 390              		.loc 1 170 5 discriminator 1 view .LVU100
 391 0056 FFF7FEFF 		bl	protocol_process
 392              	.LVL26:
 172:Src/main.c    ****     /* USER CODE END WHILE */
 393              		.loc 1 172 5 discriminator 1 view .LVU101
 394 005a 0120     		movs	r0, #1
 395 005c FFF7FEFF 		bl	HAL_Delay
 396              	.LVL27:
 165:Src/main.c    ****   {
 397              		.loc 1 165 9 discriminator 1 view .LVU102
 398 0060 F3E7     		b	.L21
 399              	.L24:
 400 0062 00BF     		.align	2
 401              	.L23:
 402 0064 00000000 		.word	.LC0
 403 0068 00080048 		.word	1207961600
 404 006c 10000000 		.word	.LC1
 405              		.cfi_endproc
 406              	.LFE331:
 408              		.section	.bss.sg_SYSRuning,"aw",%nobits
 409              		.align	2
 410              		.set	.LANCHOR0,. + 0
 413              	sg_SYSRuning:
 414 0000 00000000 		.space	8
 414      00000000 
 415              		.weak	User_Printf_Init
 416              		.text
 417              	.Letext0:
 418              		.file 3 "d:\\program files\\gcc-arm-none-eabi-10.3-2021.10\\arm-none-eabi\\include\\machine\\_defa
 419              		.file 4 "d:\\program files\\gcc-arm-none-eabi-10.3-2021.10\\arm-none-eabi\\include\\sys\\_stdint.h
 420              		.file 5 "Drivers/CMSIS/Device/ST/STM32G4xx/Include/stm32g431xx.h"
 421              		.file 6 "Drivers/STM32G4xx_HAL_Driver/Inc/stm32g4xx_hal_rcc.h"
 422              		.file 7 "Drivers/STM32G4xx_HAL_Driver/Inc/stm32g4xx_hal_def.h"
 423              		.file 8 "Drivers/STM32G4xx_HAL_Driver/Inc/stm32g4xx_hal_gpio.h"
 424              		.file 9 "../Common/IPC/ipc.h"
 425              		.file 10 "Drivers/STM32G4xx_HAL_Driver/Inc/stm32g4xx_hal_pwr_ex.h"
 426              		.file 11 "Drivers/STM32G4xx_HAL_Driver/Inc/stm32g4xx_hal.h"
 427              		.file 12 "Inc/gpio.h"
 428              		.file 13 "Inc/dma.h"
 429              		.file 14 "Inc/tim.h"
 430              		.file 15 "Inc/adc.h"
 431              		.file 16 "Inc/spi.h"
 432              		.file 17 "Inc/usart.h"
 433              		.file 18 "../Common/debuglog/debuglog.h"
 434              		.file 19 "../Common/debuglog/SEGGER_RTT_V792h/RTT/SEGGER_RTT.h"
 435              		.file 20 "./Hardware/hardware.h"
 436              		.file 21 "../Sensor/../Protocol/protocol.h"
 437              		.file 22 "Src/../../BLDCMotor/motorctrl.h"
 438              		.file 23 "<built-in>"
ARM GAS  C:\Users\57308\AppData\Local\Temp\ccXTQsaE.s 			page 18


DEFINED SYMBOLS
                            *ABS*:00000000 main.c
C:\Users\57308\AppData\Local\Temp\ccXTQsaE.s:20     .text.HAL_GPIO_EXTI_Callback:00000000 $t
C:\Users\57308\AppData\Local\Temp\ccXTQsaE.s:26     .text.HAL_GPIO_EXTI_Callback:00000000 HAL_GPIO_EXTI_Callback
C:\Users\57308\AppData\Local\Temp\ccXTQsaE.s:45     .text.HAL_GPIO_EXTI_Callback:0000000c $d
C:\Users\57308\AppData\Local\Temp\ccXTQsaE.s:50     .text.sysrunning_process:00000000 $t
C:\Users\57308\AppData\Local\Temp\ccXTQsaE.s:56     .text.sysrunning_process:00000000 sysrunning_process
C:\Users\57308\AppData\Local\Temp\ccXTQsaE.s:135    .text.sysrunning_process:00000054 $d
C:\Users\57308\AppData\Local\Temp\ccXTQsaE.s:143    .text.Error_Handler:00000000 $t
C:\Users\57308\AppData\Local\Temp\ccXTQsaE.s:149    .text.Error_Handler:00000000 Error_Handler
C:\Users\57308\AppData\Local\Temp\ccXTQsaE.s:181    .text.SystemClock_Config:00000000 $t
C:\Users\57308\AppData\Local\Temp\ccXTQsaE.s:187    .text.SystemClock_Config:00000000 SystemClock_Config
C:\Users\57308\AppData\Local\Temp\ccXTQsaE.s:305    .rodata.main.str1.4:00000000 $d
C:\Users\57308\AppData\Local\Temp\ccXTQsaE.s:312    .text.main:00000000 $t
C:\Users\57308\AppData\Local\Temp\ccXTQsaE.s:318    .text.main:00000000 main
C:\Users\57308\AppData\Local\Temp\ccXTQsaE.s:402    .text.main:00000064 $d
C:\Users\57308\AppData\Local\Temp\ccXTQsaE.s:409    .bss.sg_SYSRuning:00000000 $d
C:\Users\57308\AppData\Local\Temp\ccXTQsaE.s:413    .bss.sg_SYSRuning:00000000 sg_SYSRuning

UNDEFINED SYMBOLS
gEventGroup
protocol02_process
HAL_GPIO_TogglePin
memset
HAL_PWREx_ControlVoltageScaling
HAL_RCC_OscConfig
HAL_RCC_ClockConfig
HAL_Init
MX_GPIO_Init
MX_DMA_Init
MX_TIM1_Init
MX_ADC1_Init
MX_SPI1_Init
MX_USART1_UART_Init
User_Printf_Init
SEGGER_RTT_printf
hw_init
protocol_init
HAL_GPIO_WritePin
hw_sensor_process
motortctrl_process
protocol_process
HAL_Delay
