ARM GAS  C:\Users\ADMINI~1\AppData\Local\Temp\cc0n0WYc.s 			page 1


   1              		.cpu cortex-m4
   2              		.eabi_attribute 27, 1
   3              		.eabi_attribute 28, 1
   4              		.eabi_attribute 20, 1
   5              		.eabi_attribute 21, 1
   6              		.eabi_attribute 23, 3
   7              		.eabi_attribute 24, 1
   8              		.eabi_attribute 25, 1
   9              		.eabi_attribute 26, 1
  10              		.eabi_attribute 30, 1
  11              		.eabi_attribute 34, 1
  12              		.eabi_attribute 18, 4
  13              		.file	"motorctrl.c"
  14              		.text
  15              	.Ltext0:
  16              		.cfi_sections	.debug_frame
  17              		.section	.text._get_angleoffset,"ax",%progbits
  18              		.align	1
  19              		.arch armv7e-m
  20              		.syntax unified
  21              		.thumb
  22              		.thumb_func
  23              		.fpu fpv4-sp-d16
  25              	_get_angleoffset:
  26              	.LFB333:
  27              		.file 1 "../BLDCMotor/motorctrl.c"
   1:../BLDCMotor/motorctrl.c **** #include "./motorctrl.h"
   2:../BLDCMotor/motorctrl.c **** #include "debuglog.h"
   3:../BLDCMotor/motorctrl.c **** #include "focmethod.h"
   4:../BLDCMotor/motorctrl.c **** #include "sensor.h"
   5:../BLDCMotor/motorctrl.c **** #define MOTORCTRL_PERCI            (1)
   6:../BLDCMotor/motorctrl.c **** 
   7:../BLDCMotor/motorctrl.c **** enum{
   8:../BLDCMotor/motorctrl.c ****     MOTOR_INIT,
   9:../BLDCMotor/motorctrl.c ****     MOTOR_DIR1,
  10:../BLDCMotor/motorctrl.c ****     MOTOR_DIR2,
  11:../BLDCMotor/motorctrl.c ****     MOTOT_ANGIL,
  12:../BLDCMotor/motorctrl.c ****     MOTOR_IDLE,
  13:../BLDCMotor/motorctrl.c ****     MOTOR_START, 
  14:../BLDCMotor/motorctrl.c ****     MOTOR_RUNING,
  15:../BLDCMotor/motorctrl.c ****     MOTOR_RUNING2,  
  16:../BLDCMotor/motorctrl.c ****     MOTOT_FALT,
  17:../BLDCMotor/motorctrl.c ****     MOTOR_STOP,
  18:../BLDCMotor/motorctrl.c ****     MOTOR_TEST,
  19:../BLDCMotor/motorctrl.c ****     MOTOR_OFFSET,
  20:../BLDCMotor/motorctrl.c **** 
  21:../BLDCMotor/motorctrl.c **** };
  22:../BLDCMotor/motorctrl.c **** 
  23:../BLDCMotor/motorctrl.c **** typedef struct
  24:../BLDCMotor/motorctrl.c **** {
  25:../BLDCMotor/motorctrl.c ****     unsigned char state;
  26:../BLDCMotor/motorctrl.c **** }motorctrl_t;
  27:../BLDCMotor/motorctrl.c **** motorctrl_t g_Motor1 = {
  28:../BLDCMotor/motorctrl.c ****     .state = MOTOR_INIT,
  29:../BLDCMotor/motorctrl.c **** };
  30:../BLDCMotor/motorctrl.c **** static float sg_MecThetaOffset = 0.0f;
  31:../BLDCMotor/motorctrl.c **** 
ARM GAS  C:\Users\ADMINI~1\AppData\Local\Temp\cc0n0WYc.s 			page 2


  32:../BLDCMotor/motorctrl.c **** extern alpbet_t _2r_2s(dq_t i_dq,float theta);
  33:../BLDCMotor/motorctrl.c **** extern void _3s_2s(abc_t i_abc,alpbet_t *alp_bet);
  34:../BLDCMotor/motorctrl.c **** extern void _2s_2r(alpbet_t i_alphabeta,float theta,dq_t *dq);
  35:../BLDCMotor/motorctrl.c **** static lowfilter_t sg_elefilter[3];
  36:../BLDCMotor/motorctrl.c **** static float _get_angleoffset(void);
  37:../BLDCMotor/motorctrl.c **** void motortctrl_process(void)
  38:../BLDCMotor/motorctrl.c **** {
  39:../BLDCMotor/motorctrl.c ****     float theta = 100.0f;
  40:../BLDCMotor/motorctrl.c **** 
  41:../BLDCMotor/motorctrl.c ****     switch (g_Motor1.state)
  42:../BLDCMotor/motorctrl.c ****     {
  43:../BLDCMotor/motorctrl.c ****     case MOTOR_INIT:
  44:../BLDCMotor/motorctrl.c ****         for (unsigned char  i = 0; i < 10; i++)
  45:../BLDCMotor/motorctrl.c ****         {
  46:../BLDCMotor/motorctrl.c ****             theta = (*(sensor_data_t*)sensor_user_read(SENSOR_MT6818)).cov_data;            
  47:../BLDCMotor/motorctrl.c ****         }
  48:../BLDCMotor/motorctrl.c ****         USER_DEBUG_NORMAL("theta %f\r\n",theta);
  49:../BLDCMotor/motorctrl.c ****         sg_MecThetaOffset = _get_angleoffset();
  50:../BLDCMotor/motorctrl.c ****         /*-----电流滤波器初始化-------*/
  51:../BLDCMotor/motorctrl.c ****         lowfilter_init(&sg_elefilter[0],80);
  52:../BLDCMotor/motorctrl.c ****         lowfilter_init(&sg_elefilter[1],80);
  53:../BLDCMotor/motorctrl.c ****         lowfilter_init(&sg_elefilter[2],80);
  54:../BLDCMotor/motorctrl.c **** 
  55:../BLDCMotor/motorctrl.c ****         /*------PID参数初始化---------*/
  56:../BLDCMotor/motorctrl.c ****         foc_paraminit();
  57:../BLDCMotor/motorctrl.c ****         motor_enable();
  58:../BLDCMotor/motorctrl.c ****         g_Motor1.state = MOTOR_RUNING;           
  59:../BLDCMotor/motorctrl.c ****         break;
  60:../BLDCMotor/motorctrl.c ****     case MOTOR_RUNING:
  61:../BLDCMotor/motorctrl.c ****         {
  62:../BLDCMotor/motorctrl.c ****         }
  63:../BLDCMotor/motorctrl.c ****         break;
  64:../BLDCMotor/motorctrl.c ****     case MOTOR_STOP:
  65:../BLDCMotor/motorctrl.c ****         motor_disable();
  66:../BLDCMotor/motorctrl.c ****         g_Motor1.state = MOTOR_INIT;
  67:../BLDCMotor/motorctrl.c ****         break;
  68:../BLDCMotor/motorctrl.c ****     default:
  69:../BLDCMotor/motorctrl.c ****         break;
  70:../BLDCMotor/motorctrl.c ****     }
  71:../BLDCMotor/motorctrl.c **** }
  72:../BLDCMotor/motorctrl.c **** 
  73:../BLDCMotor/motorctrl.c **** static float _get_angleoffset(void)
  74:../BLDCMotor/motorctrl.c **** {
  28              		.loc 1 74 1 view -0
  29              		.cfi_startproc
  30              		@ args = 0, pretend = 0, frame = 24
  31              		@ frame_needed = 0, uses_anonymous_args = 0
  32 0000 10B5     		push	{r4, lr}
  33              	.LCFI0:
  34              		.cfi_def_cfa_offset 8
  35              		.cfi_offset 4, -8
  36              		.cfi_offset 14, -4
  37 0002 2DED028B 		vpush.64	{d8}
  38              	.LCFI1:
  39              		.cfi_def_cfa_offset 16
  40              		.cfi_offset 80, -16
  41              		.cfi_offset 81, -12
ARM GAS  C:\Users\ADMINI~1\AppData\Local\Temp\cc0n0WYc.s 			page 3


  42 0006 86B0     		sub	sp, sp, #24
  43              	.LCFI2:
  44              		.cfi_def_cfa_offset 40
  75:../BLDCMotor/motorctrl.c ****     motor_enable_noirq();
  45              		.loc 1 75 5 view .LVU1
  46 0008 FFF7FEFF 		bl	motor_enable_noirq
  47              	.LVL0:
  76:../BLDCMotor/motorctrl.c ****     /*-----------设置alpha/beta坐标系------------------*/
  77:../BLDCMotor/motorctrl.c ****     alpbet_t uab = {1.0f,0.0f};
  48              		.loc 1 77 5 view .LVU2
  49              		.loc 1 77 14 is_stmt 0 view .LVU3
  50 000c 0024     		movs	r4, #0
  51 000e 0394     		str	r4, [sp, #12]
  52 0010 0494     		str	r4, [sp, #16]
  53 0012 0594     		str	r4, [sp, #20]
  54 0014 B7EE000A 		vmov.f32	s0, #1.0e+0
  55 0018 8DED030A 		vstr.32	s0, [sp, #12]
  78:../BLDCMotor/motorctrl.c ****     duty_t dut01;
  56              		.loc 1 78 5 is_stmt 1 view .LVU4
  79:../BLDCMotor/motorctrl.c ****     float theta;
  57              		.loc 1 79 5 view .LVU5
  80:../BLDCMotor/motorctrl.c ****     dut01 = _svpwm(uab.alpha,uab.beta);
  58              		.loc 1 80 5 view .LVU6
  59              		.loc 1 80 13 is_stmt 0 view .LVU7
  60 001c DFED0D0A 		vldr.32	s1, .L3
  61 0020 FFF7FEFF 		bl	_svpwm
  62              	.LVL1:
  63 0024 8DED000A 		vstr.32	s0, [sp]
  64 0028 CDED010A 		vstr.32	s1, [sp, #4]
  65 002c 8DED021A 		vstr.32	s2, [sp, #8]
  81:../BLDCMotor/motorctrl.c ****     motor_set_pwm(dut01._a,dut01._b,dut01._c);
  66              		.loc 1 81 5 is_stmt 1 view .LVU8
  67 0030 FFF7FEFF 		bl	motor_set_pwm
  68              	.LVL2:
  82:../BLDCMotor/motorctrl.c ****     HAL_Delay(200);
  69              		.loc 1 82 5 view .LVU9
  70 0034 C820     		movs	r0, #200
  71 0036 FFF7FEFF 		bl	HAL_Delay
  72              	.LVL3:
  83:../BLDCMotor/motorctrl.c ****     theta = (*(sensor_data_t*)sensor_user_read(SENSOR_MT6818)).cov_data;
  73              		.loc 1 83 5 view .LVU10
  74              		.loc 1 83 31 is_stmt 0 view .LVU11
  75 003a 2046     		mov	r0, r4
  76 003c FFF7FEFF 		bl	sensor_user_read
  77              	.LVL4:
  78              		.loc 1 83 11 view .LVU12
  79 0040 90ED018A 		vldr.32	s16, [r0, #4]
  80              	.LVL5:
  84:../BLDCMotor/motorctrl.c ****     motor_disable();
  81              		.loc 1 84 5 is_stmt 1 view .LVU13
  82 0044 FFF7FEFF 		bl	motor_disable
  83              	.LVL6:
  85:../BLDCMotor/motorctrl.c ****     return theta;
  84              		.loc 1 85 5 view .LVU14
  86:../BLDCMotor/motorctrl.c **** }
  85              		.loc 1 86 1 is_stmt 0 view .LVU15
  86 0048 B0EE480A 		vmov.f32	s0, s16
ARM GAS  C:\Users\ADMINI~1\AppData\Local\Temp\cc0n0WYc.s 			page 4


  87 004c 06B0     		add	sp, sp, #24
  88              	.LCFI3:
  89              		.cfi_def_cfa_offset 16
  90              		@ sp needed
  91 004e BDEC028B 		vldm	sp!, {d8}
  92              	.LCFI4:
  93              		.cfi_restore 80
  94              		.cfi_restore 81
  95              		.cfi_def_cfa_offset 8
  96              	.LVL7:
  97              		.loc 1 86 1 view .LVU16
  98 0052 10BD     		pop	{r4, pc}
  99              	.L4:
 100              		.align	2
 101              	.L3:
 102 0054 00000000 		.word	0
 103              		.cfi_endproc
 104              	.LFE333:
 106              		.global	__aeabi_f2d
 107              		.section	.rodata.motortctrl_process.str1.4,"aMS",%progbits,1
 108              		.align	2
 109              	.LC0:
 110 0000 74686574 		.ascii	"theta %f\015\012\000"
 110      61202566 
 110      0D0A00
 111              		.section	.text.motortctrl_process,"ax",%progbits
 112              		.align	1
 113              		.global	motortctrl_process
 114              		.syntax unified
 115              		.thumb
 116              		.thumb_func
 117              		.fpu fpv4-sp-d16
 119              	motortctrl_process:
 120              	.LFB332:
  38:../BLDCMotor/motorctrl.c ****     float theta = 100.0f;
 121              		.loc 1 38 1 is_stmt 1 view -0
 122              		.cfi_startproc
 123              		@ args = 0, pretend = 0, frame = 0
 124              		@ frame_needed = 0, uses_anonymous_args = 0
 125 0000 10B5     		push	{r4, lr}
 126              	.LCFI5:
 127              		.cfi_def_cfa_offset 8
 128              		.cfi_offset 4, -8
 129              		.cfi_offset 14, -4
 130 0002 2DED028B 		vpush.64	{d8}
 131              	.LCFI6:
 132              		.cfi_def_cfa_offset 16
 133              		.cfi_offset 80, -16
 134              		.cfi_offset 81, -12
  39:../BLDCMotor/motorctrl.c **** 
 135              		.loc 1 39 5 view .LVU18
 136              	.LVL8:
  41:../BLDCMotor/motorctrl.c ****     {
 137              		.loc 1 41 5 view .LVU19
  41:../BLDCMotor/motorctrl.c ****     {
 138              		.loc 1 41 21 is_stmt 0 view .LVU20
 139 0006 204B     		ldr	r3, .L12
ARM GAS  C:\Users\ADMINI~1\AppData\Local\Temp\cc0n0WYc.s 			page 5


 140 0008 1C78     		ldrb	r4, [r3]	@ zero_extendqisi2
  41:../BLDCMotor/motorctrl.c ****     {
 141              		.loc 1 41 5 view .LVU21
 142 000a A4B3     		cbz	r4, .L10
 143 000c 092C     		cmp	r4, #9
 144 000e 34D0     		beq	.L7
 145              	.LVL9:
 146              	.L5:
  71:../BLDCMotor/motorctrl.c **** 
 147              		.loc 1 71 1 view .LVU22
 148 0010 BDEC028B 		vldm	sp!, {d8}
 149              	.LCFI7:
 150              		.cfi_remember_state
 151              		.cfi_restore 80
 152              		.cfi_restore 81
 153              		.cfi_def_cfa_offset 8
 154 0014 10BD     		pop	{r4, pc}
 155              	.LVL10:
 156              	.L9:
 157              	.LCFI8:
 158              		.cfi_restore_state
 159              	.LBB2:
  46:../BLDCMotor/motorctrl.c ****         }
 160              		.loc 1 46 13 is_stmt 1 discriminator 3 view .LVU23
  46:../BLDCMotor/motorctrl.c ****         }
 161              		.loc 1 46 39 is_stmt 0 discriminator 3 view .LVU24
 162 0016 0020     		movs	r0, #0
 163              	.LVL11:
  46:../BLDCMotor/motorctrl.c ****         }
 164              		.loc 1 46 39 discriminator 3 view .LVU25
 165 0018 FFF7FEFF 		bl	sensor_user_read
 166              	.LVL12:
  46:../BLDCMotor/motorctrl.c ****         }
 167              		.loc 1 46 19 discriminator 3 view .LVU26
 168 001c 4068     		ldr	r0, [r0, #4]	@ float
 169              	.LVL13:
  44:../BLDCMotor/motorctrl.c ****         {
 170              		.loc 1 44 44 is_stmt 1 discriminator 3 view .LVU27
  44:../BLDCMotor/motorctrl.c ****         {
 171              		.loc 1 44 45 is_stmt 0 discriminator 3 view .LVU28
 172 001e 0134     		adds	r4, r4, #1
 173              	.LVL14:
  44:../BLDCMotor/motorctrl.c ****         {
 174              		.loc 1 44 45 discriminator 3 view .LVU29
 175 0020 E4B2     		uxtb	r4, r4
 176              	.LVL15:
 177              	.L6:
  44:../BLDCMotor/motorctrl.c ****         {
 178              		.loc 1 44 36 is_stmt 1 discriminator 1 view .LVU30
  44:../BLDCMotor/motorctrl.c ****         {
 179              		.loc 1 44 9 is_stmt 0 discriminator 1 view .LVU31
 180 0022 092C     		cmp	r4, #9
 181 0024 F7D9     		bls	.L9
 182              	.LBE2:
  48:../BLDCMotor/motorctrl.c ****         sg_MecThetaOffset = _get_angleoffset();
 183              		.loc 1 48 9 is_stmt 1 view .LVU32
 184 0026 FFF7FEFF 		bl	__aeabi_f2d
ARM GAS  C:\Users\ADMINI~1\AppData\Local\Temp\cc0n0WYc.s 			page 6


 185              	.LVL16:
  48:../BLDCMotor/motorctrl.c ****         sg_MecThetaOffset = _get_angleoffset();
 186              		.loc 1 48 9 is_stmt 0 view .LVU33
 187 002a 0246     		mov	r2, r0
 188 002c 0B46     		mov	r3, r1
 189 002e 1748     		ldr	r0, .L12+4
 190 0030 FFF7FEFF 		bl	printf
 191              	.LVL17:
  49:../BLDCMotor/motorctrl.c ****         /*-----电流滤波器初始化-------*/
 192              		.loc 1 49 9 is_stmt 1 view .LVU34
  49:../BLDCMotor/motorctrl.c ****         /*-----电流滤波器初始化-------*/
 193              		.loc 1 49 29 is_stmt 0 view .LVU35
 194 0034 FFF7FEFF 		bl	_get_angleoffset
 195              	.LVL18:
  49:../BLDCMotor/motorctrl.c ****         /*-----电流滤波器初始化-------*/
 196              		.loc 1 49 27 view .LVU36
 197 0038 154B     		ldr	r3, .L12+8
 198 003a 83ED000A 		vstr.32	s0, [r3]
  51:../BLDCMotor/motorctrl.c ****         lowfilter_init(&sg_elefilter[1],80);
 199              		.loc 1 51 9 is_stmt 1 view .LVU37
 200 003e 9FED158A 		vldr.32	s16, .L12+12
 201 0042 154C     		ldr	r4, .L12+16
 202              	.LVL19:
  51:../BLDCMotor/motorctrl.c ****         lowfilter_init(&sg_elefilter[1],80);
 203              		.loc 1 51 9 is_stmt 0 view .LVU38
 204 0044 B0EE480A 		vmov.f32	s0, s16
 205 0048 2046     		mov	r0, r4
 206 004a FFF7FEFF 		bl	lowfilter_init
 207              	.LVL20:
  52:../BLDCMotor/motorctrl.c ****         lowfilter_init(&sg_elefilter[2],80);
 208              		.loc 1 52 9 is_stmt 1 view .LVU39
 209 004e B0EE480A 		vmov.f32	s0, s16
 210 0052 04F10800 		add	r0, r4, #8
 211 0056 FFF7FEFF 		bl	lowfilter_init
 212              	.LVL21:
  53:../BLDCMotor/motorctrl.c **** 
 213              		.loc 1 53 9 view .LVU40
 214 005a B0EE480A 		vmov.f32	s0, s16
 215 005e 04F11000 		add	r0, r4, #16
 216 0062 FFF7FEFF 		bl	lowfilter_init
 217              	.LVL22:
  56:../BLDCMotor/motorctrl.c ****         motor_enable();
 218              		.loc 1 56 9 view .LVU41
 219 0066 FFF7FEFF 		bl	foc_paraminit
 220              	.LVL23:
  57:../BLDCMotor/motorctrl.c ****         g_Motor1.state = MOTOR_RUNING;           
 221              		.loc 1 57 9 view .LVU42
 222 006a FFF7FEFF 		bl	motor_enable
 223              	.LVL24:
  58:../BLDCMotor/motorctrl.c ****         break;
 224              		.loc 1 58 9 view .LVU43
  58:../BLDCMotor/motorctrl.c ****         break;
 225              		.loc 1 58 24 is_stmt 0 view .LVU44
 226 006e 064B     		ldr	r3, .L12
 227 0070 0622     		movs	r2, #6
 228 0072 1A70     		strb	r2, [r3]
  59:../BLDCMotor/motorctrl.c ****     case MOTOR_RUNING:
ARM GAS  C:\Users\ADMINI~1\AppData\Local\Temp\cc0n0WYc.s 			page 7


 229              		.loc 1 59 9 is_stmt 1 view .LVU45
 230 0074 CCE7     		b	.L5
 231              	.LVL25:
 232              	.L10:
  41:../BLDCMotor/motorctrl.c ****     {
 233              		.loc 1 41 5 is_stmt 0 view .LVU46
 234 0076 0948     		ldr	r0, .L12+20
 235 0078 D3E7     		b	.L6
 236              	.L7:
  65:../BLDCMotor/motorctrl.c ****         g_Motor1.state = MOTOR_INIT;
 237              		.loc 1 65 9 is_stmt 1 view .LVU47
 238 007a FFF7FEFF 		bl	motor_disable
 239              	.LVL26:
  66:../BLDCMotor/motorctrl.c ****         break;
 240              		.loc 1 66 9 view .LVU48
  66:../BLDCMotor/motorctrl.c ****         break;
 241              		.loc 1 66 24 is_stmt 0 view .LVU49
 242 007e 024B     		ldr	r3, .L12
 243 0080 0022     		movs	r2, #0
 244 0082 1A70     		strb	r2, [r3]
  67:../BLDCMotor/motorctrl.c ****     default:
 245              		.loc 1 67 9 is_stmt 1 view .LVU50
  71:../BLDCMotor/motorctrl.c **** 
 246              		.loc 1 71 1 is_stmt 0 view .LVU51
 247 0084 C4E7     		b	.L5
 248              	.L13:
 249 0086 00BF     		.align	2
 250              	.L12:
 251 0088 00000000 		.word	.LANCHOR0
 252 008c 00000000 		.word	.LC0
 253 0090 00000000 		.word	.LANCHOR1
 254 0094 0000A042 		.word	1117782016
 255 0098 00000000 		.word	.LANCHOR2
 256 009c 0000C842 		.word	1120403456
 257              		.cfi_endproc
 258              	.LFE332:
 260              		.section	.text.motorctrl_foccalc,"ax",%progbits
 261              		.align	1
 262              		.global	motorctrl_foccalc
 263              		.syntax unified
 264              		.thumb
 265              		.thumb_func
 266              		.fpu fpv4-sp-d16
 268              	motorctrl_foccalc:
 269              	.LVL27:
 270              	.LFB334:
  87:../BLDCMotor/motorctrl.c **** /*------------周期性被调用----------------*/
  88:../BLDCMotor/motorctrl.c **** 
  89:../BLDCMotor/motorctrl.c **** extern  pid_cb_t *sgp_curloop_d_pid;
  90:../BLDCMotor/motorctrl.c **** extern pid_cb_t *sgp_curloop_q_pid;
  91:../BLDCMotor/motorctrl.c **** void motorctrl_foccalc(unsigned int *abc_vale,float _elec_theta)
  92:../BLDCMotor/motorctrl.c **** {
 271              		.loc 1 92 1 is_stmt 1 view -0
 272              		.cfi_startproc
 273              		@ args = 0, pretend = 0, frame = 72
 274              		@ frame_needed = 0, uses_anonymous_args = 0
 275              		.loc 1 92 1 is_stmt 0 view .LVU53
ARM GAS  C:\Users\ADMINI~1\AppData\Local\Temp\cc0n0WYc.s 			page 8


 276 0000 10B5     		push	{r4, lr}
 277              	.LCFI9:
 278              		.cfi_def_cfa_offset 8
 279              		.cfi_offset 4, -8
 280              		.cfi_offset 14, -4
 281 0002 2DED048B 		vpush.64	{d8, d9}
 282              	.LCFI10:
 283              		.cfi_def_cfa_offset 24
 284              		.cfi_offset 80, -24
 285              		.cfi_offset 81, -20
 286              		.cfi_offset 82, -16
 287              		.cfi_offset 83, -12
 288 0006 92B0     		sub	sp, sp, #72
 289              	.LCFI11:
 290              		.cfi_def_cfa_offset 96
  93:../BLDCMotor/motorctrl.c **** /*----------------三相电流处理------------------------------*/    
  94:../BLDCMotor/motorctrl.c ****     float Ia,Ib,Ic;    
 291              		.loc 1 94 5 is_stmt 1 view .LVU54
  95:../BLDCMotor/motorctrl.c ****     float a1,a2,a3;
 292              		.loc 1 95 5 view .LVU55
  96:../BLDCMotor/motorctrl.c ****     a1 = (float)abc_vale[0] - AD_OFFSET;
 293              		.loc 1 96 5 view .LVU56
 294              		.loc 1 96 10 is_stmt 0 view .LVU57
 295 0008 D0ED007A 		vldr.32	s15, [r0]	@ int
 296 000c F8EE677A 		vcvt.f32.u32	s15, s15
 297              		.loc 1 96 8 view .LVU58
 298 0010 9FED4E7A 		vldr.32	s14, .L16
 299 0014 77EEC77A 		vsub.f32	s15, s15, s14
 300              	.LVL28:
  97:../BLDCMotor/motorctrl.c ****     a2 = (float)abc_vale[2] - AD_OFFSET;
 301              		.loc 1 97 5 is_stmt 1 view .LVU59
 302              		.loc 1 97 10 is_stmt 0 view .LVU60
 303 0018 D0ED026A 		vldr.32	s13, [r0, #8]	@ int
 304 001c F8EE668A 		vcvt.f32.u32	s17, s13
 305              		.loc 1 97 8 view .LVU61
 306 0020 78EEC78A 		vsub.f32	s17, s17, s14
 307              	.LVL29:
  98:../BLDCMotor/motorctrl.c ****     a3 = (float)abc_vale[1] - AD_OFFSET;  
 308              		.loc 1 98 5 is_stmt 1 view .LVU62
 309              		.loc 1 98 25 is_stmt 0 view .LVU63
 310 0024 90ED018A 		vldr.32	s16, [r0, #4]	@ int
 311              		.loc 1 98 10 view .LVU64
 312 0028 B8EE488A 		vcvt.f32.u32	s16, s16
 313              		.loc 1 98 8 view .LVU65
 314 002c 38EE478A 		vsub.f32	s16, s16, s14
 315              	.LVL30:
  99:../BLDCMotor/motorctrl.c ****     Ia = (float)a1*(float)(3.3f/4096.0f/RA_S/BETA_);
 316              		.loc 1 99 5 is_stmt 1 view .LVU66
 317              		.loc 1 99 8 is_stmt 0 view .LVU67
 318 0030 9FED470A 		vldr.32	s0, .L16+4
 319              	.LVL31:
 100:../BLDCMotor/motorctrl.c ****     Ib = (float)a2*(float)(3.3f/4096.0f/RB_S/BETA_);
 320              		.loc 1 100 5 is_stmt 1 view .LVU68
 321              		.loc 1 100 8 is_stmt 0 view .LVU69
 322 0034 68EE808A 		vmul.f32	s17, s17, s0
 323              	.LVL32:
 101:../BLDCMotor/motorctrl.c ****     Ic = (float)a3*(float)(3.3f/4096.0f/RC_S/BETA_);
ARM GAS  C:\Users\ADMINI~1\AppData\Local\Temp\cc0n0WYc.s 			page 9


 324              		.loc 1 101 5 is_stmt 1 view .LVU70
 325              		.loc 1 101 8 is_stmt 0 view .LVU71
 326 0038 28EE008A 		vmul.f32	s16, s16, s0
 327              	.LVL33:
 102:../BLDCMotor/motorctrl.c **** #if 1
 103:../BLDCMotor/motorctrl.c ****     abc_t i_abc;
 328              		.loc 1 103 5 is_stmt 1 view .LVU72
 104:../BLDCMotor/motorctrl.c ****     i_abc.a = lowfilter_cale(&sg_elefilter[0],Ia);
 329              		.loc 1 104 5 view .LVU73
 330              		.loc 1 104 15 is_stmt 0 view .LVU74
 331 003c 454C     		ldr	r4, .L16+8
 332 003e 27EE800A 		vmul.f32	s0, s15, s0
 333              	.LVL34:
 334              		.loc 1 104 15 view .LVU75
 335 0042 2046     		mov	r0, r4
 336              	.LVL35:
 337              		.loc 1 104 15 view .LVU76
 338 0044 FFF7FEFF 		bl	lowfilter_cale
 339              	.LVL36:
 340              		.loc 1 104 15 view .LVU77
 341 0048 F0EE409A 		vmov.f32	s19, s0
 342              		.loc 1 104 13 view .LVU78
 343 004c 8DED0F0A 		vstr.32	s0, [sp, #60]
 105:../BLDCMotor/motorctrl.c ****     i_abc.b = lowfilter_cale(&sg_elefilter[1],Ib);
 344              		.loc 1 105 5 is_stmt 1 view .LVU79
 345              		.loc 1 105 15 is_stmt 0 view .LVU80
 346 0050 B0EE680A 		vmov.f32	s0, s17
 347 0054 04F10800 		add	r0, r4, #8
 348 0058 FFF7FEFF 		bl	lowfilter_cale
 349              	.LVL37:
 350 005c B0EE409A 		vmov.f32	s18, s0
 351              		.loc 1 105 13 view .LVU81
 352 0060 8DED100A 		vstr.32	s0, [sp, #64]
 106:../BLDCMotor/motorctrl.c ****     i_abc.c = lowfilter_cale(&sg_elefilter[2],Ic);
 353              		.loc 1 106 5 is_stmt 1 view .LVU82
 354              		.loc 1 106 15 is_stmt 0 view .LVU83
 355 0064 B0EE480A 		vmov.f32	s0, s16
 356 0068 04F11000 		add	r0, r4, #16
 357 006c FFF7FEFF 		bl	lowfilter_cale
 358              	.LVL38:
 359 0070 F0EE408A 		vmov.f32	s17, s0
 360              	.LVL39:
 361              		.loc 1 106 13 view .LVU84
 362 0074 8DED110A 		vstr.32	s0, [sp, #68]
 107:../BLDCMotor/motorctrl.c **** #else
 108:../BLDCMotor/motorctrl.c ****     abc_t i_abc;
 109:../BLDCMotor/motorctrl.c ****     i_abc.a = Ia;
 110:../BLDCMotor/motorctrl.c ****     i_abc.b = Ib;
 111:../BLDCMotor/motorctrl.c ****     i_abc.c = Ic;
 112:../BLDCMotor/motorctrl.c **** #endif
 113:../BLDCMotor/motorctrl.c **** 
 114:../BLDCMotor/motorctrl.c **** /*---------------------获取当前转子角度-------------------------*/
 115:../BLDCMotor/motorctrl.c ****     float mech_theta,elec_theta;
 363              		.loc 1 115 5 is_stmt 1 view .LVU85
 116:../BLDCMotor/motorctrl.c ****     mech_theta = (*(sensor_data_t*)sensor_user_read(SENSOR_MT6818)).cov_data - sg_MecThetaOffset;
 364              		.loc 1 116 5 view .LVU86
 365              		.loc 1 116 36 is_stmt 0 view .LVU87
ARM GAS  C:\Users\ADMINI~1\AppData\Local\Temp\cc0n0WYc.s 			page 10


 366 0078 0020     		movs	r0, #0
 367 007a FFF7FEFF 		bl	sensor_user_read
 368              	.LVL40:
 369              		.loc 1 116 68 view .LVU88
 370 007e 90ED018A 		vldr.32	s16, [r0, #4]
 371              	.LVL41:
 372              		.loc 1 116 78 view .LVU89
 373 0082 354B     		ldr	r3, .L16+12
 374 0084 D3ED007A 		vldr.32	s15, [r3]
 375              		.loc 1 116 16 view .LVU90
 376 0088 38EE678A 		vsub.f32	s16, s16, s15
 377              	.LVL42:
 117:../BLDCMotor/motorctrl.c ****     elec_theta = mech_theta * MOTOR_PAIR;    
 378              		.loc 1 117 5 is_stmt 1 view .LVU91
 379              		.loc 1 117 16 is_stmt 0 view .LVU92
 380 008c 38EE088A 		vadd.f32	s16, s16, s16
 381              	.LVL43:
 118:../BLDCMotor/motorctrl.c **** 
 119:../BLDCMotor/motorctrl.c ****     /*--------------对电流进行反park变化-----------------------*/
 120:../BLDCMotor/motorctrl.c ****     // i_abc.a = cosf(elec_theta);
 121:../BLDCMotor/motorctrl.c ****     // i_abc.b = cosf(elec_theta - 2.0/3.0f*PI);
 122:../BLDCMotor/motorctrl.c ****     // i_abc.c = cosf(elec_theta + 2.0/3.0f*PI);
 123:../BLDCMotor/motorctrl.c ****     dq_t i_dq;
 382              		.loc 1 123 5 is_stmt 1 view .LVU93
 124:../BLDCMotor/motorctrl.c ****     alpbet_t i_alphbeta;    
 383              		.loc 1 124 5 view .LVU94
 125:../BLDCMotor/motorctrl.c ****     _3s_2s(i_abc,&i_alphbeta);
 384              		.loc 1 125 5 view .LVU95
 385 0090 09A8     		add	r0, sp, #36
 386              	.LVL44:
 387              		.loc 1 125 5 is_stmt 0 view .LVU96
 388 0092 9DED0F0A 		vldr.32	s0, [sp, #60]
 389 0096 DDED100A 		vldr.32	s1, [sp, #64]
 390 009a 9DED111A 		vldr.32	s2, [sp, #68]
 391 009e FFF7FEFF 		bl	_3s_2s
 392              	.LVL45:
 126:../BLDCMotor/motorctrl.c ****     _2s_2r(i_alphbeta,elec_theta - PI/2.0F,&i_dq);
 393              		.loc 1 126 5 is_stmt 1 view .LVU97
 394 00a2 0CA8     		add	r0, sp, #48
 395 00a4 DFED2D1A 		vldr.32	s3, .L16+16
 396 00a8 78EE611A 		vsub.f32	s3, s16, s3
 397 00ac 9DED090A 		vldr.32	s0, [sp, #36]
 398 00b0 DDED0A0A 		vldr.32	s1, [sp, #40]
 399 00b4 9DED0B1A 		vldr.32	s2, [sp, #44]
 400 00b8 FFF7FEFF 		bl	_2s_2r
 401              	.LVL46:
 127:../BLDCMotor/motorctrl.c **** #if 0
 128:../BLDCMotor/motorctrl.c **** /*-------------------闭环控制-----------------------*/
 129:../BLDCMotor/motorctrl.c ****     float target_uq = 8.0f;  
 130:../BLDCMotor/motorctrl.c ****     dq_t u_dq;  
 131:../BLDCMotor/motorctrl.c ****     u_dq.d = 0.0f;
 132:../BLDCMotor/motorctrl.c ****     u_dq.q = 1.0f;
 133:../BLDCMotor/motorctrl.c ****     u_dq.d = pid_contrl(sgp_curloop_d_pid,0.0f,i_dq.d);
 134:../BLDCMotor/motorctrl.c ****     // u_dq.q = pid_contrl(sgp_curloop_q_pid,target_uq,i_dq.q);
 135:../BLDCMotor/motorctrl.c ****     alpbet_t uab;
 136:../BLDCMotor/motorctrl.c ****     uab = _2r_2s(u_dq, elec_theta);
 137:../BLDCMotor/motorctrl.c ****     duty_t dut01;
ARM GAS  C:\Users\ADMINI~1\AppData\Local\Temp\cc0n0WYc.s 			page 11


 138:../BLDCMotor/motorctrl.c ****     dut01 = _svpwm(uab.alpha,uab.beta);
 139:../BLDCMotor/motorctrl.c ****     motor_set_pwm(dut01._a,dut01._b,dut01._c);
 140:../BLDCMotor/motorctrl.c **** #else
 141:../BLDCMotor/motorctrl.c **** /*------------------------
 142:../BLDCMotor/motorctrl.c **** 开环控制
 143:../BLDCMotor/motorctrl.c **** 100us调用匹配参数  42BLDC  theta += 0.004f;  uq = 1.0f
 144:../BLDCMotor/motorctrl.c **** ---------------------------*/
 145:../BLDCMotor/motorctrl.c **** 
 146:../BLDCMotor/motorctrl.c ****     dq_t udq = {0.0f,1.00f};
 402              		.loc 1 146 5 view .LVU98
 403              		.loc 1 146 10 is_stmt 0 view .LVU99
 404 00bc 0023     		movs	r3, #0
 405 00be 0693     		str	r3, [sp, #24]
 406 00c0 0793     		str	r3, [sp, #28]
 407 00c2 0893     		str	r3, [sp, #32]
 408 00c4 F7EE000A 		vmov.f32	s1, #1.0e+0
 409 00c8 CDED070A 		vstr.32	s1, [sp, #28]
 147:../BLDCMotor/motorctrl.c ****     alpbet_t uab;
 410              		.loc 1 147 5 is_stmt 1 view .LVU100
 148:../BLDCMotor/motorctrl.c ****     #if 0//强拖
 149:../BLDCMotor/motorctrl.c ****         {
 150:../BLDCMotor/motorctrl.c ****             static float theta = 0.0f;
 151:../BLDCMotor/motorctrl.c ****             if (theta >= _2PI)
 152:../BLDCMotor/motorctrl.c ****             {
 153:../BLDCMotor/motorctrl.c ****                 /* code */
 154:../BLDCMotor/motorctrl.c ****                 theta = 0.0f;
 155:../BLDCMotor/motorctrl.c ****             }
 156:../BLDCMotor/motorctrl.c ****             theta += 0.004f;
 157:../BLDCMotor/motorctrl.c ****             uab = _2r_2s(udq, theta);
 158:../BLDCMotor/motorctrl.c ****         }        
 159:../BLDCMotor/motorctrl.c ****     #else
 160:../BLDCMotor/motorctrl.c ****         uab = _2r_2s(udq, elec_theta);    
 411              		.loc 1 160 9 view .LVU101
 412              		.loc 1 160 15 is_stmt 0 view .LVU102
 413 00cc F0EE481A 		vmov.f32	s3, s16
 414 00d0 9DED060A 		vldr.32	s0, [sp, #24]
 415 00d4 9DED081A 		vldr.32	s2, [sp, #32]
 416 00d8 FFF7FEFF 		bl	_2r_2s
 417              	.LVL47:
 418 00dc 8DED030A 		vstr.32	s0, [sp, #12]
 419 00e0 CDED040A 		vstr.32	s1, [sp, #16]
 420 00e4 8DED051A 		vstr.32	s2, [sp, #20]
 161:../BLDCMotor/motorctrl.c ****     #endif
 162:../BLDCMotor/motorctrl.c ****     
 163:../BLDCMotor/motorctrl.c ****     duty_t dut01;
 421              		.loc 1 163 5 is_stmt 1 view .LVU103
 164:../BLDCMotor/motorctrl.c ****     dut01 = _svpwm(uab.alpha,uab.beta);
 422              		.loc 1 164 5 view .LVU104
 423              		.loc 1 164 13 is_stmt 0 view .LVU105
 424 00e8 FFF7FEFF 		bl	_svpwm
 425              	.LVL48:
 426 00ec 8DED000A 		vstr.32	s0, [sp]
 427 00f0 CDED010A 		vstr.32	s1, [sp, #4]
 428 00f4 8DED021A 		vstr.32	s2, [sp, #8]
 165:../BLDCMotor/motorctrl.c ****     motor_set_pwm(dut01._a,dut01._b,dut01._c);
 429              		.loc 1 165 5 is_stmt 1 view .LVU106
 430 00f8 FFF7FEFF 		bl	motor_set_pwm
ARM GAS  C:\Users\ADMINI~1\AppData\Local\Temp\cc0n0WYc.s 			page 12


 431              	.LVL49:
 166:../BLDCMotor/motorctrl.c **** #endif
 167:../BLDCMotor/motorctrl.c **** 
 168:../BLDCMotor/motorctrl.c **** /*-------------------观测三相电流--------------------*/
 169:../BLDCMotor/motorctrl.c ****     ipc_write_data(PUBLIC_DATA_IA,i_abc.a);
 432              		.loc 1 169 5 view .LVU107
 433 00fc B0EE690A 		vmov.f32	s0, s19
 434 0100 0220     		movs	r0, #2
 435 0102 FFF7FEFF 		bl	ipc_write_data
 436              	.LVL50:
 170:../BLDCMotor/motorctrl.c ****     ipc_write_data(PUBLIC_DATA_IB,i_abc.b);
 437              		.loc 1 170 5 view .LVU108
 438 0106 B0EE490A 		vmov.f32	s0, s18
 439 010a 0320     		movs	r0, #3
 440 010c FFF7FEFF 		bl	ipc_write_data
 441              	.LVL51:
 171:../BLDCMotor/motorctrl.c ****     ipc_write_data(PUBLIC_DATA_IC,i_abc.c);
 442              		.loc 1 171 5 view .LVU109
 443 0110 B0EE680A 		vmov.f32	s0, s17
 444 0114 0420     		movs	r0, #4
 445 0116 FFF7FEFF 		bl	ipc_write_data
 446              	.LVL52:
 172:../BLDCMotor/motorctrl.c ****     ipc_write_data(PUBLIC_DATA_IALPHA,i_alphbeta.alpha);
 447              		.loc 1 172 5 view .LVU110
 448 011a 9DED090A 		vldr.32	s0, [sp, #36]
 449 011e 0520     		movs	r0, #5
 450 0120 FFF7FEFF 		bl	ipc_write_data
 451              	.LVL53:
 173:../BLDCMotor/motorctrl.c ****     ipc_write_data(PUBLIC_DATA_IBETA,i_alphbeta.beta);    
 452              		.loc 1 173 5 view .LVU111
 453 0124 9DED0A0A 		vldr.32	s0, [sp, #40]
 454 0128 0620     		movs	r0, #6
 455 012a FFF7FEFF 		bl	ipc_write_data
 456              	.LVL54:
 174:../BLDCMotor/motorctrl.c ****     ipc_write_data(PUBLIC_DATA_ID,i_dq.d);
 457              		.loc 1 174 5 view .LVU112
 458 012e 9DED0C0A 		vldr.32	s0, [sp, #48]
 459 0132 0720     		movs	r0, #7
 460 0134 FFF7FEFF 		bl	ipc_write_data
 461              	.LVL55:
 175:../BLDCMotor/motorctrl.c ****     ipc_write_data(PUBLIC_DATA_IQ,i_dq.q);
 462              		.loc 1 175 5 view .LVU113
 463 0138 9DED0D0A 		vldr.32	s0, [sp, #52]
 464 013c 0820     		movs	r0, #8
 465 013e FFF7FEFF 		bl	ipc_write_data
 466              	.LVL56:
 176:../BLDCMotor/motorctrl.c ****     return;
 467              		.loc 1 176 5 view .LVU114
 177:../BLDCMotor/motorctrl.c **** }
 468              		.loc 1 177 1 is_stmt 0 view .LVU115
 469 0142 12B0     		add	sp, sp, #72
 470              	.LCFI12:
 471              		.cfi_def_cfa_offset 24
 472              		@ sp needed
 473 0144 BDEC048B 		vldm	sp!, {d8-d9}
 474              	.LCFI13:
 475              		.cfi_restore 82
ARM GAS  C:\Users\ADMINI~1\AppData\Local\Temp\cc0n0WYc.s 			page 13


 476              		.cfi_restore 83
 477              		.cfi_restore 80
 478              		.cfi_restore 81
 479              		.cfi_def_cfa_offset 8
 480              	.LVL57:
 481              		.loc 1 177 1 view .LVU116
 482 0148 10BD     		pop	{r4, pc}
 483              	.L17:
 484 014a 00BF     		.align	2
 485              	.L16:
 486 014c 00400445 		.word	1157906432
 487 0150 5F43B93A 		.word	985219935
 488 0154 00000000 		.word	.LANCHOR2
 489 0158 00000000 		.word	.LANCHOR1
 490 015c DA0FC93F 		.word	1070141402
 491              		.cfi_endproc
 492              	.LFE334:
 494              		.global	g_Motor1
 495              		.section	.bss.g_Motor1,"aw",%nobits
 496              		.align	2
 497              		.set	.LANCHOR0,. + 0
 500              	g_Motor1:
 501 0000 00       		.space	1
 502              		.section	.bss.sg_MecThetaOffset,"aw",%nobits
 503              		.align	2
 504              		.set	.LANCHOR1,. + 0
 507              	sg_MecThetaOffset:
 508 0000 00000000 		.space	4
 509              		.section	.bss.sg_elefilter,"aw",%nobits
 510              		.align	2
 511              		.set	.LANCHOR2,. + 0
 514              	sg_elefilter:
 515 0000 00000000 		.space	24
 515      00000000 
 515      00000000 
 515      00000000 
 515      00000000 
 516              		.text
 517              	.Letext0:
 518              		.file 2 "../Public/./method/filter.h"
 519              		.file 3 "../Public/IPC/ipc.h"
 520              		.file 4 "../Sensor/sensor_cfg.h"
 521              		.file 5 "../Sensor/sensor.h"
 522              		.file 6 "../BLDCMotor/focmethod.h"
 523              		.file 7 "Inc/tim.h"
 524              		.file 8 "Drivers/STM32G4xx_HAL_Driver/Inc/stm32g4xx_hal.h"
 525              		.file 9 "d:\\program files (x86)\\gcc-arm-none-eabi-10-2020-q4-major-win32\\tool\\arm-none-eabi\\i
ARM GAS  C:\Users\ADMINI~1\AppData\Local\Temp\cc0n0WYc.s 			page 14


DEFINED SYMBOLS
                            *ABS*:00000000 motorctrl.c
C:\Users\ADMINI~1\AppData\Local\Temp\cc0n0WYc.s:18     .text._get_angleoffset:00000000 $t
C:\Users\ADMINI~1\AppData\Local\Temp\cc0n0WYc.s:25     .text._get_angleoffset:00000000 _get_angleoffset
C:\Users\ADMINI~1\AppData\Local\Temp\cc0n0WYc.s:102    .text._get_angleoffset:00000054 $d
C:\Users\ADMINI~1\AppData\Local\Temp\cc0n0WYc.s:108    .rodata.motortctrl_process.str1.4:00000000 $d
C:\Users\ADMINI~1\AppData\Local\Temp\cc0n0WYc.s:112    .text.motortctrl_process:00000000 $t
C:\Users\ADMINI~1\AppData\Local\Temp\cc0n0WYc.s:119    .text.motortctrl_process:00000000 motortctrl_process
C:\Users\ADMINI~1\AppData\Local\Temp\cc0n0WYc.s:251    .text.motortctrl_process:00000088 $d
C:\Users\ADMINI~1\AppData\Local\Temp\cc0n0WYc.s:261    .text.motorctrl_foccalc:00000000 $t
C:\Users\ADMINI~1\AppData\Local\Temp\cc0n0WYc.s:268    .text.motorctrl_foccalc:00000000 motorctrl_foccalc
C:\Users\ADMINI~1\AppData\Local\Temp\cc0n0WYc.s:486    .text.motorctrl_foccalc:0000014c $d
C:\Users\ADMINI~1\AppData\Local\Temp\cc0n0WYc.s:500    .bss.g_Motor1:00000000 g_Motor1
C:\Users\ADMINI~1\AppData\Local\Temp\cc0n0WYc.s:496    .bss.g_Motor1:00000000 $d
C:\Users\ADMINI~1\AppData\Local\Temp\cc0n0WYc.s:503    .bss.sg_MecThetaOffset:00000000 $d
C:\Users\ADMINI~1\AppData\Local\Temp\cc0n0WYc.s:507    .bss.sg_MecThetaOffset:00000000 sg_MecThetaOffset
C:\Users\ADMINI~1\AppData\Local\Temp\cc0n0WYc.s:510    .bss.sg_elefilter:00000000 $d
C:\Users\ADMINI~1\AppData\Local\Temp\cc0n0WYc.s:514    .bss.sg_elefilter:00000000 sg_elefilter

UNDEFINED SYMBOLS
motor_enable_noirq
_svpwm
motor_set_pwm
HAL_Delay
sensor_user_read
motor_disable
__aeabi_f2d
printf
lowfilter_init
foc_paraminit
motor_enable
lowfilter_cale
_3s_2s
_2s_2r
_2r_2s
ipc_write_data
