ARM GAS  C:\Users\ADMINI~1\AppData\Local\Temp\ccl64FUZ.s 			page 1


   1              		.cpu cortex-m4
   2              		.eabi_attribute 27, 1
   3              		.eabi_attribute 28, 1
   4              		.eabi_attribute 20, 1
   5              		.eabi_attribute 21, 1
   6              		.eabi_attribute 23, 3
   7              		.eabi_attribute 24, 1
   8              		.eabi_attribute 25, 1
   9              		.eabi_attribute 26, 1
  10              		.eabi_attribute 30, 1
  11              		.eabi_attribute 34, 1
  12              		.eabi_attribute 18, 4
  13              		.file	"motorctrl.c"
  14              		.text
  15              	.Ltext0:
  16              		.cfi_sections	.debug_frame
  17              		.section	.text._get_angleoffset,"ax",%progbits
  18              		.align	1
  19              		.arch armv7e-m
  20              		.syntax unified
  21              		.thumb
  22              		.thumb_func
  23              		.fpu fpv4-sp-d16
  25              	_get_angleoffset:
  26              	.LFB330:
  27              		.file 1 "../BLDCMotor/motorctrl.c"
   1:../BLDCMotor/motorctrl.c **** #include "./motorctrl.h"
   2:../BLDCMotor/motorctrl.c **** #include "debuglog.h"
   3:../BLDCMotor/motorctrl.c **** #include "focmethod.h"
   4:../BLDCMotor/motorctrl.c **** #include "sensor.h"
   5:../BLDCMotor/motorctrl.c **** #define MOTORCTRL_PERCI            (1)
   6:../BLDCMotor/motorctrl.c **** 
   7:../BLDCMotor/motorctrl.c **** enum{
   8:../BLDCMotor/motorctrl.c ****     MOTOR_INIT,
   9:../BLDCMotor/motorctrl.c ****     MOTOR_DIR1,
  10:../BLDCMotor/motorctrl.c ****     MOTOR_DIR2,
  11:../BLDCMotor/motorctrl.c ****     MOTOT_ANGIL,
  12:../BLDCMotor/motorctrl.c ****     MOTOR_IDLE,
  13:../BLDCMotor/motorctrl.c ****     MOTOR_START, 
  14:../BLDCMotor/motorctrl.c ****     MOTOR_RUNING,
  15:../BLDCMotor/motorctrl.c ****     MOTOR_RUNING2,  
  16:../BLDCMotor/motorctrl.c ****     MOTOT_FALT,
  17:../BLDCMotor/motorctrl.c ****     MOTOR_STOP,
  18:../BLDCMotor/motorctrl.c ****     MOTOR_TEST,
  19:../BLDCMotor/motorctrl.c ****     MOTOR_OFFSET,
  20:../BLDCMotor/motorctrl.c **** };
  21:../BLDCMotor/motorctrl.c **** typedef struct
  22:../BLDCMotor/motorctrl.c **** {
  23:../BLDCMotor/motorctrl.c ****     float ia;
  24:../BLDCMotor/motorctrl.c ****     float ib;
  25:../BLDCMotor/motorctrl.c ****     float ic;
  26:../BLDCMotor/motorctrl.c ****     float i_alpha;
  27:../BLDCMotor/motorctrl.c ****     float i_beta;
  28:../BLDCMotor/motorctrl.c ****     float i_d;
  29:../BLDCMotor/motorctrl.c ****     float i_q;
  30:../BLDCMotor/motorctrl.c **** 
  31:../BLDCMotor/motorctrl.c ****     float id_real;
ARM GAS  C:\Users\ADMINI~1\AppData\Local\Temp\ccl64FUZ.s 			page 2


  32:../BLDCMotor/motorctrl.c ****     float iq_targe;
  33:../BLDCMotor/motorctrl.c ****     float iq_real;
  34:../BLDCMotor/motorctrl.c **** 
  35:../BLDCMotor/motorctrl.c ****     float pid_Q_out;
  36:../BLDCMotor/motorctrl.c ****     float pid_D_out;
  37:../BLDCMotor/motorctrl.c ****     float ele_angle;
  38:../BLDCMotor/motorctrl.c **** }motordebug_t;
  39:../BLDCMotor/motorctrl.c **** motordebug_t sg_motordebug;
  40:../BLDCMotor/motorctrl.c **** typedef struct
  41:../BLDCMotor/motorctrl.c **** {
  42:../BLDCMotor/motorctrl.c ****     unsigned char state;
  43:../BLDCMotor/motorctrl.c ****     unsigned short cnt;
  44:../BLDCMotor/motorctrl.c **** }motorctrl_t;
  45:../BLDCMotor/motorctrl.c **** motorctrl_t g_Motor1 = {
  46:../BLDCMotor/motorctrl.c ****     .state = MOTOR_INIT,
  47:../BLDCMotor/motorctrl.c ****     .cnt = 0,
  48:../BLDCMotor/motorctrl.c **** };
  49:../BLDCMotor/motorctrl.c **** static float sg_MecThetaOffset = 0.0f;
  50:../BLDCMotor/motorctrl.c **** 
  51:../BLDCMotor/motorctrl.c **** extern alpbet_t _2r_2s(dq_t i_dq,float theta);
  52:../BLDCMotor/motorctrl.c **** extern void _3s_2s(abc_t i_abc,alpbet_t *alp_bet);
  53:../BLDCMotor/motorctrl.c **** extern void _2s_2r(alpbet_t i_alphabeta,float theta,dq_t *dq);
  54:../BLDCMotor/motorctrl.c **** static lowfilter_t sg_elefilter[3];
  55:../BLDCMotor/motorctrl.c **** static float _get_angleoffset(void);
  56:../BLDCMotor/motorctrl.c **** void motortctrl_process(void)
  57:../BLDCMotor/motorctrl.c **** {
  58:../BLDCMotor/motorctrl.c ****     
  59:../BLDCMotor/motorctrl.c ****     switch (g_Motor1.state)
  60:../BLDCMotor/motorctrl.c ****     {
  61:../BLDCMotor/motorctrl.c ****     case MOTOR_INIT:
  62:../BLDCMotor/motorctrl.c ****         for (unsigned char  i = 0; i < 10; i++)
  63:../BLDCMotor/motorctrl.c ****         {
  64:../BLDCMotor/motorctrl.c ****             float theta = 100.0f;
  65:../BLDCMotor/motorctrl.c ****             theta = (*(sensor_data_t*)sensor_user_read(SENSOR_01)).cov_data;            
  66:../BLDCMotor/motorctrl.c ****         }
  67:../BLDCMotor/motorctrl.c ****         sg_MecThetaOffset = _get_angleoffset();
  68:../BLDCMotor/motorctrl.c ****         /*-----电流滤波器初始化-------*/
  69:../BLDCMotor/motorctrl.c ****         lowfilter_init(&sg_elefilter[0],80);
  70:../BLDCMotor/motorctrl.c ****         lowfilter_init(&sg_elefilter[1],80);
  71:../BLDCMotor/motorctrl.c ****         lowfilter_init(&sg_elefilter[2],80);
  72:../BLDCMotor/motorctrl.c **** 
  73:../BLDCMotor/motorctrl.c ****         /*------PID参数初始化---------*/
  74:../BLDCMotor/motorctrl.c ****         foc_paraminit();
  75:../BLDCMotor/motorctrl.c ****         sg_motordebug.iq_targe = 2.0f;
  76:../BLDCMotor/motorctrl.c ****         motor_enable();
  77:../BLDCMotor/motorctrl.c ****         g_Motor1.state = MOTOR_RUNING;           
  78:../BLDCMotor/motorctrl.c ****         break;
  79:../BLDCMotor/motorctrl.c **** 
  80:../BLDCMotor/motorctrl.c ****     case MOTOR_TEST:
  81:../BLDCMotor/motorctrl.c **** 
  82:../BLDCMotor/motorctrl.c ****         break;
  83:../BLDCMotor/motorctrl.c **** 
  84:../BLDCMotor/motorctrl.c ****     case MOTOR_RUNING:
  85:../BLDCMotor/motorctrl.c ****         {
  86:../BLDCMotor/motorctrl.c ****             if (!(++g_Motor1.cnt % 5000))
  87:../BLDCMotor/motorctrl.c ****             {
  88:../BLDCMotor/motorctrl.c ****                 /* code */
ARM GAS  C:\Users\ADMINI~1\AppData\Local\Temp\ccl64FUZ.s 			page 3


  89:../BLDCMotor/motorctrl.c ****                 // g_Motor1.state = MOTOR_STOP;
  90:../BLDCMotor/motorctrl.c ****             }
  91:../BLDCMotor/motorctrl.c ****         }
  92:../BLDCMotor/motorctrl.c ****         break;
  93:../BLDCMotor/motorctrl.c ****     case MOTOR_STOP:
  94:../BLDCMotor/motorctrl.c ****         motor_disable();
  95:../BLDCMotor/motorctrl.c ****         break;
  96:../BLDCMotor/motorctrl.c ****     default:
  97:../BLDCMotor/motorctrl.c ****         break;
  98:../BLDCMotor/motorctrl.c ****     }
  99:../BLDCMotor/motorctrl.c **** }
 100:../BLDCMotor/motorctrl.c **** 
 101:../BLDCMotor/motorctrl.c **** static float _get_angleoffset(void)
 102:../BLDCMotor/motorctrl.c **** {
  28              		.loc 1 102 1 view -0
  29              		.cfi_startproc
  30              		@ args = 0, pretend = 0, frame = 24
  31              		@ frame_needed = 0, uses_anonymous_args = 0
  32 0000 10B5     		push	{r4, lr}
  33              	.LCFI0:
  34              		.cfi_def_cfa_offset 8
  35              		.cfi_offset 4, -8
  36              		.cfi_offset 14, -4
  37 0002 2DED028B 		vpush.64	{d8}
  38              	.LCFI1:
  39              		.cfi_def_cfa_offset 16
  40              		.cfi_offset 80, -16
  41              		.cfi_offset 81, -12
  42 0006 86B0     		sub	sp, sp, #24
  43              	.LCFI2:
  44              		.cfi_def_cfa_offset 40
 103:../BLDCMotor/motorctrl.c ****     motor_enable_noirq();
  45              		.loc 1 103 5 view .LVU1
  46 0008 FFF7FEFF 		bl	motor_enable_noirq
  47              	.LVL0:
 104:../BLDCMotor/motorctrl.c ****     /*-----------设置alpha/beta坐标系------------------*/
 105:../BLDCMotor/motorctrl.c ****     alpbet_t uab = {1.0f,0.0f};
  48              		.loc 1 105 5 view .LVU2
  49              		.loc 1 105 14 is_stmt 0 view .LVU3
  50 000c 0024     		movs	r4, #0
  51 000e 0394     		str	r4, [sp, #12]
  52 0010 0494     		str	r4, [sp, #16]
  53 0012 0594     		str	r4, [sp, #20]
  54 0014 B7EE000A 		vmov.f32	s0, #1.0e+0
  55 0018 8DED030A 		vstr.32	s0, [sp, #12]
 106:../BLDCMotor/motorctrl.c ****     duty_t dut01;
  56              		.loc 1 106 5 is_stmt 1 view .LVU4
 107:../BLDCMotor/motorctrl.c ****     float theta;
  57              		.loc 1 107 5 view .LVU5
 108:../BLDCMotor/motorctrl.c ****     dut01 = _svpwm(uab.alpha,uab.beta);
  58              		.loc 1 108 5 view .LVU6
  59              		.loc 1 108 13 is_stmt 0 view .LVU7
  60 001c DFED0D0A 		vldr.32	s1, .L3
  61 0020 FFF7FEFF 		bl	_svpwm
  62              	.LVL1:
  63 0024 8DED000A 		vstr.32	s0, [sp]
  64 0028 CDED010A 		vstr.32	s1, [sp, #4]
ARM GAS  C:\Users\ADMINI~1\AppData\Local\Temp\ccl64FUZ.s 			page 4


  65 002c 8DED021A 		vstr.32	s2, [sp, #8]
 109:../BLDCMotor/motorctrl.c ****     motor_set_pwm(dut01._a,dut01._b,dut01._c);
  66              		.loc 1 109 5 is_stmt 1 view .LVU8
  67 0030 FFF7FEFF 		bl	motor_set_pwm
  68              	.LVL2:
 110:../BLDCMotor/motorctrl.c ****     HAL_Delay(200);
  69              		.loc 1 110 5 view .LVU9
  70 0034 C820     		movs	r0, #200
  71 0036 FFF7FEFF 		bl	HAL_Delay
  72              	.LVL3:
 111:../BLDCMotor/motorctrl.c ****     theta = (*(sensor_data_t*)sensor_user_read(SENSOR_01)).cov_data;
  73              		.loc 1 111 5 view .LVU10
  74              		.loc 1 111 31 is_stmt 0 view .LVU11
  75 003a 2046     		mov	r0, r4
  76 003c FFF7FEFF 		bl	sensor_user_read
  77              	.LVL4:
  78              		.loc 1 111 11 view .LVU12
  79 0040 90ED018A 		vldr.32	s16, [r0, #4]
  80              	.LVL5:
 112:../BLDCMotor/motorctrl.c ****     motor_disable();
  81              		.loc 1 112 5 is_stmt 1 view .LVU13
  82 0044 FFF7FEFF 		bl	motor_disable
  83              	.LVL6:
 113:../BLDCMotor/motorctrl.c ****     return theta;
  84              		.loc 1 113 5 view .LVU14
 114:../BLDCMotor/motorctrl.c **** }
  85              		.loc 1 114 1 is_stmt 0 view .LVU15
  86 0048 B0EE480A 		vmov.f32	s0, s16
  87 004c 06B0     		add	sp, sp, #24
  88              	.LCFI3:
  89              		.cfi_def_cfa_offset 16
  90              		@ sp needed
  91 004e BDEC028B 		vldm	sp!, {d8}
  92              	.LCFI4:
  93              		.cfi_restore 80
  94              		.cfi_restore 81
  95              		.cfi_def_cfa_offset 8
  96              	.LVL7:
  97              		.loc 1 114 1 view .LVU16
  98 0052 10BD     		pop	{r4, pc}
  99              	.L4:
 100              		.align	2
 101              	.L3:
 102 0054 00000000 		.word	0
 103              		.cfi_endproc
 104              	.LFE330:
 106              		.section	.text.motortctrl_process,"ax",%progbits
 107              		.align	1
 108              		.global	motortctrl_process
 109              		.syntax unified
 110              		.thumb
 111              		.thumb_func
 112              		.fpu fpv4-sp-d16
 114              	motortctrl_process:
 115              	.LFB329:
  57:../BLDCMotor/motorctrl.c ****     
 116              		.loc 1 57 1 is_stmt 1 view -0
ARM GAS  C:\Users\ADMINI~1\AppData\Local\Temp\ccl64FUZ.s 			page 5


 117              		.cfi_startproc
 118              		@ args = 0, pretend = 0, frame = 0
 119              		@ frame_needed = 0, uses_anonymous_args = 0
 120 0000 10B5     		push	{r4, lr}
 121              	.LCFI5:
 122              		.cfi_def_cfa_offset 8
 123              		.cfi_offset 4, -8
 124              		.cfi_offset 14, -4
 125 0002 2DED028B 		vpush.64	{d8}
 126              	.LCFI6:
 127              		.cfi_def_cfa_offset 16
 128              		.cfi_offset 80, -16
 129              		.cfi_offset 81, -12
  59:../BLDCMotor/motorctrl.c ****     {
 130              		.loc 1 59 5 view .LVU18
  59:../BLDCMotor/motorctrl.c ****     {
 131              		.loc 1 59 21 is_stmt 0 view .LVU19
 132 0006 1F4B     		ldr	r3, .L12
 133 0008 1C78     		ldrb	r4, [r3]	@ zero_extendqisi2
  59:../BLDCMotor/motorctrl.c ****     {
 134              		.loc 1 59 5 view .LVU20
 135 000a 062C     		cmp	r4, #6
 136 000c 31D0     		beq	.L6
 137 000e 092C     		cmp	r4, #9
 138 0010 34D0     		beq	.L7
 139 0012 3CB1     		cbz	r4, .L8
 140              	.L5:
  99:../BLDCMotor/motorctrl.c **** 
 141              		.loc 1 99 1 view .LVU21
 142 0014 BDEC028B 		vldm	sp!, {d8}
 143              	.LCFI7:
 144              		.cfi_remember_state
 145              		.cfi_restore 80
 146              		.cfi_restore 81
 147              		.cfi_def_cfa_offset 8
 148 0018 10BD     		pop	{r4, pc}
 149              	.LVL8:
 150              	.L10:
 151              	.LCFI8:
 152              		.cfi_restore_state
 153              	.LBB2:
 154              	.LBB3:
  64:../BLDCMotor/motorctrl.c ****             theta = (*(sensor_data_t*)sensor_user_read(SENSOR_01)).cov_data;            
 155              		.loc 1 64 13 is_stmt 1 discriminator 3 view .LVU22
  65:../BLDCMotor/motorctrl.c ****         }
 156              		.loc 1 65 13 discriminator 3 view .LVU23
  65:../BLDCMotor/motorctrl.c ****         }
 157              		.loc 1 65 39 is_stmt 0 discriminator 3 view .LVU24
 158 001a 0020     		movs	r0, #0
 159 001c FFF7FEFF 		bl	sensor_user_read
 160              	.LVL9:
  65:../BLDCMotor/motorctrl.c ****         }
 161              		.loc 1 65 39 discriminator 3 view .LVU25
 162              	.LBE3:
  62:../BLDCMotor/motorctrl.c ****         {
 163              		.loc 1 62 44 is_stmt 1 discriminator 3 view .LVU26
  62:../BLDCMotor/motorctrl.c ****         {
ARM GAS  C:\Users\ADMINI~1\AppData\Local\Temp\ccl64FUZ.s 			page 6


 164              		.loc 1 62 45 is_stmt 0 discriminator 3 view .LVU27
 165 0020 0134     		adds	r4, r4, #1
 166              	.LVL10:
  62:../BLDCMotor/motorctrl.c ****         {
 167              		.loc 1 62 45 discriminator 3 view .LVU28
 168 0022 E4B2     		uxtb	r4, r4
 169              	.LVL11:
 170              	.L8:
  62:../BLDCMotor/motorctrl.c ****         {
 171              		.loc 1 62 36 is_stmt 1 discriminator 1 view .LVU29
  62:../BLDCMotor/motorctrl.c ****         {
 172              		.loc 1 62 9 is_stmt 0 discriminator 1 view .LVU30
 173 0024 092C     		cmp	r4, #9
 174 0026 F8D9     		bls	.L10
 175              	.LBE2:
  67:../BLDCMotor/motorctrl.c ****         /*-----电流滤波器初始化-------*/
 176              		.loc 1 67 9 is_stmt 1 view .LVU31
  67:../BLDCMotor/motorctrl.c ****         /*-----电流滤波器初始化-------*/
 177              		.loc 1 67 29 is_stmt 0 view .LVU32
 178 0028 FFF7FEFF 		bl	_get_angleoffset
 179              	.LVL12:
  67:../BLDCMotor/motorctrl.c ****         /*-----电流滤波器初始化-------*/
 180              		.loc 1 67 27 view .LVU33
 181 002c 164B     		ldr	r3, .L12+4
 182 002e 83ED000A 		vstr.32	s0, [r3]
  69:../BLDCMotor/motorctrl.c ****         lowfilter_init(&sg_elefilter[1],80);
 183              		.loc 1 69 9 is_stmt 1 view .LVU34
 184 0032 9FED168A 		vldr.32	s16, .L12+8
 185 0036 164C     		ldr	r4, .L12+12
 186              	.LVL13:
  69:../BLDCMotor/motorctrl.c ****         lowfilter_init(&sg_elefilter[1],80);
 187              		.loc 1 69 9 is_stmt 0 view .LVU35
 188 0038 B0EE480A 		vmov.f32	s0, s16
 189 003c 2046     		mov	r0, r4
 190 003e FFF7FEFF 		bl	lowfilter_init
 191              	.LVL14:
  70:../BLDCMotor/motorctrl.c ****         lowfilter_init(&sg_elefilter[2],80);
 192              		.loc 1 70 9 is_stmt 1 view .LVU36
 193 0042 B0EE480A 		vmov.f32	s0, s16
 194 0046 04F10800 		add	r0, r4, #8
 195 004a FFF7FEFF 		bl	lowfilter_init
 196              	.LVL15:
  71:../BLDCMotor/motorctrl.c **** 
 197              		.loc 1 71 9 view .LVU37
 198 004e B0EE480A 		vmov.f32	s0, s16
 199 0052 04F11000 		add	r0, r4, #16
 200 0056 FFF7FEFF 		bl	lowfilter_init
 201              	.LVL16:
  74:../BLDCMotor/motorctrl.c ****         sg_motordebug.iq_targe = 2.0f;
 202              		.loc 1 74 9 view .LVU38
 203 005a FFF7FEFF 		bl	foc_paraminit
 204              	.LVL17:
  75:../BLDCMotor/motorctrl.c ****         motor_enable();
 205              		.loc 1 75 9 view .LVU39
  75:../BLDCMotor/motorctrl.c ****         motor_enable();
 206              		.loc 1 75 32 is_stmt 0 view .LVU40
 207 005e 0D4B     		ldr	r3, .L12+16
ARM GAS  C:\Users\ADMINI~1\AppData\Local\Temp\ccl64FUZ.s 			page 7


 208 0060 4FF08042 		mov	r2, #1073741824
 209 0064 1A62     		str	r2, [r3, #32]	@ float
  76:../BLDCMotor/motorctrl.c ****         g_Motor1.state = MOTOR_RUNING;           
 210              		.loc 1 76 9 is_stmt 1 view .LVU41
 211 0066 FFF7FEFF 		bl	motor_enable
 212              	.LVL18:
  77:../BLDCMotor/motorctrl.c ****         break;
 213              		.loc 1 77 9 view .LVU42
  77:../BLDCMotor/motorctrl.c ****         break;
 214              		.loc 1 77 24 is_stmt 0 view .LVU43
 215 006a 064B     		ldr	r3, .L12
 216 006c 0622     		movs	r2, #6
 217 006e 1A70     		strb	r2, [r3]
  78:../BLDCMotor/motorctrl.c **** 
 218              		.loc 1 78 9 is_stmt 1 view .LVU44
 219 0070 D0E7     		b	.L5
 220              	.L6:
  86:../BLDCMotor/motorctrl.c ****             {
 221              		.loc 1 86 13 view .LVU45
  86:../BLDCMotor/motorctrl.c ****             {
 222              		.loc 1 86 29 is_stmt 0 view .LVU46
 223 0072 044A     		ldr	r2, .L12
 224 0074 5388     		ldrh	r3, [r2, #2]
  86:../BLDCMotor/motorctrl.c ****             {
 225              		.loc 1 86 19 view .LVU47
 226 0076 0133     		adds	r3, r3, #1
  86:../BLDCMotor/motorctrl.c ****             {
 227              		.loc 1 86 16 view .LVU48
 228 0078 5380     		strh	r3, [r2, #2]	@ movhi
  90:../BLDCMotor/motorctrl.c ****         }
 229              		.loc 1 90 13 is_stmt 1 view .LVU49
  92:../BLDCMotor/motorctrl.c ****     case MOTOR_STOP:
 230              		.loc 1 92 9 view .LVU50
 231 007a CBE7     		b	.L5
 232              	.L7:
  94:../BLDCMotor/motorctrl.c ****         break;
 233              		.loc 1 94 9 view .LVU51
 234 007c FFF7FEFF 		bl	motor_disable
 235              	.LVL19:
  95:../BLDCMotor/motorctrl.c ****     default:
 236              		.loc 1 95 9 view .LVU52
  99:../BLDCMotor/motorctrl.c **** 
 237              		.loc 1 99 1 is_stmt 0 view .LVU53
 238 0080 C8E7     		b	.L5
 239              	.L13:
 240 0082 00BF     		.align	2
 241              	.L12:
 242 0084 00000000 		.word	.LANCHOR0
 243 0088 00000000 		.word	.LANCHOR1
 244 008c 0000A042 		.word	1117782016
 245 0090 00000000 		.word	.LANCHOR2
 246 0094 00000000 		.word	.LANCHOR3
 247              		.cfi_endproc
 248              	.LFE329:
 250              		.section	.text.motorctrl_foccalc,"ax",%progbits
 251              		.align	1
 252              		.global	motorctrl_foccalc
ARM GAS  C:\Users\ADMINI~1\AppData\Local\Temp\ccl64FUZ.s 			page 8


 253              		.syntax unified
 254              		.thumb
 255              		.thumb_func
 256              		.fpu fpv4-sp-d16
 258              	motorctrl_foccalc:
 259              	.LVL20:
 260              	.LFB331:
 115:../BLDCMotor/motorctrl.c **** /*------------周期性被调用----------------*/
 116:../BLDCMotor/motorctrl.c **** 
 117:../BLDCMotor/motorctrl.c **** extern  pid_cb_t *sgp_curloop_d_pid;
 118:../BLDCMotor/motorctrl.c **** extern pid_cb_t *sgp_curloop_q_pid;
 119:../BLDCMotor/motorctrl.c **** float AAAAAA;
 120:../BLDCMotor/motorctrl.c **** void motorctrl_foccalc(unsigned int *abc_vale,float _elec_theta)
 121:../BLDCMotor/motorctrl.c **** {
 261              		.loc 1 121 1 is_stmt 1 view -0
 262              		.cfi_startproc
 263              		@ args = 0, pretend = 0, frame = 72
 264              		@ frame_needed = 0, uses_anonymous_args = 0
 265              		.loc 1 121 1 is_stmt 0 view .LVU55
 266 0000 10B5     		push	{r4, lr}
 267              	.LCFI9:
 268              		.cfi_def_cfa_offset 8
 269              		.cfi_offset 4, -8
 270              		.cfi_offset 14, -4
 271 0002 2DED048B 		vpush.64	{d8, d9}
 272              	.LCFI10:
 273              		.cfi_def_cfa_offset 24
 274              		.cfi_offset 80, -24
 275              		.cfi_offset 81, -20
 276              		.cfi_offset 82, -16
 277              		.cfi_offset 83, -12
 278 0006 92B0     		sub	sp, sp, #72
 279              	.LCFI11:
 280              		.cfi_def_cfa_offset 96
 122:../BLDCMotor/motorctrl.c **** /*----------------三相电流处理------------------------------*/    
 123:../BLDCMotor/motorctrl.c ****     float Ia,Ib,Ic;    
 281              		.loc 1 123 5 is_stmt 1 view .LVU56
 124:../BLDCMotor/motorctrl.c ****     float a1,a2,a3;
 282              		.loc 1 124 5 view .LVU57
 125:../BLDCMotor/motorctrl.c ****     a1 = (float)abc_vale[0] - AD_OFFSET;
 283              		.loc 1 125 5 view .LVU58
 284              		.loc 1 125 10 is_stmt 0 view .LVU59
 285 0008 D0ED007A 		vldr.32	s15, [r0]	@ int
 286 000c F8EE677A 		vcvt.f32.u32	s15, s15
 287              		.loc 1 125 8 view .LVU60
 288 0010 9FED5C7A 		vldr.32	s14, .L16
 289 0014 77EEC77A 		vsub.f32	s15, s15, s14
 290              	.LVL21:
 126:../BLDCMotor/motorctrl.c ****     a2 = (float)abc_vale[2] - AD_OFFSET;
 291              		.loc 1 126 5 is_stmt 1 view .LVU61
 292              		.loc 1 126 10 is_stmt 0 view .LVU62
 293 0018 D0ED026A 		vldr.32	s13, [r0, #8]	@ int
 294 001c F8EE668A 		vcvt.f32.u32	s17, s13
 295              		.loc 1 126 8 view .LVU63
 296 0020 78EEC78A 		vsub.f32	s17, s17, s14
 297              	.LVL22:
 127:../BLDCMotor/motorctrl.c ****     a3 = (float)abc_vale[1] - AD_OFFSET;  
ARM GAS  C:\Users\ADMINI~1\AppData\Local\Temp\ccl64FUZ.s 			page 9


 298              		.loc 1 127 5 is_stmt 1 view .LVU64
 299              		.loc 1 127 25 is_stmt 0 view .LVU65
 300 0024 90ED018A 		vldr.32	s16, [r0, #4]	@ int
 301              		.loc 1 127 10 view .LVU66
 302 0028 B8EE488A 		vcvt.f32.u32	s16, s16
 303              		.loc 1 127 8 view .LVU67
 304 002c 38EE478A 		vsub.f32	s16, s16, s14
 305              	.LVL23:
 128:../BLDCMotor/motorctrl.c ****     Ia = (float)a1*(float)(3.3f/4096.0f/RA_S/BETA_);
 306              		.loc 1 128 5 is_stmt 1 view .LVU68
 307              		.loc 1 128 8 is_stmt 0 view .LVU69
 308 0030 9FED550A 		vldr.32	s0, .L16+4
 309              	.LVL24:
 129:../BLDCMotor/motorctrl.c ****     Ib = (float)a2*(float)(3.3f/4096.0f/RB_S/BETA_);
 310              		.loc 1 129 5 is_stmt 1 view .LVU70
 311              		.loc 1 129 8 is_stmt 0 view .LVU71
 312 0034 68EE808A 		vmul.f32	s17, s17, s0
 313              	.LVL25:
 130:../BLDCMotor/motorctrl.c ****     Ic = (float)a3*(float)(3.3f/4096.0f/RC_S/BETA_);
 314              		.loc 1 130 5 is_stmt 1 view .LVU72
 315              		.loc 1 130 8 is_stmt 0 view .LVU73
 316 0038 28EE008A 		vmul.f32	s16, s16, s0
 317              	.LVL26:
 131:../BLDCMotor/motorctrl.c **** #if 1
 132:../BLDCMotor/motorctrl.c ****     abc_t i_abc;
 318              		.loc 1 132 5 is_stmt 1 view .LVU74
 133:../BLDCMotor/motorctrl.c ****     i_abc.a = lowfilter_cale(&sg_elefilter[0],Ia);
 319              		.loc 1 133 5 view .LVU75
 320              		.loc 1 133 15 is_stmt 0 view .LVU76
 321 003c 534C     		ldr	r4, .L16+8
 322 003e 27EE800A 		vmul.f32	s0, s15, s0
 323              	.LVL27:
 324              		.loc 1 133 15 view .LVU77
 325 0042 2046     		mov	r0, r4
 326              	.LVL28:
 327              		.loc 1 133 15 view .LVU78
 328 0044 FFF7FEFF 		bl	lowfilter_cale
 329              	.LVL29:
 330              		.loc 1 133 15 view .LVU79
 331 0048 F0EE409A 		vmov.f32	s19, s0
 332              		.loc 1 133 13 view .LVU80
 333 004c 8DED0F0A 		vstr.32	s0, [sp, #60]
 134:../BLDCMotor/motorctrl.c ****     i_abc.b = lowfilter_cale(&sg_elefilter[1],Ib);
 334              		.loc 1 134 5 is_stmt 1 view .LVU81
 335              		.loc 1 134 15 is_stmt 0 view .LVU82
 336 0050 B0EE680A 		vmov.f32	s0, s17
 337 0054 04F10800 		add	r0, r4, #8
 338 0058 FFF7FEFF 		bl	lowfilter_cale
 339              	.LVL30:
 340 005c B0EE409A 		vmov.f32	s18, s0
 341              		.loc 1 134 13 view .LVU83
 342 0060 8DED100A 		vstr.32	s0, [sp, #64]
 135:../BLDCMotor/motorctrl.c ****     i_abc.c = lowfilter_cale(&sg_elefilter[2],Ic);
 343              		.loc 1 135 5 is_stmt 1 view .LVU84
 344              		.loc 1 135 15 is_stmt 0 view .LVU85
 345 0064 B0EE480A 		vmov.f32	s0, s16
 346 0068 04F11000 		add	r0, r4, #16
ARM GAS  C:\Users\ADMINI~1\AppData\Local\Temp\ccl64FUZ.s 			page 10


 347 006c FFF7FEFF 		bl	lowfilter_cale
 348              	.LVL31:
 349 0070 F0EE408A 		vmov.f32	s17, s0
 350              	.LVL32:
 351              		.loc 1 135 13 view .LVU86
 352 0074 8DED110A 		vstr.32	s0, [sp, #68]
 136:../BLDCMotor/motorctrl.c **** #else
 137:../BLDCMotor/motorctrl.c ****     abc_t i_abc;
 138:../BLDCMotor/motorctrl.c ****     i_abc.a = Ia;
 139:../BLDCMotor/motorctrl.c ****     i_abc.b = Ib;
 140:../BLDCMotor/motorctrl.c ****     i_abc.c = Ic;
 141:../BLDCMotor/motorctrl.c **** #endif
 142:../BLDCMotor/motorctrl.c **** 
 143:../BLDCMotor/motorctrl.c **** /*---------------------获取当前转子角度-------------------------*/
 144:../BLDCMotor/motorctrl.c ****     float mech_theta,elec_theta;
 353              		.loc 1 144 5 is_stmt 1 view .LVU87
 145:../BLDCMotor/motorctrl.c ****     static float pre_elec_theta = 0.0f;
 354              		.loc 1 145 5 view .LVU88
 146:../BLDCMotor/motorctrl.c ****     mech_theta = (*(sensor_data_t*)sensor_user_read(SENSOR_01)).cov_data - sg_MecThetaOffset;
 355              		.loc 1 146 5 view .LVU89
 356              		.loc 1 146 36 is_stmt 0 view .LVU90
 357 0078 0020     		movs	r0, #0
 358 007a FFF7FEFF 		bl	sensor_user_read
 359              	.LVL33:
 360              		.loc 1 146 64 view .LVU91
 361 007e 90ED010A 		vldr.32	s0, [r0, #4]
 362              		.loc 1 146 74 view .LVU92
 363 0082 434B     		ldr	r3, .L16+12
 364 0084 D3ED007A 		vldr.32	s15, [r3]
 365              		.loc 1 146 16 view .LVU93
 366 0088 30EE670A 		vsub.f32	s0, s0, s15
 367              	.LVL34:
 147:../BLDCMotor/motorctrl.c ****     
 148:../BLDCMotor/motorctrl.c ****     elec_theta = (mech_theta) * MOTOR_PAIR;    
 368              		.loc 1 148 5 is_stmt 1 view .LVU94
 149:../BLDCMotor/motorctrl.c ****     elec_theta = _normalize_angle(elec_theta);
 369              		.loc 1 149 5 view .LVU95
 370              		.loc 1 149 18 is_stmt 0 view .LVU96
 371 008c 30EE000A 		vadd.f32	s0, s0, s0
 372              	.LVL35:
 373              		.loc 1 149 18 view .LVU97
 374 0090 FFF7FEFF 		bl	_normalize_angle
 375              	.LVL36:
 376              		.loc 1 149 18 view .LVU98
 377 0094 B0EE408A 		vmov.f32	s16, s0
 378              	.LVL37:
 150:../BLDCMotor/motorctrl.c ****     sg_motordebug.ele_angle = elec_theta;
 379              		.loc 1 150 5 is_stmt 1 view .LVU99
 380              		.loc 1 150 29 is_stmt 0 view .LVU100
 381 0098 3E4C     		ldr	r4, .L16+16
 382 009a 84ED0C0A 		vstr.32	s0, [r4, #48]
 151:../BLDCMotor/motorctrl.c ****     /*--------------对电流进行反park变化-----------------------*/
 152:../BLDCMotor/motorctrl.c ****     // i_abc.a = cosf(elec_theta);
 153:../BLDCMotor/motorctrl.c ****     // i_abc.b = cosf(elec_theta - 2.0/3.0f*PI);
 154:../BLDCMotor/motorctrl.c ****     // i_abc.c = cosf(elec_theta + 2.0/3.0f*PI);
 155:../BLDCMotor/motorctrl.c ****     dq_t i_dq;
 383              		.loc 1 155 5 is_stmt 1 view .LVU101
ARM GAS  C:\Users\ADMINI~1\AppData\Local\Temp\ccl64FUZ.s 			page 11


 156:../BLDCMotor/motorctrl.c ****     alpbet_t i_alphbeta;    
 384              		.loc 1 156 5 view .LVU102
 157:../BLDCMotor/motorctrl.c ****     _3s_2s(i_abc,&i_alphbeta);
 385              		.loc 1 157 5 view .LVU103
 386 009e 09A8     		add	r0, sp, #36
 387 00a0 9DED0F0A 		vldr.32	s0, [sp, #60]
 388              	.LVL38:
 389              		.loc 1 157 5 is_stmt 0 view .LVU104
 390 00a4 DDED100A 		vldr.32	s1, [sp, #64]
 391 00a8 9DED111A 		vldr.32	s2, [sp, #68]
 392 00ac FFF7FEFF 		bl	_3s_2s
 393              	.LVL39:
 158:../BLDCMotor/motorctrl.c ****     _2s_2r(i_alphbeta,elec_theta - PI/2.0F,&i_dq);
 394              		.loc 1 158 5 is_stmt 1 view .LVU105
 395 00b0 0CA8     		add	r0, sp, #48
 396 00b2 DFED391A 		vldr.32	s3, .L16+20
 397 00b6 78EE611A 		vsub.f32	s3, s16, s3
 398 00ba 9DED090A 		vldr.32	s0, [sp, #36]
 399 00be DDED0A0A 		vldr.32	s1, [sp, #40]
 400 00c2 9DED0B1A 		vldr.32	s2, [sp, #44]
 401 00c6 FFF7FEFF 		bl	_2s_2r
 402              	.LVL40:
 159:../BLDCMotor/motorctrl.c ****     sg_motordebug.id_real = i_dq.d *1000;
 403              		.loc 1 159 5 view .LVU106
 404              		.loc 1 159 36 is_stmt 0 view .LVU107
 405 00ca DFED346A 		vldr.32	s13, .L16+24
 406 00ce 9DED0C7A 		vldr.32	s14, [sp, #48]
 407 00d2 27EE267A 		vmul.f32	s14, s14, s13
 408              		.loc 1 159 27 view .LVU108
 409 00d6 84ED077A 		vstr.32	s14, [r4, #28]
 160:../BLDCMotor/motorctrl.c ****     sg_motordebug.iq_real = i_dq.q *1000;
 410              		.loc 1 160 5 is_stmt 1 view .LVU109
 411              		.loc 1 160 33 is_stmt 0 view .LVU110
 412 00da DDED0D7A 		vldr.32	s15, [sp, #52]
 413              		.loc 1 160 36 view .LVU111
 414 00de 67EEA67A 		vmul.f32	s15, s15, s13
 415              		.loc 1 160 27 view .LVU112
 416 00e2 C4ED097A 		vstr.32	s15, [r4, #36]
 161:../BLDCMotor/motorctrl.c **** 
 162:../BLDCMotor/motorctrl.c **** #if 1
 163:../BLDCMotor/motorctrl.c **** /*-------------------闭环控制-----------------------*/
 164:../BLDCMotor/motorctrl.c ****     dq_t u_dq = {0.0f,2.0f};
 417              		.loc 1 164 5 is_stmt 1 view .LVU113
 418              		.loc 1 164 10 is_stmt 0 view .LVU114
 419 00e6 0023     		movs	r3, #0
 420 00e8 0693     		str	r3, [sp, #24]
 421 00ea 0793     		str	r3, [sp, #28]
 422 00ec 0893     		str	r3, [sp, #32]
 423 00ee F0EE000A 		vmov.f32	s1, #2.0e+0
 424 00f2 CDED070A 		vstr.32	s1, [sp, #28]
 165:../BLDCMotor/motorctrl.c ****     // u_dq.d = pid_contrl(sgp_curloop_d_pid,0.0f,i_dq.d);
 166:../BLDCMotor/motorctrl.c ****     // u_dq.q = pid_contrl(sgp_curloop_q_pid,sg_motordebug.iq_targe,i_dq.q);
 167:../BLDCMotor/motorctrl.c ****     sg_motordebug.pid_Q_out = u_dq.q;
 425              		.loc 1 167 5 is_stmt 1 view .LVU115
 426              		.loc 1 167 29 is_stmt 0 view .LVU116
 427 00f6 C4ED0A0A 		vstr.32	s1, [r4, #40]
 168:../BLDCMotor/motorctrl.c ****     sg_motordebug.pid_D_out = u_dq.d;
ARM GAS  C:\Users\ADMINI~1\AppData\Local\Temp\ccl64FUZ.s 			page 12


 428              		.loc 1 168 5 is_stmt 1 view .LVU117
 429              		.loc 1 168 29 is_stmt 0 view .LVU118
 430 00fa 0023     		movs	r3, #0
 431 00fc E362     		str	r3, [r4, #44]	@ float
 169:../BLDCMotor/motorctrl.c ****     alpbet_t uab;
 432              		.loc 1 169 5 is_stmt 1 view .LVU119
 170:../BLDCMotor/motorctrl.c ****     uab = _2r_2s(u_dq, elec_theta);
 433              		.loc 1 170 5 view .LVU120
 434              		.loc 1 170 11 is_stmt 0 view .LVU121
 435 00fe F0EE481A 		vmov.f32	s3, s16
 436 0102 9DED060A 		vldr.32	s0, [sp, #24]
 437 0106 9DED081A 		vldr.32	s2, [sp, #32]
 438 010a FFF7FEFF 		bl	_2r_2s
 439              	.LVL41:
 440 010e 8DED030A 		vstr.32	s0, [sp, #12]
 441 0112 CDED040A 		vstr.32	s1, [sp, #16]
 442 0116 8DED051A 		vstr.32	s2, [sp, #20]
 171:../BLDCMotor/motorctrl.c ****     pre_elec_theta = elec_theta;
 443              		.loc 1 171 5 is_stmt 1 view .LVU122
 444              		.loc 1 171 20 is_stmt 0 view .LVU123
 445 011a 214B     		ldr	r3, .L16+28
 446 011c 83ED008A 		vstr.32	s16, [r3]
 172:../BLDCMotor/motorctrl.c ****     duty_t dut01;
 447              		.loc 1 172 5 is_stmt 1 view .LVU124
 173:../BLDCMotor/motorctrl.c ****     dut01 = _svpwm(uab.alpha,uab.beta);
 448              		.loc 1 173 5 view .LVU125
 449              		.loc 1 173 13 is_stmt 0 view .LVU126
 450 0120 FFF7FEFF 		bl	_svpwm
 451              	.LVL42:
 452 0124 8DED000A 		vstr.32	s0, [sp]
 453 0128 CDED010A 		vstr.32	s1, [sp, #4]
 454 012c 8DED021A 		vstr.32	s2, [sp, #8]
 174:../BLDCMotor/motorctrl.c ****     motor_set_pwm(dut01._a,dut01._b,dut01._c);
 455              		.loc 1 174 5 is_stmt 1 view .LVU127
 456 0130 FFF7FEFF 		bl	motor_set_pwm
 457              	.LVL43:
 175:../BLDCMotor/motorctrl.c **** #else
 176:../BLDCMotor/motorctrl.c **** /*------------------------
 177:../BLDCMotor/motorctrl.c **** 开环控制
 178:../BLDCMotor/motorctrl.c **** 100us调用匹配参数  
 179:../BLDCMotor/motorctrl.c ****     42BLDC  theta += 0.004f;  uq = 1.0f
 180:../BLDCMotor/motorctrl.c ****     yateng  theta += 0.004f;  uq = 1.0f    
 181:../BLDCMotor/motorctrl.c ****     qita    theta += 0.004f;  uq = 1.0f
 182:../BLDCMotor/motorctrl.c **** ---------------------------*/
 183:../BLDCMotor/motorctrl.c **** 
 184:../BLDCMotor/motorctrl.c ****     dq_t udq = {0.0f,1.40f};
 185:../BLDCMotor/motorctrl.c ****     alpbet_t uab;
 186:../BLDCMotor/motorctrl.c ****     #if 0//强拖
 187:../BLDCMotor/motorctrl.c ****         {
 188:../BLDCMotor/motorctrl.c ****             static float theta = 0.0f;
 189:../BLDCMotor/motorctrl.c ****             AAAAAA = theta;
 190:../BLDCMotor/motorctrl.c ****             if (theta >= _2PI)
 191:../BLDCMotor/motorctrl.c ****             {
 192:../BLDCMotor/motorctrl.c ****                 /* code */
 193:../BLDCMotor/motorctrl.c ****                 theta = 0.0f;
 194:../BLDCMotor/motorctrl.c ****             }
 195:../BLDCMotor/motorctrl.c ****             uab = _2r_2s(udq, theta);
ARM GAS  C:\Users\ADMINI~1\AppData\Local\Temp\ccl64FUZ.s 			page 13


 196:../BLDCMotor/motorctrl.c ****             theta += 0.001f;
 197:../BLDCMotor/motorctrl.c ****         }
 198:../BLDCMotor/motorctrl.c ****     #else //使用传感器
 199:../BLDCMotor/motorctrl.c ****         uab = _2r_2s(udq, elec_theta);
 200:../BLDCMotor/motorctrl.c ****         pre_elec_theta = elec_theta; 
 201:../BLDCMotor/motorctrl.c ****     #endif
 202:../BLDCMotor/motorctrl.c **** 
 203:../BLDCMotor/motorctrl.c ****     duty_t dut01;
 204:../BLDCMotor/motorctrl.c ****     dut01 = _svpwm(uab.alpha,uab.beta);
 205:../BLDCMotor/motorctrl.c ****     motor_set_pwm(dut01._a,dut01._b,dut01._c);
 206:../BLDCMotor/motorctrl.c **** #endif
 207:../BLDCMotor/motorctrl.c **** 
 208:../BLDCMotor/motorctrl.c **** /*-------------------观测三相电流--------------------*/
 209:../BLDCMotor/motorctrl.c ****     ipc_write_data(PUBLIC_DATA_IA,i_abc.a);
 458              		.loc 1 209 5 view .LVU128
 459 0134 B0EE690A 		vmov.f32	s0, s19
 460 0138 0220     		movs	r0, #2
 461 013a FFF7FEFF 		bl	ipc_write_data
 462              	.LVL44:
 210:../BLDCMotor/motorctrl.c ****     ipc_write_data(PUBLIC_DATA_IB,i_abc.b);
 463              		.loc 1 210 5 view .LVU129
 464 013e B0EE490A 		vmov.f32	s0, s18
 465 0142 0320     		movs	r0, #3
 466 0144 FFF7FEFF 		bl	ipc_write_data
 467              	.LVL45:
 211:../BLDCMotor/motorctrl.c ****     ipc_write_data(PUBLIC_DATA_IC,i_abc.c);
 468              		.loc 1 211 5 view .LVU130
 469 0148 B0EE680A 		vmov.f32	s0, s17
 470 014c 0420     		movs	r0, #4
 471 014e FFF7FEFF 		bl	ipc_write_data
 472              	.LVL46:
 212:../BLDCMotor/motorctrl.c ****     ipc_write_data(PUBLIC_DATA_IALPHA,i_alphbeta.alpha);
 473              		.loc 1 212 5 view .LVU131
 474 0152 9DED090A 		vldr.32	s0, [sp, #36]
 475 0156 0520     		movs	r0, #5
 476 0158 FFF7FEFF 		bl	ipc_write_data
 477              	.LVL47:
 213:../BLDCMotor/motorctrl.c ****     ipc_write_data(PUBLIC_DATA_IBETA,i_alphbeta.beta);    
 478              		.loc 1 213 5 view .LVU132
 479 015c 9DED0A0A 		vldr.32	s0, [sp, #40]
 480 0160 0620     		movs	r0, #6
 481 0162 FFF7FEFF 		bl	ipc_write_data
 482              	.LVL48:
 214:../BLDCMotor/motorctrl.c ****     ipc_write_data(PUBLIC_DATA_ID,i_dq.d);
 483              		.loc 1 214 5 view .LVU133
 484 0166 9DED0C0A 		vldr.32	s0, [sp, #48]
 485 016a 0720     		movs	r0, #7
 486 016c FFF7FEFF 		bl	ipc_write_data
 487              	.LVL49:
 215:../BLDCMotor/motorctrl.c ****     ipc_write_data(PUBLIC_DATA_IQ,i_dq.q);
 488              		.loc 1 215 5 view .LVU134
 489 0170 9DED0D0A 		vldr.32	s0, [sp, #52]
 490 0174 0820     		movs	r0, #8
 491 0176 FFF7FEFF 		bl	ipc_write_data
 492              	.LVL50:
 216:../BLDCMotor/motorctrl.c ****     return;
 493              		.loc 1 216 5 view .LVU135
ARM GAS  C:\Users\ADMINI~1\AppData\Local\Temp\ccl64FUZ.s 			page 14


 217:../BLDCMotor/motorctrl.c **** }
 494              		.loc 1 217 1 is_stmt 0 view .LVU136
 495 017a 12B0     		add	sp, sp, #72
 496              	.LCFI12:
 497              		.cfi_def_cfa_offset 24
 498              		@ sp needed
 499 017c BDEC048B 		vldm	sp!, {d8-d9}
 500              	.LCFI13:
 501              		.cfi_restore 82
 502              		.cfi_restore 83
 503              		.cfi_restore 80
 504              		.cfi_restore 81
 505              		.cfi_def_cfa_offset 8
 506              	.LVL51:
 507              		.loc 1 217 1 view .LVU137
 508 0180 10BD     		pop	{r4, pc}
 509              	.L17:
 510 0182 00BF     		.align	2
 511              	.L16:
 512 0184 00400445 		.word	1157906432
 513 0188 3694673C 		.word	1013421110
 514 018c 00000000 		.word	.LANCHOR2
 515 0190 00000000 		.word	.LANCHOR1
 516 0194 00000000 		.word	.LANCHOR3
 517 0198 DA0FC93F 		.word	1070141402
 518 019c 00007A44 		.word	1148846080
 519 01a0 00000000 		.word	.LANCHOR4
 520              		.cfi_endproc
 521              	.LFE331:
 523              		.global	AAAAAA
 524              		.global	g_Motor1
 525              		.global	sg_motordebug
 526              		.section	.bss.AAAAAA,"aw",%nobits
 527              		.align	2
 530              	AAAAAA:
 531 0000 00000000 		.space	4
 532              		.section	.bss.g_Motor1,"aw",%nobits
 533              		.align	2
 534              		.set	.LANCHOR0,. + 0
 537              	g_Motor1:
 538 0000 00000000 		.space	4
 539              		.section	.bss.pre_elec_theta.0,"aw",%nobits
 540              		.align	2
 541              		.set	.LANCHOR4,. + 0
 544              	pre_elec_theta.0:
 545 0000 00000000 		.space	4
 546              		.section	.bss.sg_MecThetaOffset,"aw",%nobits
 547              		.align	2
 548              		.set	.LANCHOR1,. + 0
 551              	sg_MecThetaOffset:
 552 0000 00000000 		.space	4
 553              		.section	.bss.sg_elefilter,"aw",%nobits
 554              		.align	2
 555              		.set	.LANCHOR2,. + 0
 558              	sg_elefilter:
 559 0000 00000000 		.space	24
 559      00000000 
ARM GAS  C:\Users\ADMINI~1\AppData\Local\Temp\ccl64FUZ.s 			page 15


 559      00000000 
 559      00000000 
 559      00000000 
 560              		.section	.bss.sg_motordebug,"aw",%nobits
 561              		.align	2
 562              		.set	.LANCHOR3,. + 0
 565              	sg_motordebug:
 566 0000 00000000 		.space	52
 566      00000000 
 566      00000000 
 566      00000000 
 566      00000000 
 567              		.text
 568              	.Letext0:
 569              		.file 2 "../Common/method/filter.h"
 570              		.file 3 "../Common/IPC/ipc.h"
 571              		.file 4 "../Sensor/sensor_cfg.h"
 572              		.file 5 "../Sensor/sensor.h"
 573              		.file 6 "../BLDCMotor/focmethod.h"
 574              		.file 7 "Inc/tim.h"
 575              		.file 8 "Drivers/STM32G4xx_HAL_Driver/Inc/stm32g4xx_hal.h"
ARM GAS  C:\Users\ADMINI~1\AppData\Local\Temp\ccl64FUZ.s 			page 16


DEFINED SYMBOLS
                            *ABS*:00000000 motorctrl.c
C:\Users\ADMINI~1\AppData\Local\Temp\ccl64FUZ.s:18     .text._get_angleoffset:00000000 $t
C:\Users\ADMINI~1\AppData\Local\Temp\ccl64FUZ.s:25     .text._get_angleoffset:00000000 _get_angleoffset
C:\Users\ADMINI~1\AppData\Local\Temp\ccl64FUZ.s:102    .text._get_angleoffset:00000054 $d
C:\Users\ADMINI~1\AppData\Local\Temp\ccl64FUZ.s:107    .text.motortctrl_process:00000000 $t
C:\Users\ADMINI~1\AppData\Local\Temp\ccl64FUZ.s:114    .text.motortctrl_process:00000000 motortctrl_process
C:\Users\ADMINI~1\AppData\Local\Temp\ccl64FUZ.s:242    .text.motortctrl_process:00000084 $d
C:\Users\ADMINI~1\AppData\Local\Temp\ccl64FUZ.s:251    .text.motorctrl_foccalc:00000000 $t
C:\Users\ADMINI~1\AppData\Local\Temp\ccl64FUZ.s:258    .text.motorctrl_foccalc:00000000 motorctrl_foccalc
C:\Users\ADMINI~1\AppData\Local\Temp\ccl64FUZ.s:512    .text.motorctrl_foccalc:00000184 $d
C:\Users\ADMINI~1\AppData\Local\Temp\ccl64FUZ.s:530    .bss.AAAAAA:00000000 AAAAAA
C:\Users\ADMINI~1\AppData\Local\Temp\ccl64FUZ.s:537    .bss.g_Motor1:00000000 g_Motor1
C:\Users\ADMINI~1\AppData\Local\Temp\ccl64FUZ.s:565    .bss.sg_motordebug:00000000 sg_motordebug
C:\Users\ADMINI~1\AppData\Local\Temp\ccl64FUZ.s:527    .bss.AAAAAA:00000000 $d
C:\Users\ADMINI~1\AppData\Local\Temp\ccl64FUZ.s:533    .bss.g_Motor1:00000000 $d
C:\Users\ADMINI~1\AppData\Local\Temp\ccl64FUZ.s:540    .bss.pre_elec_theta.0:00000000 $d
C:\Users\ADMINI~1\AppData\Local\Temp\ccl64FUZ.s:544    .bss.pre_elec_theta.0:00000000 pre_elec_theta.0
C:\Users\ADMINI~1\AppData\Local\Temp\ccl64FUZ.s:547    .bss.sg_MecThetaOffset:00000000 $d
C:\Users\ADMINI~1\AppData\Local\Temp\ccl64FUZ.s:551    .bss.sg_MecThetaOffset:00000000 sg_MecThetaOffset
C:\Users\ADMINI~1\AppData\Local\Temp\ccl64FUZ.s:554    .bss.sg_elefilter:00000000 $d
C:\Users\ADMINI~1\AppData\Local\Temp\ccl64FUZ.s:558    .bss.sg_elefilter:00000000 sg_elefilter
C:\Users\ADMINI~1\AppData\Local\Temp\ccl64FUZ.s:561    .bss.sg_motordebug:00000000 $d

UNDEFINED SYMBOLS
motor_enable_noirq
_svpwm
motor_set_pwm
HAL_Delay
sensor_user_read
motor_disable
lowfilter_init
foc_paraminit
motor_enable
lowfilter_cale
_normalize_angle
_3s_2s
_2s_2r
_2r_2s
ipc_write_data
