ARM GAS  C:\Users\57308\AppData\Local\Temp\ccrCM1Sg.s 			page 1


   1              		.cpu cortex-m4
   2              		.arch armv7e-m
   3              		.fpu fpv4-sp-d16
   4              		.eabi_attribute 27, 1
   5              		.eabi_attribute 28, 1
   6              		.eabi_attribute 20, 1
   7              		.eabi_attribute 21, 1
   8              		.eabi_attribute 23, 3
   9              		.eabi_attribute 24, 1
  10              		.eabi_attribute 25, 1
  11              		.eabi_attribute 26, 1
  12              		.eabi_attribute 30, 1
  13              		.eabi_attribute 34, 1
  14              		.eabi_attribute 18, 4
  15              		.file	"mt6816.c"
  16              		.text
  17              	.Ltext0:
  18              		.cfi_sections	.debug_frame
  19              		.section	.text.mt6816_read,"ax",%progbits
  20              		.align	1
  21              		.global	mt6816_read
  22              		.syntax unified
  23              		.thumb
  24              		.thumb_func
  26              	mt6816_read:
  27              	.LFB329:
  28              		.file 1 "./Hardware/mt6816.c"
   1:./Hardware/mt6816.c **** #include "spi.h"
   2:./Hardware/mt6816.c **** 
   3:./Hardware/mt6816.c **** typedef struct mt6816_data
   4:./Hardware/mt6816.c **** {
   5:./Hardware/mt6816.c ****     unsigned int *raw_buf;
   6:./Hardware/mt6816.c ****     unsigned int *covdata_buf;
   7:./Hardware/mt6816.c ****     unsigned int *filterdata_buf;
   8:./Hardware/mt6816.c ****     unsigned short buf_column;
   9:./Hardware/mt6816.c **** }mt6816_data_t;
  10:./Hardware/mt6816.c **** 
  11:./Hardware/mt6816.c **** 
  12:./Hardware/mt6816.c **** extern SPI_HandleTypeDef hspi1;
  13:./Hardware/mt6816.c **** static unsigned char Spi_TxData[4]={0x83,0x84,0x05,0xff};
  14:./Hardware/mt6816.c **** static unsigned char Spi_pRxData[4]={0};
  15:./Hardware/mt6816.c **** 
  16:./Hardware/mt6816.c **** void* mt6816_read(void)
  17:./Hardware/mt6816.c **** {
  29              		.loc 1 17 1 view -0
  30              		.cfi_startproc
  31              		@ args = 0, pretend = 0, frame = 0
  32              		@ frame_needed = 0, uses_anonymous_args = 0
  33 0000 10B5     		push	{r4, lr}
  34              	.LCFI0:
  35              		.cfi_def_cfa_offset 8
  36              		.cfi_offset 4, -8
  37              		.cfi_offset 14, -4
  38 0002 82B0     		sub	sp, sp, #8
  39              	.LCFI1:
  40              		.cfi_def_cfa_offset 16
  18:./Hardware/mt6816.c ****     static mt6816_data_t data;
ARM GAS  C:\Users\57308\AppData\Local\Temp\ccrCM1Sg.s 			page 2


  41              		.loc 1 18 5 view .LVU1
  19:./Hardware/mt6816.c **** 
  20:./Hardware/mt6816.c ****     static unsigned int AngleIn17bits = 0;
  42              		.loc 1 20 5 view .LVU2
  21:./Hardware/mt6816.c ****     // static signed int AngleIn17bits_Cov = 0;
  22:./Hardware/mt6816.c ****     HAL_GPIO_WritePin(MT68XX_CSN_GPIO_Port, MT68XX_CSN_Pin, GPIO_PIN_RESET);  
  43              		.loc 1 22 5 view .LVU3
  44 0004 0022     		movs	r2, #0
  45 0006 4FF40041 		mov	r1, #32768
  46 000a 4FF09040 		mov	r0, #1207959552
  47 000e FFF7FEFF 		bl	HAL_GPIO_WritePin
  48              	.LVL0:
  23:./Hardware/mt6816.c ****     HAL_SPI_TransmitReceive(&hspi1, &Spi_TxData[0], &Spi_pRxData[0],0x03,0xffff);
  49              		.loc 1 23 5 view .LVU4
  50 0012 154C     		ldr	r4, .L3
  51 0014 4FF6FF73 		movw	r3, #65535
  52 0018 0093     		str	r3, [sp]
  53 001a 0323     		movs	r3, #3
  54 001c 2246     		mov	r2, r4
  55 001e 1349     		ldr	r1, .L3+4
  56 0020 1348     		ldr	r0, .L3+8
  57 0022 FFF7FEFF 		bl	HAL_SPI_TransmitReceive
  58              	.LVL1:
  24:./Hardware/mt6816.c ****     HAL_GPIO_WritePin(MT68XX_CSN_GPIO_Port, MT68XX_CSN_Pin, GPIO_PIN_SET);
  59              		.loc 1 24 5 view .LVU5
  60 0026 0122     		movs	r2, #1
  61 0028 4FF40041 		mov	r1, #32768
  62 002c 4FF09040 		mov	r0, #1207959552
  63 0030 FFF7FEFF 		bl	HAL_GPIO_WritePin
  64              	.LVL2:
  25:./Hardware/mt6816.c ****     AngleIn17bits =(((Spi_pRxData[1]&0x00ff)<<8) | (Spi_pRxData[2]&0x00fc))>>2;
  65              		.loc 1 25 5 view .LVU6
  66              		.loc 1 25 34 is_stmt 0 view .LVU7
  67 0034 6278     		ldrb	r2, [r4, #1]	@ zero_extendqisi2
  68              		.loc 1 25 64 view .LVU8
  69 0036 A378     		ldrb	r3, [r4, #2]	@ zero_extendqisi2
  70              		.loc 1 25 67 view .LVU9
  71 0038 03F0FC03 		and	r3, r3, #252
  72              		.loc 1 25 50 view .LVU10
  73 003c 43EA0223 		orr	r3, r3, r2, lsl #8
  74              		.loc 1 25 76 view .LVU11
  75 0040 9B10     		asrs	r3, r3, #2
  76              		.loc 1 25 19 view .LVU12
  77 0042 0C4A     		ldr	r2, .L3+12
  78 0044 1360     		str	r3, [r2]
  26:./Hardware/mt6816.c ****     AngleIn17bits = 16384 - AngleIn17bits;
  79              		.loc 1 26 5 is_stmt 1 view .LVU13
  80              		.loc 1 26 27 is_stmt 0 view .LVU14
  81 0046 C3F58043 		rsb	r3, r3, #16384
  82              		.loc 1 26 19 view .LVU15
  83 004a 1360     		str	r3, [r2]
  27:./Hardware/mt6816.c ****     // data.raw_buf = &AngleIn17bits; 
  28:./Hardware/mt6816.c ****     // AngleIn17bits_Cov = AngleIn17bits * 12;
  29:./Hardware/mt6816.c ****     // data.covdata_buf = &AngleIn17bits_Cov;
  30:./Hardware/mt6816.c ****     static float theta;
  84              		.loc 1 30 5 is_stmt 1 view .LVU16
  31:./Hardware/mt6816.c ****     theta = AngleIn17bits * 0.0003834f;
ARM GAS  C:\Users\57308\AppData\Local\Temp\ccrCM1Sg.s 			page 3


  85              		.loc 1 31 5 view .LVU17
  86              		.loc 1 31 27 is_stmt 0 view .LVU18
  87 004c 07EE903A 		vmov	s15, r3	@ int
  88 0050 F8EE677A 		vcvt.f32.u32	s15, s15
  89 0054 9FED087A 		vldr.32	s14, .L3+16
  90 0058 67EE877A 		vmul.f32	s15, s15, s14
  91              		.loc 1 31 11 view .LVU19
  92 005c 0748     		ldr	r0, .L3+20
  93 005e C0ED007A 		vstr.32	s15, [r0]
  32:./Hardware/mt6816.c ****     return (void*)&theta;
  94              		.loc 1 32 5 is_stmt 1 view .LVU20
  33:./Hardware/mt6816.c **** }
  95              		.loc 1 33 1 is_stmt 0 view .LVU21
  96 0062 02B0     		add	sp, sp, #8
  97              	.LCFI2:
  98              		.cfi_def_cfa_offset 8
  99              		@ sp needed
 100 0064 10BD     		pop	{r4, pc}
 101              	.L4:
 102 0066 00BF     		.align	2
 103              	.L3:
 104 0068 00000000 		.word	.LANCHOR0
 105 006c 00000000 		.word	.LANCHOR1
 106 0070 00000000 		.word	hspi1
 107 0074 00000000 		.word	.LANCHOR2
 108 0078 1403C939 		.word	969474836
 109 007c 00000000 		.word	.LANCHOR3
 110              		.cfi_endproc
 111              	.LFE329:
 113              		.section	.bss.AngleIn17bits.1,"aw",%nobits
 114              		.align	2
 115              		.set	.LANCHOR2,. + 0
 118              	AngleIn17bits.1:
 119 0000 00000000 		.space	4
 120              		.section	.bss.Spi_pRxData,"aw",%nobits
 121              		.align	2
 122              		.set	.LANCHOR0,. + 0
 125              	Spi_pRxData:
 126 0000 00000000 		.space	4
 127              		.section	.bss.theta.0,"aw",%nobits
 128              		.align	2
 129              		.set	.LANCHOR3,. + 0
 132              	theta.0:
 133 0000 00000000 		.space	4
 134              		.section	.data.Spi_TxData,"aw"
 135              		.align	2
 136              		.set	.LANCHOR1,. + 0
 139              	Spi_TxData:
 140 0000 838405FF 		.ascii	"\203\204\005\377"
 141              		.text
 142              	.Letext0:
 143              		.file 2 "d:\\program files\\gcc-arm-none-eabi-10.3-2021.10\\arm-none-eabi\\include\\machine\\_defa
 144              		.file 3 "d:\\program files\\gcc-arm-none-eabi-10.3-2021.10\\arm-none-eabi\\include\\sys\\_stdint.h
 145              		.file 4 "Drivers/CMSIS/Device/ST/STM32G4xx/Include/stm32g431xx.h"
 146              		.file 5 "Drivers/STM32G4xx_HAL_Driver/Inc/stm32g4xx_hal_def.h"
 147              		.file 6 "Drivers/STM32G4xx_HAL_Driver/Inc/stm32g4xx_hal_gpio.h"
 148              		.file 7 "Drivers/STM32G4xx_HAL_Driver/Inc/stm32g4xx_hal_dma.h"
ARM GAS  C:\Users\57308\AppData\Local\Temp\ccrCM1Sg.s 			page 4


 149              		.file 8 "Drivers/STM32G4xx_HAL_Driver/Inc/stm32g4xx_hal_spi.h"
 150              		.file 9 "Inc/spi.h"
ARM GAS  C:\Users\57308\AppData\Local\Temp\ccrCM1Sg.s 			page 5


DEFINED SYMBOLS
                            *ABS*:00000000 mt6816.c
C:\Users\57308\AppData\Local\Temp\ccrCM1Sg.s:20     .text.mt6816_read:00000000 $t
C:\Users\57308\AppData\Local\Temp\ccrCM1Sg.s:26     .text.mt6816_read:00000000 mt6816_read
C:\Users\57308\AppData\Local\Temp\ccrCM1Sg.s:104    .text.mt6816_read:00000068 $d
C:\Users\57308\AppData\Local\Temp\ccrCM1Sg.s:114    .bss.AngleIn17bits.1:00000000 $d
C:\Users\57308\AppData\Local\Temp\ccrCM1Sg.s:118    .bss.AngleIn17bits.1:00000000 AngleIn17bits.1
C:\Users\57308\AppData\Local\Temp\ccrCM1Sg.s:121    .bss.Spi_pRxData:00000000 $d
C:\Users\57308\AppData\Local\Temp\ccrCM1Sg.s:125    .bss.Spi_pRxData:00000000 Spi_pRxData
C:\Users\57308\AppData\Local\Temp\ccrCM1Sg.s:128    .bss.theta.0:00000000 $d
C:\Users\57308\AppData\Local\Temp\ccrCM1Sg.s:132    .bss.theta.0:00000000 theta.0
C:\Users\57308\AppData\Local\Temp\ccrCM1Sg.s:135    .data.Spi_TxData:00000000 $d
C:\Users\57308\AppData\Local\Temp\ccrCM1Sg.s:139    .data.Spi_TxData:00000000 Spi_TxData

UNDEFINED SYMBOLS
HAL_GPIO_WritePin
HAL_SPI_TransmitReceive
hspi1
