ARM GAS  C:\Users\57308\AppData\Local\Temp\ccoWw0TN.s 			page 1


   1              		.cpu cortex-m4
   2              		.arch armv7e-m
   3              		.fpu fpv4-sp-d16
   4              		.eabi_attribute 27, 1
   5              		.eabi_attribute 28, 1
   6              		.eabi_attribute 20, 1
   7              		.eabi_attribute 21, 1
   8              		.eabi_attribute 23, 3
   9              		.eabi_attribute 24, 1
  10              		.eabi_attribute 25, 1
  11              		.eabi_attribute 26, 1
  12              		.eabi_attribute 30, 1
  13              		.eabi_attribute 34, 1
  14              		.eabi_attribute 18, 4
  15              		.file	"printf_log.c"
  16              		.text
  17              	.Ltext0:
  18              		.cfi_sections	.debug_frame
  19              		.section	.rodata.User_Printf_Init.str1.4,"aMS",%progbits,1
  20              		.align	2
  21              	.LC0:
  22 0000 446F776E 		.ascii	"DownBuffer\000"
  22      42756666 
  22      657200
  23              		.section	.text.User_Printf_Init,"ax",%progbits
  24              		.align	1
  25              		.weak	User_Printf_Init
  26              		.syntax unified
  27              		.thumb
  28              		.thumb_func
  30              	User_Printf_Init:
  31              	.LFB0:
  32              		.file 1 "../Common/debuglog/printf_log.c"
   1:../Common/debuglog/printf_log.c **** #include "debuglog_cfg.h"
   2:../Common/debuglog/printf_log.c **** #if (DEBUG_SW == DEBUG_UART)
   3:../Common/debuglog/printf_log.c ****     int _write(int file, char *data, int len)
   4:../Common/debuglog/printf_log.c ****     {
   5:../Common/debuglog/printf_log.c ****         HAL_StatusTypeDef status = HAL_UART_Transmit(&huart1, (uint8_t*)data, len, 1000);
   6:../Common/debuglog/printf_log.c ****         return (status == HAL_OK ? len : 0);
   7:../Common/debuglog/printf_log.c ****     }
   8:../Common/debuglog/printf_log.c ****     __attribute__((weak)) void User_Printf_Init(void)
   9:../Common/debuglog/printf_log.c ****     {
  10:../Common/debuglog/printf_log.c **** 
  11:../Common/debuglog/printf_log.c ****     }
  12:../Common/debuglog/printf_log.c ****     __attribute__((weak)) char readline_fromPC(char* buffer, int bufferSize) 
  13:../Common/debuglog/printf_log.c ****     {
  14:../Common/debuglog/printf_log.c **** 
  15:../Common/debuglog/printf_log.c ****     }
  16:../Common/debuglog/printf_log.c **** #elif (DEBUG_SW == DEBUG_RTT)
  17:../Common/debuglog/printf_log.c **** 
  18:../Common/debuglog/printf_log.c **** #define DOWN_BUFFER_NAME "DownBuffer"  
  19:../Common/debuglog/printf_log.c **** #define DOWN_BUFFER_SIZE 1024  
  20:../Common/debuglog/printf_log.c **** unsigned char downBuffer[DOWN_BUFFER_SIZE]; 
  21:../Common/debuglog/printf_log.c **** 
  22:../Common/debuglog/printf_log.c ****     __attribute__((weak)) void User_Printf_Init(void)
  23:../Common/debuglog/printf_log.c ****     {
  33              		.loc 1 23 5 view -0
ARM GAS  C:\Users\57308\AppData\Local\Temp\ccoWw0TN.s 			page 2


  34              		.cfi_startproc
  35              		@ args = 0, pretend = 0, frame = 0
  36              		@ frame_needed = 0, uses_anonymous_args = 0
  37 0000 00B5     		push	{lr}
  38              	.LCFI0:
  39              		.cfi_def_cfa_offset 4
  40              		.cfi_offset 14, -4
  41 0002 83B0     		sub	sp, sp, #12
  42              	.LCFI1:
  43              		.cfi_def_cfa_offset 16
  24:../Common/debuglog/printf_log.c ****         SEGGER_RTT_ConfigUpBuffer(0, NULL, NULL, 0, SEGGER_RTT_MODE_BLOCK_IF_FIFO_FULL);
  44              		.loc 1 24 9 view .LVU1
  45 0004 0223     		movs	r3, #2
  46 0006 0093     		str	r3, [sp]
  47 0008 0023     		movs	r3, #0
  48 000a 1A46     		mov	r2, r3
  49 000c 1946     		mov	r1, r3
  50 000e 1846     		mov	r0, r3
  51 0010 FFF7FEFF 		bl	SEGGER_RTT_ConfigUpBuffer
  52              	.LVL0:
  25:../Common/debuglog/printf_log.c ****         SEGGER_RTT_ConfigDownBuffer(0, DOWN_BUFFER_NAME, (void*)downBuffer, DOWN_BUFFER_SIZE, SEGGE
  53              		.loc 1 25 9 view .LVU2
  54 0014 0020     		movs	r0, #0
  55 0016 0090     		str	r0, [sp]
  56 0018 4FF48063 		mov	r3, #1024
  57 001c 034A     		ldr	r2, .L3
  58 001e 0449     		ldr	r1, .L3+4
  59 0020 FFF7FEFF 		bl	SEGGER_RTT_ConfigDownBuffer
  60              	.LVL1:
  26:../Common/debuglog/printf_log.c ****     }
  61              		.loc 1 26 5 is_stmt 0 view .LVU3
  62 0024 03B0     		add	sp, sp, #12
  63              	.LCFI2:
  64              		.cfi_def_cfa_offset 4
  65              		@ sp needed
  66 0026 5DF804FB 		ldr	pc, [sp], #4
  67              	.L4:
  68 002a 00BF     		.align	2
  69              	.L3:
  70 002c 00000000 		.word	.LANCHOR0
  71 0030 00000000 		.word	.LC0
  72              		.cfi_endproc
  73              	.LFE0:
  75              		.section	.text.readline_fromPC,"ax",%progbits
  76              		.align	1
  77              		.weak	readline_fromPC
  78              		.syntax unified
  79              		.thumb
  80              		.thumb_func
  82              	readline_fromPC:
  83              	.LVL2:
  84              	.LFB1:
  27:../Common/debuglog/printf_log.c **** 
  28:../Common/debuglog/printf_log.c **** 
  29:../Common/debuglog/printf_log.c ****     /*----------------RTTËß£ÊûêÂëΩ‰ª§--------------------------*/
  30:../Common/debuglog/printf_log.c ****     #include "string.h"
  31:../Common/debuglog/printf_log.c ****     __attribute__((weak)) char readline_fromPC(char* buffer, int bufferSize) {  
ARM GAS  C:\Users\57308\AppData\Local\Temp\ccoWw0TN.s 			page 3


  85              		.loc 1 31 78 is_stmt 1 view -0
  86              		.cfi_startproc
  87              		@ args = 0, pretend = 0, frame = 0
  88              		@ frame_needed = 0, uses_anonymous_args = 0
  89              		.loc 1 31 78 is_stmt 0 view .LVU5
  90 0000 70B5     		push	{r4, r5, r6, lr}
  91              	.LCFI3:
  92              		.cfi_def_cfa_offset 16
  93              		.cfi_offset 4, -16
  94              		.cfi_offset 5, -12
  95              		.cfi_offset 6, -8
  96              		.cfi_offset 14, -4
  97 0002 0646     		mov	r6, r0
  98 0004 0D46     		mov	r5, r1
  32:../Common/debuglog/printf_log.c ****         int index = 0; // ÁºìÂÜ≤Âå∫‰∏≠ÁöÑÂΩìÂâç‰ΩçÁΩÆ  
  99              		.loc 1 32 9 is_stmt 1 view .LVU6
 100              	.LVL3:
  33:../Common/debuglog/printf_log.c ****         int c; // ËØªÂèñÁöÑÂ≠óÁ¨¶  
 101              		.loc 1 33 9 view .LVU7
  34:../Common/debuglog/printf_log.c ****     
  35:../Common/debuglog/printf_log.c ****         // Ê∏ÖÁ©∫ÁºìÂÜ≤Âå∫  
  36:../Common/debuglog/printf_log.c ****         memset(buffer, 0, bufferSize);  
 102              		.loc 1 36 9 view .LVU8
 103 0006 0A46     		mov	r2, r1
 104 0008 0021     		movs	r1, #0
 105              	.LVL4:
 106              		.loc 1 36 9 is_stmt 0 view .LVU9
 107 000a FFF7FEFF 		bl	memset
 108              	.LVL5:
  37:../Common/debuglog/printf_log.c ****     
  38:../Common/debuglog/printf_log.c ****         // Âæ™ÁéØËØªÂèñÂ≠óÁ¨¶ÔºåÁõ¥Âà∞ÈÅáÂà∞Êç¢Ë°åÁ¨¶ÊàñÁºìÂÜ≤Âå∫Êª°  
  39:../Common/debuglog/printf_log.c ****         while (SEGGER_RTT_HasKey()) {  
 109              		.loc 1 39 9 is_stmt 1 view .LVU10
  32:../Common/debuglog/printf_log.c ****         int c; // ËØªÂèñÁöÑÂ≠óÁ¨¶  
 110              		.loc 1 32 13 is_stmt 0 view .LVU11
 111 000e 0024     		movs	r4, #0
 112              	.LVL6:
 113              	.L6:
 114              		.loc 1 39 15 is_stmt 1 view .LVU12
 115              		.loc 1 39 16 is_stmt 0 view .LVU13
 116 0010 FFF7FEFF 		bl	SEGGER_RTT_HasKey
 117              	.LVL7:
 118              		.loc 1 39 15 view .LVU14
 119 0014 58B1     		cbz	r0, .L7
  40:../Common/debuglog/printf_log.c ****             c = SEGGER_RTT_GetKey(); // ËØªÂèñ‰∏Ä‰∏™Â≠óÁ¨¶  
 120              		.loc 1 40 13 is_stmt 1 view .LVU15
 121              		.loc 1 40 17 is_stmt 0 view .LVU16
 122 0016 FFF7FEFF 		bl	SEGGER_RTT_GetKey
 123              	.LVL8:
  41:../Common/debuglog/printf_log.c ****             if (c == '\n' || c == '\r') { // Ê£ÄÊü•Êç¢Ë°åÁ¨¶ÊàñÂõûËΩ¶Á¨¶ÔºàÂèñÂÜ≥‰∫é‰Ω†ÁöÑÁ≥ªÁªüÈÖç
 124              		.loc 1 41 13 is_stmt 1 view .LVU17
 125              		.loc 1 41 16 is_stmt 0 view .LVU18
 126 001a 0A28     		cmp	r0, #10
 127 001c 07D0     		beq	.L7
 128              		.loc 1 41 27 discriminator 1 view .LVU19
 129 001e 0D28     		cmp	r0, #13
 130 0020 05D0     		beq	.L7
ARM GAS  C:\Users\57308\AppData\Local\Temp\ccoWw0TN.s 			page 4


  42:../Common/debuglog/printf_log.c ****                 break; // Â¶ÇÊûúÊòØÊç¢Ë°åÁ¨¶ÔºåÂàôÁªìÊùüÂæ™ÁéØ  
  43:../Common/debuglog/printf_log.c ****             }
  44:../Common/debuglog/printf_log.c ****             if (index < bufferSize - 1) { // Á°Æ‰øù‰∏ç‰ºöÊ∫¢Âá∫ÁºìÂÜ≤Âå∫  
 131              		.loc 1 44 13 is_stmt 1 view .LVU20
 132              		.loc 1 44 36 is_stmt 0 view .LVU21
 133 0022 6B1E     		subs	r3, r5, #1
 134              		.loc 1 44 16 view .LVU22
 135 0024 A342     		cmp	r3, r4
 136 0026 02DD     		ble	.L7
  45:../Common/debuglog/printf_log.c ****                 buffer[index++] = (char)c; // Â∞ÜÂ≠óÁ¨¶Ê∑ªÂä†Âà∞ÁºìÂÜ≤Âå∫Âπ∂ÈÄíÂ¢ûÁ¥¢Âºï  
 137              		.loc 1 45 17 is_stmt 1 view .LVU23
 138              	.LVL9:
 139              		.loc 1 45 33 is_stmt 0 view .LVU24
 140 0028 3055     		strb	r0, [r6, r4]
 141              		.loc 1 45 29 view .LVU25
 142 002a 0134     		adds	r4, r4, #1
 143              	.LVL10:
 144              		.loc 1 45 29 view .LVU26
 145 002c F0E7     		b	.L6
 146              	.LVL11:
 147              	.L7:
  46:../Common/debuglog/printf_log.c ****             } else {  
  47:../Common/debuglog/printf_log.c ****                 // ÁºìÂÜ≤Âå∫Â∑≤Êª°ÔºåÂèØ‰ª•ÈÄâÊã©Â§ÑÁêÜÊ∫¢Âá∫ÊÉÖÂÜµÔºà‰æãÂ¶ÇÈÄöËøáÂèëÈÄÅÈîôËØØÊ∂àÊÅ
  48:../Common/debuglog/printf_log.c ****                 // Âú®ËøôÈáåÊàë‰ª¨ÁÆÄÂçïÂú∞ÈÄÄÂá∫Âæ™ÁéØÔºåÂøΩÁï•È¢ùÂ§ñÁöÑÂ≠óÁ¨¶
  49:../Common/debuglog/printf_log.c ****                 break;  
  50:../Common/debuglog/printf_log.c ****             }
  51:../Common/debuglog/printf_log.c ****         }
  52:../Common/debuglog/printf_log.c ****         return index;
 148              		.loc 1 52 9 is_stmt 1 view .LVU27
  53:../Common/debuglog/printf_log.c ****     }    
 149              		.loc 1 53 5 is_stmt 0 view .LVU28
 150 002e E0B2     		uxtb	r0, r4
 151 0030 70BD     		pop	{r4, r5, r6, pc}
 152              		.loc 1 53 5 view .LVU29
 153              		.cfi_endproc
 154              	.LFE1:
 156              		.global	downBuffer
 157              		.section	.bss.downBuffer,"aw",%nobits
 158              		.align	2
 159              		.set	.LANCHOR0,. + 0
 162              	downBuffer:
 163 0000 00000000 		.space	1024
 163      00000000 
 163      00000000 
 163      00000000 
 163      00000000 
 164              		.text
 165              	.Letext0:
 166              		.file 2 "../Common/debuglog/SEGGER_RTT_V792h/RTT/SEGGER_RTT.h"
 167              		.file 3 "<built-in>"
ARM GAS  C:\Users\57308\AppData\Local\Temp\ccoWw0TN.s 			page 5


DEFINED SYMBOLS
                            *ABS*:00000000 printf_log.c
C:\Users\57308\AppData\Local\Temp\ccoWw0TN.s:20     .rodata.User_Printf_Init.str1.4:00000000 $d
C:\Users\57308\AppData\Local\Temp\ccoWw0TN.s:24     .text.User_Printf_Init:00000000 $t
C:\Users\57308\AppData\Local\Temp\ccoWw0TN.s:30     .text.User_Printf_Init:00000000 User_Printf_Init
C:\Users\57308\AppData\Local\Temp\ccoWw0TN.s:70     .text.User_Printf_Init:0000002c $d
C:\Users\57308\AppData\Local\Temp\ccoWw0TN.s:76     .text.readline_fromPC:00000000 $t
C:\Users\57308\AppData\Local\Temp\ccoWw0TN.s:82     .text.readline_fromPC:00000000 readline_fromPC
C:\Users\57308\AppData\Local\Temp\ccoWw0TN.s:162    .bss.downBuffer:00000000 downBuffer
C:\Users\57308\AppData\Local\Temp\ccoWw0TN.s:158    .bss.downBuffer:00000000 $d

UNDEFINED SYMBOLS
SEGGER_RTT_ConfigUpBuffer
SEGGER_RTT_ConfigDownBuffer
memset
SEGGER_RTT_HasKey
SEGGER_RTT_GetKey
