ARM GAS  C:\Users\ADMINI~1\AppData\Local\Temp\ccj35Tsi.s 			page 1


   1              		.cpu cortex-m4
   2              		.eabi_attribute 27, 1
   3              		.eabi_attribute 28, 1
   4              		.eabi_attribute 20, 1
   5              		.eabi_attribute 21, 1
   6              		.eabi_attribute 23, 3
   7              		.eabi_attribute 24, 1
   8              		.eabi_attribute 25, 1
   9              		.eabi_attribute 26, 1
  10              		.eabi_attribute 30, 1
  11              		.eabi_attribute 34, 1
  12              		.eabi_attribute 18, 4
  13              		.file	"protocol_msgmap.c"
  14              		.text
  15              	.Ltext0:
  16              		.cfi_sections	.debug_frame
  17              		.section	.text.write_opt,"ax",%progbits
  18              		.align	1
  19              		.arch armv7e-m
  20              		.syntax unified
  21              		.thumb
  22              		.thumb_func
  23              		.fpu fpv4-sp-d16
  25              	write_opt:
  26              	.LVL0:
  27              	.LFB333:
  28              		.file 1 "../Protocol/protocol_msgmap.c"
   1:../Protocol/protocol_msgmap.c **** #include "protocol_cfg.h"
   2:../Protocol/protocol_msgmap.c **** #include "protocol_comment.h"
   3:../Protocol/protocol_msgmap.c **** /*
   4:../Protocol/protocol_msgmap.c **** 该文件需完善
   5:../Protocol/protocol_msgmap.c **** */
   6:../Protocol/protocol_msgmap.c **** static char pro_testfunc(cmdmsg_t *p,void *pdata,unsigned short datalen);
   7:../Protocol/protocol_msgmap.c **** static char write_opt(cmdmsg_t *p,void *pdata,unsigned short datalen);
   8:../Protocol/protocol_msgmap.c **** 
   9:../Protocol/protocol_msgmap.c **** static const cmdmsg_t sgMsgTable[] = {
  10:../Protocol/protocol_msgmap.c ****     [0] = {
  11:../Protocol/protocol_msgmap.c ****         .cmd = PRO_FUNC_TESTCMD01,        
  12:../Protocol/protocol_msgmap.c ****         .flagbit = CMD_EVENT_UNINVAIL,
  13:../Protocol/protocol_msgmap.c ****         .fnHandler = pro_testfunc,        
  14:../Protocol/protocol_msgmap.c ****     }, 
  15:../Protocol/protocol_msgmap.c ****     [1] = {
  16:../Protocol/protocol_msgmap.c ****         .cmd = PRO_FUNC_CMD02,        
  17:../Protocol/protocol_msgmap.c ****         .flagbit = CMD_EVENT_01,
  18:../Protocol/protocol_msgmap.c ****         .fnHandler = write_opt,
  19:../Protocol/protocol_msgmap.c ****     },
  20:../Protocol/protocol_msgmap.c ****     [2] = {
  21:../Protocol/protocol_msgmap.c ****         .cmd = PRO_FUNC_CMD03,        
  22:../Protocol/protocol_msgmap.c ****         .flagbit = CMD_EVENT_02,
  23:../Protocol/protocol_msgmap.c ****         .fnHandler = write_opt,        
  24:../Protocol/protocol_msgmap.c ****     },
  25:../Protocol/protocol_msgmap.c ****     [3] = {
  26:../Protocol/protocol_msgmap.c ****         .cmd = PRO_FUNC_CMD04,        
  27:../Protocol/protocol_msgmap.c ****         .flagbit = CMD_EVENT_02,
  28:../Protocol/protocol_msgmap.c ****         .fnHandler = write_opt,        
  29:../Protocol/protocol_msgmap.c ****     },        
  30:../Protocol/protocol_msgmap.c **** };
ARM GAS  C:\Users\ADMINI~1\AppData\Local\Temp\ccj35Tsi.s 			page 2


  31:../Protocol/protocol_msgmap.c **** 
  32:../Protocol/protocol_msgmap.c **** char pro_testfunc(cmdmsg_t *p,void *pdata,unsigned short datalen)
  33:../Protocol/protocol_msgmap.c **** {
  34:../Protocol/protocol_msgmap.c ****     float data;
  35:../Protocol/protocol_msgmap.c ****     data = *(float *)pdata;
  36:../Protocol/protocol_msgmap.c ****     ipc_write_data(PUBLIC_DATA_IQ_TARGET,data);
  37:../Protocol/protocol_msgmap.c ****     IPC_SET_EVENT(gEventGroup,IPC_SET_IQ);
  38:../Protocol/protocol_msgmap.c ****     return 1;
  39:../Protocol/protocol_msgmap.c **** }
  40:../Protocol/protocol_msgmap.c **** 
  41:../Protocol/protocol_msgmap.c **** char write_opt(cmdmsg_t *p,void *pdata,unsigned short datalen)
  42:../Protocol/protocol_msgmap.c **** {
  29              		.loc 1 42 1 view -0
  30              		.cfi_startproc
  31              		@ args = 0, pretend = 0, frame = 0
  32              		@ frame_needed = 0, uses_anonymous_args = 0
  33              		.loc 1 42 1 is_stmt 0 view .LVU1
  34 0000 10B5     		push	{r4, lr}
  35              	.LCFI0:
  36              		.cfi_def_cfa_offset 8
  37              		.cfi_offset 4, -8
  38              		.cfi_offset 14, -4
  39 0002 0446     		mov	r4, r0
  43:../Protocol/protocol_msgmap.c ****     if (p->cmd == PRO_FUNC_CMD02)
  40              		.loc 1 43 5 is_stmt 1 view .LVU2
  41              		.loc 1 43 10 is_stmt 0 view .LVU3
  42 0004 0388     		ldrh	r3, [r0]
  43              		.loc 1 43 8 view .LVU4
  44 0006 022B     		cmp	r3, #2
  45 0008 07D0     		beq	.L6
  46              	.LVL1:
  47              	.L2:
  44:../Protocol/protocol_msgmap.c ****     {
  45:../Protocol/protocol_msgmap.c ****         /* code */
  46:../Protocol/protocol_msgmap.c ****         ipc_write_data(PUBLIC_DATA_IQ_TARGET,1.2f);
  47:../Protocol/protocol_msgmap.c ****     }
  48:../Protocol/protocol_msgmap.c ****     if (p->cmd == PRO_FUNC_CMD03)
  48              		.loc 1 48 5 is_stmt 1 view .LVU5
  49              		.loc 1 48 10 is_stmt 0 view .LVU6
  50 000a 2388     		ldrh	r3, [r4]
  51              		.loc 1 48 8 view .LVU7
  52 000c 032B     		cmp	r3, #3
  53 000e 0AD0     		beq	.L7
  54              	.L3:
  49:../Protocol/protocol_msgmap.c ****     {
  50:../Protocol/protocol_msgmap.c ****         /* code */
  51:../Protocol/protocol_msgmap.c ****         ipc_write_data(PUBLIC_DATA_IQ_TARGET,0.5f);
  52:../Protocol/protocol_msgmap.c ****     }
  53:../Protocol/protocol_msgmap.c ****     if (p->cmd == PRO_FUNC_CMD04)
  55              		.loc 1 53 5 is_stmt 1 view .LVU8
  56              		.loc 1 53 10 is_stmt 0 view .LVU9
  57 0010 2388     		ldrh	r3, [r4]
  58              		.loc 1 53 8 view .LVU10
  59 0012 042B     		cmp	r3, #4
  60 0014 0DD0     		beq	.L8
  61              	.L4:
  54:../Protocol/protocol_msgmap.c ****     {
ARM GAS  C:\Users\ADMINI~1\AppData\Local\Temp\ccj35Tsi.s 			page 3


  55:../Protocol/protocol_msgmap.c ****         /* code */
  56:../Protocol/protocol_msgmap.c ****         ipc_write_data(PUBLIC_DATA_IQ_TARGET,-0.5f);
  57:../Protocol/protocol_msgmap.c ****     }    
  58:../Protocol/protocol_msgmap.c ****     return 0;
  62              		.loc 1 58 5 is_stmt 1 view .LVU11
  59:../Protocol/protocol_msgmap.c **** }
  63              		.loc 1 59 1 is_stmt 0 view .LVU12
  64 0016 0020     		movs	r0, #0
  65 0018 10BD     		pop	{r4, pc}
  66              	.LVL2:
  67              	.L6:
  46:../Protocol/protocol_msgmap.c ****     }
  68              		.loc 1 46 9 is_stmt 1 view .LVU13
  69 001a 9FED090A 		vldr.32	s0, .L9
  70 001e 0120     		movs	r0, #1
  71              	.LVL3:
  46:../Protocol/protocol_msgmap.c ****     }
  72              		.loc 1 46 9 is_stmt 0 view .LVU14
  73 0020 FFF7FEFF 		bl	ipc_write_data
  74              	.LVL4:
  46:../Protocol/protocol_msgmap.c ****     }
  75              		.loc 1 46 9 view .LVU15
  76 0024 F1E7     		b	.L2
  77              	.L7:
  51:../Protocol/protocol_msgmap.c ****     }
  78              		.loc 1 51 9 is_stmt 1 view .LVU16
  79 0026 B6EE000A 		vmov.f32	s0, #5.0e-1
  80 002a 0120     		movs	r0, #1
  81 002c FFF7FEFF 		bl	ipc_write_data
  82              	.LVL5:
  83 0030 EEE7     		b	.L3
  84              	.L8:
  56:../Protocol/protocol_msgmap.c ****     }    
  85              		.loc 1 56 9 view .LVU17
  86 0032 BEEE000A 		vmov.f32	s0, #-5.0e-1
  87 0036 0120     		movs	r0, #1
  88 0038 FFF7FEFF 		bl	ipc_write_data
  89              	.LVL6:
  90 003c EBE7     		b	.L4
  91              	.L10:
  92 003e 00BF     		.align	2
  93              	.L9:
  94 0040 9A99993F 		.word	1067030938
  95              		.cfi_endproc
  96              	.LFE333:
  98              		.section	.text.pro_testfunc,"ax",%progbits
  99              		.align	1
 100              		.syntax unified
 101              		.thumb
 102              		.thumb_func
 103              		.fpu fpv4-sp-d16
 105              	pro_testfunc:
 106              	.LVL7:
 107              	.LFB332:
  33:../Protocol/protocol_msgmap.c ****     float data;
 108              		.loc 1 33 1 view -0
 109              		.cfi_startproc
ARM GAS  C:\Users\ADMINI~1\AppData\Local\Temp\ccj35Tsi.s 			page 4


 110              		@ args = 0, pretend = 0, frame = 0
 111              		@ frame_needed = 0, uses_anonymous_args = 0
  33:../Protocol/protocol_msgmap.c ****     float data;
 112              		.loc 1 33 1 is_stmt 0 view .LVU19
 113 0000 08B5     		push	{r3, lr}
 114              	.LCFI1:
 115              		.cfi_def_cfa_offset 8
 116              		.cfi_offset 3, -8
 117              		.cfi_offset 14, -4
  34:../Protocol/protocol_msgmap.c ****     data = *(float *)pdata;
 118              		.loc 1 34 5 is_stmt 1 view .LVU20
  35:../Protocol/protocol_msgmap.c ****     ipc_write_data(PUBLIC_DATA_IQ_TARGET,data);
 119              		.loc 1 35 5 view .LVU21
 120              	.LVL8:
  36:../Protocol/protocol_msgmap.c ****     IPC_SET_EVENT(gEventGroup,IPC_SET_IQ);
 121              		.loc 1 36 5 view .LVU22
 122 0002 91ED000A 		vldr.32	s0, [r1]
 123 0006 0120     		movs	r0, #1
 124              	.LVL9:
  36:../Protocol/protocol_msgmap.c ****     IPC_SET_EVENT(gEventGroup,IPC_SET_IQ);
 125              		.loc 1 36 5 is_stmt 0 view .LVU23
 126 0008 FFF7FEFF 		bl	ipc_write_data
 127              	.LVL10:
  37:../Protocol/protocol_msgmap.c ****     return 1;
 128              		.loc 1 37 5 is_stmt 1 view .LVU24
 129 000c 034A     		ldr	r2, .L13
 130 000e 1368     		ldr	r3, [r2]
 131 0010 43F00203 		orr	r3, r3, #2
 132 0014 1360     		str	r3, [r2]
  38:../Protocol/protocol_msgmap.c **** }
 133              		.loc 1 38 5 view .LVU25
  39:../Protocol/protocol_msgmap.c **** 
 134              		.loc 1 39 1 is_stmt 0 view .LVU26
 135 0016 0120     		movs	r0, #1
 136 0018 08BD     		pop	{r3, pc}
 137              	.L14:
 138 001a 00BF     		.align	2
 139              	.L13:
 140 001c 00000000 		.word	gEventGroup
 141              		.cfi_endproc
 142              	.LFE332:
 144              		.section	.text.search_msgmap,"ax",%progbits
 145              		.align	1
 146              		.global	search_msgmap
 147              		.syntax unified
 148              		.thumb
 149              		.thumb_func
 150              		.fpu fpv4-sp-d16
 152              	search_msgmap:
 153              	.LVL11:
 154              	.LFB334:
  60:../Protocol/protocol_msgmap.c **** 
  61:../Protocol/protocol_msgmap.c **** char search_msgmap(unsigned char cmd,
  62:../Protocol/protocol_msgmap.c ****                    void *pData,
  63:../Protocol/protocol_msgmap.c ****                    unsigned short hwSize)
  64:../Protocol/protocol_msgmap.c **** {
 155              		.loc 1 64 1 is_stmt 1 view -0
ARM GAS  C:\Users\ADMINI~1\AppData\Local\Temp\ccj35Tsi.s 			page 5


 156              		.cfi_startproc
 157              		@ args = 0, pretend = 0, frame = 0
 158              		@ frame_needed = 0, uses_anonymous_args = 0
 159              		.loc 1 64 1 is_stmt 0 view .LVU28
 160 0000 10B5     		push	{r4, lr}
 161              	.LCFI2:
 162              		.cfi_def_cfa_offset 8
 163              		.cfi_offset 4, -8
 164              		.cfi_offset 14, -4
 165 0002 8646     		mov	lr, r0
  65:../Protocol/protocol_msgmap.c ****     for (int n = 0; n < dimof(sgMsgTable); n++) {
 166              		.loc 1 65 5 is_stmt 1 view .LVU29
 167              	.LBB2:
 168              		.loc 1 65 10 view .LVU30
 169              	.LVL12:
 170              		.loc 1 65 14 is_stmt 0 view .LVU31
 171 0004 0023     		movs	r3, #0
 172              	.LVL13:
 173              	.L16:
 174              		.loc 1 65 21 is_stmt 1 discriminator 1 view .LVU32
 175              		.loc 1 65 5 is_stmt 0 discriminator 1 view .LVU33
 176 0006 032B     		cmp	r3, #3
 177 0008 0FD8     		bhi	.L21
 178              	.LBB3:
  66:../Protocol/protocol_msgmap.c ****         const cmdmsg_t *ptItem = &sgMsgTable[n];
 179              		.loc 1 66 9 is_stmt 1 view .LVU34
 180              		.loc 1 66 25 is_stmt 0 view .LVU35
 181 000a 094C     		ldr	r4, .L22
 182 000c 04EBC300 		add	r0, r4, r3, lsl #3
 183              	.LVL14:
  67:../Protocol/protocol_msgmap.c ****         if (cmd != ptItem->cmd) {
 184              		.loc 1 67 9 is_stmt 1 view .LVU36
 185              		.loc 1 67 17 is_stmt 0 view .LVU37
 186 0010 1FFA8EFC 		uxth	ip, lr
 187              		.loc 1 67 26 view .LVU38
 188 0014 34F83340 		ldrh	r4, [r4, r3, lsl #3]
 189              		.loc 1 67 12 view .LVU39
 190 0018 A445     		cmp	ip, r4
 191 001a 04D1     		bne	.L17
  68:../Protocol/protocol_msgmap.c ****             continue;
  69:../Protocol/protocol_msgmap.c ****         }
  70:../Protocol/protocol_msgmap.c ****         if (NULL == ptItem->fnHandler) {
 192              		.loc 1 70 9 is_stmt 1 view .LVU40
 193              		.loc 1 70 27 is_stmt 0 view .LVU41
 194 001c 4468     		ldr	r4, [r0, #4]
 195              		.loc 1 70 12 view .LVU42
 196 001e 14B1     		cbz	r4, .L17
  71:../Protocol/protocol_msgmap.c ****             continue; 
  72:../Protocol/protocol_msgmap.c ****         }
  73:../Protocol/protocol_msgmap.c ****         ptItem->fnHandler((cmdmsg_t *)ptItem, pData, hwSize); 
 197              		.loc 1 73 9 is_stmt 1 view .LVU43
 198 0020 A047     		blx	r4
 199              	.LVL15:
  74:../Protocol/protocol_msgmap.c ****         return 1;
 200              		.loc 1 74 9 view .LVU44
 201              		.loc 1 74 16 is_stmt 0 view .LVU45
 202 0022 0120     		movs	r0, #1
ARM GAS  C:\Users\ADMINI~1\AppData\Local\Temp\ccj35Tsi.s 			page 6


 203              	.L18:
 204              		.loc 1 74 16 view .LVU46
 205              	.LBE3:
 206              	.LBE2:
  75:../Protocol/protocol_msgmap.c ****     }    
  76:../Protocol/protocol_msgmap.c ****     return false;   //!< 没找到对应的消息
  77:../Protocol/protocol_msgmap.c **** }
 207              		.loc 1 77 1 view .LVU47
 208 0024 10BD     		pop	{r4, pc}
 209              	.LVL16:
 210              	.L17:
 211              	.LBB4:
  65:../Protocol/protocol_msgmap.c ****         const cmdmsg_t *ptItem = &sgMsgTable[n];
 212              		.loc 1 65 44 is_stmt 1 discriminator 2 view .LVU48
  65:../Protocol/protocol_msgmap.c ****         const cmdmsg_t *ptItem = &sgMsgTable[n];
 213              		.loc 1 65 45 is_stmt 0 discriminator 2 view .LVU49
 214 0026 0133     		adds	r3, r3, #1
 215              	.LVL17:
  65:../Protocol/protocol_msgmap.c ****         const cmdmsg_t *ptItem = &sgMsgTable[n];
 216              		.loc 1 65 45 discriminator 2 view .LVU50
 217 0028 EDE7     		b	.L16
 218              	.LVL18:
 219              	.L21:
  65:../Protocol/protocol_msgmap.c ****         const cmdmsg_t *ptItem = &sgMsgTable[n];
 220              		.loc 1 65 45 discriminator 2 view .LVU51
 221              	.LBE4:
  76:../Protocol/protocol_msgmap.c **** }
 222              		.loc 1 76 12 view .LVU52
 223 002a 0020     		movs	r0, #0
 224 002c FAE7     		b	.L18
 225              	.L23:
 226 002e 00BF     		.align	2
 227              	.L22:
 228 0030 00000000 		.word	.LANCHOR0
 229              		.cfi_endproc
 230              	.LFE334:
 232              		.section	.text.search_msgmap_event,"ax",%progbits
 233              		.align	1
 234              		.global	search_msgmap_event
 235              		.syntax unified
 236              		.thumb
 237              		.thumb_func
 238              		.fpu fpv4-sp-d16
 240              	search_msgmap_event:
 241              	.LVL19:
 242              	.LFB335:
  78:../Protocol/protocol_msgmap.c **** 
  79:../Protocol/protocol_msgmap.c **** short search_msgmap_event(unsigned char cmd)
  80:../Protocol/protocol_msgmap.c **** {
 243              		.loc 1 80 1 is_stmt 1 view -0
 244              		.cfi_startproc
 245              		@ args = 0, pretend = 0, frame = 0
 246              		@ frame_needed = 0, uses_anonymous_args = 0
 247              		@ link register save eliminated.
  81:../Protocol/protocol_msgmap.c ****     const cmdmsg_t *ptItem ;
 248              		.loc 1 81 5 view .LVU54
  82:../Protocol/protocol_msgmap.c ****     for (int n = 0; n < dimof(sgMsgTable); n++) 
ARM GAS  C:\Users\ADMINI~1\AppData\Local\Temp\ccj35Tsi.s 			page 7


 249              		.loc 1 82 5 view .LVU55
 250              	.LBB5:
 251              		.loc 1 82 10 view .LVU56
 252              		.loc 1 82 14 is_stmt 0 view .LVU57
 253 0000 0023     		movs	r3, #0
 254              	.LVL20:
 255              	.L25:
 256              		.loc 1 82 21 is_stmt 1 discriminator 1 view .LVU58
 257              		.loc 1 82 5 is_stmt 0 discriminator 1 view .LVU59
 258 0002 032B     		cmp	r3, #3
 259 0004 0DD8     		bhi	.L29
  83:../Protocol/protocol_msgmap.c ****     {
  84:../Protocol/protocol_msgmap.c ****         ptItem = &sgMsgTable[n];
 260              		.loc 1 84 9 is_stmt 1 view .LVU60
 261              	.LVL21:
  85:../Protocol/protocol_msgmap.c ****         if (cmd != ptItem->cmd) {
 262              		.loc 1 85 9 view .LVU61
 263              		.loc 1 85 17 is_stmt 0 view .LVU62
 264 0006 82B2     		uxth	r2, r0
 265              		.loc 1 85 26 view .LVU63
 266 0008 0749     		ldr	r1, .L31
 267 000a 31F83310 		ldrh	r1, [r1, r3, lsl #3]
 268              		.loc 1 85 12 view .LVU64
 269 000e 8A42     		cmp	r2, r1
 270 0010 05D1     		bne	.L30
  86:../Protocol/protocol_msgmap.c ****             continue;
  87:../Protocol/protocol_msgmap.c ****         }
  88:../Protocol/protocol_msgmap.c ****         return ptItem->flagbit;
 271              		.loc 1 88 9 is_stmt 1 view .LVU65
 272              		.loc 1 88 22 is_stmt 0 view .LVU66
 273 0012 054A     		ldr	r2, .L31
 274 0014 02EBC303 		add	r3, r2, r3, lsl #3
 275              	.LVL22:
 276              		.loc 1 88 22 view .LVU67
 277 0018 93F90200 		ldrsb	r0, [r3, #2]
 278              	.LVL23:
 279              		.loc 1 88 22 view .LVU68
 280 001c 7047     		bx	lr
 281              	.LVL24:
 282              	.L30:
  86:../Protocol/protocol_msgmap.c ****             continue;
 283              		.loc 1 86 13 is_stmt 1 view .LVU69
  82:../Protocol/protocol_msgmap.c ****     {
 284              		.loc 1 82 44 view .LVU70
  82:../Protocol/protocol_msgmap.c ****     {
 285              		.loc 1 82 45 is_stmt 0 view .LVU71
 286 001e 0133     		adds	r3, r3, #1
 287              	.LVL25:
  82:../Protocol/protocol_msgmap.c ****     {
 288              		.loc 1 82 45 view .LVU72
 289 0020 EFE7     		b	.L25
 290              	.LVL26:
 291              	.L29:
  82:../Protocol/protocol_msgmap.c ****     {
 292              		.loc 1 82 45 view .LVU73
 293              	.LBE5:
  89:../Protocol/protocol_msgmap.c ****     }
ARM GAS  C:\Users\ADMINI~1\AppData\Local\Temp\ccj35Tsi.s 			page 8


  90:../Protocol/protocol_msgmap.c ****     return 0;
 294              		.loc 1 90 12 view .LVU74
 295 0022 0020     		movs	r0, #0
 296              	.LVL27:
  91:../Protocol/protocol_msgmap.c **** 
  92:../Protocol/protocol_msgmap.c **** }
 297              		.loc 1 92 1 view .LVU75
 298 0024 7047     		bx	lr
 299              	.L32:
 300 0026 00BF     		.align	2
 301              	.L31:
 302 0028 00000000 		.word	.LANCHOR0
 303              		.cfi_endproc
 304              	.LFE335:
 306              		.section	.rodata.sgMsgTable,"a"
 307              		.align	2
 308              		.set	.LANCHOR0,. + 0
 311              	sgMsgTable:
 312 0000 0100     		.short	1
 313 0002 FF       		.byte	-1
 314 0003 00       		.space	1
 315 0004 00000000 		.word	pro_testfunc
 316 0008 0200     		.short	2
 317 000a 00       		.byte	0
 318 000b 00       		.space	1
 319 000c 00000000 		.word	write_opt
 320 0010 0300     		.short	3
 321 0012 01       		.byte	1
 322 0013 00       		.space	1
 323 0014 00000000 		.word	write_opt
 324 0018 0400     		.short	4
 325 001a 01       		.byte	1
 326 001b 00       		.space	1
 327 001c 00000000 		.word	write_opt
 328              		.text
 329              	.Letext0:
 330              		.file 2 "../Public/IPC/ipc.h"
 331              		.file 3 "../Protocol/protocol.h"
 332              		.file 4 "../Protocol/protocol_comment.h"
ARM GAS  C:\Users\ADMINI~1\AppData\Local\Temp\ccj35Tsi.s 			page 9

