ARM GAS  C:\Users\zhangge\AppData\Local\Temp\ccSwmZ4a.s 			page 1


   1              		.cpu cortex-m4
   2              		.arch armv7e-m
   3              		.fpu fpv4-sp-d16
   4              		.eabi_attribute 27, 1
   5              		.eabi_attribute 28, 1
   6              		.eabi_attribute 20, 1
   7              		.eabi_attribute 21, 1
   8              		.eabi_attribute 23, 3
   9              		.eabi_attribute 24, 1
  10              		.eabi_attribute 25, 1
  11              		.eabi_attribute 26, 1
  12              		.eabi_attribute 30, 1
  13              		.eabi_attribute 34, 1
  14              		.eabi_attribute 18, 4
  15              		.file	"protocol.c"
  16              		.text
  17              	.Ltext0:
  18              		.cfi_sections	.debug_frame
  19              		.section	.text.protocol_reciverdata_tofifo,"ax",%progbits
  20              		.align	1
  21              		.global	protocol_reciverdata_tofifo
  22              		.syntax unified
  23              		.thumb
  24              		.thumb_func
  26              	protocol_reciverdata_tofifo:
  27              	.LVL0:
  28              	.LFB0:
  29              		.file 1 "../Protocol/protocol.c"
   1:../Protocol/protocol.c **** /*-----------------------------模块提交说明--------------------------------------
   2:../Protocol/protocol.c **** 优化了消息地图的命名
   3:../Protocol/protocol.c ****     1、复位之后，发送第一条测试指令，如果0B指令先响应，则有内存断言失败情况出现
   4:../Protocol/protocol.c ****         但不会死机。
   5:../Protocol/protocol.c **** 
   6:../Protocol/protocol.c **** 1、测试协议重发流程
   7:../Protocol/protocol.c ****     1、使用串口助手发送
   8:../Protocol/protocol.c ****         5A A5 00 01 00 27 92 FE FE指令，触发数据重发功能
   9:../Protocol/protocol.c ****     2、观察串口助手的打印数据    
  10:../Protocol/protocol.c ****         可以观察到有两组命令同时在发送
  11:../Protocol/protocol.c **** 
  12:../Protocol/protocol.c ****         1、使用串口助手发送5A A5 02 0A 00 08 CD CC CC 40 33 33 13 40 44 71 FE FE/5A A5 00 0B 00 08 
  13:../Protocol/protocol.c ****             可观察到对应的命令停止发送
  14:../Protocol/protocol.c **** 
  15:../Protocol/protocol.c **** 2、存在的问题点 1、申请内存失败存在
  16:../Protocol/protocol.c ****                2、状态机调度过程中会发生hardfalt
  17:../Protocol/protocol.c **** 3、结论：
  18:../Protocol/protocol.c ****     该例程基本上可以实现消息的非阻塞式重发功能，但还需继续优化
  19:../Protocol/protocol.c **** */
  20:../Protocol/protocol.c **** #include "protocol_comment.h"
  21:../Protocol/protocol.c **** #include "protocol_cfg.h"
  22:../Protocol/protocol.c **** #include "protocol.h"
  23:../Protocol/protocol.c **** /*-------------------------------FIFO组件------------------------------------------*/
  24:../Protocol/protocol.c **** static unsigned char fifo_receive_buff[PRO_FIFO_SIZE];//fifo数据缓存区
  25:../Protocol/protocol.c **** static byte_fifo_t protocol_fifo_handle;//fifo控制块
  26:../Protocol/protocol.c **** 
  27:../Protocol/protocol.c **** _list_t *gtransmit_list;
  28:../Protocol/protocol.c **** unsigned short g_protocol_event;
  29:../Protocol/protocol.c **** /*-------------------------------协议间同步事件-----------------------------*/
ARM GAS  C:\Users\zhangge\AppData\Local\Temp\ccSwmZ4a.s 			page 2


  30:../Protocol/protocol.c **** 
  31:../Protocol/protocol.c **** /**************************************************************************************************
  32:../Protocol/protocol.c **** ** Function name(函数名称):				protocol_reciverdata_tofifo()
  33:../Protocol/protocol.c **** **
  34:../Protocol/protocol.c **** ** Descriptions（描述）:				接收一帧数据给FIFO组件
  35:../Protocol/protocol.c **** **
  36:../Protocol/protocol.c **** ** input parameters（输入参数）:		len:一帧数据长度(包含帧头、帧尾)
  37:../Protocol/protocol.c **** ** Returned value（返回值）:				0:成功
  38:../Protocol/protocol.c **** **
  39:../Protocol/protocol.c **** ** Calling modules（调用模块）:			fifo.c/h
  40:../Protocol/protocol.c **** ***************************************************************************************************
  41:../Protocol/protocol.c **** unsigned char protocol_reciverdata_tofifo(unsigned char *pdata,unsigned short len)
  42:../Protocol/protocol.c **** {
  30              		.loc 1 42 1 view -0
  31              		.cfi_startproc
  32              		@ args = 0, pretend = 0, frame = 0
  33              		@ frame_needed = 0, uses_anonymous_args = 0
  34              		.loc 1 42 1 is_stmt 0 view .LVU1
  35 0000 08B5     		push	{r3, lr}
  36              	.LCFI0:
  37              		.cfi_def_cfa_offset 8
  38              		.cfi_offset 3, -8
  39              		.cfi_offset 14, -4
  40 0002 0A46     		mov	r2, r1
  43:../Protocol/protocol.c **** 	bytefifo_writemulitebyge(&protocol_fifo_handle,pdata,len);
  41              		.loc 1 43 2 is_stmt 1 view .LVU2
  42 0004 0146     		mov	r1, r0
  43              	.LVL1:
  44              		.loc 1 43 2 is_stmt 0 view .LVU3
  45 0006 0248     		ldr	r0, .L3
  46              	.LVL2:
  47              		.loc 1 43 2 view .LVU4
  48 0008 FFF7FEFF 		bl	bytefifo_writemulitebyge
  49              	.LVL3:
  44:../Protocol/protocol.c **** 	return 0;
  50              		.loc 1 44 2 is_stmt 1 view .LVU5
  45:../Protocol/protocol.c **** }
  51              		.loc 1 45 1 is_stmt 0 view .LVU6
  52 000c 0020     		movs	r0, #0
  53 000e 08BD     		pop	{r3, pc}
  54              	.L4:
  55              		.align	2
  56              	.L3:
  57 0010 00000000 		.word	.LANCHOR0
  58              		.cfi_endproc
  59              	.LFE0:
  61              		.section	.text._get_framedata_fromfifo,"ax",%progbits
  62              		.align	1
  63              		.global	_get_framedata_fromfifo
  64              		.syntax unified
  65              		.thumb
  66              		.thumb_func
  68              	_get_framedata_fromfifo:
  69              	.LVL4:
  70              	.LFB1:
  46:../Protocol/protocol.c **** char _get_framedata_fromfifo(unsigned char *pbuf,unsigned short *pframe_len)
  47:../Protocol/protocol.c **** {
ARM GAS  C:\Users\zhangge\AppData\Local\Temp\ccSwmZ4a.s 			page 3


  71              		.loc 1 47 1 is_stmt 1 view -0
  72              		.cfi_startproc
  73              		@ args = 0, pretend = 0, frame = 8
  74              		@ frame_needed = 0, uses_anonymous_args = 0
  75              		.loc 1 47 1 is_stmt 0 view .LVU8
  76 0000 F0B5     		push	{r4, r5, r6, r7, lr}
  77              	.LCFI1:
  78              		.cfi_def_cfa_offset 20
  79              		.cfi_offset 4, -20
  80              		.cfi_offset 5, -16
  81              		.cfi_offset 6, -12
  82              		.cfi_offset 7, -8
  83              		.cfi_offset 14, -4
  84 0002 83B0     		sub	sp, sp, #12
  85              	.LCFI2:
  86              		.cfi_def_cfa_offset 32
  87 0004 0646     		mov	r6, r0
  88 0006 0F46     		mov	r7, r1
  48:../Protocol/protocol.c ****     enum {
  89              		.loc 1 48 5 is_stmt 1 view .LVU9
  49:../Protocol/protocol.c ****         START,
  50:../Protocol/protocol.c ****         FIRST ,
  51:../Protocol/protocol.c ****         SECOND,
  52:../Protocol/protocol.c ****         IDLE ,			
  53:../Protocol/protocol.c ****     };
  54:../Protocol/protocol.c ****     unsigned short index = 0;	
  90              		.loc 1 54 5 view .LVU10
  91              	.LVL5:
  55:../Protocol/protocol.c ****     unsigned char data;
  92              		.loc 1 55 5 view .LVU11
  56:../Protocol/protocol.c ****     unsigned char chState = START;
  93              		.loc 1 56 5 view .LVU12
  57:../Protocol/protocol.c ****            
  58:../Protocol/protocol.c ****     switch (chState)
  94              		.loc 1 58 5 view .LVU13
  59:../Protocol/protocol.c ****     {
  60:../Protocol/protocol.c ****     case START:
  61:../Protocol/protocol.c ****         chState = FIRST;
  95              		.loc 1 61 9 view .LVU14
  62:../Protocol/protocol.c ****     case FIRST:
  63:../Protocol/protocol.c ****         bytefifo_readmulintebyte(&protocol_fifo_handle,&data,1);
  96              		.loc 1 63 9 view .LVU15
  97 0008 0122     		movs	r2, #1
  98 000a 0DF10701 		add	r1, sp, #7
  99              	.LVL6:
 100              		.loc 1 63 9 is_stmt 0 view .LVU16
 101 000e 2248     		ldr	r0, .L17
 102              	.LVL7:
 103              		.loc 1 63 9 view .LVU17
 104 0010 FFF7FEFF 		bl	bytefifo_readmulintebyte
 105              	.LVL8:
  64:../Protocol/protocol.c ****         if(data == (unsigned char)(PRO_FRAME_HEAD>>8))
 106              		.loc 1 64 9 is_stmt 1 view .LVU18
 107              		.loc 1 64 17 is_stmt 0 view .LVU19
 108 0014 9DF80730 		ldrb	r3, [sp, #7]	@ zero_extendqisi2
 109              		.loc 1 64 11 view .LVU20
 110 0018 5A2B     		cmp	r3, #90
ARM GAS  C:\Users\zhangge\AppData\Local\Temp\ccSwmZ4a.s 			page 4


 111 001a 02D0     		beq	.L14
  65:../Protocol/protocol.c ****         {
  66:../Protocol/protocol.c ****             pbuf[index++] = data;
  67:../Protocol/protocol.c ****             data = 0;
  68:../Protocol/protocol.c ****             chState = SECOND;
  69:../Protocol/protocol.c ****         }else{
  70:../Protocol/protocol.c ****             index = 0;
  71:../Protocol/protocol.c ****             chState = START;
  72:../Protocol/protocol.c ****             break;
  73:../Protocol/protocol.c ****         }
  74:../Protocol/protocol.c ****     case SECOND:
  75:../Protocol/protocol.c ****         bytefifo_readmulintebyte(&protocol_fifo_handle,&data,1);
  76:../Protocol/protocol.c ****         if(data == (unsigned char)(PRO_FRAME_HEAD))
  77:../Protocol/protocol.c ****         {
  78:../Protocol/protocol.c ****             chState = IDLE;
  79:../Protocol/protocol.c ****             pbuf[index++] = data;
  80:../Protocol/protocol.c ****         }else{
  81:../Protocol/protocol.c ****             chState = START;
  82:../Protocol/protocol.c ****             break;
  83:../Protocol/protocol.c ****         }
  84:../Protocol/protocol.c ****         case IDLE:
  85:../Protocol/protocol.c ****             do
  86:../Protocol/protocol.c ****             {
  87:../Protocol/protocol.c ****                 if(index >= PRO_FRAME_MAX_SIZE)
  88:../Protocol/protocol.c ****                 {
  89:../Protocol/protocol.c ****                     /* code */
  90:../Protocol/protocol.c ****                     *pframe_len = 0;
  91:../Protocol/protocol.c ****                     index = 0;
  92:../Protocol/protocol.c ****                     chState = START;//获取到完整的数据帧  复位状态机
  93:../Protocol/protocol.c ****                     return 1;
  94:../Protocol/protocol.c ****                 }
  95:../Protocol/protocol.c ****                 bytefifo_readmulintebyte(&protocol_fifo_handle,&data,1);
  96:../Protocol/protocol.c ****                 pbuf[index++] = data;
  97:../Protocol/protocol.c ****                 if(data == (unsigned char)(PRO_FRAME_TAIL>>8))
  98:../Protocol/protocol.c ****                 {
  99:../Protocol/protocol.c ****                     data = 0;
 100:../Protocol/protocol.c ****                     bytefifo_readmulintebyte(&protocol_fifo_handle,&data,1);
 101:../Protocol/protocol.c ****                     pbuf[index++] = data;
 102:../Protocol/protocol.c ****                     if (data == (unsigned char)(PRO_FRAME_TAIL>>8))
 103:../Protocol/protocol.c ****                     {
 104:../Protocol/protocol.c ****                         /* code */
 105:../Protocol/protocol.c ****                         *pframe_len = index;
 106:../Protocol/protocol.c ****                         index = 0;
 107:../Protocol/protocol.c ****                         chState = START;//获取到完整的数据帧  复位状态机
 108:../Protocol/protocol.c ****                         return 0;
 109:../Protocol/protocol.c ****                     }
 110:../Protocol/protocol.c ****                 }
 111:../Protocol/protocol.c ****             } while (1);
 112:../Protocol/protocol.c ****             break;
 113:../Protocol/protocol.c ****     default:
 114:../Protocol/protocol.c ****         break;
 115:../Protocol/protocol.c ****     }
 116:../Protocol/protocol.c ****     return 1;
 112              		.loc 1 116 12 view .LVU21
 113 001c 0120     		movs	r0, #1
 114              	.LVL9:
 115              	.L6:
ARM GAS  C:\Users\zhangge\AppData\Local\Temp\ccSwmZ4a.s 			page 5


 117:../Protocol/protocol.c **** }
 116              		.loc 1 117 1 view .LVU22
 117 001e 03B0     		add	sp, sp, #12
 118              	.LCFI3:
 119              		.cfi_remember_state
 120              		.cfi_def_cfa_offset 20
 121              		@ sp needed
 122 0020 F0BD     		pop	{r4, r5, r6, r7, pc}
 123              	.LVL10:
 124              	.L14:
 125              	.LCFI4:
 126              		.cfi_restore_state
  66:../Protocol/protocol.c ****             data = 0;
 127              		.loc 1 66 13 is_stmt 1 view .LVU23
  66:../Protocol/protocol.c ****             data = 0;
 128              		.loc 1 66 27 is_stmt 0 view .LVU24
 129 0022 3370     		strb	r3, [r6]
  67:../Protocol/protocol.c ****             chState = SECOND;
 130              		.loc 1 67 13 is_stmt 1 view .LVU25
  67:../Protocol/protocol.c ****             chState = SECOND;
 131              		.loc 1 67 18 is_stmt 0 view .LVU26
 132 0024 0023     		movs	r3, #0
 133 0026 8DF80730 		strb	r3, [sp, #7]
  68:../Protocol/protocol.c ****         }else{
 134              		.loc 1 68 13 is_stmt 1 view .LVU27
 135              	.LVL11:
  75:../Protocol/protocol.c ****         if(data == (unsigned char)(PRO_FRAME_HEAD))
 136              		.loc 1 75 9 view .LVU28
 137 002a 0122     		movs	r2, #1
 138 002c 0DF10701 		add	r1, sp, #7
 139 0030 1948     		ldr	r0, .L17
 140 0032 FFF7FEFF 		bl	bytefifo_readmulintebyte
 141              	.LVL12:
  76:../Protocol/protocol.c ****         {
 142              		.loc 1 76 9 view .LVU29
  76:../Protocol/protocol.c ****         {
 143              		.loc 1 76 17 is_stmt 0 view .LVU30
 144 0036 9DF80730 		ldrb	r3, [sp, #7]	@ zero_extendqisi2
  76:../Protocol/protocol.c ****         {
 145              		.loc 1 76 11 view .LVU31
 146 003a A52B     		cmp	r3, #165
 147 003c 01D0     		beq	.L15
 116:../Protocol/protocol.c **** }
 148              		.loc 1 116 12 view .LVU32
 149 003e 0120     		movs	r0, #1
 150 0040 EDE7     		b	.L6
 151              	.L15:
  78:../Protocol/protocol.c ****             pbuf[index++] = data;
 152              		.loc 1 78 13 is_stmt 1 view .LVU33
 153              	.LVL13:
  79:../Protocol/protocol.c ****         }else{
 154              		.loc 1 79 13 view .LVU34
  79:../Protocol/protocol.c ****         }else{
 155              		.loc 1 79 27 is_stmt 0 view .LVU35
 156 0042 7370     		strb	r3, [r6, #1]
 157 0044 0224     		movs	r4, #2
 158 0046 00E0     		b	.L8
ARM GAS  C:\Users\zhangge\AppData\Local\Temp\ccSwmZ4a.s 			page 6


 159              	.LVL14:
 160              	.L12:
  96:../Protocol/protocol.c ****                 if(data == (unsigned char)(PRO_FRAME_TAIL>>8))
 161              		.loc 1 96 27 view .LVU36
 162 0048 2C46     		mov	r4, r5
 163              	.LVL15:
 164              	.L8:
  85:../Protocol/protocol.c ****             {
 165              		.loc 1 85 13 is_stmt 1 view .LVU37
  87:../Protocol/protocol.c ****                 {
 166              		.loc 1 87 17 view .LVU38
  87:../Protocol/protocol.c ****                 {
 167              		.loc 1 87 19 is_stmt 0 view .LVU39
 168 004a FF2C     		cmp	r4, #255
 169 004c 1FD8     		bhi	.L16
  95:../Protocol/protocol.c ****                 pbuf[index++] = data;
 170              		.loc 1 95 17 is_stmt 1 view .LVU40
 171 004e 0122     		movs	r2, #1
 172 0050 0DF10701 		add	r1, sp, #7
 173 0054 1048     		ldr	r0, .L17
 174 0056 FFF7FEFF 		bl	bytefifo_readmulintebyte
 175              	.LVL16:
  96:../Protocol/protocol.c ****                 if(data == (unsigned char)(PRO_FRAME_TAIL>>8))
 176              		.loc 1 96 17 view .LVU41
  96:../Protocol/protocol.c ****                 if(data == (unsigned char)(PRO_FRAME_TAIL>>8))
 177              		.loc 1 96 27 is_stmt 0 view .LVU42
 178 005a 651C     		adds	r5, r4, #1
 179 005c ADB2     		uxth	r5, r5
 180              	.LVL17:
  96:../Protocol/protocol.c ****                 if(data == (unsigned char)(PRO_FRAME_TAIL>>8))
 181              		.loc 1 96 31 view .LVU43
 182 005e 9DF80730 		ldrb	r3, [sp, #7]	@ zero_extendqisi2
 183 0062 3355     		strb	r3, [r6, r4]
  97:../Protocol/protocol.c ****                 {
 184              		.loc 1 97 17 is_stmt 1 view .LVU44
  97:../Protocol/protocol.c ****                 {
 185              		.loc 1 97 19 is_stmt 0 view .LVU45
 186 0064 FE2B     		cmp	r3, #254
 187 0066 EFD1     		bne	.L12
  99:../Protocol/protocol.c ****                     bytefifo_readmulintebyte(&protocol_fifo_handle,&data,1);
 188              		.loc 1 99 21 is_stmt 1 view .LVU46
  99:../Protocol/protocol.c ****                     bytefifo_readmulintebyte(&protocol_fifo_handle,&data,1);
 189              		.loc 1 99 26 is_stmt 0 view .LVU47
 190 0068 0023     		movs	r3, #0
 191 006a 8DF80730 		strb	r3, [sp, #7]
 100:../Protocol/protocol.c ****                     pbuf[index++] = data;
 192              		.loc 1 100 21 is_stmt 1 view .LVU48
 193 006e 0122     		movs	r2, #1
 194 0070 0DF10701 		add	r1, sp, #7
 195 0074 0848     		ldr	r0, .L17
 196 0076 FFF7FEFF 		bl	bytefifo_readmulintebyte
 197              	.LVL18:
 101:../Protocol/protocol.c ****                     if (data == (unsigned char)(PRO_FRAME_TAIL>>8))
 198              		.loc 1 101 21 view .LVU49
 101:../Protocol/protocol.c ****                     if (data == (unsigned char)(PRO_FRAME_TAIL>>8))
 199              		.loc 1 101 31 is_stmt 0 view .LVU50
 200 007a 0234     		adds	r4, r4, #2
ARM GAS  C:\Users\zhangge\AppData\Local\Temp\ccSwmZ4a.s 			page 7


 201 007c A4B2     		uxth	r4, r4
 202              	.LVL19:
 101:../Protocol/protocol.c ****                     if (data == (unsigned char)(PRO_FRAME_TAIL>>8))
 203              		.loc 1 101 35 view .LVU51
 204 007e 9DF80730 		ldrb	r3, [sp, #7]	@ zero_extendqisi2
 205 0082 7355     		strb	r3, [r6, r5]
 102:../Protocol/protocol.c ****                     {
 206              		.loc 1 102 21 is_stmt 1 view .LVU52
 102:../Protocol/protocol.c ****                     {
 207              		.loc 1 102 24 is_stmt 0 view .LVU53
 208 0084 FE2B     		cmp	r3, #254
 209 0086 E0D1     		bne	.L8
 105:../Protocol/protocol.c ****                         index = 0;
 210              		.loc 1 105 25 is_stmt 1 view .LVU54
 105:../Protocol/protocol.c ****                         index = 0;
 211              		.loc 1 105 37 is_stmt 0 view .LVU55
 212 0088 3C80     		strh	r4, [r7]	@ movhi
 106:../Protocol/protocol.c ****                         chState = START;//获取到完整的数据帧  复位状态机
 213              		.loc 1 106 25 is_stmt 1 view .LVU56
 214              	.LVL20:
 107:../Protocol/protocol.c ****                         return 0;
 215              		.loc 1 107 25 view .LVU57
 108:../Protocol/protocol.c ****                     }
 216              		.loc 1 108 25 view .LVU58
 108:../Protocol/protocol.c ****                     }
 217              		.loc 1 108 32 is_stmt 0 view .LVU59
 218 008a 0020     		movs	r0, #0
 219 008c C7E7     		b	.L6
 220              	.LVL21:
 221              	.L16:
  90:../Protocol/protocol.c ****                     index = 0;
 222              		.loc 1 90 21 is_stmt 1 view .LVU60
  90:../Protocol/protocol.c ****                     index = 0;
 223              		.loc 1 90 33 is_stmt 0 view .LVU61
 224 008e 0023     		movs	r3, #0
 225 0090 3B80     		strh	r3, [r7]	@ movhi
  91:../Protocol/protocol.c ****                     chState = START;//获取到完整的数据帧  复位状态机
 226              		.loc 1 91 21 is_stmt 1 view .LVU62
 227              	.LVL22:
  92:../Protocol/protocol.c ****                     return 1;
 228              		.loc 1 92 21 view .LVU63
  93:../Protocol/protocol.c ****                 }
 229              		.loc 1 93 21 view .LVU64
  93:../Protocol/protocol.c ****                 }
 230              		.loc 1 93 28 is_stmt 0 view .LVU65
 231 0092 0120     		movs	r0, #1
 232 0094 C3E7     		b	.L6
 233              	.L18:
 234 0096 00BF     		.align	2
 235              	.L17:
 236 0098 00000000 		.word	.LANCHOR0
 237              		.cfi_endproc
 238              	.LFE1:
 240              		.section	.text._packet_propack,"ax",%progbits
 241              		.align	1
 242              		.global	_packet_propack
 243              		.syntax unified
ARM GAS  C:\Users\zhangge\AppData\Local\Temp\ccSwmZ4a.s 			page 8


 244              		.thumb
 245              		.thumb_func
 247              	_packet_propack:
 248              	.LVL23:
 249              	.LFB2:
 118:../Protocol/protocol.c **** 
 119:../Protocol/protocol.c **** 
 120:../Protocol/protocol.c **** /*----------------------------封包协议包----------------------------------------------------------*
 121:../Protocol/protocol.c **** pro_pack_t* _packet_propack(pro_frame_t *frame,unsigned int timeout,unsigned char recnt)
 122:../Protocol/protocol.c **** {   
 250              		.loc 1 122 1 is_stmt 1 view -0
 251              		.cfi_startproc
 252              		@ args = 0, pretend = 0, frame = 8
 253              		@ frame_needed = 0, uses_anonymous_args = 0
 254              		.loc 1 122 1 is_stmt 0 view .LVU67
 255 0000 70B5     		push	{r4, r5, r6, lr}
 256              	.LCFI5:
 257              		.cfi_def_cfa_offset 16
 258              		.cfi_offset 4, -16
 259              		.cfi_offset 5, -12
 260              		.cfi_offset 6, -8
 261              		.cfi_offset 14, -4
 262 0002 82B0     		sub	sp, sp, #8
 263              	.LCFI6:
 264              		.cfi_def_cfa_offset 24
 265 0004 0546     		mov	r5, r0
 123:../Protocol/protocol.c ****     fsm_cb_t fsmcb;
 266              		.loc 1 123 5 is_stmt 1 view .LVU68
 124:../Protocol/protocol.c ****     pro_pack_t* p_propack = heap_malloc(sizeof(pro_pack_t));
 267              		.loc 1 124 5 view .LVU69
 268              		.loc 1 124 29 is_stmt 0 view .LVU70
 269 0006 1420     		movs	r0, #20
 270              	.LVL24:
 271              		.loc 1 124 29 view .LVU71
 272 0008 FFF7FEFF 		bl	heap_malloc
 273              	.LVL25:
 274              		.loc 1 124 29 view .LVU72
 275 000c 0446     		mov	r4, r0
 276              	.LVL26:
 125:../Protocol/protocol.c ****     fsm_init(&fsmcb,1,(fsm_t *)_trancemit_statemach);
 277              		.loc 1 125 5 is_stmt 1 view .LVU73
 278 000e 6E46     		mov	r6, sp
 279 0010 084A     		ldr	r2, .L21
 280 0012 0121     		movs	r1, #1
 281 0014 3046     		mov	r0, r6
 282              	.LVL27:
 283              		.loc 1 125 5 is_stmt 0 view .LVU74
 284 0016 FFF7FEFF 		bl	fsm_init
 285              	.LVL28:
 126:../Protocol/protocol.c ****     p_propack->statemach_cb = fsmcb;
 286              		.loc 1 126 5 is_stmt 1 view .LVU75
 287              		.loc 1 126 29 is_stmt 0 view .LVU76
 288 001a 96E80300 		ldm	r6, {r0, r1}
 289 001e 84E80300 		stm	r4, {r0, r1}
 127:../Protocol/protocol.c ****     p_propack->timeout = 0;
 290              		.loc 1 127 5 is_stmt 1 view .LVU77
 291              		.loc 1 127 24 is_stmt 0 view .LVU78
ARM GAS  C:\Users\zhangge\AppData\Local\Temp\ccSwmZ4a.s 			page 9


 292 0022 0023     		movs	r3, #0
 293 0024 A360     		str	r3, [r4, #8]
 128:../Protocol/protocol.c ****     p_propack->recnt = 0;
 294              		.loc 1 128 5 is_stmt 1 view .LVU79
 295              		.loc 1 128 22 is_stmt 0 view .LVU80
 296 0026 A381     		strh	r3, [r4, #12]	@ movhi
 129:../Protocol/protocol.c ****     p_propack->t0 = 0;
 297              		.loc 1 129 5 is_stmt 1 view .LVU81
 298              		.loc 1 129 19 is_stmt 0 view .LVU82
 299 0028 E381     		strh	r3, [r4, #14]	@ movhi
 130:../Protocol/protocol.c ****     p_propack->frame = frame;   
 300              		.loc 1 130 5 is_stmt 1 view .LVU83
 301              		.loc 1 130 22 is_stmt 0 view .LVU84
 302 002a 2561     		str	r5, [r4, #16]
 131:../Protocol/protocol.c ****     return p_propack;
 303              		.loc 1 131 5 is_stmt 1 view .LVU85
 132:../Protocol/protocol.c **** }
 304              		.loc 1 132 1 is_stmt 0 view .LVU86
 305 002c 2046     		mov	r0, r4
 306 002e 02B0     		add	sp, sp, #8
 307              	.LCFI7:
 308              		.cfi_def_cfa_offset 16
 309              		@ sp needed
 310 0030 70BD     		pop	{r4, r5, r6, pc}
 311              	.LVL29:
 312              	.L22:
 313              		.loc 1 132 1 view .LVU87
 314 0032 00BF     		.align	2
 315              	.L21:
 316 0034 00000000 		.word	_trancemit_statemach
 317              		.cfi_endproc
 318              	.LFE2:
 320              		.section	.text._packet_proframe,"ax",%progbits
 321              		.align	1
 322              		.global	_packet_proframe
 323              		.syntax unified
 324              		.thumb
 325              		.thumb_func
 327              	_packet_proframe:
 328              	.LVL30:
 329              	.LFB3:
 133:../Protocol/protocol.c **** 
 134:../Protocol/protocol.c **** /*-----------------------------封包协议帧-------------------------------------------------------
 135:../Protocol/protocol.c **** **return       一段连续的内存
 136:../Protocol/protocol.c **** */
 137:../Protocol/protocol.c **** pro_frame_t* _packet_proframe(unsigned short cmd,void *pdata,unsigned short len)
 138:../Protocol/protocol.c **** {
 330              		.loc 1 138 1 is_stmt 1 view -0
 331              		.cfi_startproc
 332              		@ args = 0, pretend = 0, frame = 0
 333              		@ frame_needed = 0, uses_anonymous_args = 0
 334              		.loc 1 138 1 is_stmt 0 view .LVU89
 335 0000 F8B5     		push	{r3, r4, r5, r6, r7, lr}
 336              	.LCFI8:
 337              		.cfi_def_cfa_offset 24
 338              		.cfi_offset 3, -24
 339              		.cfi_offset 4, -20
ARM GAS  C:\Users\zhangge\AppData\Local\Temp\ccSwmZ4a.s 			page 10


 340              		.cfi_offset 5, -16
 341              		.cfi_offset 6, -12
 342              		.cfi_offset 7, -8
 343              		.cfi_offset 14, -4
 344 0002 0646     		mov	r6, r0
 345 0004 0F46     		mov	r7, r1
 346 0006 1546     		mov	r5, r2
 139:../Protocol/protocol.c ****     unsigned char *puctemp;
 347              		.loc 1 139 5 is_stmt 1 view .LVU90
 140:../Protocol/protocol.c ****     pro_frame_t *pfram;
 348              		.loc 1 140 5 view .LVU91
 141:../Protocol/protocol.c ****     puctemp = heap_malloc(sizeof(pro_frame_t) + len);
 349              		.loc 1 141 5 view .LVU92
 350              		.loc 1 141 15 is_stmt 0 view .LVU93
 351 0008 02F11000 		add	r0, r2, #16
 352              	.LVL31:
 353              		.loc 1 141 15 view .LVU94
 354 000c FFF7FEFF 		bl	heap_malloc
 355              	.LVL32:
 142:../Protocol/protocol.c ****     if(!puctemp)
 356              		.loc 1 142 5 is_stmt 1 view .LVU95
 357              		.loc 1 142 7 is_stmt 0 view .LVU96
 358 0010 0446     		mov	r4, r0
 359 0012 C8B1     		cbz	r0, .L27
 143:../Protocol/protocol.c ****     {
 144:../Protocol/protocol.c ****         heap_free(puctemp);
 145:../Protocol/protocol.c ****         return NULL;
 146:../Protocol/protocol.c ****     }
 147:../Protocol/protocol.c ****     pfram = (pro_frame_t *)puctemp;
 360              		.loc 1 147 5 is_stmt 1 view .LVU97
 361              	.LVL33:
 148:../Protocol/protocol.c ****     pfram->_x_x = 0x00;
 362              		.loc 1 148 5 view .LVU98
 363              		.loc 1 148 17 is_stmt 0 view .LVU99
 364 0014 0023     		movs	r3, #0
 365 0016 0380     		strh	r3, [r0]	@ movhi
 149:../Protocol/protocol.c ****     pfram->head = __SWP16(PRO_FRAME_HEAD);
 366              		.loc 1 149 5 is_stmt 1 view .LVU100
 367              		.loc 1 149 17 is_stmt 0 view .LVU101
 368 0018 4AF25A53 		movw	r3, #42330
 369 001c 4380     		strh	r3, [r0, #2]	@ movhi
 150:../Protocol/protocol.c ****     pfram->tail = __SWP16(PRO_FRAME_TAIL);
 370              		.loc 1 150 5 is_stmt 1 view .LVU102
 371              		.loc 1 150 17 is_stmt 0 view .LVU103
 372 001e 4FF6FE63 		movw	r3, #65278
 373 0022 C381     		strh	r3, [r0, #14]	@ movhi
 151:../Protocol/protocol.c ****     pfram->func_c = __SWP16(cmd);
 374              		.loc 1 151 5 is_stmt 1 view .LVU104
 375              		.loc 1 151 21 is_stmt 0 view .LVU105
 376 0024 3002     		lsls	r0, r6, #8
 377              	.LVL34:
 378              		.loc 1 151 21 view .LVU106
 379 0026 40EA1626 		orr	r6, r0, r6, lsr #8
 380              		.loc 1 151 19 view .LVU107
 381 002a A680     		strh	r6, [r4, #4]	@ movhi
 152:../Protocol/protocol.c ****     pfram->len = __SWP16(len);
 382              		.loc 1 152 5 is_stmt 1 view .LVU108
ARM GAS  C:\Users\zhangge\AppData\Local\Temp\ccSwmZ4a.s 			page 11


 383              		.loc 1 152 18 is_stmt 0 view .LVU109
 384 002c 2B02     		lsls	r3, r5, #8
 385 002e 43EA1523 		orr	r3, r3, r5, lsr #8
 386              		.loc 1 152 16 view .LVU110
 387 0032 E380     		strh	r3, [r4, #6]	@ movhi
 153:../Protocol/protocol.c ****     pfram->pdata = &puctemp[sizeof(pro_frame_t)];
 388              		.loc 1 153 5 is_stmt 1 view .LVU111
 389              		.loc 1 153 20 is_stmt 0 view .LVU112
 390 0034 04F11000 		add	r0, r4, #16
 391              		.loc 1 153 18 view .LVU113
 392 0038 A060     		str	r0, [r4, #8]
 154:../Protocol/protocol.c ****     if(pdata != 0)
 393              		.loc 1 154 5 is_stmt 1 view .LVU114
 394              		.loc 1 154 7 is_stmt 0 view .LVU115
 395 003a 1FB1     		cbz	r7, .L23
 155:../Protocol/protocol.c ****     {
 156:../Protocol/protocol.c ****         memcpy((unsigned char*)&puctemp[sizeof(pro_frame_t)],(unsigned char*)pdata,len);
 396              		.loc 1 156 9 is_stmt 1 view .LVU116
 397 003c 2A46     		mov	r2, r5
 398 003e 3946     		mov	r1, r7
 399 0040 FFF7FEFF 		bl	memcpy
 400              	.LVL35:
 401              	.L23:
 157:../Protocol/protocol.c ****     }    
 158:../Protocol/protocol.c ****     return pfram;
 159:../Protocol/protocol.c **** }
 402              		.loc 1 159 1 is_stmt 0 view .LVU117
 403 0044 2046     		mov	r0, r4
 404 0046 F8BD     		pop	{r3, r4, r5, r6, r7, pc}
 405              	.LVL36:
 406              	.L27:
 144:../Protocol/protocol.c ****         return NULL;
 407              		.loc 1 144 9 is_stmt 1 view .LVU118
 408 0048 FFF7FEFF 		bl	heap_free
 409              	.LVL37:
 145:../Protocol/protocol.c ****     }
 410              		.loc 1 145 9 view .LVU119
 145:../Protocol/protocol.c ****     }
 411              		.loc 1 145 16 is_stmt 0 view .LVU120
 412 004c FAE7     		b	.L23
 413              		.cfi_endproc
 414              	.LFE3:
 416              		.section	.rodata._unpack_proframe.str1.4,"aMS",%progbits,1
 417              		.align	2
 418              	.LC0:
 419 0000 43524331 		.ascii	"CRC16 Err 0x%2x\015\012\000"
 419      36204572 
 419      72203078 
 419      2532780D 
 419      0A00
 420              		.section	.text._unpack_proframe,"ax",%progbits
 421              		.align	1
 422              		.global	_unpack_proframe
 423              		.syntax unified
 424              		.thumb
 425              		.thumb_func
 427              	_unpack_proframe:
ARM GAS  C:\Users\zhangge\AppData\Local\Temp\ccSwmZ4a.s 			page 12


 428              	.LVL38:
 429              	.LFB4:
 160:../Protocol/protocol.c **** /*-----------------------------解包协议帧-------------------------------------------------------
 161:../Protocol/protocol.c **** return 一段连续的内存
 162:../Protocol/protocol.c **** */
 163:../Protocol/protocol.c **** pro_frame_t* _unpack_proframe(unsigned char *pdata,unsigned short len)
 164:../Protocol/protocol.c **** {
 430              		.loc 1 164 1 is_stmt 1 view -0
 431              		.cfi_startproc
 432              		@ args = 0, pretend = 0, frame = 0
 433              		@ frame_needed = 0, uses_anonymous_args = 0
 434              		.loc 1 164 1 is_stmt 0 view .LVU122
 435 0000 F8B5     		push	{r3, r4, r5, r6, r7, lr}
 436              	.LCFI9:
 437              		.cfi_def_cfa_offset 24
 438              		.cfi_offset 3, -24
 439              		.cfi_offset 4, -20
 440              		.cfi_offset 5, -16
 441              		.cfi_offset 6, -12
 442              		.cfi_offset 7, -8
 443              		.cfi_offset 14, -4
 444 0002 0646     		mov	r6, r0
 445 0004 0D46     		mov	r5, r1
 165:../Protocol/protocol.c ****     /*申请内存*/
 166:../Protocol/protocol.c ****     unsigned char *pr_buf_1;
 446              		.loc 1 166 5 is_stmt 1 view .LVU123
 167:../Protocol/protocol.c ****     unsigned short r_fram_len;
 447              		.loc 1 167 5 view .LVU124
 168:../Protocol/protocol.c ****     unsigned short r_data_len;
 448              		.loc 1 168 5 view .LVU125
 169:../Protocol/protocol.c ****     unsigned short r_crc_16;
 449              		.loc 1 169 5 view .LVU126
 170:../Protocol/protocol.c ****     r_fram_len = len;
 450              		.loc 1 170 5 view .LVU127
 171:../Protocol/protocol.c ****     pr_buf_1 = heap_malloc(r_fram_len);
 451              		.loc 1 171 5 view .LVU128
 452              		.loc 1 171 16 is_stmt 0 view .LVU129
 453 0006 0846     		mov	r0, r1
 454              	.LVL39:
 455              		.loc 1 171 16 view .LVU130
 456 0008 FFF7FEFF 		bl	heap_malloc
 457              	.LVL40:
 458              		.loc 1 171 16 view .LVU131
 459 000c 0446     		mov	r4, r0
 460              	.LVL41:
 172:../Protocol/protocol.c ****     memcpy(pr_buf_1,pdata,r_fram_len);
 461              		.loc 1 172 5 is_stmt 1 view .LVU132
 462 000e 2A46     		mov	r2, r5
 463 0010 3146     		mov	r1, r6
 464 0012 FFF7FEFF 		bl	memcpy
 465              	.LVL42:
 173:../Protocol/protocol.c ****     r_crc_16 = CRC16_Subsection((unsigned char *)pr_buf_1,0xFFFF,r_fram_len-4);
 466              		.loc 1 173 5 view .LVU133
 467              		.loc 1 173 16 is_stmt 0 view .LVU134
 468 0016 2A1F     		subs	r2, r5, #4
 469 0018 4FF6FF71 		movw	r1, #65535
 470 001c 2046     		mov	r0, r4
ARM GAS  C:\Users\zhangge\AppData\Local\Temp\ccSwmZ4a.s 			page 13


 471 001e FFF7FEFF 		bl	CRC16_Subsection
 472              	.LVL43:
 473 0022 0246     		mov	r2, r0
 474              	.LVL44:
 174:../Protocol/protocol.c ****     if(r_crc_16 != (pr_buf_1[r_fram_len-4]<<8 | pr_buf_1[r_fram_len-3]))
 475              		.loc 1 174 5 is_stmt 1 view .LVU135
 476              		.loc 1 174 29 is_stmt 0 view .LVU136
 477 0024 6119     		adds	r1, r4, r5
 478 0026 11F8040C 		ldrb	r0, [r1, #-4]	@ zero_extendqisi2
 479              		.loc 1 174 57 view .LVU137
 480 002a 11F8033C 		ldrb	r3, [r1, #-3]	@ zero_extendqisi2
 481              		.loc 1 174 47 view .LVU138
 482 002e 43EA0023 		orr	r3, r3, r0, lsl #8
 483              		.loc 1 174 7 view .LVU139
 484 0032 9A42     		cmp	r2, r3
 485 0034 2CD1     		bne	.L33
 175:../Protocol/protocol.c ****     {
 176:../Protocol/protocol.c ****         USER_DEBUG_NORMAL("CRC16 Err 0x%2x\r\n",r_crc_16);
 177:../Protocol/protocol.c ****         heap_free(pr_buf_1);
 178:../Protocol/protocol.c ****         return NULL;
 179:../Protocol/protocol.c ****     }
 180:../Protocol/protocol.c ****     /*校验成功*/
 181:../Protocol/protocol.c ****     r_data_len =  pr_buf_1[4]<<8 | pr_buf_1[5];   //获取数据长度
 486              		.loc 1 181 5 is_stmt 1 view .LVU140
 487              		.loc 1 181 27 is_stmt 0 view .LVU141
 488 0036 2379     		ldrb	r3, [r4, #4]	@ zero_extendqisi2
 489              		.loc 1 181 44 view .LVU142
 490 0038 6779     		ldrb	r7, [r4, #5]	@ zero_extendqisi2
 491              		.loc 1 181 16 view .LVU143
 492 003a 47EA0327 		orr	r7, r7, r3, lsl #8
 493              	.LVL45:
 182:../Protocol/protocol.c ****     unsigned char *pr_buf_2;
 494              		.loc 1 182 5 is_stmt 1 view .LVU144
 183:../Protocol/protocol.c ****     pr_buf_2 = 0;
 495              		.loc 1 183 5 view .LVU145
 184:../Protocol/protocol.c ****     pr_buf_2 = heap_malloc(sizeof(pro_frame_t)+r_data_len);//申请数据帧内存
 496              		.loc 1 184 5 view .LVU146
 497              		.loc 1 184 16 is_stmt 0 view .LVU147
 498 003e 07F11000 		add	r0, r7, #16
 499 0042 FFF7FEFF 		bl	heap_malloc
 500              	.LVL46:
 501              		.loc 1 184 16 view .LVU148
 502 0046 0646     		mov	r6, r0
 503              	.LVL47:
 185:../Protocol/protocol.c ****     memcpy(&pr_buf_2[2],pr_buf_1,r_fram_len);
 504              		.loc 1 185 5 is_stmt 1 view .LVU149
 505 0048 2A46     		mov	r2, r5
 506 004a 2146     		mov	r1, r4
 507 004c 0230     		adds	r0, r0, #2
 508              	.LVL48:
 509              		.loc 1 185 5 is_stmt 0 view .LVU150
 510 004e FFF7FEFF 		bl	memcpy
 511              	.LVL49:
 186:../Protocol/protocol.c ****     heap_free(pr_buf_1);
 512              		.loc 1 186 5 is_stmt 1 view .LVU151
 513 0052 2046     		mov	r0, r4
 514 0054 FFF7FEFF 		bl	heap_free
ARM GAS  C:\Users\zhangge\AppData\Local\Temp\ccSwmZ4a.s 			page 14


 515              	.LVL50:
 187:../Protocol/protocol.c **** 
 188:../Protocol/protocol.c ****     unsigned char *pr_buf_data;
 516              		.loc 1 188 5 view .LVU152
 189:../Protocol/protocol.c ****     pr_buf_data = heap_malloc(r_data_len);
 517              		.loc 1 189 5 view .LVU153
 518              		.loc 1 189 19 is_stmt 0 view .LVU154
 519 0058 3846     		mov	r0, r7
 520 005a FFF7FEFF 		bl	heap_malloc
 521              	.LVL51:
 190:../Protocol/protocol.c ****     if (pr_buf_data==NULL && r_data_len!=0)
 522              		.loc 1 190 5 is_stmt 1 view .LVU155
 523              		.loc 1 190 8 is_stmt 0 view .LVU156
 524 005e 0546     		mov	r5, r0
 525 0060 F8B1     		cbz	r0, .L34
 526              	.L31:
 191:../Protocol/protocol.c ****     {
 192:../Protocol/protocol.c ****         heap_free(pr_buf_2);
 193:../Protocol/protocol.c ****         heap_free(pr_buf_data);
 194:../Protocol/protocol.c ****         return NULL;
 195:../Protocol/protocol.c ****     }
 196:../Protocol/protocol.c ****     memcpy(pr_buf_data,&pr_buf_2[FRAM_PDATA_OFFSET],r_data_len);   
 527              		.loc 1 196 5 is_stmt 1 view .LVU157
 528 0062 3A46     		mov	r2, r7
 529 0064 06F10801 		add	r1, r6, #8
 530 0068 2846     		mov	r0, r5
 531              	.LVL52:
 532              		.loc 1 196 5 is_stmt 0 view .LVU158
 533 006a FFF7FEFF 		bl	memcpy
 534              	.LVL53:
 197:../Protocol/protocol.c ****     memcpy(&pr_buf_2[FRAM_CRC_OFFSET],&pr_buf_2[FRAM_PDATA_OFFSET+r_data_len],4);
 535              		.loc 1 197 5 is_stmt 1 view .LVU159
 536              		.loc 1 197 66 is_stmt 0 view .LVU160
 537 006e 07F10803 		add	r3, r7, #8
 538 0072 F358     		ldr	r3, [r6, r3]	@ unaligned
 539              		.loc 1 197 5 view .LVU161
 540 0074 F360     		str	r3, [r6, #12]	@ unaligned
 198:../Protocol/protocol.c ****     memcpy(&pr_buf_2[FRAM_BUF_OFFSET],pr_buf_data,r_data_len);    
 541              		.loc 1 198 5 is_stmt 1 view .LVU162
 542              		.loc 1 198 12 is_stmt 0 view .LVU163
 543 0076 06F11004 		add	r4, r6, #16
 544              	.LVL54:
 545              		.loc 1 198 5 view .LVU164
 546 007a 3A46     		mov	r2, r7
 547 007c 2946     		mov	r1, r5
 548 007e 2046     		mov	r0, r4
 549 0080 FFF7FEFF 		bl	memcpy
 550              	.LVL55:
 199:../Protocol/protocol.c ****     heap_free(pr_buf_data);
 551              		.loc 1 199 5 is_stmt 1 view .LVU165
 552 0084 2846     		mov	r0, r5
 553 0086 FFF7FEFF 		bl	heap_free
 554              	.LVL56:
 200:../Protocol/protocol.c **** 
 201:../Protocol/protocol.c ****     pro_frame_t *p_r_fram;
 555              		.loc 1 201 5 view .LVU166
 202:../Protocol/protocol.c ****     p_r_fram = (pro_frame_t *)pr_buf_2;
ARM GAS  C:\Users\zhangge\AppData\Local\Temp\ccSwmZ4a.s 			page 15


 556              		.loc 1 202 5 view .LVU167
 203:../Protocol/protocol.c ****     p_r_fram->pdata = &pr_buf_2[FRAM_BUF_OFFSET];
 557              		.loc 1 203 5 view .LVU168
 558              		.loc 1 203 21 is_stmt 0 view .LVU169
 559 008a B460     		str	r4, [r6, #8]
 204:../Protocol/protocol.c **** 
 205:../Protocol/protocol.c ****     return p_r_fram;
 560              		.loc 1 205 5 is_stmt 1 view .LVU170
 561              	.LVL57:
 562              	.L28:
 206:../Protocol/protocol.c **** }
 563              		.loc 1 206 1 is_stmt 0 view .LVU171
 564 008c 3046     		mov	r0, r6
 565 008e F8BD     		pop	{r3, r4, r5, r6, r7, pc}
 566              	.LVL58:
 567              	.L33:
 176:../Protocol/protocol.c ****         heap_free(pr_buf_1);
 568              		.loc 1 176 9 is_stmt 1 view .LVU172
 569 0090 0949     		ldr	r1, .L35
 570 0092 0020     		movs	r0, #0
 571 0094 FFF7FEFF 		bl	SEGGER_RTT_printf
 572              	.LVL59:
 177:../Protocol/protocol.c ****         return NULL;
 573              		.loc 1 177 9 view .LVU173
 574 0098 2046     		mov	r0, r4
 575 009a FFF7FEFF 		bl	heap_free
 576              	.LVL60:
 178:../Protocol/protocol.c ****     }
 577              		.loc 1 178 9 view .LVU174
 178:../Protocol/protocol.c ****     }
 578              		.loc 1 178 16 is_stmt 0 view .LVU175
 579 009e 0026     		movs	r6, #0
 580              	.LVL61:
 178:../Protocol/protocol.c ****     }
 581              		.loc 1 178 16 view .LVU176
 582 00a0 F4E7     		b	.L28
 583              	.LVL62:
 584              	.L34:
 190:../Protocol/protocol.c ****     {
 585              		.loc 1 190 27 discriminator 1 view .LVU177
 586 00a2 002F     		cmp	r7, #0
 587 00a4 DDD0     		beq	.L31
 192:../Protocol/protocol.c ****         heap_free(pr_buf_data);
 588              		.loc 1 192 9 is_stmt 1 view .LVU178
 589 00a6 3046     		mov	r0, r6
 590              	.LVL63:
 192:../Protocol/protocol.c ****         heap_free(pr_buf_data);
 591              		.loc 1 192 9 is_stmt 0 view .LVU179
 592 00a8 FFF7FEFF 		bl	heap_free
 593              	.LVL64:
 193:../Protocol/protocol.c ****         return NULL;
 594              		.loc 1 193 9 is_stmt 1 view .LVU180
 595 00ac 2846     		mov	r0, r5
 596 00ae FFF7FEFF 		bl	heap_free
 597              	.LVL65:
 194:../Protocol/protocol.c ****     }
 598              		.loc 1 194 9 view .LVU181
ARM GAS  C:\Users\zhangge\AppData\Local\Temp\ccSwmZ4a.s 			page 16


 194:../Protocol/protocol.c ****     }
 599              		.loc 1 194 16 is_stmt 0 view .LVU182
 600 00b2 2E46     		mov	r6, r5
 601              	.LVL66:
 194:../Protocol/protocol.c ****     }
 602              		.loc 1 194 16 view .LVU183
 603 00b4 EAE7     		b	.L28
 604              	.L36:
 605 00b6 00BF     		.align	2
 606              	.L35:
 607 00b8 00000000 		.word	.LC0
 608              		.cfi_endproc
 609              	.LFE4:
 611              		.section	.text.protocol_init,"ax",%progbits
 612              		.align	1
 613              		.global	protocol_init
 614              		.syntax unified
 615              		.thumb
 616              		.thumb_func
 618              	protocol_init:
 619              	.LFB5:
 207:../Protocol/protocol.c **** 
 208:../Protocol/protocol.c **** void protocol_init(void)
 209:../Protocol/protocol.c **** {
 620              		.loc 1 209 1 is_stmt 1 view -0
 621              		.cfi_startproc
 622              		@ args = 0, pretend = 0, frame = 0
 623              		@ frame_needed = 0, uses_anonymous_args = 0
 624 0000 08B5     		push	{r3, lr}
 625              	.LCFI10:
 626              		.cfi_def_cfa_offset 8
 627              		.cfi_offset 3, -8
 628              		.cfi_offset 14, -4
 210:../Protocol/protocol.c ****     bytefifo_init(&protocol_fifo_handle,fifo_receive_buff,sizeof(fifo_receive_buff));
 629              		.loc 1 210 5 view .LVU185
 630 0002 4FF48062 		mov	r2, #1024
 631 0006 0449     		ldr	r1, .L39
 632 0008 0448     		ldr	r0, .L39+4
 633 000a FFF7FEFF 		bl	bytefifo_init
 634              	.LVL67:
 211:../Protocol/protocol.c ****     /*创建一个消息发送链表*/
 212:../Protocol/protocol.c ****     gtransmit_list = list_creat();
 635              		.loc 1 212 5 view .LVU186
 636              		.loc 1 212 22 is_stmt 0 view .LVU187
 637 000e FFF7FEFF 		bl	list_creat
 638              	.LVL68:
 639              		.loc 1 212 20 view .LVU188
 640 0012 034B     		ldr	r3, .L39+8
 641 0014 1860     		str	r0, [r3]
 213:../Protocol/protocol.c **** }
 642              		.loc 1 213 1 view .LVU189
 643 0016 08BD     		pop	{r3, pc}
 644              	.L40:
 645              		.align	2
 646              	.L39:
 647 0018 00000000 		.word	.LANCHOR1
 648 001c 00000000 		.word	.LANCHOR0
ARM GAS  C:\Users\zhangge\AppData\Local\Temp\ccSwmZ4a.s 			page 17


 649 0020 00000000 		.word	.LANCHOR2
 650              		.cfi_endproc
 651              	.LFE5:
 653              		.section	.text.protocol_process,"ax",%progbits
 654              		.align	1
 655              		.global	protocol_process
 656              		.syntax unified
 657              		.thumb
 658              		.thumb_func
 660              	protocol_process:
 661              	.LFB6:
 214:../Protocol/protocol.c **** 
 215:../Protocol/protocol.c **** /*
 216:../Protocol/protocol.c **** process:线程
 217:../Protocol/protocol.c **** parse:解析
 218:../Protocol/protocol.c **** */
 219:../Protocol/protocol.c **** void protocol_process(void)
 220:../Protocol/protocol.c **** {
 662              		.loc 1 220 1 is_stmt 1 view -0
 663              		.cfi_startproc
 664              		@ args = 0, pretend = 0, frame = 0
 665              		@ frame_needed = 0, uses_anonymous_args = 0
 666 0000 08B5     		push	{r3, lr}
 667              	.LCFI11:
 668              		.cfi_def_cfa_offset 8
 669              		.cfi_offset 3, -8
 670              		.cfi_offset 14, -4
 221:../Protocol/protocol.c ****     protocol_parse();
 671              		.loc 1 221 5 view .LVU191
 672 0002 FFF7FEFF 		bl	protocol_parse
 673              	.LVL69:
 222:../Protocol/protocol.c ****     protocol_transmitprocess();
 674              		.loc 1 222 5 view .LVU192
 675 0006 FFF7FEFF 		bl	protocol_transmitprocess
 676              	.LVL70:
 223:../Protocol/protocol.c **** }
 677              		.loc 1 223 1 is_stmt 0 view .LVU193
 678 000a 08BD     		pop	{r3, pc}
 679              		.cfi_endproc
 680              	.LFE6:
 682              		.global	g_protocol_event
 683              		.global	gtransmit_list
 684              		.section	.bss.fifo_receive_buff,"aw",%nobits
 685              		.align	2
 686              		.set	.LANCHOR1,. + 0
 689              	fifo_receive_buff:
 690 0000 00000000 		.space	1024
 690      00000000 
 690      00000000 
 690      00000000 
 690      00000000 
 691              		.section	.bss.g_protocol_event,"aw",%nobits
 692              		.align	1
 695              	g_protocol_event:
 696 0000 0000     		.space	2
 697              		.section	.bss.gtransmit_list,"aw",%nobits
 698              		.align	2
ARM GAS  C:\Users\zhangge\AppData\Local\Temp\ccSwmZ4a.s 			page 18


 699              		.set	.LANCHOR2,. + 0
 702              	gtransmit_list:
 703 0000 00000000 		.space	4
 704              		.section	.bss.protocol_fifo_handle,"aw",%nobits
 705              		.align	2
 706              		.set	.LANCHOR0,. + 0
 709              	protocol_fifo_handle:
 710 0000 00000000 		.space	16
 710      00000000 
 710      00000000 
 710      00000000 
 711              		.text
 712              	.Letext0:
 713              		.file 2 "../Public/fifo.h"
 714              		.file 3 "../Public/list.h"
 715              		.file 4 "../Public/Fsm/fsm.h"
 716              		.file 5 "../Protocol/protocol_comment.h"
 717              		.file 6 "../Protocol/protocol.h"
 718              		.file 7 "../Public/heap.h"
 719              		.file 8 "../Public/method/crc.h"
 720              		.file 9 "../Public/debuglog/SEGGER_RTT_V792h/RTT/SEGGER_RTT.h"
 721              		.file 10 "<built-in>"
ARM GAS  C:\Users\zhangge\AppData\Local\Temp\ccSwmZ4a.s 			page 19

