ARM GAS  C:\Users\zhangge\AppData\Local\Temp\ccknIKf0.s 			page 1


   1              		.cpu cortex-m4
   2              		.arch armv7e-m
   3              		.fpu fpv4-sp-d16
   4              		.eabi_attribute 27, 1
   5              		.eabi_attribute 28, 1
   6              		.eabi_attribute 20, 1
   7              		.eabi_attribute 21, 1
   8              		.eabi_attribute 23, 3
   9              		.eabi_attribute 24, 1
  10              		.eabi_attribute 25, 1
  11              		.eabi_attribute 26, 1
  12              		.eabi_attribute 30, 1
  13              		.eabi_attribute 34, 1
  14              		.eabi_attribute 18, 4
  15              		.file	"SEGGER_RTT_printf.c"
  16              		.text
  17              	.Ltext0:
  18              		.cfi_sections	.debug_frame
  19              		.section	.text._StoreChar,"ax",%progbits
  20              		.align	1
  21              		.syntax unified
  22              		.thumb
  23              		.thumb_func
  25              	_StoreChar:
  26              	.LVL0:
  27              	.LFB0:
  28              		.file 1 "../Public/debuglog/SEGGER_RTT_V792h/RTT/SEGGER_RTT_printf.c"
   1:../Public/debuglog/SEGGER_RTT_V792h/RTT/SEGGER_RTT_printf.c **** /*********************************************************************
   2:../Public/debuglog/SEGGER_RTT_V792h/RTT/SEGGER_RTT_printf.c **** *                    SEGGER Microcontroller GmbH                     *
   3:../Public/debuglog/SEGGER_RTT_V792h/RTT/SEGGER_RTT_printf.c **** *                        The Embedded Experts                        *
   4:../Public/debuglog/SEGGER_RTT_V792h/RTT/SEGGER_RTT_printf.c **** **********************************************************************
   5:../Public/debuglog/SEGGER_RTT_V792h/RTT/SEGGER_RTT_printf.c **** *                                                                    *
   6:../Public/debuglog/SEGGER_RTT_V792h/RTT/SEGGER_RTT_printf.c **** *            (c) 1995 - 2021 SEGGER Microcontroller GmbH             *
   7:../Public/debuglog/SEGGER_RTT_V792h/RTT/SEGGER_RTT_printf.c **** *                                                                    *
   8:../Public/debuglog/SEGGER_RTT_V792h/RTT/SEGGER_RTT_printf.c **** *       www.segger.com     Support: support@segger.com               *
   9:../Public/debuglog/SEGGER_RTT_V792h/RTT/SEGGER_RTT_printf.c **** *                                                                    *
  10:../Public/debuglog/SEGGER_RTT_V792h/RTT/SEGGER_RTT_printf.c **** **********************************************************************
  11:../Public/debuglog/SEGGER_RTT_V792h/RTT/SEGGER_RTT_printf.c **** *                                                                    *
  12:../Public/debuglog/SEGGER_RTT_V792h/RTT/SEGGER_RTT_printf.c **** *       SEGGER RTT * Real Time Transfer for embedded targets         *
  13:../Public/debuglog/SEGGER_RTT_V792h/RTT/SEGGER_RTT_printf.c **** *                                                                    *
  14:../Public/debuglog/SEGGER_RTT_V792h/RTT/SEGGER_RTT_printf.c **** **********************************************************************
  15:../Public/debuglog/SEGGER_RTT_V792h/RTT/SEGGER_RTT_printf.c **** *                                                                    *
  16:../Public/debuglog/SEGGER_RTT_V792h/RTT/SEGGER_RTT_printf.c **** * All rights reserved.                                               *
  17:../Public/debuglog/SEGGER_RTT_V792h/RTT/SEGGER_RTT_printf.c **** *                                                                    *
  18:../Public/debuglog/SEGGER_RTT_V792h/RTT/SEGGER_RTT_printf.c **** * SEGGER strongly recommends to not make any changes                 *
  19:../Public/debuglog/SEGGER_RTT_V792h/RTT/SEGGER_RTT_printf.c **** * to or modify the source code of this software in order to stay     *
  20:../Public/debuglog/SEGGER_RTT_V792h/RTT/SEGGER_RTT_printf.c **** * compatible with the RTT protocol and J-Link.                       *
  21:../Public/debuglog/SEGGER_RTT_V792h/RTT/SEGGER_RTT_printf.c **** *                                                                    *
  22:../Public/debuglog/SEGGER_RTT_V792h/RTT/SEGGER_RTT_printf.c **** * Redistribution and use in source and binary forms, with or         *
  23:../Public/debuglog/SEGGER_RTT_V792h/RTT/SEGGER_RTT_printf.c **** * without modification, are permitted provided that the following    *
  24:../Public/debuglog/SEGGER_RTT_V792h/RTT/SEGGER_RTT_printf.c **** * condition is met:                                                  *
  25:../Public/debuglog/SEGGER_RTT_V792h/RTT/SEGGER_RTT_printf.c **** *                                                                    *
  26:../Public/debuglog/SEGGER_RTT_V792h/RTT/SEGGER_RTT_printf.c **** * o Redistributions of source code must retain the above copyright   *
  27:../Public/debuglog/SEGGER_RTT_V792h/RTT/SEGGER_RTT_printf.c **** *   notice, this condition and the following disclaimer.             *
  28:../Public/debuglog/SEGGER_RTT_V792h/RTT/SEGGER_RTT_printf.c **** *                                                                    *
  29:../Public/debuglog/SEGGER_RTT_V792h/RTT/SEGGER_RTT_printf.c **** * THIS SOFTWARE IS PROVIDED BY THE COPYRIGHT HOLDERS AND             *
  30:../Public/debuglog/SEGGER_RTT_V792h/RTT/SEGGER_RTT_printf.c **** * CONTRIBUTORS "AS IS" AND ANY EXPRESS OR IMPLIED WARRANTIES,        *
ARM GAS  C:\Users\zhangge\AppData\Local\Temp\ccknIKf0.s 			page 2


  31:../Public/debuglog/SEGGER_RTT_V792h/RTT/SEGGER_RTT_printf.c **** * INCLUDING, BUT NOT LIMITED TO, THE IMPLIED WARRANTIES OF           *
  32:../Public/debuglog/SEGGER_RTT_V792h/RTT/SEGGER_RTT_printf.c **** * MERCHANTABILITY AND FITNESS FOR A PARTICULAR PURPOSE ARE           *
  33:../Public/debuglog/SEGGER_RTT_V792h/RTT/SEGGER_RTT_printf.c **** * DISCLAIMED. IN NO EVENT SHALL SEGGER Microcontroller BE LIABLE FOR *
  34:../Public/debuglog/SEGGER_RTT_V792h/RTT/SEGGER_RTT_printf.c **** * ANY DIRECT, INDIRECT, INCIDENTAL, SPECIAL, EXEMPLARY, OR           *
  35:../Public/debuglog/SEGGER_RTT_V792h/RTT/SEGGER_RTT_printf.c **** * CONSEQUENTIAL DAMAGES (INCLUDING, BUT NOT LIMITED TO, PROCUREMENT  *
  36:../Public/debuglog/SEGGER_RTT_V792h/RTT/SEGGER_RTT_printf.c **** * OF SUBSTITUTE GOODS OR SERVICES; LOSS OF USE, DATA, OR PROFITS;    *
  37:../Public/debuglog/SEGGER_RTT_V792h/RTT/SEGGER_RTT_printf.c **** * OR BUSINESS INTERRUPTION) HOWEVER CAUSED AND ON ANY THEORY OF      *
  38:../Public/debuglog/SEGGER_RTT_V792h/RTT/SEGGER_RTT_printf.c **** * LIABILITY, WHETHER IN CONTRACT, STRICT LIABILITY, OR TORT          *
  39:../Public/debuglog/SEGGER_RTT_V792h/RTT/SEGGER_RTT_printf.c **** * (INCLUDING NEGLIGENCE OR OTHERWISE) ARISING IN ANY WAY OUT OF THE  *
  40:../Public/debuglog/SEGGER_RTT_V792h/RTT/SEGGER_RTT_printf.c **** * USE OF THIS SOFTWARE, EVEN IF ADVISED OF THE POSSIBILITY OF SUCH   *
  41:../Public/debuglog/SEGGER_RTT_V792h/RTT/SEGGER_RTT_printf.c **** * DAMAGE.                                                            *
  42:../Public/debuglog/SEGGER_RTT_V792h/RTT/SEGGER_RTT_printf.c **** *                                                                    *
  43:../Public/debuglog/SEGGER_RTT_V792h/RTT/SEGGER_RTT_printf.c **** **********************************************************************
  44:../Public/debuglog/SEGGER_RTT_V792h/RTT/SEGGER_RTT_printf.c **** *                                                                    *
  45:../Public/debuglog/SEGGER_RTT_V792h/RTT/SEGGER_RTT_printf.c **** *       RTT version: 7.92h                                           *
  46:../Public/debuglog/SEGGER_RTT_V792h/RTT/SEGGER_RTT_printf.c **** *                                                                    *
  47:../Public/debuglog/SEGGER_RTT_V792h/RTT/SEGGER_RTT_printf.c **** **********************************************************************
  48:../Public/debuglog/SEGGER_RTT_V792h/RTT/SEGGER_RTT_printf.c **** 
  49:../Public/debuglog/SEGGER_RTT_V792h/RTT/SEGGER_RTT_printf.c **** ---------------------------END-OF-HEADER------------------------------
  50:../Public/debuglog/SEGGER_RTT_V792h/RTT/SEGGER_RTT_printf.c **** File    : SEGGER_RTT_printf.c
  51:../Public/debuglog/SEGGER_RTT_V792h/RTT/SEGGER_RTT_printf.c **** Purpose : Replacement for printf to write formatted data via RTT
  52:../Public/debuglog/SEGGER_RTT_V792h/RTT/SEGGER_RTT_printf.c **** Revision: $Rev: 17697 $
  53:../Public/debuglog/SEGGER_RTT_V792h/RTT/SEGGER_RTT_printf.c **** ----------------------------------------------------------------------
  54:../Public/debuglog/SEGGER_RTT_V792h/RTT/SEGGER_RTT_printf.c **** */
  55:../Public/debuglog/SEGGER_RTT_V792h/RTT/SEGGER_RTT_printf.c **** #include "SEGGER_RTT.h"
  56:../Public/debuglog/SEGGER_RTT_V792h/RTT/SEGGER_RTT_printf.c **** #include "SEGGER_RTT_Conf.h"
  57:../Public/debuglog/SEGGER_RTT_V792h/RTT/SEGGER_RTT_printf.c **** 
  58:../Public/debuglog/SEGGER_RTT_V792h/RTT/SEGGER_RTT_printf.c **** /*********************************************************************
  59:../Public/debuglog/SEGGER_RTT_V792h/RTT/SEGGER_RTT_printf.c **** *
  60:../Public/debuglog/SEGGER_RTT_V792h/RTT/SEGGER_RTT_printf.c **** *       Defines, configurable
  61:../Public/debuglog/SEGGER_RTT_V792h/RTT/SEGGER_RTT_printf.c **** *
  62:../Public/debuglog/SEGGER_RTT_V792h/RTT/SEGGER_RTT_printf.c **** **********************************************************************
  63:../Public/debuglog/SEGGER_RTT_V792h/RTT/SEGGER_RTT_printf.c **** */
  64:../Public/debuglog/SEGGER_RTT_V792h/RTT/SEGGER_RTT_printf.c **** 
  65:../Public/debuglog/SEGGER_RTT_V792h/RTT/SEGGER_RTT_printf.c **** #ifndef SEGGER_RTT_PRINTF_BUFFER_SIZE
  66:../Public/debuglog/SEGGER_RTT_V792h/RTT/SEGGER_RTT_printf.c ****   #define SEGGER_RTT_PRINTF_BUFFER_SIZE (64)
  67:../Public/debuglog/SEGGER_RTT_V792h/RTT/SEGGER_RTT_printf.c **** #endif
  68:../Public/debuglog/SEGGER_RTT_V792h/RTT/SEGGER_RTT_printf.c **** 
  69:../Public/debuglog/SEGGER_RTT_V792h/RTT/SEGGER_RTT_printf.c **** #include <stdlib.h>
  70:../Public/debuglog/SEGGER_RTT_V792h/RTT/SEGGER_RTT_printf.c **** #include <stdarg.h>
  71:../Public/debuglog/SEGGER_RTT_V792h/RTT/SEGGER_RTT_printf.c **** 
  72:../Public/debuglog/SEGGER_RTT_V792h/RTT/SEGGER_RTT_printf.c **** 
  73:../Public/debuglog/SEGGER_RTT_V792h/RTT/SEGGER_RTT_printf.c **** #define FORMAT_FLAG_LEFT_JUSTIFY   (1u << 0)
  74:../Public/debuglog/SEGGER_RTT_V792h/RTT/SEGGER_RTT_printf.c **** #define FORMAT_FLAG_PAD_ZERO       (1u << 1)
  75:../Public/debuglog/SEGGER_RTT_V792h/RTT/SEGGER_RTT_printf.c **** #define FORMAT_FLAG_PRINT_SIGN     (1u << 2)
  76:../Public/debuglog/SEGGER_RTT_V792h/RTT/SEGGER_RTT_printf.c **** #define FORMAT_FLAG_ALTERNATE      (1u << 3)
  77:../Public/debuglog/SEGGER_RTT_V792h/RTT/SEGGER_RTT_printf.c **** 
  78:../Public/debuglog/SEGGER_RTT_V792h/RTT/SEGGER_RTT_printf.c **** /*********************************************************************
  79:../Public/debuglog/SEGGER_RTT_V792h/RTT/SEGGER_RTT_printf.c **** *
  80:../Public/debuglog/SEGGER_RTT_V792h/RTT/SEGGER_RTT_printf.c **** *       Types
  81:../Public/debuglog/SEGGER_RTT_V792h/RTT/SEGGER_RTT_printf.c **** *
  82:../Public/debuglog/SEGGER_RTT_V792h/RTT/SEGGER_RTT_printf.c **** **********************************************************************
  83:../Public/debuglog/SEGGER_RTT_V792h/RTT/SEGGER_RTT_printf.c **** */
  84:../Public/debuglog/SEGGER_RTT_V792h/RTT/SEGGER_RTT_printf.c **** 
  85:../Public/debuglog/SEGGER_RTT_V792h/RTT/SEGGER_RTT_printf.c **** typedef struct {
  86:../Public/debuglog/SEGGER_RTT_V792h/RTT/SEGGER_RTT_printf.c ****   char*     pBuffer;
  87:../Public/debuglog/SEGGER_RTT_V792h/RTT/SEGGER_RTT_printf.c ****   unsigned  BufferSize;
ARM GAS  C:\Users\zhangge\AppData\Local\Temp\ccknIKf0.s 			page 3


  88:../Public/debuglog/SEGGER_RTT_V792h/RTT/SEGGER_RTT_printf.c ****   unsigned  Cnt;
  89:../Public/debuglog/SEGGER_RTT_V792h/RTT/SEGGER_RTT_printf.c **** 
  90:../Public/debuglog/SEGGER_RTT_V792h/RTT/SEGGER_RTT_printf.c ****   int   ReturnValue;
  91:../Public/debuglog/SEGGER_RTT_V792h/RTT/SEGGER_RTT_printf.c **** 
  92:../Public/debuglog/SEGGER_RTT_V792h/RTT/SEGGER_RTT_printf.c ****   unsigned RTTBufferIndex;
  93:../Public/debuglog/SEGGER_RTT_V792h/RTT/SEGGER_RTT_printf.c **** } SEGGER_RTT_PRINTF_DESC;
  94:../Public/debuglog/SEGGER_RTT_V792h/RTT/SEGGER_RTT_printf.c **** 
  95:../Public/debuglog/SEGGER_RTT_V792h/RTT/SEGGER_RTT_printf.c **** /*********************************************************************
  96:../Public/debuglog/SEGGER_RTT_V792h/RTT/SEGGER_RTT_printf.c **** *
  97:../Public/debuglog/SEGGER_RTT_V792h/RTT/SEGGER_RTT_printf.c **** *       Function prototypes
  98:../Public/debuglog/SEGGER_RTT_V792h/RTT/SEGGER_RTT_printf.c **** *
  99:../Public/debuglog/SEGGER_RTT_V792h/RTT/SEGGER_RTT_printf.c **** **********************************************************************
 100:../Public/debuglog/SEGGER_RTT_V792h/RTT/SEGGER_RTT_printf.c **** */
 101:../Public/debuglog/SEGGER_RTT_V792h/RTT/SEGGER_RTT_printf.c **** 
 102:../Public/debuglog/SEGGER_RTT_V792h/RTT/SEGGER_RTT_printf.c **** /*********************************************************************
 103:../Public/debuglog/SEGGER_RTT_V792h/RTT/SEGGER_RTT_printf.c **** *
 104:../Public/debuglog/SEGGER_RTT_V792h/RTT/SEGGER_RTT_printf.c **** *       Static code
 105:../Public/debuglog/SEGGER_RTT_V792h/RTT/SEGGER_RTT_printf.c **** *
 106:../Public/debuglog/SEGGER_RTT_V792h/RTT/SEGGER_RTT_printf.c **** **********************************************************************
 107:../Public/debuglog/SEGGER_RTT_V792h/RTT/SEGGER_RTT_printf.c **** */
 108:../Public/debuglog/SEGGER_RTT_V792h/RTT/SEGGER_RTT_printf.c **** /*********************************************************************
 109:../Public/debuglog/SEGGER_RTT_V792h/RTT/SEGGER_RTT_printf.c **** *
 110:../Public/debuglog/SEGGER_RTT_V792h/RTT/SEGGER_RTT_printf.c **** *       _StoreChar
 111:../Public/debuglog/SEGGER_RTT_V792h/RTT/SEGGER_RTT_printf.c **** */
 112:../Public/debuglog/SEGGER_RTT_V792h/RTT/SEGGER_RTT_printf.c **** static void _StoreChar(SEGGER_RTT_PRINTF_DESC * p, char c) {
  29              		.loc 1 112 60 view -0
  30              		.cfi_startproc
  31              		@ args = 0, pretend = 0, frame = 0
  32              		@ frame_needed = 0, uses_anonymous_args = 0
  33              		.loc 1 112 60 is_stmt 0 view .LVU1
  34 0000 10B5     		push	{r4, lr}
  35              	.LCFI0:
  36              		.cfi_def_cfa_offset 8
  37              		.cfi_offset 4, -8
  38              		.cfi_offset 14, -4
  39 0002 0446     		mov	r4, r0
 113:../Public/debuglog/SEGGER_RTT_V792h/RTT/SEGGER_RTT_printf.c ****   unsigned Cnt;
  40              		.loc 1 113 3 is_stmt 1 view .LVU2
 114:../Public/debuglog/SEGGER_RTT_V792h/RTT/SEGGER_RTT_printf.c **** 
 115:../Public/debuglog/SEGGER_RTT_V792h/RTT/SEGGER_RTT_printf.c ****   Cnt = p->Cnt;
  41              		.loc 1 115 3 view .LVU3
  42              		.loc 1 115 7 is_stmt 0 view .LVU4
  43 0004 8268     		ldr	r2, [r0, #8]
  44              	.LVL1:
 116:../Public/debuglog/SEGGER_RTT_V792h/RTT/SEGGER_RTT_printf.c ****   if ((Cnt + 1u) <= p->BufferSize) {
  45              		.loc 1 116 3 is_stmt 1 view .LVU5
  46              		.loc 1 116 12 is_stmt 0 view .LVU6
  47 0006 531C     		adds	r3, r2, #1
  48              		.loc 1 116 22 view .LVU7
  49 0008 4068     		ldr	r0, [r0, #4]
  50              	.LVL2:
  51              		.loc 1 116 6 view .LVU8
  52 000a 8342     		cmp	r3, r0
  53 000c 05D8     		bhi	.L2
 117:../Public/debuglog/SEGGER_RTT_V792h/RTT/SEGGER_RTT_printf.c ****     *(p->pBuffer + Cnt) = c;
  54              		.loc 1 117 5 is_stmt 1 view .LVU9
  55              		.loc 1 117 8 is_stmt 0 view .LVU10
ARM GAS  C:\Users\zhangge\AppData\Local\Temp\ccknIKf0.s 			page 4


  56 000e 2068     		ldr	r0, [r4]
  57              		.loc 1 117 25 view .LVU11
  58 0010 8154     		strb	r1, [r0, r2]
 118:../Public/debuglog/SEGGER_RTT_V792h/RTT/SEGGER_RTT_printf.c ****     p->Cnt = Cnt + 1u;
  59              		.loc 1 118 5 is_stmt 1 view .LVU12
  60              		.loc 1 118 12 is_stmt 0 view .LVU13
  61 0012 A360     		str	r3, [r4, #8]
 119:../Public/debuglog/SEGGER_RTT_V792h/RTT/SEGGER_RTT_printf.c ****     p->ReturnValue++;
  62              		.loc 1 119 5 is_stmt 1 view .LVU14
  63              		.loc 1 119 6 is_stmt 0 view .LVU15
  64 0014 E368     		ldr	r3, [r4, #12]
  65              		.loc 1 119 19 view .LVU16
  66 0016 0133     		adds	r3, r3, #1
  67 0018 E360     		str	r3, [r4, #12]
  68              	.L2:
 120:../Public/debuglog/SEGGER_RTT_V792h/RTT/SEGGER_RTT_printf.c ****   }
 121:../Public/debuglog/SEGGER_RTT_V792h/RTT/SEGGER_RTT_printf.c ****   //
 122:../Public/debuglog/SEGGER_RTT_V792h/RTT/SEGGER_RTT_printf.c ****   // Write part of string, when the buffer is full
 123:../Public/debuglog/SEGGER_RTT_V792h/RTT/SEGGER_RTT_printf.c ****   //
 124:../Public/debuglog/SEGGER_RTT_V792h/RTT/SEGGER_RTT_printf.c ****   if (p->Cnt == p->BufferSize) {
  69              		.loc 1 124 3 is_stmt 1 view .LVU17
  70              		.loc 1 124 8 is_stmt 0 view .LVU18
  71 001a A268     		ldr	r2, [r4, #8]
  72              	.LVL3:
  73              		.loc 1 124 18 view .LVU19
  74 001c 6368     		ldr	r3, [r4, #4]
  75              		.loc 1 124 6 view .LVU20
  76 001e 9A42     		cmp	r2, r3
  77 0020 00D0     		beq	.L6
  78              	.LVL4:
  79              	.L1:
 125:../Public/debuglog/SEGGER_RTT_V792h/RTT/SEGGER_RTT_printf.c ****     if (SEGGER_RTT_Write(p->RTTBufferIndex, p->pBuffer, p->Cnt) != p->Cnt) {
 126:../Public/debuglog/SEGGER_RTT_V792h/RTT/SEGGER_RTT_printf.c ****       p->ReturnValue = -1;
 127:../Public/debuglog/SEGGER_RTT_V792h/RTT/SEGGER_RTT_printf.c ****     } else {
 128:../Public/debuglog/SEGGER_RTT_V792h/RTT/SEGGER_RTT_printf.c ****       p->Cnt = 0u;
 129:../Public/debuglog/SEGGER_RTT_V792h/RTT/SEGGER_RTT_printf.c ****     }
 130:../Public/debuglog/SEGGER_RTT_V792h/RTT/SEGGER_RTT_printf.c ****   }
 131:../Public/debuglog/SEGGER_RTT_V792h/RTT/SEGGER_RTT_printf.c **** }
  80              		.loc 1 131 1 view .LVU21
  81 0022 10BD     		pop	{r4, pc}
  82              	.LVL5:
  83              	.L6:
 125:../Public/debuglog/SEGGER_RTT_V792h/RTT/SEGGER_RTT_printf.c ****     if (SEGGER_RTT_Write(p->RTTBufferIndex, p->pBuffer, p->Cnt) != p->Cnt) {
  84              		.loc 1 125 5 is_stmt 1 view .LVU22
 125:../Public/debuglog/SEGGER_RTT_V792h/RTT/SEGGER_RTT_printf.c ****     if (SEGGER_RTT_Write(p->RTTBufferIndex, p->pBuffer, p->Cnt) != p->Cnt) {
  85              		.loc 1 125 9 is_stmt 0 view .LVU23
  86 0024 2168     		ldr	r1, [r4]
  87              	.LVL6:
 125:../Public/debuglog/SEGGER_RTT_V792h/RTT/SEGGER_RTT_printf.c ****     if (SEGGER_RTT_Write(p->RTTBufferIndex, p->pBuffer, p->Cnt) != p->Cnt) {
  88              		.loc 1 125 9 view .LVU24
  89 0026 2069     		ldr	r0, [r4, #16]
  90 0028 FFF7FEFF 		bl	SEGGER_RTT_Write
  91              	.LVL7:
 125:../Public/debuglog/SEGGER_RTT_V792h/RTT/SEGGER_RTT_printf.c ****     if (SEGGER_RTT_Write(p->RTTBufferIndex, p->pBuffer, p->Cnt) != p->Cnt) {
  92              		.loc 1 125 69 view .LVU25
  93 002c A368     		ldr	r3, [r4, #8]
 125:../Public/debuglog/SEGGER_RTT_V792h/RTT/SEGGER_RTT_printf.c ****     if (SEGGER_RTT_Write(p->RTTBufferIndex, p->pBuffer, p->Cnt) != p->Cnt) {
ARM GAS  C:\Users\zhangge\AppData\Local\Temp\ccknIKf0.s 			page 5


  94              		.loc 1 125 8 view .LVU26
  95 002e 9842     		cmp	r0, r3
  96 0030 03D0     		beq	.L4
 126:../Public/debuglog/SEGGER_RTT_V792h/RTT/SEGGER_RTT_printf.c ****     } else {
  97              		.loc 1 126 7 is_stmt 1 view .LVU27
 126:../Public/debuglog/SEGGER_RTT_V792h/RTT/SEGGER_RTT_printf.c ****     } else {
  98              		.loc 1 126 22 is_stmt 0 view .LVU28
  99 0032 4FF0FF33 		mov	r3, #-1
 100 0036 E360     		str	r3, [r4, #12]
 101 0038 F3E7     		b	.L1
 102              	.L4:
 128:../Public/debuglog/SEGGER_RTT_V792h/RTT/SEGGER_RTT_printf.c ****     }
 103              		.loc 1 128 7 is_stmt 1 view .LVU29
 128:../Public/debuglog/SEGGER_RTT_V792h/RTT/SEGGER_RTT_printf.c ****     }
 104              		.loc 1 128 14 is_stmt 0 view .LVU30
 105 003a 0023     		movs	r3, #0
 106 003c A360     		str	r3, [r4, #8]
 107              		.loc 1 131 1 view .LVU31
 108 003e F0E7     		b	.L1
 109              		.cfi_endproc
 110              	.LFE0:
 112              		.section	.text._PrintUnsigned,"ax",%progbits
 113              		.align	1
 114              		.syntax unified
 115              		.thumb
 116              		.thumb_func
 118              	_PrintUnsigned:
 119              	.LVL8:
 120              	.LFB1:
 132:../Public/debuglog/SEGGER_RTT_V792h/RTT/SEGGER_RTT_printf.c **** 
 133:../Public/debuglog/SEGGER_RTT_V792h/RTT/SEGGER_RTT_printf.c **** /*********************************************************************
 134:../Public/debuglog/SEGGER_RTT_V792h/RTT/SEGGER_RTT_printf.c **** *
 135:../Public/debuglog/SEGGER_RTT_V792h/RTT/SEGGER_RTT_printf.c **** *       _PrintUnsigned
 136:../Public/debuglog/SEGGER_RTT_V792h/RTT/SEGGER_RTT_printf.c **** */
 137:../Public/debuglog/SEGGER_RTT_V792h/RTT/SEGGER_RTT_printf.c **** static void _PrintUnsigned(SEGGER_RTT_PRINTF_DESC * pBufferDesc, unsigned v, unsigned Base, unsigne
 121              		.loc 1 137 156 is_stmt 1 view -0
 122              		.cfi_startproc
 123              		@ args = 8, pretend = 0, frame = 0
 124              		@ frame_needed = 0, uses_anonymous_args = 0
 125              		.loc 1 137 156 is_stmt 0 view .LVU33
 126 0000 2DE9F84F 		push	{r3, r4, r5, r6, r7, r8, r9, r10, fp, lr}
 127              	.LCFI1:
 128              		.cfi_def_cfa_offset 40
 129              		.cfi_offset 3, -40
 130              		.cfi_offset 4, -36
 131              		.cfi_offset 5, -32
 132              		.cfi_offset 6, -28
 133              		.cfi_offset 7, -24
 134              		.cfi_offset 8, -20
 135              		.cfi_offset 9, -16
 136              		.cfi_offset 10, -12
 137              		.cfi_offset 11, -8
 138              		.cfi_offset 14, -4
 139 0004 8146     		mov	r9, r0
 140 0006 0F46     		mov	r7, r1
 141 0008 1546     		mov	r5, r2
 142 000a 1E46     		mov	r6, r3
ARM GAS  C:\Users\zhangge\AppData\Local\Temp\ccknIKf0.s 			page 6


 143 000c DDF828A0 		ldr	r10, [sp, #40]
 144 0010 0B9A     		ldr	r2, [sp, #44]
 145              	.LVL9:
 138:../Public/debuglog/SEGGER_RTT_V792h/RTT/SEGGER_RTT_printf.c ****   static const char _aV2C[16] = {'0', '1', '2', '3', '4', '5', '6', '7', '8', '9', 'A', 'B', 'C', '
 146              		.loc 1 138 3 is_stmt 1 view .LVU34
 139:../Public/debuglog/SEGGER_RTT_V792h/RTT/SEGGER_RTT_printf.c ****   unsigned Div;
 147              		.loc 1 139 3 view .LVU35
 140:../Public/debuglog/SEGGER_RTT_V792h/RTT/SEGGER_RTT_printf.c ****   unsigned Digit;
 148              		.loc 1 140 3 view .LVU36
 141:../Public/debuglog/SEGGER_RTT_V792h/RTT/SEGGER_RTT_printf.c ****   unsigned Number;
 149              		.loc 1 141 3 view .LVU37
 142:../Public/debuglog/SEGGER_RTT_V792h/RTT/SEGGER_RTT_printf.c ****   unsigned Width;
 150              		.loc 1 142 3 view .LVU38
 143:../Public/debuglog/SEGGER_RTT_V792h/RTT/SEGGER_RTT_printf.c ****   char c;
 151              		.loc 1 143 3 view .LVU39
 144:../Public/debuglog/SEGGER_RTT_V792h/RTT/SEGGER_RTT_printf.c **** 
 145:../Public/debuglog/SEGGER_RTT_V792h/RTT/SEGGER_RTT_printf.c ****   Number = v;
 152              		.loc 1 145 3 view .LVU40
 146:../Public/debuglog/SEGGER_RTT_V792h/RTT/SEGGER_RTT_printf.c ****   Digit = 1u;
 153              		.loc 1 146 3 view .LVU41
 147:../Public/debuglog/SEGGER_RTT_V792h/RTT/SEGGER_RTT_printf.c ****   //
 148:../Public/debuglog/SEGGER_RTT_V792h/RTT/SEGGER_RTT_printf.c ****   // Get actual field width
 149:../Public/debuglog/SEGGER_RTT_V792h/RTT/SEGGER_RTT_printf.c ****   //
 150:../Public/debuglog/SEGGER_RTT_V792h/RTT/SEGGER_RTT_printf.c ****   Width = 1u;
 154              		.loc 1 150 3 view .LVU42
 151:../Public/debuglog/SEGGER_RTT_V792h/RTT/SEGGER_RTT_printf.c ****   while (Number >= Base) {
 155              		.loc 1 151 3 view .LVU43
 145:../Public/debuglog/SEGGER_RTT_V792h/RTT/SEGGER_RTT_printf.c ****   Digit = 1u;
 156              		.loc 1 145 10 is_stmt 0 view .LVU44
 157 0012 0B46     		mov	r3, r1
 158              	.LVL10:
 150:../Public/debuglog/SEGGER_RTT_V792h/RTT/SEGGER_RTT_printf.c ****   while (Number >= Base) {
 159              		.loc 1 150 9 view .LVU45
 160 0014 4FF00108 		mov	r8, #1
 161              		.loc 1 151 9 view .LVU46
 162 0018 03E0     		b	.L8
 163              	.LVL11:
 164              	.L9:
 152:../Public/debuglog/SEGGER_RTT_V792h/RTT/SEGGER_RTT_printf.c ****     Number = (Number / Base);
 165              		.loc 1 152 5 is_stmt 1 view .LVU47
 166              		.loc 1 152 12 is_stmt 0 view .LVU48
 167 001a B3FBF5F3 		udiv	r3, r3, r5
 168              	.LVL12:
 153:../Public/debuglog/SEGGER_RTT_V792h/RTT/SEGGER_RTT_printf.c ****     Width++;
 169              		.loc 1 153 5 is_stmt 1 view .LVU49
 170              		.loc 1 153 10 is_stmt 0 view .LVU50
 171 001e 08F10108 		add	r8, r8, #1
 172              	.LVL13:
 173              	.L8:
 151:../Public/debuglog/SEGGER_RTT_V792h/RTT/SEGGER_RTT_printf.c ****     Number = (Number / Base);
 174              		.loc 1 151 9 is_stmt 1 view .LVU51
 175 0022 AB42     		cmp	r3, r5
 176 0024 F9D2     		bcs	.L9
 154:../Public/debuglog/SEGGER_RTT_V792h/RTT/SEGGER_RTT_printf.c ****   }
 155:../Public/debuglog/SEGGER_RTT_V792h/RTT/SEGGER_RTT_printf.c ****   if (NumDigits > Width) {
 177              		.loc 1 155 3 view .LVU52
 178              		.loc 1 155 6 is_stmt 0 view .LVU53
ARM GAS  C:\Users\zhangge\AppData\Local\Temp\ccknIKf0.s 			page 7


 179 0026 B045     		cmp	r8, r6
 180 0028 00D2     		bcs	.L10
 156:../Public/debuglog/SEGGER_RTT_V792h/RTT/SEGGER_RTT_printf.c ****     Width = NumDigits;
 181              		.loc 1 156 11 view .LVU54
 182 002a B046     		mov	r8, r6
 183              	.LVL14:
 184              	.L10:
 157:../Public/debuglog/SEGGER_RTT_V792h/RTT/SEGGER_RTT_printf.c ****   }
 158:../Public/debuglog/SEGGER_RTT_V792h/RTT/SEGGER_RTT_printf.c ****   //
 159:../Public/debuglog/SEGGER_RTT_V792h/RTT/SEGGER_RTT_printf.c ****   // Print leading chars if necessary
 160:../Public/debuglog/SEGGER_RTT_V792h/RTT/SEGGER_RTT_printf.c ****   //
 161:../Public/debuglog/SEGGER_RTT_V792h/RTT/SEGGER_RTT_printf.c ****   if ((FormatFlags & FORMAT_FLAG_LEFT_JUSTIFY) == 0u) {
 185              		.loc 1 161 3 is_stmt 1 view .LVU55
 186              		.loc 1 161 6 is_stmt 0 view .LVU56
 187 002c 12F0010B 		ands	fp, r2, #1
 188 0030 18D1     		bne	.L11
 162:../Public/debuglog/SEGGER_RTT_V792h/RTT/SEGGER_RTT_printf.c ****     if (FieldWidth != 0u) {
 189              		.loc 1 162 5 is_stmt 1 view .LVU57
 190              		.loc 1 162 8 is_stmt 0 view .LVU58
 191 0032 BAF1000F 		cmp	r10, #0
 192 0036 15D0     		beq	.L11
 163:../Public/debuglog/SEGGER_RTT_V792h/RTT/SEGGER_RTT_printf.c ****       if (((FormatFlags & FORMAT_FLAG_PAD_ZERO) == FORMAT_FLAG_PAD_ZERO) && (NumDigits == 0u)) {
 193              		.loc 1 163 7 is_stmt 1 view .LVU59
 194              		.loc 1 163 10 is_stmt 0 view .LVU60
 195 0038 12F0020F 		tst	r2, #2
 196 003c 02D0     		beq	.L24
 197              		.loc 1 163 74 discriminator 1 view .LVU61
 198 003e BEB1     		cbz	r6, .L25
 164:../Public/debuglog/SEGGER_RTT_V792h/RTT/SEGGER_RTT_printf.c ****         c = '0';
 165:../Public/debuglog/SEGGER_RTT_V792h/RTT/SEGGER_RTT_printf.c ****       } else {
 166:../Public/debuglog/SEGGER_RTT_V792h/RTT/SEGGER_RTT_printf.c ****         c = ' ';
 199              		.loc 1 166 11 view .LVU62
 200 0040 2024     		movs	r4, #32
 201 0042 00E0     		b	.L13
 202              	.L24:
 203 0044 2024     		movs	r4, #32
 204              	.LVL15:
 205              	.L13:
 167:../Public/debuglog/SEGGER_RTT_V792h/RTT/SEGGER_RTT_printf.c ****       }
 168:../Public/debuglog/SEGGER_RTT_V792h/RTT/SEGGER_RTT_printf.c ****       while ((FieldWidth != 0u) && (Width < FieldWidth)) {
 206              		.loc 1 168 13 is_stmt 1 view .LVU63
 207 0046 BAF1000F 		cmp	r10, #0
 208 004a 0BD0     		beq	.L11
 209              		.loc 1 168 33 is_stmt 0 discriminator 1 view .LVU64
 210 004c C245     		cmp	r10, r8
 211 004e 09D9     		bls	.L11
 169:../Public/debuglog/SEGGER_RTT_V792h/RTT/SEGGER_RTT_printf.c ****         FieldWidth--;
 212              		.loc 1 169 9 is_stmt 1 view .LVU65
 213              		.loc 1 169 19 is_stmt 0 view .LVU66
 214 0050 0AF1FF3A 		add	r10, r10, #-1
 215              	.LVL16:
 170:../Public/debuglog/SEGGER_RTT_V792h/RTT/SEGGER_RTT_printf.c ****         _StoreChar(pBufferDesc, c);
 216              		.loc 1 170 9 is_stmt 1 view .LVU67
 217 0054 2146     		mov	r1, r4
 218 0056 4846     		mov	r0, r9
 219 0058 FFF7FEFF 		bl	_StoreChar
 220              	.LVL17:
ARM GAS  C:\Users\zhangge\AppData\Local\Temp\ccknIKf0.s 			page 8


 171:../Public/debuglog/SEGGER_RTT_V792h/RTT/SEGGER_RTT_printf.c ****         if (pBufferDesc->ReturnValue < 0) {
 221              		.loc 1 171 9 view .LVU68
 222              		.loc 1 171 24 is_stmt 0 view .LVU69
 223 005c D9F80C30 		ldr	r3, [r9, #12]
 224              		.loc 1 171 12 view .LVU70
 225 0060 002B     		cmp	r3, #0
 226 0062 F0DA     		bge	.L13
 227              	.LVL18:
 228              	.L11:
 172:../Public/debuglog/SEGGER_RTT_V792h/RTT/SEGGER_RTT_printf.c ****           break;
 173:../Public/debuglog/SEGGER_RTT_V792h/RTT/SEGGER_RTT_printf.c ****         }
 174:../Public/debuglog/SEGGER_RTT_V792h/RTT/SEGGER_RTT_printf.c ****       }
 175:../Public/debuglog/SEGGER_RTT_V792h/RTT/SEGGER_RTT_printf.c ****     }
 176:../Public/debuglog/SEGGER_RTT_V792h/RTT/SEGGER_RTT_printf.c ****   }
 177:../Public/debuglog/SEGGER_RTT_V792h/RTT/SEGGER_RTT_printf.c ****   if (pBufferDesc->ReturnValue >= 0) {
 229              		.loc 1 177 3 is_stmt 1 view .LVU71
 230              		.loc 1 177 18 is_stmt 0 view .LVU72
 231 0064 D9F80C30 		ldr	r3, [r9, #12]
 232              		.loc 1 177 6 view .LVU73
 233 0068 002B     		cmp	r3, #0
 234 006a 25DB     		blt	.L7
 146:../Public/debuglog/SEGGER_RTT_V792h/RTT/SEGGER_RTT_printf.c ****   //
 235              		.loc 1 146 9 view .LVU74
 236 006c 0124     		movs	r4, #1
 237 006e 04E0     		b	.L19
 238              	.LVL19:
 239              	.L25:
 164:../Public/debuglog/SEGGER_RTT_V792h/RTT/SEGGER_RTT_printf.c ****       } else {
 240              		.loc 1 164 11 view .LVU75
 241 0070 3024     		movs	r4, #48
 242 0072 E8E7     		b	.L13
 243              	.LVL20:
 244              	.L28:
 178:../Public/debuglog/SEGGER_RTT_V792h/RTT/SEGGER_RTT_printf.c ****     //
 179:../Public/debuglog/SEGGER_RTT_V792h/RTT/SEGGER_RTT_printf.c ****     // Compute Digit.
 180:../Public/debuglog/SEGGER_RTT_V792h/RTT/SEGGER_RTT_printf.c ****     // Loop until Digit has the value of the highest digit required.
 181:../Public/debuglog/SEGGER_RTT_V792h/RTT/SEGGER_RTT_printf.c ****     // Example: If the output is 345 (Base 10), loop 2 times until Digit is 100.
 182:../Public/debuglog/SEGGER_RTT_V792h/RTT/SEGGER_RTT_printf.c ****     //
 183:../Public/debuglog/SEGGER_RTT_V792h/RTT/SEGGER_RTT_printf.c ****     while (1) {
 184:../Public/debuglog/SEGGER_RTT_V792h/RTT/SEGGER_RTT_printf.c ****       if (NumDigits > 1u) {       // User specified a min number of digits to print? => Make sure w
 185:../Public/debuglog/SEGGER_RTT_V792h/RTT/SEGGER_RTT_printf.c ****         NumDigits--;
 245              		.loc 1 185 9 is_stmt 1 view .LVU76
 246              		.loc 1 185 18 is_stmt 0 view .LVU77
 247 0074 013E     		subs	r6, r6, #1
 248              	.LVL21:
 249              	.L17:
 186:../Public/debuglog/SEGGER_RTT_V792h/RTT/SEGGER_RTT_printf.c ****       } else {
 187:../Public/debuglog/SEGGER_RTT_V792h/RTT/SEGGER_RTT_printf.c ****         Div = v / Digit;
 188:../Public/debuglog/SEGGER_RTT_V792h/RTT/SEGGER_RTT_printf.c ****         if (Div < Base) {        // Is our divider big enough to extract the highest digit from val
 189:../Public/debuglog/SEGGER_RTT_V792h/RTT/SEGGER_RTT_printf.c ****           break;
 190:../Public/debuglog/SEGGER_RTT_V792h/RTT/SEGGER_RTT_printf.c ****         }
 191:../Public/debuglog/SEGGER_RTT_V792h/RTT/SEGGER_RTT_printf.c ****       }
 192:../Public/debuglog/SEGGER_RTT_V792h/RTT/SEGGER_RTT_printf.c ****       Digit *= Base;
 250              		.loc 1 192 7 is_stmt 1 view .LVU78
 251              		.loc 1 192 13 is_stmt 0 view .LVU79
 252 0076 05FB04F4 		mul	r4, r5, r4
 253              	.LVL22:
ARM GAS  C:\Users\zhangge\AppData\Local\Temp\ccknIKf0.s 			page 9


 183:../Public/debuglog/SEGGER_RTT_V792h/RTT/SEGGER_RTT_printf.c ****       if (NumDigits > 1u) {       // User specified a min number of digits to print? => Make sure w
 254              		.loc 1 183 11 is_stmt 1 view .LVU80
 255              	.L19:
 183:../Public/debuglog/SEGGER_RTT_V792h/RTT/SEGGER_RTT_printf.c ****       if (NumDigits > 1u) {       // User specified a min number of digits to print? => Make sure w
 256              		.loc 1 183 5 view .LVU81
 184:../Public/debuglog/SEGGER_RTT_V792h/RTT/SEGGER_RTT_printf.c ****         NumDigits--;
 257              		.loc 1 184 7 view .LVU82
 184:../Public/debuglog/SEGGER_RTT_V792h/RTT/SEGGER_RTT_printf.c ****         NumDigits--;
 258              		.loc 1 184 10 is_stmt 0 view .LVU83
 259 007a 012E     		cmp	r6, #1
 260 007c FAD8     		bhi	.L28
 187:../Public/debuglog/SEGGER_RTT_V792h/RTT/SEGGER_RTT_printf.c ****         if (Div < Base) {        // Is our divider big enough to extract the highest digit from val
 261              		.loc 1 187 9 is_stmt 1 view .LVU84
 187:../Public/debuglog/SEGGER_RTT_V792h/RTT/SEGGER_RTT_printf.c ****         if (Div < Base) {        // Is our divider big enough to extract the highest digit from val
 262              		.loc 1 187 13 is_stmt 0 view .LVU85
 263 007e B7FBF4F3 		udiv	r3, r7, r4
 264              	.LVL23:
 188:../Public/debuglog/SEGGER_RTT_V792h/RTT/SEGGER_RTT_printf.c ****           break;
 265              		.loc 1 188 9 is_stmt 1 view .LVU86
 188:../Public/debuglog/SEGGER_RTT_V792h/RTT/SEGGER_RTT_printf.c ****           break;
 266              		.loc 1 188 12 is_stmt 0 view .LVU87
 267 0082 9D42     		cmp	r5, r3
 268 0084 F7D9     		bls	.L17
 269 0086 00E0     		b	.L18
 270              	.LVL24:
 271              	.L26:
 193:../Public/debuglog/SEGGER_RTT_V792h/RTT/SEGGER_RTT_printf.c ****     }
 194:../Public/debuglog/SEGGER_RTT_V792h/RTT/SEGGER_RTT_printf.c ****     //
 195:../Public/debuglog/SEGGER_RTT_V792h/RTT/SEGGER_RTT_printf.c ****     // Output digits
 196:../Public/debuglog/SEGGER_RTT_V792h/RTT/SEGGER_RTT_printf.c ****     //
 197:../Public/debuglog/SEGGER_RTT_V792h/RTT/SEGGER_RTT_printf.c ****     do {
 198:../Public/debuglog/SEGGER_RTT_V792h/RTT/SEGGER_RTT_printf.c ****       Div = v / Digit;
 199:../Public/debuglog/SEGGER_RTT_V792h/RTT/SEGGER_RTT_printf.c ****       v -= Div * Digit;
 200:../Public/debuglog/SEGGER_RTT_V792h/RTT/SEGGER_RTT_printf.c ****       _StoreChar(pBufferDesc, _aV2C[Div]);
 201:../Public/debuglog/SEGGER_RTT_V792h/RTT/SEGGER_RTT_printf.c ****       if (pBufferDesc->ReturnValue < 0) {
 202:../Public/debuglog/SEGGER_RTT_V792h/RTT/SEGGER_RTT_printf.c ****         break;
 203:../Public/debuglog/SEGGER_RTT_V792h/RTT/SEGGER_RTT_printf.c ****       }
 204:../Public/debuglog/SEGGER_RTT_V792h/RTT/SEGGER_RTT_printf.c ****       Digit /= Base;
 272              		.loc 1 204 13 view .LVU88
 273 0088 1C46     		mov	r4, r3
 274              	.LVL25:
 275              	.L18:
 197:../Public/debuglog/SEGGER_RTT_V792h/RTT/SEGGER_RTT_printf.c ****       Div = v / Digit;
 276              		.loc 1 197 5 is_stmt 1 view .LVU89
 198:../Public/debuglog/SEGGER_RTT_V792h/RTT/SEGGER_RTT_printf.c ****       v -= Div * Digit;
 277              		.loc 1 198 7 view .LVU90
 198:../Public/debuglog/SEGGER_RTT_V792h/RTT/SEGGER_RTT_printf.c ****       v -= Div * Digit;
 278              		.loc 1 198 11 is_stmt 0 view .LVU91
 279 008a B7FBF4F3 		udiv	r3, r7, r4
 280              	.LVL26:
 199:../Public/debuglog/SEGGER_RTT_V792h/RTT/SEGGER_RTT_printf.c ****       _StoreChar(pBufferDesc, _aV2C[Div]);
 281              		.loc 1 199 7 is_stmt 1 view .LVU92
 282 008e 04FB1377 		mls	r7, r4, r3, r7
 283              	.LVL27:
 200:../Public/debuglog/SEGGER_RTT_V792h/RTT/SEGGER_RTT_printf.c ****       if (pBufferDesc->ReturnValue < 0) {
 284              		.loc 1 200 7 view .LVU93
 285 0092 124A     		ldr	r2, .L29
ARM GAS  C:\Users\zhangge\AppData\Local\Temp\ccknIKf0.s 			page 10


 286 0094 D15C     		ldrb	r1, [r2, r3]	@ zero_extendqisi2
 287 0096 4846     		mov	r0, r9
 288 0098 FFF7FEFF 		bl	_StoreChar
 289              	.LVL28:
 201:../Public/debuglog/SEGGER_RTT_V792h/RTT/SEGGER_RTT_printf.c ****         break;
 290              		.loc 1 201 7 view .LVU94
 201:../Public/debuglog/SEGGER_RTT_V792h/RTT/SEGGER_RTT_printf.c ****         break;
 291              		.loc 1 201 22 is_stmt 0 view .LVU95
 292 009c D9F80C30 		ldr	r3, [r9, #12]
 201:../Public/debuglog/SEGGER_RTT_V792h/RTT/SEGGER_RTT_printf.c ****         break;
 293              		.loc 1 201 10 view .LVU96
 294 00a0 002B     		cmp	r3, #0
 295 00a2 03DB     		blt	.L20
 296              		.loc 1 204 7 is_stmt 1 view .LVU97
 297              		.loc 1 204 13 is_stmt 0 view .LVU98
 298 00a4 B4FBF5F3 		udiv	r3, r4, r5
 299              	.LVL29:
 205:../Public/debuglog/SEGGER_RTT_V792h/RTT/SEGGER_RTT_printf.c ****     } while (Digit);
 300              		.loc 1 205 13 is_stmt 1 view .LVU99
 301              		.loc 1 205 5 is_stmt 0 view .LVU100
 302 00a8 AC42     		cmp	r4, r5
 303 00aa EDD2     		bcs	.L26
 304              	.LVL30:
 305              	.L20:
 206:../Public/debuglog/SEGGER_RTT_V792h/RTT/SEGGER_RTT_printf.c ****     //
 207:../Public/debuglog/SEGGER_RTT_V792h/RTT/SEGGER_RTT_printf.c ****     // Print trailing spaces if necessary
 208:../Public/debuglog/SEGGER_RTT_V792h/RTT/SEGGER_RTT_printf.c ****     //
 209:../Public/debuglog/SEGGER_RTT_V792h/RTT/SEGGER_RTT_printf.c ****     if ((FormatFlags & FORMAT_FLAG_LEFT_JUSTIFY) == FORMAT_FLAG_LEFT_JUSTIFY) {
 306              		.loc 1 209 5 is_stmt 1 view .LVU101
 307              		.loc 1 209 8 is_stmt 0 view .LVU102
 308 00ac BBF1000F 		cmp	fp, #0
 309 00b0 02D0     		beq	.L7
 210:../Public/debuglog/SEGGER_RTT_V792h/RTT/SEGGER_RTT_printf.c ****       if (FieldWidth != 0u) {
 310              		.loc 1 210 7 is_stmt 1 view .LVU103
 311              		.loc 1 210 10 is_stmt 0 view .LVU104
 312 00b2 BAF1000F 		cmp	r10, #0
 313 00b6 01D1     		bne	.L21
 314              	.L7:
 211:../Public/debuglog/SEGGER_RTT_V792h/RTT/SEGGER_RTT_printf.c ****         while ((FieldWidth != 0u) && (Width < FieldWidth)) {
 212:../Public/debuglog/SEGGER_RTT_V792h/RTT/SEGGER_RTT_printf.c ****           FieldWidth--;
 213:../Public/debuglog/SEGGER_RTT_V792h/RTT/SEGGER_RTT_printf.c ****           _StoreChar(pBufferDesc, ' ');
 214:../Public/debuglog/SEGGER_RTT_V792h/RTT/SEGGER_RTT_printf.c ****           if (pBufferDesc->ReturnValue < 0) {
 215:../Public/debuglog/SEGGER_RTT_V792h/RTT/SEGGER_RTT_printf.c ****             break;
 216:../Public/debuglog/SEGGER_RTT_V792h/RTT/SEGGER_RTT_printf.c ****           }
 217:../Public/debuglog/SEGGER_RTT_V792h/RTT/SEGGER_RTT_printf.c ****         }
 218:../Public/debuglog/SEGGER_RTT_V792h/RTT/SEGGER_RTT_printf.c ****       }
 219:../Public/debuglog/SEGGER_RTT_V792h/RTT/SEGGER_RTT_printf.c ****     }
 220:../Public/debuglog/SEGGER_RTT_V792h/RTT/SEGGER_RTT_printf.c ****   }
 221:../Public/debuglog/SEGGER_RTT_V792h/RTT/SEGGER_RTT_printf.c **** }
 315              		.loc 1 221 1 view .LVU105
 316 00b8 BDE8F88F 		pop	{r3, r4, r5, r6, r7, r8, r9, r10, fp, pc}
 317              	.LVL31:
 318              	.L21:
 211:../Public/debuglog/SEGGER_RTT_V792h/RTT/SEGGER_RTT_printf.c ****         while ((FieldWidth != 0u) && (Width < FieldWidth)) {
 319              		.loc 1 211 15 is_stmt 1 view .LVU106
 320 00bc BAF1000F 		cmp	r10, #0
 321 00c0 FAD0     		beq	.L7
ARM GAS  C:\Users\zhangge\AppData\Local\Temp\ccknIKf0.s 			page 11


 211:../Public/debuglog/SEGGER_RTT_V792h/RTT/SEGGER_RTT_printf.c ****         while ((FieldWidth != 0u) && (Width < FieldWidth)) {
 322              		.loc 1 211 35 is_stmt 0 discriminator 1 view .LVU107
 323 00c2 C245     		cmp	r10, r8
 324 00c4 F8D9     		bls	.L7
 212:../Public/debuglog/SEGGER_RTT_V792h/RTT/SEGGER_RTT_printf.c ****           _StoreChar(pBufferDesc, ' ');
 325              		.loc 1 212 11 is_stmt 1 view .LVU108
 212:../Public/debuglog/SEGGER_RTT_V792h/RTT/SEGGER_RTT_printf.c ****           _StoreChar(pBufferDesc, ' ');
 326              		.loc 1 212 21 is_stmt 0 view .LVU109
 327 00c6 0AF1FF3A 		add	r10, r10, #-1
 328              	.LVL32:
 213:../Public/debuglog/SEGGER_RTT_V792h/RTT/SEGGER_RTT_printf.c ****           if (pBufferDesc->ReturnValue < 0) {
 329              		.loc 1 213 11 is_stmt 1 view .LVU110
 330 00ca 2021     		movs	r1, #32
 331 00cc 4846     		mov	r0, r9
 332 00ce FFF7FEFF 		bl	_StoreChar
 333              	.LVL33:
 214:../Public/debuglog/SEGGER_RTT_V792h/RTT/SEGGER_RTT_printf.c ****             break;
 334              		.loc 1 214 11 view .LVU111
 214:../Public/debuglog/SEGGER_RTT_V792h/RTT/SEGGER_RTT_printf.c ****             break;
 335              		.loc 1 214 26 is_stmt 0 view .LVU112
 336 00d2 D9F80C30 		ldr	r3, [r9, #12]
 214:../Public/debuglog/SEGGER_RTT_V792h/RTT/SEGGER_RTT_printf.c ****             break;
 337              		.loc 1 214 14 view .LVU113
 338 00d6 002B     		cmp	r3, #0
 339 00d8 F0DA     		bge	.L21
 340 00da EDE7     		b	.L7
 341              	.L30:
 342              		.align	2
 343              	.L29:
 344 00dc 00000000 		.word	.LANCHOR0
 345              		.cfi_endproc
 346              	.LFE1:
 348              		.section	.text._PrintInt,"ax",%progbits
 349              		.align	1
 350              		.syntax unified
 351              		.thumb
 352              		.thumb_func
 354              	_PrintInt:
 355              	.LVL34:
 356              	.LFB2:
 222:../Public/debuglog/SEGGER_RTT_V792h/RTT/SEGGER_RTT_printf.c **** 
 223:../Public/debuglog/SEGGER_RTT_V792h/RTT/SEGGER_RTT_printf.c **** /*********************************************************************
 224:../Public/debuglog/SEGGER_RTT_V792h/RTT/SEGGER_RTT_printf.c **** *
 225:../Public/debuglog/SEGGER_RTT_V792h/RTT/SEGGER_RTT_printf.c **** *       _PrintInt
 226:../Public/debuglog/SEGGER_RTT_V792h/RTT/SEGGER_RTT_printf.c **** */
 227:../Public/debuglog/SEGGER_RTT_V792h/RTT/SEGGER_RTT_printf.c **** static void _PrintInt(SEGGER_RTT_PRINTF_DESC * pBufferDesc, int v, unsigned Base, unsigned NumDigit
 357              		.loc 1 227 146 is_stmt 1 view -0
 358              		.cfi_startproc
 359              		@ args = 8, pretend = 0, frame = 0
 360              		@ frame_needed = 0, uses_anonymous_args = 0
 361              		.loc 1 227 146 is_stmt 0 view .LVU115
 362 0000 2DE9F047 		push	{r4, r5, r6, r7, r8, r9, r10, lr}
 363              	.LCFI2:
 364              		.cfi_def_cfa_offset 32
 365              		.cfi_offset 4, -32
 366              		.cfi_offset 5, -28
 367              		.cfi_offset 6, -24
ARM GAS  C:\Users\zhangge\AppData\Local\Temp\ccknIKf0.s 			page 12


 368              		.cfi_offset 7, -20
 369              		.cfi_offset 8, -16
 370              		.cfi_offset 9, -12
 371              		.cfi_offset 10, -8
 372              		.cfi_offset 14, -4
 373 0004 82B0     		sub	sp, sp, #8
 374              	.LCFI3:
 375              		.cfi_def_cfa_offset 40
 376 0006 0746     		mov	r7, r0
 377 0008 8846     		mov	r8, r1
 378 000a 1546     		mov	r5, r2
 379 000c 9946     		mov	r9, r3
 380 000e 0A9E     		ldr	r6, [sp, #40]
 381 0010 DDF82CA0 		ldr	r10, [sp, #44]
 228:../Public/debuglog/SEGGER_RTT_V792h/RTT/SEGGER_RTT_printf.c ****   unsigned Width;
 382              		.loc 1 228 3 is_stmt 1 view .LVU116
 229:../Public/debuglog/SEGGER_RTT_V792h/RTT/SEGGER_RTT_printf.c ****   int Number;
 383              		.loc 1 229 3 view .LVU117
 230:../Public/debuglog/SEGGER_RTT_V792h/RTT/SEGGER_RTT_printf.c **** 
 231:../Public/debuglog/SEGGER_RTT_V792h/RTT/SEGGER_RTT_printf.c ****   Number = (v < 0) ? -v : v;
 384              		.loc 1 231 3 view .LVU118
 385              		.loc 1 231 10 is_stmt 0 view .LVU119
 386 0014 81EAE17C 		eor	ip, r1, r1, asr #31
 387 0018 ACEBE17C 		sub	ip, ip, r1, asr #31
 388              	.LVL35:
 232:../Public/debuglog/SEGGER_RTT_V792h/RTT/SEGGER_RTT_printf.c **** 
 233:../Public/debuglog/SEGGER_RTT_V792h/RTT/SEGGER_RTT_printf.c ****   //
 234:../Public/debuglog/SEGGER_RTT_V792h/RTT/SEGGER_RTT_printf.c ****   // Get actual field width
 235:../Public/debuglog/SEGGER_RTT_V792h/RTT/SEGGER_RTT_printf.c ****   //
 236:../Public/debuglog/SEGGER_RTT_V792h/RTT/SEGGER_RTT_printf.c ****   Width = 1u;
 389              		.loc 1 236 3 is_stmt 1 view .LVU120
 237:../Public/debuglog/SEGGER_RTT_V792h/RTT/SEGGER_RTT_printf.c ****   while (Number >= (int)Base) {
 390              		.loc 1 237 3 view .LVU121
 236:../Public/debuglog/SEGGER_RTT_V792h/RTT/SEGGER_RTT_printf.c ****   while (Number >= (int)Base) {
 391              		.loc 1 236 9 is_stmt 0 view .LVU122
 392 001c 0124     		movs	r4, #1
 393              		.loc 1 237 9 view .LVU123
 394 001e 02E0     		b	.L32
 395              	.LVL36:
 396              	.L33:
 238:../Public/debuglog/SEGGER_RTT_V792h/RTT/SEGGER_RTT_printf.c ****     Number = (Number / (int)Base);
 397              		.loc 1 238 5 is_stmt 1 view .LVU124
 398              		.loc 1 238 12 is_stmt 0 view .LVU125
 399 0020 9CFBF5FC 		sdiv	ip, ip, r5
 400              	.LVL37:
 239:../Public/debuglog/SEGGER_RTT_V792h/RTT/SEGGER_RTT_printf.c ****     Width++;
 401              		.loc 1 239 5 is_stmt 1 view .LVU126
 402              		.loc 1 239 10 is_stmt 0 view .LVU127
 403 0024 0134     		adds	r4, r4, #1
 404              	.LVL38:
 405              	.L32:
 237:../Public/debuglog/SEGGER_RTT_V792h/RTT/SEGGER_RTT_printf.c ****     Number = (Number / (int)Base);
 406              		.loc 1 237 9 is_stmt 1 view .LVU128
 407 0026 6545     		cmp	r5, ip
 408 0028 FADD     		ble	.L33
 240:../Public/debuglog/SEGGER_RTT_V792h/RTT/SEGGER_RTT_printf.c ****   }
 241:../Public/debuglog/SEGGER_RTT_V792h/RTT/SEGGER_RTT_printf.c ****   if (NumDigits > Width) {
ARM GAS  C:\Users\zhangge\AppData\Local\Temp\ccknIKf0.s 			page 13


 409              		.loc 1 241 3 view .LVU129
 410              		.loc 1 241 6 is_stmt 0 view .LVU130
 411 002a 4C45     		cmp	r4, r9
 412 002c 00D2     		bcs	.L34
 242:../Public/debuglog/SEGGER_RTT_V792h/RTT/SEGGER_RTT_printf.c ****     Width = NumDigits;
 413              		.loc 1 242 11 view .LVU131
 414 002e 4C46     		mov	r4, r9
 415              	.LVL39:
 416              	.L34:
 243:../Public/debuglog/SEGGER_RTT_V792h/RTT/SEGGER_RTT_printf.c ****   }
 244:../Public/debuglog/SEGGER_RTT_V792h/RTT/SEGGER_RTT_printf.c ****   if ((FieldWidth > 0u) && ((v < 0) || ((FormatFlags & FORMAT_FLAG_PRINT_SIGN) == FORMAT_FLAG_PRINT
 417              		.loc 1 244 3 is_stmt 1 view .LVU132
 418              		.loc 1 244 6 is_stmt 0 view .LVU133
 419 0030 36B1     		cbz	r6, .L35
 420              		.loc 1 244 25 discriminator 1 view .LVU134
 421 0032 B8F1000F 		cmp	r8, #0
 422 0036 02DB     		blt	.L36
 423              		.loc 1 244 37 discriminator 2 view .LVU135
 424 0038 1AF0040F 		tst	r10, #4
 425 003c 00D0     		beq	.L35
 426              	.L36:
 245:../Public/debuglog/SEGGER_RTT_V792h/RTT/SEGGER_RTT_printf.c ****     FieldWidth--;
 427              		.loc 1 245 5 is_stmt 1 view .LVU136
 428              		.loc 1 245 15 is_stmt 0 view .LVU137
 429 003e 013E     		subs	r6, r6, #1
 430              	.LVL40:
 431              	.L35:
 246:../Public/debuglog/SEGGER_RTT_V792h/RTT/SEGGER_RTT_printf.c ****   }
 247:../Public/debuglog/SEGGER_RTT_V792h/RTT/SEGGER_RTT_printf.c **** 
 248:../Public/debuglog/SEGGER_RTT_V792h/RTT/SEGGER_RTT_printf.c ****   //
 249:../Public/debuglog/SEGGER_RTT_V792h/RTT/SEGGER_RTT_printf.c ****   // Print leading spaces if necessary
 250:../Public/debuglog/SEGGER_RTT_V792h/RTT/SEGGER_RTT_printf.c ****   //
 251:../Public/debuglog/SEGGER_RTT_V792h/RTT/SEGGER_RTT_printf.c ****   if ((((FormatFlags & FORMAT_FLAG_PAD_ZERO) == 0u) || (NumDigits != 0u)) && ((FormatFlags & FORMAT
 432              		.loc 1 251 3 is_stmt 1 view .LVU138
 433              		.loc 1 251 6 is_stmt 0 view .LVU139
 434 0040 1AF0020F 		tst	r10, #2
 435 0044 02D0     		beq	.L37
 436              		.loc 1 251 53 discriminator 2 view .LVU140
 437 0046 B9F1000F 		cmp	r9, #0
 438 004a 03D0     		beq	.L38
 439              	.L37:
 440              		.loc 1 251 75 discriminator 3 view .LVU141
 441 004c 1AF0010F 		tst	r10, #1
 442 0050 00D1     		bne	.L38
 252:../Public/debuglog/SEGGER_RTT_V792h/RTT/SEGGER_RTT_printf.c ****     if (FieldWidth != 0u) {
 443              		.loc 1 252 5 is_stmt 1 view .LVU142
 444              		.loc 1 252 8 is_stmt 0 view .LVU143
 445 0052 AEB9     		cbnz	r6, .L39
 446              	.LVL41:
 447              	.L38:
 253:../Public/debuglog/SEGGER_RTT_V792h/RTT/SEGGER_RTT_printf.c ****       while ((FieldWidth != 0u) && (Width < FieldWidth)) {
 254:../Public/debuglog/SEGGER_RTT_V792h/RTT/SEGGER_RTT_printf.c ****         FieldWidth--;
 255:../Public/debuglog/SEGGER_RTT_V792h/RTT/SEGGER_RTT_printf.c ****         _StoreChar(pBufferDesc, ' ');
 256:../Public/debuglog/SEGGER_RTT_V792h/RTT/SEGGER_RTT_printf.c ****         if (pBufferDesc->ReturnValue < 0) {
 257:../Public/debuglog/SEGGER_RTT_V792h/RTT/SEGGER_RTT_printf.c ****           break;
 258:../Public/debuglog/SEGGER_RTT_V792h/RTT/SEGGER_RTT_printf.c ****         }
 259:../Public/debuglog/SEGGER_RTT_V792h/RTT/SEGGER_RTT_printf.c ****       }
ARM GAS  C:\Users\zhangge\AppData\Local\Temp\ccknIKf0.s 			page 14


 260:../Public/debuglog/SEGGER_RTT_V792h/RTT/SEGGER_RTT_printf.c ****     }
 261:../Public/debuglog/SEGGER_RTT_V792h/RTT/SEGGER_RTT_printf.c ****   }
 262:../Public/debuglog/SEGGER_RTT_V792h/RTT/SEGGER_RTT_printf.c ****   //
 263:../Public/debuglog/SEGGER_RTT_V792h/RTT/SEGGER_RTT_printf.c ****   // Print sign if necessary
 264:../Public/debuglog/SEGGER_RTT_V792h/RTT/SEGGER_RTT_printf.c ****   //
 265:../Public/debuglog/SEGGER_RTT_V792h/RTT/SEGGER_RTT_printf.c ****   if (pBufferDesc->ReturnValue >= 0) {
 448              		.loc 1 265 3 is_stmt 1 view .LVU144
 449              		.loc 1 265 18 is_stmt 0 view .LVU145
 450 0054 FB68     		ldr	r3, [r7, #12]
 451              		.loc 1 265 6 view .LVU146
 452 0056 002B     		cmp	r3, #0
 453 0058 0FDB     		blt	.L31
 266:../Public/debuglog/SEGGER_RTT_V792h/RTT/SEGGER_RTT_printf.c ****     if (v < 0) {
 454              		.loc 1 266 5 is_stmt 1 view .LVU147
 455              		.loc 1 266 8 is_stmt 0 view .LVU148
 456 005a B8F1000F 		cmp	r8, #0
 457 005e 1CDB     		blt	.L49
 267:../Public/debuglog/SEGGER_RTT_V792h/RTT/SEGGER_RTT_printf.c ****       v = -v;
 268:../Public/debuglog/SEGGER_RTT_V792h/RTT/SEGGER_RTT_printf.c ****       _StoreChar(pBufferDesc, '-');
 269:../Public/debuglog/SEGGER_RTT_V792h/RTT/SEGGER_RTT_printf.c ****     } else if ((FormatFlags & FORMAT_FLAG_PRINT_SIGN) == FORMAT_FLAG_PRINT_SIGN) {
 458              		.loc 1 269 12 is_stmt 1 view .LVU149
 459              		.loc 1 269 15 is_stmt 0 view .LVU150
 460 0060 1AF0040F 		tst	r10, #4
 461 0064 20D1     		bne	.L50
 462              	.L43:
 270:../Public/debuglog/SEGGER_RTT_V792h/RTT/SEGGER_RTT_printf.c ****       _StoreChar(pBufferDesc, '+');
 271:../Public/debuglog/SEGGER_RTT_V792h/RTT/SEGGER_RTT_printf.c ****     } else {
 272:../Public/debuglog/SEGGER_RTT_V792h/RTT/SEGGER_RTT_printf.c **** 
 273:../Public/debuglog/SEGGER_RTT_V792h/RTT/SEGGER_RTT_printf.c ****     }
 463              		.loc 1 273 5 is_stmt 1 view .LVU151
 274:../Public/debuglog/SEGGER_RTT_V792h/RTT/SEGGER_RTT_printf.c ****     if (pBufferDesc->ReturnValue >= 0) {
 464              		.loc 1 274 5 view .LVU152
 465              		.loc 1 274 20 is_stmt 0 view .LVU153
 466 0066 FB68     		ldr	r3, [r7, #12]
 467              		.loc 1 274 8 view .LVU154
 468 0068 002B     		cmp	r3, #0
 469 006a 06DB     		blt	.L31
 275:../Public/debuglog/SEGGER_RTT_V792h/RTT/SEGGER_RTT_printf.c ****       //
 276:../Public/debuglog/SEGGER_RTT_V792h/RTT/SEGGER_RTT_printf.c ****       // Print leading zeros if necessary
 277:../Public/debuglog/SEGGER_RTT_V792h/RTT/SEGGER_RTT_printf.c ****       //
 278:../Public/debuglog/SEGGER_RTT_V792h/RTT/SEGGER_RTT_printf.c ****       if (((FormatFlags & FORMAT_FLAG_PAD_ZERO) == FORMAT_FLAG_PAD_ZERO) && ((FormatFlags & FORMAT_
 470              		.loc 1 278 7 is_stmt 1 view .LVU155
 471              		.loc 1 278 74 is_stmt 0 view .LVU156
 472 006c 0AF00303 		and	r3, r10, #3
 473              		.loc 1 278 10 view .LVU157
 474 0070 022B     		cmp	r3, #2
 475 0072 1ED0     		beq	.L51
 476              	.L44:
 279:../Public/debuglog/SEGGER_RTT_V792h/RTT/SEGGER_RTT_printf.c ****         if (FieldWidth != 0u) {
 280:../Public/debuglog/SEGGER_RTT_V792h/RTT/SEGGER_RTT_printf.c ****           while ((FieldWidth != 0u) && (Width < FieldWidth)) {
 281:../Public/debuglog/SEGGER_RTT_V792h/RTT/SEGGER_RTT_printf.c ****             FieldWidth--;
 282:../Public/debuglog/SEGGER_RTT_V792h/RTT/SEGGER_RTT_printf.c ****             _StoreChar(pBufferDesc, '0');
 283:../Public/debuglog/SEGGER_RTT_V792h/RTT/SEGGER_RTT_printf.c ****             if (pBufferDesc->ReturnValue < 0) {
 284:../Public/debuglog/SEGGER_RTT_V792h/RTT/SEGGER_RTT_printf.c ****               break;
 285:../Public/debuglog/SEGGER_RTT_V792h/RTT/SEGGER_RTT_printf.c ****             }
 286:../Public/debuglog/SEGGER_RTT_V792h/RTT/SEGGER_RTT_printf.c ****           }
 287:../Public/debuglog/SEGGER_RTT_V792h/RTT/SEGGER_RTT_printf.c ****         }
ARM GAS  C:\Users\zhangge\AppData\Local\Temp\ccknIKf0.s 			page 15


 288:../Public/debuglog/SEGGER_RTT_V792h/RTT/SEGGER_RTT_printf.c ****       }
 289:../Public/debuglog/SEGGER_RTT_V792h/RTT/SEGGER_RTT_printf.c ****       if (pBufferDesc->ReturnValue >= 0) {
 477              		.loc 1 289 7 is_stmt 1 view .LVU158
 478              		.loc 1 289 22 is_stmt 0 view .LVU159
 479 0074 FB68     		ldr	r3, [r7, #12]
 480              		.loc 1 289 10 view .LVU160
 481 0076 002B     		cmp	r3, #0
 482 0078 2DDA     		bge	.L52
 483              	.L31:
 290:../Public/debuglog/SEGGER_RTT_V792h/RTT/SEGGER_RTT_printf.c ****         //
 291:../Public/debuglog/SEGGER_RTT_V792h/RTT/SEGGER_RTT_printf.c ****         // Print number without sign
 292:../Public/debuglog/SEGGER_RTT_V792h/RTT/SEGGER_RTT_printf.c ****         //
 293:../Public/debuglog/SEGGER_RTT_V792h/RTT/SEGGER_RTT_printf.c ****         _PrintUnsigned(pBufferDesc, (unsigned)v, Base, NumDigits, FieldWidth, FormatFlags);
 294:../Public/debuglog/SEGGER_RTT_V792h/RTT/SEGGER_RTT_printf.c ****       }
 295:../Public/debuglog/SEGGER_RTT_V792h/RTT/SEGGER_RTT_printf.c ****     }
 296:../Public/debuglog/SEGGER_RTT_V792h/RTT/SEGGER_RTT_printf.c ****   }
 297:../Public/debuglog/SEGGER_RTT_V792h/RTT/SEGGER_RTT_printf.c **** }
 484              		.loc 1 297 1 view .LVU161
 485 007a 02B0     		add	sp, sp, #8
 486              	.LCFI4:
 487              		.cfi_remember_state
 488              		.cfi_def_cfa_offset 32
 489              		@ sp needed
 490 007c BDE8F087 		pop	{r4, r5, r6, r7, r8, r9, r10, pc}
 491              	.LVL42:
 492              	.L39:
 493              	.LCFI5:
 494              		.cfi_restore_state
 253:../Public/debuglog/SEGGER_RTT_V792h/RTT/SEGGER_RTT_printf.c ****         FieldWidth--;
 495              		.loc 1 253 13 is_stmt 1 view .LVU162
 496 0080 002E     		cmp	r6, #0
 497 0082 E7D0     		beq	.L38
 253:../Public/debuglog/SEGGER_RTT_V792h/RTT/SEGGER_RTT_printf.c ****         FieldWidth--;
 498              		.loc 1 253 33 is_stmt 0 discriminator 1 view .LVU163
 499 0084 A642     		cmp	r6, r4
 500 0086 E5D9     		bls	.L38
 254:../Public/debuglog/SEGGER_RTT_V792h/RTT/SEGGER_RTT_printf.c ****         _StoreChar(pBufferDesc, ' ');
 501              		.loc 1 254 9 is_stmt 1 view .LVU164
 254:../Public/debuglog/SEGGER_RTT_V792h/RTT/SEGGER_RTT_printf.c ****         _StoreChar(pBufferDesc, ' ');
 502              		.loc 1 254 19 is_stmt 0 view .LVU165
 503 0088 013E     		subs	r6, r6, #1
 504              	.LVL43:
 255:../Public/debuglog/SEGGER_RTT_V792h/RTT/SEGGER_RTT_printf.c ****         if (pBufferDesc->ReturnValue < 0) {
 505              		.loc 1 255 9 is_stmt 1 view .LVU166
 506 008a 2021     		movs	r1, #32
 507 008c 3846     		mov	r0, r7
 508 008e FFF7FEFF 		bl	_StoreChar
 509              	.LVL44:
 256:../Public/debuglog/SEGGER_RTT_V792h/RTT/SEGGER_RTT_printf.c ****           break;
 510              		.loc 1 256 9 view .LVU167
 256:../Public/debuglog/SEGGER_RTT_V792h/RTT/SEGGER_RTT_printf.c ****           break;
 511              		.loc 1 256 24 is_stmt 0 view .LVU168
 512 0092 FB68     		ldr	r3, [r7, #12]
 256:../Public/debuglog/SEGGER_RTT_V792h/RTT/SEGGER_RTT_printf.c ****           break;
 513              		.loc 1 256 12 view .LVU169
 514 0094 002B     		cmp	r3, #0
 515 0096 F3DA     		bge	.L39
ARM GAS  C:\Users\zhangge\AppData\Local\Temp\ccknIKf0.s 			page 16


 516 0098 DCE7     		b	.L38
 517              	.L49:
 267:../Public/debuglog/SEGGER_RTT_V792h/RTT/SEGGER_RTT_printf.c ****       _StoreChar(pBufferDesc, '-');
 518              		.loc 1 267 7 is_stmt 1 view .LVU170
 267:../Public/debuglog/SEGGER_RTT_V792h/RTT/SEGGER_RTT_printf.c ****       _StoreChar(pBufferDesc, '-');
 519              		.loc 1 267 9 is_stmt 0 view .LVU171
 520 009a C8F10008 		rsb	r8, r8, #0
 521              	.LVL45:
 268:../Public/debuglog/SEGGER_RTT_V792h/RTT/SEGGER_RTT_printf.c ****     } else if ((FormatFlags & FORMAT_FLAG_PRINT_SIGN) == FORMAT_FLAG_PRINT_SIGN) {
 522              		.loc 1 268 7 is_stmt 1 view .LVU172
 523 009e 2D21     		movs	r1, #45
 524 00a0 3846     		mov	r0, r7
 525 00a2 FFF7FEFF 		bl	_StoreChar
 526              	.LVL46:
 527 00a6 DEE7     		b	.L43
 528              	.L50:
 270:../Public/debuglog/SEGGER_RTT_V792h/RTT/SEGGER_RTT_printf.c ****     } else {
 529              		.loc 1 270 7 view .LVU173
 530 00a8 2B21     		movs	r1, #43
 531 00aa 3846     		mov	r0, r7
 532 00ac FFF7FEFF 		bl	_StoreChar
 533              	.LVL47:
 534 00b0 D9E7     		b	.L43
 535              	.L51:
 278:../Public/debuglog/SEGGER_RTT_V792h/RTT/SEGGER_RTT_printf.c ****         if (FieldWidth != 0u) {
 536              		.loc 1 278 126 is_stmt 0 discriminator 1 view .LVU174
 537 00b2 B9F1000F 		cmp	r9, #0
 538 00b6 DDD1     		bne	.L44
 279:../Public/debuglog/SEGGER_RTT_V792h/RTT/SEGGER_RTT_printf.c ****           while ((FieldWidth != 0u) && (Width < FieldWidth)) {
 539              		.loc 1 279 9 is_stmt 1 view .LVU175
 279:../Public/debuglog/SEGGER_RTT_V792h/RTT/SEGGER_RTT_printf.c ****           while ((FieldWidth != 0u) && (Width < FieldWidth)) {
 540              		.loc 1 279 12 is_stmt 0 view .LVU176
 541 00b8 002E     		cmp	r6, #0
 542 00ba DBD0     		beq	.L44
 543              	.L45:
 280:../Public/debuglog/SEGGER_RTT_V792h/RTT/SEGGER_RTT_printf.c ****             FieldWidth--;
 544              		.loc 1 280 17 is_stmt 1 view .LVU177
 545 00bc 002E     		cmp	r6, #0
 546 00be D9D0     		beq	.L44
 280:../Public/debuglog/SEGGER_RTT_V792h/RTT/SEGGER_RTT_printf.c ****             FieldWidth--;
 547              		.loc 1 280 37 is_stmt 0 discriminator 1 view .LVU178
 548 00c0 A642     		cmp	r6, r4
 549 00c2 D7D9     		bls	.L44
 281:../Public/debuglog/SEGGER_RTT_V792h/RTT/SEGGER_RTT_printf.c ****             _StoreChar(pBufferDesc, '0');
 550              		.loc 1 281 13 is_stmt 1 view .LVU179
 281:../Public/debuglog/SEGGER_RTT_V792h/RTT/SEGGER_RTT_printf.c ****             _StoreChar(pBufferDesc, '0');
 551              		.loc 1 281 23 is_stmt 0 view .LVU180
 552 00c4 013E     		subs	r6, r6, #1
 553              	.LVL48:
 282:../Public/debuglog/SEGGER_RTT_V792h/RTT/SEGGER_RTT_printf.c ****             if (pBufferDesc->ReturnValue < 0) {
 554              		.loc 1 282 13 is_stmt 1 view .LVU181
 555 00c6 3021     		movs	r1, #48
 556 00c8 3846     		mov	r0, r7
 557 00ca FFF7FEFF 		bl	_StoreChar
 558              	.LVL49:
 283:../Public/debuglog/SEGGER_RTT_V792h/RTT/SEGGER_RTT_printf.c ****               break;
 559              		.loc 1 283 13 view .LVU182
ARM GAS  C:\Users\zhangge\AppData\Local\Temp\ccknIKf0.s 			page 17


 283:../Public/debuglog/SEGGER_RTT_V792h/RTT/SEGGER_RTT_printf.c ****               break;
 560              		.loc 1 283 28 is_stmt 0 view .LVU183
 561 00ce FB68     		ldr	r3, [r7, #12]
 283:../Public/debuglog/SEGGER_RTT_V792h/RTT/SEGGER_RTT_printf.c ****               break;
 562              		.loc 1 283 16 view .LVU184
 563 00d0 002B     		cmp	r3, #0
 564 00d2 F3DA     		bge	.L45
 565 00d4 CEE7     		b	.L44
 566              	.L52:
 293:../Public/debuglog/SEGGER_RTT_V792h/RTT/SEGGER_RTT_printf.c ****       }
 567              		.loc 1 293 9 is_stmt 1 view .LVU185
 568 00d6 CDF804A0 		str	r10, [sp, #4]
 569 00da 0096     		str	r6, [sp]
 570 00dc 4B46     		mov	r3, r9
 571 00de 2A46     		mov	r2, r5
 572 00e0 4146     		mov	r1, r8
 573 00e2 3846     		mov	r0, r7
 574 00e4 FFF7FEFF 		bl	_PrintUnsigned
 575              	.LVL50:
 576              		.loc 1 297 1 is_stmt 0 view .LVU186
 577 00e8 C7E7     		b	.L31
 578              		.cfi_endproc
 579              	.LFE2:
 581              		.section	.text.SEGGER_RTT_vprintf,"ax",%progbits
 582              		.align	1
 583              		.global	SEGGER_RTT_vprintf
 584              		.syntax unified
 585              		.thumb
 586              		.thumb_func
 588              	SEGGER_RTT_vprintf:
 589              	.LVL51:
 590              	.LFB3:
 298:../Public/debuglog/SEGGER_RTT_V792h/RTT/SEGGER_RTT_printf.c **** 
 299:../Public/debuglog/SEGGER_RTT_V792h/RTT/SEGGER_RTT_printf.c **** /*********************************************************************
 300:../Public/debuglog/SEGGER_RTT_V792h/RTT/SEGGER_RTT_printf.c **** *
 301:../Public/debuglog/SEGGER_RTT_V792h/RTT/SEGGER_RTT_printf.c **** *       Public code
 302:../Public/debuglog/SEGGER_RTT_V792h/RTT/SEGGER_RTT_printf.c **** *
 303:../Public/debuglog/SEGGER_RTT_V792h/RTT/SEGGER_RTT_printf.c **** **********************************************************************
 304:../Public/debuglog/SEGGER_RTT_V792h/RTT/SEGGER_RTT_printf.c **** */
 305:../Public/debuglog/SEGGER_RTT_V792h/RTT/SEGGER_RTT_printf.c **** /*********************************************************************
 306:../Public/debuglog/SEGGER_RTT_V792h/RTT/SEGGER_RTT_printf.c **** *
 307:../Public/debuglog/SEGGER_RTT_V792h/RTT/SEGGER_RTT_printf.c **** *       SEGGER_RTT_vprintf
 308:../Public/debuglog/SEGGER_RTT_V792h/RTT/SEGGER_RTT_printf.c **** *
 309:../Public/debuglog/SEGGER_RTT_V792h/RTT/SEGGER_RTT_printf.c **** *  Function description
 310:../Public/debuglog/SEGGER_RTT_V792h/RTT/SEGGER_RTT_printf.c **** *    Stores a formatted string in SEGGER RTT control block.
 311:../Public/debuglog/SEGGER_RTT_V792h/RTT/SEGGER_RTT_printf.c **** *    This data is read by the host.
 312:../Public/debuglog/SEGGER_RTT_V792h/RTT/SEGGER_RTT_printf.c **** *
 313:../Public/debuglog/SEGGER_RTT_V792h/RTT/SEGGER_RTT_printf.c **** *  Parameters
 314:../Public/debuglog/SEGGER_RTT_V792h/RTT/SEGGER_RTT_printf.c **** *    BufferIndex  Index of "Up"-buffer to be used. (e.g. 0 for "Terminal")
 315:../Public/debuglog/SEGGER_RTT_V792h/RTT/SEGGER_RTT_printf.c **** *    sFormat      Pointer to format string
 316:../Public/debuglog/SEGGER_RTT_V792h/RTT/SEGGER_RTT_printf.c **** *    pParamList   Pointer to the list of arguments for the format string
 317:../Public/debuglog/SEGGER_RTT_V792h/RTT/SEGGER_RTT_printf.c **** *
 318:../Public/debuglog/SEGGER_RTT_V792h/RTT/SEGGER_RTT_printf.c **** *  Return values
 319:../Public/debuglog/SEGGER_RTT_V792h/RTT/SEGGER_RTT_printf.c **** *    >= 0:  Number of bytes which have been stored in the "Up"-buffer.
 320:../Public/debuglog/SEGGER_RTT_V792h/RTT/SEGGER_RTT_printf.c **** *     < 0:  Error
 321:../Public/debuglog/SEGGER_RTT_V792h/RTT/SEGGER_RTT_printf.c **** */
 322:../Public/debuglog/SEGGER_RTT_V792h/RTT/SEGGER_RTT_printf.c **** int SEGGER_RTT_vprintf(unsigned BufferIndex, const char * sFormat, va_list * pParamList) {
ARM GAS  C:\Users\zhangge\AppData\Local\Temp\ccknIKf0.s 			page 18


 591              		.loc 1 322 90 is_stmt 1 view -0
 592              		.cfi_startproc
 593              		@ args = 0, pretend = 0, frame = 88
 594              		@ frame_needed = 0, uses_anonymous_args = 0
 595              		.loc 1 322 90 is_stmt 0 view .LVU188
 596 0000 F0B5     		push	{r4, r5, r6, r7, lr}
 597              	.LCFI6:
 598              		.cfi_def_cfa_offset 20
 599              		.cfi_offset 4, -20
 600              		.cfi_offset 5, -16
 601              		.cfi_offset 6, -12
 602              		.cfi_offset 7, -8
 603              		.cfi_offset 14, -4
 604 0002 99B0     		sub	sp, sp, #100
 605              	.LCFI7:
 606              		.cfi_def_cfa_offset 120
 607 0004 0646     		mov	r6, r0
 608 0006 0C46     		mov	r4, r1
 609 0008 1546     		mov	r5, r2
 323:../Public/debuglog/SEGGER_RTT_V792h/RTT/SEGGER_RTT_printf.c ****   char c;
 610              		.loc 1 323 3 is_stmt 1 view .LVU189
 324:../Public/debuglog/SEGGER_RTT_V792h/RTT/SEGGER_RTT_printf.c ****   SEGGER_RTT_PRINTF_DESC BufferDesc;
 611              		.loc 1 324 3 view .LVU190
 325:../Public/debuglog/SEGGER_RTT_V792h/RTT/SEGGER_RTT_printf.c ****   int v;
 612              		.loc 1 325 3 view .LVU191
 326:../Public/debuglog/SEGGER_RTT_V792h/RTT/SEGGER_RTT_printf.c ****   unsigned NumDigits;
 613              		.loc 1 326 3 view .LVU192
 327:../Public/debuglog/SEGGER_RTT_V792h/RTT/SEGGER_RTT_printf.c ****   unsigned FormatFlags;
 614              		.loc 1 327 3 view .LVU193
 328:../Public/debuglog/SEGGER_RTT_V792h/RTT/SEGGER_RTT_printf.c ****   unsigned FieldWidth;
 615              		.loc 1 328 3 view .LVU194
 329:../Public/debuglog/SEGGER_RTT_V792h/RTT/SEGGER_RTT_printf.c ****   char acBuffer[SEGGER_RTT_PRINTF_BUFFER_SIZE];
 616              		.loc 1 329 3 view .LVU195
 330:../Public/debuglog/SEGGER_RTT_V792h/RTT/SEGGER_RTT_printf.c **** 
 331:../Public/debuglog/SEGGER_RTT_V792h/RTT/SEGGER_RTT_printf.c ****   BufferDesc.pBuffer        = acBuffer;
 617              		.loc 1 331 3 view .LVU196
 618              		.loc 1 331 29 is_stmt 0 view .LVU197
 619 000a 03AB     		add	r3, sp, #12
 620 000c 1393     		str	r3, [sp, #76]
 332:../Public/debuglog/SEGGER_RTT_V792h/RTT/SEGGER_RTT_printf.c ****   BufferDesc.BufferSize     = SEGGER_RTT_PRINTF_BUFFER_SIZE;
 621              		.loc 1 332 3 is_stmt 1 view .LVU198
 622              		.loc 1 332 29 is_stmt 0 view .LVU199
 623 000e 4023     		movs	r3, #64
 624 0010 1493     		str	r3, [sp, #80]
 333:../Public/debuglog/SEGGER_RTT_V792h/RTT/SEGGER_RTT_printf.c ****   BufferDesc.Cnt            = 0u;
 625              		.loc 1 333 3 is_stmt 1 view .LVU200
 626              		.loc 1 333 29 is_stmt 0 view .LVU201
 627 0012 0023     		movs	r3, #0
 628 0014 1593     		str	r3, [sp, #84]
 334:../Public/debuglog/SEGGER_RTT_V792h/RTT/SEGGER_RTT_printf.c ****   BufferDesc.RTTBufferIndex = BufferIndex;
 629              		.loc 1 334 3 is_stmt 1 view .LVU202
 630              		.loc 1 334 29 is_stmt 0 view .LVU203
 631 0016 1790     		str	r0, [sp, #92]
 335:../Public/debuglog/SEGGER_RTT_V792h/RTT/SEGGER_RTT_printf.c ****   BufferDesc.ReturnValue    = 0;
 632              		.loc 1 335 3 is_stmt 1 view .LVU204
 633              		.loc 1 335 29 is_stmt 0 view .LVU205
 634 0018 1693     		str	r3, [sp, #88]
ARM GAS  C:\Users\zhangge\AppData\Local\Temp\ccknIKf0.s 			page 19


 635 001a 8AE0     		b	.L81
 636              	.LVL52:
 637              	.L89:
 336:../Public/debuglog/SEGGER_RTT_V792h/RTT/SEGGER_RTT_printf.c **** 
 337:../Public/debuglog/SEGGER_RTT_V792h/RTT/SEGGER_RTT_printf.c ****   do {
 338:../Public/debuglog/SEGGER_RTT_V792h/RTT/SEGGER_RTT_printf.c ****     c = *sFormat;
 339:../Public/debuglog/SEGGER_RTT_V792h/RTT/SEGGER_RTT_printf.c ****     sFormat++;
 340:../Public/debuglog/SEGGER_RTT_V792h/RTT/SEGGER_RTT_printf.c ****     if (c == 0u) {
 341:../Public/debuglog/SEGGER_RTT_V792h/RTT/SEGGER_RTT_printf.c ****       break;
 342:../Public/debuglog/SEGGER_RTT_V792h/RTT/SEGGER_RTT_printf.c ****     }
 343:../Public/debuglog/SEGGER_RTT_V792h/RTT/SEGGER_RTT_printf.c ****     if (c == '%') {
 344:../Public/debuglog/SEGGER_RTT_V792h/RTT/SEGGER_RTT_printf.c ****       //
 345:../Public/debuglog/SEGGER_RTT_V792h/RTT/SEGGER_RTT_printf.c ****       // Filter out flags
 346:../Public/debuglog/SEGGER_RTT_V792h/RTT/SEGGER_RTT_printf.c ****       //
 347:../Public/debuglog/SEGGER_RTT_V792h/RTT/SEGGER_RTT_printf.c ****       FormatFlags = 0u;
 638              		.loc 1 347 19 view .LVU206
 639 001c 0020     		movs	r0, #0
 348:../Public/debuglog/SEGGER_RTT_V792h/RTT/SEGGER_RTT_printf.c ****       v = 1;
 640              		.loc 1 348 9 view .LVU207
 641 001e 0122     		movs	r2, #1
 642 0020 11E0     		b	.L62
 643              	.LVL53:
 644              	.L59:
 349:../Public/debuglog/SEGGER_RTT_V792h/RTT/SEGGER_RTT_printf.c ****       do {
 350:../Public/debuglog/SEGGER_RTT_V792h/RTT/SEGGER_RTT_printf.c ****         c = *sFormat;
 351:../Public/debuglog/SEGGER_RTT_V792h/RTT/SEGGER_RTT_printf.c ****         switch (c) {
 352:../Public/debuglog/SEGGER_RTT_V792h/RTT/SEGGER_RTT_printf.c ****         case '-': FormatFlags |= FORMAT_FLAG_LEFT_JUSTIFY; sFormat++; break;
 645              		.loc 1 352 19 is_stmt 1 view .LVU208
 646              		.loc 1 352 31 is_stmt 0 view .LVU209
 647 0022 40F00100 		orr	r0, r0, #1
 648              	.LVL54:
 649              		.loc 1 352 60 is_stmt 1 view .LVU210
 650              		.loc 1 352 67 is_stmt 0 view .LVU211
 651 0026 0134     		adds	r4, r4, #1
 652              	.LVL55:
 653              		.loc 1 352 71 is_stmt 1 view .LVU212
 654              		.loc 1 352 9 is_stmt 0 view .LVU213
 655 0028 0CE0     		b	.L56
 656              	.L57:
 353:../Public/debuglog/SEGGER_RTT_V792h/RTT/SEGGER_RTT_printf.c ****         case '0': FormatFlags |= FORMAT_FLAG_PAD_ZERO;     sFormat++; break;
 657              		.loc 1 353 19 is_stmt 1 view .LVU214
 658              		.loc 1 353 31 is_stmt 0 view .LVU215
 659 002a 40F00200 		orr	r0, r0, #2
 660              	.LVL56:
 661              		.loc 1 353 60 is_stmt 1 view .LVU216
 662              		.loc 1 353 67 is_stmt 0 view .LVU217
 663 002e 0134     		adds	r4, r4, #1
 664              	.LVL57:
 665              		.loc 1 353 71 is_stmt 1 view .LVU218
 666              		.loc 1 353 9 is_stmt 0 view .LVU219
 667 0030 08E0     		b	.L56
 668              	.L60:
 354:../Public/debuglog/SEGGER_RTT_V792h/RTT/SEGGER_RTT_printf.c ****         case '+': FormatFlags |= FORMAT_FLAG_PRINT_SIGN;   sFormat++; break;
 669              		.loc 1 354 19 is_stmt 1 view .LVU220
 670              		.loc 1 354 31 is_stmt 0 view .LVU221
 671 0032 40F00400 		orr	r0, r0, #4
 672              	.LVL58:
ARM GAS  C:\Users\zhangge\AppData\Local\Temp\ccknIKf0.s 			page 20


 673              		.loc 1 354 60 is_stmt 1 view .LVU222
 674              		.loc 1 354 67 is_stmt 0 view .LVU223
 675 0036 0134     		adds	r4, r4, #1
 676              	.LVL59:
 677              		.loc 1 354 71 is_stmt 1 view .LVU224
 678              		.loc 1 354 9 is_stmt 0 view .LVU225
 679 0038 04E0     		b	.L56
 680              	.L61:
 355:../Public/debuglog/SEGGER_RTT_V792h/RTT/SEGGER_RTT_printf.c ****         case '#': FormatFlags |= FORMAT_FLAG_ALTERNATE;    sFormat++; break;
 681              		.loc 1 355 19 is_stmt 1 view .LVU226
 682              		.loc 1 355 31 is_stmt 0 view .LVU227
 683 003a 40F00800 		orr	r0, r0, #8
 684              	.LVL60:
 685              		.loc 1 355 60 is_stmt 1 view .LVU228
 686              		.loc 1 355 67 is_stmt 0 view .LVU229
 687 003e 0134     		adds	r4, r4, #1
 688              	.LVL61:
 689              		.loc 1 355 71 is_stmt 1 view .LVU230
 690              		.loc 1 355 9 is_stmt 0 view .LVU231
 691 0040 00E0     		b	.L56
 692              	.L84:
 351:../Public/debuglog/SEGGER_RTT_V792h/RTT/SEGGER_RTT_printf.c ****         case '-': FormatFlags |= FORMAT_FLAG_LEFT_JUSTIFY; sFormat++; break;
 693              		.loc 1 351 9 view .LVU232
 694 0042 0022     		movs	r2, #0
 695              	.LVL62:
 696              	.L56:
 356:../Public/debuglog/SEGGER_RTT_V792h/RTT/SEGGER_RTT_printf.c ****         default:  v = 0; break;
 357:../Public/debuglog/SEGGER_RTT_V792h/RTT/SEGGER_RTT_printf.c ****         }
 358:../Public/debuglog/SEGGER_RTT_V792h/RTT/SEGGER_RTT_printf.c ****       } while (v);
 697              		.loc 1 358 15 is_stmt 1 view .LVU233
 698              		.loc 1 358 7 is_stmt 0 view .LVU234
 699 0044 12B3     		cbz	r2, .L64
 700              	.LVL63:
 701              	.L62:
 349:../Public/debuglog/SEGGER_RTT_V792h/RTT/SEGGER_RTT_printf.c ****         c = *sFormat;
 702              		.loc 1 349 7 is_stmt 1 view .LVU235
 350:../Public/debuglog/SEGGER_RTT_V792h/RTT/SEGGER_RTT_printf.c ****         switch (c) {
 703              		.loc 1 350 9 view .LVU236
 350:../Public/debuglog/SEGGER_RTT_V792h/RTT/SEGGER_RTT_printf.c ****         switch (c) {
 704              		.loc 1 350 11 is_stmt 0 view .LVU237
 705 0046 2378     		ldrb	r3, [r4]	@ zero_extendqisi2
 706              	.LVL64:
 351:../Public/debuglog/SEGGER_RTT_V792h/RTT/SEGGER_RTT_printf.c ****         case '-': FormatFlags |= FORMAT_FLAG_LEFT_JUSTIFY; sFormat++; break;
 707              		.loc 1 351 9 is_stmt 1 view .LVU238
 708 0048 233B     		subs	r3, r3, #35
 709              	.LVL65:
 351:../Public/debuglog/SEGGER_RTT_V792h/RTT/SEGGER_RTT_printf.c ****         case '-': FormatFlags |= FORMAT_FLAG_LEFT_JUSTIFY; sFormat++; break;
 710              		.loc 1 351 9 is_stmt 0 view .LVU239
 711 004a 0D2B     		cmp	r3, #13
 712 004c F9D8     		bhi	.L84
 713 004e 01A1     		adr	r1, .L58
 714 0050 51F823F0 		ldr	pc, [r1, r3, lsl #2]
 715              		.p2align 2
 716              	.L58:
 717 0054 3B000000 		.word	.L61+1
 718 0058 43000000 		.word	.L84+1
 719 005c 43000000 		.word	.L84+1
ARM GAS  C:\Users\zhangge\AppData\Local\Temp\ccknIKf0.s 			page 21


 720 0060 43000000 		.word	.L84+1
 721 0064 43000000 		.word	.L84+1
 722 0068 43000000 		.word	.L84+1
 723 006c 43000000 		.word	.L84+1
 724 0070 43000000 		.word	.L84+1
 725 0074 33000000 		.word	.L60+1
 726 0078 43000000 		.word	.L84+1
 727 007c 23000000 		.word	.L59+1
 728 0080 43000000 		.word	.L84+1
 729 0084 43000000 		.word	.L84+1
 730 0088 2B000000 		.word	.L57+1
 731              	.LVL66:
 732              		.p2align 1
 733              	.L64:
 359:../Public/debuglog/SEGGER_RTT_V792h/RTT/SEGGER_RTT_printf.c ****       //
 360:../Public/debuglog/SEGGER_RTT_V792h/RTT/SEGGER_RTT_printf.c ****       // filter out field with
 361:../Public/debuglog/SEGGER_RTT_V792h/RTT/SEGGER_RTT_printf.c ****       //
 362:../Public/debuglog/SEGGER_RTT_V792h/RTT/SEGGER_RTT_printf.c ****       FieldWidth = 0u;
 363:../Public/debuglog/SEGGER_RTT_V792h/RTT/SEGGER_RTT_printf.c ****       do {
 734              		.loc 1 363 7 is_stmt 1 view .LVU240
 364:../Public/debuglog/SEGGER_RTT_V792h/RTT/SEGGER_RTT_printf.c ****         c = *sFormat;
 735              		.loc 1 364 9 view .LVU241
 736              		.loc 1 364 11 is_stmt 0 view .LVU242
 737 008c 2378     		ldrb	r3, [r4]	@ zero_extendqisi2
 738              	.LVL67:
 365:../Public/debuglog/SEGGER_RTT_V792h/RTT/SEGGER_RTT_printf.c ****         if ((c < '0') || (c > '9')) {
 739              		.loc 1 365 9 is_stmt 1 view .LVU243
 740              		.loc 1 365 23 is_stmt 0 view .LVU244
 741 008e A3F13001 		sub	r1, r3, #48
 742 0092 C9B2     		uxtb	r1, r1
 743              		.loc 1 365 12 view .LVU245
 744 0094 0929     		cmp	r1, #9
 745 0096 07D8     		bhi	.L63
 366:../Public/debuglog/SEGGER_RTT_V792h/RTT/SEGGER_RTT_printf.c ****           break;
 367:../Public/debuglog/SEGGER_RTT_V792h/RTT/SEGGER_RTT_printf.c ****         }
 368:../Public/debuglog/SEGGER_RTT_V792h/RTT/SEGGER_RTT_printf.c ****         sFormat++;
 746              		.loc 1 368 9 is_stmt 1 view .LVU246
 747              		.loc 1 368 16 is_stmt 0 view .LVU247
 748 0098 0134     		adds	r4, r4, #1
 749              	.LVL68:
 369:../Public/debuglog/SEGGER_RTT_V792h/RTT/SEGGER_RTT_printf.c ****         FieldWidth = (FieldWidth * 10u) + ((unsigned)c - '0');
 750              		.loc 1 369 9 is_stmt 1 view .LVU248
 751              		.loc 1 369 34 is_stmt 0 view .LVU249
 752 009a 02EB8202 		add	r2, r2, r2, lsl #2
 753              	.LVL69:
 754              		.loc 1 369 41 view .LVU250
 755 009e 03EB4203 		add	r3, r3, r2, lsl #1
 756              	.LVL70:
 757              		.loc 1 369 20 view .LVU251
 758 00a2 A3F13002 		sub	r2, r3, #48
 759              	.LVL71:
 370:../Public/debuglog/SEGGER_RTT_V792h/RTT/SEGGER_RTT_printf.c ****       } while (1);
 760              		.loc 1 370 15 is_stmt 1 view .LVU252
 364:../Public/debuglog/SEGGER_RTT_V792h/RTT/SEGGER_RTT_printf.c ****         if ((c < '0') || (c > '9')) {
 761              		.loc 1 364 11 is_stmt 0 view .LVU253
 762 00a6 F1E7     		b	.L64
 763              	.LVL72:
ARM GAS  C:\Users\zhangge\AppData\Local\Temp\ccknIKf0.s 			page 22


 764              	.L63:
 371:../Public/debuglog/SEGGER_RTT_V792h/RTT/SEGGER_RTT_printf.c **** 
 372:../Public/debuglog/SEGGER_RTT_V792h/RTT/SEGGER_RTT_printf.c ****       //
 373:../Public/debuglog/SEGGER_RTT_V792h/RTT/SEGGER_RTT_printf.c ****       // Filter out precision (number of digits to display)
 374:../Public/debuglog/SEGGER_RTT_V792h/RTT/SEGGER_RTT_printf.c ****       //
 375:../Public/debuglog/SEGGER_RTT_V792h/RTT/SEGGER_RTT_printf.c ****       NumDigits = 0u;
 765              		.loc 1 375 7 is_stmt 1 view .LVU254
 376:../Public/debuglog/SEGGER_RTT_V792h/RTT/SEGGER_RTT_printf.c ****       c = *sFormat;
 766              		.loc 1 376 7 view .LVU255
 377:../Public/debuglog/SEGGER_RTT_V792h/RTT/SEGGER_RTT_printf.c ****       if (c == '.') {
 767              		.loc 1 377 7 view .LVU256
 768              		.loc 1 377 10 is_stmt 0 view .LVU257
 769 00a8 2E2B     		cmp	r3, #46
 770 00aa 02D0     		beq	.L87
 375:../Public/debuglog/SEGGER_RTT_V792h/RTT/SEGGER_RTT_printf.c ****       c = *sFormat;
 771              		.loc 1 375 17 view .LVU258
 772 00ac 0023     		movs	r3, #0
 773              	.LVL73:
 774              	.L65:
 378:../Public/debuglog/SEGGER_RTT_V792h/RTT/SEGGER_RTT_printf.c ****         sFormat++;
 379:../Public/debuglog/SEGGER_RTT_V792h/RTT/SEGGER_RTT_printf.c ****         do {
 380:../Public/debuglog/SEGGER_RTT_V792h/RTT/SEGGER_RTT_printf.c ****           c = *sFormat;
 381:../Public/debuglog/SEGGER_RTT_V792h/RTT/SEGGER_RTT_printf.c ****           if ((c < '0') || (c > '9')) {
 382:../Public/debuglog/SEGGER_RTT_V792h/RTT/SEGGER_RTT_printf.c ****             break;
 383:../Public/debuglog/SEGGER_RTT_V792h/RTT/SEGGER_RTT_printf.c ****           }
 384:../Public/debuglog/SEGGER_RTT_V792h/RTT/SEGGER_RTT_printf.c ****           sFormat++;
 385:../Public/debuglog/SEGGER_RTT_V792h/RTT/SEGGER_RTT_printf.c ****           NumDigits = NumDigits * 10u + ((unsigned)c - '0');
 386:../Public/debuglog/SEGGER_RTT_V792h/RTT/SEGGER_RTT_printf.c ****         } while (1);
 387:../Public/debuglog/SEGGER_RTT_V792h/RTT/SEGGER_RTT_printf.c ****       }
 388:../Public/debuglog/SEGGER_RTT_V792h/RTT/SEGGER_RTT_printf.c ****       //
 389:../Public/debuglog/SEGGER_RTT_V792h/RTT/SEGGER_RTT_printf.c ****       // Filter out length modifier
 390:../Public/debuglog/SEGGER_RTT_V792h/RTT/SEGGER_RTT_printf.c ****       //
 391:../Public/debuglog/SEGGER_RTT_V792h/RTT/SEGGER_RTT_printf.c ****       c = *sFormat;
 775              		.loc 1 391 7 is_stmt 1 view .LVU259
 776              		.loc 1 391 9 is_stmt 0 view .LVU260
 777 00ae 2178     		ldrb	r1, [r4]	@ zero_extendqisi2
 778              	.LVL74:
 779              		.loc 1 391 9 view .LVU261
 780 00b0 13E0     		b	.L69
 781              	.LVL75:
 782              	.L87:
 378:../Public/debuglog/SEGGER_RTT_V792h/RTT/SEGGER_RTT_printf.c ****         sFormat++;
 783              		.loc 1 378 9 is_stmt 1 view .LVU262
 378:../Public/debuglog/SEGGER_RTT_V792h/RTT/SEGGER_RTT_printf.c ****         sFormat++;
 784              		.loc 1 378 16 is_stmt 0 view .LVU263
 785 00b2 0134     		adds	r4, r4, #1
 786              	.LVL76:
 375:../Public/debuglog/SEGGER_RTT_V792h/RTT/SEGGER_RTT_printf.c ****       c = *sFormat;
 787              		.loc 1 375 17 view .LVU264
 788 00b4 0023     		movs	r3, #0
 789              	.LVL77:
 375:../Public/debuglog/SEGGER_RTT_V792h/RTT/SEGGER_RTT_printf.c ****       c = *sFormat;
 790              		.loc 1 375 17 view .LVU265
 791 00b6 05E0     		b	.L66
 792              	.LVL78:
 793              	.L88:
 384:../Public/debuglog/SEGGER_RTT_V792h/RTT/SEGGER_RTT_printf.c ****           NumDigits = NumDigits * 10u + ((unsigned)c - '0');
ARM GAS  C:\Users\zhangge\AppData\Local\Temp\ccknIKf0.s 			page 23


 794              		.loc 1 384 11 is_stmt 1 view .LVU266
 384:../Public/debuglog/SEGGER_RTT_V792h/RTT/SEGGER_RTT_printf.c ****           NumDigits = NumDigits * 10u + ((unsigned)c - '0');
 795              		.loc 1 384 18 is_stmt 0 view .LVU267
 796 00b8 0134     		adds	r4, r4, #1
 797              	.LVL79:
 385:../Public/debuglog/SEGGER_RTT_V792h/RTT/SEGGER_RTT_printf.c ****         } while (1);
 798              		.loc 1 385 11 is_stmt 1 view .LVU268
 385:../Public/debuglog/SEGGER_RTT_V792h/RTT/SEGGER_RTT_printf.c ****         } while (1);
 799              		.loc 1 385 33 is_stmt 0 view .LVU269
 800 00ba 03EB8303 		add	r3, r3, r3, lsl #2
 801              	.LVL80:
 385:../Public/debuglog/SEGGER_RTT_V792h/RTT/SEGGER_RTT_printf.c ****         } while (1);
 802              		.loc 1 385 39 view .LVU270
 803 00be 01EB4303 		add	r3, r1, r3, lsl #1
 385:../Public/debuglog/SEGGER_RTT_V792h/RTT/SEGGER_RTT_printf.c ****         } while (1);
 804              		.loc 1 385 21 view .LVU271
 805 00c2 303B     		subs	r3, r3, #48
 806              	.LVL81:
 386:../Public/debuglog/SEGGER_RTT_V792h/RTT/SEGGER_RTT_printf.c ****       }
 807              		.loc 1 386 17 is_stmt 1 view .LVU272
 808              	.L66:
 379:../Public/debuglog/SEGGER_RTT_V792h/RTT/SEGGER_RTT_printf.c ****           c = *sFormat;
 809              		.loc 1 379 9 view .LVU273
 380:../Public/debuglog/SEGGER_RTT_V792h/RTT/SEGGER_RTT_printf.c ****           if ((c < '0') || (c > '9')) {
 810              		.loc 1 380 11 view .LVU274
 380:../Public/debuglog/SEGGER_RTT_V792h/RTT/SEGGER_RTT_printf.c ****           if ((c < '0') || (c > '9')) {
 811              		.loc 1 380 13 is_stmt 0 view .LVU275
 812 00c4 2178     		ldrb	r1, [r4]	@ zero_extendqisi2
 813              	.LVL82:
 381:../Public/debuglog/SEGGER_RTT_V792h/RTT/SEGGER_RTT_printf.c ****             break;
 814              		.loc 1 381 11 is_stmt 1 view .LVU276
 381:../Public/debuglog/SEGGER_RTT_V792h/RTT/SEGGER_RTT_printf.c ****             break;
 815              		.loc 1 381 25 is_stmt 0 view .LVU277
 816 00c6 A1F1300C 		sub	ip, r1, #48
 817 00ca 5FFA8CFC 		uxtb	ip, ip
 381:../Public/debuglog/SEGGER_RTT_V792h/RTT/SEGGER_RTT_printf.c ****             break;
 818              		.loc 1 381 14 view .LVU278
 819 00ce BCF1090F 		cmp	ip, #9
 820 00d2 F1D9     		bls	.L88
 381:../Public/debuglog/SEGGER_RTT_V792h/RTT/SEGGER_RTT_printf.c ****             break;
 821              		.loc 1 381 14 view .LVU279
 822 00d4 EBE7     		b	.L65
 823              	.L67:
 392:../Public/debuglog/SEGGER_RTT_V792h/RTT/SEGGER_RTT_printf.c ****       do {
 393:../Public/debuglog/SEGGER_RTT_V792h/RTT/SEGGER_RTT_printf.c ****         if ((c == 'l') || (c == 'h')) {
 394:../Public/debuglog/SEGGER_RTT_V792h/RTT/SEGGER_RTT_printf.c ****           sFormat++;
 824              		.loc 1 394 11 is_stmt 1 view .LVU280
 825              	.LVL83:
 395:../Public/debuglog/SEGGER_RTT_V792h/RTT/SEGGER_RTT_printf.c ****           c = *sFormat;
 826              		.loc 1 395 11 view .LVU281
 827              		.loc 1 395 13 is_stmt 0 view .LVU282
 828 00d6 14F8011F 		ldrb	r1, [r4, #1]!	@ zero_extendqisi2
 829              	.LVL84:
 396:../Public/debuglog/SEGGER_RTT_V792h/RTT/SEGGER_RTT_printf.c ****         } else {
 397:../Public/debuglog/SEGGER_RTT_V792h/RTT/SEGGER_RTT_printf.c ****           break;
 398:../Public/debuglog/SEGGER_RTT_V792h/RTT/SEGGER_RTT_printf.c ****         }
 399:../Public/debuglog/SEGGER_RTT_V792h/RTT/SEGGER_RTT_printf.c ****       } while (1);
ARM GAS  C:\Users\zhangge\AppData\Local\Temp\ccknIKf0.s 			page 24


 830              		.loc 1 399 15 is_stmt 1 view .LVU283
 831              	.L69:
 392:../Public/debuglog/SEGGER_RTT_V792h/RTT/SEGGER_RTT_printf.c ****         if ((c == 'l') || (c == 'h')) {
 832              		.loc 1 392 7 view .LVU284
 393:../Public/debuglog/SEGGER_RTT_V792h/RTT/SEGGER_RTT_printf.c ****           sFormat++;
 833              		.loc 1 393 9 view .LVU285
 393:../Public/debuglog/SEGGER_RTT_V792h/RTT/SEGGER_RTT_printf.c ****           sFormat++;
 834              		.loc 1 393 12 is_stmt 0 view .LVU286
 835 00da 6C29     		cmp	r1, #108
 836 00dc FBD0     		beq	.L67
 393:../Public/debuglog/SEGGER_RTT_V792h/RTT/SEGGER_RTT_printf.c ****           sFormat++;
 837              		.loc 1 393 24 discriminator 1 view .LVU287
 838 00de 6829     		cmp	r1, #104
 839 00e0 F9D0     		beq	.L67
 400:../Public/debuglog/SEGGER_RTT_V792h/RTT/SEGGER_RTT_printf.c ****       //
 401:../Public/debuglog/SEGGER_RTT_V792h/RTT/SEGGER_RTT_printf.c ****       // Handle specifiers
 402:../Public/debuglog/SEGGER_RTT_V792h/RTT/SEGGER_RTT_printf.c ****       //
 403:../Public/debuglog/SEGGER_RTT_V792h/RTT/SEGGER_RTT_printf.c ****       switch (c) {
 840              		.loc 1 403 7 is_stmt 1 view .LVU288
 841 00e2 2529     		cmp	r1, #37
 842 00e4 6DD0     		beq	.L70
 843 00e6 20D3     		bcc	.L71
 844 00e8 7829     		cmp	r1, #120
 845 00ea 1ED8     		bhi	.L71
 846 00ec 5829     		cmp	r1, #88
 847 00ee 1CD3     		bcc	.L71
 848 00f0 5839     		subs	r1, r1, #88
 849              	.LVL85:
 850              		.loc 1 403 7 is_stmt 0 view .LVU289
 851 00f2 2029     		cmp	r1, #32
 852 00f4 19D8     		bhi	.L71
 853 00f6 DFE801F0 		tbb	[pc, r1]
 854              	.L73:
 855 00fa 3D       		.byte	(.L72-.L73)/2
 856 00fb 18       		.byte	(.L71-.L73)/2
 857 00fc 18       		.byte	(.L71-.L73)/2
 858 00fd 18       		.byte	(.L71-.L73)/2
 859 00fe 18       		.byte	(.L71-.L73)/2
 860 00ff 18       		.byte	(.L71-.L73)/2
 861 0100 18       		.byte	(.L71-.L73)/2
 862 0101 18       		.byte	(.L71-.L73)/2
 863 0102 18       		.byte	(.L71-.L73)/2
 864 0103 18       		.byte	(.L71-.L73)/2
 865 0104 18       		.byte	(.L71-.L73)/2
 866 0105 11       		.byte	(.L78-.L73)/2
 867 0106 27       		.byte	(.L77-.L73)/2
 868 0107 18       		.byte	(.L71-.L73)/2
 869 0108 18       		.byte	(.L71-.L73)/2
 870 0109 18       		.byte	(.L71-.L73)/2
 871 010a 18       		.byte	(.L71-.L73)/2
 872 010b 18       		.byte	(.L71-.L73)/2
 873 010c 18       		.byte	(.L71-.L73)/2
 874 010d 18       		.byte	(.L71-.L73)/2
 875 010e 18       		.byte	(.L71-.L73)/2
 876 010f 18       		.byte	(.L71-.L73)/2
 877 0110 18       		.byte	(.L71-.L73)/2
 878 0111 18       		.byte	(.L71-.L73)/2
ARM GAS  C:\Users\zhangge\AppData\Local\Temp\ccknIKf0.s 			page 25


 879 0112 57       		.byte	(.L76-.L73)/2
 880 0113 18       		.byte	(.L71-.L73)/2
 881 0114 18       		.byte	(.L71-.L73)/2
 882 0115 48       		.byte	(.L75-.L73)/2
 883 0116 18       		.byte	(.L71-.L73)/2
 884 0117 32       		.byte	(.L74-.L73)/2
 885 0118 18       		.byte	(.L71-.L73)/2
 886 0119 18       		.byte	(.L71-.L73)/2
 887 011a 3D       		.byte	(.L72-.L73)/2
 888 011b 00       		.p2align 1
 889              	.L78:
 890              	.LBB2:
 404:../Public/debuglog/SEGGER_RTT_V792h/RTT/SEGGER_RTT_printf.c ****       case 'c': {
 405:../Public/debuglog/SEGGER_RTT_V792h/RTT/SEGGER_RTT_printf.c ****         char c0;
 891              		.loc 1 405 9 is_stmt 1 view .LVU290
 406:../Public/debuglog/SEGGER_RTT_V792h/RTT/SEGGER_RTT_printf.c ****         v = va_arg(*pParamList, int);
 892              		.loc 1 406 9 view .LVU291
 893              		.loc 1 406 11 is_stmt 0 view .LVU292
 894 011c 2B68     		ldr	r3, [r5]
 895              	.LVL86:
 896              		.loc 1 406 11 view .LVU293
 897 011e 1A1D     		adds	r2, r3, #4
 898              	.LVL87:
 899              		.loc 1 406 11 view .LVU294
 900 0120 2A60     		str	r2, [r5]
 407:../Public/debuglog/SEGGER_RTT_V792h/RTT/SEGGER_RTT_printf.c ****         c0 = (char)v;
 901              		.loc 1 407 9 is_stmt 1 view .LVU295
 902              	.LVL88:
 408:../Public/debuglog/SEGGER_RTT_V792h/RTT/SEGGER_RTT_printf.c ****         _StoreChar(&BufferDesc, c0);
 903              		.loc 1 408 9 view .LVU296
 904 0122 1978     		ldrb	r1, [r3]	@ zero_extendqisi2
 905 0124 13A8     		add	r0, sp, #76
 906              	.LVL89:
 907              		.loc 1 408 9 is_stmt 0 view .LVU297
 908 0126 FFF7FEFF 		bl	_StoreChar
 909              	.LVL90:
 409:../Public/debuglog/SEGGER_RTT_V792h/RTT/SEGGER_RTT_printf.c ****         break;
 910              		.loc 1 409 9 is_stmt 1 view .LVU298
 911              	.L71:
 912              		.loc 1 409 9 is_stmt 0 view .LVU299
 913              	.LBE2:
 410:../Public/debuglog/SEGGER_RTT_V792h/RTT/SEGGER_RTT_printf.c ****       }
 411:../Public/debuglog/SEGGER_RTT_V792h/RTT/SEGGER_RTT_printf.c ****       case 'd':
 412:../Public/debuglog/SEGGER_RTT_V792h/RTT/SEGGER_RTT_printf.c ****         v = va_arg(*pParamList, int);
 413:../Public/debuglog/SEGGER_RTT_V792h/RTT/SEGGER_RTT_printf.c ****         _PrintInt(&BufferDesc, v, 10u, NumDigits, FieldWidth, FormatFlags);
 414:../Public/debuglog/SEGGER_RTT_V792h/RTT/SEGGER_RTT_printf.c ****         break;
 415:../Public/debuglog/SEGGER_RTT_V792h/RTT/SEGGER_RTT_printf.c ****       case 'u':
 416:../Public/debuglog/SEGGER_RTT_V792h/RTT/SEGGER_RTT_printf.c ****         v = va_arg(*pParamList, int);
 417:../Public/debuglog/SEGGER_RTT_V792h/RTT/SEGGER_RTT_printf.c ****         _PrintUnsigned(&BufferDesc, (unsigned)v, 10u, NumDigits, FieldWidth, FormatFlags);
 418:../Public/debuglog/SEGGER_RTT_V792h/RTT/SEGGER_RTT_printf.c ****         break;
 419:../Public/debuglog/SEGGER_RTT_V792h/RTT/SEGGER_RTT_printf.c ****       case 'x':
 420:../Public/debuglog/SEGGER_RTT_V792h/RTT/SEGGER_RTT_printf.c ****       case 'X':
 421:../Public/debuglog/SEGGER_RTT_V792h/RTT/SEGGER_RTT_printf.c ****         v = va_arg(*pParamList, int);
 422:../Public/debuglog/SEGGER_RTT_V792h/RTT/SEGGER_RTT_printf.c ****         _PrintUnsigned(&BufferDesc, (unsigned)v, 16u, NumDigits, FieldWidth, FormatFlags);
 423:../Public/debuglog/SEGGER_RTT_V792h/RTT/SEGGER_RTT_printf.c ****         break;
 424:../Public/debuglog/SEGGER_RTT_V792h/RTT/SEGGER_RTT_printf.c ****       case 's':
 425:../Public/debuglog/SEGGER_RTT_V792h/RTT/SEGGER_RTT_printf.c ****         {
ARM GAS  C:\Users\zhangge\AppData\Local\Temp\ccknIKf0.s 			page 26


 426:../Public/debuglog/SEGGER_RTT_V792h/RTT/SEGGER_RTT_printf.c ****           const char * s = va_arg(*pParamList, const char *);
 427:../Public/debuglog/SEGGER_RTT_V792h/RTT/SEGGER_RTT_printf.c ****           do {
 428:../Public/debuglog/SEGGER_RTT_V792h/RTT/SEGGER_RTT_printf.c ****             c = *s;
 429:../Public/debuglog/SEGGER_RTT_V792h/RTT/SEGGER_RTT_printf.c ****             s++;
 430:../Public/debuglog/SEGGER_RTT_V792h/RTT/SEGGER_RTT_printf.c ****             if (c == '\0') {
 431:../Public/debuglog/SEGGER_RTT_V792h/RTT/SEGGER_RTT_printf.c ****               break;
 432:../Public/debuglog/SEGGER_RTT_V792h/RTT/SEGGER_RTT_printf.c ****             }
 433:../Public/debuglog/SEGGER_RTT_V792h/RTT/SEGGER_RTT_printf.c ****            _StoreChar(&BufferDesc, c);
 434:../Public/debuglog/SEGGER_RTT_V792h/RTT/SEGGER_RTT_printf.c ****           } while (BufferDesc.ReturnValue >= 0);
 435:../Public/debuglog/SEGGER_RTT_V792h/RTT/SEGGER_RTT_printf.c ****         }
 436:../Public/debuglog/SEGGER_RTT_V792h/RTT/SEGGER_RTT_printf.c ****         break;
 437:../Public/debuglog/SEGGER_RTT_V792h/RTT/SEGGER_RTT_printf.c ****       case 'p':
 438:../Public/debuglog/SEGGER_RTT_V792h/RTT/SEGGER_RTT_printf.c ****         v = va_arg(*pParamList, int);
 439:../Public/debuglog/SEGGER_RTT_V792h/RTT/SEGGER_RTT_printf.c ****         _PrintUnsigned(&BufferDesc, (unsigned)v, 16u, 8u, 8u, 0u);
 440:../Public/debuglog/SEGGER_RTT_V792h/RTT/SEGGER_RTT_printf.c ****         break;
 441:../Public/debuglog/SEGGER_RTT_V792h/RTT/SEGGER_RTT_printf.c ****       case '%':
 442:../Public/debuglog/SEGGER_RTT_V792h/RTT/SEGGER_RTT_printf.c ****         _StoreChar(&BufferDesc, '%');
 443:../Public/debuglog/SEGGER_RTT_V792h/RTT/SEGGER_RTT_printf.c ****         break;
 444:../Public/debuglog/SEGGER_RTT_V792h/RTT/SEGGER_RTT_printf.c ****       default:
 445:../Public/debuglog/SEGGER_RTT_V792h/RTT/SEGGER_RTT_printf.c ****         break;
 446:../Public/debuglog/SEGGER_RTT_V792h/RTT/SEGGER_RTT_printf.c ****       }
 447:../Public/debuglog/SEGGER_RTT_V792h/RTT/SEGGER_RTT_printf.c ****       sFormat++;
 914              		.loc 1 447 7 is_stmt 1 view .LVU300
 915              		.loc 1 447 14 is_stmt 0 view .LVU301
 916 012a 0134     		adds	r4, r4, #1
 917              	.LVL91:
 918              	.L80:
 448:../Public/debuglog/SEGGER_RTT_V792h/RTT/SEGGER_RTT_printf.c ****     } else {
 449:../Public/debuglog/SEGGER_RTT_V792h/RTT/SEGGER_RTT_printf.c ****       _StoreChar(&BufferDesc, c);
 450:../Public/debuglog/SEGGER_RTT_V792h/RTT/SEGGER_RTT_printf.c ****     }
 451:../Public/debuglog/SEGGER_RTT_V792h/RTT/SEGGER_RTT_printf.c ****   } while (BufferDesc.ReturnValue >= 0);
 919              		.loc 1 451 11 is_stmt 1 view .LVU302
 920              		.loc 1 451 22 is_stmt 0 view .LVU303
 921 012c 169B     		ldr	r3, [sp, #88]
 922              		.loc 1 451 3 view .LVU304
 923 012e 002B     		cmp	r3, #0
 924 0130 4CDB     		blt	.L54
 925              	.L81:
 337:../Public/debuglog/SEGGER_RTT_V792h/RTT/SEGGER_RTT_printf.c ****     c = *sFormat;
 926              		.loc 1 337 3 is_stmt 1 view .LVU305
 338:../Public/debuglog/SEGGER_RTT_V792h/RTT/SEGGER_RTT_printf.c ****     sFormat++;
 927              		.loc 1 338 5 view .LVU306
 338:../Public/debuglog/SEGGER_RTT_V792h/RTT/SEGGER_RTT_printf.c ****     sFormat++;
 928              		.loc 1 338 7 is_stmt 0 view .LVU307
 929 0132 14F8011B 		ldrb	r1, [r4], #1	@ zero_extendqisi2
 930              	.LVL92:
 339:../Public/debuglog/SEGGER_RTT_V792h/RTT/SEGGER_RTT_printf.c ****     if (c == 0u) {
 931              		.loc 1 339 5 is_stmt 1 view .LVU308
 340:../Public/debuglog/SEGGER_RTT_V792h/RTT/SEGGER_RTT_printf.c ****       break;
 932              		.loc 1 340 5 view .LVU309
 340:../Public/debuglog/SEGGER_RTT_V792h/RTT/SEGGER_RTT_printf.c ****       break;
 933              		.loc 1 340 8 is_stmt 0 view .LVU310
 934 0136 0029     		cmp	r1, #0
 935 0138 48D0     		beq	.L54
 343:../Public/debuglog/SEGGER_RTT_V792h/RTT/SEGGER_RTT_printf.c ****       //
 936              		.loc 1 343 5 is_stmt 1 view .LVU311
 343:../Public/debuglog/SEGGER_RTT_V792h/RTT/SEGGER_RTT_printf.c ****       //
ARM GAS  C:\Users\zhangge\AppData\Local\Temp\ccknIKf0.s 			page 27


 937              		.loc 1 343 8 is_stmt 0 view .LVU312
 938 013a 2529     		cmp	r1, #37
 939 013c 3FF46EAF 		beq	.L89
 449:../Public/debuglog/SEGGER_RTT_V792h/RTT/SEGGER_RTT_printf.c ****     }
 940              		.loc 1 449 7 is_stmt 1 view .LVU313
 941 0140 13A8     		add	r0, sp, #76
 942 0142 FFF7FEFF 		bl	_StoreChar
 943              	.LVL93:
 449:../Public/debuglog/SEGGER_RTT_V792h/RTT/SEGGER_RTT_printf.c ****     }
 944              		.loc 1 449 7 is_stmt 0 view .LVU314
 945 0146 F1E7     		b	.L80
 946              	.LVL94:
 947              	.L77:
 412:../Public/debuglog/SEGGER_RTT_V792h/RTT/SEGGER_RTT_printf.c ****         _PrintInt(&BufferDesc, v, 10u, NumDigits, FieldWidth, FormatFlags);
 948              		.loc 1 412 9 is_stmt 1 view .LVU315
 412:../Public/debuglog/SEGGER_RTT_V792h/RTT/SEGGER_RTT_printf.c ****         _PrintInt(&BufferDesc, v, 10u, NumDigits, FieldWidth, FormatFlags);
 949              		.loc 1 412 11 is_stmt 0 view .LVU316
 950 0148 2968     		ldr	r1, [r5]
 951 014a 0F1D     		adds	r7, r1, #4
 952 014c 2F60     		str	r7, [r5]
 953 014e 0968     		ldr	r1, [r1]
 413:../Public/debuglog/SEGGER_RTT_V792h/RTT/SEGGER_RTT_printf.c ****         break;
 954              		.loc 1 413 9 is_stmt 1 view .LVU317
 955 0150 0190     		str	r0, [sp, #4]
 956 0152 0092     		str	r2, [sp]
 957 0154 0A22     		movs	r2, #10
 958              	.LVL95:
 413:../Public/debuglog/SEGGER_RTT_V792h/RTT/SEGGER_RTT_printf.c ****         break;
 959              		.loc 1 413 9 is_stmt 0 view .LVU318
 960 0156 13A8     		add	r0, sp, #76
 961              	.LVL96:
 413:../Public/debuglog/SEGGER_RTT_V792h/RTT/SEGGER_RTT_printf.c ****         break;
 962              		.loc 1 413 9 view .LVU319
 963 0158 FFF7FEFF 		bl	_PrintInt
 964              	.LVL97:
 414:../Public/debuglog/SEGGER_RTT_V792h/RTT/SEGGER_RTT_printf.c ****       case 'u':
 965              		.loc 1 414 9 is_stmt 1 view .LVU320
 966 015c E5E7     		b	.L71
 967              	.LVL98:
 968              	.L74:
 416:../Public/debuglog/SEGGER_RTT_V792h/RTT/SEGGER_RTT_printf.c ****         _PrintUnsigned(&BufferDesc, (unsigned)v, 10u, NumDigits, FieldWidth, FormatFlags);
 969              		.loc 1 416 9 view .LVU321
 416:../Public/debuglog/SEGGER_RTT_V792h/RTT/SEGGER_RTT_printf.c ****         _PrintUnsigned(&BufferDesc, (unsigned)v, 10u, NumDigits, FieldWidth, FormatFlags);
 970              		.loc 1 416 11 is_stmt 0 view .LVU322
 971 015e 2968     		ldr	r1, [r5]
 972 0160 0F1D     		adds	r7, r1, #4
 973 0162 2F60     		str	r7, [r5]
 974 0164 0968     		ldr	r1, [r1]
 417:../Public/debuglog/SEGGER_RTT_V792h/RTT/SEGGER_RTT_printf.c ****         break;
 975              		.loc 1 417 9 is_stmt 1 view .LVU323
 976 0166 0190     		str	r0, [sp, #4]
 977 0168 0092     		str	r2, [sp]
 978 016a 0A22     		movs	r2, #10
 979              	.LVL99:
 417:../Public/debuglog/SEGGER_RTT_V792h/RTT/SEGGER_RTT_printf.c ****         break;
 980              		.loc 1 417 9 is_stmt 0 view .LVU324
 981 016c 13A8     		add	r0, sp, #76
ARM GAS  C:\Users\zhangge\AppData\Local\Temp\ccknIKf0.s 			page 28


 982              	.LVL100:
 417:../Public/debuglog/SEGGER_RTT_V792h/RTT/SEGGER_RTT_printf.c ****         break;
 983              		.loc 1 417 9 view .LVU325
 984 016e FFF7FEFF 		bl	_PrintUnsigned
 985              	.LVL101:
 418:../Public/debuglog/SEGGER_RTT_V792h/RTT/SEGGER_RTT_printf.c ****       case 'x':
 986              		.loc 1 418 9 is_stmt 1 view .LVU326
 987 0172 DAE7     		b	.L71
 988              	.LVL102:
 989              	.L72:
 421:../Public/debuglog/SEGGER_RTT_V792h/RTT/SEGGER_RTT_printf.c ****         _PrintUnsigned(&BufferDesc, (unsigned)v, 16u, NumDigits, FieldWidth, FormatFlags);
 990              		.loc 1 421 9 view .LVU327
 421:../Public/debuglog/SEGGER_RTT_V792h/RTT/SEGGER_RTT_printf.c ****         _PrintUnsigned(&BufferDesc, (unsigned)v, 16u, NumDigits, FieldWidth, FormatFlags);
 991              		.loc 1 421 11 is_stmt 0 view .LVU328
 992 0174 2968     		ldr	r1, [r5]
 993 0176 0F1D     		adds	r7, r1, #4
 994 0178 2F60     		str	r7, [r5]
 995 017a 0968     		ldr	r1, [r1]
 422:../Public/debuglog/SEGGER_RTT_V792h/RTT/SEGGER_RTT_printf.c ****         break;
 996              		.loc 1 422 9 is_stmt 1 view .LVU329
 997 017c 0190     		str	r0, [sp, #4]
 998 017e 0092     		str	r2, [sp]
 999 0180 1022     		movs	r2, #16
 1000              	.LVL103:
 422:../Public/debuglog/SEGGER_RTT_V792h/RTT/SEGGER_RTT_printf.c ****         break;
 1001              		.loc 1 422 9 is_stmt 0 view .LVU330
 1002 0182 13A8     		add	r0, sp, #76
 1003              	.LVL104:
 422:../Public/debuglog/SEGGER_RTT_V792h/RTT/SEGGER_RTT_printf.c ****         break;
 1004              		.loc 1 422 9 view .LVU331
 1005 0184 FFF7FEFF 		bl	_PrintUnsigned
 1006              	.LVL105:
 423:../Public/debuglog/SEGGER_RTT_V792h/RTT/SEGGER_RTT_printf.c ****       case 's':
 1007              		.loc 1 423 9 is_stmt 1 view .LVU332
 1008 0188 CFE7     		b	.L71
 1009              	.LVL106:
 1010              	.L75:
 1011              	.LBB3:
 426:../Public/debuglog/SEGGER_RTT_V792h/RTT/SEGGER_RTT_printf.c ****           do {
 1012              		.loc 1 426 11 view .LVU333
 426:../Public/debuglog/SEGGER_RTT_V792h/RTT/SEGGER_RTT_printf.c ****           do {
 1013              		.loc 1 426 24 is_stmt 0 view .LVU334
 1014 018a 2B68     		ldr	r3, [r5]
 1015              	.LVL107:
 426:../Public/debuglog/SEGGER_RTT_V792h/RTT/SEGGER_RTT_printf.c ****           do {
 1016              		.loc 1 426 24 view .LVU335
 1017 018c 1A1D     		adds	r2, r3, #4
 1018              	.LVL108:
 426:../Public/debuglog/SEGGER_RTT_V792h/RTT/SEGGER_RTT_printf.c ****           do {
 1019              		.loc 1 426 24 view .LVU336
 1020 018e 2A60     		str	r2, [r5]
 1021 0190 1F68     		ldr	r7, [r3]
 1022              	.LVL109:
 1023              	.L79:
 427:../Public/debuglog/SEGGER_RTT_V792h/RTT/SEGGER_RTT_printf.c ****             c = *s;
 1024              		.loc 1 427 11 is_stmt 1 view .LVU337
 428:../Public/debuglog/SEGGER_RTT_V792h/RTT/SEGGER_RTT_printf.c ****             s++;
ARM GAS  C:\Users\zhangge\AppData\Local\Temp\ccknIKf0.s 			page 29


 1025              		.loc 1 428 13 view .LVU338
 428:../Public/debuglog/SEGGER_RTT_V792h/RTT/SEGGER_RTT_printf.c ****             s++;
 1026              		.loc 1 428 15 is_stmt 0 view .LVU339
 1027 0192 17F8011B 		ldrb	r1, [r7], #1	@ zero_extendqisi2
 1028              	.LVL110:
 429:../Public/debuglog/SEGGER_RTT_V792h/RTT/SEGGER_RTT_printf.c ****             if (c == '\0') {
 1029              		.loc 1 429 13 is_stmt 1 view .LVU340
 430:../Public/debuglog/SEGGER_RTT_V792h/RTT/SEGGER_RTT_printf.c ****               break;
 1030              		.loc 1 430 13 view .LVU341
 430:../Public/debuglog/SEGGER_RTT_V792h/RTT/SEGGER_RTT_printf.c ****               break;
 1031              		.loc 1 430 16 is_stmt 0 view .LVU342
 1032 0196 0029     		cmp	r1, #0
 1033 0198 C7D0     		beq	.L71
 433:../Public/debuglog/SEGGER_RTT_V792h/RTT/SEGGER_RTT_printf.c ****           } while (BufferDesc.ReturnValue >= 0);
 1034              		.loc 1 433 12 is_stmt 1 view .LVU343
 1035 019a 13A8     		add	r0, sp, #76
 1036 019c FFF7FEFF 		bl	_StoreChar
 1037              	.LVL111:
 434:../Public/debuglog/SEGGER_RTT_V792h/RTT/SEGGER_RTT_printf.c ****         }
 1038              		.loc 1 434 19 view .LVU344
 434:../Public/debuglog/SEGGER_RTT_V792h/RTT/SEGGER_RTT_printf.c ****         }
 1039              		.loc 1 434 30 is_stmt 0 view .LVU345
 1040 01a0 169B     		ldr	r3, [sp, #88]
 434:../Public/debuglog/SEGGER_RTT_V792h/RTT/SEGGER_RTT_printf.c ****         }
 1041              		.loc 1 434 11 view .LVU346
 1042 01a2 002B     		cmp	r3, #0
 1043 01a4 F5DA     		bge	.L79
 1044 01a6 C0E7     		b	.L71
 1045              	.LVL112:
 1046              	.L76:
 434:../Public/debuglog/SEGGER_RTT_V792h/RTT/SEGGER_RTT_printf.c ****         }
 1047              		.loc 1 434 11 view .LVU347
 1048              	.LBE3:
 438:../Public/debuglog/SEGGER_RTT_V792h/RTT/SEGGER_RTT_printf.c ****         _PrintUnsigned(&BufferDesc, (unsigned)v, 16u, 8u, 8u, 0u);
 1049              		.loc 1 438 9 is_stmt 1 view .LVU348
 438:../Public/debuglog/SEGGER_RTT_V792h/RTT/SEGGER_RTT_printf.c ****         _PrintUnsigned(&BufferDesc, (unsigned)v, 16u, 8u, 8u, 0u);
 1050              		.loc 1 438 11 is_stmt 0 view .LVU349
 1051 01a8 2B68     		ldr	r3, [r5]
 1052              	.LVL113:
 438:../Public/debuglog/SEGGER_RTT_V792h/RTT/SEGGER_RTT_printf.c ****         _PrintUnsigned(&BufferDesc, (unsigned)v, 16u, 8u, 8u, 0u);
 1053              		.loc 1 438 11 view .LVU350
 1054 01aa 1A1D     		adds	r2, r3, #4
 1055              	.LVL114:
 438:../Public/debuglog/SEGGER_RTT_V792h/RTT/SEGGER_RTT_printf.c ****         _PrintUnsigned(&BufferDesc, (unsigned)v, 16u, 8u, 8u, 0u);
 1056              		.loc 1 438 11 view .LVU351
 1057 01ac 2A60     		str	r2, [r5]
 1058 01ae 1968     		ldr	r1, [r3]
 439:../Public/debuglog/SEGGER_RTT_V792h/RTT/SEGGER_RTT_printf.c ****         break;
 1059              		.loc 1 439 9 is_stmt 1 view .LVU352
 1060 01b0 0023     		movs	r3, #0
 1061 01b2 0193     		str	r3, [sp, #4]
 1062 01b4 0823     		movs	r3, #8
 1063 01b6 0093     		str	r3, [sp]
 1064 01b8 1022     		movs	r2, #16
 1065 01ba 13A8     		add	r0, sp, #76
 1066              	.LVL115:
 439:../Public/debuglog/SEGGER_RTT_V792h/RTT/SEGGER_RTT_printf.c ****         break;
ARM GAS  C:\Users\zhangge\AppData\Local\Temp\ccknIKf0.s 			page 30


 1067              		.loc 1 439 9 is_stmt 0 view .LVU353
 1068 01bc FFF7FEFF 		bl	_PrintUnsigned
 1069              	.LVL116:
 440:../Public/debuglog/SEGGER_RTT_V792h/RTT/SEGGER_RTT_printf.c ****       case '%':
 1070              		.loc 1 440 9 is_stmt 1 view .LVU354
 1071 01c0 B3E7     		b	.L71
 1072              	.LVL117:
 1073              	.L70:
 442:../Public/debuglog/SEGGER_RTT_V792h/RTT/SEGGER_RTT_printf.c ****         break;
 1074              		.loc 1 442 9 view .LVU355
 1075 01c2 2521     		movs	r1, #37
 1076              	.LVL118:
 442:../Public/debuglog/SEGGER_RTT_V792h/RTT/SEGGER_RTT_printf.c ****         break;
 1077              		.loc 1 442 9 is_stmt 0 view .LVU356
 1078 01c4 13A8     		add	r0, sp, #76
 1079              	.LVL119:
 442:../Public/debuglog/SEGGER_RTT_V792h/RTT/SEGGER_RTT_printf.c ****         break;
 1080              		.loc 1 442 9 view .LVU357
 1081 01c6 FFF7FEFF 		bl	_StoreChar
 1082              	.LVL120:
 443:../Public/debuglog/SEGGER_RTT_V792h/RTT/SEGGER_RTT_printf.c ****       default:
 1083              		.loc 1 443 9 is_stmt 1 view .LVU358
 1084 01ca AEE7     		b	.L71
 1085              	.L54:
 452:../Public/debuglog/SEGGER_RTT_V792h/RTT/SEGGER_RTT_printf.c **** 
 453:../Public/debuglog/SEGGER_RTT_V792h/RTT/SEGGER_RTT_printf.c ****   if (BufferDesc.ReturnValue > 0) {
 1086              		.loc 1 453 3 view .LVU359
 1087              		.loc 1 453 17 is_stmt 0 view .LVU360
 1088 01cc 169B     		ldr	r3, [sp, #88]
 1089              		.loc 1 453 6 view .LVU361
 1090 01ce 002B     		cmp	r3, #0
 1091 01d0 05DD     		ble	.L82
 454:../Public/debuglog/SEGGER_RTT_V792h/RTT/SEGGER_RTT_printf.c ****     //
 455:../Public/debuglog/SEGGER_RTT_V792h/RTT/SEGGER_RTT_printf.c ****     // Write remaining data, if any
 456:../Public/debuglog/SEGGER_RTT_V792h/RTT/SEGGER_RTT_printf.c ****     //
 457:../Public/debuglog/SEGGER_RTT_V792h/RTT/SEGGER_RTT_printf.c ****     if (BufferDesc.Cnt != 0u) {
 1092              		.loc 1 457 5 is_stmt 1 view .LVU362
 1093              		.loc 1 457 19 is_stmt 0 view .LVU363
 1094 01d2 159A     		ldr	r2, [sp, #84]
 1095              		.loc 1 457 8 view .LVU364
 1096 01d4 32B9     		cbnz	r2, .L90
 1097              	.L83:
 458:../Public/debuglog/SEGGER_RTT_V792h/RTT/SEGGER_RTT_printf.c ****       SEGGER_RTT_Write(BufferIndex, acBuffer, BufferDesc.Cnt);
 459:../Public/debuglog/SEGGER_RTT_V792h/RTT/SEGGER_RTT_printf.c ****     }
 460:../Public/debuglog/SEGGER_RTT_V792h/RTT/SEGGER_RTT_printf.c ****     BufferDesc.ReturnValue += (int)BufferDesc.Cnt;
 1098              		.loc 1 460 5 is_stmt 1 view .LVU365
 1099              		.loc 1 460 28 is_stmt 0 view .LVU366
 1100 01d6 159A     		ldr	r2, [sp, #84]
 1101 01d8 169B     		ldr	r3, [sp, #88]
 1102 01da 1344     		add	r3, r3, r2
 1103 01dc 1693     		str	r3, [sp, #88]
 1104              	.L82:
 461:../Public/debuglog/SEGGER_RTT_V792h/RTT/SEGGER_RTT_printf.c ****   }
 462:../Public/debuglog/SEGGER_RTT_V792h/RTT/SEGGER_RTT_printf.c ****   return BufferDesc.ReturnValue;
 1105              		.loc 1 462 3 is_stmt 1 view .LVU367
 463:../Public/debuglog/SEGGER_RTT_V792h/RTT/SEGGER_RTT_printf.c **** }
 1106              		.loc 1 463 1 is_stmt 0 view .LVU368
ARM GAS  C:\Users\zhangge\AppData\Local\Temp\ccknIKf0.s 			page 31


 1107 01de 1698     		ldr	r0, [sp, #88]
 1108 01e0 19B0     		add	sp, sp, #100
 1109              	.LCFI8:
 1110              		.cfi_remember_state
 1111              		.cfi_def_cfa_offset 20
 1112              		@ sp needed
 1113 01e2 F0BD     		pop	{r4, r5, r6, r7, pc}
 1114              	.LVL121:
 1115              	.L90:
 1116              	.LCFI9:
 1117              		.cfi_restore_state
 458:../Public/debuglog/SEGGER_RTT_V792h/RTT/SEGGER_RTT_printf.c ****       SEGGER_RTT_Write(BufferIndex, acBuffer, BufferDesc.Cnt);
 1118              		.loc 1 458 7 is_stmt 1 view .LVU369
 1119 01e4 03A9     		add	r1, sp, #12
 1120 01e6 3046     		mov	r0, r6
 1121 01e8 FFF7FEFF 		bl	SEGGER_RTT_Write
 1122              	.LVL122:
 1123 01ec F3E7     		b	.L83
 1124              		.cfi_endproc
 1125              	.LFE3:
 1127 01ee 00BF     		.section	.text.SEGGER_RTT_printf,"ax",%progbits
 1128              		.align	1
 1129              		.global	SEGGER_RTT_printf
 1130              		.syntax unified
 1131              		.thumb
 1132              		.thumb_func
 1134              	SEGGER_RTT_printf:
 1135              	.LVL123:
 1136              	.LFB4:
 464:../Public/debuglog/SEGGER_RTT_V792h/RTT/SEGGER_RTT_printf.c **** 
 465:../Public/debuglog/SEGGER_RTT_V792h/RTT/SEGGER_RTT_printf.c **** /*********************************************************************
 466:../Public/debuglog/SEGGER_RTT_V792h/RTT/SEGGER_RTT_printf.c **** *
 467:../Public/debuglog/SEGGER_RTT_V792h/RTT/SEGGER_RTT_printf.c **** *       SEGGER_RTT_printf
 468:../Public/debuglog/SEGGER_RTT_V792h/RTT/SEGGER_RTT_printf.c **** *
 469:../Public/debuglog/SEGGER_RTT_V792h/RTT/SEGGER_RTT_printf.c **** *  Function description
 470:../Public/debuglog/SEGGER_RTT_V792h/RTT/SEGGER_RTT_printf.c **** *    Stores a formatted string in SEGGER RTT control block.
 471:../Public/debuglog/SEGGER_RTT_V792h/RTT/SEGGER_RTT_printf.c **** *    This data is read by the host.
 472:../Public/debuglog/SEGGER_RTT_V792h/RTT/SEGGER_RTT_printf.c **** *
 473:../Public/debuglog/SEGGER_RTT_V792h/RTT/SEGGER_RTT_printf.c **** *  Parameters
 474:../Public/debuglog/SEGGER_RTT_V792h/RTT/SEGGER_RTT_printf.c **** *    BufferIndex  Index of "Up"-buffer to be used. (e.g. 0 for "Terminal")
 475:../Public/debuglog/SEGGER_RTT_V792h/RTT/SEGGER_RTT_printf.c **** *    sFormat      Pointer to format string, followed by the arguments for conversion
 476:../Public/debuglog/SEGGER_RTT_V792h/RTT/SEGGER_RTT_printf.c **** *
 477:../Public/debuglog/SEGGER_RTT_V792h/RTT/SEGGER_RTT_printf.c **** *  Return values
 478:../Public/debuglog/SEGGER_RTT_V792h/RTT/SEGGER_RTT_printf.c **** *    >= 0:  Number of bytes which have been stored in the "Up"-buffer.
 479:../Public/debuglog/SEGGER_RTT_V792h/RTT/SEGGER_RTT_printf.c **** *     < 0:  Error
 480:../Public/debuglog/SEGGER_RTT_V792h/RTT/SEGGER_RTT_printf.c **** *
 481:../Public/debuglog/SEGGER_RTT_V792h/RTT/SEGGER_RTT_printf.c **** *  Notes
 482:../Public/debuglog/SEGGER_RTT_V792h/RTT/SEGGER_RTT_printf.c **** *    (1) Conversion specifications have following syntax:
 483:../Public/debuglog/SEGGER_RTT_V792h/RTT/SEGGER_RTT_printf.c **** *          %[flags][FieldWidth][.Precision]ConversionSpecifier
 484:../Public/debuglog/SEGGER_RTT_V792h/RTT/SEGGER_RTT_printf.c **** *    (2) Supported flags:
 485:../Public/debuglog/SEGGER_RTT_V792h/RTT/SEGGER_RTT_printf.c **** *          -: Left justify within the field width
 486:../Public/debuglog/SEGGER_RTT_V792h/RTT/SEGGER_RTT_printf.c **** *          +: Always print sign extension for signed conversions
 487:../Public/debuglog/SEGGER_RTT_V792h/RTT/SEGGER_RTT_printf.c **** *          0: Pad with 0 instead of spaces. Ignored when using '-'-flag or precision
 488:../Public/debuglog/SEGGER_RTT_V792h/RTT/SEGGER_RTT_printf.c **** *        Supported conversion specifiers:
 489:../Public/debuglog/SEGGER_RTT_V792h/RTT/SEGGER_RTT_printf.c **** *          c: Print the argument as one char
 490:../Public/debuglog/SEGGER_RTT_V792h/RTT/SEGGER_RTT_printf.c **** *          d: Print the argument as a signed integer
 491:../Public/debuglog/SEGGER_RTT_V792h/RTT/SEGGER_RTT_printf.c **** *          u: Print the argument as an unsigned integer
ARM GAS  C:\Users\zhangge\AppData\Local\Temp\ccknIKf0.s 			page 32


 492:../Public/debuglog/SEGGER_RTT_V792h/RTT/SEGGER_RTT_printf.c **** *          x: Print the argument as an hexadecimal integer
 493:../Public/debuglog/SEGGER_RTT_V792h/RTT/SEGGER_RTT_printf.c **** *          s: Print the string pointed to by the argument
 494:../Public/debuglog/SEGGER_RTT_V792h/RTT/SEGGER_RTT_printf.c **** *          p: Print the argument as an 8-digit hexadecimal integer. (Argument shall be a pointer to
 495:../Public/debuglog/SEGGER_RTT_V792h/RTT/SEGGER_RTT_printf.c **** */
 496:../Public/debuglog/SEGGER_RTT_V792h/RTT/SEGGER_RTT_printf.c **** int SEGGER_RTT_printf(unsigned BufferIndex, const char * sFormat, ...) {
 1137              		.loc 1 496 72 view -0
 1138              		.cfi_startproc
 1139              		@ args = 4, pretend = 12, frame = 8
 1140              		@ frame_needed = 0, uses_anonymous_args = 1
 1141              		.loc 1 496 72 is_stmt 0 view .LVU371
 1142 0000 0EB4     		push	{r1, r2, r3}
 1143              	.LCFI10:
 1144              		.cfi_def_cfa_offset 12
 1145              		.cfi_offset 1, -12
 1146              		.cfi_offset 2, -8
 1147              		.cfi_offset 3, -4
 1148 0002 00B5     		push	{lr}
 1149              	.LCFI11:
 1150              		.cfi_def_cfa_offset 16
 1151              		.cfi_offset 14, -16
 1152 0004 82B0     		sub	sp, sp, #8
 1153              	.LCFI12:
 1154              		.cfi_def_cfa_offset 24
 1155 0006 03AB     		add	r3, sp, #12
 1156 0008 53F8041B 		ldr	r1, [r3], #4
 497:../Public/debuglog/SEGGER_RTT_V792h/RTT/SEGGER_RTT_printf.c ****   int r;
 1157              		.loc 1 497 3 is_stmt 1 view .LVU372
 498:../Public/debuglog/SEGGER_RTT_V792h/RTT/SEGGER_RTT_printf.c ****   va_list ParamList;
 1158              		.loc 1 498 3 view .LVU373
 499:../Public/debuglog/SEGGER_RTT_V792h/RTT/SEGGER_RTT_printf.c **** 
 500:../Public/debuglog/SEGGER_RTT_V792h/RTT/SEGGER_RTT_printf.c ****   va_start(ParamList, sFormat);
 1159              		.loc 1 500 3 view .LVU374
 1160 000c 0193     		str	r3, [sp, #4]
 501:../Public/debuglog/SEGGER_RTT_V792h/RTT/SEGGER_RTT_printf.c ****   r = SEGGER_RTT_vprintf(BufferIndex, sFormat, &ParamList);
 1161              		.loc 1 501 3 view .LVU375
 1162              		.loc 1 501 7 is_stmt 0 view .LVU376
 1163 000e 01AA     		add	r2, sp, #4
 1164 0010 FFF7FEFF 		bl	SEGGER_RTT_vprintf
 1165              	.LVL124:
 502:../Public/debuglog/SEGGER_RTT_V792h/RTT/SEGGER_RTT_printf.c ****   va_end(ParamList);
 1166              		.loc 1 502 3 is_stmt 1 view .LVU377
 503:../Public/debuglog/SEGGER_RTT_V792h/RTT/SEGGER_RTT_printf.c ****   return r;
 1167              		.loc 1 503 3 view .LVU378
 504:../Public/debuglog/SEGGER_RTT_V792h/RTT/SEGGER_RTT_printf.c **** }
 1168              		.loc 1 504 1 is_stmt 0 view .LVU379
 1169 0014 02B0     		add	sp, sp, #8
 1170              	.LCFI13:
 1171              		.cfi_def_cfa_offset 16
 1172              		@ sp needed
 1173 0016 5DF804EB 		ldr	lr, [sp], #4
 1174              	.LCFI14:
 1175              		.cfi_restore 14
 1176              		.cfi_def_cfa_offset 12
 1177 001a 03B0     		add	sp, sp, #12
 1178              	.LCFI15:
 1179              		.cfi_restore 3
 1180              		.cfi_restore 2
ARM GAS  C:\Users\zhangge\AppData\Local\Temp\ccknIKf0.s 			page 33


 1181              		.cfi_restore 1
 1182              		.cfi_def_cfa_offset 0
 1183 001c 7047     		bx	lr
 1184              		.cfi_endproc
 1185              	.LFE4:
 1187              		.section	.rodata._aV2C.0,"a"
 1188              		.align	2
 1189              		.set	.LANCHOR0,. + 0
 1192              	_aV2C.0:
 1193 0000 30313233 		.ascii	"0123456789ABCDEF"
 1193      34353637 
 1193      38394142 
 1193      43444546 
 1194              		.text
 1195              	.Letext0:
 1196              		.file 2 "d:\\program files\\gcc-arm-none-eabi-10.3-2021.10\\lib\\gcc\\arm-none-eabi\\10.3.1\\inclu
 1197              		.file 3 "<built-in>"
 1198              		.file 4 "../Public/debuglog/SEGGER_RTT_V792h/RTT/SEGGER_RTT.h"
ARM GAS  C:\Users\zhangge\AppData\Local\Temp\ccknIKf0.s 			page 34

