ARM GAS  C:\Users\57308\AppData\Local\Temp\ccTYDaJN.s 			page 1


   1              		.cpu cortex-m4
   2              		.arch armv7e-m
   3              		.fpu fpv4-sp-d16
   4              		.eabi_attribute 27, 1
   5              		.eabi_attribute 28, 1
   6              		.eabi_attribute 20, 1
   7              		.eabi_attribute 21, 1
   8              		.eabi_attribute 23, 3
   9              		.eabi_attribute 24, 1
  10              		.eabi_attribute 25, 1
  11              		.eabi_attribute 26, 1
  12              		.eabi_attribute 30, 1
  13              		.eabi_attribute 34, 1
  14              		.eabi_attribute 18, 4
  15              		.file	"sensor.c"
  16              		.text
  17              	.Ltext0:
  18              		.cfi_sections	.debug_frame
  19              		.section	.text.sensor_register,"ax",%progbits
  20              		.align	1
  21              		.global	sensor_register
  22              		.syntax unified
  23              		.thumb
  24              		.thumb_func
  26              	sensor_register:
  27              	.LVL0:
  28              	.LFB0:
  29              		.file 1 "../Sensor/sensor.c"
   1:../Sensor/sensor.c **** #include "sensor.h"
   2:../Sensor/sensor.c **** 
   3:../Sensor/sensor.c **** #undef  NULL
   4:../Sensor/sensor.c **** #define NULL 0
   5:../Sensor/sensor.c **** #define SENSORE_PERCI            (1)
   6:../Sensor/sensor.c **** 
   7:../Sensor/sensor.c **** static float g_filtedata_arry[SENSOR_NUMBER + 1];        //ä¼ æ„Ÿå™¨æ»¤æ³¢çš„æ•°æ®
   8:../Sensor/sensor.c **** static sensor_data_t g_data_arry[SENSOR_NUMBER + 1];     //ä¼ æ„Ÿå™¨æ•°æ®
   9:../Sensor/sensor.c **** 
  10:../Sensor/sensor.c **** static sensor_t g_sensor_arry[SENSOR_NUMBER + 1];
  11:../Sensor/sensor.c **** 
  12:../Sensor/sensor.c **** void sensor_register(sensor_t *this,ENUM_SENSOR index)
  13:../Sensor/sensor.c **** {
  30              		.loc 1 13 1 view -0
  31              		.cfi_startproc
  32              		@ args = 0, pretend = 0, frame = 0
  33              		@ frame_needed = 0, uses_anonymous_args = 0
  34              		@ link register save eliminated.
  14:../Sensor/sensor.c ****     if (index > SENSOR_NUMBER || index <= SENSOR_NONE)
  35              		.loc 1 14 5 view .LVU1
  36              		.loc 1 14 31 is_stmt 0 view .LVU2
  37 0000 CBB2     		uxtb	r3, r1
  38              		.loc 1 14 8 view .LVU3
  39 0002 022B     		cmp	r3, #2
  40 0004 05D8     		bhi	.L1
  15:../Sensor/sensor.c ****     {
  16:../Sensor/sensor.c ****         return;//æ³¨å†Œå¤±è´¥
  17:../Sensor/sensor.c ****     }
  18:../Sensor/sensor.c **** 
ARM GAS  C:\Users\57308\AppData\Local\Temp\ccTYDaJN.s 			page 2


  19:../Sensor/sensor.c ****     g_sensor_arry[index] = *this;
  41              		.loc 1 19 5 is_stmt 1 view .LVU4
  42              		.loc 1 19 26 is_stmt 0 view .LVU5
  43 0006 034B     		ldr	r3, .L3
  44 0008 03EB011C 		add	ip, r3, r1, lsl #4
  45 000c 0FC8     		ldm	r0, {r0, r1, r2, r3}
  46              	.LVL1:
  47              		.loc 1 19 26 view .LVU6
  48 000e 8CE80F00 		stm	ip, {r0, r1, r2, r3}
  49              	.L1:
  20:../Sensor/sensor.c **** }
  50              		.loc 1 20 1 view .LVU7
  51 0012 7047     		bx	lr
  52              	.L4:
  53              		.align	2
  54              	.L3:
  55 0014 00000000 		.word	.LANCHOR0
  56              		.cfi_endproc
  57              	.LFE0:
  59              		.section	.text.sensor_process,"ax",%progbits
  60              		.align	1
  61              		.global	sensor_process
  62              		.syntax unified
  63              		.thumb
  64              		.thumb_func
  66              	sensor_process:
  67              	.LFB1:
  21:../Sensor/sensor.c **** 
  22:../Sensor/sensor.c **** enum{
  23:../Sensor/sensor.c ****     SENSOR_INIT,
  24:../Sensor/sensor.c ****     SENSOR_IDLE,
  25:../Sensor/sensor.c ****     SENSOR_OPEN,
  26:../Sensor/sensor.c ****     SENSOR_UPDATE,
  27:../Sensor/sensor.c ****     SENSOR_CLOSE,
  28:../Sensor/sensor.c **** };
  29:../Sensor/sensor.c **** typedef struct
  30:../Sensor/sensor.c **** {
  31:../Sensor/sensor.c ****     unsigned int tim;
  32:../Sensor/sensor.c ****     unsigned char state;
  33:../Sensor/sensor.c **** }sensor_arry_t;
  34:../Sensor/sensor.c **** 
  35:../Sensor/sensor.c **** sensor_arry_t g_sensor = {
  36:../Sensor/sensor.c ****     .tim = 0,
  37:../Sensor/sensor.c ****     .state = SENSOR_INIT,
  38:../Sensor/sensor.c **** };
  39:../Sensor/sensor.c **** /*-------------åˆå§‹åŒ–ã€æ›´æ–°ä¼ æ„Ÿå™¨ç»„----------------*/
  40:../Sensor/sensor.c **** void sensor_process(void)
  41:../Sensor/sensor.c **** {
  68              		.loc 1 41 1 is_stmt 1 view -0
  69              		.cfi_startproc
  70              		@ args = 0, pretend = 0, frame = 0
  71              		@ frame_needed = 0, uses_anonymous_args = 0
  72 0000 38B5     		push	{r3, r4, r5, lr}
  73              	.LCFI0:
  74              		.cfi_def_cfa_offset 16
  75              		.cfi_offset 3, -16
  76              		.cfi_offset 4, -12
ARM GAS  C:\Users\57308\AppData\Local\Temp\ccTYDaJN.s 			page 3


  77              		.cfi_offset 5, -8
  78              		.cfi_offset 14, -4
  42:../Sensor/sensor.c ****     switch (g_sensor.state)
  79              		.loc 1 42 5 view .LVU9
  80              		.loc 1 42 21 is_stmt 0 view .LVU10
  81 0002 1E4B     		ldr	r3, .L17
  82 0004 1B79     		ldrb	r3, [r3, #4]	@ zero_extendqisi2
  83              		.loc 1 42 5 view .LVU11
  84 0006 73B1     		cbz	r3, .L14
  85 0008 032B     		cmp	r3, #3
  86 000a 12D0     		beq	.L7
  87              	.L5:
  43:../Sensor/sensor.c ****     {
  44:../Sensor/sensor.c ****     case SENSOR_INIT:
  45:../Sensor/sensor.c ****         for (ENUM_SENSOR sensor_id = 0; sensor_id < SENSOR_NUMBER; sensor_id++) //éåŽ†æ•´ä¸ªä¼ æ„
  46:../Sensor/sensor.c ****         {
  47:../Sensor/sensor.c ****             if (!g_sensor_arry[sensor_id].pf_init)
  48:../Sensor/sensor.c ****             {
  49:../Sensor/sensor.c ****                 continue;
  50:../Sensor/sensor.c ****             }
  51:../Sensor/sensor.c ****             g_sensor_arry[sensor_id].pf_init();
  52:../Sensor/sensor.c ****         }
  53:../Sensor/sensor.c ****         g_sensor.state = SENSOR_UPDATE;
  54:../Sensor/sensor.c ****         break;
  55:../Sensor/sensor.c ****     case SENSOR_UPDATE:
  56:../Sensor/sensor.c ****         g_sensor.tim++;
  57:../Sensor/sensor.c ****         for (ENUM_SENSOR sensor_id = 0; sensor_id < SENSOR_NUMBER; sensor_id++) //éåŽ†æ•´ä¸ªä¼ æ„
  58:../Sensor/sensor.c ****         {
  59:../Sensor/sensor.c ****             if (!g_sensor_arry[sensor_id].pf_read || !g_sensor_arry[sensor_id].cycle)
  60:../Sensor/sensor.c ****             {
  61:../Sensor/sensor.c ****                 continue;
  62:../Sensor/sensor.c ****             }
  63:../Sensor/sensor.c ****             /*----æ›´æ–°å‘¨æœŸæ˜¯å¦æ»¡è¶³----*/
  64:../Sensor/sensor.c ****             if (!(g_sensor.tim % g_sensor_arry[sensor_id].cycle))
  65:../Sensor/sensor.c ****             {
  66:../Sensor/sensor.c ****                 g_data_arry[sensor_id] = *(sensor_data_t *)g_sensor_arry[sensor_id].pf_read();
  67:../Sensor/sensor.c ****                 // USER_DEBUG_NORMAL("data %d %d\r\n",g_data_arry[sensor_id].raw_buf[2],\    
  68:../Sensor/sensor.c ****                 //                                     (int)(g_data_arry[sensor_id].covdata_buf[2])
  69:../Sensor/sensor.c ****             }
  70:../Sensor/sensor.c ****             /*----æ˜¯å¦æ»¤æ³¢----*/
  71:../Sensor/sensor.c ****         }
  72:../Sensor/sensor.c ****         break;    
  73:../Sensor/sensor.c ****     default:
  74:../Sensor/sensor.c ****         break;
  75:../Sensor/sensor.c ****     }
  76:../Sensor/sensor.c **** }
  88              		.loc 1 76 1 view .LVU12
  89 000c 38BD     		pop	{r3, r4, r5, pc}
  90              	.LVL2:
  91              	.L9:
  92              	.LBB2:
  45:../Sensor/sensor.c ****         {
  93              		.loc 1 45 68 is_stmt 1 discriminator 2 view .LVU13
  45:../Sensor/sensor.c ****         {
  94              		.loc 1 45 77 is_stmt 0 discriminator 2 view .LVU14
  95 000e 0134     		adds	r4, r4, #1
  96              	.LVL3:
ARM GAS  C:\Users\57308\AppData\Local\Temp\ccTYDaJN.s 			page 4


  45:../Sensor/sensor.c ****         {
  97              		.loc 1 45 77 discriminator 2 view .LVU15
  98 0010 64B2     		sxtb	r4, r4
  99              	.LVL4:
 100              	.L6:
  45:../Sensor/sensor.c ****         {
 101              		.loc 1 45 41 is_stmt 1 discriminator 1 view .LVU16
  45:../Sensor/sensor.c ****         {
 102              		.loc 1 45 9 is_stmt 0 discriminator 1 view .LVU17
 103 0012 012C     		cmp	r4, #1
 104 0014 09DC     		bgt	.L16
  47:../Sensor/sensor.c ****             {
 105              		.loc 1 47 13 is_stmt 1 view .LVU18
  47:../Sensor/sensor.c ****             {
 106              		.loc 1 47 42 is_stmt 0 view .LVU19
 107 0016 1A4B     		ldr	r3, .L17+4
 108 0018 03EB0413 		add	r3, r3, r4, lsl #4
 109 001c DB68     		ldr	r3, [r3, #12]
  47:../Sensor/sensor.c ****             {
 110              		.loc 1 47 16 view .LVU20
 111 001e 002B     		cmp	r3, #0
 112 0020 F5D0     		beq	.L9
  51:../Sensor/sensor.c ****         }
 113              		.loc 1 51 13 is_stmt 1 view .LVU21
 114 0022 9847     		blx	r3
 115              	.LVL5:
 116 0024 F3E7     		b	.L9
 117              	.LVL6:
 118              	.L14:
  51:../Sensor/sensor.c ****         }
 119              		.loc 1 51 13 is_stmt 0 view .LVU22
 120              	.LBE2:
  42:../Sensor/sensor.c ****     {
 121              		.loc 1 42 5 view .LVU23
 122 0026 0024     		movs	r4, #0
 123 0028 F3E7     		b	.L6
 124              	.LVL7:
 125              	.L16:
  53:../Sensor/sensor.c ****         break;
 126              		.loc 1 53 9 is_stmt 1 view .LVU24
  53:../Sensor/sensor.c ****         break;
 127              		.loc 1 53 24 is_stmt 0 view .LVU25
 128 002a 144B     		ldr	r3, .L17
 129 002c 0322     		movs	r2, #3
 130 002e 1A71     		strb	r2, [r3, #4]
  54:../Sensor/sensor.c ****     case SENSOR_UPDATE:
 131              		.loc 1 54 9 is_stmt 1 view .LVU26
 132 0030 ECE7     		b	.L5
 133              	.LVL8:
 134              	.L7:
  56:../Sensor/sensor.c ****         for (ENUM_SENSOR sensor_id = 0; sensor_id < SENSOR_NUMBER; sensor_id++) //éåŽ†æ•´ä¸ªä¼ æ„
 135              		.loc 1 56 9 view .LVU27
  56:../Sensor/sensor.c ****         for (ENUM_SENSOR sensor_id = 0; sensor_id < SENSOR_NUMBER; sensor_id++) //éåŽ†æ•´ä¸ªä¼ æ„
 136              		.loc 1 56 17 is_stmt 0 view .LVU28
 137 0032 124A     		ldr	r2, .L17
 138 0034 1368     		ldr	r3, [r2]
  56:../Sensor/sensor.c ****         for (ENUM_SENSOR sensor_id = 0; sensor_id < SENSOR_NUMBER; sensor_id++) //éåŽ†æ•´ä¸ªä¼ æ„
ARM GAS  C:\Users\57308\AppData\Local\Temp\ccTYDaJN.s 			page 5


 139              		.loc 1 56 21 view .LVU29
 140 0036 0133     		adds	r3, r3, #1
 141 0038 1360     		str	r3, [r2]
  57:../Sensor/sensor.c ****         {
 142              		.loc 1 57 9 is_stmt 1 view .LVU30
 143              	.LBB3:
  57:../Sensor/sensor.c ****         {
 144              		.loc 1 57 14 view .LVU31
 145              	.LVL9:
  57:../Sensor/sensor.c ****         {
 146              		.loc 1 57 26 is_stmt 0 view .LVU32
 147 003a 0024     		movs	r4, #0
  57:../Sensor/sensor.c ****         {
 148              		.loc 1 57 9 view .LVU33
 149 003c 01E0     		b	.L11
 150              	.LVL10:
 151              	.L12:
  57:../Sensor/sensor.c ****         {
 152              		.loc 1 57 68 is_stmt 1 discriminator 2 view .LVU34
  57:../Sensor/sensor.c ****         {
 153              		.loc 1 57 77 is_stmt 0 discriminator 2 view .LVU35
 154 003e 0134     		adds	r4, r4, #1
 155              	.LVL11:
  57:../Sensor/sensor.c ****         {
 156              		.loc 1 57 77 discriminator 2 view .LVU36
 157 0040 64B2     		sxtb	r4, r4
 158              	.LVL12:
 159              	.L11:
  57:../Sensor/sensor.c ****         {
 160              		.loc 1 57 41 is_stmt 1 discriminator 1 view .LVU37
  57:../Sensor/sensor.c ****         {
 161              		.loc 1 57 9 is_stmt 0 discriminator 1 view .LVU38
 162 0042 012C     		cmp	r4, #1
 163 0044 E2DC     		bgt	.L5
  59:../Sensor/sensor.c ****             {
 164              		.loc 1 59 13 is_stmt 1 view .LVU39
  59:../Sensor/sensor.c ****             {
 165              		.loc 1 59 42 is_stmt 0 view .LVU40
 166 0046 0E4B     		ldr	r3, .L17+4
 167 0048 03EB0413 		add	r3, r3, r4, lsl #4
 168 004c 5968     		ldr	r1, [r3, #4]
  59:../Sensor/sensor.c ****             {
 169              		.loc 1 59 16 view .LVU41
 170 004e 0029     		cmp	r1, #0
 171 0050 F5D0     		beq	.L12
  59:../Sensor/sensor.c ****             {
 172              		.loc 1 59 79 discriminator 1 view .LVU42
 173 0052 2301     		lsls	r3, r4, #4
 174 0054 0A4A     		ldr	r2, .L17+4
 175 0056 D25A     		ldrh	r2, [r2, r3]
  59:../Sensor/sensor.c ****             {
 176              		.loc 1 59 51 discriminator 1 view .LVU43
 177 0058 002A     		cmp	r2, #0
 178 005a F0D0     		beq	.L12
  64:../Sensor/sensor.c ****             {
 179              		.loc 1 64 13 is_stmt 1 view .LVU44
  64:../Sensor/sensor.c ****             {
ARM GAS  C:\Users\57308\AppData\Local\Temp\ccTYDaJN.s 			page 6


 180              		.loc 1 64 27 is_stmt 0 view .LVU45
 181 005c 074B     		ldr	r3, .L17
 182 005e 1B68     		ldr	r3, [r3]
  64:../Sensor/sensor.c ****             {
 183              		.loc 1 64 32 view .LVU46
 184 0060 B3FBF2F0 		udiv	r0, r3, r2
 185 0064 02FB1033 		mls	r3, r2, r0, r3
  64:../Sensor/sensor.c ****             {
 186              		.loc 1 64 16 view .LVU47
 187 0068 002B     		cmp	r3, #0
 188 006a E8D1     		bne	.L12
  66:../Sensor/sensor.c ****                 // USER_DEBUG_NORMAL("data %d %d\r\n",g_data_arry[sensor_id].raw_buf[2],\    
 189              		.loc 1 66 17 is_stmt 1 view .LVU48
  66:../Sensor/sensor.c ****                 // USER_DEBUG_NORMAL("data %d %d\r\n",g_data_arry[sensor_id].raw_buf[2],\    
 190              		.loc 1 66 60 is_stmt 0 view .LVU49
 191 006c 8847     		blx	r1
 192              	.LVL13:
  66:../Sensor/sensor.c ****                 // USER_DEBUG_NORMAL("data %d %d\r\n",g_data_arry[sensor_id].raw_buf[2],\    
 193              		.loc 1 66 40 view .LVU50
 194 006e 054B     		ldr	r3, .L17+8
 195 0070 03EB0415 		add	r5, r3, r4, lsl #4
 196 0074 0FC8     		ldm	r0, {r0, r1, r2, r3}
 197 0076 85E80F00 		stm	r5, {r0, r1, r2, r3}
 198 007a E0E7     		b	.L12
 199              	.L18:
 200              		.align	2
 201              	.L17:
 202 007c 00000000 		.word	.LANCHOR1
 203 0080 00000000 		.word	.LANCHOR0
 204 0084 00000000 		.word	.LANCHOR2
 205              	.LBE3:
 206              		.cfi_endproc
 207              	.LFE1:
 209              		.section	.text.sensor_user_read,"ax",%progbits
 210              		.align	1
 211              		.global	sensor_user_read
 212              		.syntax unified
 213              		.thumb
 214              		.thumb_func
 216              	sensor_user_read:
 217              	.LVL14:
 218              	.LFB2:
  77:../Sensor/sensor.c **** 
  78:../Sensor/sensor.c **** /*-------------ç”¨æˆ·è¯»å–æŒ‡å®šä¼ æ„Ÿå™¨-----------*/
  79:../Sensor/sensor.c **** void* sensor_user_read(ENUM_SENSOR sensor_id)
  80:../Sensor/sensor.c **** {
 219              		.loc 1 80 1 is_stmt 1 view -0
 220              		.cfi_startproc
 221              		@ args = 0, pretend = 0, frame = 0
 222              		@ frame_needed = 0, uses_anonymous_args = 0
  81:../Sensor/sensor.c ****     static volatile sensor_data_t rawdata;
 223              		.loc 1 81 5 view .LVU52
  82:../Sensor/sensor.c ****     if (sensor_id <= SENSOR_NONE || sensor_id > SENSOR_NUMBER)
 224              		.loc 1 82 5 view .LVU53
 225              		.loc 1 82 34 is_stmt 0 view .LVU54
 226 0000 C3B2     		uxtb	r3, r0
 227              		.loc 1 82 8 view .LVU55
ARM GAS  C:\Users\57308\AppData\Local\Temp\ccTYDaJN.s 			page 7


 228 0002 022B     		cmp	r3, #2
 229 0004 17D8     		bhi	.L22
  80:../Sensor/sensor.c ****     static volatile sensor_data_t rawdata;
 230              		.loc 1 80 1 view .LVU56
 231 0006 10B5     		push	{r4, lr}
 232              	.LCFI1:
 233              		.cfi_def_cfa_offset 8
 234              		.cfi_offset 4, -8
 235              		.cfi_offset 14, -4
  83:../Sensor/sensor.c ****     {
  84:../Sensor/sensor.c ****         return 0;
  85:../Sensor/sensor.c ****     }
  86:../Sensor/sensor.c ****     sensor_t *pcursensor;
 236              		.loc 1 86 5 is_stmt 1 view .LVU57
  87:../Sensor/sensor.c ****     pcursensor = &g_sensor_arry[sensor_id];
 237              		.loc 1 87 5 view .LVU58
 238              	.LVL15:
  88:../Sensor/sensor.c **** 
  89:../Sensor/sensor.c ****     if (!pcursensor->cycle)
 239              		.loc 1 89 5 view .LVU59
 240              		.loc 1 89 20 is_stmt 0 view .LVU60
 241 0008 0301     		lsls	r3, r0, #4
 242 000a 0C4A     		ldr	r2, .L27
 243 000c D35A     		ldrh	r3, [r2, r3]
 244              		.loc 1 89 8 view .LVU61
 245 000e 4BB9     		cbnz	r3, .L21
  90:../Sensor/sensor.c ****     {
  91:../Sensor/sensor.c ****         rawdata = *(sensor_data_t *)pcursensor->pf_read();
 246              		.loc 1 91 9 is_stmt 1 view .LVU62
 247              		.loc 1 91 47 is_stmt 0 view .LVU63
 248 0010 02EB0010 		add	r0, r2, r0, lsl #4
 249              	.LVL16:
 250              		.loc 1 91 47 view .LVU64
 251 0014 4368     		ldr	r3, [r0, #4]
 252              		.loc 1 91 37 view .LVU65
 253 0016 9847     		blx	r3
 254              	.LVL17:
 255              		.loc 1 91 17 view .LVU66
 256 0018 094C     		ldr	r4, .L27+4
 257 001a 0FC8     		ldm	r0, {r0, r1, r2, r3}
 258 001c 84E80F00 		stm	r4, {r0, r1, r2, r3}
  92:../Sensor/sensor.c ****     }else{
  93:../Sensor/sensor.c ****         rawdata = g_data_arry[sensor_id];        
  94:../Sensor/sensor.c ****     }
  95:../Sensor/sensor.c ****     return &rawdata;
 259              		.loc 1 95 12 view .LVU67
 260 0020 2046     		mov	r0, r4
 261              	.L19:
  96:../Sensor/sensor.c **** }
 262              		.loc 1 96 1 view .LVU68
 263 0022 10BD     		pop	{r4, pc}
 264              	.LVL18:
 265              	.L21:
  93:../Sensor/sensor.c ****     }
 266              		.loc 1 93 9 is_stmt 1 view .LVU69
  93:../Sensor/sensor.c ****     }
 267              		.loc 1 93 17 is_stmt 0 view .LVU70
ARM GAS  C:\Users\57308\AppData\Local\Temp\ccTYDaJN.s 			page 8


 268 0024 064C     		ldr	r4, .L27+4
 269 0026 074B     		ldr	r3, .L27+8
 270 0028 03EB0010 		add	r0, r3, r0, lsl #4
 271              	.LVL19:
  93:../Sensor/sensor.c ****     }
 272              		.loc 1 93 17 view .LVU71
 273 002c 0FC8     		ldm	r0, {r0, r1, r2, r3}
 274 002e 84E80F00 		stm	r4, {r0, r1, r2, r3}
  95:../Sensor/sensor.c **** }
 275              		.loc 1 95 12 view .LVU72
 276 0032 2046     		mov	r0, r4
 277 0034 F5E7     		b	.L19
 278              	.LVL20:
 279              	.L22:
 280              	.LCFI2:
 281              		.cfi_def_cfa_offset 0
 282              		.cfi_restore 4
 283              		.cfi_restore 14
  84:../Sensor/sensor.c ****     }
 284              		.loc 1 84 16 view .LVU73
 285 0036 0020     		movs	r0, #0
 286              	.LVL21:
 287              		.loc 1 96 1 view .LVU74
 288 0038 7047     		bx	lr
 289              	.L28:
 290 003a 00BF     		.align	2
 291              	.L27:
 292 003c 00000000 		.word	.LANCHOR0
 293 0040 00000000 		.word	.LANCHOR3
 294 0044 00000000 		.word	.LANCHOR2
 295              		.cfi_endproc
 296              	.LFE2:
 298              		.section	.text.sensor_user_write,"ax",%progbits
 299              		.align	1
 300              		.global	sensor_user_write
 301              		.syntax unified
 302              		.thumb
 303              		.thumb_func
 305              	sensor_user_write:
 306              	.LVL22:
 307              	.LFB3:
  97:../Sensor/sensor.c **** 
  98:../Sensor/sensor.c **** void* sensor_user_write(ENUM_SENSOR sensor_id,int8_t *pdata,uint16_t size)
  99:../Sensor/sensor.c **** {
 308              		.loc 1 99 1 is_stmt 1 view -0
 309              		.cfi_startproc
 310              		@ args = 0, pretend = 0, frame = 0
 311              		@ frame_needed = 0, uses_anonymous_args = 0
 312              		@ link register save eliminated.
 100:../Sensor/sensor.c **** 
 101:../Sensor/sensor.c **** }
 313              		.loc 1 101 1 view .LVU76
 314              	.LVL23:
 315              		.loc 1 101 1 is_stmt 0 view .LVU77
 316 0000 7047     		bx	lr
 317              		.cfi_endproc
 318              	.LFE3:
ARM GAS  C:\Users\57308\AppData\Local\Temp\ccTYDaJN.s 			page 9


 320              		.section	.text.sensor_user_pause,"ax",%progbits
 321              		.align	1
 322              		.global	sensor_user_pause
 323              		.syntax unified
 324              		.thumb
 325              		.thumb_func
 327              	sensor_user_pause:
 328              	.LVL24:
 329              	.LFB4:
 102:../Sensor/sensor.c **** 
 103:../Sensor/sensor.c **** void sensor_user_pause(ENUM_SENSOR sensor_id)
 104:../Sensor/sensor.c **** {
 330              		.loc 1 104 1 is_stmt 1 view -0
 331              		.cfi_startproc
 332              		@ args = 0, pretend = 0, frame = 0
 333              		@ frame_needed = 0, uses_anonymous_args = 0
 334              		@ link register save eliminated.
 105:../Sensor/sensor.c **** 
 106:../Sensor/sensor.c **** }
 335              		.loc 1 106 1 view .LVU79
 336 0000 7047     		bx	lr
 337              		.cfi_endproc
 338              	.LFE4:
 340              		.global	g_sensor
 341              		.section	.bss.g_data_arry,"aw",%nobits
 342              		.align	2
 343              		.set	.LANCHOR2,. + 0
 346              	g_data_arry:
 347 0000 00000000 		.space	48
 347      00000000 
 347      00000000 
 347      00000000 
 347      00000000 
 348              		.section	.bss.g_sensor,"aw",%nobits
 349              		.align	2
 350              		.set	.LANCHOR1,. + 0
 353              	g_sensor:
 354 0000 00000000 		.space	8
 354      00000000 
 355              		.section	.bss.g_sensor_arry,"aw",%nobits
 356              		.align	2
 357              		.set	.LANCHOR0,. + 0
 360              	g_sensor_arry:
 361 0000 00000000 		.space	48
 361      00000000 
 361      00000000 
 361      00000000 
 361      00000000 
 362              		.section	.bss.rawdata.0,"aw",%nobits
 363              		.align	2
 364              		.set	.LANCHOR3,. + 0
 367              	rawdata.0:
 368 0000 00000000 		.space	16
 368      00000000 
 368      00000000 
 368      00000000 
 369              		.text
ARM GAS  C:\Users\57308\AppData\Local\Temp\ccTYDaJN.s 			page 10


 370              	.Letext0:
 371              		.file 2 "./Board/board.h"
 372              		.file 3 "d:\\program files\\gcc-arm-none-eabi-10.3-2021.10\\arm-none-eabi\\include\\machine\\_defa
 373              		.file 4 "d:\\program files\\gcc-arm-none-eabi-10.3-2021.10\\arm-none-eabi\\include\\sys\\_stdint.h
 374              		.file 5 "../Sensor/sensor.h"
ARM GAS  C:\Users\57308\AppData\Local\Temp\ccTYDaJN.s 			page 11


DEFINED SYMBOLS
                            *ABS*:00000000 sensor.c
C:\Users\57308\AppData\Local\Temp\ccTYDaJN.s:20     .text.sensor_register:00000000 $t
C:\Users\57308\AppData\Local\Temp\ccTYDaJN.s:26     .text.sensor_register:00000000 sensor_register
C:\Users\57308\AppData\Local\Temp\ccTYDaJN.s:55     .text.sensor_register:00000014 $d
C:\Users\57308\AppData\Local\Temp\ccTYDaJN.s:60     .text.sensor_process:00000000 $t
C:\Users\57308\AppData\Local\Temp\ccTYDaJN.s:66     .text.sensor_process:00000000 sensor_process
C:\Users\57308\AppData\Local\Temp\ccTYDaJN.s:202    .text.sensor_process:0000007c $d
C:\Users\57308\AppData\Local\Temp\ccTYDaJN.s:210    .text.sensor_user_read:00000000 $t
C:\Users\57308\AppData\Local\Temp\ccTYDaJN.s:216    .text.sensor_user_read:00000000 sensor_user_read
C:\Users\57308\AppData\Local\Temp\ccTYDaJN.s:292    .text.sensor_user_read:0000003c $d
C:\Users\57308\AppData\Local\Temp\ccTYDaJN.s:299    .text.sensor_user_write:00000000 $t
C:\Users\57308\AppData\Local\Temp\ccTYDaJN.s:305    .text.sensor_user_write:00000000 sensor_user_write
C:\Users\57308\AppData\Local\Temp\ccTYDaJN.s:321    .text.sensor_user_pause:00000000 $t
C:\Users\57308\AppData\Local\Temp\ccTYDaJN.s:327    .text.sensor_user_pause:00000000 sensor_user_pause
C:\Users\57308\AppData\Local\Temp\ccTYDaJN.s:353    .bss.g_sensor:00000000 g_sensor
C:\Users\57308\AppData\Local\Temp\ccTYDaJN.s:342    .bss.g_data_arry:00000000 $d
C:\Users\57308\AppData\Local\Temp\ccTYDaJN.s:346    .bss.g_data_arry:00000000 g_data_arry
C:\Users\57308\AppData\Local\Temp\ccTYDaJN.s:349    .bss.g_sensor:00000000 $d
C:\Users\57308\AppData\Local\Temp\ccTYDaJN.s:356    .bss.g_sensor_arry:00000000 $d
C:\Users\57308\AppData\Local\Temp\ccTYDaJN.s:360    .bss.g_sensor_arry:00000000 g_sensor_arry
C:\Users\57308\AppData\Local\Temp\ccTYDaJN.s:363    .bss.rawdata.0:00000000 $d
C:\Users\57308\AppData\Local\Temp\ccTYDaJN.s:367    .bss.rawdata.0:00000000 rawdata.0

NO UNDEFINED SYMBOLS
