ARM GAS  C:\Users\ADMINI~1\AppData\Local\Temp\ccTAZUBl.s 			page 1


   1              		.cpu cortex-m4
   2              		.eabi_attribute 27, 1
   3              		.eabi_attribute 28, 1
   4              		.eabi_attribute 20, 1
   5              		.eabi_attribute 21, 1
   6              		.eabi_attribute 23, 3
   7              		.eabi_attribute 24, 1
   8              		.eabi_attribute 25, 1
   9              		.eabi_attribute 26, 1
  10              		.eabi_attribute 30, 1
  11              		.eabi_attribute 34, 1
  12              		.eabi_attribute 18, 4
  13              		.file	"stm32g4xx_hal_exti.c"
  14              		.text
  15              	.Ltext0:
  16              		.cfi_sections	.debug_frame
  17              		.section	.text.HAL_EXTI_SetConfigLine,"ax",%progbits
  18              		.align	1
  19              		.global	HAL_EXTI_SetConfigLine
  20              		.arch armv7e-m
  21              		.syntax unified
  22              		.thumb
  23              		.thumb_func
  24              		.fpu fpv4-sp-d16
  26              	HAL_EXTI_SetConfigLine:
  27              	.LVL0:
  28              	.LFB329:
  29              		.file 1 "Drivers/STM32G4xx_HAL_Driver/Src/stm32g4xx_hal_exti.c"
   1:Drivers/STM32G4xx_HAL_Driver/Src/stm32g4xx_hal_exti.c **** /**
   2:Drivers/STM32G4xx_HAL_Driver/Src/stm32g4xx_hal_exti.c ****   ******************************************************************************
   3:Drivers/STM32G4xx_HAL_Driver/Src/stm32g4xx_hal_exti.c ****   * @file    stm32g4xx_hal_exti.c
   4:Drivers/STM32G4xx_HAL_Driver/Src/stm32g4xx_hal_exti.c ****   * @author  MCD Application Team
   5:Drivers/STM32G4xx_HAL_Driver/Src/stm32g4xx_hal_exti.c ****   * @brief   EXTI HAL module driver.
   6:Drivers/STM32G4xx_HAL_Driver/Src/stm32g4xx_hal_exti.c ****   *          This file provides firmware functions to manage the following
   7:Drivers/STM32G4xx_HAL_Driver/Src/stm32g4xx_hal_exti.c ****   *          functionalities of the Extended Interrupts and events controller (EXTI) peripheral:
   8:Drivers/STM32G4xx_HAL_Driver/Src/stm32g4xx_hal_exti.c ****   *          functionalities of the General Purpose Input/Output (EXTI) peripheral:
   9:Drivers/STM32G4xx_HAL_Driver/Src/stm32g4xx_hal_exti.c ****   *           + Initialization and de-initialization functions
  10:Drivers/STM32G4xx_HAL_Driver/Src/stm32g4xx_hal_exti.c ****   *           + IO operation functions
  11:Drivers/STM32G4xx_HAL_Driver/Src/stm32g4xx_hal_exti.c ****   *
  12:Drivers/STM32G4xx_HAL_Driver/Src/stm32g4xx_hal_exti.c ****   ******************************************************************************
  13:Drivers/STM32G4xx_HAL_Driver/Src/stm32g4xx_hal_exti.c ****   * @attention
  14:Drivers/STM32G4xx_HAL_Driver/Src/stm32g4xx_hal_exti.c ****   *
  15:Drivers/STM32G4xx_HAL_Driver/Src/stm32g4xx_hal_exti.c ****   * Copyright (c) 2019 STMicroelectronics.
  16:Drivers/STM32G4xx_HAL_Driver/Src/stm32g4xx_hal_exti.c ****   * All rights reserved.
  17:Drivers/STM32G4xx_HAL_Driver/Src/stm32g4xx_hal_exti.c ****   *
  18:Drivers/STM32G4xx_HAL_Driver/Src/stm32g4xx_hal_exti.c ****   * This software is licensed under terms that can be found in the LICENSE file
  19:Drivers/STM32G4xx_HAL_Driver/Src/stm32g4xx_hal_exti.c ****   * in the root directory of this software component.
  20:Drivers/STM32G4xx_HAL_Driver/Src/stm32g4xx_hal_exti.c ****   * If no LICENSE file comes with this software, it is provided AS-IS.
  21:Drivers/STM32G4xx_HAL_Driver/Src/stm32g4xx_hal_exti.c ****   *
  22:Drivers/STM32G4xx_HAL_Driver/Src/stm32g4xx_hal_exti.c ****   ******************************************************************************
  23:Drivers/STM32G4xx_HAL_Driver/Src/stm32g4xx_hal_exti.c ****   @verbatim
  24:Drivers/STM32G4xx_HAL_Driver/Src/stm32g4xx_hal_exti.c ****   ==============================================================================
  25:Drivers/STM32G4xx_HAL_Driver/Src/stm32g4xx_hal_exti.c ****                     ##### EXTI Peripheral features #####
  26:Drivers/STM32G4xx_HAL_Driver/Src/stm32g4xx_hal_exti.c ****   ==============================================================================
  27:Drivers/STM32G4xx_HAL_Driver/Src/stm32g4xx_hal_exti.c ****   [..]
  28:Drivers/STM32G4xx_HAL_Driver/Src/stm32g4xx_hal_exti.c ****     (+) Each Exti line can be configured within this driver.
  29:Drivers/STM32G4xx_HAL_Driver/Src/stm32g4xx_hal_exti.c **** 
ARM GAS  C:\Users\ADMINI~1\AppData\Local\Temp\ccTAZUBl.s 			page 2


  30:Drivers/STM32G4xx_HAL_Driver/Src/stm32g4xx_hal_exti.c ****     (+) Exti line can be configured in 3 different modes
  31:Drivers/STM32G4xx_HAL_Driver/Src/stm32g4xx_hal_exti.c ****         (++) Interrupt
  32:Drivers/STM32G4xx_HAL_Driver/Src/stm32g4xx_hal_exti.c ****         (++) Event
  33:Drivers/STM32G4xx_HAL_Driver/Src/stm32g4xx_hal_exti.c ****         (++) Both of them
  34:Drivers/STM32G4xx_HAL_Driver/Src/stm32g4xx_hal_exti.c **** 
  35:Drivers/STM32G4xx_HAL_Driver/Src/stm32g4xx_hal_exti.c ****     (+) Configurable Exti lines can be configured with 3 different triggers
  36:Drivers/STM32G4xx_HAL_Driver/Src/stm32g4xx_hal_exti.c ****         (++) Rising
  37:Drivers/STM32G4xx_HAL_Driver/Src/stm32g4xx_hal_exti.c ****         (++) Falling
  38:Drivers/STM32G4xx_HAL_Driver/Src/stm32g4xx_hal_exti.c ****         (++) Both of them
  39:Drivers/STM32G4xx_HAL_Driver/Src/stm32g4xx_hal_exti.c **** 
  40:Drivers/STM32G4xx_HAL_Driver/Src/stm32g4xx_hal_exti.c ****     (+) When set in interrupt mode, configurable Exti lines have two different
  41:Drivers/STM32G4xx_HAL_Driver/Src/stm32g4xx_hal_exti.c ****         interrupt pending registers which allow to distinguish which transition
  42:Drivers/STM32G4xx_HAL_Driver/Src/stm32g4xx_hal_exti.c ****         occurs:
  43:Drivers/STM32G4xx_HAL_Driver/Src/stm32g4xx_hal_exti.c ****         (++) Rising edge pending interrupt
  44:Drivers/STM32G4xx_HAL_Driver/Src/stm32g4xx_hal_exti.c ****         (++) Falling
  45:Drivers/STM32G4xx_HAL_Driver/Src/stm32g4xx_hal_exti.c **** 
  46:Drivers/STM32G4xx_HAL_Driver/Src/stm32g4xx_hal_exti.c ****     (+) Exti lines 0 to 15 are linked to gpio pin number 0 to 15. Gpio port can
  47:Drivers/STM32G4xx_HAL_Driver/Src/stm32g4xx_hal_exti.c ****         be selected through multiplexer.
  48:Drivers/STM32G4xx_HAL_Driver/Src/stm32g4xx_hal_exti.c **** 
  49:Drivers/STM32G4xx_HAL_Driver/Src/stm32g4xx_hal_exti.c ****                      ##### How to use this driver #####
  50:Drivers/STM32G4xx_HAL_Driver/Src/stm32g4xx_hal_exti.c ****   ==============================================================================
  51:Drivers/STM32G4xx_HAL_Driver/Src/stm32g4xx_hal_exti.c ****   [..]
  52:Drivers/STM32G4xx_HAL_Driver/Src/stm32g4xx_hal_exti.c **** 
  53:Drivers/STM32G4xx_HAL_Driver/Src/stm32g4xx_hal_exti.c ****     (#) Configure the EXTI line using HAL_EXTI_SetConfigLine().
  54:Drivers/STM32G4xx_HAL_Driver/Src/stm32g4xx_hal_exti.c ****         (++) Choose the interrupt line number by setting "Line" member from
  55:Drivers/STM32G4xx_HAL_Driver/Src/stm32g4xx_hal_exti.c ****              EXTI_ConfigTypeDef structure.
  56:Drivers/STM32G4xx_HAL_Driver/Src/stm32g4xx_hal_exti.c ****         (++) Configure the interrupt and/or event mode using "Mode" member from
  57:Drivers/STM32G4xx_HAL_Driver/Src/stm32g4xx_hal_exti.c ****              EXTI_ConfigTypeDef structure.
  58:Drivers/STM32G4xx_HAL_Driver/Src/stm32g4xx_hal_exti.c ****         (++) For configurable lines, configure rising and/or falling trigger
  59:Drivers/STM32G4xx_HAL_Driver/Src/stm32g4xx_hal_exti.c ****              "Trigger" member from EXTI_ConfigTypeDef structure.
  60:Drivers/STM32G4xx_HAL_Driver/Src/stm32g4xx_hal_exti.c ****         (++) For Exti lines linked to gpio, choose gpio port using "GPIOSel"
  61:Drivers/STM32G4xx_HAL_Driver/Src/stm32g4xx_hal_exti.c ****              member from GPIO_InitTypeDef structure.
  62:Drivers/STM32G4xx_HAL_Driver/Src/stm32g4xx_hal_exti.c **** 
  63:Drivers/STM32G4xx_HAL_Driver/Src/stm32g4xx_hal_exti.c ****     (#) Get current Exti configuration of a dedicated line using
  64:Drivers/STM32G4xx_HAL_Driver/Src/stm32g4xx_hal_exti.c ****         HAL_EXTI_GetConfigLine().
  65:Drivers/STM32G4xx_HAL_Driver/Src/stm32g4xx_hal_exti.c ****         (++) Provide exiting handle as parameter.
  66:Drivers/STM32G4xx_HAL_Driver/Src/stm32g4xx_hal_exti.c ****         (++) Provide pointer on EXTI_ConfigTypeDef structure as second parameter.
  67:Drivers/STM32G4xx_HAL_Driver/Src/stm32g4xx_hal_exti.c **** 
  68:Drivers/STM32G4xx_HAL_Driver/Src/stm32g4xx_hal_exti.c ****     (#) Clear Exti configuration of a dedicated line using HAL_EXTI_GetConfigLine().
  69:Drivers/STM32G4xx_HAL_Driver/Src/stm32g4xx_hal_exti.c ****         (++) Provide exiting handle as parameter.
  70:Drivers/STM32G4xx_HAL_Driver/Src/stm32g4xx_hal_exti.c **** 
  71:Drivers/STM32G4xx_HAL_Driver/Src/stm32g4xx_hal_exti.c ****     (#) Register callback to treat Exti interrupts using HAL_EXTI_RegisterCallback().
  72:Drivers/STM32G4xx_HAL_Driver/Src/stm32g4xx_hal_exti.c ****         (++) Provide exiting handle as first parameter.
  73:Drivers/STM32G4xx_HAL_Driver/Src/stm32g4xx_hal_exti.c ****         (++) Provide which callback will be registered using one value from
  74:Drivers/STM32G4xx_HAL_Driver/Src/stm32g4xx_hal_exti.c ****              EXTI_CallbackIDTypeDef.
  75:Drivers/STM32G4xx_HAL_Driver/Src/stm32g4xx_hal_exti.c ****         (++) Provide callback function pointer.
  76:Drivers/STM32G4xx_HAL_Driver/Src/stm32g4xx_hal_exti.c **** 
  77:Drivers/STM32G4xx_HAL_Driver/Src/stm32g4xx_hal_exti.c ****     (#) Get interrupt pending bit using HAL_EXTI_GetPending().
  78:Drivers/STM32G4xx_HAL_Driver/Src/stm32g4xx_hal_exti.c **** 
  79:Drivers/STM32G4xx_HAL_Driver/Src/stm32g4xx_hal_exti.c ****     (#) Clear interrupt pending bit using HAL_EXTI_ClearPending().
  80:Drivers/STM32G4xx_HAL_Driver/Src/stm32g4xx_hal_exti.c **** 
  81:Drivers/STM32G4xx_HAL_Driver/Src/stm32g4xx_hal_exti.c ****     (#) Generate software interrupt using HAL_EXTI_GenerateSWI().
  82:Drivers/STM32G4xx_HAL_Driver/Src/stm32g4xx_hal_exti.c **** 
  83:Drivers/STM32G4xx_HAL_Driver/Src/stm32g4xx_hal_exti.c ****   @endverbatim
  84:Drivers/STM32G4xx_HAL_Driver/Src/stm32g4xx_hal_exti.c ****   */
  85:Drivers/STM32G4xx_HAL_Driver/Src/stm32g4xx_hal_exti.c **** 
  86:Drivers/STM32G4xx_HAL_Driver/Src/stm32g4xx_hal_exti.c **** /* Includes ------------------------------------------------------------------*/
ARM GAS  C:\Users\ADMINI~1\AppData\Local\Temp\ccTAZUBl.s 			page 3


  87:Drivers/STM32G4xx_HAL_Driver/Src/stm32g4xx_hal_exti.c **** #include "stm32g4xx_hal.h"
  88:Drivers/STM32G4xx_HAL_Driver/Src/stm32g4xx_hal_exti.c **** 
  89:Drivers/STM32G4xx_HAL_Driver/Src/stm32g4xx_hal_exti.c **** /** @addtogroup STM32G4xx_HAL_Driver
  90:Drivers/STM32G4xx_HAL_Driver/Src/stm32g4xx_hal_exti.c ****   * @{
  91:Drivers/STM32G4xx_HAL_Driver/Src/stm32g4xx_hal_exti.c ****   */
  92:Drivers/STM32G4xx_HAL_Driver/Src/stm32g4xx_hal_exti.c **** 
  93:Drivers/STM32G4xx_HAL_Driver/Src/stm32g4xx_hal_exti.c **** /** @addtogroup EXTI
  94:Drivers/STM32G4xx_HAL_Driver/Src/stm32g4xx_hal_exti.c ****   * @{
  95:Drivers/STM32G4xx_HAL_Driver/Src/stm32g4xx_hal_exti.c ****   */
  96:Drivers/STM32G4xx_HAL_Driver/Src/stm32g4xx_hal_exti.c **** /** MISRA C:2012 deviation rule has been granted for following rule:
  97:Drivers/STM32G4xx_HAL_Driver/Src/stm32g4xx_hal_exti.c ****   * Rule-18.1_b - Medium: Array `EXTICR' 1st subscript interval [0,7] may be out
  98:Drivers/STM32G4xx_HAL_Driver/Src/stm32g4xx_hal_exti.c ****   * of bounds [0,3] in following API :
  99:Drivers/STM32G4xx_HAL_Driver/Src/stm32g4xx_hal_exti.c ****   * HAL_EXTI_SetConfigLine
 100:Drivers/STM32G4xx_HAL_Driver/Src/stm32g4xx_hal_exti.c ****   * HAL_EXTI_GetConfigLine
 101:Drivers/STM32G4xx_HAL_Driver/Src/stm32g4xx_hal_exti.c ****   * HAL_EXTI_ClearConfigLine
 102:Drivers/STM32G4xx_HAL_Driver/Src/stm32g4xx_hal_exti.c ****   */
 103:Drivers/STM32G4xx_HAL_Driver/Src/stm32g4xx_hal_exti.c **** 
 104:Drivers/STM32G4xx_HAL_Driver/Src/stm32g4xx_hal_exti.c **** #ifdef HAL_EXTI_MODULE_ENABLED
 105:Drivers/STM32G4xx_HAL_Driver/Src/stm32g4xx_hal_exti.c **** 
 106:Drivers/STM32G4xx_HAL_Driver/Src/stm32g4xx_hal_exti.c **** /* Private typedef -----------------------------------------------------------*/
 107:Drivers/STM32G4xx_HAL_Driver/Src/stm32g4xx_hal_exti.c **** /* Private defines ------------------------------------------------------------*/
 108:Drivers/STM32G4xx_HAL_Driver/Src/stm32g4xx_hal_exti.c **** /** @defgroup EXTI_Private_Constants EXTI Private Constants
 109:Drivers/STM32G4xx_HAL_Driver/Src/stm32g4xx_hal_exti.c ****   * @{
 110:Drivers/STM32G4xx_HAL_Driver/Src/stm32g4xx_hal_exti.c ****   */
 111:Drivers/STM32G4xx_HAL_Driver/Src/stm32g4xx_hal_exti.c **** #define EXTI_MODE_OFFSET                    0x08U   /* 0x20: offset between MCU IMR/EMR registers *
 112:Drivers/STM32G4xx_HAL_Driver/Src/stm32g4xx_hal_exti.c **** #define EXTI_CONFIG_OFFSET                  0x08U   /* 0x20: offset between MCU Rising/Falling conf
 113:Drivers/STM32G4xx_HAL_Driver/Src/stm32g4xx_hal_exti.c **** /**
 114:Drivers/STM32G4xx_HAL_Driver/Src/stm32g4xx_hal_exti.c ****   * @}
 115:Drivers/STM32G4xx_HAL_Driver/Src/stm32g4xx_hal_exti.c ****   */
 116:Drivers/STM32G4xx_HAL_Driver/Src/stm32g4xx_hal_exti.c **** 
 117:Drivers/STM32G4xx_HAL_Driver/Src/stm32g4xx_hal_exti.c **** /* Private macros ------------------------------------------------------------*/
 118:Drivers/STM32G4xx_HAL_Driver/Src/stm32g4xx_hal_exti.c **** /* Private variables ---------------------------------------------------------*/
 119:Drivers/STM32G4xx_HAL_Driver/Src/stm32g4xx_hal_exti.c **** /* Private function prototypes -----------------------------------------------*/
 120:Drivers/STM32G4xx_HAL_Driver/Src/stm32g4xx_hal_exti.c **** /* Exported functions --------------------------------------------------------*/
 121:Drivers/STM32G4xx_HAL_Driver/Src/stm32g4xx_hal_exti.c **** 
 122:Drivers/STM32G4xx_HAL_Driver/Src/stm32g4xx_hal_exti.c **** /** @addtogroup EXTI_Exported_Functions
 123:Drivers/STM32G4xx_HAL_Driver/Src/stm32g4xx_hal_exti.c ****   * @{
 124:Drivers/STM32G4xx_HAL_Driver/Src/stm32g4xx_hal_exti.c ****   */
 125:Drivers/STM32G4xx_HAL_Driver/Src/stm32g4xx_hal_exti.c **** 
 126:Drivers/STM32G4xx_HAL_Driver/Src/stm32g4xx_hal_exti.c **** /** @addtogroup EXTI_Exported_Functions_Group1
 127:Drivers/STM32G4xx_HAL_Driver/Src/stm32g4xx_hal_exti.c ****   *  @brief    Configuration functions
 128:Drivers/STM32G4xx_HAL_Driver/Src/stm32g4xx_hal_exti.c ****   *
 129:Drivers/STM32G4xx_HAL_Driver/Src/stm32g4xx_hal_exti.c **** @verbatim
 130:Drivers/STM32G4xx_HAL_Driver/Src/stm32g4xx_hal_exti.c ****  ===============================================================================
 131:Drivers/STM32G4xx_HAL_Driver/Src/stm32g4xx_hal_exti.c ****               ##### Configuration functions #####
 132:Drivers/STM32G4xx_HAL_Driver/Src/stm32g4xx_hal_exti.c ****  ===============================================================================
 133:Drivers/STM32G4xx_HAL_Driver/Src/stm32g4xx_hal_exti.c **** 
 134:Drivers/STM32G4xx_HAL_Driver/Src/stm32g4xx_hal_exti.c **** @endverbatim
 135:Drivers/STM32G4xx_HAL_Driver/Src/stm32g4xx_hal_exti.c ****   * @{
 136:Drivers/STM32G4xx_HAL_Driver/Src/stm32g4xx_hal_exti.c ****   */
 137:Drivers/STM32G4xx_HAL_Driver/Src/stm32g4xx_hal_exti.c **** 
 138:Drivers/STM32G4xx_HAL_Driver/Src/stm32g4xx_hal_exti.c **** /**
 139:Drivers/STM32G4xx_HAL_Driver/Src/stm32g4xx_hal_exti.c ****   * @brief  Set configuration of a dedicated Exti line.
 140:Drivers/STM32G4xx_HAL_Driver/Src/stm32g4xx_hal_exti.c ****   * @param  hexti Exti handle.
 141:Drivers/STM32G4xx_HAL_Driver/Src/stm32g4xx_hal_exti.c ****   * @param  pExtiConfig Pointer on EXTI configuration to be set.
 142:Drivers/STM32G4xx_HAL_Driver/Src/stm32g4xx_hal_exti.c ****   * @retval HAL Status.
 143:Drivers/STM32G4xx_HAL_Driver/Src/stm32g4xx_hal_exti.c ****   */
ARM GAS  C:\Users\ADMINI~1\AppData\Local\Temp\ccTAZUBl.s 			page 4


 144:Drivers/STM32G4xx_HAL_Driver/Src/stm32g4xx_hal_exti.c **** HAL_StatusTypeDef HAL_EXTI_SetConfigLine(EXTI_HandleTypeDef *hexti, EXTI_ConfigTypeDef *pExtiConfig
 145:Drivers/STM32G4xx_HAL_Driver/Src/stm32g4xx_hal_exti.c **** {
  30              		.loc 1 145 1 view -0
  31              		.cfi_startproc
  32              		@ args = 0, pretend = 0, frame = 0
  33              		@ frame_needed = 0, uses_anonymous_args = 0
  34              		@ link register save eliminated.
 146:Drivers/STM32G4xx_HAL_Driver/Src/stm32g4xx_hal_exti.c ****   __IO uint32_t *regaddr;
  35              		.loc 1 146 3 view .LVU1
 147:Drivers/STM32G4xx_HAL_Driver/Src/stm32g4xx_hal_exti.c ****   uint32_t regval;
  36              		.loc 1 147 3 view .LVU2
 148:Drivers/STM32G4xx_HAL_Driver/Src/stm32g4xx_hal_exti.c ****   uint32_t linepos;
  37              		.loc 1 148 3 view .LVU3
 149:Drivers/STM32G4xx_HAL_Driver/Src/stm32g4xx_hal_exti.c ****   uint32_t maskline;
  38              		.loc 1 149 3 view .LVU4
 150:Drivers/STM32G4xx_HAL_Driver/Src/stm32g4xx_hal_exti.c ****   uint32_t offset;
  39              		.loc 1 150 3 view .LVU5
 151:Drivers/STM32G4xx_HAL_Driver/Src/stm32g4xx_hal_exti.c **** 
 152:Drivers/STM32G4xx_HAL_Driver/Src/stm32g4xx_hal_exti.c ****   /* Check null pointer */
 153:Drivers/STM32G4xx_HAL_Driver/Src/stm32g4xx_hal_exti.c ****   if ((hexti == NULL) || (pExtiConfig == NULL))
  40              		.loc 1 153 3 view .LVU6
  41              		.loc 1 153 6 is_stmt 0 view .LVU7
  42 0000 0028     		cmp	r0, #0
  43 0002 5FD0     		beq	.L12
  44              		.loc 1 153 23 discriminator 1 view .LVU8
  45 0004 0029     		cmp	r1, #0
  46 0006 5FD0     		beq	.L13
 145:Drivers/STM32G4xx_HAL_Driver/Src/stm32g4xx_hal_exti.c ****   __IO uint32_t *regaddr;
  47              		.loc 1 145 1 view .LVU9
  48 0008 F0B4     		push	{r4, r5, r6, r7}
  49              	.LCFI0:
  50              		.cfi_def_cfa_offset 16
  51              		.cfi_offset 4, -16
  52              		.cfi_offset 5, -12
  53              		.cfi_offset 6, -8
  54              		.cfi_offset 7, -4
 154:Drivers/STM32G4xx_HAL_Driver/Src/stm32g4xx_hal_exti.c ****   {
 155:Drivers/STM32G4xx_HAL_Driver/Src/stm32g4xx_hal_exti.c ****     return HAL_ERROR;
 156:Drivers/STM32G4xx_HAL_Driver/Src/stm32g4xx_hal_exti.c ****   }
 157:Drivers/STM32G4xx_HAL_Driver/Src/stm32g4xx_hal_exti.c **** 
 158:Drivers/STM32G4xx_HAL_Driver/Src/stm32g4xx_hal_exti.c ****   /* Check parameters */
 159:Drivers/STM32G4xx_HAL_Driver/Src/stm32g4xx_hal_exti.c ****   assert_param(IS_EXTI_LINE(pExtiConfig->Line));
  55              		.loc 1 159 3 is_stmt 1 view .LVU10
 160:Drivers/STM32G4xx_HAL_Driver/Src/stm32g4xx_hal_exti.c ****   assert_param(IS_EXTI_MODE(pExtiConfig->Mode));
  56              		.loc 1 160 3 view .LVU11
 161:Drivers/STM32G4xx_HAL_Driver/Src/stm32g4xx_hal_exti.c **** 
 162:Drivers/STM32G4xx_HAL_Driver/Src/stm32g4xx_hal_exti.c ****   /* Assign line number to handle */
 163:Drivers/STM32G4xx_HAL_Driver/Src/stm32g4xx_hal_exti.c ****   hexti->Line = pExtiConfig->Line;
  57              		.loc 1 163 3 view .LVU12
  58              		.loc 1 163 28 is_stmt 0 view .LVU13
  59 000a 0A68     		ldr	r2, [r1]
  60              		.loc 1 163 15 view .LVU14
  61 000c 0260     		str	r2, [r0]
 164:Drivers/STM32G4xx_HAL_Driver/Src/stm32g4xx_hal_exti.c **** 
 165:Drivers/STM32G4xx_HAL_Driver/Src/stm32g4xx_hal_exti.c ****   /* Compute line register offset */
 166:Drivers/STM32G4xx_HAL_Driver/Src/stm32g4xx_hal_exti.c ****   offset = ((pExtiConfig->Line & EXTI_REG_MASK) >> EXTI_REG_SHIFT);
  62              		.loc 1 166 3 is_stmt 1 view .LVU15
ARM GAS  C:\Users\ADMINI~1\AppData\Local\Temp\ccTAZUBl.s 			page 5


  63              		.loc 1 166 10 is_stmt 0 view .LVU16
  64 000e C2F30043 		ubfx	r3, r2, #16, #1
  65              	.LVL1:
 167:Drivers/STM32G4xx_HAL_Driver/Src/stm32g4xx_hal_exti.c ****   /* Compute line position */
 168:Drivers/STM32G4xx_HAL_Driver/Src/stm32g4xx_hal_exti.c ****   linepos = (pExtiConfig->Line & EXTI_PIN_MASK);
  66              		.loc 1 168 3 is_stmt 1 view .LVU17
  67              		.loc 1 168 11 is_stmt 0 view .LVU18
  68 0012 02F01F04 		and	r4, r2, #31
  69              	.LVL2:
 169:Drivers/STM32G4xx_HAL_Driver/Src/stm32g4xx_hal_exti.c ****   /* Compute line mask */
 170:Drivers/STM32G4xx_HAL_Driver/Src/stm32g4xx_hal_exti.c ****   maskline = (1uL << linepos);
  70              		.loc 1 170 3 is_stmt 1 view .LVU19
  71              		.loc 1 170 12 is_stmt 0 view .LVU20
  72 0016 0120     		movs	r0, #1
  73              	.LVL3:
  74              		.loc 1 170 12 view .LVU21
  75 0018 A040     		lsls	r0, r0, r4
  76              	.LVL4:
 171:Drivers/STM32G4xx_HAL_Driver/Src/stm32g4xx_hal_exti.c **** 
 172:Drivers/STM32G4xx_HAL_Driver/Src/stm32g4xx_hal_exti.c ****   /* Configure triggers for configurable lines */
 173:Drivers/STM32G4xx_HAL_Driver/Src/stm32g4xx_hal_exti.c ****   if ((pExtiConfig->Line & EXTI_CONFIG) != 0x00u)
  77              		.loc 1 173 3 is_stmt 1 view .LVU22
  78              		.loc 1 173 6 is_stmt 0 view .LVU23
  79 001a 12F0007F 		tst	r2, #33554432
  80 001e 1BD0     		beq	.L3
 174:Drivers/STM32G4xx_HAL_Driver/Src/stm32g4xx_hal_exti.c ****   {
 175:Drivers/STM32G4xx_HAL_Driver/Src/stm32g4xx_hal_exti.c ****     assert_param(IS_EXTI_TRIGGER(pExtiConfig->Trigger));
  81              		.loc 1 175 5 is_stmt 1 view .LVU24
 176:Drivers/STM32G4xx_HAL_Driver/Src/stm32g4xx_hal_exti.c **** 
 177:Drivers/STM32G4xx_HAL_Driver/Src/stm32g4xx_hal_exti.c ****     /* Configure rising trigger */
 178:Drivers/STM32G4xx_HAL_Driver/Src/stm32g4xx_hal_exti.c ****     regaddr = (&EXTI->RTSR1 + (EXTI_CONFIG_OFFSET * offset));
  82              		.loc 1 178 5 view .LVU25
  83              		.loc 1 178 29 is_stmt 0 view .LVU26
  84 0020 4FEA431C 		lsl	ip, r3, #5
  85              		.loc 1 178 13 view .LVU27
  86 0024 294F     		ldr	r7, .L19
  87              	.LVL5:
 179:Drivers/STM32G4xx_HAL_Driver/Src/stm32g4xx_hal_exti.c ****     regval = *regaddr;
  88              		.loc 1 179 5 is_stmt 1 view .LVU28
  89              		.loc 1 179 12 is_stmt 0 view .LVU29
  90 0026 5CF80750 		ldr	r5, [ip, r7]
  91              	.LVL6:
 180:Drivers/STM32G4xx_HAL_Driver/Src/stm32g4xx_hal_exti.c **** 
 181:Drivers/STM32G4xx_HAL_Driver/Src/stm32g4xx_hal_exti.c ****     /* Mask or set line */
 182:Drivers/STM32G4xx_HAL_Driver/Src/stm32g4xx_hal_exti.c ****     if ((pExtiConfig->Trigger & EXTI_TRIGGER_RISING) != 0x00u)
  92              		.loc 1 182 5 is_stmt 1 view .LVU30
  93              		.loc 1 182 21 is_stmt 0 view .LVU31
  94 002a 8E68     		ldr	r6, [r1, #8]
  95              		.loc 1 182 8 view .LVU32
  96 002c 16F0010F 		tst	r6, #1
  97 0030 29D0     		beq	.L4
 183:Drivers/STM32G4xx_HAL_Driver/Src/stm32g4xx_hal_exti.c ****     {
 184:Drivers/STM32G4xx_HAL_Driver/Src/stm32g4xx_hal_exti.c ****       regval |= maskline;
  98              		.loc 1 184 7 is_stmt 1 view .LVU33
  99              		.loc 1 184 14 is_stmt 0 view .LVU34
 100 0032 0543     		orrs	r5, r5, r0
 101              	.LVL7:
ARM GAS  C:\Users\ADMINI~1\AppData\Local\Temp\ccTAZUBl.s 			page 6


 102              	.L5:
 185:Drivers/STM32G4xx_HAL_Driver/Src/stm32g4xx_hal_exti.c ****     }
 186:Drivers/STM32G4xx_HAL_Driver/Src/stm32g4xx_hal_exti.c ****     else
 187:Drivers/STM32G4xx_HAL_Driver/Src/stm32g4xx_hal_exti.c ****     {
 188:Drivers/STM32G4xx_HAL_Driver/Src/stm32g4xx_hal_exti.c ****       regval &= ~maskline;
 189:Drivers/STM32G4xx_HAL_Driver/Src/stm32g4xx_hal_exti.c ****     }
 190:Drivers/STM32G4xx_HAL_Driver/Src/stm32g4xx_hal_exti.c **** 
 191:Drivers/STM32G4xx_HAL_Driver/Src/stm32g4xx_hal_exti.c ****     /* Store rising trigger mode */
 192:Drivers/STM32G4xx_HAL_Driver/Src/stm32g4xx_hal_exti.c ****     *regaddr = regval;
 103              		.loc 1 192 5 is_stmt 1 view .LVU35
 104              		.loc 1 192 14 is_stmt 0 view .LVU36
 105 0034 4CF80750 		str	r5, [ip, r7]
 193:Drivers/STM32G4xx_HAL_Driver/Src/stm32g4xx_hal_exti.c **** 
 194:Drivers/STM32G4xx_HAL_Driver/Src/stm32g4xx_hal_exti.c ****     /* Configure falling trigger */
 195:Drivers/STM32G4xx_HAL_Driver/Src/stm32g4xx_hal_exti.c ****     regaddr = (&EXTI->FTSR1 + (EXTI_CONFIG_OFFSET * offset));
 106              		.loc 1 195 5 is_stmt 1 view .LVU37
 107              		.loc 1 195 13 is_stmt 0 view .LVU38
 108 0038 254E     		ldr	r6, .L19+4
 109              	.LVL8:
 196:Drivers/STM32G4xx_HAL_Driver/Src/stm32g4xx_hal_exti.c ****     regval = *regaddr;
 110              		.loc 1 196 5 is_stmt 1 view .LVU39
 111              		.loc 1 196 12 is_stmt 0 view .LVU40
 112 003a 5CF80650 		ldr	r5, [ip, r6]
 113              	.LVL9:
 197:Drivers/STM32G4xx_HAL_Driver/Src/stm32g4xx_hal_exti.c **** 
 198:Drivers/STM32G4xx_HAL_Driver/Src/stm32g4xx_hal_exti.c ****     /* Mask or set line */
 199:Drivers/STM32G4xx_HAL_Driver/Src/stm32g4xx_hal_exti.c ****     if ((pExtiConfig->Trigger & EXTI_TRIGGER_FALLING) != 0x00u)
 114              		.loc 1 199 5 is_stmt 1 view .LVU41
 115              		.loc 1 199 8 is_stmt 0 view .LVU42
 116 003e 8F68     		ldr	r7, [r1, #8]
 117 0040 17F0020F 		tst	r7, #2
 118 0044 22D0     		beq	.L6
 200:Drivers/STM32G4xx_HAL_Driver/Src/stm32g4xx_hal_exti.c ****     {
 201:Drivers/STM32G4xx_HAL_Driver/Src/stm32g4xx_hal_exti.c ****       regval |= maskline;
 119              		.loc 1 201 7 is_stmt 1 view .LVU43
 120              		.loc 1 201 14 is_stmt 0 view .LVU44
 121 0046 0543     		orrs	r5, r5, r0
 122              	.LVL10:
 123              	.L7:
 202:Drivers/STM32G4xx_HAL_Driver/Src/stm32g4xx_hal_exti.c ****     }
 203:Drivers/STM32G4xx_HAL_Driver/Src/stm32g4xx_hal_exti.c ****     else
 204:Drivers/STM32G4xx_HAL_Driver/Src/stm32g4xx_hal_exti.c ****     {
 205:Drivers/STM32G4xx_HAL_Driver/Src/stm32g4xx_hal_exti.c ****       regval &= ~maskline;
 206:Drivers/STM32G4xx_HAL_Driver/Src/stm32g4xx_hal_exti.c ****     }
 207:Drivers/STM32G4xx_HAL_Driver/Src/stm32g4xx_hal_exti.c **** 
 208:Drivers/STM32G4xx_HAL_Driver/Src/stm32g4xx_hal_exti.c ****     /* Store falling trigger mode */
 209:Drivers/STM32G4xx_HAL_Driver/Src/stm32g4xx_hal_exti.c ****     *regaddr = regval;
 124              		.loc 1 209 5 is_stmt 1 view .LVU45
 125              		.loc 1 209 14 is_stmt 0 view .LVU46
 126 0048 4CF80650 		str	r5, [ip, r6]
 210:Drivers/STM32G4xx_HAL_Driver/Src/stm32g4xx_hal_exti.c **** 
 211:Drivers/STM32G4xx_HAL_Driver/Src/stm32g4xx_hal_exti.c ****     /* Configure gpio port selection in case of gpio exti line */
 212:Drivers/STM32G4xx_HAL_Driver/Src/stm32g4xx_hal_exti.c ****     if ((pExtiConfig->Line & EXTI_GPIO) == EXTI_GPIO)
 127              		.loc 1 212 5 is_stmt 1 view .LVU47
 128              		.loc 1 212 28 is_stmt 0 view .LVU48
 129 004c 0D68     		ldr	r5, [r1]
 130              	.LVL11:
ARM GAS  C:\Users\ADMINI~1\AppData\Local\Temp\ccTAZUBl.s 			page 7


 131              		.loc 1 212 28 view .LVU49
 132 004e 05F0C06C 		and	ip, r5, #100663296
 133              	.LVL12:
 134              		.loc 1 212 8 view .LVU50
 135 0052 BCF1C06F 		cmp	ip, #100663296
 136 0056 1CD0     		beq	.L18
 137              	.LVL13:
 138              	.L3:
 213:Drivers/STM32G4xx_HAL_Driver/Src/stm32g4xx_hal_exti.c ****     {
 214:Drivers/STM32G4xx_HAL_Driver/Src/stm32g4xx_hal_exti.c ****       assert_param(IS_EXTI_GPIO_PORT(pExtiConfig->GPIOSel));
 215:Drivers/STM32G4xx_HAL_Driver/Src/stm32g4xx_hal_exti.c ****       assert_param(IS_EXTI_GPIO_PIN(linepos));
 216:Drivers/STM32G4xx_HAL_Driver/Src/stm32g4xx_hal_exti.c **** 
 217:Drivers/STM32G4xx_HAL_Driver/Src/stm32g4xx_hal_exti.c ****       regval = SYSCFG->EXTICR[linepos >> 2u];
 218:Drivers/STM32G4xx_HAL_Driver/Src/stm32g4xx_hal_exti.c ****       regval &= ~(SYSCFG_EXTICR1_EXTI0 << (SYSCFG_EXTICR1_EXTI1_Pos * (linepos & 0x03u)));
 219:Drivers/STM32G4xx_HAL_Driver/Src/stm32g4xx_hal_exti.c ****       regval |= (pExtiConfig->GPIOSel << (SYSCFG_EXTICR1_EXTI1_Pos * (linepos & 0x03u)));
 220:Drivers/STM32G4xx_HAL_Driver/Src/stm32g4xx_hal_exti.c ****       SYSCFG->EXTICR[linepos >> 2u] = regval;
 221:Drivers/STM32G4xx_HAL_Driver/Src/stm32g4xx_hal_exti.c ****     }
 222:Drivers/STM32G4xx_HAL_Driver/Src/stm32g4xx_hal_exti.c ****   }
 223:Drivers/STM32G4xx_HAL_Driver/Src/stm32g4xx_hal_exti.c **** 
 224:Drivers/STM32G4xx_HAL_Driver/Src/stm32g4xx_hal_exti.c ****   /* Configure interrupt mode : read current mode */
 225:Drivers/STM32G4xx_HAL_Driver/Src/stm32g4xx_hal_exti.c ****   regaddr = (&EXTI->IMR1 + (EXTI_MODE_OFFSET * offset));
 139              		.loc 1 225 3 is_stmt 1 view .LVU51
 140              		.loc 1 225 26 is_stmt 0 view .LVU52
 141 0058 5B01     		lsls	r3, r3, #5
 142              	.LVL14:
 143              		.loc 1 225 11 view .LVU53
 144 005a 03F18042 		add	r2, r3, #1073741824
 145 005e 02F58232 		add	r2, r2, #66560
 146              	.LVL15:
 226:Drivers/STM32G4xx_HAL_Driver/Src/stm32g4xx_hal_exti.c ****   regval = *regaddr;
 147              		.loc 1 226 3 is_stmt 1 view .LVU54
 148              		.loc 1 226 10 is_stmt 0 view .LVU55
 149 0062 1468     		ldr	r4, [r2]
 150              	.LVL16:
 227:Drivers/STM32G4xx_HAL_Driver/Src/stm32g4xx_hal_exti.c **** 
 228:Drivers/STM32G4xx_HAL_Driver/Src/stm32g4xx_hal_exti.c ****   /* Mask or set line */
 229:Drivers/STM32G4xx_HAL_Driver/Src/stm32g4xx_hal_exti.c ****   if ((pExtiConfig->Mode & EXTI_MODE_INTERRUPT) != 0x00u)
 151              		.loc 1 229 3 is_stmt 1 view .LVU56
 152              		.loc 1 229 6 is_stmt 0 view .LVU57
 153 0064 4D68     		ldr	r5, [r1, #4]
 154 0066 15F0010F 		tst	r5, #1
 155 006a 25D0     		beq	.L8
 230:Drivers/STM32G4xx_HAL_Driver/Src/stm32g4xx_hal_exti.c ****   {
 231:Drivers/STM32G4xx_HAL_Driver/Src/stm32g4xx_hal_exti.c ****     regval |= maskline;
 156              		.loc 1 231 5 is_stmt 1 view .LVU58
 157              		.loc 1 231 12 is_stmt 0 view .LVU59
 158 006c 0443     		orrs	r4, r4, r0
 159              	.LVL17:
 160              	.L9:
 232:Drivers/STM32G4xx_HAL_Driver/Src/stm32g4xx_hal_exti.c ****   }
 233:Drivers/STM32G4xx_HAL_Driver/Src/stm32g4xx_hal_exti.c ****   else
 234:Drivers/STM32G4xx_HAL_Driver/Src/stm32g4xx_hal_exti.c ****   {
 235:Drivers/STM32G4xx_HAL_Driver/Src/stm32g4xx_hal_exti.c ****     regval &= ~maskline;
 236:Drivers/STM32G4xx_HAL_Driver/Src/stm32g4xx_hal_exti.c ****   }
 237:Drivers/STM32G4xx_HAL_Driver/Src/stm32g4xx_hal_exti.c **** 
 238:Drivers/STM32G4xx_HAL_Driver/Src/stm32g4xx_hal_exti.c ****   /* Store interrupt mode */
 239:Drivers/STM32G4xx_HAL_Driver/Src/stm32g4xx_hal_exti.c ****   *regaddr = regval;
ARM GAS  C:\Users\ADMINI~1\AppData\Local\Temp\ccTAZUBl.s 			page 8


 161              		.loc 1 239 3 is_stmt 1 view .LVU60
 162              		.loc 1 239 12 is_stmt 0 view .LVU61
 163 006e 1460     		str	r4, [r2]
 240:Drivers/STM32G4xx_HAL_Driver/Src/stm32g4xx_hal_exti.c **** 
 241:Drivers/STM32G4xx_HAL_Driver/Src/stm32g4xx_hal_exti.c ****   /* Configure event mode : read current mode */
 242:Drivers/STM32G4xx_HAL_Driver/Src/stm32g4xx_hal_exti.c ****   regaddr = (&EXTI->EMR1 + (EXTI_MODE_OFFSET * offset));
 164              		.loc 1 242 3 is_stmt 1 view .LVU62
 165              		.loc 1 242 11 is_stmt 0 view .LVU63
 166 0070 184C     		ldr	r4, .L19+8
 167              	.LVL18:
 243:Drivers/STM32G4xx_HAL_Driver/Src/stm32g4xx_hal_exti.c ****   regval = *regaddr;
 168              		.loc 1 243 3 is_stmt 1 view .LVU64
 169              		.loc 1 243 10 is_stmt 0 view .LVU65
 170 0072 1A59     		ldr	r2, [r3, r4]
 171              	.LVL19:
 244:Drivers/STM32G4xx_HAL_Driver/Src/stm32g4xx_hal_exti.c **** 
 245:Drivers/STM32G4xx_HAL_Driver/Src/stm32g4xx_hal_exti.c ****   /* Mask or set line */
 246:Drivers/STM32G4xx_HAL_Driver/Src/stm32g4xx_hal_exti.c ****   if ((pExtiConfig->Mode & EXTI_MODE_EVENT) != 0x00u)
 172              		.loc 1 246 3 is_stmt 1 view .LVU66
 173              		.loc 1 246 19 is_stmt 0 view .LVU67
 174 0074 4968     		ldr	r1, [r1, #4]
 175              	.LVL20:
 176              		.loc 1 246 6 view .LVU68
 177 0076 11F0020F 		tst	r1, #2
 178 007a 20D0     		beq	.L10
 247:Drivers/STM32G4xx_HAL_Driver/Src/stm32g4xx_hal_exti.c ****   {
 248:Drivers/STM32G4xx_HAL_Driver/Src/stm32g4xx_hal_exti.c ****     regval |= maskline;
 179              		.loc 1 248 5 is_stmt 1 view .LVU69
 180              		.loc 1 248 12 is_stmt 0 view .LVU70
 181 007c 1043     		orrs	r0, r0, r2
 182              	.LVL21:
 183              	.L11:
 249:Drivers/STM32G4xx_HAL_Driver/Src/stm32g4xx_hal_exti.c ****   }
 250:Drivers/STM32G4xx_HAL_Driver/Src/stm32g4xx_hal_exti.c ****   else
 251:Drivers/STM32G4xx_HAL_Driver/Src/stm32g4xx_hal_exti.c ****   {
 252:Drivers/STM32G4xx_HAL_Driver/Src/stm32g4xx_hal_exti.c ****     regval &= ~maskline;
 253:Drivers/STM32G4xx_HAL_Driver/Src/stm32g4xx_hal_exti.c ****   }
 254:Drivers/STM32G4xx_HAL_Driver/Src/stm32g4xx_hal_exti.c **** 
 255:Drivers/STM32G4xx_HAL_Driver/Src/stm32g4xx_hal_exti.c ****   /* Store event mode */
 256:Drivers/STM32G4xx_HAL_Driver/Src/stm32g4xx_hal_exti.c ****   *regaddr = regval;
 184              		.loc 1 256 3 is_stmt 1 view .LVU71
 185              		.loc 1 256 12 is_stmt 0 view .LVU72
 186 007e 1851     		str	r0, [r3, r4]
 257:Drivers/STM32G4xx_HAL_Driver/Src/stm32g4xx_hal_exti.c **** 
 258:Drivers/STM32G4xx_HAL_Driver/Src/stm32g4xx_hal_exti.c ****   return HAL_OK;
 187              		.loc 1 258 3 is_stmt 1 view .LVU73
 188              		.loc 1 258 10 is_stmt 0 view .LVU74
 189 0080 0020     		movs	r0, #0
 190              	.LVL22:
 259:Drivers/STM32G4xx_HAL_Driver/Src/stm32g4xx_hal_exti.c **** }
 191              		.loc 1 259 1 view .LVU75
 192 0082 F0BC     		pop	{r4, r5, r6, r7}
 193              	.LCFI1:
 194              		.cfi_remember_state
 195              		.cfi_restore 7
 196              		.cfi_restore 6
 197              		.cfi_restore 5
ARM GAS  C:\Users\ADMINI~1\AppData\Local\Temp\ccTAZUBl.s 			page 9


 198              		.cfi_restore 4
 199              		.cfi_def_cfa_offset 0
 200              	.LVL23:
 201              		.loc 1 259 1 view .LVU76
 202 0084 7047     		bx	lr
 203              	.LVL24:
 204              	.L4:
 205              	.LCFI2:
 206              		.cfi_restore_state
 188:Drivers/STM32G4xx_HAL_Driver/Src/stm32g4xx_hal_exti.c ****     }
 207              		.loc 1 188 7 is_stmt 1 view .LVU77
 188:Drivers/STM32G4xx_HAL_Driver/Src/stm32g4xx_hal_exti.c ****     }
 208              		.loc 1 188 14 is_stmt 0 view .LVU78
 209 0086 25EA0005 		bic	r5, r5, r0
 210              	.LVL25:
 188:Drivers/STM32G4xx_HAL_Driver/Src/stm32g4xx_hal_exti.c ****     }
 211              		.loc 1 188 14 view .LVU79
 212 008a D3E7     		b	.L5
 213              	.LVL26:
 214              	.L6:
 205:Drivers/STM32G4xx_HAL_Driver/Src/stm32g4xx_hal_exti.c ****     }
 215              		.loc 1 205 7 is_stmt 1 view .LVU80
 205:Drivers/STM32G4xx_HAL_Driver/Src/stm32g4xx_hal_exti.c ****     }
 216              		.loc 1 205 14 is_stmt 0 view .LVU81
 217 008c 25EA0005 		bic	r5, r5, r0
 218              	.LVL27:
 205:Drivers/STM32G4xx_HAL_Driver/Src/stm32g4xx_hal_exti.c ****     }
 219              		.loc 1 205 14 view .LVU82
 220 0090 DAE7     		b	.L7
 221              	.LVL28:
 222              	.L18:
 214:Drivers/STM32G4xx_HAL_Driver/Src/stm32g4xx_hal_exti.c ****       assert_param(IS_EXTI_GPIO_PIN(linepos));
 223              		.loc 1 214 7 is_stmt 1 view .LVU83
 215:Drivers/STM32G4xx_HAL_Driver/Src/stm32g4xx_hal_exti.c **** 
 224              		.loc 1 215 7 view .LVU84
 217:Drivers/STM32G4xx_HAL_Driver/Src/stm32g4xx_hal_exti.c ****       regval &= ~(SYSCFG_EXTICR1_EXTI0 << (SYSCFG_EXTICR1_EXTI1_Pos * (linepos & 0x03u)));
 225              		.loc 1 217 7 view .LVU85
 217:Drivers/STM32G4xx_HAL_Driver/Src/stm32g4xx_hal_exti.c ****       regval &= ~(SYSCFG_EXTICR1_EXTI0 << (SYSCFG_EXTICR1_EXTI1_Pos * (linepos & 0x03u)));
 226              		.loc 1 217 39 is_stmt 0 view .LVU86
 227 0092 A408     		lsrs	r4, r4, #2
 228              	.LVL29:
 217:Drivers/STM32G4xx_HAL_Driver/Src/stm32g4xx_hal_exti.c ****       regval &= ~(SYSCFG_EXTICR1_EXTI0 << (SYSCFG_EXTICR1_EXTI1_Pos * (linepos & 0x03u)));
 229              		.loc 1 217 14 view .LVU87
 230 0094 104F     		ldr	r7, .L19+12
 231 0096 0234     		adds	r4, r4, #2
 232 0098 57F82460 		ldr	r6, [r7, r4, lsl #2]
 233              	.LVL30:
 218:Drivers/STM32G4xx_HAL_Driver/Src/stm32g4xx_hal_exti.c ****       regval |= (pExtiConfig->GPIOSel << (SYSCFG_EXTICR1_EXTI1_Pos * (linepos & 0x03u)));
 234              		.loc 1 218 7 is_stmt 1 view .LVU88
 218:Drivers/STM32G4xx_HAL_Driver/Src/stm32g4xx_hal_exti.c ****       regval |= (pExtiConfig->GPIOSel << (SYSCFG_EXTICR1_EXTI1_Pos * (linepos & 0x03u)));
 235              		.loc 1 218 80 is_stmt 0 view .LVU89
 236 009c 02F00302 		and	r2, r2, #3
 237              	.LVL31:
 218:Drivers/STM32G4xx_HAL_Driver/Src/stm32g4xx_hal_exti.c ****       regval |= (pExtiConfig->GPIOSel << (SYSCFG_EXTICR1_EXTI1_Pos * (linepos & 0x03u)));
 238              		.loc 1 218 69 view .LVU90
 239 00a0 9200     		lsls	r2, r2, #2
 218:Drivers/STM32G4xx_HAL_Driver/Src/stm32g4xx_hal_exti.c ****       regval |= (pExtiConfig->GPIOSel << (SYSCFG_EXTICR1_EXTI1_Pos * (linepos & 0x03u)));
ARM GAS  C:\Users\ADMINI~1\AppData\Local\Temp\ccTAZUBl.s 			page 10


 240              		.loc 1 218 40 view .LVU91
 241 00a2 0725     		movs	r5, #7
 242 00a4 9540     		lsls	r5, r5, r2
 218:Drivers/STM32G4xx_HAL_Driver/Src/stm32g4xx_hal_exti.c ****       regval |= (pExtiConfig->GPIOSel << (SYSCFG_EXTICR1_EXTI1_Pos * (linepos & 0x03u)));
 243              		.loc 1 218 14 view .LVU92
 244 00a6 26EA0506 		bic	r6, r6, r5
 245              	.LVL32:
 219:Drivers/STM32G4xx_HAL_Driver/Src/stm32g4xx_hal_exti.c ****       SYSCFG->EXTICR[linepos >> 2u] = regval;
 246              		.loc 1 219 7 is_stmt 1 view .LVU93
 219:Drivers/STM32G4xx_HAL_Driver/Src/stm32g4xx_hal_exti.c ****       SYSCFG->EXTICR[linepos >> 2u] = regval;
 247              		.loc 1 219 29 is_stmt 0 view .LVU94
 248 00aa CD68     		ldr	r5, [r1, #12]
 219:Drivers/STM32G4xx_HAL_Driver/Src/stm32g4xx_hal_exti.c ****       SYSCFG->EXTICR[linepos >> 2u] = regval;
 249              		.loc 1 219 39 view .LVU95
 250 00ac 05FA02F2 		lsl	r2, r5, r2
 219:Drivers/STM32G4xx_HAL_Driver/Src/stm32g4xx_hal_exti.c ****       SYSCFG->EXTICR[linepos >> 2u] = regval;
 251              		.loc 1 219 14 view .LVU96
 252 00b0 3243     		orrs	r2, r2, r6
 253              	.LVL33:
 220:Drivers/STM32G4xx_HAL_Driver/Src/stm32g4xx_hal_exti.c ****     }
 254              		.loc 1 220 7 is_stmt 1 view .LVU97
 220:Drivers/STM32G4xx_HAL_Driver/Src/stm32g4xx_hal_exti.c ****     }
 255              		.loc 1 220 37 is_stmt 0 view .LVU98
 256 00b2 47F82420 		str	r2, [r7, r4, lsl #2]
 257 00b6 CFE7     		b	.L3
 258              	.LVL34:
 259              	.L8:
 235:Drivers/STM32G4xx_HAL_Driver/Src/stm32g4xx_hal_exti.c ****   }
 260              		.loc 1 235 5 is_stmt 1 view .LVU99
 235:Drivers/STM32G4xx_HAL_Driver/Src/stm32g4xx_hal_exti.c ****   }
 261              		.loc 1 235 12 is_stmt 0 view .LVU100
 262 00b8 24EA0004 		bic	r4, r4, r0
 263              	.LVL35:
 235:Drivers/STM32G4xx_HAL_Driver/Src/stm32g4xx_hal_exti.c ****   }
 264              		.loc 1 235 12 view .LVU101
 265 00bc D7E7     		b	.L9
 266              	.LVL36:
 267              	.L10:
 252:Drivers/STM32G4xx_HAL_Driver/Src/stm32g4xx_hal_exti.c ****   }
 268              		.loc 1 252 5 is_stmt 1 view .LVU102
 252:Drivers/STM32G4xx_HAL_Driver/Src/stm32g4xx_hal_exti.c ****   }
 269              		.loc 1 252 12 is_stmt 0 view .LVU103
 270 00be 22EA0000 		bic	r0, r2, r0
 271              	.LVL37:
 252:Drivers/STM32G4xx_HAL_Driver/Src/stm32g4xx_hal_exti.c ****   }
 272              		.loc 1 252 12 view .LVU104
 273 00c2 DCE7     		b	.L11
 274              	.LVL38:
 275              	.L12:
 276              	.LCFI3:
 277              		.cfi_def_cfa_offset 0
 278              		.cfi_restore 4
 279              		.cfi_restore 5
 280              		.cfi_restore 6
 281              		.cfi_restore 7
 155:Drivers/STM32G4xx_HAL_Driver/Src/stm32g4xx_hal_exti.c ****   }
 282              		.loc 1 155 12 view .LVU105
ARM GAS  C:\Users\ADMINI~1\AppData\Local\Temp\ccTAZUBl.s 			page 11


 283 00c4 0120     		movs	r0, #1
 284              	.LVL39:
 155:Drivers/STM32G4xx_HAL_Driver/Src/stm32g4xx_hal_exti.c ****   }
 285              		.loc 1 155 12 view .LVU106
 286 00c6 7047     		bx	lr
 287              	.LVL40:
 288              	.L13:
 155:Drivers/STM32G4xx_HAL_Driver/Src/stm32g4xx_hal_exti.c ****   }
 289              		.loc 1 155 12 view .LVU107
 290 00c8 0120     		movs	r0, #1
 291              	.LVL41:
 292              		.loc 1 259 1 view .LVU108
 293 00ca 7047     		bx	lr
 294              	.L20:
 295              		.align	2
 296              	.L19:
 297 00cc 08040140 		.word	1073808392
 298 00d0 0C040140 		.word	1073808396
 299 00d4 04040140 		.word	1073808388
 300 00d8 00000140 		.word	1073807360
 301              		.cfi_endproc
 302              	.LFE329:
 304              		.section	.text.HAL_EXTI_GetConfigLine,"ax",%progbits
 305              		.align	1
 306              		.global	HAL_EXTI_GetConfigLine
 307              		.syntax unified
 308              		.thumb
 309              		.thumb_func
 310              		.fpu fpv4-sp-d16
 312              	HAL_EXTI_GetConfigLine:
 313              	.LVL42:
 314              	.LFB330:
 260:Drivers/STM32G4xx_HAL_Driver/Src/stm32g4xx_hal_exti.c **** 
 261:Drivers/STM32G4xx_HAL_Driver/Src/stm32g4xx_hal_exti.c **** 
 262:Drivers/STM32G4xx_HAL_Driver/Src/stm32g4xx_hal_exti.c **** /**
 263:Drivers/STM32G4xx_HAL_Driver/Src/stm32g4xx_hal_exti.c ****   * @brief  Get configuration of a dedicated Exti line.
 264:Drivers/STM32G4xx_HAL_Driver/Src/stm32g4xx_hal_exti.c ****   * @param  hexti Exti handle.
 265:Drivers/STM32G4xx_HAL_Driver/Src/stm32g4xx_hal_exti.c ****   * @param  pExtiConfig Pointer on structure to store Exti configuration.
 266:Drivers/STM32G4xx_HAL_Driver/Src/stm32g4xx_hal_exti.c ****   * @retval HAL Status.
 267:Drivers/STM32G4xx_HAL_Driver/Src/stm32g4xx_hal_exti.c ****   */
 268:Drivers/STM32G4xx_HAL_Driver/Src/stm32g4xx_hal_exti.c **** HAL_StatusTypeDef HAL_EXTI_GetConfigLine(EXTI_HandleTypeDef *hexti, EXTI_ConfigTypeDef *pExtiConfig
 269:Drivers/STM32G4xx_HAL_Driver/Src/stm32g4xx_hal_exti.c **** {
 315              		.loc 1 269 1 is_stmt 1 view -0
 316              		.cfi_startproc
 317              		@ args = 0, pretend = 0, frame = 0
 318              		@ frame_needed = 0, uses_anonymous_args = 0
 270:Drivers/STM32G4xx_HAL_Driver/Src/stm32g4xx_hal_exti.c ****   __IO uint32_t *regaddr;
 319              		.loc 1 270 3 view .LVU110
 271:Drivers/STM32G4xx_HAL_Driver/Src/stm32g4xx_hal_exti.c ****   uint32_t regval;
 320              		.loc 1 271 3 view .LVU111
 272:Drivers/STM32G4xx_HAL_Driver/Src/stm32g4xx_hal_exti.c ****   uint32_t linepos;
 321              		.loc 1 272 3 view .LVU112
 273:Drivers/STM32G4xx_HAL_Driver/Src/stm32g4xx_hal_exti.c ****   uint32_t maskline;
 322              		.loc 1 273 3 view .LVU113
 274:Drivers/STM32G4xx_HAL_Driver/Src/stm32g4xx_hal_exti.c ****   uint32_t offset;
 323              		.loc 1 274 3 view .LVU114
 275:Drivers/STM32G4xx_HAL_Driver/Src/stm32g4xx_hal_exti.c **** 
ARM GAS  C:\Users\ADMINI~1\AppData\Local\Temp\ccTAZUBl.s 			page 12


 276:Drivers/STM32G4xx_HAL_Driver/Src/stm32g4xx_hal_exti.c ****   /* Check null pointer */
 277:Drivers/STM32G4xx_HAL_Driver/Src/stm32g4xx_hal_exti.c ****   if ((hexti == NULL) || (pExtiConfig == NULL))
 324              		.loc 1 277 3 view .LVU115
 325              		.loc 1 277 6 is_stmt 0 view .LVU116
 326 0000 0028     		cmp	r0, #0
 327 0002 4AD0     		beq	.L28
 328              		.loc 1 277 23 discriminator 1 view .LVU117
 329 0004 0029     		cmp	r1, #0
 330 0006 4AD0     		beq	.L29
 269:Drivers/STM32G4xx_HAL_Driver/Src/stm32g4xx_hal_exti.c ****   __IO uint32_t *regaddr;
 331              		.loc 1 269 1 view .LVU118
 332 0008 10B5     		push	{r4, lr}
 333              	.LCFI4:
 334              		.cfi_def_cfa_offset 8
 335              		.cfi_offset 4, -8
 336              		.cfi_offset 14, -4
 278:Drivers/STM32G4xx_HAL_Driver/Src/stm32g4xx_hal_exti.c ****   {
 279:Drivers/STM32G4xx_HAL_Driver/Src/stm32g4xx_hal_exti.c ****     return HAL_ERROR;
 280:Drivers/STM32G4xx_HAL_Driver/Src/stm32g4xx_hal_exti.c ****   }
 281:Drivers/STM32G4xx_HAL_Driver/Src/stm32g4xx_hal_exti.c **** 
 282:Drivers/STM32G4xx_HAL_Driver/Src/stm32g4xx_hal_exti.c ****   /* Check the parameter */
 283:Drivers/STM32G4xx_HAL_Driver/Src/stm32g4xx_hal_exti.c ****   assert_param(IS_EXTI_LINE(hexti->Line));
 337              		.loc 1 283 3 is_stmt 1 view .LVU119
 284:Drivers/STM32G4xx_HAL_Driver/Src/stm32g4xx_hal_exti.c **** 
 285:Drivers/STM32G4xx_HAL_Driver/Src/stm32g4xx_hal_exti.c ****   /* Store handle line number to configuration structure */
 286:Drivers/STM32G4xx_HAL_Driver/Src/stm32g4xx_hal_exti.c ****   pExtiConfig->Line = hexti->Line;
 338              		.loc 1 286 3 view .LVU120
 339              		.loc 1 286 28 is_stmt 0 view .LVU121
 340 000a 0368     		ldr	r3, [r0]
 341              		.loc 1 286 21 view .LVU122
 342 000c 0B60     		str	r3, [r1]
 287:Drivers/STM32G4xx_HAL_Driver/Src/stm32g4xx_hal_exti.c **** 
 288:Drivers/STM32G4xx_HAL_Driver/Src/stm32g4xx_hal_exti.c ****   /* Compute line register offset and line mask */
 289:Drivers/STM32G4xx_HAL_Driver/Src/stm32g4xx_hal_exti.c ****   offset = ((pExtiConfig->Line & EXTI_REG_MASK) >> EXTI_REG_SHIFT);
 343              		.loc 1 289 3 is_stmt 1 view .LVU123
 344              		.loc 1 289 10 is_stmt 0 view .LVU124
 345 000e C3F30040 		ubfx	r0, r3, #16, #1
 346              	.LVL43:
 290:Drivers/STM32G4xx_HAL_Driver/Src/stm32g4xx_hal_exti.c ****   /* Compute line position */
 291:Drivers/STM32G4xx_HAL_Driver/Src/stm32g4xx_hal_exti.c ****   linepos = (pExtiConfig->Line & EXTI_PIN_MASK);
 347              		.loc 1 291 3 is_stmt 1 view .LVU125
 348              		.loc 1 291 11 is_stmt 0 view .LVU126
 349 0012 03F01F0E 		and	lr, r3, #31
 350              	.LVL44:
 292:Drivers/STM32G4xx_HAL_Driver/Src/stm32g4xx_hal_exti.c ****   /* Compute mask */
 293:Drivers/STM32G4xx_HAL_Driver/Src/stm32g4xx_hal_exti.c ****   maskline = (1uL << linepos);
 351              		.loc 1 293 3 is_stmt 1 view .LVU127
 352              		.loc 1 293 12 is_stmt 0 view .LVU128
 353 0016 0122     		movs	r2, #1
 354 0018 02FA0EF2 		lsl	r2, r2, lr
 355              	.LVL45:
 294:Drivers/STM32G4xx_HAL_Driver/Src/stm32g4xx_hal_exti.c **** 
 295:Drivers/STM32G4xx_HAL_Driver/Src/stm32g4xx_hal_exti.c ****   /* 1] Get core mode : interrupt */
 296:Drivers/STM32G4xx_HAL_Driver/Src/stm32g4xx_hal_exti.c ****   regaddr = (&EXTI->IMR1 + (EXTI_MODE_OFFSET * offset));
 356              		.loc 1 296 3 is_stmt 1 view .LVU129
 357              		.loc 1 296 26 is_stmt 0 view .LVU130
 358 001c 4001     		lsls	r0, r0, #5
ARM GAS  C:\Users\ADMINI~1\AppData\Local\Temp\ccTAZUBl.s 			page 13


 359              	.LVL46:
 360              		.loc 1 296 11 view .LVU131
 361 001e 00F1804C 		add	ip, r0, #1073741824
 362 0022 0CF5823C 		add	ip, ip, #66560
 363              	.LVL47:
 297:Drivers/STM32G4xx_HAL_Driver/Src/stm32g4xx_hal_exti.c ****   regval = *regaddr;
 364              		.loc 1 297 3 is_stmt 1 view .LVU132
 365              		.loc 1 297 10 is_stmt 0 view .LVU133
 366 0026 DCF80040 		ldr	r4, [ip]
 367              	.LVL48:
 298:Drivers/STM32G4xx_HAL_Driver/Src/stm32g4xx_hal_exti.c **** 
 299:Drivers/STM32G4xx_HAL_Driver/Src/stm32g4xx_hal_exti.c ****   /* Check if selected line is enable */
 300:Drivers/STM32G4xx_HAL_Driver/Src/stm32g4xx_hal_exti.c ****   if ((regval & maskline) != 0x00u)
 368              		.loc 1 300 3 is_stmt 1 view .LVU134
 369              		.loc 1 300 6 is_stmt 0 view .LVU135
 370 002a 2242     		tst	r2, r4
 371 002c 24D0     		beq	.L23
 301:Drivers/STM32G4xx_HAL_Driver/Src/stm32g4xx_hal_exti.c ****   {
 302:Drivers/STM32G4xx_HAL_Driver/Src/stm32g4xx_hal_exti.c ****     pExtiConfig->Mode = EXTI_MODE_INTERRUPT;
 372              		.loc 1 302 5 is_stmt 1 view .LVU136
 373              		.loc 1 302 23 is_stmt 0 view .LVU137
 374 002e 0124     		movs	r4, #1
 375              	.LVL49:
 376              		.loc 1 302 23 view .LVU138
 377 0030 4C60     		str	r4, [r1, #4]
 378              	.L24:
 303:Drivers/STM32G4xx_HAL_Driver/Src/stm32g4xx_hal_exti.c ****   }
 304:Drivers/STM32G4xx_HAL_Driver/Src/stm32g4xx_hal_exti.c ****   else
 305:Drivers/STM32G4xx_HAL_Driver/Src/stm32g4xx_hal_exti.c ****   {
 306:Drivers/STM32G4xx_HAL_Driver/Src/stm32g4xx_hal_exti.c ****     pExtiConfig->Mode = EXTI_MODE_NONE;
 307:Drivers/STM32G4xx_HAL_Driver/Src/stm32g4xx_hal_exti.c ****   }
 308:Drivers/STM32G4xx_HAL_Driver/Src/stm32g4xx_hal_exti.c **** 
 309:Drivers/STM32G4xx_HAL_Driver/Src/stm32g4xx_hal_exti.c ****   /* Get event mode */
 310:Drivers/STM32G4xx_HAL_Driver/Src/stm32g4xx_hal_exti.c ****   regaddr = (&EXTI->EMR1 + (EXTI_MODE_OFFSET * offset));
 379              		.loc 1 310 3 is_stmt 1 view .LVU139
 380              		.loc 1 310 11 is_stmt 0 view .LVU140
 381 0032 1D4C     		ldr	r4, .L37
 382              	.LVL50:
 311:Drivers/STM32G4xx_HAL_Driver/Src/stm32g4xx_hal_exti.c ****   regval = *regaddr;
 383              		.loc 1 311 3 is_stmt 1 view .LVU141
 384              		.loc 1 311 10 is_stmt 0 view .LVU142
 385 0034 0459     		ldr	r4, [r0, r4]
 386              	.LVL51:
 312:Drivers/STM32G4xx_HAL_Driver/Src/stm32g4xx_hal_exti.c **** 
 313:Drivers/STM32G4xx_HAL_Driver/Src/stm32g4xx_hal_exti.c ****   /* Check if selected line is enable */
 314:Drivers/STM32G4xx_HAL_Driver/Src/stm32g4xx_hal_exti.c ****   if ((regval & maskline) != 0x00u)
 387              		.loc 1 314 3 is_stmt 1 view .LVU143
 388              		.loc 1 314 6 is_stmt 0 view .LVU144
 389 0036 2242     		tst	r2, r4
 390 0038 03D0     		beq	.L25
 315:Drivers/STM32G4xx_HAL_Driver/Src/stm32g4xx_hal_exti.c ****   {
 316:Drivers/STM32G4xx_HAL_Driver/Src/stm32g4xx_hal_exti.c ****     pExtiConfig->Mode |= EXTI_MODE_EVENT;
 391              		.loc 1 316 5 is_stmt 1 view .LVU145
 392              		.loc 1 316 23 is_stmt 0 view .LVU146
 393 003a 4C68     		ldr	r4, [r1, #4]
 394              	.LVL52:
 395              		.loc 1 316 23 view .LVU147
ARM GAS  C:\Users\ADMINI~1\AppData\Local\Temp\ccTAZUBl.s 			page 14


 396 003c 44F00204 		orr	r4, r4, #2
 397 0040 4C60     		str	r4, [r1, #4]
 398              	.L25:
 317:Drivers/STM32G4xx_HAL_Driver/Src/stm32g4xx_hal_exti.c ****   }
 318:Drivers/STM32G4xx_HAL_Driver/Src/stm32g4xx_hal_exti.c **** 
 319:Drivers/STM32G4xx_HAL_Driver/Src/stm32g4xx_hal_exti.c ****   /* Get default Trigger and GPIOSel configuration */
 320:Drivers/STM32G4xx_HAL_Driver/Src/stm32g4xx_hal_exti.c ****   pExtiConfig->Trigger = EXTI_TRIGGER_NONE;
 399              		.loc 1 320 3 is_stmt 1 view .LVU148
 400              		.loc 1 320 24 is_stmt 0 view .LVU149
 401 0042 0024     		movs	r4, #0
 402 0044 8C60     		str	r4, [r1, #8]
 321:Drivers/STM32G4xx_HAL_Driver/Src/stm32g4xx_hal_exti.c ****   pExtiConfig->GPIOSel = 0x00u;
 403              		.loc 1 321 3 is_stmt 1 view .LVU150
 404              		.loc 1 321 24 is_stmt 0 view .LVU151
 405 0046 CC60     		str	r4, [r1, #12]
 322:Drivers/STM32G4xx_HAL_Driver/Src/stm32g4xx_hal_exti.c **** 
 323:Drivers/STM32G4xx_HAL_Driver/Src/stm32g4xx_hal_exti.c ****   /* 2] Get trigger for configurable lines : rising */
 324:Drivers/STM32G4xx_HAL_Driver/Src/stm32g4xx_hal_exti.c ****   if ((pExtiConfig->Line & EXTI_CONFIG) != 0x00u)
 406              		.loc 1 324 3 is_stmt 1 view .LVU152
 407              		.loc 1 324 6 is_stmt 0 view .LVU153
 408 0048 13F0007F 		tst	r3, #33554432
 409 004c 29D0     		beq	.L30
 325:Drivers/STM32G4xx_HAL_Driver/Src/stm32g4xx_hal_exti.c ****   {
 326:Drivers/STM32G4xx_HAL_Driver/Src/stm32g4xx_hal_exti.c ****     regaddr = (&EXTI->RTSR1 + (EXTI_CONFIG_OFFSET * offset));
 410              		.loc 1 326 5 is_stmt 1 view .LVU154
 411              		.loc 1 326 13 is_stmt 0 view .LVU155
 412 004e 174C     		ldr	r4, .L37+4
 413              	.LVL53:
 327:Drivers/STM32G4xx_HAL_Driver/Src/stm32g4xx_hal_exti.c ****     regval = *regaddr;
 414              		.loc 1 327 5 is_stmt 1 view .LVU156
 415              		.loc 1 327 12 is_stmt 0 view .LVU157
 416 0050 0459     		ldr	r4, [r0, r4]
 417              	.LVL54:
 328:Drivers/STM32G4xx_HAL_Driver/Src/stm32g4xx_hal_exti.c **** 
 329:Drivers/STM32G4xx_HAL_Driver/Src/stm32g4xx_hal_exti.c ****     /* Check if configuration of selected line is enable */
 330:Drivers/STM32G4xx_HAL_Driver/Src/stm32g4xx_hal_exti.c ****     if ((regval & maskline) != 0x00u)
 418              		.loc 1 330 5 is_stmt 1 view .LVU158
 419              		.loc 1 330 8 is_stmt 0 view .LVU159
 420 0052 2242     		tst	r2, r4
 421 0054 01D0     		beq	.L26
 331:Drivers/STM32G4xx_HAL_Driver/Src/stm32g4xx_hal_exti.c ****     {
 332:Drivers/STM32G4xx_HAL_Driver/Src/stm32g4xx_hal_exti.c ****       pExtiConfig->Trigger = EXTI_TRIGGER_RISING;
 422              		.loc 1 332 7 is_stmt 1 view .LVU160
 423              		.loc 1 332 28 is_stmt 0 view .LVU161
 424 0056 0124     		movs	r4, #1
 425              	.LVL55:
 426              		.loc 1 332 28 view .LVU162
 427 0058 8C60     		str	r4, [r1, #8]
 428              	.L26:
 333:Drivers/STM32G4xx_HAL_Driver/Src/stm32g4xx_hal_exti.c ****     }
 334:Drivers/STM32G4xx_HAL_Driver/Src/stm32g4xx_hal_exti.c **** 
 335:Drivers/STM32G4xx_HAL_Driver/Src/stm32g4xx_hal_exti.c ****     /* Get falling configuration */
 336:Drivers/STM32G4xx_HAL_Driver/Src/stm32g4xx_hal_exti.c ****     regaddr = (&EXTI->FTSR1 + (EXTI_CONFIG_OFFSET * offset));
 429              		.loc 1 336 5 is_stmt 1 view .LVU163
 430              		.loc 1 336 13 is_stmt 0 view .LVU164
 431 005a 154C     		ldr	r4, .L37+8
 432              	.LVL56:
ARM GAS  C:\Users\ADMINI~1\AppData\Local\Temp\ccTAZUBl.s 			page 15


 337:Drivers/STM32G4xx_HAL_Driver/Src/stm32g4xx_hal_exti.c ****     regval = *regaddr;
 433              		.loc 1 337 5 is_stmt 1 view .LVU165
 434              		.loc 1 337 12 is_stmt 0 view .LVU166
 435 005c 0059     		ldr	r0, [r0, r4]
 436              	.LVL57:
 338:Drivers/STM32G4xx_HAL_Driver/Src/stm32g4xx_hal_exti.c **** 
 339:Drivers/STM32G4xx_HAL_Driver/Src/stm32g4xx_hal_exti.c ****     /* Check if configuration of selected line is enable */
 340:Drivers/STM32G4xx_HAL_Driver/Src/stm32g4xx_hal_exti.c ****     if ((regval & maskline) != 0x00u)
 437              		.loc 1 340 5 is_stmt 1 view .LVU167
 438              		.loc 1 340 8 is_stmt 0 view .LVU168
 439 005e 0242     		tst	r2, r0
 440 0060 03D0     		beq	.L27
 341:Drivers/STM32G4xx_HAL_Driver/Src/stm32g4xx_hal_exti.c ****     {
 342:Drivers/STM32G4xx_HAL_Driver/Src/stm32g4xx_hal_exti.c ****       pExtiConfig->Trigger |= EXTI_TRIGGER_FALLING;
 441              		.loc 1 342 7 is_stmt 1 view .LVU169
 442              		.loc 1 342 28 is_stmt 0 view .LVU170
 443 0062 8A68     		ldr	r2, [r1, #8]
 444              	.LVL58:
 445              		.loc 1 342 28 view .LVU171
 446 0064 42F00202 		orr	r2, r2, #2
 447 0068 8A60     		str	r2, [r1, #8]
 448              	.L27:
 343:Drivers/STM32G4xx_HAL_Driver/Src/stm32g4xx_hal_exti.c ****     }
 344:Drivers/STM32G4xx_HAL_Driver/Src/stm32g4xx_hal_exti.c **** 
 345:Drivers/STM32G4xx_HAL_Driver/Src/stm32g4xx_hal_exti.c ****     /* Get Gpio port selection for gpio lines */
 346:Drivers/STM32G4xx_HAL_Driver/Src/stm32g4xx_hal_exti.c ****     if ((pExtiConfig->Line & EXTI_GPIO) == EXTI_GPIO)
 449              		.loc 1 346 5 is_stmt 1 view .LVU172
 450              		.loc 1 346 28 is_stmt 0 view .LVU173
 451 006a 03F0C062 		and	r2, r3, #100663296
 452              		.loc 1 346 8 view .LVU174
 453 006e B2F1C06F 		cmp	r2, #100663296
 454 0072 04D0     		beq	.L36
 347:Drivers/STM32G4xx_HAL_Driver/Src/stm32g4xx_hal_exti.c ****     {
 348:Drivers/STM32G4xx_HAL_Driver/Src/stm32g4xx_hal_exti.c ****       assert_param(IS_EXTI_GPIO_PIN(linepos));
 349:Drivers/STM32G4xx_HAL_Driver/Src/stm32g4xx_hal_exti.c **** 
 350:Drivers/STM32G4xx_HAL_Driver/Src/stm32g4xx_hal_exti.c ****       regval = SYSCFG->EXTICR[linepos >> 2u];
 351:Drivers/STM32G4xx_HAL_Driver/Src/stm32g4xx_hal_exti.c ****       pExtiConfig->GPIOSel = ((regval >> (SYSCFG_EXTICR1_EXTI1_Pos * ((linepos & 0x03u)))));
 352:Drivers/STM32G4xx_HAL_Driver/Src/stm32g4xx_hal_exti.c ****     }
 353:Drivers/STM32G4xx_HAL_Driver/Src/stm32g4xx_hal_exti.c ****   }
 354:Drivers/STM32G4xx_HAL_Driver/Src/stm32g4xx_hal_exti.c **** 
 355:Drivers/STM32G4xx_HAL_Driver/Src/stm32g4xx_hal_exti.c ****   return HAL_OK;
 455              		.loc 1 355 10 view .LVU175
 456 0074 0020     		movs	r0, #0
 457              	.LVL59:
 458              		.loc 1 355 10 view .LVU176
 459 0076 15E0     		b	.L22
 460              	.LVL60:
 461              	.L23:
 306:Drivers/STM32G4xx_HAL_Driver/Src/stm32g4xx_hal_exti.c ****   }
 462              		.loc 1 306 5 is_stmt 1 view .LVU177
 306:Drivers/STM32G4xx_HAL_Driver/Src/stm32g4xx_hal_exti.c ****   }
 463              		.loc 1 306 23 is_stmt 0 view .LVU178
 464 0078 0024     		movs	r4, #0
 465              	.LVL61:
 306:Drivers/STM32G4xx_HAL_Driver/Src/stm32g4xx_hal_exti.c ****   }
 466              		.loc 1 306 23 view .LVU179
 467 007a 4C60     		str	r4, [r1, #4]
ARM GAS  C:\Users\ADMINI~1\AppData\Local\Temp\ccTAZUBl.s 			page 16


 468 007c D9E7     		b	.L24
 469              	.LVL62:
 470              	.L36:
 348:Drivers/STM32G4xx_HAL_Driver/Src/stm32g4xx_hal_exti.c **** 
 471              		.loc 1 348 7 is_stmt 1 view .LVU180
 350:Drivers/STM32G4xx_HAL_Driver/Src/stm32g4xx_hal_exti.c ****       pExtiConfig->GPIOSel = ((regval >> (SYSCFG_EXTICR1_EXTI1_Pos * ((linepos & 0x03u)))));
 472              		.loc 1 350 7 view .LVU181
 350:Drivers/STM32G4xx_HAL_Driver/Src/stm32g4xx_hal_exti.c ****       pExtiConfig->GPIOSel = ((regval >> (SYSCFG_EXTICR1_EXTI1_Pos * ((linepos & 0x03u)))));
 473              		.loc 1 350 39 is_stmt 0 view .LVU182
 474 007e 4FEA9E02 		lsr	r2, lr, #2
 350:Drivers/STM32G4xx_HAL_Driver/Src/stm32g4xx_hal_exti.c ****       pExtiConfig->GPIOSel = ((regval >> (SYSCFG_EXTICR1_EXTI1_Pos * ((linepos & 0x03u)))));
 475              		.loc 1 350 14 view .LVU183
 476 0082 0232     		adds	r2, r2, #2
 477 0084 0B48     		ldr	r0, .L37+12
 478              	.LVL63:
 350:Drivers/STM32G4xx_HAL_Driver/Src/stm32g4xx_hal_exti.c ****       pExtiConfig->GPIOSel = ((regval >> (SYSCFG_EXTICR1_EXTI1_Pos * ((linepos & 0x03u)))));
 479              		.loc 1 350 14 view .LVU184
 480 0086 50F82220 		ldr	r2, [r0, r2, lsl #2]
 481              	.LVL64:
 351:Drivers/STM32G4xx_HAL_Driver/Src/stm32g4xx_hal_exti.c ****     }
 482              		.loc 1 351 7 is_stmt 1 view .LVU185
 351:Drivers/STM32G4xx_HAL_Driver/Src/stm32g4xx_hal_exti.c ****     }
 483              		.loc 1 351 80 is_stmt 0 view .LVU186
 484 008a 03F00303 		and	r3, r3, #3
 485              	.LVL65:
 351:Drivers/STM32G4xx_HAL_Driver/Src/stm32g4xx_hal_exti.c ****     }
 486              		.loc 1 351 68 view .LVU187
 487 008e 9B00     		lsls	r3, r3, #2
 351:Drivers/STM32G4xx_HAL_Driver/Src/stm32g4xx_hal_exti.c ****     }
 488              		.loc 1 351 39 view .LVU188
 489 0090 22FA03F3 		lsr	r3, r2, r3
 351:Drivers/STM32G4xx_HAL_Driver/Src/stm32g4xx_hal_exti.c ****     }
 490              		.loc 1 351 28 view .LVU189
 491 0094 CB60     		str	r3, [r1, #12]
 492              		.loc 1 355 10 view .LVU190
 493 0096 0020     		movs	r0, #0
 494 0098 04E0     		b	.L22
 495              	.LVL66:
 496              	.L28:
 497              	.LCFI5:
 498              		.cfi_def_cfa_offset 0
 499              		.cfi_restore 4
 500              		.cfi_restore 14
 279:Drivers/STM32G4xx_HAL_Driver/Src/stm32g4xx_hal_exti.c ****   }
 501              		.loc 1 279 12 view .LVU191
 502 009a 0120     		movs	r0, #1
 503              	.LVL67:
 279:Drivers/STM32G4xx_HAL_Driver/Src/stm32g4xx_hal_exti.c ****   }
 504              		.loc 1 279 12 view .LVU192
 505 009c 7047     		bx	lr
 506              	.LVL68:
 507              	.L29:
 279:Drivers/STM32G4xx_HAL_Driver/Src/stm32g4xx_hal_exti.c ****   }
 508              		.loc 1 279 12 view .LVU193
 509 009e 0120     		movs	r0, #1
 510              	.LVL69:
 356:Drivers/STM32G4xx_HAL_Driver/Src/stm32g4xx_hal_exti.c **** }
ARM GAS  C:\Users\ADMINI~1\AppData\Local\Temp\ccTAZUBl.s 			page 17


 511              		.loc 1 356 1 view .LVU194
 512 00a0 7047     		bx	lr
 513              	.LVL70:
 514              	.L30:
 515              	.LCFI6:
 516              		.cfi_def_cfa_offset 8
 517              		.cfi_offset 4, -8
 518              		.cfi_offset 14, -4
 355:Drivers/STM32G4xx_HAL_Driver/Src/stm32g4xx_hal_exti.c **** }
 519              		.loc 1 355 10 view .LVU195
 520 00a2 0020     		movs	r0, #0
 521              	.LVL71:
 522              	.L22:
 523              		.loc 1 356 1 view .LVU196
 524 00a4 10BD     		pop	{r4, pc}
 525              	.L38:
 526 00a6 00BF     		.align	2
 527              	.L37:
 528 00a8 04040140 		.word	1073808388
 529 00ac 08040140 		.word	1073808392
 530 00b0 0C040140 		.word	1073808396
 531 00b4 00000140 		.word	1073807360
 532              		.cfi_endproc
 533              	.LFE330:
 535              		.section	.text.HAL_EXTI_ClearConfigLine,"ax",%progbits
 536              		.align	1
 537              		.global	HAL_EXTI_ClearConfigLine
 538              		.syntax unified
 539              		.thumb
 540              		.thumb_func
 541              		.fpu fpv4-sp-d16
 543              	HAL_EXTI_ClearConfigLine:
 544              	.LVL72:
 545              	.LFB331:
 357:Drivers/STM32G4xx_HAL_Driver/Src/stm32g4xx_hal_exti.c **** 
 358:Drivers/STM32G4xx_HAL_Driver/Src/stm32g4xx_hal_exti.c **** 
 359:Drivers/STM32G4xx_HAL_Driver/Src/stm32g4xx_hal_exti.c **** /**
 360:Drivers/STM32G4xx_HAL_Driver/Src/stm32g4xx_hal_exti.c ****   * @brief  Clear whole configuration of a dedicated Exti line.
 361:Drivers/STM32G4xx_HAL_Driver/Src/stm32g4xx_hal_exti.c ****   * @param  hexti Exti handle.
 362:Drivers/STM32G4xx_HAL_Driver/Src/stm32g4xx_hal_exti.c ****   * @retval HAL Status.
 363:Drivers/STM32G4xx_HAL_Driver/Src/stm32g4xx_hal_exti.c ****   */
 364:Drivers/STM32G4xx_HAL_Driver/Src/stm32g4xx_hal_exti.c **** HAL_StatusTypeDef HAL_EXTI_ClearConfigLine(EXTI_HandleTypeDef *hexti)
 365:Drivers/STM32G4xx_HAL_Driver/Src/stm32g4xx_hal_exti.c **** {
 546              		.loc 1 365 1 is_stmt 1 view -0
 547              		.cfi_startproc
 548              		@ args = 0, pretend = 0, frame = 0
 549              		@ frame_needed = 0, uses_anonymous_args = 0
 366:Drivers/STM32G4xx_HAL_Driver/Src/stm32g4xx_hal_exti.c ****   __IO uint32_t *regaddr;
 550              		.loc 1 366 3 view .LVU198
 367:Drivers/STM32G4xx_HAL_Driver/Src/stm32g4xx_hal_exti.c ****   uint32_t regval;
 551              		.loc 1 367 3 view .LVU199
 368:Drivers/STM32G4xx_HAL_Driver/Src/stm32g4xx_hal_exti.c ****   uint32_t linepos;
 552              		.loc 1 368 3 view .LVU200
 369:Drivers/STM32G4xx_HAL_Driver/Src/stm32g4xx_hal_exti.c ****   uint32_t maskline;
 553              		.loc 1 369 3 view .LVU201
 370:Drivers/STM32G4xx_HAL_Driver/Src/stm32g4xx_hal_exti.c ****   uint32_t offset;
 554              		.loc 1 370 3 view .LVU202
ARM GAS  C:\Users\ADMINI~1\AppData\Local\Temp\ccTAZUBl.s 			page 18


 371:Drivers/STM32G4xx_HAL_Driver/Src/stm32g4xx_hal_exti.c **** 
 372:Drivers/STM32G4xx_HAL_Driver/Src/stm32g4xx_hal_exti.c ****   /* Check null pointer */
 373:Drivers/STM32G4xx_HAL_Driver/Src/stm32g4xx_hal_exti.c ****   if (hexti == NULL)
 555              		.loc 1 373 3 view .LVU203
 556              		.loc 1 373 6 is_stmt 0 view .LVU204
 557 0000 0028     		cmp	r0, #0
 558 0002 41D0     		beq	.L41
 365:Drivers/STM32G4xx_HAL_Driver/Src/stm32g4xx_hal_exti.c ****   __IO uint32_t *regaddr;
 559              		.loc 1 365 1 view .LVU205
 560 0004 30B5     		push	{r4, r5, lr}
 561              	.LCFI7:
 562              		.cfi_def_cfa_offset 12
 563              		.cfi_offset 4, -12
 564              		.cfi_offset 5, -8
 565              		.cfi_offset 14, -4
 566 0006 8446     		mov	ip, r0
 374:Drivers/STM32G4xx_HAL_Driver/Src/stm32g4xx_hal_exti.c ****   {
 375:Drivers/STM32G4xx_HAL_Driver/Src/stm32g4xx_hal_exti.c ****     return HAL_ERROR;
 376:Drivers/STM32G4xx_HAL_Driver/Src/stm32g4xx_hal_exti.c ****   }
 377:Drivers/STM32G4xx_HAL_Driver/Src/stm32g4xx_hal_exti.c **** 
 378:Drivers/STM32G4xx_HAL_Driver/Src/stm32g4xx_hal_exti.c ****   /* Check the parameter */
 379:Drivers/STM32G4xx_HAL_Driver/Src/stm32g4xx_hal_exti.c ****   assert_param(IS_EXTI_LINE(hexti->Line));
 567              		.loc 1 379 3 is_stmt 1 view .LVU206
 380:Drivers/STM32G4xx_HAL_Driver/Src/stm32g4xx_hal_exti.c **** 
 381:Drivers/STM32G4xx_HAL_Driver/Src/stm32g4xx_hal_exti.c ****   /* compute line register offset and line mask */
 382:Drivers/STM32G4xx_HAL_Driver/Src/stm32g4xx_hal_exti.c ****   offset = ((hexti->Line & EXTI_REG_MASK) >> EXTI_REG_SHIFT);
 568              		.loc 1 382 3 view .LVU207
 569              		.loc 1 382 19 is_stmt 0 view .LVU208
 570 0008 0468     		ldr	r4, [r0]
 571              		.loc 1 382 10 view .LVU209
 572 000a C4F30043 		ubfx	r3, r4, #16, #1
 573              	.LVL73:
 383:Drivers/STM32G4xx_HAL_Driver/Src/stm32g4xx_hal_exti.c ****   /* compute line position */
 384:Drivers/STM32G4xx_HAL_Driver/Src/stm32g4xx_hal_exti.c ****   linepos = (hexti->Line & EXTI_PIN_MASK);
 574              		.loc 1 384 3 is_stmt 1 view .LVU210
 575              		.loc 1 384 11 is_stmt 0 view .LVU211
 576 000e 04F01F0E 		and	lr, r4, #31
 577              	.LVL74:
 385:Drivers/STM32G4xx_HAL_Driver/Src/stm32g4xx_hal_exti.c ****   /* compute line mask */
 386:Drivers/STM32G4xx_HAL_Driver/Src/stm32g4xx_hal_exti.c ****   maskline = (1uL << linepos);
 578              		.loc 1 386 3 is_stmt 1 view .LVU212
 579              		.loc 1 386 12 is_stmt 0 view .LVU213
 580 0012 0122     		movs	r2, #1
 581 0014 02FA0EF2 		lsl	r2, r2, lr
 582              	.LVL75:
 387:Drivers/STM32G4xx_HAL_Driver/Src/stm32g4xx_hal_exti.c **** 
 388:Drivers/STM32G4xx_HAL_Driver/Src/stm32g4xx_hal_exti.c ****   /* 1] Clear interrupt mode */
 389:Drivers/STM32G4xx_HAL_Driver/Src/stm32g4xx_hal_exti.c ****   regaddr = (&EXTI->IMR1 + (EXTI_MODE_OFFSET * offset));
 583              		.loc 1 389 3 is_stmt 1 view .LVU214
 584              		.loc 1 389 26 is_stmt 0 view .LVU215
 585 0018 5B01     		lsls	r3, r3, #5
 586              	.LVL76:
 587              		.loc 1 389 11 view .LVU216
 588 001a 03F18041 		add	r1, r3, #1073741824
 589 001e 01F58231 		add	r1, r1, #66560
 590              	.LVL77:
 390:Drivers/STM32G4xx_HAL_Driver/Src/stm32g4xx_hal_exti.c ****   regval = (*regaddr & ~maskline);
ARM GAS  C:\Users\ADMINI~1\AppData\Local\Temp\ccTAZUBl.s 			page 19


 591              		.loc 1 390 3 is_stmt 1 view .LVU217
 592              		.loc 1 390 13 is_stmt 0 view .LVU218
 593 0022 0868     		ldr	r0, [r1]
 594              	.LVL78:
 595              		.loc 1 390 24 view .LVU219
 596 0024 D543     		mvns	r5, r2
 597              		.loc 1 390 10 view .LVU220
 598 0026 20EA0200 		bic	r0, r0, r2
 599              	.LVL79:
 391:Drivers/STM32G4xx_HAL_Driver/Src/stm32g4xx_hal_exti.c ****   *regaddr = regval;
 600              		.loc 1 391 3 is_stmt 1 view .LVU221
 601              		.loc 1 391 12 is_stmt 0 view .LVU222
 602 002a 0860     		str	r0, [r1]
 392:Drivers/STM32G4xx_HAL_Driver/Src/stm32g4xx_hal_exti.c **** 
 393:Drivers/STM32G4xx_HAL_Driver/Src/stm32g4xx_hal_exti.c ****   /* 2] Clear event mode */
 394:Drivers/STM32G4xx_HAL_Driver/Src/stm32g4xx_hal_exti.c ****   regaddr = (&EXTI->EMR1 + (EXTI_MODE_OFFSET * offset));
 603              		.loc 1 394 3 is_stmt 1 view .LVU223
 604              		.loc 1 394 11 is_stmt 0 view .LVU224
 605 002c 1848     		ldr	r0, .L49
 606              	.LVL80:
 395:Drivers/STM32G4xx_HAL_Driver/Src/stm32g4xx_hal_exti.c ****   regval = (*regaddr & ~maskline);
 607              		.loc 1 395 3 is_stmt 1 view .LVU225
 608              		.loc 1 395 13 is_stmt 0 view .LVU226
 609 002e 1958     		ldr	r1, [r3, r0]
 610              	.LVL81:
 611              		.loc 1 395 10 view .LVU227
 612 0030 21EA0202 		bic	r2, r1, r2
 613              	.LVL82:
 396:Drivers/STM32G4xx_HAL_Driver/Src/stm32g4xx_hal_exti.c ****   *regaddr = regval;
 614              		.loc 1 396 3 is_stmt 1 view .LVU228
 615              		.loc 1 396 12 is_stmt 0 view .LVU229
 616 0034 1A50     		str	r2, [r3, r0]
 397:Drivers/STM32G4xx_HAL_Driver/Src/stm32g4xx_hal_exti.c **** 
 398:Drivers/STM32G4xx_HAL_Driver/Src/stm32g4xx_hal_exti.c ****   /* 3] Clear triggers in case of configurable lines */
 399:Drivers/STM32G4xx_HAL_Driver/Src/stm32g4xx_hal_exti.c ****   if ((hexti->Line & EXTI_CONFIG) != 0x00u)
 617              		.loc 1 399 3 is_stmt 1 view .LVU230
 618              		.loc 1 399 13 is_stmt 0 view .LVU231
 619 0036 DCF80020 		ldr	r2, [ip]
 620              	.LVL83:
 621              		.loc 1 399 6 view .LVU232
 622 003a 12F0007F 		tst	r2, #33554432
 623 003e 25D0     		beq	.L42
 400:Drivers/STM32G4xx_HAL_Driver/Src/stm32g4xx_hal_exti.c ****   {
 401:Drivers/STM32G4xx_HAL_Driver/Src/stm32g4xx_hal_exti.c ****     regaddr = (&EXTI->RTSR1 + (EXTI_CONFIG_OFFSET * offset));
 624              		.loc 1 401 5 is_stmt 1 view .LVU233
 625              		.loc 1 401 13 is_stmt 0 view .LVU234
 626 0040 1449     		ldr	r1, .L49+4
 627              	.LVL84:
 402:Drivers/STM32G4xx_HAL_Driver/Src/stm32g4xx_hal_exti.c ****     regval = (*regaddr & ~maskline);
 628              		.loc 1 402 5 is_stmt 1 view .LVU235
 629              		.loc 1 402 15 is_stmt 0 view .LVU236
 630 0042 5A58     		ldr	r2, [r3, r1]
 631              		.loc 1 402 12 view .LVU237
 632 0044 2A40     		ands	r2, r2, r5
 633              	.LVL85:
 403:Drivers/STM32G4xx_HAL_Driver/Src/stm32g4xx_hal_exti.c ****     *regaddr = regval;
 634              		.loc 1 403 5 is_stmt 1 view .LVU238
ARM GAS  C:\Users\ADMINI~1\AppData\Local\Temp\ccTAZUBl.s 			page 20


 635              		.loc 1 403 14 is_stmt 0 view .LVU239
 636 0046 5A50     		str	r2, [r3, r1]
 404:Drivers/STM32G4xx_HAL_Driver/Src/stm32g4xx_hal_exti.c **** 
 405:Drivers/STM32G4xx_HAL_Driver/Src/stm32g4xx_hal_exti.c ****     regaddr = (&EXTI->FTSR1 + (EXTI_CONFIG_OFFSET * offset));
 637              		.loc 1 405 5 is_stmt 1 view .LVU240
 638              		.loc 1 405 13 is_stmt 0 view .LVU241
 639 0048 134A     		ldr	r2, .L49+8
 640              	.LVL86:
 406:Drivers/STM32G4xx_HAL_Driver/Src/stm32g4xx_hal_exti.c ****     regval = (*regaddr & ~maskline);
 641              		.loc 1 406 5 is_stmt 1 view .LVU242
 642              		.loc 1 406 15 is_stmt 0 view .LVU243
 643 004a 9958     		ldr	r1, [r3, r2]
 644              	.LVL87:
 645              		.loc 1 406 12 view .LVU244
 646 004c 0D40     		ands	r5, r5, r1
 647              	.LVL88:
 407:Drivers/STM32G4xx_HAL_Driver/Src/stm32g4xx_hal_exti.c ****     *regaddr = regval;
 648              		.loc 1 407 5 is_stmt 1 view .LVU245
 649              		.loc 1 407 14 is_stmt 0 view .LVU246
 650 004e 9D50     		str	r5, [r3, r2]
 408:Drivers/STM32G4xx_HAL_Driver/Src/stm32g4xx_hal_exti.c **** 
 409:Drivers/STM32G4xx_HAL_Driver/Src/stm32g4xx_hal_exti.c ****     /* Get Gpio port selection for gpio lines */
 410:Drivers/STM32G4xx_HAL_Driver/Src/stm32g4xx_hal_exti.c ****     if ((hexti->Line & EXTI_GPIO) == EXTI_GPIO)
 651              		.loc 1 410 5 is_stmt 1 view .LVU247
 652              		.loc 1 410 15 is_stmt 0 view .LVU248
 653 0050 DCF80030 		ldr	r3, [ip]
 654              	.LVL89:
 655              		.loc 1 410 22 view .LVU249
 656 0054 03F0C063 		and	r3, r3, #100663296
 657              		.loc 1 410 8 view .LVU250
 658 0058 B3F1C06F 		cmp	r3, #100663296
 659 005c 01D0     		beq	.L48
 411:Drivers/STM32G4xx_HAL_Driver/Src/stm32g4xx_hal_exti.c ****     {
 412:Drivers/STM32G4xx_HAL_Driver/Src/stm32g4xx_hal_exti.c ****       assert_param(IS_EXTI_GPIO_PIN(linepos));
 413:Drivers/STM32G4xx_HAL_Driver/Src/stm32g4xx_hal_exti.c **** 
 414:Drivers/STM32G4xx_HAL_Driver/Src/stm32g4xx_hal_exti.c ****       regval = SYSCFG->EXTICR[linepos >> 2u];
 415:Drivers/STM32G4xx_HAL_Driver/Src/stm32g4xx_hal_exti.c ****       regval &= ~(SYSCFG_EXTICR1_EXTI0 << (SYSCFG_EXTICR1_EXTI1_Pos * (linepos & 0x03u)));
 416:Drivers/STM32G4xx_HAL_Driver/Src/stm32g4xx_hal_exti.c ****       SYSCFG->EXTICR[linepos >> 2u] = regval;
 417:Drivers/STM32G4xx_HAL_Driver/Src/stm32g4xx_hal_exti.c ****     }
 418:Drivers/STM32G4xx_HAL_Driver/Src/stm32g4xx_hal_exti.c ****   }
 419:Drivers/STM32G4xx_HAL_Driver/Src/stm32g4xx_hal_exti.c **** 
 420:Drivers/STM32G4xx_HAL_Driver/Src/stm32g4xx_hal_exti.c ****   return HAL_OK;
 660              		.loc 1 420 10 view .LVU251
 661 005e 0020     		movs	r0, #0
 662 0060 15E0     		b	.L40
 663              	.L48:
 412:Drivers/STM32G4xx_HAL_Driver/Src/stm32g4xx_hal_exti.c **** 
 664              		.loc 1 412 7 is_stmt 1 view .LVU252
 414:Drivers/STM32G4xx_HAL_Driver/Src/stm32g4xx_hal_exti.c ****       regval &= ~(SYSCFG_EXTICR1_EXTI0 << (SYSCFG_EXTICR1_EXTI1_Pos * (linepos & 0x03u)));
 665              		.loc 1 414 7 view .LVU253
 414:Drivers/STM32G4xx_HAL_Driver/Src/stm32g4xx_hal_exti.c ****       regval &= ~(SYSCFG_EXTICR1_EXTI0 << (SYSCFG_EXTICR1_EXTI1_Pos * (linepos & 0x03u)));
 666              		.loc 1 414 39 is_stmt 0 view .LVU254
 667 0062 4FEA9E0E 		lsr	lr, lr, #2
 668              	.LVL90:
 414:Drivers/STM32G4xx_HAL_Driver/Src/stm32g4xx_hal_exti.c ****       regval &= ~(SYSCFG_EXTICR1_EXTI0 << (SYSCFG_EXTICR1_EXTI1_Pos * (linepos & 0x03u)));
 669              		.loc 1 414 14 view .LVU255
 670 0066 0D49     		ldr	r1, .L49+12
ARM GAS  C:\Users\ADMINI~1\AppData\Local\Temp\ccTAZUBl.s 			page 21


 671 0068 0EF1020E 		add	lr, lr, #2
 672 006c 51F82E30 		ldr	r3, [r1, lr, lsl #2]
 673              	.LVL91:
 415:Drivers/STM32G4xx_HAL_Driver/Src/stm32g4xx_hal_exti.c ****       SYSCFG->EXTICR[linepos >> 2u] = regval;
 674              		.loc 1 415 7 is_stmt 1 view .LVU256
 415:Drivers/STM32G4xx_HAL_Driver/Src/stm32g4xx_hal_exti.c ****       SYSCFG->EXTICR[linepos >> 2u] = regval;
 675              		.loc 1 415 80 is_stmt 0 view .LVU257
 676 0070 04F00304 		and	r4, r4, #3
 677              	.LVL92:
 415:Drivers/STM32G4xx_HAL_Driver/Src/stm32g4xx_hal_exti.c ****       SYSCFG->EXTICR[linepos >> 2u] = regval;
 678              		.loc 1 415 69 view .LVU258
 679 0074 A400     		lsls	r4, r4, #2
 415:Drivers/STM32G4xx_HAL_Driver/Src/stm32g4xx_hal_exti.c ****       SYSCFG->EXTICR[linepos >> 2u] = regval;
 680              		.loc 1 415 40 view .LVU259
 681 0076 0722     		movs	r2, #7
 682 0078 02FA04F4 		lsl	r4, r2, r4
 415:Drivers/STM32G4xx_HAL_Driver/Src/stm32g4xx_hal_exti.c ****       SYSCFG->EXTICR[linepos >> 2u] = regval;
 683              		.loc 1 415 14 view .LVU260
 684 007c 23EA0404 		bic	r4, r3, r4
 685              	.LVL93:
 416:Drivers/STM32G4xx_HAL_Driver/Src/stm32g4xx_hal_exti.c ****     }
 686              		.loc 1 416 7 is_stmt 1 view .LVU261
 416:Drivers/STM32G4xx_HAL_Driver/Src/stm32g4xx_hal_exti.c ****     }
 687              		.loc 1 416 37 is_stmt 0 view .LVU262
 688 0080 41F82E40 		str	r4, [r1, lr, lsl #2]
 689              		.loc 1 420 10 view .LVU263
 690 0084 0020     		movs	r0, #0
 691 0086 02E0     		b	.L40
 692              	.LVL94:
 693              	.L41:
 694              	.LCFI8:
 695              		.cfi_def_cfa_offset 0
 696              		.cfi_restore 4
 697              		.cfi_restore 5
 698              		.cfi_restore 14
 375:Drivers/STM32G4xx_HAL_Driver/Src/stm32g4xx_hal_exti.c ****   }
 699              		.loc 1 375 12 view .LVU264
 700 0088 0120     		movs	r0, #1
 701              	.LVL95:
 421:Drivers/STM32G4xx_HAL_Driver/Src/stm32g4xx_hal_exti.c **** }
 702              		.loc 1 421 1 view .LVU265
 703 008a 7047     		bx	lr
 704              	.LVL96:
 705              	.L42:
 706              	.LCFI9:
 707              		.cfi_def_cfa_offset 12
 708              		.cfi_offset 4, -12
 709              		.cfi_offset 5, -8
 710              		.cfi_offset 14, -4
 420:Drivers/STM32G4xx_HAL_Driver/Src/stm32g4xx_hal_exti.c **** }
 711              		.loc 1 420 10 view .LVU266
 712 008c 0020     		movs	r0, #0
 713              	.LVL97:
 714              	.L40:
 715              		.loc 1 421 1 view .LVU267
 716 008e 30BD     		pop	{r4, r5, pc}
 717              	.L50:
ARM GAS  C:\Users\ADMINI~1\AppData\Local\Temp\ccTAZUBl.s 			page 22


 718              		.align	2
 719              	.L49:
 720 0090 04040140 		.word	1073808388
 721 0094 08040140 		.word	1073808392
 722 0098 0C040140 		.word	1073808396
 723 009c 00000140 		.word	1073807360
 724              		.cfi_endproc
 725              	.LFE331:
 727              		.section	.text.HAL_EXTI_RegisterCallback,"ax",%progbits
 728              		.align	1
 729              		.global	HAL_EXTI_RegisterCallback
 730              		.syntax unified
 731              		.thumb
 732              		.thumb_func
 733              		.fpu fpv4-sp-d16
 735              	HAL_EXTI_RegisterCallback:
 736              	.LVL98:
 737              	.LFB332:
 422:Drivers/STM32G4xx_HAL_Driver/Src/stm32g4xx_hal_exti.c **** 
 423:Drivers/STM32G4xx_HAL_Driver/Src/stm32g4xx_hal_exti.c **** 
 424:Drivers/STM32G4xx_HAL_Driver/Src/stm32g4xx_hal_exti.c **** /**
 425:Drivers/STM32G4xx_HAL_Driver/Src/stm32g4xx_hal_exti.c ****   * @brief  Register callback for a dedicated Exti line.
 426:Drivers/STM32G4xx_HAL_Driver/Src/stm32g4xx_hal_exti.c ****   * @param  hexti Exti handle.
 427:Drivers/STM32G4xx_HAL_Driver/Src/stm32g4xx_hal_exti.c ****   * @param  CallbackID User callback identifier.
 428:Drivers/STM32G4xx_HAL_Driver/Src/stm32g4xx_hal_exti.c ****   *         This parameter can be one of @arg @ref EXTI_CallbackIDTypeDef values.
 429:Drivers/STM32G4xx_HAL_Driver/Src/stm32g4xx_hal_exti.c ****   * @param  pPendingCbfn function pointer to be stored as callback.
 430:Drivers/STM32G4xx_HAL_Driver/Src/stm32g4xx_hal_exti.c ****   * @retval HAL Status.
 431:Drivers/STM32G4xx_HAL_Driver/Src/stm32g4xx_hal_exti.c ****   */
 432:Drivers/STM32G4xx_HAL_Driver/Src/stm32g4xx_hal_exti.c **** HAL_StatusTypeDef HAL_EXTI_RegisterCallback(EXTI_HandleTypeDef *hexti, EXTI_CallbackIDTypeDef Callb
 433:Drivers/STM32G4xx_HAL_Driver/Src/stm32g4xx_hal_exti.c **** {
 738              		.loc 1 433 1 is_stmt 1 view -0
 739              		.cfi_startproc
 740              		@ args = 0, pretend = 0, frame = 0
 741              		@ frame_needed = 0, uses_anonymous_args = 0
 742              		@ link register save eliminated.
 434:Drivers/STM32G4xx_HAL_Driver/Src/stm32g4xx_hal_exti.c ****   HAL_StatusTypeDef status = HAL_OK;
 743              		.loc 1 434 3 view .LVU269
 435:Drivers/STM32G4xx_HAL_Driver/Src/stm32g4xx_hal_exti.c **** 
 436:Drivers/STM32G4xx_HAL_Driver/Src/stm32g4xx_hal_exti.c ****   /* Check the parameters */
 437:Drivers/STM32G4xx_HAL_Driver/Src/stm32g4xx_hal_exti.c ****   assert_param(IS_EXTI_CB(CallbackID));
 744              		.loc 1 437 3 view .LVU270
 438:Drivers/STM32G4xx_HAL_Driver/Src/stm32g4xx_hal_exti.c **** 
 439:Drivers/STM32G4xx_HAL_Driver/Src/stm32g4xx_hal_exti.c ****   switch (CallbackID)
 745              		.loc 1 439 3 view .LVU271
 746 0000 11B9     		cbnz	r1, .L52
 440:Drivers/STM32G4xx_HAL_Driver/Src/stm32g4xx_hal_exti.c ****   {
 441:Drivers/STM32G4xx_HAL_Driver/Src/stm32g4xx_hal_exti.c ****     /* set common callback */
 442:Drivers/STM32G4xx_HAL_Driver/Src/stm32g4xx_hal_exti.c ****     case  HAL_EXTI_COMMON_CB_ID:
 443:Drivers/STM32G4xx_HAL_Driver/Src/stm32g4xx_hal_exti.c ****       hexti->PendingCallback = pPendingCbfn;
 747              		.loc 1 443 7 view .LVU272
 748              		.loc 1 443 30 is_stmt 0 view .LVU273
 749 0002 4260     		str	r2, [r0, #4]
 444:Drivers/STM32G4xx_HAL_Driver/Src/stm32g4xx_hal_exti.c ****       break;
 750              		.loc 1 444 7 is_stmt 1 view .LVU274
 434:Drivers/STM32G4xx_HAL_Driver/Src/stm32g4xx_hal_exti.c **** 
 751              		.loc 1 434 21 is_stmt 0 view .LVU275
 752 0004 0846     		mov	r0, r1
ARM GAS  C:\Users\ADMINI~1\AppData\Local\Temp\ccTAZUBl.s 			page 23


 753              	.LVL99:
 754              		.loc 1 444 7 view .LVU276
 755 0006 7047     		bx	lr
 756              	.LVL100:
 757              	.L52:
 445:Drivers/STM32G4xx_HAL_Driver/Src/stm32g4xx_hal_exti.c **** 
 446:Drivers/STM32G4xx_HAL_Driver/Src/stm32g4xx_hal_exti.c ****     default:
 447:Drivers/STM32G4xx_HAL_Driver/Src/stm32g4xx_hal_exti.c ****       hexti->PendingCallback = NULL;
 758              		.loc 1 447 7 is_stmt 1 view .LVU277
 759              		.loc 1 447 30 is_stmt 0 view .LVU278
 760 0008 0023     		movs	r3, #0
 761 000a 4360     		str	r3, [r0, #4]
 448:Drivers/STM32G4xx_HAL_Driver/Src/stm32g4xx_hal_exti.c ****       status = HAL_ERROR;
 762              		.loc 1 448 7 is_stmt 1 view .LVU279
 763              	.LVL101:
 449:Drivers/STM32G4xx_HAL_Driver/Src/stm32g4xx_hal_exti.c ****       break;
 764              		.loc 1 449 7 view .LVU280
 448:Drivers/STM32G4xx_HAL_Driver/Src/stm32g4xx_hal_exti.c ****       status = HAL_ERROR;
 765              		.loc 1 448 14 is_stmt 0 view .LVU281
 766 000c 0120     		movs	r0, #1
 767              	.LVL102:
 450:Drivers/STM32G4xx_HAL_Driver/Src/stm32g4xx_hal_exti.c ****   }
 451:Drivers/STM32G4xx_HAL_Driver/Src/stm32g4xx_hal_exti.c **** 
 452:Drivers/STM32G4xx_HAL_Driver/Src/stm32g4xx_hal_exti.c ****   return status;
 768              		.loc 1 452 3 is_stmt 1 view .LVU282
 453:Drivers/STM32G4xx_HAL_Driver/Src/stm32g4xx_hal_exti.c **** }
 769              		.loc 1 453 1 is_stmt 0 view .LVU283
 770 000e 7047     		bx	lr
 771              		.cfi_endproc
 772              	.LFE332:
 774              		.section	.text.HAL_EXTI_GetHandle,"ax",%progbits
 775              		.align	1
 776              		.global	HAL_EXTI_GetHandle
 777              		.syntax unified
 778              		.thumb
 779              		.thumb_func
 780              		.fpu fpv4-sp-d16
 782              	HAL_EXTI_GetHandle:
 783              	.LVL103:
 784              	.LFB333:
 454:Drivers/STM32G4xx_HAL_Driver/Src/stm32g4xx_hal_exti.c **** 
 455:Drivers/STM32G4xx_HAL_Driver/Src/stm32g4xx_hal_exti.c **** 
 456:Drivers/STM32G4xx_HAL_Driver/Src/stm32g4xx_hal_exti.c **** /**
 457:Drivers/STM32G4xx_HAL_Driver/Src/stm32g4xx_hal_exti.c ****   * @brief  Store line number as handle private field.
 458:Drivers/STM32G4xx_HAL_Driver/Src/stm32g4xx_hal_exti.c ****   * @param  hexti Exti handle.
 459:Drivers/STM32G4xx_HAL_Driver/Src/stm32g4xx_hal_exti.c ****   * @param  ExtiLine Exti line number.
 460:Drivers/STM32G4xx_HAL_Driver/Src/stm32g4xx_hal_exti.c ****   *         This parameter can be from 0 to @ref EXTI_LINE_NB.
 461:Drivers/STM32G4xx_HAL_Driver/Src/stm32g4xx_hal_exti.c ****   * @retval HAL Status.
 462:Drivers/STM32G4xx_HAL_Driver/Src/stm32g4xx_hal_exti.c ****   */
 463:Drivers/STM32G4xx_HAL_Driver/Src/stm32g4xx_hal_exti.c **** HAL_StatusTypeDef HAL_EXTI_GetHandle(EXTI_HandleTypeDef *hexti, uint32_t ExtiLine)
 464:Drivers/STM32G4xx_HAL_Driver/Src/stm32g4xx_hal_exti.c **** {
 785              		.loc 1 464 1 is_stmt 1 view -0
 786              		.cfi_startproc
 787              		@ args = 0, pretend = 0, frame = 0
 788              		@ frame_needed = 0, uses_anonymous_args = 0
 789              		@ link register save eliminated.
 465:Drivers/STM32G4xx_HAL_Driver/Src/stm32g4xx_hal_exti.c ****   /* Check the parameters */
ARM GAS  C:\Users\ADMINI~1\AppData\Local\Temp\ccTAZUBl.s 			page 24


 466:Drivers/STM32G4xx_HAL_Driver/Src/stm32g4xx_hal_exti.c ****   assert_param(IS_EXTI_LINE(ExtiLine));
 790              		.loc 1 466 3 view .LVU285
 467:Drivers/STM32G4xx_HAL_Driver/Src/stm32g4xx_hal_exti.c **** 
 468:Drivers/STM32G4xx_HAL_Driver/Src/stm32g4xx_hal_exti.c ****   /* Check null pointer */
 469:Drivers/STM32G4xx_HAL_Driver/Src/stm32g4xx_hal_exti.c ****   if (hexti == NULL)
 791              		.loc 1 469 3 view .LVU286
 792              		.loc 1 469 6 is_stmt 0 view .LVU287
 793 0000 10B1     		cbz	r0, .L56
 470:Drivers/STM32G4xx_HAL_Driver/Src/stm32g4xx_hal_exti.c ****   {
 471:Drivers/STM32G4xx_HAL_Driver/Src/stm32g4xx_hal_exti.c ****     return HAL_ERROR;
 472:Drivers/STM32G4xx_HAL_Driver/Src/stm32g4xx_hal_exti.c ****   }
 473:Drivers/STM32G4xx_HAL_Driver/Src/stm32g4xx_hal_exti.c ****   else
 474:Drivers/STM32G4xx_HAL_Driver/Src/stm32g4xx_hal_exti.c ****   {
 475:Drivers/STM32G4xx_HAL_Driver/Src/stm32g4xx_hal_exti.c ****     /* Store line number as handle private field */
 476:Drivers/STM32G4xx_HAL_Driver/Src/stm32g4xx_hal_exti.c ****     hexti->Line = ExtiLine;
 794              		.loc 1 476 5 is_stmt 1 view .LVU288
 795              		.loc 1 476 17 is_stmt 0 view .LVU289
 796 0002 0160     		str	r1, [r0]
 477:Drivers/STM32G4xx_HAL_Driver/Src/stm32g4xx_hal_exti.c **** 
 478:Drivers/STM32G4xx_HAL_Driver/Src/stm32g4xx_hal_exti.c ****     return HAL_OK;
 797              		.loc 1 478 5 is_stmt 1 view .LVU290
 798              		.loc 1 478 12 is_stmt 0 view .LVU291
 799 0004 0020     		movs	r0, #0
 800              	.LVL104:
 801              		.loc 1 478 12 view .LVU292
 802 0006 7047     		bx	lr
 803              	.LVL105:
 804              	.L56:
 471:Drivers/STM32G4xx_HAL_Driver/Src/stm32g4xx_hal_exti.c ****   }
 805              		.loc 1 471 12 view .LVU293
 806 0008 0120     		movs	r0, #1
 807              	.LVL106:
 479:Drivers/STM32G4xx_HAL_Driver/Src/stm32g4xx_hal_exti.c ****   }
 480:Drivers/STM32G4xx_HAL_Driver/Src/stm32g4xx_hal_exti.c **** }
 808              		.loc 1 480 1 view .LVU294
 809 000a 7047     		bx	lr
 810              		.cfi_endproc
 811              	.LFE333:
 813              		.section	.text.HAL_EXTI_IRQHandler,"ax",%progbits
 814              		.align	1
 815              		.global	HAL_EXTI_IRQHandler
 816              		.syntax unified
 817              		.thumb
 818              		.thumb_func
 819              		.fpu fpv4-sp-d16
 821              	HAL_EXTI_IRQHandler:
 822              	.LVL107:
 823              	.LFB334:
 481:Drivers/STM32G4xx_HAL_Driver/Src/stm32g4xx_hal_exti.c **** 
 482:Drivers/STM32G4xx_HAL_Driver/Src/stm32g4xx_hal_exti.c **** 
 483:Drivers/STM32G4xx_HAL_Driver/Src/stm32g4xx_hal_exti.c **** /**
 484:Drivers/STM32G4xx_HAL_Driver/Src/stm32g4xx_hal_exti.c ****   * @}
 485:Drivers/STM32G4xx_HAL_Driver/Src/stm32g4xx_hal_exti.c ****   */
 486:Drivers/STM32G4xx_HAL_Driver/Src/stm32g4xx_hal_exti.c **** 
 487:Drivers/STM32G4xx_HAL_Driver/Src/stm32g4xx_hal_exti.c **** /** @addtogroup EXTI_Exported_Functions_Group2
 488:Drivers/STM32G4xx_HAL_Driver/Src/stm32g4xx_hal_exti.c ****   *  @brief EXTI IO functions.
 489:Drivers/STM32G4xx_HAL_Driver/Src/stm32g4xx_hal_exti.c ****   *
ARM GAS  C:\Users\ADMINI~1\AppData\Local\Temp\ccTAZUBl.s 			page 25


 490:Drivers/STM32G4xx_HAL_Driver/Src/stm32g4xx_hal_exti.c **** @verbatim
 491:Drivers/STM32G4xx_HAL_Driver/Src/stm32g4xx_hal_exti.c ****  ===============================================================================
 492:Drivers/STM32G4xx_HAL_Driver/Src/stm32g4xx_hal_exti.c ****                        ##### IO operation functions #####
 493:Drivers/STM32G4xx_HAL_Driver/Src/stm32g4xx_hal_exti.c ****  ===============================================================================
 494:Drivers/STM32G4xx_HAL_Driver/Src/stm32g4xx_hal_exti.c **** 
 495:Drivers/STM32G4xx_HAL_Driver/Src/stm32g4xx_hal_exti.c **** @endverbatim
 496:Drivers/STM32G4xx_HAL_Driver/Src/stm32g4xx_hal_exti.c ****   * @{
 497:Drivers/STM32G4xx_HAL_Driver/Src/stm32g4xx_hal_exti.c ****   */
 498:Drivers/STM32G4xx_HAL_Driver/Src/stm32g4xx_hal_exti.c **** 
 499:Drivers/STM32G4xx_HAL_Driver/Src/stm32g4xx_hal_exti.c **** /**
 500:Drivers/STM32G4xx_HAL_Driver/Src/stm32g4xx_hal_exti.c ****   * @brief  Handle EXTI interrupt request.
 501:Drivers/STM32G4xx_HAL_Driver/Src/stm32g4xx_hal_exti.c ****   * @param  hexti Exti handle.
 502:Drivers/STM32G4xx_HAL_Driver/Src/stm32g4xx_hal_exti.c ****   * @retval none.
 503:Drivers/STM32G4xx_HAL_Driver/Src/stm32g4xx_hal_exti.c ****   */
 504:Drivers/STM32G4xx_HAL_Driver/Src/stm32g4xx_hal_exti.c **** void HAL_EXTI_IRQHandler(EXTI_HandleTypeDef *hexti)
 505:Drivers/STM32G4xx_HAL_Driver/Src/stm32g4xx_hal_exti.c **** {
 824              		.loc 1 505 1 is_stmt 1 view -0
 825              		.cfi_startproc
 826              		@ args = 0, pretend = 0, frame = 0
 827              		@ frame_needed = 0, uses_anonymous_args = 0
 828              		.loc 1 505 1 is_stmt 0 view .LVU296
 829 0000 10B5     		push	{r4, lr}
 830              	.LCFI10:
 831              		.cfi_def_cfa_offset 8
 832              		.cfi_offset 4, -8
 833              		.cfi_offset 14, -4
 506:Drivers/STM32G4xx_HAL_Driver/Src/stm32g4xx_hal_exti.c ****   __IO uint32_t *regaddr;
 834              		.loc 1 506 3 is_stmt 1 view .LVU297
 507:Drivers/STM32G4xx_HAL_Driver/Src/stm32g4xx_hal_exti.c ****   uint32_t regval;
 835              		.loc 1 507 3 view .LVU298
 508:Drivers/STM32G4xx_HAL_Driver/Src/stm32g4xx_hal_exti.c ****   uint32_t maskline;
 836              		.loc 1 508 3 view .LVU299
 509:Drivers/STM32G4xx_HAL_Driver/Src/stm32g4xx_hal_exti.c ****   uint32_t offset;
 837              		.loc 1 509 3 view .LVU300
 510:Drivers/STM32G4xx_HAL_Driver/Src/stm32g4xx_hal_exti.c **** 
 511:Drivers/STM32G4xx_HAL_Driver/Src/stm32g4xx_hal_exti.c ****   /* Compute line register offset */
 512:Drivers/STM32G4xx_HAL_Driver/Src/stm32g4xx_hal_exti.c ****   offset = ((hexti->Line & EXTI_REG_MASK) >> EXTI_REG_SHIFT);
 838              		.loc 1 512 3 view .LVU301
 839              		.loc 1 512 19 is_stmt 0 view .LVU302
 840 0002 0368     		ldr	r3, [r0]
 841              		.loc 1 512 10 view .LVU303
 842 0004 C3F30042 		ubfx	r2, r3, #16, #1
 843              	.LVL108:
 513:Drivers/STM32G4xx_HAL_Driver/Src/stm32g4xx_hal_exti.c ****   /* compute line mask */
 514:Drivers/STM32G4xx_HAL_Driver/Src/stm32g4xx_hal_exti.c ****   maskline = (1uL << (hexti->Line & EXTI_PIN_MASK));
 844              		.loc 1 514 3 is_stmt 1 view .LVU304
 845              		.loc 1 514 35 is_stmt 0 view .LVU305
 846 0008 03F01F03 		and	r3, r3, #31
 847              		.loc 1 514 12 view .LVU306
 848 000c 0121     		movs	r1, #1
 849 000e 01FA03F3 		lsl	r3, r1, r3
 850              	.LVL109:
 515:Drivers/STM32G4xx_HAL_Driver/Src/stm32g4xx_hal_exti.c **** 
 516:Drivers/STM32G4xx_HAL_Driver/Src/stm32g4xx_hal_exti.c ****   /* Get pending bit  */
 517:Drivers/STM32G4xx_HAL_Driver/Src/stm32g4xx_hal_exti.c ****   regaddr = (&EXTI->PR1 + (EXTI_CONFIG_OFFSET * offset));
 851              		.loc 1 517 3 is_stmt 1 view .LVU307
 852              		.loc 1 517 25 is_stmt 0 view .LVU308
ARM GAS  C:\Users\ADMINI~1\AppData\Local\Temp\ccTAZUBl.s 			page 26


 853 0012 5201     		lsls	r2, r2, #5
 854              	.LVL110:
 855              		.loc 1 517 11 view .LVU309
 856 0014 0449     		ldr	r1, .L60
 857              	.LVL111:
 518:Drivers/STM32G4xx_HAL_Driver/Src/stm32g4xx_hal_exti.c ****   regval = (*regaddr & maskline);
 858              		.loc 1 518 3 is_stmt 1 view .LVU310
 859              		.loc 1 518 13 is_stmt 0 view .LVU311
 860 0016 5458     		ldr	r4, [r2, r1]
 861              	.LVL112:
 519:Drivers/STM32G4xx_HAL_Driver/Src/stm32g4xx_hal_exti.c **** 
 520:Drivers/STM32G4xx_HAL_Driver/Src/stm32g4xx_hal_exti.c ****   if (regval != 0x00u)
 862              		.loc 1 520 3 is_stmt 1 view .LVU312
 863              		.loc 1 520 6 is_stmt 0 view .LVU313
 864 0018 1C42     		tst	r4, r3
 865 001a 03D0     		beq	.L57
 521:Drivers/STM32G4xx_HAL_Driver/Src/stm32g4xx_hal_exti.c ****   {
 522:Drivers/STM32G4xx_HAL_Driver/Src/stm32g4xx_hal_exti.c ****     /* Clear pending bit */
 523:Drivers/STM32G4xx_HAL_Driver/Src/stm32g4xx_hal_exti.c ****     *regaddr = maskline;
 866              		.loc 1 523 5 is_stmt 1 view .LVU314
 867              		.loc 1 523 14 is_stmt 0 view .LVU315
 868 001c 5350     		str	r3, [r2, r1]
 869              	.LVL113:
 524:Drivers/STM32G4xx_HAL_Driver/Src/stm32g4xx_hal_exti.c **** 
 525:Drivers/STM32G4xx_HAL_Driver/Src/stm32g4xx_hal_exti.c ****     /* Call pending callback */
 526:Drivers/STM32G4xx_HAL_Driver/Src/stm32g4xx_hal_exti.c ****     if (hexti->PendingCallback != NULL)
 870              		.loc 1 526 5 is_stmt 1 view .LVU316
 871              		.loc 1 526 14 is_stmt 0 view .LVU317
 872 001e 4368     		ldr	r3, [r0, #4]
 873              	.LVL114:
 874              		.loc 1 526 8 view .LVU318
 875 0020 03B1     		cbz	r3, .L57
 527:Drivers/STM32G4xx_HAL_Driver/Src/stm32g4xx_hal_exti.c ****     {
 528:Drivers/STM32G4xx_HAL_Driver/Src/stm32g4xx_hal_exti.c ****       hexti->PendingCallback();
 876              		.loc 1 528 7 is_stmt 1 view .LVU319
 877 0022 9847     		blx	r3
 878              	.LVL115:
 879              	.L57:
 529:Drivers/STM32G4xx_HAL_Driver/Src/stm32g4xx_hal_exti.c ****     }
 530:Drivers/STM32G4xx_HAL_Driver/Src/stm32g4xx_hal_exti.c ****   }
 531:Drivers/STM32G4xx_HAL_Driver/Src/stm32g4xx_hal_exti.c **** }
 880              		.loc 1 531 1 is_stmt 0 view .LVU320
 881 0024 10BD     		pop	{r4, pc}
 882              	.L61:
 883              		.loc 1 531 1 view .LVU321
 884 0026 00BF     		.align	2
 885              	.L60:
 886 0028 14040140 		.word	1073808404
 887              		.cfi_endproc
 888              	.LFE334:
 890              		.section	.text.HAL_EXTI_GetPending,"ax",%progbits
 891              		.align	1
 892              		.global	HAL_EXTI_GetPending
 893              		.syntax unified
 894              		.thumb
 895              		.thumb_func
 896              		.fpu fpv4-sp-d16
ARM GAS  C:\Users\ADMINI~1\AppData\Local\Temp\ccTAZUBl.s 			page 27


 898              	HAL_EXTI_GetPending:
 899              	.LVL116:
 900              	.LFB335:
 532:Drivers/STM32G4xx_HAL_Driver/Src/stm32g4xx_hal_exti.c **** 
 533:Drivers/STM32G4xx_HAL_Driver/Src/stm32g4xx_hal_exti.c **** /**
 534:Drivers/STM32G4xx_HAL_Driver/Src/stm32g4xx_hal_exti.c ****   * @brief  Get interrupt pending bit of a dedicated line.
 535:Drivers/STM32G4xx_HAL_Driver/Src/stm32g4xx_hal_exti.c ****   * @param  hexti Exti handle.
 536:Drivers/STM32G4xx_HAL_Driver/Src/stm32g4xx_hal_exti.c ****   * @param  Edge unused
 537:Drivers/STM32G4xx_HAL_Driver/Src/stm32g4xx_hal_exti.c ****   * @retval 1 if interrupt is pending else 0.
 538:Drivers/STM32G4xx_HAL_Driver/Src/stm32g4xx_hal_exti.c ****   */
 539:Drivers/STM32G4xx_HAL_Driver/Src/stm32g4xx_hal_exti.c **** uint32_t HAL_EXTI_GetPending(EXTI_HandleTypeDef *hexti, uint32_t Edge)
 540:Drivers/STM32G4xx_HAL_Driver/Src/stm32g4xx_hal_exti.c **** {
 901              		.loc 1 540 1 is_stmt 1 view -0
 902              		.cfi_startproc
 903              		@ args = 0, pretend = 0, frame = 0
 904              		@ frame_needed = 0, uses_anonymous_args = 0
 905              		@ link register save eliminated.
 541:Drivers/STM32G4xx_HAL_Driver/Src/stm32g4xx_hal_exti.c ****   __IO uint32_t *regaddr;
 906              		.loc 1 541 3 view .LVU323
 542:Drivers/STM32G4xx_HAL_Driver/Src/stm32g4xx_hal_exti.c ****   uint32_t regval;
 907              		.loc 1 542 3 view .LVU324
 543:Drivers/STM32G4xx_HAL_Driver/Src/stm32g4xx_hal_exti.c ****   uint32_t linepos;
 908              		.loc 1 543 3 view .LVU325
 544:Drivers/STM32G4xx_HAL_Driver/Src/stm32g4xx_hal_exti.c ****   uint32_t maskline;
 909              		.loc 1 544 3 view .LVU326
 545:Drivers/STM32G4xx_HAL_Driver/Src/stm32g4xx_hal_exti.c ****   uint32_t offset;
 910              		.loc 1 545 3 view .LVU327
 546:Drivers/STM32G4xx_HAL_Driver/Src/stm32g4xx_hal_exti.c **** 
 547:Drivers/STM32G4xx_HAL_Driver/Src/stm32g4xx_hal_exti.c ****   /* Check parameters */
 548:Drivers/STM32G4xx_HAL_Driver/Src/stm32g4xx_hal_exti.c ****   assert_param(IS_EXTI_LINE(hexti->Line));
 911              		.loc 1 548 3 view .LVU328
 549:Drivers/STM32G4xx_HAL_Driver/Src/stm32g4xx_hal_exti.c ****   assert_param(IS_EXTI_CONFIG_LINE(hexti->Line));
 912              		.loc 1 549 3 view .LVU329
 550:Drivers/STM32G4xx_HAL_Driver/Src/stm32g4xx_hal_exti.c ****   UNUSED(Edge);
 913              		.loc 1 550 3 view .LVU330
 551:Drivers/STM32G4xx_HAL_Driver/Src/stm32g4xx_hal_exti.c **** 
 552:Drivers/STM32G4xx_HAL_Driver/Src/stm32g4xx_hal_exti.c ****   /* Compute line register offset */
 553:Drivers/STM32G4xx_HAL_Driver/Src/stm32g4xx_hal_exti.c ****   offset = ((hexti->Line & EXTI_REG_MASK) >> EXTI_REG_SHIFT);
 914              		.loc 1 553 3 view .LVU331
 915              		.loc 1 553 19 is_stmt 0 view .LVU332
 916 0000 0368     		ldr	r3, [r0]
 917              		.loc 1 553 10 view .LVU333
 918 0002 C3F30041 		ubfx	r1, r3, #16, #1
 919              	.LVL117:
 554:Drivers/STM32G4xx_HAL_Driver/Src/stm32g4xx_hal_exti.c ****   /* Compute line position */
 555:Drivers/STM32G4xx_HAL_Driver/Src/stm32g4xx_hal_exti.c ****   linepos = (hexti->Line & EXTI_PIN_MASK);
 920              		.loc 1 555 3 is_stmt 1 view .LVU334
 921              		.loc 1 555 11 is_stmt 0 view .LVU335
 922 0006 03F01F03 		and	r3, r3, #31
 923              	.LVL118:
 556:Drivers/STM32G4xx_HAL_Driver/Src/stm32g4xx_hal_exti.c ****   /* Compute line mask */
 557:Drivers/STM32G4xx_HAL_Driver/Src/stm32g4xx_hal_exti.c ****   maskline = (1uL << linepos);
 924              		.loc 1 557 3 is_stmt 1 view .LVU336
 925              		.loc 1 557 12 is_stmt 0 view .LVU337
 926 000a 0120     		movs	r0, #1
 927              	.LVL119:
 928              		.loc 1 557 12 view .LVU338
ARM GAS  C:\Users\ADMINI~1\AppData\Local\Temp\ccTAZUBl.s 			page 28


 929 000c 00FA03F2 		lsl	r2, r0, r3
 930              	.LVL120:
 558:Drivers/STM32G4xx_HAL_Driver/Src/stm32g4xx_hal_exti.c **** 
 559:Drivers/STM32G4xx_HAL_Driver/Src/stm32g4xx_hal_exti.c ****   /* Get pending bit */
 560:Drivers/STM32G4xx_HAL_Driver/Src/stm32g4xx_hal_exti.c ****   regaddr = (&EXTI->PR1 + (EXTI_CONFIG_OFFSET * offset));
 931              		.loc 1 560 3 is_stmt 1 view .LVU339
 932              		.loc 1 560 25 is_stmt 0 view .LVU340
 933 0010 4901     		lsls	r1, r1, #5
 934              	.LVL121:
 935              		.loc 1 560 11 view .LVU341
 936 0012 0248     		ldr	r0, .L63
 937              	.LVL122:
 561:Drivers/STM32G4xx_HAL_Driver/Src/stm32g4xx_hal_exti.c **** 
 562:Drivers/STM32G4xx_HAL_Driver/Src/stm32g4xx_hal_exti.c ****   /* return 1 if bit is set else 0 */
 563:Drivers/STM32G4xx_HAL_Driver/Src/stm32g4xx_hal_exti.c ****   regval = ((*regaddr & maskline) >> linepos);
 938              		.loc 1 563 3 is_stmt 1 view .LVU342
 939              		.loc 1 563 14 is_stmt 0 view .LVU343
 940 0014 0858     		ldr	r0, [r1, r0]
 941              	.LVL123:
 942              		.loc 1 563 23 view .LVU344
 943 0016 1040     		ands	r0, r0, r2
 944              	.LVL124:
 564:Drivers/STM32G4xx_HAL_Driver/Src/stm32g4xx_hal_exti.c ****   return regval;
 945              		.loc 1 564 3 is_stmt 1 view .LVU345
 565:Drivers/STM32G4xx_HAL_Driver/Src/stm32g4xx_hal_exti.c **** }
 946              		.loc 1 565 1 is_stmt 0 view .LVU346
 947 0018 D840     		lsrs	r0, r0, r3
 948              	.LVL125:
 949              		.loc 1 565 1 view .LVU347
 950 001a 7047     		bx	lr
 951              	.L64:
 952              		.align	2
 953              	.L63:
 954 001c 14040140 		.word	1073808404
 955              		.cfi_endproc
 956              	.LFE335:
 958              		.section	.text.HAL_EXTI_ClearPending,"ax",%progbits
 959              		.align	1
 960              		.global	HAL_EXTI_ClearPending
 961              		.syntax unified
 962              		.thumb
 963              		.thumb_func
 964              		.fpu fpv4-sp-d16
 966              	HAL_EXTI_ClearPending:
 967              	.LVL126:
 968              	.LFB336:
 566:Drivers/STM32G4xx_HAL_Driver/Src/stm32g4xx_hal_exti.c **** 
 567:Drivers/STM32G4xx_HAL_Driver/Src/stm32g4xx_hal_exti.c **** 
 568:Drivers/STM32G4xx_HAL_Driver/Src/stm32g4xx_hal_exti.c **** /**
 569:Drivers/STM32G4xx_HAL_Driver/Src/stm32g4xx_hal_exti.c ****   * @brief  Clear interrupt pending bit of a dedicated line.
 570:Drivers/STM32G4xx_HAL_Driver/Src/stm32g4xx_hal_exti.c ****   * @param  hexti Exti handle.
 571:Drivers/STM32G4xx_HAL_Driver/Src/stm32g4xx_hal_exti.c ****   * @param  Edge unused
 572:Drivers/STM32G4xx_HAL_Driver/Src/stm32g4xx_hal_exti.c ****   * @retval None.
 573:Drivers/STM32G4xx_HAL_Driver/Src/stm32g4xx_hal_exti.c ****   */
 574:Drivers/STM32G4xx_HAL_Driver/Src/stm32g4xx_hal_exti.c **** void HAL_EXTI_ClearPending(EXTI_HandleTypeDef *hexti, uint32_t Edge)
 575:Drivers/STM32G4xx_HAL_Driver/Src/stm32g4xx_hal_exti.c **** {
 969              		.loc 1 575 1 is_stmt 1 view -0
ARM GAS  C:\Users\ADMINI~1\AppData\Local\Temp\ccTAZUBl.s 			page 29


 970              		.cfi_startproc
 971              		@ args = 0, pretend = 0, frame = 0
 972              		@ frame_needed = 0, uses_anonymous_args = 0
 973              		@ link register save eliminated.
 576:Drivers/STM32G4xx_HAL_Driver/Src/stm32g4xx_hal_exti.c ****   __IO uint32_t *regaddr;
 974              		.loc 1 576 3 view .LVU349
 577:Drivers/STM32G4xx_HAL_Driver/Src/stm32g4xx_hal_exti.c ****   uint32_t maskline;
 975              		.loc 1 577 3 view .LVU350
 578:Drivers/STM32G4xx_HAL_Driver/Src/stm32g4xx_hal_exti.c ****   uint32_t offset;
 976              		.loc 1 578 3 view .LVU351
 579:Drivers/STM32G4xx_HAL_Driver/Src/stm32g4xx_hal_exti.c **** 
 580:Drivers/STM32G4xx_HAL_Driver/Src/stm32g4xx_hal_exti.c ****   /* Check parameters */
 581:Drivers/STM32G4xx_HAL_Driver/Src/stm32g4xx_hal_exti.c ****   assert_param(IS_EXTI_LINE(hexti->Line));
 977              		.loc 1 581 3 view .LVU352
 582:Drivers/STM32G4xx_HAL_Driver/Src/stm32g4xx_hal_exti.c ****   assert_param(IS_EXTI_CONFIG_LINE(hexti->Line));
 978              		.loc 1 582 3 view .LVU353
 583:Drivers/STM32G4xx_HAL_Driver/Src/stm32g4xx_hal_exti.c ****   UNUSED(Edge);
 979              		.loc 1 583 3 view .LVU354
 584:Drivers/STM32G4xx_HAL_Driver/Src/stm32g4xx_hal_exti.c **** 
 585:Drivers/STM32G4xx_HAL_Driver/Src/stm32g4xx_hal_exti.c ****   /* Compute line register offset */
 586:Drivers/STM32G4xx_HAL_Driver/Src/stm32g4xx_hal_exti.c ****   offset = ((hexti->Line & EXTI_REG_MASK) >> EXTI_REG_SHIFT);
 980              		.loc 1 586 3 view .LVU355
 981              		.loc 1 586 19 is_stmt 0 view .LVU356
 982 0000 0368     		ldr	r3, [r0]
 983              		.loc 1 586 10 view .LVU357
 984 0002 C3F30042 		ubfx	r2, r3, #16, #1
 985              	.LVL127:
 587:Drivers/STM32G4xx_HAL_Driver/Src/stm32g4xx_hal_exti.c ****   /* Compute line mask */
 588:Drivers/STM32G4xx_HAL_Driver/Src/stm32g4xx_hal_exti.c ****   maskline = (1uL << (hexti->Line & EXTI_PIN_MASK));
 986              		.loc 1 588 3 is_stmt 1 view .LVU358
 987              		.loc 1 588 35 is_stmt 0 view .LVU359
 988 0006 03F01F03 		and	r3, r3, #31
 989              		.loc 1 588 12 view .LVU360
 990 000a 0121     		movs	r1, #1
 991              	.LVL128:
 992              		.loc 1 588 12 view .LVU361
 993 000c 01FA03F3 		lsl	r3, r1, r3
 994              	.LVL129:
 589:Drivers/STM32G4xx_HAL_Driver/Src/stm32g4xx_hal_exti.c **** 
 590:Drivers/STM32G4xx_HAL_Driver/Src/stm32g4xx_hal_exti.c ****   /* Get pending register address */
 591:Drivers/STM32G4xx_HAL_Driver/Src/stm32g4xx_hal_exti.c ****   regaddr = (&EXTI->PR1 + (EXTI_CONFIG_OFFSET * offset));
 995              		.loc 1 591 3 is_stmt 1 view .LVU362
 996              		.loc 1 591 25 is_stmt 0 view .LVU363
 997 0010 5201     		lsls	r2, r2, #5
 998              	.LVL130:
 999              		.loc 1 591 11 view .LVU364
 1000 0012 0149     		ldr	r1, .L66
 1001              	.LVL131:
 592:Drivers/STM32G4xx_HAL_Driver/Src/stm32g4xx_hal_exti.c **** 
 593:Drivers/STM32G4xx_HAL_Driver/Src/stm32g4xx_hal_exti.c ****   /* Clear Pending bit */
 594:Drivers/STM32G4xx_HAL_Driver/Src/stm32g4xx_hal_exti.c ****   *regaddr =  maskline;
 1002              		.loc 1 594 3 is_stmt 1 view .LVU365
 1003              		.loc 1 594 12 is_stmt 0 view .LVU366
 1004 0014 5350     		str	r3, [r2, r1]
 1005              	.LVL132:
 595:Drivers/STM32G4xx_HAL_Driver/Src/stm32g4xx_hal_exti.c **** }
 1006              		.loc 1 595 1 view .LVU367
ARM GAS  C:\Users\ADMINI~1\AppData\Local\Temp\ccTAZUBl.s 			page 30


 1007 0016 7047     		bx	lr
 1008              	.L67:
 1009              		.align	2
 1010              	.L66:
 1011 0018 14040140 		.word	1073808404
 1012              		.cfi_endproc
 1013              	.LFE336:
 1015              		.section	.text.HAL_EXTI_GenerateSWI,"ax",%progbits
 1016              		.align	1
 1017              		.global	HAL_EXTI_GenerateSWI
 1018              		.syntax unified
 1019              		.thumb
 1020              		.thumb_func
 1021              		.fpu fpv4-sp-d16
 1023              	HAL_EXTI_GenerateSWI:
 1024              	.LVL133:
 1025              	.LFB337:
 596:Drivers/STM32G4xx_HAL_Driver/Src/stm32g4xx_hal_exti.c **** 
 597:Drivers/STM32G4xx_HAL_Driver/Src/stm32g4xx_hal_exti.c **** 
 598:Drivers/STM32G4xx_HAL_Driver/Src/stm32g4xx_hal_exti.c **** /**
 599:Drivers/STM32G4xx_HAL_Driver/Src/stm32g4xx_hal_exti.c ****   * @brief  Generate a software interrupt for a dedicated line.
 600:Drivers/STM32G4xx_HAL_Driver/Src/stm32g4xx_hal_exti.c ****   * @param  hexti Exti handle.
 601:Drivers/STM32G4xx_HAL_Driver/Src/stm32g4xx_hal_exti.c ****   * @retval None.
 602:Drivers/STM32G4xx_HAL_Driver/Src/stm32g4xx_hal_exti.c ****   */
 603:Drivers/STM32G4xx_HAL_Driver/Src/stm32g4xx_hal_exti.c **** void HAL_EXTI_GenerateSWI(EXTI_HandleTypeDef *hexti)
 604:Drivers/STM32G4xx_HAL_Driver/Src/stm32g4xx_hal_exti.c **** {
 1026              		.loc 1 604 1 is_stmt 1 view -0
 1027              		.cfi_startproc
 1028              		@ args = 0, pretend = 0, frame = 0
 1029              		@ frame_needed = 0, uses_anonymous_args = 0
 1030              		@ link register save eliminated.
 605:Drivers/STM32G4xx_HAL_Driver/Src/stm32g4xx_hal_exti.c ****   __IO uint32_t *regaddr;
 1031              		.loc 1 605 3 view .LVU369
 606:Drivers/STM32G4xx_HAL_Driver/Src/stm32g4xx_hal_exti.c ****   uint32_t maskline;
 1032              		.loc 1 606 3 view .LVU370
 607:Drivers/STM32G4xx_HAL_Driver/Src/stm32g4xx_hal_exti.c ****   uint32_t offset;
 1033              		.loc 1 607 3 view .LVU371
 608:Drivers/STM32G4xx_HAL_Driver/Src/stm32g4xx_hal_exti.c **** 
 609:Drivers/STM32G4xx_HAL_Driver/Src/stm32g4xx_hal_exti.c ****   /* Check parameter */
 610:Drivers/STM32G4xx_HAL_Driver/Src/stm32g4xx_hal_exti.c ****   assert_param(IS_EXTI_LINE(hexti->Line));
 1034              		.loc 1 610 3 view .LVU372
 611:Drivers/STM32G4xx_HAL_Driver/Src/stm32g4xx_hal_exti.c ****   assert_param(IS_EXTI_CONFIG_LINE(hexti->Line));
 1035              		.loc 1 611 3 view .LVU373
 612:Drivers/STM32G4xx_HAL_Driver/Src/stm32g4xx_hal_exti.c **** 
 613:Drivers/STM32G4xx_HAL_Driver/Src/stm32g4xx_hal_exti.c ****   /* compute line register offset */
 614:Drivers/STM32G4xx_HAL_Driver/Src/stm32g4xx_hal_exti.c ****   offset = ((hexti->Line & EXTI_REG_MASK) >> EXTI_REG_SHIFT);
 1036              		.loc 1 614 3 view .LVU374
 1037              		.loc 1 614 19 is_stmt 0 view .LVU375
 1038 0000 0368     		ldr	r3, [r0]
 1039              		.loc 1 614 10 view .LVU376
 1040 0002 C3F30042 		ubfx	r2, r3, #16, #1
 1041              	.LVL134:
 615:Drivers/STM32G4xx_HAL_Driver/Src/stm32g4xx_hal_exti.c ****   /* compute line mask */
 616:Drivers/STM32G4xx_HAL_Driver/Src/stm32g4xx_hal_exti.c ****   maskline = (1uL << (hexti->Line & EXTI_PIN_MASK));
 1042              		.loc 1 616 3 is_stmt 1 view .LVU377
 1043              		.loc 1 616 35 is_stmt 0 view .LVU378
 1044 0006 03F01F03 		and	r3, r3, #31
ARM GAS  C:\Users\ADMINI~1\AppData\Local\Temp\ccTAZUBl.s 			page 31


 1045              		.loc 1 616 12 view .LVU379
 1046 000a 0121     		movs	r1, #1
 1047 000c 01FA03F3 		lsl	r3, r1, r3
 1048              	.LVL135:
 617:Drivers/STM32G4xx_HAL_Driver/Src/stm32g4xx_hal_exti.c **** 
 618:Drivers/STM32G4xx_HAL_Driver/Src/stm32g4xx_hal_exti.c ****   regaddr = (&EXTI->SWIER1 + (EXTI_CONFIG_OFFSET * offset));
 1049              		.loc 1 618 3 is_stmt 1 view .LVU380
 1050              		.loc 1 618 28 is_stmt 0 view .LVU381
 1051 0010 5201     		lsls	r2, r2, #5
 1052              	.LVL136:
 1053              		.loc 1 618 11 view .LVU382
 1054 0012 0149     		ldr	r1, .L69
 1055              	.LVL137:
 619:Drivers/STM32G4xx_HAL_Driver/Src/stm32g4xx_hal_exti.c ****   *regaddr = maskline;
 1056              		.loc 1 619 3 is_stmt 1 view .LVU383
 1057              		.loc 1 619 12 is_stmt 0 view .LVU384
 1058 0014 5350     		str	r3, [r2, r1]
 1059              	.LVL138:
 620:Drivers/STM32G4xx_HAL_Driver/Src/stm32g4xx_hal_exti.c **** }
 1060              		.loc 1 620 1 view .LVU385
 1061 0016 7047     		bx	lr
 1062              	.L70:
 1063              		.align	2
 1064              	.L69:
 1065 0018 10040140 		.word	1073808400
 1066              		.cfi_endproc
 1067              	.LFE337:
 1069              		.text
 1070              	.Letext0:
 1071              		.file 2 "d:\\program files (x86)\\gcc-arm-none-eabi-10-2020-q4-major-win32\\tool\\arm-none-eabi\\i
 1072              		.file 3 "d:\\program files (x86)\\gcc-arm-none-eabi-10-2020-q4-major-win32\\tool\\arm-none-eabi\\i
 1073              		.file 4 "Drivers/CMSIS/Device/ST/STM32G4xx/Include/stm32g431xx.h"
 1074              		.file 5 "Drivers/STM32G4xx_HAL_Driver/Inc/stm32g4xx_hal_def.h"
 1075              		.file 6 "Drivers/STM32G4xx_HAL_Driver/Inc/stm32g4xx_hal_exti.h"
ARM GAS  C:\Users\ADMINI~1\AppData\Local\Temp\ccTAZUBl.s 			page 32

