ARM GAS  C:\Users\57308\AppData\Local\Temp\ccqGNF8F.s 			page 1


   1              		.cpu cortex-m4
   2              		.arch armv7e-m
   3              		.fpu fpv4-sp-d16
   4              		.eabi_attribute 27, 1
   5              		.eabi_attribute 28, 1
   6              		.eabi_attribute 20, 1
   7              		.eabi_attribute 21, 1
   8              		.eabi_attribute 23, 3
   9              		.eabi_attribute 24, 1
  10              		.eabi_attribute 25, 1
  11              		.eabi_attribute 26, 1
  12              		.eabi_attribute 30, 1
  13              		.eabi_attribute 34, 1
  14              		.eabi_attribute 18, 4
  15              		.file	"stm32g4xx_hal_pwr_ex.c"
  16              		.text
  17              	.Ltext0:
  18              		.cfi_sections	.debug_frame
  19              		.section	.text.HAL_PWREx_GetVoltageRange,"ax",%progbits
  20              		.align	1
  21              		.global	HAL_PWREx_GetVoltageRange
  22              		.syntax unified
  23              		.thumb
  24              		.thumb_func
  26              	HAL_PWREx_GetVoltageRange:
  27              	.LFB329:
  28              		.file 1 "Drivers/STM32G4xx_HAL_Driver/Src/stm32g4xx_hal_pwr_ex.c"
   1:Drivers/STM32G4xx_HAL_Driver/Src/stm32g4xx_hal_pwr_ex.c **** /**
   2:Drivers/STM32G4xx_HAL_Driver/Src/stm32g4xx_hal_pwr_ex.c ****   ******************************************************************************
   3:Drivers/STM32G4xx_HAL_Driver/Src/stm32g4xx_hal_pwr_ex.c ****   * @file    stm32g4xx_hal_pwr_ex.c
   4:Drivers/STM32G4xx_HAL_Driver/Src/stm32g4xx_hal_pwr_ex.c ****   * @author  MCD Application Team
   5:Drivers/STM32G4xx_HAL_Driver/Src/stm32g4xx_hal_pwr_ex.c ****   * @brief   Extended PWR HAL module driver.
   6:Drivers/STM32G4xx_HAL_Driver/Src/stm32g4xx_hal_pwr_ex.c ****   *          This file provides firmware functions to manage the following
   7:Drivers/STM32G4xx_HAL_Driver/Src/stm32g4xx_hal_pwr_ex.c ****   *          functionalities of the Power Controller (PWR) peripheral:
   8:Drivers/STM32G4xx_HAL_Driver/Src/stm32g4xx_hal_pwr_ex.c ****   *           + Extended Initialization and de-initialization functions
   9:Drivers/STM32G4xx_HAL_Driver/Src/stm32g4xx_hal_pwr_ex.c ****   *           + Extended Peripheral Control functions
  10:Drivers/STM32G4xx_HAL_Driver/Src/stm32g4xx_hal_pwr_ex.c ****   *
  11:Drivers/STM32G4xx_HAL_Driver/Src/stm32g4xx_hal_pwr_ex.c ****   ******************************************************************************
  12:Drivers/STM32G4xx_HAL_Driver/Src/stm32g4xx_hal_pwr_ex.c ****   * @attention
  13:Drivers/STM32G4xx_HAL_Driver/Src/stm32g4xx_hal_pwr_ex.c ****   *
  14:Drivers/STM32G4xx_HAL_Driver/Src/stm32g4xx_hal_pwr_ex.c ****   * Copyright (c) 2019 STMicroelectronics.
  15:Drivers/STM32G4xx_HAL_Driver/Src/stm32g4xx_hal_pwr_ex.c ****   * All rights reserved.
  16:Drivers/STM32G4xx_HAL_Driver/Src/stm32g4xx_hal_pwr_ex.c ****   *
  17:Drivers/STM32G4xx_HAL_Driver/Src/stm32g4xx_hal_pwr_ex.c ****   * This software is licensed under terms that can be found in the LICENSE file
  18:Drivers/STM32G4xx_HAL_Driver/Src/stm32g4xx_hal_pwr_ex.c ****   * in the root directory of this software component.
  19:Drivers/STM32G4xx_HAL_Driver/Src/stm32g4xx_hal_pwr_ex.c ****   * If no LICENSE file comes with this software, it is provided AS-IS.
  20:Drivers/STM32G4xx_HAL_Driver/Src/stm32g4xx_hal_pwr_ex.c ****   *
  21:Drivers/STM32G4xx_HAL_Driver/Src/stm32g4xx_hal_pwr_ex.c ****   ******************************************************************************
  22:Drivers/STM32G4xx_HAL_Driver/Src/stm32g4xx_hal_pwr_ex.c ****   */
  23:Drivers/STM32G4xx_HAL_Driver/Src/stm32g4xx_hal_pwr_ex.c **** 
  24:Drivers/STM32G4xx_HAL_Driver/Src/stm32g4xx_hal_pwr_ex.c **** /* Includes ------------------------------------------------------------------*/
  25:Drivers/STM32G4xx_HAL_Driver/Src/stm32g4xx_hal_pwr_ex.c **** #include "stm32g4xx_hal.h"
  26:Drivers/STM32G4xx_HAL_Driver/Src/stm32g4xx_hal_pwr_ex.c **** 
  27:Drivers/STM32G4xx_HAL_Driver/Src/stm32g4xx_hal_pwr_ex.c **** /** @addtogroup STM32G4xx_HAL_Driver
  28:Drivers/STM32G4xx_HAL_Driver/Src/stm32g4xx_hal_pwr_ex.c ****   * @{
  29:Drivers/STM32G4xx_HAL_Driver/Src/stm32g4xx_hal_pwr_ex.c ****   */
  30:Drivers/STM32G4xx_HAL_Driver/Src/stm32g4xx_hal_pwr_ex.c **** 
ARM GAS  C:\Users\57308\AppData\Local\Temp\ccqGNF8F.s 			page 2


  31:Drivers/STM32G4xx_HAL_Driver/Src/stm32g4xx_hal_pwr_ex.c **** /** @defgroup PWREx PWREx
  32:Drivers/STM32G4xx_HAL_Driver/Src/stm32g4xx_hal_pwr_ex.c ****   * @brief PWR Extended HAL module driver
  33:Drivers/STM32G4xx_HAL_Driver/Src/stm32g4xx_hal_pwr_ex.c ****   * @{
  34:Drivers/STM32G4xx_HAL_Driver/Src/stm32g4xx_hal_pwr_ex.c ****   */
  35:Drivers/STM32G4xx_HAL_Driver/Src/stm32g4xx_hal_pwr_ex.c **** 
  36:Drivers/STM32G4xx_HAL_Driver/Src/stm32g4xx_hal_pwr_ex.c **** #ifdef HAL_PWR_MODULE_ENABLED
  37:Drivers/STM32G4xx_HAL_Driver/Src/stm32g4xx_hal_pwr_ex.c **** 
  38:Drivers/STM32G4xx_HAL_Driver/Src/stm32g4xx_hal_pwr_ex.c **** /* Private typedef -----------------------------------------------------------*/
  39:Drivers/STM32G4xx_HAL_Driver/Src/stm32g4xx_hal_pwr_ex.c **** /* Private define ------------------------------------------------------------*/
  40:Drivers/STM32G4xx_HAL_Driver/Src/stm32g4xx_hal_pwr_ex.c **** 
  41:Drivers/STM32G4xx_HAL_Driver/Src/stm32g4xx_hal_pwr_ex.c **** 
  42:Drivers/STM32G4xx_HAL_Driver/Src/stm32g4xx_hal_pwr_ex.c **** #if defined (STM32G471xx) || defined (STM32G473xx) || defined (STM32G474xx) || defined (STM32G483xx
  43:Drivers/STM32G4xx_HAL_Driver/Src/stm32g4xx_hal_pwr_ex.c **** #define PWR_PORTF_AVAILABLE_PINS   0x0000FFFFU /* PF0..PF15 */
  44:Drivers/STM32G4xx_HAL_Driver/Src/stm32g4xx_hal_pwr_ex.c **** #define PWR_PORTG_AVAILABLE_PINS   0x000007FFU /* PG0..PG10 */
  45:Drivers/STM32G4xx_HAL_Driver/Src/stm32g4xx_hal_pwr_ex.c **** #elif defined (STM32G431xx) || defined (STM32G441xx) || defined (STM32GBK1CB) || defined (STM32G491
  46:Drivers/STM32G4xx_HAL_Driver/Src/stm32g4xx_hal_pwr_ex.c **** #define PWR_PORTF_AVAILABLE_PINS   0x00000607U /* PF0..PF2 and PF9 and PF10 */
  47:Drivers/STM32G4xx_HAL_Driver/Src/stm32g4xx_hal_pwr_ex.c **** #define PWR_PORTG_AVAILABLE_PINS   0x00000400U /* PG10 */
  48:Drivers/STM32G4xx_HAL_Driver/Src/stm32g4xx_hal_pwr_ex.c **** #endif
  49:Drivers/STM32G4xx_HAL_Driver/Src/stm32g4xx_hal_pwr_ex.c **** 
  50:Drivers/STM32G4xx_HAL_Driver/Src/stm32g4xx_hal_pwr_ex.c **** /** @defgroup PWR_Extended_Private_Defines PWR Extended Private Defines
  51:Drivers/STM32G4xx_HAL_Driver/Src/stm32g4xx_hal_pwr_ex.c ****   * @{
  52:Drivers/STM32G4xx_HAL_Driver/Src/stm32g4xx_hal_pwr_ex.c ****   */
  53:Drivers/STM32G4xx_HAL_Driver/Src/stm32g4xx_hal_pwr_ex.c **** 
  54:Drivers/STM32G4xx_HAL_Driver/Src/stm32g4xx_hal_pwr_ex.c **** /** @defgroup PWREx_PVM_Mode_Mask PWR PVM Mode Mask
  55:Drivers/STM32G4xx_HAL_Driver/Src/stm32g4xx_hal_pwr_ex.c ****   * @{
  56:Drivers/STM32G4xx_HAL_Driver/Src/stm32g4xx_hal_pwr_ex.c ****   */
  57:Drivers/STM32G4xx_HAL_Driver/Src/stm32g4xx_hal_pwr_ex.c **** #define PVM_MODE_IT               0x00010000U    /*!< Mask for interruption yielded by PVM threshol
  58:Drivers/STM32G4xx_HAL_Driver/Src/stm32g4xx_hal_pwr_ex.c **** #define PVM_MODE_EVT              0x00020000U    /*!< Mask for event yielded by PVM threshold cross
  59:Drivers/STM32G4xx_HAL_Driver/Src/stm32g4xx_hal_pwr_ex.c **** #define PVM_RISING_EDGE           0x00000001U    /*!< Mask for rising edge set as PVM trigger      
  60:Drivers/STM32G4xx_HAL_Driver/Src/stm32g4xx_hal_pwr_ex.c **** #define PVM_FALLING_EDGE          0x00000002U    /*!< Mask for falling edge set as PVM trigger     
  61:Drivers/STM32G4xx_HAL_Driver/Src/stm32g4xx_hal_pwr_ex.c **** /**
  62:Drivers/STM32G4xx_HAL_Driver/Src/stm32g4xx_hal_pwr_ex.c ****   * @}
  63:Drivers/STM32G4xx_HAL_Driver/Src/stm32g4xx_hal_pwr_ex.c ****   */
  64:Drivers/STM32G4xx_HAL_Driver/Src/stm32g4xx_hal_pwr_ex.c **** 
  65:Drivers/STM32G4xx_HAL_Driver/Src/stm32g4xx_hal_pwr_ex.c **** /** @defgroup PWREx_TimeOut_Value PWR Extended Flag Setting Time Out Value
  66:Drivers/STM32G4xx_HAL_Driver/Src/stm32g4xx_hal_pwr_ex.c ****   * @{
  67:Drivers/STM32G4xx_HAL_Driver/Src/stm32g4xx_hal_pwr_ex.c ****   */
  68:Drivers/STM32G4xx_HAL_Driver/Src/stm32g4xx_hal_pwr_ex.c **** #define PWR_FLAG_SETTING_DELAY_US                      50UL   /*!< Time out value for REGLPF and VO
  69:Drivers/STM32G4xx_HAL_Driver/Src/stm32g4xx_hal_pwr_ex.c **** /**
  70:Drivers/STM32G4xx_HAL_Driver/Src/stm32g4xx_hal_pwr_ex.c ****   * @}
  71:Drivers/STM32G4xx_HAL_Driver/Src/stm32g4xx_hal_pwr_ex.c ****   */
  72:Drivers/STM32G4xx_HAL_Driver/Src/stm32g4xx_hal_pwr_ex.c **** 
  73:Drivers/STM32G4xx_HAL_Driver/Src/stm32g4xx_hal_pwr_ex.c **** 
  74:Drivers/STM32G4xx_HAL_Driver/Src/stm32g4xx_hal_pwr_ex.c **** 
  75:Drivers/STM32G4xx_HAL_Driver/Src/stm32g4xx_hal_pwr_ex.c **** /**
  76:Drivers/STM32G4xx_HAL_Driver/Src/stm32g4xx_hal_pwr_ex.c ****   * @}
  77:Drivers/STM32G4xx_HAL_Driver/Src/stm32g4xx_hal_pwr_ex.c ****   */
  78:Drivers/STM32G4xx_HAL_Driver/Src/stm32g4xx_hal_pwr_ex.c **** 
  79:Drivers/STM32G4xx_HAL_Driver/Src/stm32g4xx_hal_pwr_ex.c **** 
  80:Drivers/STM32G4xx_HAL_Driver/Src/stm32g4xx_hal_pwr_ex.c **** 
  81:Drivers/STM32G4xx_HAL_Driver/Src/stm32g4xx_hal_pwr_ex.c **** /* Private macro -------------------------------------------------------------*/
  82:Drivers/STM32G4xx_HAL_Driver/Src/stm32g4xx_hal_pwr_ex.c **** /* Private variables ---------------------------------------------------------*/
  83:Drivers/STM32G4xx_HAL_Driver/Src/stm32g4xx_hal_pwr_ex.c **** /* Private function prototypes -----------------------------------------------*/
  84:Drivers/STM32G4xx_HAL_Driver/Src/stm32g4xx_hal_pwr_ex.c **** /* Exported functions --------------------------------------------------------*/
  85:Drivers/STM32G4xx_HAL_Driver/Src/stm32g4xx_hal_pwr_ex.c **** 
  86:Drivers/STM32G4xx_HAL_Driver/Src/stm32g4xx_hal_pwr_ex.c **** /** @defgroup PWREx_Exported_Functions PWR Extended Exported Functions
  87:Drivers/STM32G4xx_HAL_Driver/Src/stm32g4xx_hal_pwr_ex.c ****   * @{
ARM GAS  C:\Users\57308\AppData\Local\Temp\ccqGNF8F.s 			page 3


  88:Drivers/STM32G4xx_HAL_Driver/Src/stm32g4xx_hal_pwr_ex.c ****   */
  89:Drivers/STM32G4xx_HAL_Driver/Src/stm32g4xx_hal_pwr_ex.c **** 
  90:Drivers/STM32G4xx_HAL_Driver/Src/stm32g4xx_hal_pwr_ex.c **** /** @defgroup PWREx_Exported_Functions_Group1 Extended Peripheral Control functions
  91:Drivers/STM32G4xx_HAL_Driver/Src/stm32g4xx_hal_pwr_ex.c ****   *  @brief   Extended Peripheral Control functions
  92:Drivers/STM32G4xx_HAL_Driver/Src/stm32g4xx_hal_pwr_ex.c ****   *
  93:Drivers/STM32G4xx_HAL_Driver/Src/stm32g4xx_hal_pwr_ex.c **** @verbatim
  94:Drivers/STM32G4xx_HAL_Driver/Src/stm32g4xx_hal_pwr_ex.c ****  ===============================================================================
  95:Drivers/STM32G4xx_HAL_Driver/Src/stm32g4xx_hal_pwr_ex.c ****               ##### Extended Peripheral Initialization and de-initialization functions #####
  96:Drivers/STM32G4xx_HAL_Driver/Src/stm32g4xx_hal_pwr_ex.c ****  ===============================================================================
  97:Drivers/STM32G4xx_HAL_Driver/Src/stm32g4xx_hal_pwr_ex.c ****     [..]
  98:Drivers/STM32G4xx_HAL_Driver/Src/stm32g4xx_hal_pwr_ex.c **** 
  99:Drivers/STM32G4xx_HAL_Driver/Src/stm32g4xx_hal_pwr_ex.c **** @endverbatim
 100:Drivers/STM32G4xx_HAL_Driver/Src/stm32g4xx_hal_pwr_ex.c ****   * @{
 101:Drivers/STM32G4xx_HAL_Driver/Src/stm32g4xx_hal_pwr_ex.c ****   */
 102:Drivers/STM32G4xx_HAL_Driver/Src/stm32g4xx_hal_pwr_ex.c **** 
 103:Drivers/STM32G4xx_HAL_Driver/Src/stm32g4xx_hal_pwr_ex.c **** 
 104:Drivers/STM32G4xx_HAL_Driver/Src/stm32g4xx_hal_pwr_ex.c **** /**
 105:Drivers/STM32G4xx_HAL_Driver/Src/stm32g4xx_hal_pwr_ex.c ****   * @brief Return Voltage Scaling Range.
 106:Drivers/STM32G4xx_HAL_Driver/Src/stm32g4xx_hal_pwr_ex.c ****   * @retval VOS bit field (PWR_REGULATOR_VOLTAGE_SCALE1 or PWR_REGULATOR_VOLTAGE_SCALE2
 107:Drivers/STM32G4xx_HAL_Driver/Src/stm32g4xx_hal_pwr_ex.c ****   *         or PWR_REGULATOR_VOLTAGE_SCALE1_BOOST when applicable)
 108:Drivers/STM32G4xx_HAL_Driver/Src/stm32g4xx_hal_pwr_ex.c ****   */
 109:Drivers/STM32G4xx_HAL_Driver/Src/stm32g4xx_hal_pwr_ex.c **** uint32_t HAL_PWREx_GetVoltageRange(void)
 110:Drivers/STM32G4xx_HAL_Driver/Src/stm32g4xx_hal_pwr_ex.c **** {
  29              		.loc 1 110 1 view -0
  30              		.cfi_startproc
  31              		@ args = 0, pretend = 0, frame = 0
  32              		@ frame_needed = 0, uses_anonymous_args = 0
  33              		@ link register save eliminated.
 111:Drivers/STM32G4xx_HAL_Driver/Src/stm32g4xx_hal_pwr_ex.c ****   if (READ_BIT(PWR->CR1, PWR_CR1_VOS) == PWR_REGULATOR_VOLTAGE_SCALE2)
  34              		.loc 1 111 3 view .LVU1
  35              		.loc 1 111 7 is_stmt 0 view .LVU2
  36 0000 074B     		ldr	r3, .L4
  37 0002 1868     		ldr	r0, [r3]
  38 0004 00F4C060 		and	r0, r0, #1536
  39              		.loc 1 111 6 view .LVU3
  40 0008 B0F5806F 		cmp	r0, #1024
  41 000c 04D0     		beq	.L1
 112:Drivers/STM32G4xx_HAL_Driver/Src/stm32g4xx_hal_pwr_ex.c ****   {
 113:Drivers/STM32G4xx_HAL_Driver/Src/stm32g4xx_hal_pwr_ex.c ****     return PWR_REGULATOR_VOLTAGE_SCALE2;
 114:Drivers/STM32G4xx_HAL_Driver/Src/stm32g4xx_hal_pwr_ex.c ****   }
 115:Drivers/STM32G4xx_HAL_Driver/Src/stm32g4xx_hal_pwr_ex.c ****   else if (READ_BIT(PWR->CR5, PWR_CR5_R1MODE) == PWR_CR5_R1MODE)
  42              		.loc 1 115 8 is_stmt 1 view .LVU4
  43              		.loc 1 115 12 is_stmt 0 view .LVU5
  44 000e D3F88000 		ldr	r0, [r3, #128]
  45              		.loc 1 115 11 view .LVU6
  46 0012 10F48070 		ands	r0, r0, #256
  47 0016 00D1     		bne	.L3
  48              	.L1:
 116:Drivers/STM32G4xx_HAL_Driver/Src/stm32g4xx_hal_pwr_ex.c ****   {
 117:Drivers/STM32G4xx_HAL_Driver/Src/stm32g4xx_hal_pwr_ex.c ****     /* PWR_CR5_R1MODE bit set means that Range 1 Boost is disabled */
 118:Drivers/STM32G4xx_HAL_Driver/Src/stm32g4xx_hal_pwr_ex.c ****     return PWR_REGULATOR_VOLTAGE_SCALE1;
 119:Drivers/STM32G4xx_HAL_Driver/Src/stm32g4xx_hal_pwr_ex.c ****   }
 120:Drivers/STM32G4xx_HAL_Driver/Src/stm32g4xx_hal_pwr_ex.c ****   else
 121:Drivers/STM32G4xx_HAL_Driver/Src/stm32g4xx_hal_pwr_ex.c ****   {
 122:Drivers/STM32G4xx_HAL_Driver/Src/stm32g4xx_hal_pwr_ex.c ****     return PWR_REGULATOR_VOLTAGE_SCALE1_BOOST;
 123:Drivers/STM32G4xx_HAL_Driver/Src/stm32g4xx_hal_pwr_ex.c ****   }
 124:Drivers/STM32G4xx_HAL_Driver/Src/stm32g4xx_hal_pwr_ex.c **** }
ARM GAS  C:\Users\57308\AppData\Local\Temp\ccqGNF8F.s 			page 4


  49              		.loc 1 124 1 view .LVU7
  50 0018 7047     		bx	lr
  51              	.L3:
 118:Drivers/STM32G4xx_HAL_Driver/Src/stm32g4xx_hal_pwr_ex.c ****   }
  52              		.loc 1 118 12 view .LVU8
  53 001a 4FF40070 		mov	r0, #512
  54 001e FBE7     		b	.L1
  55              	.L5:
  56              		.align	2
  57              	.L4:
  58 0020 00700040 		.word	1073770496
  59              		.cfi_endproc
  60              	.LFE329:
  62              		.section	.text.HAL_PWREx_ControlVoltageScaling,"ax",%progbits
  63              		.align	1
  64              		.global	HAL_PWREx_ControlVoltageScaling
  65              		.syntax unified
  66              		.thumb
  67              		.thumb_func
  69              	HAL_PWREx_ControlVoltageScaling:
  70              	.LVL0:
  71              	.LFB330:
 125:Drivers/STM32G4xx_HAL_Driver/Src/stm32g4xx_hal_pwr_ex.c **** 
 126:Drivers/STM32G4xx_HAL_Driver/Src/stm32g4xx_hal_pwr_ex.c **** 
 127:Drivers/STM32G4xx_HAL_Driver/Src/stm32g4xx_hal_pwr_ex.c **** 
 128:Drivers/STM32G4xx_HAL_Driver/Src/stm32g4xx_hal_pwr_ex.c **** /**
 129:Drivers/STM32G4xx_HAL_Driver/Src/stm32g4xx_hal_pwr_ex.c ****   * @brief Configure the main internal regulator output voltage.
 130:Drivers/STM32G4xx_HAL_Driver/Src/stm32g4xx_hal_pwr_ex.c ****   * @param  VoltageScaling: specifies the regulator output voltage to achieve
 131:Drivers/STM32G4xx_HAL_Driver/Src/stm32g4xx_hal_pwr_ex.c ****   *         a tradeoff between performance and power consumption.
 132:Drivers/STM32G4xx_HAL_Driver/Src/stm32g4xx_hal_pwr_ex.c ****   *          This parameter can be one of the following values:
 133:Drivers/STM32G4xx_HAL_Driver/Src/stm32g4xx_hal_pwr_ex.c ****   *            @arg @ref PWR_REGULATOR_VOLTAGE_SCALE1_BOOST when available, Regulator voltage outpu
 134:Drivers/STM32G4xx_HAL_Driver/Src/stm32g4xx_hal_pwr_ex.c ****   *                                                typical output voltage at 1.28 V,
 135:Drivers/STM32G4xx_HAL_Driver/Src/stm32g4xx_hal_pwr_ex.c ****   *                                                system frequency up to 170 MHz.
 136:Drivers/STM32G4xx_HAL_Driver/Src/stm32g4xx_hal_pwr_ex.c ****   *            @arg @ref PWR_REGULATOR_VOLTAGE_SCALE1 Regulator voltage output range 1 mode,
 137:Drivers/STM32G4xx_HAL_Driver/Src/stm32g4xx_hal_pwr_ex.c ****   *                                                typical output voltage at 1.2 V,
 138:Drivers/STM32G4xx_HAL_Driver/Src/stm32g4xx_hal_pwr_ex.c ****   *                                                system frequency up to 150 MHz.
 139:Drivers/STM32G4xx_HAL_Driver/Src/stm32g4xx_hal_pwr_ex.c ****   *            @arg @ref PWR_REGULATOR_VOLTAGE_SCALE2 Regulator voltage output range 2 mode,
 140:Drivers/STM32G4xx_HAL_Driver/Src/stm32g4xx_hal_pwr_ex.c ****   *                                                typical output voltage at 1.0 V,
 141:Drivers/STM32G4xx_HAL_Driver/Src/stm32g4xx_hal_pwr_ex.c ****   *                                                system frequency up to 26 MHz.
 142:Drivers/STM32G4xx_HAL_Driver/Src/stm32g4xx_hal_pwr_ex.c ****   * @note  When moving from Range 1 to Range 2, the system frequency must be decreased to
 143:Drivers/STM32G4xx_HAL_Driver/Src/stm32g4xx_hal_pwr_ex.c ****   *        a value below 26 MHz before calling HAL_PWREx_ControlVoltageScaling() API.
 144:Drivers/STM32G4xx_HAL_Driver/Src/stm32g4xx_hal_pwr_ex.c ****   *        When moving from Range 2 to Range 1, the system frequency can be increased to
 145:Drivers/STM32G4xx_HAL_Driver/Src/stm32g4xx_hal_pwr_ex.c ****   *        a value up to 150 MHz after calling HAL_PWREx_ControlVoltageScaling() API.
 146:Drivers/STM32G4xx_HAL_Driver/Src/stm32g4xx_hal_pwr_ex.c ****   *        When moving from Range 1 to Boost Mode Range 1, the system frequency can be increased to
 147:Drivers/STM32G4xx_HAL_Driver/Src/stm32g4xx_hal_pwr_ex.c ****   *        a value up to 170 MHz after calling HAL_PWREx_ControlVoltageScaling() API.
 148:Drivers/STM32G4xx_HAL_Driver/Src/stm32g4xx_hal_pwr_ex.c ****   * @note  When moving from Range 2 to Range 1, the API waits for VOSF flag to be
 149:Drivers/STM32G4xx_HAL_Driver/Src/stm32g4xx_hal_pwr_ex.c ****   *        cleared before returning the status. If the flag is not cleared within
 150:Drivers/STM32G4xx_HAL_Driver/Src/stm32g4xx_hal_pwr_ex.c ****   *        50 microseconds, HAL_TIMEOUT status is reported.
 151:Drivers/STM32G4xx_HAL_Driver/Src/stm32g4xx_hal_pwr_ex.c ****   * @retval HAL Status
 152:Drivers/STM32G4xx_HAL_Driver/Src/stm32g4xx_hal_pwr_ex.c ****   */
 153:Drivers/STM32G4xx_HAL_Driver/Src/stm32g4xx_hal_pwr_ex.c **** HAL_StatusTypeDef HAL_PWREx_ControlVoltageScaling(uint32_t VoltageScaling)
 154:Drivers/STM32G4xx_HAL_Driver/Src/stm32g4xx_hal_pwr_ex.c **** {
  72              		.loc 1 154 1 is_stmt 1 view -0
  73              		.cfi_startproc
  74              		@ args = 0, pretend = 0, frame = 0
  75              		@ frame_needed = 0, uses_anonymous_args = 0
  76              		@ link register save eliminated.
ARM GAS  C:\Users\57308\AppData\Local\Temp\ccqGNF8F.s 			page 5


 155:Drivers/STM32G4xx_HAL_Driver/Src/stm32g4xx_hal_pwr_ex.c ****   uint32_t wait_loop_index;
  77              		.loc 1 155 3 view .LVU10
 156:Drivers/STM32G4xx_HAL_Driver/Src/stm32g4xx_hal_pwr_ex.c **** 
 157:Drivers/STM32G4xx_HAL_Driver/Src/stm32g4xx_hal_pwr_ex.c ****   assert_param(IS_PWR_VOLTAGE_SCALING_RANGE(VoltageScaling));
  78              		.loc 1 157 3 view .LVU11
 158:Drivers/STM32G4xx_HAL_Driver/Src/stm32g4xx_hal_pwr_ex.c **** 
 159:Drivers/STM32G4xx_HAL_Driver/Src/stm32g4xx_hal_pwr_ex.c ****   if (VoltageScaling == PWR_REGULATOR_VOLTAGE_SCALE1_BOOST)
  79              		.loc 1 159 3 view .LVU12
  80              		.loc 1 159 6 is_stmt 0 view .LVU13
  81 0000 0028     		cmp	r0, #0
  82 0002 36D1     		bne	.L7
 160:Drivers/STM32G4xx_HAL_Driver/Src/stm32g4xx_hal_pwr_ex.c ****   {
 161:Drivers/STM32G4xx_HAL_Driver/Src/stm32g4xx_hal_pwr_ex.c ****     /* If current range is range 2 */
 162:Drivers/STM32G4xx_HAL_Driver/Src/stm32g4xx_hal_pwr_ex.c ****     if (READ_BIT(PWR->CR1, PWR_CR1_VOS) == PWR_REGULATOR_VOLTAGE_SCALE2)
  83              		.loc 1 162 5 is_stmt 1 view .LVU14
  84              		.loc 1 162 9 is_stmt 0 view .LVU15
  85 0004 3E4B     		ldr	r3, .L23
  86 0006 1B68     		ldr	r3, [r3]
  87 0008 03F4C063 		and	r3, r3, #1536
  88              		.loc 1 162 8 view .LVU16
  89 000c B3F5806F 		cmp	r3, #1024
  90 0010 08D0     		beq	.L20
 163:Drivers/STM32G4xx_HAL_Driver/Src/stm32g4xx_hal_pwr_ex.c ****     {
 164:Drivers/STM32G4xx_HAL_Driver/Src/stm32g4xx_hal_pwr_ex.c ****       /* Make sure Range 1 Boost is enabled */
 165:Drivers/STM32G4xx_HAL_Driver/Src/stm32g4xx_hal_pwr_ex.c ****       CLEAR_BIT(PWR->CR5, PWR_CR5_R1MODE);
 166:Drivers/STM32G4xx_HAL_Driver/Src/stm32g4xx_hal_pwr_ex.c **** 
 167:Drivers/STM32G4xx_HAL_Driver/Src/stm32g4xx_hal_pwr_ex.c ****       /* Set Range 1 */
 168:Drivers/STM32G4xx_HAL_Driver/Src/stm32g4xx_hal_pwr_ex.c ****       MODIFY_REG(PWR->CR1, PWR_CR1_VOS, PWR_REGULATOR_VOLTAGE_SCALE1);
 169:Drivers/STM32G4xx_HAL_Driver/Src/stm32g4xx_hal_pwr_ex.c **** 
 170:Drivers/STM32G4xx_HAL_Driver/Src/stm32g4xx_hal_pwr_ex.c ****       /* Wait until VOSF is cleared */
 171:Drivers/STM32G4xx_HAL_Driver/Src/stm32g4xx_hal_pwr_ex.c ****       wait_loop_index = ((PWR_FLAG_SETTING_DELAY_US * SystemCoreClock) / 1000000U) + 1U;
 172:Drivers/STM32G4xx_HAL_Driver/Src/stm32g4xx_hal_pwr_ex.c ****       while ((HAL_IS_BIT_SET(PWR->SR2, PWR_SR2_VOSF)) && (wait_loop_index != 0U))
 173:Drivers/STM32G4xx_HAL_Driver/Src/stm32g4xx_hal_pwr_ex.c ****       {
 174:Drivers/STM32G4xx_HAL_Driver/Src/stm32g4xx_hal_pwr_ex.c ****         wait_loop_index--;
 175:Drivers/STM32G4xx_HAL_Driver/Src/stm32g4xx_hal_pwr_ex.c ****       }
 176:Drivers/STM32G4xx_HAL_Driver/Src/stm32g4xx_hal_pwr_ex.c ****       if (HAL_IS_BIT_SET(PWR->SR2, PWR_SR2_VOSF))
 177:Drivers/STM32G4xx_HAL_Driver/Src/stm32g4xx_hal_pwr_ex.c ****       {
 178:Drivers/STM32G4xx_HAL_Driver/Src/stm32g4xx_hal_pwr_ex.c ****         return HAL_TIMEOUT;
 179:Drivers/STM32G4xx_HAL_Driver/Src/stm32g4xx_hal_pwr_ex.c ****       }
 180:Drivers/STM32G4xx_HAL_Driver/Src/stm32g4xx_hal_pwr_ex.c ****     }
 181:Drivers/STM32G4xx_HAL_Driver/Src/stm32g4xx_hal_pwr_ex.c ****     /* If current range is range 1 normal or boost mode */
 182:Drivers/STM32G4xx_HAL_Driver/Src/stm32g4xx_hal_pwr_ex.c ****     else
 183:Drivers/STM32G4xx_HAL_Driver/Src/stm32g4xx_hal_pwr_ex.c ****     {
 184:Drivers/STM32G4xx_HAL_Driver/Src/stm32g4xx_hal_pwr_ex.c ****       /* Enable Range 1 Boost (no issue if bit already reset) */
 185:Drivers/STM32G4xx_HAL_Driver/Src/stm32g4xx_hal_pwr_ex.c ****       CLEAR_BIT(PWR->CR5, PWR_CR5_R1MODE);
  91              		.loc 1 185 7 is_stmt 1 view .LVU17
  92 0012 3B4A     		ldr	r2, .L23
  93 0014 D2F88030 		ldr	r3, [r2, #128]
  94 0018 23F48073 		bic	r3, r3, #256
  95 001c C2F88030 		str	r3, [r2, #128]
 186:Drivers/STM32G4xx_HAL_Driver/Src/stm32g4xx_hal_pwr_ex.c ****     }
 187:Drivers/STM32G4xx_HAL_Driver/Src/stm32g4xx_hal_pwr_ex.c ****   }
 188:Drivers/STM32G4xx_HAL_Driver/Src/stm32g4xx_hal_pwr_ex.c ****   else if (VoltageScaling == PWR_REGULATOR_VOLTAGE_SCALE1)
 189:Drivers/STM32G4xx_HAL_Driver/Src/stm32g4xx_hal_pwr_ex.c ****   {
 190:Drivers/STM32G4xx_HAL_Driver/Src/stm32g4xx_hal_pwr_ex.c ****     /* If current range is range 2 */
 191:Drivers/STM32G4xx_HAL_Driver/Src/stm32g4xx_hal_pwr_ex.c ****     if (READ_BIT(PWR->CR1, PWR_CR1_VOS) == PWR_REGULATOR_VOLTAGE_SCALE2)
 192:Drivers/STM32G4xx_HAL_Driver/Src/stm32g4xx_hal_pwr_ex.c ****     {
ARM GAS  C:\Users\57308\AppData\Local\Temp\ccqGNF8F.s 			page 6


 193:Drivers/STM32G4xx_HAL_Driver/Src/stm32g4xx_hal_pwr_ex.c ****       /* Make sure Range 1 Boost is disabled */
 194:Drivers/STM32G4xx_HAL_Driver/Src/stm32g4xx_hal_pwr_ex.c ****       SET_BIT(PWR->CR5, PWR_CR5_R1MODE);
 195:Drivers/STM32G4xx_HAL_Driver/Src/stm32g4xx_hal_pwr_ex.c **** 
 196:Drivers/STM32G4xx_HAL_Driver/Src/stm32g4xx_hal_pwr_ex.c ****       /* Set Range 1 */
 197:Drivers/STM32G4xx_HAL_Driver/Src/stm32g4xx_hal_pwr_ex.c ****       MODIFY_REG(PWR->CR1, PWR_CR1_VOS, PWR_REGULATOR_VOLTAGE_SCALE1);
 198:Drivers/STM32G4xx_HAL_Driver/Src/stm32g4xx_hal_pwr_ex.c **** 
 199:Drivers/STM32G4xx_HAL_Driver/Src/stm32g4xx_hal_pwr_ex.c ****       /* Wait until VOSF is cleared */
 200:Drivers/STM32G4xx_HAL_Driver/Src/stm32g4xx_hal_pwr_ex.c ****       wait_loop_index = ((PWR_FLAG_SETTING_DELAY_US * SystemCoreClock) / 1000000U) + 1U;
 201:Drivers/STM32G4xx_HAL_Driver/Src/stm32g4xx_hal_pwr_ex.c ****       while ((HAL_IS_BIT_SET(PWR->SR2, PWR_SR2_VOSF)) && (wait_loop_index != 0U))
 202:Drivers/STM32G4xx_HAL_Driver/Src/stm32g4xx_hal_pwr_ex.c ****       {
 203:Drivers/STM32G4xx_HAL_Driver/Src/stm32g4xx_hal_pwr_ex.c ****         wait_loop_index--;
 204:Drivers/STM32G4xx_HAL_Driver/Src/stm32g4xx_hal_pwr_ex.c ****       }
 205:Drivers/STM32G4xx_HAL_Driver/Src/stm32g4xx_hal_pwr_ex.c ****       if (HAL_IS_BIT_SET(PWR->SR2, PWR_SR2_VOSF))
 206:Drivers/STM32G4xx_HAL_Driver/Src/stm32g4xx_hal_pwr_ex.c ****       {
 207:Drivers/STM32G4xx_HAL_Driver/Src/stm32g4xx_hal_pwr_ex.c ****         return HAL_TIMEOUT;
 208:Drivers/STM32G4xx_HAL_Driver/Src/stm32g4xx_hal_pwr_ex.c ****       }
 209:Drivers/STM32G4xx_HAL_Driver/Src/stm32g4xx_hal_pwr_ex.c ****     }
 210:Drivers/STM32G4xx_HAL_Driver/Src/stm32g4xx_hal_pwr_ex.c ****      /* If current range is range 1 normal or boost mode */
 211:Drivers/STM32G4xx_HAL_Driver/Src/stm32g4xx_hal_pwr_ex.c ****     else
 212:Drivers/STM32G4xx_HAL_Driver/Src/stm32g4xx_hal_pwr_ex.c ****     {
 213:Drivers/STM32G4xx_HAL_Driver/Src/stm32g4xx_hal_pwr_ex.c ****       /* Disable Range 1 Boost (no issue if bit already set) */
 214:Drivers/STM32G4xx_HAL_Driver/Src/stm32g4xx_hal_pwr_ex.c ****       SET_BIT(PWR->CR5, PWR_CR5_R1MODE);
 215:Drivers/STM32G4xx_HAL_Driver/Src/stm32g4xx_hal_pwr_ex.c ****     }
 216:Drivers/STM32G4xx_HAL_Driver/Src/stm32g4xx_hal_pwr_ex.c ****   }
 217:Drivers/STM32G4xx_HAL_Driver/Src/stm32g4xx_hal_pwr_ex.c ****   else
 218:Drivers/STM32G4xx_HAL_Driver/Src/stm32g4xx_hal_pwr_ex.c ****   {
 219:Drivers/STM32G4xx_HAL_Driver/Src/stm32g4xx_hal_pwr_ex.c ****     /* Set Range 2 */
 220:Drivers/STM32G4xx_HAL_Driver/Src/stm32g4xx_hal_pwr_ex.c ****     MODIFY_REG(PWR->CR1, PWR_CR1_VOS, PWR_REGULATOR_VOLTAGE_SCALE2);
 221:Drivers/STM32G4xx_HAL_Driver/Src/stm32g4xx_hal_pwr_ex.c ****     /* No need to wait for VOSF to be cleared for this transition */
 222:Drivers/STM32G4xx_HAL_Driver/Src/stm32g4xx_hal_pwr_ex.c ****     /* PWR_CR5_R1MODE bit setting has no effect in Range 2        */
 223:Drivers/STM32G4xx_HAL_Driver/Src/stm32g4xx_hal_pwr_ex.c ****   }
 224:Drivers/STM32G4xx_HAL_Driver/Src/stm32g4xx_hal_pwr_ex.c **** 
 225:Drivers/STM32G4xx_HAL_Driver/Src/stm32g4xx_hal_pwr_ex.c ****   return HAL_OK;
  96              		.loc 1 225 10 is_stmt 0 view .LVU18
  97 0020 0020     		movs	r0, #0
  98              	.LVL1:
  99              		.loc 1 225 10 view .LVU19
 100 0022 7047     		bx	lr
 101              	.LVL2:
 102              	.L20:
 165:Drivers/STM32G4xx_HAL_Driver/Src/stm32g4xx_hal_pwr_ex.c **** 
 103              		.loc 1 165 7 is_stmt 1 view .LVU20
 104 0024 364A     		ldr	r2, .L23
 105 0026 D2F88030 		ldr	r3, [r2, #128]
 106 002a 23F48073 		bic	r3, r3, #256
 107 002e C2F88030 		str	r3, [r2, #128]
 168:Drivers/STM32G4xx_HAL_Driver/Src/stm32g4xx_hal_pwr_ex.c **** 
 108              		.loc 1 168 7 view .LVU21
 109 0032 1368     		ldr	r3, [r2]
 110 0034 23F4C063 		bic	r3, r3, #1536
 111 0038 43F40073 		orr	r3, r3, #512
 112 003c 1360     		str	r3, [r2]
 171:Drivers/STM32G4xx_HAL_Driver/Src/stm32g4xx_hal_pwr_ex.c ****       while ((HAL_IS_BIT_SET(PWR->SR2, PWR_SR2_VOSF)) && (wait_loop_index != 0U))
 113              		.loc 1 171 7 view .LVU22
 171:Drivers/STM32G4xx_HAL_Driver/Src/stm32g4xx_hal_pwr_ex.c ****       while ((HAL_IS_BIT_SET(PWR->SR2, PWR_SR2_VOSF)) && (wait_loop_index != 0U))
 114              		.loc 1 171 53 is_stmt 0 view .LVU23
 115 003e 314B     		ldr	r3, .L23+4
ARM GAS  C:\Users\57308\AppData\Local\Temp\ccqGNF8F.s 			page 7


 116 0040 1B68     		ldr	r3, [r3]
 117 0042 3222     		movs	r2, #50
 118 0044 02FB03F3 		mul	r3, r2, r3
 171:Drivers/STM32G4xx_HAL_Driver/Src/stm32g4xx_hal_pwr_ex.c ****       while ((HAL_IS_BIT_SET(PWR->SR2, PWR_SR2_VOSF)) && (wait_loop_index != 0U))
 119              		.loc 1 171 72 view .LVU24
 120 0048 2F4A     		ldr	r2, .L23+8
 121 004a A2FB0323 		umull	r2, r3, r2, r3
 122 004e 9B0C     		lsrs	r3, r3, #18
 171:Drivers/STM32G4xx_HAL_Driver/Src/stm32g4xx_hal_pwr_ex.c ****       while ((HAL_IS_BIT_SET(PWR->SR2, PWR_SR2_VOSF)) && (wait_loop_index != 0U))
 123              		.loc 1 171 23 view .LVU25
 124 0050 0133     		adds	r3, r3, #1
 125              	.LVL3:
 172:Drivers/STM32G4xx_HAL_Driver/Src/stm32g4xx_hal_pwr_ex.c ****       {
 126              		.loc 1 172 7 is_stmt 1 view .LVU26
 172:Drivers/STM32G4xx_HAL_Driver/Src/stm32g4xx_hal_pwr_ex.c ****       {
 127              		.loc 1 172 13 is_stmt 0 view .LVU27
 128 0052 00E0     		b	.L9
 129              	.L11:
 174:Drivers/STM32G4xx_HAL_Driver/Src/stm32g4xx_hal_pwr_ex.c ****       }
 130              		.loc 1 174 9 is_stmt 1 view .LVU28
 174:Drivers/STM32G4xx_HAL_Driver/Src/stm32g4xx_hal_pwr_ex.c ****       }
 131              		.loc 1 174 24 is_stmt 0 view .LVU29
 132 0054 013B     		subs	r3, r3, #1
 133              	.LVL4:
 134              	.L9:
 172:Drivers/STM32G4xx_HAL_Driver/Src/stm32g4xx_hal_pwr_ex.c ****       {
 135              		.loc 1 172 13 is_stmt 1 view .LVU30
 172:Drivers/STM32G4xx_HAL_Driver/Src/stm32g4xx_hal_pwr_ex.c ****       {
 136              		.loc 1 172 15 is_stmt 0 view .LVU31
 137 0056 2A4A     		ldr	r2, .L23
 138 0058 5269     		ldr	r2, [r2, #20]
 172:Drivers/STM32G4xx_HAL_Driver/Src/stm32g4xx_hal_pwr_ex.c ****       {
 139              		.loc 1 172 13 view .LVU32
 140 005a 12F4806F 		tst	r2, #1024
 141 005e 01D0     		beq	.L10
 172:Drivers/STM32G4xx_HAL_Driver/Src/stm32g4xx_hal_pwr_ex.c ****       {
 142              		.loc 1 172 55 discriminator 1 view .LVU33
 143 0060 002B     		cmp	r3, #0
 144 0062 F7D1     		bne	.L11
 145              	.L10:
 176:Drivers/STM32G4xx_HAL_Driver/Src/stm32g4xx_hal_pwr_ex.c ****       {
 146              		.loc 1 176 7 is_stmt 1 view .LVU34
 176:Drivers/STM32G4xx_HAL_Driver/Src/stm32g4xx_hal_pwr_ex.c ****       {
 147              		.loc 1 176 11 is_stmt 0 view .LVU35
 148 0064 264B     		ldr	r3, .L23
 149              	.LVL5:
 176:Drivers/STM32G4xx_HAL_Driver/Src/stm32g4xx_hal_pwr_ex.c ****       {
 150              		.loc 1 176 11 view .LVU36
 151 0066 5B69     		ldr	r3, [r3, #20]
 176:Drivers/STM32G4xx_HAL_Driver/Src/stm32g4xx_hal_pwr_ex.c ****       {
 152              		.loc 1 176 10 view .LVU37
 153 0068 13F4806F 		tst	r3, #1024
 154 006c 44D1     		bne	.L18
 155              		.loc 1 225 10 view .LVU38
 156 006e 0020     		movs	r0, #0
 157              	.LVL6:
 158              		.loc 1 225 10 view .LVU39
ARM GAS  C:\Users\57308\AppData\Local\Temp\ccqGNF8F.s 			page 8


 159 0070 7047     		bx	lr
 160              	.LVL7:
 161              	.L7:
 188:Drivers/STM32G4xx_HAL_Driver/Src/stm32g4xx_hal_pwr_ex.c ****   {
 162              		.loc 1 188 8 is_stmt 1 view .LVU40
 188:Drivers/STM32G4xx_HAL_Driver/Src/stm32g4xx_hal_pwr_ex.c ****   {
 163              		.loc 1 188 11 is_stmt 0 view .LVU41
 164 0072 B0F5007F 		cmp	r0, #512
 165 0076 08D0     		beq	.L21
 220:Drivers/STM32G4xx_HAL_Driver/Src/stm32g4xx_hal_pwr_ex.c ****     /* No need to wait for VOSF to be cleared for this transition */
 166              		.loc 1 220 5 is_stmt 1 view .LVU42
 167 0078 214A     		ldr	r2, .L23
 168 007a 1368     		ldr	r3, [r2]
 169 007c 23F4C063 		bic	r3, r3, #1536
 170 0080 43F48063 		orr	r3, r3, #1024
 171 0084 1360     		str	r3, [r2]
 172              		.loc 1 225 10 is_stmt 0 view .LVU43
 173 0086 0020     		movs	r0, #0
 174              	.LVL8:
 175              		.loc 1 225 10 view .LVU44
 176 0088 7047     		bx	lr
 177              	.LVL9:
 178              	.L21:
 191:Drivers/STM32G4xx_HAL_Driver/Src/stm32g4xx_hal_pwr_ex.c ****     {
 179              		.loc 1 191 5 is_stmt 1 view .LVU45
 191:Drivers/STM32G4xx_HAL_Driver/Src/stm32g4xx_hal_pwr_ex.c ****     {
 180              		.loc 1 191 9 is_stmt 0 view .LVU46
 181 008a 1D4B     		ldr	r3, .L23
 182 008c 1B68     		ldr	r3, [r3]
 183 008e 03F4C063 		and	r3, r3, #1536
 191:Drivers/STM32G4xx_HAL_Driver/Src/stm32g4xx_hal_pwr_ex.c ****     {
 184              		.loc 1 191 8 view .LVU47
 185 0092 B3F5806F 		cmp	r3, #1024
 186 0096 08D0     		beq	.L22
 214:Drivers/STM32G4xx_HAL_Driver/Src/stm32g4xx_hal_pwr_ex.c ****     }
 187              		.loc 1 214 7 is_stmt 1 view .LVU48
 188 0098 194A     		ldr	r2, .L23
 189 009a D2F88030 		ldr	r3, [r2, #128]
 190 009e 43F48073 		orr	r3, r3, #256
 191 00a2 C2F88030 		str	r3, [r2, #128]
 192              		.loc 1 225 10 is_stmt 0 view .LVU49
 193 00a6 0020     		movs	r0, #0
 194              	.LVL10:
 195              		.loc 1 225 10 view .LVU50
 196 00a8 7047     		bx	lr
 197              	.LVL11:
 198              	.L22:
 194:Drivers/STM32G4xx_HAL_Driver/Src/stm32g4xx_hal_pwr_ex.c **** 
 199              		.loc 1 194 7 is_stmt 1 view .LVU51
 200 00aa 154A     		ldr	r2, .L23
 201 00ac D2F88030 		ldr	r3, [r2, #128]
 202 00b0 43F48073 		orr	r3, r3, #256
 203 00b4 C2F88030 		str	r3, [r2, #128]
 197:Drivers/STM32G4xx_HAL_Driver/Src/stm32g4xx_hal_pwr_ex.c **** 
 204              		.loc 1 197 7 view .LVU52
 205 00b8 1368     		ldr	r3, [r2]
 206 00ba 23F4C063 		bic	r3, r3, #1536
ARM GAS  C:\Users\57308\AppData\Local\Temp\ccqGNF8F.s 			page 9


 207 00be 43F40073 		orr	r3, r3, #512
 208 00c2 1360     		str	r3, [r2]
 200:Drivers/STM32G4xx_HAL_Driver/Src/stm32g4xx_hal_pwr_ex.c ****       while ((HAL_IS_BIT_SET(PWR->SR2, PWR_SR2_VOSF)) && (wait_loop_index != 0U))
 209              		.loc 1 200 7 view .LVU53
 200:Drivers/STM32G4xx_HAL_Driver/Src/stm32g4xx_hal_pwr_ex.c ****       while ((HAL_IS_BIT_SET(PWR->SR2, PWR_SR2_VOSF)) && (wait_loop_index != 0U))
 210              		.loc 1 200 53 is_stmt 0 view .LVU54
 211 00c4 0F4B     		ldr	r3, .L23+4
 212 00c6 1B68     		ldr	r3, [r3]
 213 00c8 3222     		movs	r2, #50
 214 00ca 02FB03F3 		mul	r3, r2, r3
 200:Drivers/STM32G4xx_HAL_Driver/Src/stm32g4xx_hal_pwr_ex.c ****       while ((HAL_IS_BIT_SET(PWR->SR2, PWR_SR2_VOSF)) && (wait_loop_index != 0U))
 215              		.loc 1 200 72 view .LVU55
 216 00ce 0E4A     		ldr	r2, .L23+8
 217 00d0 A2FB0323 		umull	r2, r3, r2, r3
 218 00d4 9B0C     		lsrs	r3, r3, #18
 200:Drivers/STM32G4xx_HAL_Driver/Src/stm32g4xx_hal_pwr_ex.c ****       while ((HAL_IS_BIT_SET(PWR->SR2, PWR_SR2_VOSF)) && (wait_loop_index != 0U))
 219              		.loc 1 200 23 view .LVU56
 220 00d6 0133     		adds	r3, r3, #1
 221              	.LVL12:
 201:Drivers/STM32G4xx_HAL_Driver/Src/stm32g4xx_hal_pwr_ex.c ****       {
 222              		.loc 1 201 7 is_stmt 1 view .LVU57
 201:Drivers/STM32G4xx_HAL_Driver/Src/stm32g4xx_hal_pwr_ex.c ****       {
 223              		.loc 1 201 13 is_stmt 0 view .LVU58
 224 00d8 00E0     		b	.L15
 225              	.L17:
 203:Drivers/STM32G4xx_HAL_Driver/Src/stm32g4xx_hal_pwr_ex.c ****       }
 226              		.loc 1 203 9 is_stmt 1 view .LVU59
 203:Drivers/STM32G4xx_HAL_Driver/Src/stm32g4xx_hal_pwr_ex.c ****       }
 227              		.loc 1 203 24 is_stmt 0 view .LVU60
 228 00da 013B     		subs	r3, r3, #1
 229              	.LVL13:
 230              	.L15:
 201:Drivers/STM32G4xx_HAL_Driver/Src/stm32g4xx_hal_pwr_ex.c ****       {
 231              		.loc 1 201 13 is_stmt 1 view .LVU61
 201:Drivers/STM32G4xx_HAL_Driver/Src/stm32g4xx_hal_pwr_ex.c ****       {
 232              		.loc 1 201 15 is_stmt 0 view .LVU62
 233 00dc 084A     		ldr	r2, .L23
 234 00de 5269     		ldr	r2, [r2, #20]
 201:Drivers/STM32G4xx_HAL_Driver/Src/stm32g4xx_hal_pwr_ex.c ****       {
 235              		.loc 1 201 13 view .LVU63
 236 00e0 12F4806F 		tst	r2, #1024
 237 00e4 01D0     		beq	.L16
 201:Drivers/STM32G4xx_HAL_Driver/Src/stm32g4xx_hal_pwr_ex.c ****       {
 238              		.loc 1 201 55 discriminator 1 view .LVU64
 239 00e6 002B     		cmp	r3, #0
 240 00e8 F7D1     		bne	.L17
 241              	.L16:
 205:Drivers/STM32G4xx_HAL_Driver/Src/stm32g4xx_hal_pwr_ex.c ****       {
 242              		.loc 1 205 7 is_stmt 1 view .LVU65
 205:Drivers/STM32G4xx_HAL_Driver/Src/stm32g4xx_hal_pwr_ex.c ****       {
 243              		.loc 1 205 11 is_stmt 0 view .LVU66
 244 00ea 054B     		ldr	r3, .L23
 245              	.LVL14:
 205:Drivers/STM32G4xx_HAL_Driver/Src/stm32g4xx_hal_pwr_ex.c ****       {
 246              		.loc 1 205 11 view .LVU67
 247 00ec 5B69     		ldr	r3, [r3, #20]
 205:Drivers/STM32G4xx_HAL_Driver/Src/stm32g4xx_hal_pwr_ex.c ****       {
ARM GAS  C:\Users\57308\AppData\Local\Temp\ccqGNF8F.s 			page 10


 248              		.loc 1 205 10 view .LVU68
 249 00ee 13F4806F 		tst	r3, #1024
 250 00f2 03D1     		bne	.L19
 251              		.loc 1 225 10 view .LVU69
 252 00f4 0020     		movs	r0, #0
 253              	.LVL15:
 254              		.loc 1 225 10 view .LVU70
 255 00f6 7047     		bx	lr
 256              	.LVL16:
 257              	.L18:
 178:Drivers/STM32G4xx_HAL_Driver/Src/stm32g4xx_hal_pwr_ex.c ****       }
 258              		.loc 1 178 16 view .LVU71
 259 00f8 0320     		movs	r0, #3
 260              	.LVL17:
 178:Drivers/STM32G4xx_HAL_Driver/Src/stm32g4xx_hal_pwr_ex.c ****       }
 261              		.loc 1 178 16 view .LVU72
 262 00fa 7047     		bx	lr
 263              	.LVL18:
 264              	.L19:
 207:Drivers/STM32G4xx_HAL_Driver/Src/stm32g4xx_hal_pwr_ex.c ****       }
 265              		.loc 1 207 16 view .LVU73
 266 00fc 0320     		movs	r0, #3
 267              	.LVL19:
 226:Drivers/STM32G4xx_HAL_Driver/Src/stm32g4xx_hal_pwr_ex.c **** }
 268              		.loc 1 226 1 view .LVU74
 269 00fe 7047     		bx	lr
 270              	.L24:
 271              		.align	2
 272              	.L23:
 273 0100 00700040 		.word	1073770496
 274 0104 00000000 		.word	SystemCoreClock
 275 0108 83DE1B43 		.word	1125899907
 276              		.cfi_endproc
 277              	.LFE330:
 279              		.section	.text.HAL_PWREx_EnableBatteryCharging,"ax",%progbits
 280              		.align	1
 281              		.global	HAL_PWREx_EnableBatteryCharging
 282              		.syntax unified
 283              		.thumb
 284              		.thumb_func
 286              	HAL_PWREx_EnableBatteryCharging:
 287              	.LVL20:
 288              	.LFB331:
 227:Drivers/STM32G4xx_HAL_Driver/Src/stm32g4xx_hal_pwr_ex.c **** 
 228:Drivers/STM32G4xx_HAL_Driver/Src/stm32g4xx_hal_pwr_ex.c **** 
 229:Drivers/STM32G4xx_HAL_Driver/Src/stm32g4xx_hal_pwr_ex.c **** /**
 230:Drivers/STM32G4xx_HAL_Driver/Src/stm32g4xx_hal_pwr_ex.c ****   * @brief Enable battery charging.
 231:Drivers/STM32G4xx_HAL_Driver/Src/stm32g4xx_hal_pwr_ex.c ****   *        When VDD is present, charge the external battery on VBAT through an internal resistor.
 232:Drivers/STM32G4xx_HAL_Driver/Src/stm32g4xx_hal_pwr_ex.c ****   * @param  ResistorSelection: specifies the resistor impedance.
 233:Drivers/STM32G4xx_HAL_Driver/Src/stm32g4xx_hal_pwr_ex.c ****   *          This parameter can be one of the following values:
 234:Drivers/STM32G4xx_HAL_Driver/Src/stm32g4xx_hal_pwr_ex.c ****   *            @arg @ref PWR_BATTERY_CHARGING_RESISTOR_5     5 kOhms resistor
 235:Drivers/STM32G4xx_HAL_Driver/Src/stm32g4xx_hal_pwr_ex.c ****   *            @arg @ref PWR_BATTERY_CHARGING_RESISTOR_1_5 1.5 kOhms resistor
 236:Drivers/STM32G4xx_HAL_Driver/Src/stm32g4xx_hal_pwr_ex.c ****   * @retval None
 237:Drivers/STM32G4xx_HAL_Driver/Src/stm32g4xx_hal_pwr_ex.c ****   */
 238:Drivers/STM32G4xx_HAL_Driver/Src/stm32g4xx_hal_pwr_ex.c **** void HAL_PWREx_EnableBatteryCharging(uint32_t ResistorSelection)
 239:Drivers/STM32G4xx_HAL_Driver/Src/stm32g4xx_hal_pwr_ex.c **** {
 289              		.loc 1 239 1 is_stmt 1 view -0
ARM GAS  C:\Users\57308\AppData\Local\Temp\ccqGNF8F.s 			page 11


 290              		.cfi_startproc
 291              		@ args = 0, pretend = 0, frame = 0
 292              		@ frame_needed = 0, uses_anonymous_args = 0
 293              		@ link register save eliminated.
 240:Drivers/STM32G4xx_HAL_Driver/Src/stm32g4xx_hal_pwr_ex.c ****   assert_param(IS_PWR_BATTERY_RESISTOR_SELECT(ResistorSelection));
 294              		.loc 1 240 3 view .LVU76
 241:Drivers/STM32G4xx_HAL_Driver/Src/stm32g4xx_hal_pwr_ex.c **** 
 242:Drivers/STM32G4xx_HAL_Driver/Src/stm32g4xx_hal_pwr_ex.c ****   /* Specify resistor selection */
 243:Drivers/STM32G4xx_HAL_Driver/Src/stm32g4xx_hal_pwr_ex.c ****   MODIFY_REG(PWR->CR4, PWR_CR4_VBRS, ResistorSelection);
 295              		.loc 1 243 3 view .LVU77
 296 0000 054A     		ldr	r2, .L26
 297 0002 D368     		ldr	r3, [r2, #12]
 298 0004 23F40073 		bic	r3, r3, #512
 299 0008 0343     		orrs	r3, r3, r0
 300 000a D360     		str	r3, [r2, #12]
 244:Drivers/STM32G4xx_HAL_Driver/Src/stm32g4xx_hal_pwr_ex.c **** 
 245:Drivers/STM32G4xx_HAL_Driver/Src/stm32g4xx_hal_pwr_ex.c ****   /* Enable battery charging */
 246:Drivers/STM32G4xx_HAL_Driver/Src/stm32g4xx_hal_pwr_ex.c ****   SET_BIT(PWR->CR4, PWR_CR4_VBE);
 301              		.loc 1 246 3 view .LVU78
 302 000c D368     		ldr	r3, [r2, #12]
 303 000e 43F48073 		orr	r3, r3, #256
 304 0012 D360     		str	r3, [r2, #12]
 247:Drivers/STM32G4xx_HAL_Driver/Src/stm32g4xx_hal_pwr_ex.c **** }
 305              		.loc 1 247 1 is_stmt 0 view .LVU79
 306 0014 7047     		bx	lr
 307              	.L27:
 308 0016 00BF     		.align	2
 309              	.L26:
 310 0018 00700040 		.word	1073770496
 311              		.cfi_endproc
 312              	.LFE331:
 314              		.section	.text.HAL_PWREx_DisableBatteryCharging,"ax",%progbits
 315              		.align	1
 316              		.global	HAL_PWREx_DisableBatteryCharging
 317              		.syntax unified
 318              		.thumb
 319              		.thumb_func
 321              	HAL_PWREx_DisableBatteryCharging:
 322              	.LFB332:
 248:Drivers/STM32G4xx_HAL_Driver/Src/stm32g4xx_hal_pwr_ex.c **** 
 249:Drivers/STM32G4xx_HAL_Driver/Src/stm32g4xx_hal_pwr_ex.c **** 
 250:Drivers/STM32G4xx_HAL_Driver/Src/stm32g4xx_hal_pwr_ex.c **** /**
 251:Drivers/STM32G4xx_HAL_Driver/Src/stm32g4xx_hal_pwr_ex.c ****   * @brief Disable battery charging.
 252:Drivers/STM32G4xx_HAL_Driver/Src/stm32g4xx_hal_pwr_ex.c ****   * @retval None
 253:Drivers/STM32G4xx_HAL_Driver/Src/stm32g4xx_hal_pwr_ex.c ****   */
 254:Drivers/STM32G4xx_HAL_Driver/Src/stm32g4xx_hal_pwr_ex.c **** void HAL_PWREx_DisableBatteryCharging(void)
 255:Drivers/STM32G4xx_HAL_Driver/Src/stm32g4xx_hal_pwr_ex.c **** {
 323              		.loc 1 255 1 is_stmt 1 view -0
 324              		.cfi_startproc
 325              		@ args = 0, pretend = 0, frame = 0
 326              		@ frame_needed = 0, uses_anonymous_args = 0
 327              		@ link register save eliminated.
 256:Drivers/STM32G4xx_HAL_Driver/Src/stm32g4xx_hal_pwr_ex.c ****   CLEAR_BIT(PWR->CR4, PWR_CR4_VBE);
 328              		.loc 1 256 3 view .LVU81
 329 0000 024A     		ldr	r2, .L29
 330 0002 D368     		ldr	r3, [r2, #12]
 331 0004 23F48073 		bic	r3, r3, #256
ARM GAS  C:\Users\57308\AppData\Local\Temp\ccqGNF8F.s 			page 12


 332 0008 D360     		str	r3, [r2, #12]
 257:Drivers/STM32G4xx_HAL_Driver/Src/stm32g4xx_hal_pwr_ex.c **** }
 333              		.loc 1 257 1 is_stmt 0 view .LVU82
 334 000a 7047     		bx	lr
 335              	.L30:
 336              		.align	2
 337              	.L29:
 338 000c 00700040 		.word	1073770496
 339              		.cfi_endproc
 340              	.LFE332:
 342              		.section	.text.HAL_PWREx_EnableInternalWakeUpLine,"ax",%progbits
 343              		.align	1
 344              		.global	HAL_PWREx_EnableInternalWakeUpLine
 345              		.syntax unified
 346              		.thumb
 347              		.thumb_func
 349              	HAL_PWREx_EnableInternalWakeUpLine:
 350              	.LFB333:
 258:Drivers/STM32G4xx_HAL_Driver/Src/stm32g4xx_hal_pwr_ex.c **** 
 259:Drivers/STM32G4xx_HAL_Driver/Src/stm32g4xx_hal_pwr_ex.c **** 
 260:Drivers/STM32G4xx_HAL_Driver/Src/stm32g4xx_hal_pwr_ex.c **** /**
 261:Drivers/STM32G4xx_HAL_Driver/Src/stm32g4xx_hal_pwr_ex.c ****   * @brief Enable Internal Wake-up Line.
 262:Drivers/STM32G4xx_HAL_Driver/Src/stm32g4xx_hal_pwr_ex.c ****   * @retval None
 263:Drivers/STM32G4xx_HAL_Driver/Src/stm32g4xx_hal_pwr_ex.c ****   */
 264:Drivers/STM32G4xx_HAL_Driver/Src/stm32g4xx_hal_pwr_ex.c **** void HAL_PWREx_EnableInternalWakeUpLine(void)
 265:Drivers/STM32G4xx_HAL_Driver/Src/stm32g4xx_hal_pwr_ex.c **** {
 351              		.loc 1 265 1 is_stmt 1 view -0
 352              		.cfi_startproc
 353              		@ args = 0, pretend = 0, frame = 0
 354              		@ frame_needed = 0, uses_anonymous_args = 0
 355              		@ link register save eliminated.
 266:Drivers/STM32G4xx_HAL_Driver/Src/stm32g4xx_hal_pwr_ex.c ****   SET_BIT(PWR->CR3, PWR_CR3_EIWF);
 356              		.loc 1 266 3 view .LVU84
 357 0000 024A     		ldr	r2, .L32
 358 0002 9368     		ldr	r3, [r2, #8]
 359 0004 43F40043 		orr	r3, r3, #32768
 360 0008 9360     		str	r3, [r2, #8]
 267:Drivers/STM32G4xx_HAL_Driver/Src/stm32g4xx_hal_pwr_ex.c **** }
 361              		.loc 1 267 1 is_stmt 0 view .LVU85
 362 000a 7047     		bx	lr
 363              	.L33:
 364              		.align	2
 365              	.L32:
 366 000c 00700040 		.word	1073770496
 367              		.cfi_endproc
 368              	.LFE333:
 370              		.section	.text.HAL_PWREx_DisableInternalWakeUpLine,"ax",%progbits
 371              		.align	1
 372              		.global	HAL_PWREx_DisableInternalWakeUpLine
 373              		.syntax unified
 374              		.thumb
 375              		.thumb_func
 377              	HAL_PWREx_DisableInternalWakeUpLine:
 378              	.LFB334:
 268:Drivers/STM32G4xx_HAL_Driver/Src/stm32g4xx_hal_pwr_ex.c **** 
 269:Drivers/STM32G4xx_HAL_Driver/Src/stm32g4xx_hal_pwr_ex.c **** 
 270:Drivers/STM32G4xx_HAL_Driver/Src/stm32g4xx_hal_pwr_ex.c **** /**
ARM GAS  C:\Users\57308\AppData\Local\Temp\ccqGNF8F.s 			page 13


 271:Drivers/STM32G4xx_HAL_Driver/Src/stm32g4xx_hal_pwr_ex.c ****   * @brief Disable Internal Wake-up Line.
 272:Drivers/STM32G4xx_HAL_Driver/Src/stm32g4xx_hal_pwr_ex.c ****   * @retval None
 273:Drivers/STM32G4xx_HAL_Driver/Src/stm32g4xx_hal_pwr_ex.c ****   */
 274:Drivers/STM32G4xx_HAL_Driver/Src/stm32g4xx_hal_pwr_ex.c **** void HAL_PWREx_DisableInternalWakeUpLine(void)
 275:Drivers/STM32G4xx_HAL_Driver/Src/stm32g4xx_hal_pwr_ex.c **** {
 379              		.loc 1 275 1 is_stmt 1 view -0
 380              		.cfi_startproc
 381              		@ args = 0, pretend = 0, frame = 0
 382              		@ frame_needed = 0, uses_anonymous_args = 0
 383              		@ link register save eliminated.
 276:Drivers/STM32G4xx_HAL_Driver/Src/stm32g4xx_hal_pwr_ex.c ****   CLEAR_BIT(PWR->CR3, PWR_CR3_EIWF);
 384              		.loc 1 276 3 view .LVU87
 385 0000 024A     		ldr	r2, .L35
 386 0002 9368     		ldr	r3, [r2, #8]
 387 0004 23F40043 		bic	r3, r3, #32768
 388 0008 9360     		str	r3, [r2, #8]
 277:Drivers/STM32G4xx_HAL_Driver/Src/stm32g4xx_hal_pwr_ex.c **** }
 389              		.loc 1 277 1 is_stmt 0 view .LVU88
 390 000a 7047     		bx	lr
 391              	.L36:
 392              		.align	2
 393              	.L35:
 394 000c 00700040 		.word	1073770496
 395              		.cfi_endproc
 396              	.LFE334:
 398              		.section	.text.HAL_PWREx_EnableGPIOPullUp,"ax",%progbits
 399              		.align	1
 400              		.global	HAL_PWREx_EnableGPIOPullUp
 401              		.syntax unified
 402              		.thumb
 403              		.thumb_func
 405              	HAL_PWREx_EnableGPIOPullUp:
 406              	.LVL21:
 407              	.LFB335:
 278:Drivers/STM32G4xx_HAL_Driver/Src/stm32g4xx_hal_pwr_ex.c **** 
 279:Drivers/STM32G4xx_HAL_Driver/Src/stm32g4xx_hal_pwr_ex.c **** 
 280:Drivers/STM32G4xx_HAL_Driver/Src/stm32g4xx_hal_pwr_ex.c **** 
 281:Drivers/STM32G4xx_HAL_Driver/Src/stm32g4xx_hal_pwr_ex.c **** /**
 282:Drivers/STM32G4xx_HAL_Driver/Src/stm32g4xx_hal_pwr_ex.c ****   * @brief Enable GPIO pull-up state in Standby and Shutdown modes.
 283:Drivers/STM32G4xx_HAL_Driver/Src/stm32g4xx_hal_pwr_ex.c ****   * @note  Set the relevant PUy bits of PWR_PUCRx register to configure the I/O in
 284:Drivers/STM32G4xx_HAL_Driver/Src/stm32g4xx_hal_pwr_ex.c ****   *        pull-up state in Standby and Shutdown modes.
 285:Drivers/STM32G4xx_HAL_Driver/Src/stm32g4xx_hal_pwr_ex.c ****   * @note  This state is effective in Standby and Shutdown modes only if APC bit
 286:Drivers/STM32G4xx_HAL_Driver/Src/stm32g4xx_hal_pwr_ex.c ****   *        is set through HAL_PWREx_EnablePullUpPullDownConfig() API.
 287:Drivers/STM32G4xx_HAL_Driver/Src/stm32g4xx_hal_pwr_ex.c ****   * @note  The configuration is lost when exiting the Shutdown mode due to the
 288:Drivers/STM32G4xx_HAL_Driver/Src/stm32g4xx_hal_pwr_ex.c ****   *        power-on reset, maintained when exiting the Standby mode.
 289:Drivers/STM32G4xx_HAL_Driver/Src/stm32g4xx_hal_pwr_ex.c ****   * @note  To avoid any conflict at Standby and Shutdown modes exits, the corresponding
 290:Drivers/STM32G4xx_HAL_Driver/Src/stm32g4xx_hal_pwr_ex.c ****   *        PDy bit of PWR_PDCRx register is cleared unless it is reserved.
 291:Drivers/STM32G4xx_HAL_Driver/Src/stm32g4xx_hal_pwr_ex.c ****   * @note  Even if a PUy bit to set is reserved, the other PUy bits entered as input
 292:Drivers/STM32G4xx_HAL_Driver/Src/stm32g4xx_hal_pwr_ex.c ****   *        parameter at the same time are set.
 293:Drivers/STM32G4xx_HAL_Driver/Src/stm32g4xx_hal_pwr_ex.c ****   * @param  GPIO: Specify the IO port. This parameter can be PWR_GPIO_A, ..., PWR_GPIO_G
 294:Drivers/STM32G4xx_HAL_Driver/Src/stm32g4xx_hal_pwr_ex.c ****   *         (or PWR_GPIO_I depending on the devices) to select the GPIO peripheral.
 295:Drivers/STM32G4xx_HAL_Driver/Src/stm32g4xx_hal_pwr_ex.c ****   * @param  GPIONumber: Specify the I/O pins numbers.
 296:Drivers/STM32G4xx_HAL_Driver/Src/stm32g4xx_hal_pwr_ex.c ****   *         This parameter can be one of the following values:
 297:Drivers/STM32G4xx_HAL_Driver/Src/stm32g4xx_hal_pwr_ex.c ****   *         PWR_GPIO_BIT_0, ..., PWR_GPIO_BIT_15 (except for the port where less
 298:Drivers/STM32G4xx_HAL_Driver/Src/stm32g4xx_hal_pwr_ex.c ****   *         I/O pins are available) or the logical OR of several of them to set
 299:Drivers/STM32G4xx_HAL_Driver/Src/stm32g4xx_hal_pwr_ex.c ****   *         several bits for a given port in a single API call.
 300:Drivers/STM32G4xx_HAL_Driver/Src/stm32g4xx_hal_pwr_ex.c ****   * @retval HAL Status
ARM GAS  C:\Users\57308\AppData\Local\Temp\ccqGNF8F.s 			page 14


 301:Drivers/STM32G4xx_HAL_Driver/Src/stm32g4xx_hal_pwr_ex.c ****   */
 302:Drivers/STM32G4xx_HAL_Driver/Src/stm32g4xx_hal_pwr_ex.c **** HAL_StatusTypeDef HAL_PWREx_EnableGPIOPullUp(uint32_t GPIO, uint32_t GPIONumber)
 303:Drivers/STM32G4xx_HAL_Driver/Src/stm32g4xx_hal_pwr_ex.c **** {
 408              		.loc 1 303 1 is_stmt 1 view -0
 409              		.cfi_startproc
 410              		@ args = 0, pretend = 0, frame = 0
 411              		@ frame_needed = 0, uses_anonymous_args = 0
 412              		@ link register save eliminated.
 304:Drivers/STM32G4xx_HAL_Driver/Src/stm32g4xx_hal_pwr_ex.c ****   HAL_StatusTypeDef status = HAL_OK;
 413              		.loc 1 304 3 view .LVU90
 305:Drivers/STM32G4xx_HAL_Driver/Src/stm32g4xx_hal_pwr_ex.c **** 
 306:Drivers/STM32G4xx_HAL_Driver/Src/stm32g4xx_hal_pwr_ex.c ****   assert_param(IS_PWR_GPIO(GPIO));
 414              		.loc 1 306 3 view .LVU91
 307:Drivers/STM32G4xx_HAL_Driver/Src/stm32g4xx_hal_pwr_ex.c ****   assert_param(IS_PWR_GPIO_BIT_NUMBER(GPIONumber));
 415              		.loc 1 307 3 view .LVU92
 308:Drivers/STM32G4xx_HAL_Driver/Src/stm32g4xx_hal_pwr_ex.c **** 
 309:Drivers/STM32G4xx_HAL_Driver/Src/stm32g4xx_hal_pwr_ex.c ****   switch (GPIO)
 416              		.loc 1 309 3 view .LVU93
 417 0000 0628     		cmp	r0, #6
 418 0002 55D8     		bhi	.L47
 419 0004 DFE800F0 		tbb	[pc, r0]
 420              	.L40:
 421 0008 04       		.byte	(.L46-.L40)/2
 422 0009 12       		.byte	(.L45-.L40)/2
 423 000a 1E       		.byte	(.L44-.L40)/2
 424 000b 28       		.byte	(.L43-.L40)/2
 425 000c 32       		.byte	(.L42-.L40)/2
 426 000d 3C       		.byte	(.L41-.L40)/2
 427 000e 4A       		.byte	(.L39-.L40)/2
 428 000f 00       		.p2align 1
 429              	.L46:
 310:Drivers/STM32G4xx_HAL_Driver/Src/stm32g4xx_hal_pwr_ex.c ****   {
 311:Drivers/STM32G4xx_HAL_Driver/Src/stm32g4xx_hal_pwr_ex.c ****     case PWR_GPIO_A:
 312:Drivers/STM32G4xx_HAL_Driver/Src/stm32g4xx_hal_pwr_ex.c ****        SET_BIT(PWR->PUCRA, (GPIONumber & (~(PWR_GPIO_BIT_14))));
 430              		.loc 1 312 8 view .LVU94
 431 0010 284B     		ldr	r3, .L48
 432 0012 1A6A     		ldr	r2, [r3, #32]
 433 0014 21F48040 		bic	r0, r1, #16384
 434              	.LVL22:
 435              		.loc 1 312 8 is_stmt 0 view .LVU95
 436 0018 0243     		orrs	r2, r2, r0
 437 001a 1A62     		str	r2, [r3, #32]
 313:Drivers/STM32G4xx_HAL_Driver/Src/stm32g4xx_hal_pwr_ex.c ****        CLEAR_BIT(PWR->PDCRA, (GPIONumber & (~(PWR_GPIO_BIT_13|PWR_GPIO_BIT_15))));
 438              		.loc 1 313 8 is_stmt 1 view .LVU96
 439 001c 5A6A     		ldr	r2, [r3, #36]
 440 001e 21F42041 		bic	r1, r1, #40960
 441              	.LVL23:
 442              		.loc 1 313 8 is_stmt 0 view .LVU97
 443 0022 22EA0101 		bic	r1, r2, r1
 444 0026 5962     		str	r1, [r3, #36]
 314:Drivers/STM32G4xx_HAL_Driver/Src/stm32g4xx_hal_pwr_ex.c ****        break;
 445              		.loc 1 314 8 is_stmt 1 view .LVU98
 304:Drivers/STM32G4xx_HAL_Driver/Src/stm32g4xx_hal_pwr_ex.c **** 
 446              		.loc 1 304 21 is_stmt 0 view .LVU99
 447 0028 0020     		movs	r0, #0
 448              		.loc 1 314 8 view .LVU100
 449 002a 7047     		bx	lr
ARM GAS  C:\Users\57308\AppData\Local\Temp\ccqGNF8F.s 			page 15


 450              	.LVL24:
 451              	.L45:
 315:Drivers/STM32G4xx_HAL_Driver/Src/stm32g4xx_hal_pwr_ex.c ****     case PWR_GPIO_B:
 316:Drivers/STM32G4xx_HAL_Driver/Src/stm32g4xx_hal_pwr_ex.c ****        SET_BIT(PWR->PUCRB, GPIONumber);
 452              		.loc 1 316 8 is_stmt 1 view .LVU101
 453 002c 214B     		ldr	r3, .L48
 454 002e 9A6A     		ldr	r2, [r3, #40]
 455 0030 0A43     		orrs	r2, r2, r1
 456 0032 9A62     		str	r2, [r3, #40]
 317:Drivers/STM32G4xx_HAL_Driver/Src/stm32g4xx_hal_pwr_ex.c ****        CLEAR_BIT(PWR->PDCRB, (GPIONumber & (~(PWR_GPIO_BIT_4))));
 457              		.loc 1 317 8 view .LVU102
 458 0034 DA6A     		ldr	r2, [r3, #44]
 459 0036 21F01001 		bic	r1, r1, #16
 460              	.LVL25:
 461              		.loc 1 317 8 is_stmt 0 view .LVU103
 462 003a 22EA0101 		bic	r1, r2, r1
 463 003e D962     		str	r1, [r3, #44]
 318:Drivers/STM32G4xx_HAL_Driver/Src/stm32g4xx_hal_pwr_ex.c ****        break;
 464              		.loc 1 318 8 is_stmt 1 view .LVU104
 304:Drivers/STM32G4xx_HAL_Driver/Src/stm32g4xx_hal_pwr_ex.c **** 
 465              		.loc 1 304 21 is_stmt 0 view .LVU105
 466 0040 0020     		movs	r0, #0
 467              	.LVL26:
 468              		.loc 1 318 8 view .LVU106
 469 0042 7047     		bx	lr
 470              	.LVL27:
 471              	.L44:
 319:Drivers/STM32G4xx_HAL_Driver/Src/stm32g4xx_hal_pwr_ex.c ****     case PWR_GPIO_C:
 320:Drivers/STM32G4xx_HAL_Driver/Src/stm32g4xx_hal_pwr_ex.c ****        SET_BIT(PWR->PUCRC, GPIONumber);
 472              		.loc 1 320 8 is_stmt 1 view .LVU107
 473 0044 1B4B     		ldr	r3, .L48
 474 0046 1A6B     		ldr	r2, [r3, #48]
 475 0048 0A43     		orrs	r2, r2, r1
 476 004a 1A63     		str	r2, [r3, #48]
 321:Drivers/STM32G4xx_HAL_Driver/Src/stm32g4xx_hal_pwr_ex.c ****        CLEAR_BIT(PWR->PDCRC, GPIONumber);
 477              		.loc 1 321 8 view .LVU108
 478 004c 5A6B     		ldr	r2, [r3, #52]
 479 004e 22EA0101 		bic	r1, r2, r1
 480              	.LVL28:
 481              		.loc 1 321 8 is_stmt 0 view .LVU109
 482 0052 5963     		str	r1, [r3, #52]
 322:Drivers/STM32G4xx_HAL_Driver/Src/stm32g4xx_hal_pwr_ex.c ****        break;
 483              		.loc 1 322 8 is_stmt 1 view .LVU110
 304:Drivers/STM32G4xx_HAL_Driver/Src/stm32g4xx_hal_pwr_ex.c **** 
 484              		.loc 1 304 21 is_stmt 0 view .LVU111
 485 0054 0020     		movs	r0, #0
 486              	.LVL29:
 487              		.loc 1 322 8 view .LVU112
 488 0056 7047     		bx	lr
 489              	.LVL30:
 490              	.L43:
 323:Drivers/STM32G4xx_HAL_Driver/Src/stm32g4xx_hal_pwr_ex.c ****     case PWR_GPIO_D:
 324:Drivers/STM32G4xx_HAL_Driver/Src/stm32g4xx_hal_pwr_ex.c ****        SET_BIT(PWR->PUCRD, GPIONumber);
 491              		.loc 1 324 8 is_stmt 1 view .LVU113
 492 0058 164B     		ldr	r3, .L48
 493 005a 9A6B     		ldr	r2, [r3, #56]
 494 005c 0A43     		orrs	r2, r2, r1
ARM GAS  C:\Users\57308\AppData\Local\Temp\ccqGNF8F.s 			page 16


 495 005e 9A63     		str	r2, [r3, #56]
 325:Drivers/STM32G4xx_HAL_Driver/Src/stm32g4xx_hal_pwr_ex.c ****        CLEAR_BIT(PWR->PDCRD, GPIONumber);
 496              		.loc 1 325 8 view .LVU114
 497 0060 DA6B     		ldr	r2, [r3, #60]
 498 0062 22EA0101 		bic	r1, r2, r1
 499              	.LVL31:
 500              		.loc 1 325 8 is_stmt 0 view .LVU115
 501 0066 D963     		str	r1, [r3, #60]
 326:Drivers/STM32G4xx_HAL_Driver/Src/stm32g4xx_hal_pwr_ex.c ****        break;
 502              		.loc 1 326 8 is_stmt 1 view .LVU116
 304:Drivers/STM32G4xx_HAL_Driver/Src/stm32g4xx_hal_pwr_ex.c **** 
 503              		.loc 1 304 21 is_stmt 0 view .LVU117
 504 0068 0020     		movs	r0, #0
 505              	.LVL32:
 506              		.loc 1 326 8 view .LVU118
 507 006a 7047     		bx	lr
 508              	.LVL33:
 509              	.L42:
 327:Drivers/STM32G4xx_HAL_Driver/Src/stm32g4xx_hal_pwr_ex.c ****     case PWR_GPIO_E:
 328:Drivers/STM32G4xx_HAL_Driver/Src/stm32g4xx_hal_pwr_ex.c ****        SET_BIT(PWR->PUCRE, GPIONumber);
 510              		.loc 1 328 8 is_stmt 1 view .LVU119
 511 006c 114B     		ldr	r3, .L48
 512 006e 1A6C     		ldr	r2, [r3, #64]
 513 0070 0A43     		orrs	r2, r2, r1
 514 0072 1A64     		str	r2, [r3, #64]
 329:Drivers/STM32G4xx_HAL_Driver/Src/stm32g4xx_hal_pwr_ex.c ****        CLEAR_BIT(PWR->PDCRE, GPIONumber);
 515              		.loc 1 329 8 view .LVU120
 516 0074 5A6C     		ldr	r2, [r3, #68]
 517 0076 22EA0101 		bic	r1, r2, r1
 518              	.LVL34:
 519              		.loc 1 329 8 is_stmt 0 view .LVU121
 520 007a 5964     		str	r1, [r3, #68]
 330:Drivers/STM32G4xx_HAL_Driver/Src/stm32g4xx_hal_pwr_ex.c ****        break;
 521              		.loc 1 330 8 is_stmt 1 view .LVU122
 304:Drivers/STM32G4xx_HAL_Driver/Src/stm32g4xx_hal_pwr_ex.c **** 
 522              		.loc 1 304 21 is_stmt 0 view .LVU123
 523 007c 0020     		movs	r0, #0
 524              	.LVL35:
 525              		.loc 1 330 8 view .LVU124
 526 007e 7047     		bx	lr
 527              	.LVL36:
 528              	.L41:
 331:Drivers/STM32G4xx_HAL_Driver/Src/stm32g4xx_hal_pwr_ex.c ****     case PWR_GPIO_F:
 332:Drivers/STM32G4xx_HAL_Driver/Src/stm32g4xx_hal_pwr_ex.c ****        SET_BIT(PWR->PUCRF, (GPIONumber & PWR_PORTF_AVAILABLE_PINS));
 529              		.loc 1 332 8 is_stmt 1 view .LVU125
 530 0080 0C4B     		ldr	r3, .L48
 531 0082 9A6C     		ldr	r2, [r3, #72]
 532 0084 21F4FC71 		bic	r1, r1, #504
 533              	.LVL37:
 534              		.loc 1 332 8 is_stmt 0 view .LVU126
 535 0088 4905     		lsls	r1, r1, #21
 536 008a 490D     		lsrs	r1, r1, #21
 537 008c 0A43     		orrs	r2, r2, r1
 538 008e 9A64     		str	r2, [r3, #72]
 333:Drivers/STM32G4xx_HAL_Driver/Src/stm32g4xx_hal_pwr_ex.c ****        CLEAR_BIT(PWR->PDCRF, (GPIONumber & PWR_PORTF_AVAILABLE_PINS));
 539              		.loc 1 333 8 is_stmt 1 view .LVU127
 540 0090 DA6C     		ldr	r2, [r3, #76]
ARM GAS  C:\Users\57308\AppData\Local\Temp\ccqGNF8F.s 			page 17


 541 0092 22EA0101 		bic	r1, r2, r1
 542 0096 D964     		str	r1, [r3, #76]
 334:Drivers/STM32G4xx_HAL_Driver/Src/stm32g4xx_hal_pwr_ex.c ****        break;
 543              		.loc 1 334 8 view .LVU128
 304:Drivers/STM32G4xx_HAL_Driver/Src/stm32g4xx_hal_pwr_ex.c **** 
 544              		.loc 1 304 21 is_stmt 0 view .LVU129
 545 0098 0020     		movs	r0, #0
 546              	.LVL38:
 547              		.loc 1 334 8 view .LVU130
 548 009a 7047     		bx	lr
 549              	.LVL39:
 550              	.L39:
 335:Drivers/STM32G4xx_HAL_Driver/Src/stm32g4xx_hal_pwr_ex.c ****     case PWR_GPIO_G:
 336:Drivers/STM32G4xx_HAL_Driver/Src/stm32g4xx_hal_pwr_ex.c ****        SET_BIT(PWR->PUCRG, (GPIONumber & PWR_PORTG_AVAILABLE_PINS));
 551              		.loc 1 336 8 is_stmt 1 view .LVU131
 552 009c 054B     		ldr	r3, .L48
 553 009e 1A6D     		ldr	r2, [r3, #80]
 554 00a0 01F48061 		and	r1, r1, #1024
 555              	.LVL40:
 556              		.loc 1 336 8 is_stmt 0 view .LVU132
 557 00a4 1143     		orrs	r1, r1, r2
 558 00a6 1965     		str	r1, [r3, #80]
 337:Drivers/STM32G4xx_HAL_Driver/Src/stm32g4xx_hal_pwr_ex.c ****        CLEAR_BIT(PWR->PDCRG, ((GPIONumber & PWR_PORTG_AVAILABLE_PINS) & (~(PWR_GPIO_BIT_10))));
 559              		.loc 1 337 8 is_stmt 1 view .LVU133
 560 00a8 5A6D     		ldr	r2, [r3, #84]
 561 00aa 5A65     		str	r2, [r3, #84]
 338:Drivers/STM32G4xx_HAL_Driver/Src/stm32g4xx_hal_pwr_ex.c ****        break;
 562              		.loc 1 338 8 view .LVU134
 304:Drivers/STM32G4xx_HAL_Driver/Src/stm32g4xx_hal_pwr_ex.c **** 
 563              		.loc 1 304 21 is_stmt 0 view .LVU135
 564 00ac 0020     		movs	r0, #0
 565              	.LVL41:
 566              		.loc 1 338 8 view .LVU136
 567 00ae 7047     		bx	lr
 568              	.LVL42:
 569              	.L47:
 309:Drivers/STM32G4xx_HAL_Driver/Src/stm32g4xx_hal_pwr_ex.c ****   {
 570              		.loc 1 309 3 view .LVU137
 571 00b0 0120     		movs	r0, #1
 572              	.LVL43:
 339:Drivers/STM32G4xx_HAL_Driver/Src/stm32g4xx_hal_pwr_ex.c ****     default:
 340:Drivers/STM32G4xx_HAL_Driver/Src/stm32g4xx_hal_pwr_ex.c ****       status = HAL_ERROR;
 341:Drivers/STM32G4xx_HAL_Driver/Src/stm32g4xx_hal_pwr_ex.c ****       break;
 342:Drivers/STM32G4xx_HAL_Driver/Src/stm32g4xx_hal_pwr_ex.c ****   }
 343:Drivers/STM32G4xx_HAL_Driver/Src/stm32g4xx_hal_pwr_ex.c **** 
 344:Drivers/STM32G4xx_HAL_Driver/Src/stm32g4xx_hal_pwr_ex.c ****   return status;
 573              		.loc 1 344 3 is_stmt 1 view .LVU138
 345:Drivers/STM32G4xx_HAL_Driver/Src/stm32g4xx_hal_pwr_ex.c **** }
 574              		.loc 1 345 1 is_stmt 0 view .LVU139
 575 00b2 7047     		bx	lr
 576              	.L49:
 577              		.align	2
 578              	.L48:
 579 00b4 00700040 		.word	1073770496
 580              		.cfi_endproc
 581              	.LFE335:
 583              		.section	.text.HAL_PWREx_DisableGPIOPullUp,"ax",%progbits
ARM GAS  C:\Users\57308\AppData\Local\Temp\ccqGNF8F.s 			page 18


 584              		.align	1
 585              		.global	HAL_PWREx_DisableGPIOPullUp
 586              		.syntax unified
 587              		.thumb
 588              		.thumb_func
 590              	HAL_PWREx_DisableGPIOPullUp:
 591              	.LVL44:
 592              	.LFB336:
 346:Drivers/STM32G4xx_HAL_Driver/Src/stm32g4xx_hal_pwr_ex.c **** 
 347:Drivers/STM32G4xx_HAL_Driver/Src/stm32g4xx_hal_pwr_ex.c **** 
 348:Drivers/STM32G4xx_HAL_Driver/Src/stm32g4xx_hal_pwr_ex.c **** /**
 349:Drivers/STM32G4xx_HAL_Driver/Src/stm32g4xx_hal_pwr_ex.c ****   * @brief Disable GPIO pull-up state in Standby mode and Shutdown modes.
 350:Drivers/STM32G4xx_HAL_Driver/Src/stm32g4xx_hal_pwr_ex.c ****   * @note  Reset the relevant PUy bits of PWR_PUCRx register used to configure the I/O
 351:Drivers/STM32G4xx_HAL_Driver/Src/stm32g4xx_hal_pwr_ex.c ****   *        in pull-up state in Standby and Shutdown modes.
 352:Drivers/STM32G4xx_HAL_Driver/Src/stm32g4xx_hal_pwr_ex.c ****   * @note  Even if a PUy bit to reset is reserved, the other PUy bits entered as input
 353:Drivers/STM32G4xx_HAL_Driver/Src/stm32g4xx_hal_pwr_ex.c ****   *        parameter at the same time are reset.
 354:Drivers/STM32G4xx_HAL_Driver/Src/stm32g4xx_hal_pwr_ex.c ****   * @param  GPIO: Specifies the IO port. This parameter can be PWR_GPIO_A, ..., PWR_GPIO_G
 355:Drivers/STM32G4xx_HAL_Driver/Src/stm32g4xx_hal_pwr_ex.c ****   *          (or PWR_GPIO_I depending on the devices) to select the GPIO peripheral.
 356:Drivers/STM32G4xx_HAL_Driver/Src/stm32g4xx_hal_pwr_ex.c ****   * @param  GPIONumber: Specify the I/O pins numbers.
 357:Drivers/STM32G4xx_HAL_Driver/Src/stm32g4xx_hal_pwr_ex.c ****   *         This parameter can be one of the following values:
 358:Drivers/STM32G4xx_HAL_Driver/Src/stm32g4xx_hal_pwr_ex.c ****   *         PWR_GPIO_BIT_0, ..., PWR_GPIO_BIT_15 (except for the port where less
 359:Drivers/STM32G4xx_HAL_Driver/Src/stm32g4xx_hal_pwr_ex.c ****   *         I/O pins are available) or the logical OR of several of them to reset
 360:Drivers/STM32G4xx_HAL_Driver/Src/stm32g4xx_hal_pwr_ex.c ****   *         several bits for a given port in a single API call.
 361:Drivers/STM32G4xx_HAL_Driver/Src/stm32g4xx_hal_pwr_ex.c ****   * @retval HAL Status
 362:Drivers/STM32G4xx_HAL_Driver/Src/stm32g4xx_hal_pwr_ex.c ****   */
 363:Drivers/STM32G4xx_HAL_Driver/Src/stm32g4xx_hal_pwr_ex.c **** HAL_StatusTypeDef HAL_PWREx_DisableGPIOPullUp(uint32_t GPIO, uint32_t GPIONumber)
 364:Drivers/STM32G4xx_HAL_Driver/Src/stm32g4xx_hal_pwr_ex.c **** {
 593              		.loc 1 364 1 is_stmt 1 view -0
 594              		.cfi_startproc
 595              		@ args = 0, pretend = 0, frame = 0
 596              		@ frame_needed = 0, uses_anonymous_args = 0
 597              		@ link register save eliminated.
 365:Drivers/STM32G4xx_HAL_Driver/Src/stm32g4xx_hal_pwr_ex.c ****   HAL_StatusTypeDef status = HAL_OK;
 598              		.loc 1 365 3 view .LVU141
 366:Drivers/STM32G4xx_HAL_Driver/Src/stm32g4xx_hal_pwr_ex.c **** 
 367:Drivers/STM32G4xx_HAL_Driver/Src/stm32g4xx_hal_pwr_ex.c ****   assert_param(IS_PWR_GPIO(GPIO));
 599              		.loc 1 367 3 view .LVU142
 368:Drivers/STM32G4xx_HAL_Driver/Src/stm32g4xx_hal_pwr_ex.c ****   assert_param(IS_PWR_GPIO_BIT_NUMBER(GPIONumber));
 600              		.loc 1 368 3 view .LVU143
 369:Drivers/STM32G4xx_HAL_Driver/Src/stm32g4xx_hal_pwr_ex.c **** 
 370:Drivers/STM32G4xx_HAL_Driver/Src/stm32g4xx_hal_pwr_ex.c ****   switch (GPIO)
 601              		.loc 1 370 3 view .LVU144
 602 0000 0628     		cmp	r0, #6
 603 0002 3ED8     		bhi	.L60
 604 0004 DFE800F0 		tbb	[pc, r0]
 605              	.L53:
 606 0008 04       		.byte	(.L59-.L53)/2
 607 0009 0D       		.byte	(.L58-.L53)/2
 608 000a 14       		.byte	(.L57-.L53)/2
 609 000b 1B       		.byte	(.L56-.L53)/2
 610 000c 22       		.byte	(.L55-.L53)/2
 611 000d 29       		.byte	(.L54-.L53)/2
 612 000e 34       		.byte	(.L52-.L53)/2
 613 000f 00       		.p2align 1
 614              	.L59:
 371:Drivers/STM32G4xx_HAL_Driver/Src/stm32g4xx_hal_pwr_ex.c ****   {
 372:Drivers/STM32G4xx_HAL_Driver/Src/stm32g4xx_hal_pwr_ex.c ****     case PWR_GPIO_A:
ARM GAS  C:\Users\57308\AppData\Local\Temp\ccqGNF8F.s 			page 19


 373:Drivers/STM32G4xx_HAL_Driver/Src/stm32g4xx_hal_pwr_ex.c ****        CLEAR_BIT(PWR->PUCRA, (GPIONumber & (~(PWR_GPIO_BIT_14))));
 615              		.loc 1 373 8 view .LVU145
 616 0010 1D4A     		ldr	r2, .L61
 617 0012 136A     		ldr	r3, [r2, #32]
 618 0014 21F48041 		bic	r1, r1, #16384
 619              	.LVL45:
 620              		.loc 1 373 8 is_stmt 0 view .LVU146
 621 0018 23EA0101 		bic	r1, r3, r1
 622 001c 1162     		str	r1, [r2, #32]
 374:Drivers/STM32G4xx_HAL_Driver/Src/stm32g4xx_hal_pwr_ex.c ****        break;
 623              		.loc 1 374 8 is_stmt 1 view .LVU147
 365:Drivers/STM32G4xx_HAL_Driver/Src/stm32g4xx_hal_pwr_ex.c **** 
 624              		.loc 1 365 21 is_stmt 0 view .LVU148
 625 001e 0020     		movs	r0, #0
 626              	.LVL46:
 627              		.loc 1 374 8 view .LVU149
 628 0020 7047     		bx	lr
 629              	.LVL47:
 630              	.L58:
 375:Drivers/STM32G4xx_HAL_Driver/Src/stm32g4xx_hal_pwr_ex.c ****     case PWR_GPIO_B:
 376:Drivers/STM32G4xx_HAL_Driver/Src/stm32g4xx_hal_pwr_ex.c ****        CLEAR_BIT(PWR->PUCRB, GPIONumber);
 631              		.loc 1 376 8 is_stmt 1 view .LVU150
 632 0022 194A     		ldr	r2, .L61
 633 0024 936A     		ldr	r3, [r2, #40]
 634 0026 23EA0101 		bic	r1, r3, r1
 635              	.LVL48:
 636              		.loc 1 376 8 is_stmt 0 view .LVU151
 637 002a 9162     		str	r1, [r2, #40]
 377:Drivers/STM32G4xx_HAL_Driver/Src/stm32g4xx_hal_pwr_ex.c ****        break;
 638              		.loc 1 377 8 is_stmt 1 view .LVU152
 365:Drivers/STM32G4xx_HAL_Driver/Src/stm32g4xx_hal_pwr_ex.c **** 
 639              		.loc 1 365 21 is_stmt 0 view .LVU153
 640 002c 0020     		movs	r0, #0
 641              	.LVL49:
 642              		.loc 1 377 8 view .LVU154
 643 002e 7047     		bx	lr
 644              	.LVL50:
 645              	.L57:
 378:Drivers/STM32G4xx_HAL_Driver/Src/stm32g4xx_hal_pwr_ex.c ****     case PWR_GPIO_C:
 379:Drivers/STM32G4xx_HAL_Driver/Src/stm32g4xx_hal_pwr_ex.c ****        CLEAR_BIT(PWR->PUCRC, GPIONumber);
 646              		.loc 1 379 8 is_stmt 1 view .LVU155
 647 0030 154A     		ldr	r2, .L61
 648 0032 136B     		ldr	r3, [r2, #48]
 649 0034 23EA0101 		bic	r1, r3, r1
 650              	.LVL51:
 651              		.loc 1 379 8 is_stmt 0 view .LVU156
 652 0038 1163     		str	r1, [r2, #48]
 380:Drivers/STM32G4xx_HAL_Driver/Src/stm32g4xx_hal_pwr_ex.c ****        break;
 653              		.loc 1 380 8 is_stmt 1 view .LVU157
 365:Drivers/STM32G4xx_HAL_Driver/Src/stm32g4xx_hal_pwr_ex.c **** 
 654              		.loc 1 365 21 is_stmt 0 view .LVU158
 655 003a 0020     		movs	r0, #0
 656              	.LVL52:
 657              		.loc 1 380 8 view .LVU159
 658 003c 7047     		bx	lr
 659              	.LVL53:
 660              	.L56:
ARM GAS  C:\Users\57308\AppData\Local\Temp\ccqGNF8F.s 			page 20


 381:Drivers/STM32G4xx_HAL_Driver/Src/stm32g4xx_hal_pwr_ex.c ****     case PWR_GPIO_D:
 382:Drivers/STM32G4xx_HAL_Driver/Src/stm32g4xx_hal_pwr_ex.c ****        CLEAR_BIT(PWR->PUCRD, GPIONumber);
 661              		.loc 1 382 8 is_stmt 1 view .LVU160
 662 003e 124A     		ldr	r2, .L61
 663 0040 936B     		ldr	r3, [r2, #56]
 664 0042 23EA0101 		bic	r1, r3, r1
 665              	.LVL54:
 666              		.loc 1 382 8 is_stmt 0 view .LVU161
 667 0046 9163     		str	r1, [r2, #56]
 383:Drivers/STM32G4xx_HAL_Driver/Src/stm32g4xx_hal_pwr_ex.c ****        break;
 668              		.loc 1 383 8 is_stmt 1 view .LVU162
 365:Drivers/STM32G4xx_HAL_Driver/Src/stm32g4xx_hal_pwr_ex.c **** 
 669              		.loc 1 365 21 is_stmt 0 view .LVU163
 670 0048 0020     		movs	r0, #0
 671              	.LVL55:
 672              		.loc 1 383 8 view .LVU164
 673 004a 7047     		bx	lr
 674              	.LVL56:
 675              	.L55:
 384:Drivers/STM32G4xx_HAL_Driver/Src/stm32g4xx_hal_pwr_ex.c ****     case PWR_GPIO_E:
 385:Drivers/STM32G4xx_HAL_Driver/Src/stm32g4xx_hal_pwr_ex.c ****        CLEAR_BIT(PWR->PUCRE, GPIONumber);
 676              		.loc 1 385 8 is_stmt 1 view .LVU165
 677 004c 0E4A     		ldr	r2, .L61
 678 004e 136C     		ldr	r3, [r2, #64]
 679 0050 23EA0101 		bic	r1, r3, r1
 680              	.LVL57:
 681              		.loc 1 385 8 is_stmt 0 view .LVU166
 682 0054 1164     		str	r1, [r2, #64]
 386:Drivers/STM32G4xx_HAL_Driver/Src/stm32g4xx_hal_pwr_ex.c ****        break;
 683              		.loc 1 386 8 is_stmt 1 view .LVU167
 365:Drivers/STM32G4xx_HAL_Driver/Src/stm32g4xx_hal_pwr_ex.c **** 
 684              		.loc 1 365 21 is_stmt 0 view .LVU168
 685 0056 0020     		movs	r0, #0
 686              	.LVL58:
 687              		.loc 1 386 8 view .LVU169
 688 0058 7047     		bx	lr
 689              	.LVL59:
 690              	.L54:
 387:Drivers/STM32G4xx_HAL_Driver/Src/stm32g4xx_hal_pwr_ex.c ****     case PWR_GPIO_F:
 388:Drivers/STM32G4xx_HAL_Driver/Src/stm32g4xx_hal_pwr_ex.c ****        CLEAR_BIT(PWR->PUCRF, (GPIONumber & PWR_PORTF_AVAILABLE_PINS));
 691              		.loc 1 388 8 is_stmt 1 view .LVU170
 692 005a 0B4A     		ldr	r2, .L61
 693 005c 936C     		ldr	r3, [r2, #72]
 694 005e 21F4FC71 		bic	r1, r1, #504
 695              	.LVL60:
 696              		.loc 1 388 8 is_stmt 0 view .LVU171
 697 0062 4905     		lsls	r1, r1, #21
 698 0064 490D     		lsrs	r1, r1, #21
 699 0066 23EA0101 		bic	r1, r3, r1
 700 006a 9164     		str	r1, [r2, #72]
 389:Drivers/STM32G4xx_HAL_Driver/Src/stm32g4xx_hal_pwr_ex.c ****        break;
 701              		.loc 1 389 8 is_stmt 1 view .LVU172
 365:Drivers/STM32G4xx_HAL_Driver/Src/stm32g4xx_hal_pwr_ex.c **** 
 702              		.loc 1 365 21 is_stmt 0 view .LVU173
 703 006c 0020     		movs	r0, #0
 704              	.LVL61:
 705              		.loc 1 389 8 view .LVU174
ARM GAS  C:\Users\57308\AppData\Local\Temp\ccqGNF8F.s 			page 21


 706 006e 7047     		bx	lr
 707              	.LVL62:
 708              	.L52:
 390:Drivers/STM32G4xx_HAL_Driver/Src/stm32g4xx_hal_pwr_ex.c ****     case PWR_GPIO_G:
 391:Drivers/STM32G4xx_HAL_Driver/Src/stm32g4xx_hal_pwr_ex.c ****        CLEAR_BIT(PWR->PUCRG, (GPIONumber & PWR_PORTG_AVAILABLE_PINS));
 709              		.loc 1 391 8 is_stmt 1 view .LVU175
 710 0070 054A     		ldr	r2, .L61
 711 0072 136D     		ldr	r3, [r2, #80]
 712 0074 01F48061 		and	r1, r1, #1024
 713              	.LVL63:
 714              		.loc 1 391 8 is_stmt 0 view .LVU176
 715 0078 23EA0101 		bic	r1, r3, r1
 716 007c 1165     		str	r1, [r2, #80]
 392:Drivers/STM32G4xx_HAL_Driver/Src/stm32g4xx_hal_pwr_ex.c ****        break;
 717              		.loc 1 392 8 is_stmt 1 view .LVU177
 365:Drivers/STM32G4xx_HAL_Driver/Src/stm32g4xx_hal_pwr_ex.c **** 
 718              		.loc 1 365 21 is_stmt 0 view .LVU178
 719 007e 0020     		movs	r0, #0
 720              	.LVL64:
 721              		.loc 1 392 8 view .LVU179
 722 0080 7047     		bx	lr
 723              	.LVL65:
 724              	.L60:
 370:Drivers/STM32G4xx_HAL_Driver/Src/stm32g4xx_hal_pwr_ex.c ****   {
 725              		.loc 1 370 3 view .LVU180
 726 0082 0120     		movs	r0, #1
 727              	.LVL66:
 393:Drivers/STM32G4xx_HAL_Driver/Src/stm32g4xx_hal_pwr_ex.c ****     default:
 394:Drivers/STM32G4xx_HAL_Driver/Src/stm32g4xx_hal_pwr_ex.c ****        status = HAL_ERROR;
 395:Drivers/STM32G4xx_HAL_Driver/Src/stm32g4xx_hal_pwr_ex.c ****        break;
 396:Drivers/STM32G4xx_HAL_Driver/Src/stm32g4xx_hal_pwr_ex.c ****   }
 397:Drivers/STM32G4xx_HAL_Driver/Src/stm32g4xx_hal_pwr_ex.c **** 
 398:Drivers/STM32G4xx_HAL_Driver/Src/stm32g4xx_hal_pwr_ex.c ****   return status;
 728              		.loc 1 398 3 is_stmt 1 view .LVU181
 399:Drivers/STM32G4xx_HAL_Driver/Src/stm32g4xx_hal_pwr_ex.c **** }
 729              		.loc 1 399 1 is_stmt 0 view .LVU182
 730 0084 7047     		bx	lr
 731              	.L62:
 732 0086 00BF     		.align	2
 733              	.L61:
 734 0088 00700040 		.word	1073770496
 735              		.cfi_endproc
 736              	.LFE336:
 738              		.section	.text.HAL_PWREx_EnableGPIOPullDown,"ax",%progbits
 739              		.align	1
 740              		.global	HAL_PWREx_EnableGPIOPullDown
 741              		.syntax unified
 742              		.thumb
 743              		.thumb_func
 745              	HAL_PWREx_EnableGPIOPullDown:
 746              	.LVL67:
 747              	.LFB337:
 400:Drivers/STM32G4xx_HAL_Driver/Src/stm32g4xx_hal_pwr_ex.c **** 
 401:Drivers/STM32G4xx_HAL_Driver/Src/stm32g4xx_hal_pwr_ex.c **** 
 402:Drivers/STM32G4xx_HAL_Driver/Src/stm32g4xx_hal_pwr_ex.c **** 
 403:Drivers/STM32G4xx_HAL_Driver/Src/stm32g4xx_hal_pwr_ex.c **** /**
 404:Drivers/STM32G4xx_HAL_Driver/Src/stm32g4xx_hal_pwr_ex.c ****   * @brief Enable GPIO pull-down state in Standby and Shutdown modes.
ARM GAS  C:\Users\57308\AppData\Local\Temp\ccqGNF8F.s 			page 22


 405:Drivers/STM32G4xx_HAL_Driver/Src/stm32g4xx_hal_pwr_ex.c ****   * @note  Set the relevant PDy bits of PWR_PDCRx register to configure the I/O in
 406:Drivers/STM32G4xx_HAL_Driver/Src/stm32g4xx_hal_pwr_ex.c ****   *        pull-down state in Standby and Shutdown modes.
 407:Drivers/STM32G4xx_HAL_Driver/Src/stm32g4xx_hal_pwr_ex.c ****   * @note  This state is effective in Standby and Shutdown modes only if APC bit
 408:Drivers/STM32G4xx_HAL_Driver/Src/stm32g4xx_hal_pwr_ex.c ****   *        is set through HAL_PWREx_EnablePullUpPullDownConfig() API.
 409:Drivers/STM32G4xx_HAL_Driver/Src/stm32g4xx_hal_pwr_ex.c ****   * @note  The configuration is lost when exiting the Shutdown mode due to the
 410:Drivers/STM32G4xx_HAL_Driver/Src/stm32g4xx_hal_pwr_ex.c ****   *        power-on reset, maintained when exiting the Standby mode.
 411:Drivers/STM32G4xx_HAL_Driver/Src/stm32g4xx_hal_pwr_ex.c ****   * @note  To avoid any conflict at Standby and Shutdown modes exits, the corresponding
 412:Drivers/STM32G4xx_HAL_Driver/Src/stm32g4xx_hal_pwr_ex.c ****   *        PUy bit of PWR_PUCRx register is cleared unless it is reserved.
 413:Drivers/STM32G4xx_HAL_Driver/Src/stm32g4xx_hal_pwr_ex.c ****   * @note  Even if a PDy bit to set is reserved, the other PDy bits entered as input
 414:Drivers/STM32G4xx_HAL_Driver/Src/stm32g4xx_hal_pwr_ex.c ****   *        parameter at the same time are set.
 415:Drivers/STM32G4xx_HAL_Driver/Src/stm32g4xx_hal_pwr_ex.c ****   * @param  GPIO: Specify the IO port. This parameter can be PWR_GPIO_A..PWR_GPIO_G
 416:Drivers/STM32G4xx_HAL_Driver/Src/stm32g4xx_hal_pwr_ex.c ****   *         (or PWR_GPIO_I depending on the devices) to select the GPIO peripheral.
 417:Drivers/STM32G4xx_HAL_Driver/Src/stm32g4xx_hal_pwr_ex.c ****   * @param  GPIONumber: Specify the I/O pins numbers.
 418:Drivers/STM32G4xx_HAL_Driver/Src/stm32g4xx_hal_pwr_ex.c ****   *         This parameter can be one of the following values:
 419:Drivers/STM32G4xx_HAL_Driver/Src/stm32g4xx_hal_pwr_ex.c ****   *         PWR_GPIO_BIT_0, ..., PWR_GPIO_BIT_15 (except for the port where less
 420:Drivers/STM32G4xx_HAL_Driver/Src/stm32g4xx_hal_pwr_ex.c ****   *         I/O pins are available) or the logical OR of several of them to set
 421:Drivers/STM32G4xx_HAL_Driver/Src/stm32g4xx_hal_pwr_ex.c ****   *         several bits for a given port in a single API call.
 422:Drivers/STM32G4xx_HAL_Driver/Src/stm32g4xx_hal_pwr_ex.c ****   * @retval HAL Status
 423:Drivers/STM32G4xx_HAL_Driver/Src/stm32g4xx_hal_pwr_ex.c ****   */
 424:Drivers/STM32G4xx_HAL_Driver/Src/stm32g4xx_hal_pwr_ex.c **** HAL_StatusTypeDef HAL_PWREx_EnableGPIOPullDown(uint32_t GPIO, uint32_t GPIONumber)
 425:Drivers/STM32G4xx_HAL_Driver/Src/stm32g4xx_hal_pwr_ex.c **** {
 748              		.loc 1 425 1 is_stmt 1 view -0
 749              		.cfi_startproc
 750              		@ args = 0, pretend = 0, frame = 0
 751              		@ frame_needed = 0, uses_anonymous_args = 0
 752              		@ link register save eliminated.
 426:Drivers/STM32G4xx_HAL_Driver/Src/stm32g4xx_hal_pwr_ex.c ****   HAL_StatusTypeDef status = HAL_OK;
 753              		.loc 1 426 3 view .LVU184
 427:Drivers/STM32G4xx_HAL_Driver/Src/stm32g4xx_hal_pwr_ex.c **** 
 428:Drivers/STM32G4xx_HAL_Driver/Src/stm32g4xx_hal_pwr_ex.c ****   assert_param(IS_PWR_GPIO(GPIO));
 754              		.loc 1 428 3 view .LVU185
 429:Drivers/STM32G4xx_HAL_Driver/Src/stm32g4xx_hal_pwr_ex.c ****   assert_param(IS_PWR_GPIO_BIT_NUMBER(GPIONumber));
 755              		.loc 1 429 3 view .LVU186
 430:Drivers/STM32G4xx_HAL_Driver/Src/stm32g4xx_hal_pwr_ex.c **** 
 431:Drivers/STM32G4xx_HAL_Driver/Src/stm32g4xx_hal_pwr_ex.c ****   switch (GPIO)
 756              		.loc 1 431 3 view .LVU187
 757 0000 0628     		cmp	r0, #6
 758 0002 56D8     		bhi	.L73
 759 0004 DFE800F0 		tbb	[pc, r0]
 760              	.L66:
 761 0008 04       		.byte	(.L72-.L66)/2
 762 0009 12       		.byte	(.L71-.L66)/2
 763 000a 1E       		.byte	(.L70-.L66)/2
 764 000b 28       		.byte	(.L69-.L66)/2
 765 000c 32       		.byte	(.L68-.L66)/2
 766 000d 3C       		.byte	(.L67-.L66)/2
 767 000e 4A       		.byte	(.L65-.L66)/2
 768 000f 00       		.p2align 1
 769              	.L72:
 432:Drivers/STM32G4xx_HAL_Driver/Src/stm32g4xx_hal_pwr_ex.c ****   {
 433:Drivers/STM32G4xx_HAL_Driver/Src/stm32g4xx_hal_pwr_ex.c ****     case PWR_GPIO_A:
 434:Drivers/STM32G4xx_HAL_Driver/Src/stm32g4xx_hal_pwr_ex.c ****        SET_BIT(PWR->PDCRA, (GPIONumber & (~(PWR_GPIO_BIT_13|PWR_GPIO_BIT_15))));
 770              		.loc 1 434 8 view .LVU188
 771 0010 294B     		ldr	r3, .L74
 772 0012 5A6A     		ldr	r2, [r3, #36]
 773 0014 21F42040 		bic	r0, r1, #40960
 774              	.LVL68:
ARM GAS  C:\Users\57308\AppData\Local\Temp\ccqGNF8F.s 			page 23


 775              		.loc 1 434 8 is_stmt 0 view .LVU189
 776 0018 0243     		orrs	r2, r2, r0
 777 001a 5A62     		str	r2, [r3, #36]
 435:Drivers/STM32G4xx_HAL_Driver/Src/stm32g4xx_hal_pwr_ex.c ****        CLEAR_BIT(PWR->PUCRA, (GPIONumber & (~(PWR_GPIO_BIT_14))));
 778              		.loc 1 435 8 is_stmt 1 view .LVU190
 779 001c 1A6A     		ldr	r2, [r3, #32]
 780 001e 21F48041 		bic	r1, r1, #16384
 781              	.LVL69:
 782              		.loc 1 435 8 is_stmt 0 view .LVU191
 783 0022 22EA0101 		bic	r1, r2, r1
 784 0026 1962     		str	r1, [r3, #32]
 436:Drivers/STM32G4xx_HAL_Driver/Src/stm32g4xx_hal_pwr_ex.c ****        break;
 785              		.loc 1 436 8 is_stmt 1 view .LVU192
 426:Drivers/STM32G4xx_HAL_Driver/Src/stm32g4xx_hal_pwr_ex.c **** 
 786              		.loc 1 426 21 is_stmt 0 view .LVU193
 787 0028 0020     		movs	r0, #0
 788              		.loc 1 436 8 view .LVU194
 789 002a 7047     		bx	lr
 790              	.LVL70:
 791              	.L71:
 437:Drivers/STM32G4xx_HAL_Driver/Src/stm32g4xx_hal_pwr_ex.c ****     case PWR_GPIO_B:
 438:Drivers/STM32G4xx_HAL_Driver/Src/stm32g4xx_hal_pwr_ex.c ****        SET_BIT(PWR->PDCRB, (GPIONumber & (~(PWR_GPIO_BIT_4))));
 792              		.loc 1 438 8 is_stmt 1 view .LVU195
 793 002c 224B     		ldr	r3, .L74
 794 002e DA6A     		ldr	r2, [r3, #44]
 795 0030 21F01000 		bic	r0, r1, #16
 796              	.LVL71:
 797              		.loc 1 438 8 is_stmt 0 view .LVU196
 798 0034 0243     		orrs	r2, r2, r0
 799 0036 DA62     		str	r2, [r3, #44]
 439:Drivers/STM32G4xx_HAL_Driver/Src/stm32g4xx_hal_pwr_ex.c ****        CLEAR_BIT(PWR->PUCRB, GPIONumber);
 800              		.loc 1 439 8 is_stmt 1 view .LVU197
 801 0038 9A6A     		ldr	r2, [r3, #40]
 802 003a 22EA0101 		bic	r1, r2, r1
 803              	.LVL72:
 804              		.loc 1 439 8 is_stmt 0 view .LVU198
 805 003e 9962     		str	r1, [r3, #40]
 440:Drivers/STM32G4xx_HAL_Driver/Src/stm32g4xx_hal_pwr_ex.c ****        break;
 806              		.loc 1 440 8 is_stmt 1 view .LVU199
 426:Drivers/STM32G4xx_HAL_Driver/Src/stm32g4xx_hal_pwr_ex.c **** 
 807              		.loc 1 426 21 is_stmt 0 view .LVU200
 808 0040 0020     		movs	r0, #0
 809              		.loc 1 440 8 view .LVU201
 810 0042 7047     		bx	lr
 811              	.LVL73:
 812              	.L70:
 441:Drivers/STM32G4xx_HAL_Driver/Src/stm32g4xx_hal_pwr_ex.c ****     case PWR_GPIO_C:
 442:Drivers/STM32G4xx_HAL_Driver/Src/stm32g4xx_hal_pwr_ex.c ****        SET_BIT(PWR->PDCRC, GPIONumber);
 813              		.loc 1 442 8 is_stmt 1 view .LVU202
 814 0044 1C4B     		ldr	r3, .L74
 815 0046 5A6B     		ldr	r2, [r3, #52]
 816 0048 0A43     		orrs	r2, r2, r1
 817 004a 5A63     		str	r2, [r3, #52]
 443:Drivers/STM32G4xx_HAL_Driver/Src/stm32g4xx_hal_pwr_ex.c ****        CLEAR_BIT(PWR->PUCRC, GPIONumber);
 818              		.loc 1 443 8 view .LVU203
 819 004c 1A6B     		ldr	r2, [r3, #48]
 820 004e 22EA0101 		bic	r1, r2, r1
ARM GAS  C:\Users\57308\AppData\Local\Temp\ccqGNF8F.s 			page 24


 821              	.LVL74:
 822              		.loc 1 443 8 is_stmt 0 view .LVU204
 823 0052 1963     		str	r1, [r3, #48]
 444:Drivers/STM32G4xx_HAL_Driver/Src/stm32g4xx_hal_pwr_ex.c ****        break;
 824              		.loc 1 444 8 is_stmt 1 view .LVU205
 426:Drivers/STM32G4xx_HAL_Driver/Src/stm32g4xx_hal_pwr_ex.c **** 
 825              		.loc 1 426 21 is_stmt 0 view .LVU206
 826 0054 0020     		movs	r0, #0
 827              	.LVL75:
 828              		.loc 1 444 8 view .LVU207
 829 0056 7047     		bx	lr
 830              	.LVL76:
 831              	.L69:
 445:Drivers/STM32G4xx_HAL_Driver/Src/stm32g4xx_hal_pwr_ex.c ****     case PWR_GPIO_D:
 446:Drivers/STM32G4xx_HAL_Driver/Src/stm32g4xx_hal_pwr_ex.c ****        SET_BIT(PWR->PDCRD, GPIONumber);
 832              		.loc 1 446 8 is_stmt 1 view .LVU208
 833 0058 174B     		ldr	r3, .L74
 834 005a DA6B     		ldr	r2, [r3, #60]
 835 005c 0A43     		orrs	r2, r2, r1
 836 005e DA63     		str	r2, [r3, #60]
 447:Drivers/STM32G4xx_HAL_Driver/Src/stm32g4xx_hal_pwr_ex.c ****        CLEAR_BIT(PWR->PUCRD, GPIONumber);
 837              		.loc 1 447 8 view .LVU209
 838 0060 9A6B     		ldr	r2, [r3, #56]
 839 0062 22EA0101 		bic	r1, r2, r1
 840              	.LVL77:
 841              		.loc 1 447 8 is_stmt 0 view .LVU210
 842 0066 9963     		str	r1, [r3, #56]
 448:Drivers/STM32G4xx_HAL_Driver/Src/stm32g4xx_hal_pwr_ex.c ****        break;
 843              		.loc 1 448 8 is_stmt 1 view .LVU211
 426:Drivers/STM32G4xx_HAL_Driver/Src/stm32g4xx_hal_pwr_ex.c **** 
 844              		.loc 1 426 21 is_stmt 0 view .LVU212
 845 0068 0020     		movs	r0, #0
 846              	.LVL78:
 847              		.loc 1 448 8 view .LVU213
 848 006a 7047     		bx	lr
 849              	.LVL79:
 850              	.L68:
 449:Drivers/STM32G4xx_HAL_Driver/Src/stm32g4xx_hal_pwr_ex.c ****     case PWR_GPIO_E:
 450:Drivers/STM32G4xx_HAL_Driver/Src/stm32g4xx_hal_pwr_ex.c ****        SET_BIT(PWR->PDCRE, GPIONumber);
 851              		.loc 1 450 8 is_stmt 1 view .LVU214
 852 006c 124B     		ldr	r3, .L74
 853 006e 5A6C     		ldr	r2, [r3, #68]
 854 0070 0A43     		orrs	r2, r2, r1
 855 0072 5A64     		str	r2, [r3, #68]
 451:Drivers/STM32G4xx_HAL_Driver/Src/stm32g4xx_hal_pwr_ex.c ****        CLEAR_BIT(PWR->PUCRE, GPIONumber);
 856              		.loc 1 451 8 view .LVU215
 857 0074 1A6C     		ldr	r2, [r3, #64]
 858 0076 22EA0101 		bic	r1, r2, r1
 859              	.LVL80:
 860              		.loc 1 451 8 is_stmt 0 view .LVU216
 861 007a 1964     		str	r1, [r3, #64]
 452:Drivers/STM32G4xx_HAL_Driver/Src/stm32g4xx_hal_pwr_ex.c ****        break;
 862              		.loc 1 452 8 is_stmt 1 view .LVU217
 426:Drivers/STM32G4xx_HAL_Driver/Src/stm32g4xx_hal_pwr_ex.c **** 
 863              		.loc 1 426 21 is_stmt 0 view .LVU218
 864 007c 0020     		movs	r0, #0
 865              	.LVL81:
ARM GAS  C:\Users\57308\AppData\Local\Temp\ccqGNF8F.s 			page 25


 866              		.loc 1 452 8 view .LVU219
 867 007e 7047     		bx	lr
 868              	.LVL82:
 869              	.L67:
 453:Drivers/STM32G4xx_HAL_Driver/Src/stm32g4xx_hal_pwr_ex.c ****     case PWR_GPIO_F:
 454:Drivers/STM32G4xx_HAL_Driver/Src/stm32g4xx_hal_pwr_ex.c ****        SET_BIT(PWR->PDCRF, (GPIONumber & PWR_PORTF_AVAILABLE_PINS));
 870              		.loc 1 454 8 is_stmt 1 view .LVU220
 871 0080 0D4B     		ldr	r3, .L74
 872 0082 DA6C     		ldr	r2, [r3, #76]
 873 0084 21F4FC71 		bic	r1, r1, #504
 874              	.LVL83:
 875              		.loc 1 454 8 is_stmt 0 view .LVU221
 876 0088 4905     		lsls	r1, r1, #21
 877 008a 490D     		lsrs	r1, r1, #21
 878 008c 0A43     		orrs	r2, r2, r1
 879 008e DA64     		str	r2, [r3, #76]
 455:Drivers/STM32G4xx_HAL_Driver/Src/stm32g4xx_hal_pwr_ex.c ****        CLEAR_BIT(PWR->PUCRF, (GPIONumber & PWR_PORTF_AVAILABLE_PINS));
 880              		.loc 1 455 8 is_stmt 1 view .LVU222
 881 0090 9A6C     		ldr	r2, [r3, #72]
 882 0092 22EA0101 		bic	r1, r2, r1
 883 0096 9964     		str	r1, [r3, #72]
 456:Drivers/STM32G4xx_HAL_Driver/Src/stm32g4xx_hal_pwr_ex.c ****        break;
 884              		.loc 1 456 8 view .LVU223
 426:Drivers/STM32G4xx_HAL_Driver/Src/stm32g4xx_hal_pwr_ex.c **** 
 885              		.loc 1 426 21 is_stmt 0 view .LVU224
 886 0098 0020     		movs	r0, #0
 887              	.LVL84:
 888              		.loc 1 456 8 view .LVU225
 889 009a 7047     		bx	lr
 890              	.LVL85:
 891              	.L65:
 457:Drivers/STM32G4xx_HAL_Driver/Src/stm32g4xx_hal_pwr_ex.c ****     case PWR_GPIO_G:
 458:Drivers/STM32G4xx_HAL_Driver/Src/stm32g4xx_hal_pwr_ex.c ****        SET_BIT(PWR->PDCRG, ((GPIONumber & PWR_PORTG_AVAILABLE_PINS) & (~(PWR_GPIO_BIT_10))));
 892              		.loc 1 458 8 is_stmt 1 view .LVU226
 893 009c 064B     		ldr	r3, .L74
 894 009e 5A6D     		ldr	r2, [r3, #84]
 895 00a0 5A65     		str	r2, [r3, #84]
 459:Drivers/STM32G4xx_HAL_Driver/Src/stm32g4xx_hal_pwr_ex.c ****        CLEAR_BIT(PWR->PUCRG, (GPIONumber & PWR_PORTG_AVAILABLE_PINS));
 896              		.loc 1 459 8 view .LVU227
 897 00a2 1A6D     		ldr	r2, [r3, #80]
 898 00a4 01F48061 		and	r1, r1, #1024
 899              	.LVL86:
 900              		.loc 1 459 8 is_stmt 0 view .LVU228
 901 00a8 22EA0101 		bic	r1, r2, r1
 902 00ac 1965     		str	r1, [r3, #80]
 460:Drivers/STM32G4xx_HAL_Driver/Src/stm32g4xx_hal_pwr_ex.c ****        break;
 903              		.loc 1 460 8 is_stmt 1 view .LVU229
 426:Drivers/STM32G4xx_HAL_Driver/Src/stm32g4xx_hal_pwr_ex.c **** 
 904              		.loc 1 426 21 is_stmt 0 view .LVU230
 905 00ae 0020     		movs	r0, #0
 906              	.LVL87:
 907              		.loc 1 460 8 view .LVU231
 908 00b0 7047     		bx	lr
 909              	.LVL88:
 910              	.L73:
 431:Drivers/STM32G4xx_HAL_Driver/Src/stm32g4xx_hal_pwr_ex.c ****   {
 911              		.loc 1 431 3 view .LVU232
ARM GAS  C:\Users\57308\AppData\Local\Temp\ccqGNF8F.s 			page 26


 912 00b2 0120     		movs	r0, #1
 913              	.LVL89:
 461:Drivers/STM32G4xx_HAL_Driver/Src/stm32g4xx_hal_pwr_ex.c ****     default:
 462:Drivers/STM32G4xx_HAL_Driver/Src/stm32g4xx_hal_pwr_ex.c ****       status = HAL_ERROR;
 463:Drivers/STM32G4xx_HAL_Driver/Src/stm32g4xx_hal_pwr_ex.c ****       break;
 464:Drivers/STM32G4xx_HAL_Driver/Src/stm32g4xx_hal_pwr_ex.c ****   }
 465:Drivers/STM32G4xx_HAL_Driver/Src/stm32g4xx_hal_pwr_ex.c **** 
 466:Drivers/STM32G4xx_HAL_Driver/Src/stm32g4xx_hal_pwr_ex.c ****   return status;
 914              		.loc 1 466 3 is_stmt 1 view .LVU233
 467:Drivers/STM32G4xx_HAL_Driver/Src/stm32g4xx_hal_pwr_ex.c **** }
 915              		.loc 1 467 1 is_stmt 0 view .LVU234
 916 00b4 7047     		bx	lr
 917              	.L75:
 918 00b6 00BF     		.align	2
 919              	.L74:
 920 00b8 00700040 		.word	1073770496
 921              		.cfi_endproc
 922              	.LFE337:
 924              		.section	.text.HAL_PWREx_DisableGPIOPullDown,"ax",%progbits
 925              		.align	1
 926              		.global	HAL_PWREx_DisableGPIOPullDown
 927              		.syntax unified
 928              		.thumb
 929              		.thumb_func
 931              	HAL_PWREx_DisableGPIOPullDown:
 932              	.LVL90:
 933              	.LFB338:
 468:Drivers/STM32G4xx_HAL_Driver/Src/stm32g4xx_hal_pwr_ex.c **** 
 469:Drivers/STM32G4xx_HAL_Driver/Src/stm32g4xx_hal_pwr_ex.c **** 
 470:Drivers/STM32G4xx_HAL_Driver/Src/stm32g4xx_hal_pwr_ex.c **** /**
 471:Drivers/STM32G4xx_HAL_Driver/Src/stm32g4xx_hal_pwr_ex.c ****   * @brief Disable GPIO pull-down state in Standby and Shutdown modes.
 472:Drivers/STM32G4xx_HAL_Driver/Src/stm32g4xx_hal_pwr_ex.c ****   * @note  Reset the relevant PDy bits of PWR_PDCRx register used to configure the I/O
 473:Drivers/STM32G4xx_HAL_Driver/Src/stm32g4xx_hal_pwr_ex.c ****   *        in pull-down state in Standby and Shutdown modes.
 474:Drivers/STM32G4xx_HAL_Driver/Src/stm32g4xx_hal_pwr_ex.c ****   * @note  Even if a PDy bit to reset is reserved, the other PDy bits entered as input
 475:Drivers/STM32G4xx_HAL_Driver/Src/stm32g4xx_hal_pwr_ex.c ****   *        parameter at the same time are reset.
 476:Drivers/STM32G4xx_HAL_Driver/Src/stm32g4xx_hal_pwr_ex.c ****   * @param  GPIO: Specifies the IO port. This parameter can be PWR_GPIO_A..PWR_GPIO_G
 477:Drivers/STM32G4xx_HAL_Driver/Src/stm32g4xx_hal_pwr_ex.c ****   *         (or PWR_GPIO_I depending on the devices) to select the GPIO peripheral.
 478:Drivers/STM32G4xx_HAL_Driver/Src/stm32g4xx_hal_pwr_ex.c ****   * @param  GPIONumber: Specify the I/O pins numbers.
 479:Drivers/STM32G4xx_HAL_Driver/Src/stm32g4xx_hal_pwr_ex.c ****   *         This parameter can be one of the following values:
 480:Drivers/STM32G4xx_HAL_Driver/Src/stm32g4xx_hal_pwr_ex.c ****   *         PWR_GPIO_BIT_0, ..., PWR_GPIO_BIT_15 (except for the port where less
 481:Drivers/STM32G4xx_HAL_Driver/Src/stm32g4xx_hal_pwr_ex.c ****   *         I/O pins are available) or the logical OR of several of them to reset
 482:Drivers/STM32G4xx_HAL_Driver/Src/stm32g4xx_hal_pwr_ex.c ****   *         several bits for a given port in a single API call.
 483:Drivers/STM32G4xx_HAL_Driver/Src/stm32g4xx_hal_pwr_ex.c ****   * @retval HAL Status
 484:Drivers/STM32G4xx_HAL_Driver/Src/stm32g4xx_hal_pwr_ex.c ****   */
 485:Drivers/STM32G4xx_HAL_Driver/Src/stm32g4xx_hal_pwr_ex.c **** HAL_StatusTypeDef HAL_PWREx_DisableGPIOPullDown(uint32_t GPIO, uint32_t GPIONumber)
 486:Drivers/STM32G4xx_HAL_Driver/Src/stm32g4xx_hal_pwr_ex.c **** {
 934              		.loc 1 486 1 is_stmt 1 view -0
 935              		.cfi_startproc
 936              		@ args = 0, pretend = 0, frame = 0
 937              		@ frame_needed = 0, uses_anonymous_args = 0
 938              		@ link register save eliminated.
 487:Drivers/STM32G4xx_HAL_Driver/Src/stm32g4xx_hal_pwr_ex.c ****   HAL_StatusTypeDef status = HAL_OK;
 939              		.loc 1 487 3 view .LVU236
 488:Drivers/STM32G4xx_HAL_Driver/Src/stm32g4xx_hal_pwr_ex.c **** 
 489:Drivers/STM32G4xx_HAL_Driver/Src/stm32g4xx_hal_pwr_ex.c ****   assert_param(IS_PWR_GPIO(GPIO));
 940              		.loc 1 489 3 view .LVU237
 490:Drivers/STM32G4xx_HAL_Driver/Src/stm32g4xx_hal_pwr_ex.c ****   assert_param(IS_PWR_GPIO_BIT_NUMBER(GPIONumber));
ARM GAS  C:\Users\57308\AppData\Local\Temp\ccqGNF8F.s 			page 27


 941              		.loc 1 490 3 view .LVU238
 491:Drivers/STM32G4xx_HAL_Driver/Src/stm32g4xx_hal_pwr_ex.c **** 
 492:Drivers/STM32G4xx_HAL_Driver/Src/stm32g4xx_hal_pwr_ex.c ****   switch (GPIO)
 942              		.loc 1 492 3 view .LVU239
 943 0000 0628     		cmp	r0, #6
 944 0002 3CD8     		bhi	.L86
 945 0004 DFE800F0 		tbb	[pc, r0]
 946              	.L79:
 947 0008 04       		.byte	(.L85-.L79)/2
 948 0009 0D       		.byte	(.L84-.L79)/2
 949 000a 16       		.byte	(.L83-.L79)/2
 950 000b 1D       		.byte	(.L82-.L79)/2
 951 000c 24       		.byte	(.L81-.L79)/2
 952 000d 2B       		.byte	(.L80-.L79)/2
 953 000e 36       		.byte	(.L78-.L79)/2
 954 000f 00       		.p2align 1
 955              	.L85:
 493:Drivers/STM32G4xx_HAL_Driver/Src/stm32g4xx_hal_pwr_ex.c ****   {
 494:Drivers/STM32G4xx_HAL_Driver/Src/stm32g4xx_hal_pwr_ex.c ****     case PWR_GPIO_A:
 495:Drivers/STM32G4xx_HAL_Driver/Src/stm32g4xx_hal_pwr_ex.c ****        CLEAR_BIT(PWR->PDCRA, (GPIONumber & (~(PWR_GPIO_BIT_13|PWR_GPIO_BIT_15))));
 956              		.loc 1 495 8 view .LVU240
 957 0010 1C4A     		ldr	r2, .L87
 958 0012 536A     		ldr	r3, [r2, #36]
 959 0014 21F42041 		bic	r1, r1, #40960
 960              	.LVL91:
 961              		.loc 1 495 8 is_stmt 0 view .LVU241
 962 0018 23EA0101 		bic	r1, r3, r1
 963 001c 5162     		str	r1, [r2, #36]
 496:Drivers/STM32G4xx_HAL_Driver/Src/stm32g4xx_hal_pwr_ex.c ****        break;
 964              		.loc 1 496 8 is_stmt 1 view .LVU242
 487:Drivers/STM32G4xx_HAL_Driver/Src/stm32g4xx_hal_pwr_ex.c **** 
 965              		.loc 1 487 21 is_stmt 0 view .LVU243
 966 001e 0020     		movs	r0, #0
 967              	.LVL92:
 968              		.loc 1 496 8 view .LVU244
 969 0020 7047     		bx	lr
 970              	.LVL93:
 971              	.L84:
 497:Drivers/STM32G4xx_HAL_Driver/Src/stm32g4xx_hal_pwr_ex.c ****     case PWR_GPIO_B:
 498:Drivers/STM32G4xx_HAL_Driver/Src/stm32g4xx_hal_pwr_ex.c ****        CLEAR_BIT(PWR->PDCRB, (GPIONumber & (~(PWR_GPIO_BIT_4))));
 972              		.loc 1 498 8 is_stmt 1 view .LVU245
 973 0022 184A     		ldr	r2, .L87
 974 0024 D36A     		ldr	r3, [r2, #44]
 975 0026 21F01001 		bic	r1, r1, #16
 976              	.LVL94:
 977              		.loc 1 498 8 is_stmt 0 view .LVU246
 978 002a 23EA0101 		bic	r1, r3, r1
 979 002e D162     		str	r1, [r2, #44]
 499:Drivers/STM32G4xx_HAL_Driver/Src/stm32g4xx_hal_pwr_ex.c ****        break;
 980              		.loc 1 499 8 is_stmt 1 view .LVU247
 487:Drivers/STM32G4xx_HAL_Driver/Src/stm32g4xx_hal_pwr_ex.c **** 
 981              		.loc 1 487 21 is_stmt 0 view .LVU248
 982 0030 0020     		movs	r0, #0
 983              	.LVL95:
 984              		.loc 1 499 8 view .LVU249
 985 0032 7047     		bx	lr
 986              	.LVL96:
ARM GAS  C:\Users\57308\AppData\Local\Temp\ccqGNF8F.s 			page 28


 987              	.L83:
 500:Drivers/STM32G4xx_HAL_Driver/Src/stm32g4xx_hal_pwr_ex.c ****     case PWR_GPIO_C:
 501:Drivers/STM32G4xx_HAL_Driver/Src/stm32g4xx_hal_pwr_ex.c ****        CLEAR_BIT(PWR->PDCRC, GPIONumber);
 988              		.loc 1 501 8 is_stmt 1 view .LVU250
 989 0034 134A     		ldr	r2, .L87
 990 0036 536B     		ldr	r3, [r2, #52]
 991 0038 23EA0101 		bic	r1, r3, r1
 992              	.LVL97:
 993              		.loc 1 501 8 is_stmt 0 view .LVU251
 994 003c 5163     		str	r1, [r2, #52]
 502:Drivers/STM32G4xx_HAL_Driver/Src/stm32g4xx_hal_pwr_ex.c ****        break;
 995              		.loc 1 502 8 is_stmt 1 view .LVU252
 487:Drivers/STM32G4xx_HAL_Driver/Src/stm32g4xx_hal_pwr_ex.c **** 
 996              		.loc 1 487 21 is_stmt 0 view .LVU253
 997 003e 0020     		movs	r0, #0
 998              	.LVL98:
 999              		.loc 1 502 8 view .LVU254
 1000 0040 7047     		bx	lr
 1001              	.LVL99:
 1002              	.L82:
 503:Drivers/STM32G4xx_HAL_Driver/Src/stm32g4xx_hal_pwr_ex.c ****     case PWR_GPIO_D:
 504:Drivers/STM32G4xx_HAL_Driver/Src/stm32g4xx_hal_pwr_ex.c ****        CLEAR_BIT(PWR->PDCRD, GPIONumber);
 1003              		.loc 1 504 8 is_stmt 1 view .LVU255
 1004 0042 104A     		ldr	r2, .L87
 1005 0044 D36B     		ldr	r3, [r2, #60]
 1006 0046 23EA0101 		bic	r1, r3, r1
 1007              	.LVL100:
 1008              		.loc 1 504 8 is_stmt 0 view .LVU256
 1009 004a D163     		str	r1, [r2, #60]
 505:Drivers/STM32G4xx_HAL_Driver/Src/stm32g4xx_hal_pwr_ex.c ****        break;
 1010              		.loc 1 505 8 is_stmt 1 view .LVU257
 487:Drivers/STM32G4xx_HAL_Driver/Src/stm32g4xx_hal_pwr_ex.c **** 
 1011              		.loc 1 487 21 is_stmt 0 view .LVU258
 1012 004c 0020     		movs	r0, #0
 1013              	.LVL101:
 1014              		.loc 1 505 8 view .LVU259
 1015 004e 7047     		bx	lr
 1016              	.LVL102:
 1017              	.L81:
 506:Drivers/STM32G4xx_HAL_Driver/Src/stm32g4xx_hal_pwr_ex.c ****     case PWR_GPIO_E:
 507:Drivers/STM32G4xx_HAL_Driver/Src/stm32g4xx_hal_pwr_ex.c ****        CLEAR_BIT(PWR->PDCRE, GPIONumber);
 1018              		.loc 1 507 8 is_stmt 1 view .LVU260
 1019 0050 0C4A     		ldr	r2, .L87
 1020 0052 536C     		ldr	r3, [r2, #68]
 1021 0054 23EA0101 		bic	r1, r3, r1
 1022              	.LVL103:
 1023              		.loc 1 507 8 is_stmt 0 view .LVU261
 1024 0058 5164     		str	r1, [r2, #68]
 508:Drivers/STM32G4xx_HAL_Driver/Src/stm32g4xx_hal_pwr_ex.c ****        break;
 1025              		.loc 1 508 8 is_stmt 1 view .LVU262
 487:Drivers/STM32G4xx_HAL_Driver/Src/stm32g4xx_hal_pwr_ex.c **** 
 1026              		.loc 1 487 21 is_stmt 0 view .LVU263
 1027 005a 0020     		movs	r0, #0
 1028              	.LVL104:
 1029              		.loc 1 508 8 view .LVU264
 1030 005c 7047     		bx	lr
 1031              	.LVL105:
ARM GAS  C:\Users\57308\AppData\Local\Temp\ccqGNF8F.s 			page 29


 1032              	.L80:
 509:Drivers/STM32G4xx_HAL_Driver/Src/stm32g4xx_hal_pwr_ex.c ****     case PWR_GPIO_F:
 510:Drivers/STM32G4xx_HAL_Driver/Src/stm32g4xx_hal_pwr_ex.c ****        CLEAR_BIT(PWR->PDCRF, (GPIONumber & PWR_PORTF_AVAILABLE_PINS));
 1033              		.loc 1 510 8 is_stmt 1 view .LVU265
 1034 005e 094A     		ldr	r2, .L87
 1035 0060 D36C     		ldr	r3, [r2, #76]
 1036 0062 21F4FC71 		bic	r1, r1, #504
 1037              	.LVL106:
 1038              		.loc 1 510 8 is_stmt 0 view .LVU266
 1039 0066 4905     		lsls	r1, r1, #21
 1040 0068 490D     		lsrs	r1, r1, #21
 1041 006a 23EA0101 		bic	r1, r3, r1
 1042 006e D164     		str	r1, [r2, #76]
 511:Drivers/STM32G4xx_HAL_Driver/Src/stm32g4xx_hal_pwr_ex.c ****        break;
 1043              		.loc 1 511 8 is_stmt 1 view .LVU267
 487:Drivers/STM32G4xx_HAL_Driver/Src/stm32g4xx_hal_pwr_ex.c **** 
 1044              		.loc 1 487 21 is_stmt 0 view .LVU268
 1045 0070 0020     		movs	r0, #0
 1046              	.LVL107:
 1047              		.loc 1 511 8 view .LVU269
 1048 0072 7047     		bx	lr
 1049              	.LVL108:
 1050              	.L78:
 512:Drivers/STM32G4xx_HAL_Driver/Src/stm32g4xx_hal_pwr_ex.c ****     case PWR_GPIO_G:
 513:Drivers/STM32G4xx_HAL_Driver/Src/stm32g4xx_hal_pwr_ex.c ****        CLEAR_BIT(PWR->PDCRG, ((GPIONumber & PWR_PORTG_AVAILABLE_PINS) & (~(PWR_GPIO_BIT_10))));
 1051              		.loc 1 513 8 is_stmt 1 view .LVU270
 1052 0074 034B     		ldr	r3, .L87
 1053 0076 5A6D     		ldr	r2, [r3, #84]
 1054 0078 5A65     		str	r2, [r3, #84]
 514:Drivers/STM32G4xx_HAL_Driver/Src/stm32g4xx_hal_pwr_ex.c ****        break;
 1055              		.loc 1 514 8 view .LVU271
 487:Drivers/STM32G4xx_HAL_Driver/Src/stm32g4xx_hal_pwr_ex.c **** 
 1056              		.loc 1 487 21 is_stmt 0 view .LVU272
 1057 007a 0020     		movs	r0, #0
 1058              	.LVL109:
 1059              		.loc 1 514 8 view .LVU273
 1060 007c 7047     		bx	lr
 1061              	.LVL110:
 1062              	.L86:
 492:Drivers/STM32G4xx_HAL_Driver/Src/stm32g4xx_hal_pwr_ex.c ****   {
 1063              		.loc 1 492 3 view .LVU274
 1064 007e 0120     		movs	r0, #1
 1065              	.LVL111:
 515:Drivers/STM32G4xx_HAL_Driver/Src/stm32g4xx_hal_pwr_ex.c ****     default:
 516:Drivers/STM32G4xx_HAL_Driver/Src/stm32g4xx_hal_pwr_ex.c ****       status = HAL_ERROR;
 517:Drivers/STM32G4xx_HAL_Driver/Src/stm32g4xx_hal_pwr_ex.c ****       break;
 518:Drivers/STM32G4xx_HAL_Driver/Src/stm32g4xx_hal_pwr_ex.c ****   }
 519:Drivers/STM32G4xx_HAL_Driver/Src/stm32g4xx_hal_pwr_ex.c **** 
 520:Drivers/STM32G4xx_HAL_Driver/Src/stm32g4xx_hal_pwr_ex.c ****   return status;
 1066              		.loc 1 520 3 is_stmt 1 view .LVU275
 521:Drivers/STM32G4xx_HAL_Driver/Src/stm32g4xx_hal_pwr_ex.c **** }
 1067              		.loc 1 521 1 is_stmt 0 view .LVU276
 1068 0080 7047     		bx	lr
 1069              	.L88:
 1070 0082 00BF     		.align	2
 1071              	.L87:
 1072 0084 00700040 		.word	1073770496
ARM GAS  C:\Users\57308\AppData\Local\Temp\ccqGNF8F.s 			page 30


 1073              		.cfi_endproc
 1074              	.LFE338:
 1076              		.section	.text.HAL_PWREx_EnablePullUpPullDownConfig,"ax",%progbits
 1077              		.align	1
 1078              		.global	HAL_PWREx_EnablePullUpPullDownConfig
 1079              		.syntax unified
 1080              		.thumb
 1081              		.thumb_func
 1083              	HAL_PWREx_EnablePullUpPullDownConfig:
 1084              	.LFB339:
 522:Drivers/STM32G4xx_HAL_Driver/Src/stm32g4xx_hal_pwr_ex.c **** 
 523:Drivers/STM32G4xx_HAL_Driver/Src/stm32g4xx_hal_pwr_ex.c **** 
 524:Drivers/STM32G4xx_HAL_Driver/Src/stm32g4xx_hal_pwr_ex.c **** 
 525:Drivers/STM32G4xx_HAL_Driver/Src/stm32g4xx_hal_pwr_ex.c **** /**
 526:Drivers/STM32G4xx_HAL_Driver/Src/stm32g4xx_hal_pwr_ex.c ****   * @brief Enable pull-up and pull-down configuration.
 527:Drivers/STM32G4xx_HAL_Driver/Src/stm32g4xx_hal_pwr_ex.c ****   * @note  When APC bit is set, the I/O pull-up and pull-down configurations defined in
 528:Drivers/STM32G4xx_HAL_Driver/Src/stm32g4xx_hal_pwr_ex.c ****   *        PWR_PUCRx and PWR_PDCRx registers are applied in Standby and Shutdown modes.
 529:Drivers/STM32G4xx_HAL_Driver/Src/stm32g4xx_hal_pwr_ex.c ****   * @note  Pull-up set by PUy bit of PWR_PUCRx register is not activated if the corresponding
 530:Drivers/STM32G4xx_HAL_Driver/Src/stm32g4xx_hal_pwr_ex.c ****   *        PDy bit of PWR_PDCRx register is also set (pull-down configuration priority is higher).
 531:Drivers/STM32G4xx_HAL_Driver/Src/stm32g4xx_hal_pwr_ex.c ****   *        HAL_PWREx_EnableGPIOPullUp() and HAL_PWREx_EnableGPIOPullDown() API's ensure there
 532:Drivers/STM32G4xx_HAL_Driver/Src/stm32g4xx_hal_pwr_ex.c ****   *        is no conflict when setting PUy or PDy bit.
 533:Drivers/STM32G4xx_HAL_Driver/Src/stm32g4xx_hal_pwr_ex.c ****   * @retval None
 534:Drivers/STM32G4xx_HAL_Driver/Src/stm32g4xx_hal_pwr_ex.c ****   */
 535:Drivers/STM32G4xx_HAL_Driver/Src/stm32g4xx_hal_pwr_ex.c **** void HAL_PWREx_EnablePullUpPullDownConfig(void)
 536:Drivers/STM32G4xx_HAL_Driver/Src/stm32g4xx_hal_pwr_ex.c **** {
 1085              		.loc 1 536 1 is_stmt 1 view -0
 1086              		.cfi_startproc
 1087              		@ args = 0, pretend = 0, frame = 0
 1088              		@ frame_needed = 0, uses_anonymous_args = 0
 1089              		@ link register save eliminated.
 537:Drivers/STM32G4xx_HAL_Driver/Src/stm32g4xx_hal_pwr_ex.c ****   SET_BIT(PWR->CR3, PWR_CR3_APC);
 1090              		.loc 1 537 3 view .LVU278
 1091 0000 024A     		ldr	r2, .L90
 1092 0002 9368     		ldr	r3, [r2, #8]
 1093 0004 43F48063 		orr	r3, r3, #1024
 1094 0008 9360     		str	r3, [r2, #8]
 538:Drivers/STM32G4xx_HAL_Driver/Src/stm32g4xx_hal_pwr_ex.c **** }
 1095              		.loc 1 538 1 is_stmt 0 view .LVU279
 1096 000a 7047     		bx	lr
 1097              	.L91:
 1098              		.align	2
 1099              	.L90:
 1100 000c 00700040 		.word	1073770496
 1101              		.cfi_endproc
 1102              	.LFE339:
 1104              		.section	.text.HAL_PWREx_DisablePullUpPullDownConfig,"ax",%progbits
 1105              		.align	1
 1106              		.global	HAL_PWREx_DisablePullUpPullDownConfig
 1107              		.syntax unified
 1108              		.thumb
 1109              		.thumb_func
 1111              	HAL_PWREx_DisablePullUpPullDownConfig:
 1112              	.LFB340:
 539:Drivers/STM32G4xx_HAL_Driver/Src/stm32g4xx_hal_pwr_ex.c **** 
 540:Drivers/STM32G4xx_HAL_Driver/Src/stm32g4xx_hal_pwr_ex.c **** 
 541:Drivers/STM32G4xx_HAL_Driver/Src/stm32g4xx_hal_pwr_ex.c **** /**
 542:Drivers/STM32G4xx_HAL_Driver/Src/stm32g4xx_hal_pwr_ex.c ****   * @brief Disable pull-up and pull-down configuration.
ARM GAS  C:\Users\57308\AppData\Local\Temp\ccqGNF8F.s 			page 31


 543:Drivers/STM32G4xx_HAL_Driver/Src/stm32g4xx_hal_pwr_ex.c ****   * @note  When APC bit is cleared, the I/O pull-up and pull-down configurations defined in
 544:Drivers/STM32G4xx_HAL_Driver/Src/stm32g4xx_hal_pwr_ex.c ****   *        PWR_PUCRx and PWR_PDCRx registers are not applied in Standby and Shutdown modes.
 545:Drivers/STM32G4xx_HAL_Driver/Src/stm32g4xx_hal_pwr_ex.c ****   * @retval None
 546:Drivers/STM32G4xx_HAL_Driver/Src/stm32g4xx_hal_pwr_ex.c ****   */
 547:Drivers/STM32G4xx_HAL_Driver/Src/stm32g4xx_hal_pwr_ex.c **** void HAL_PWREx_DisablePullUpPullDownConfig(void)
 548:Drivers/STM32G4xx_HAL_Driver/Src/stm32g4xx_hal_pwr_ex.c **** {
 1113              		.loc 1 548 1 is_stmt 1 view -0
 1114              		.cfi_startproc
 1115              		@ args = 0, pretend = 0, frame = 0
 1116              		@ frame_needed = 0, uses_anonymous_args = 0
 1117              		@ link register save eliminated.
 549:Drivers/STM32G4xx_HAL_Driver/Src/stm32g4xx_hal_pwr_ex.c ****   CLEAR_BIT(PWR->CR3, PWR_CR3_APC);
 1118              		.loc 1 549 3 view .LVU281
 1119 0000 024A     		ldr	r2, .L93
 1120 0002 9368     		ldr	r3, [r2, #8]
 1121 0004 23F48063 		bic	r3, r3, #1024
 1122 0008 9360     		str	r3, [r2, #8]
 550:Drivers/STM32G4xx_HAL_Driver/Src/stm32g4xx_hal_pwr_ex.c **** }
 1123              		.loc 1 550 1 is_stmt 0 view .LVU282
 1124 000a 7047     		bx	lr
 1125              	.L94:
 1126              		.align	2
 1127              	.L93:
 1128 000c 00700040 		.word	1073770496
 1129              		.cfi_endproc
 1130              	.LFE340:
 1132              		.section	.text.HAL_PWREx_EnableSRAM2ContentRetention,"ax",%progbits
 1133              		.align	1
 1134              		.global	HAL_PWREx_EnableSRAM2ContentRetention
 1135              		.syntax unified
 1136              		.thumb
 1137              		.thumb_func
 1139              	HAL_PWREx_EnableSRAM2ContentRetention:
 1140              	.LFB341:
 551:Drivers/STM32G4xx_HAL_Driver/Src/stm32g4xx_hal_pwr_ex.c **** 
 552:Drivers/STM32G4xx_HAL_Driver/Src/stm32g4xx_hal_pwr_ex.c **** 
 553:Drivers/STM32G4xx_HAL_Driver/Src/stm32g4xx_hal_pwr_ex.c **** 
 554:Drivers/STM32G4xx_HAL_Driver/Src/stm32g4xx_hal_pwr_ex.c **** /**
 555:Drivers/STM32G4xx_HAL_Driver/Src/stm32g4xx_hal_pwr_ex.c ****   * @brief Enable SRAM2 content retention in Standby mode.
 556:Drivers/STM32G4xx_HAL_Driver/Src/stm32g4xx_hal_pwr_ex.c ****   * @note  When RRS bit is set, SRAM2 is powered by the low-power regulator in
 557:Drivers/STM32G4xx_HAL_Driver/Src/stm32g4xx_hal_pwr_ex.c ****   *         Standby mode and its content is kept.
 558:Drivers/STM32G4xx_HAL_Driver/Src/stm32g4xx_hal_pwr_ex.c ****   * @retval None
 559:Drivers/STM32G4xx_HAL_Driver/Src/stm32g4xx_hal_pwr_ex.c ****   */
 560:Drivers/STM32G4xx_HAL_Driver/Src/stm32g4xx_hal_pwr_ex.c **** void HAL_PWREx_EnableSRAM2ContentRetention(void)
 561:Drivers/STM32G4xx_HAL_Driver/Src/stm32g4xx_hal_pwr_ex.c **** {
 1141              		.loc 1 561 1 is_stmt 1 view -0
 1142              		.cfi_startproc
 1143              		@ args = 0, pretend = 0, frame = 0
 1144              		@ frame_needed = 0, uses_anonymous_args = 0
 1145              		@ link register save eliminated.
 562:Drivers/STM32G4xx_HAL_Driver/Src/stm32g4xx_hal_pwr_ex.c ****   SET_BIT(PWR->CR3, PWR_CR3_RRS);
 1146              		.loc 1 562 3 view .LVU284
 1147 0000 024A     		ldr	r2, .L96
 1148 0002 9368     		ldr	r3, [r2, #8]
 1149 0004 43F48073 		orr	r3, r3, #256
 1150 0008 9360     		str	r3, [r2, #8]
 563:Drivers/STM32G4xx_HAL_Driver/Src/stm32g4xx_hal_pwr_ex.c **** }
ARM GAS  C:\Users\57308\AppData\Local\Temp\ccqGNF8F.s 			page 32


 1151              		.loc 1 563 1 is_stmt 0 view .LVU285
 1152 000a 7047     		bx	lr
 1153              	.L97:
 1154              		.align	2
 1155              	.L96:
 1156 000c 00700040 		.word	1073770496
 1157              		.cfi_endproc
 1158              	.LFE341:
 1160              		.section	.text.HAL_PWREx_DisableSRAM2ContentRetention,"ax",%progbits
 1161              		.align	1
 1162              		.global	HAL_PWREx_DisableSRAM2ContentRetention
 1163              		.syntax unified
 1164              		.thumb
 1165              		.thumb_func
 1167              	HAL_PWREx_DisableSRAM2ContentRetention:
 1168              	.LFB342:
 564:Drivers/STM32G4xx_HAL_Driver/Src/stm32g4xx_hal_pwr_ex.c **** 
 565:Drivers/STM32G4xx_HAL_Driver/Src/stm32g4xx_hal_pwr_ex.c **** 
 566:Drivers/STM32G4xx_HAL_Driver/Src/stm32g4xx_hal_pwr_ex.c **** /**
 567:Drivers/STM32G4xx_HAL_Driver/Src/stm32g4xx_hal_pwr_ex.c ****   * @brief Disable SRAM2 content retention in Standby mode.
 568:Drivers/STM32G4xx_HAL_Driver/Src/stm32g4xx_hal_pwr_ex.c ****   * @note  When RRS bit is reset, SRAM2 is powered off in Standby mode
 569:Drivers/STM32G4xx_HAL_Driver/Src/stm32g4xx_hal_pwr_ex.c ****   *        and its content is lost.
 570:Drivers/STM32G4xx_HAL_Driver/Src/stm32g4xx_hal_pwr_ex.c ****   * @retval None
 571:Drivers/STM32G4xx_HAL_Driver/Src/stm32g4xx_hal_pwr_ex.c ****   */
 572:Drivers/STM32G4xx_HAL_Driver/Src/stm32g4xx_hal_pwr_ex.c **** void HAL_PWREx_DisableSRAM2ContentRetention(void)
 573:Drivers/STM32G4xx_HAL_Driver/Src/stm32g4xx_hal_pwr_ex.c **** {
 1169              		.loc 1 573 1 is_stmt 1 view -0
 1170              		.cfi_startproc
 1171              		@ args = 0, pretend = 0, frame = 0
 1172              		@ frame_needed = 0, uses_anonymous_args = 0
 1173              		@ link register save eliminated.
 574:Drivers/STM32G4xx_HAL_Driver/Src/stm32g4xx_hal_pwr_ex.c ****   CLEAR_BIT(PWR->CR3, PWR_CR3_RRS);
 1174              		.loc 1 574 3 view .LVU287
 1175 0000 024A     		ldr	r2, .L99
 1176 0002 9368     		ldr	r3, [r2, #8]
 1177 0004 23F48073 		bic	r3, r3, #256
 1178 0008 9360     		str	r3, [r2, #8]
 575:Drivers/STM32G4xx_HAL_Driver/Src/stm32g4xx_hal_pwr_ex.c **** }
 1179              		.loc 1 575 1 is_stmt 0 view .LVU288
 1180 000a 7047     		bx	lr
 1181              	.L100:
 1182              		.align	2
 1183              	.L99:
 1184 000c 00700040 		.word	1073770496
 1185              		.cfi_endproc
 1186              	.LFE342:
 1188              		.section	.text.HAL_PWREx_EnablePVM1,"ax",%progbits
 1189              		.align	1
 1190              		.global	HAL_PWREx_EnablePVM1
 1191              		.syntax unified
 1192              		.thumb
 1193              		.thumb_func
 1195              	HAL_PWREx_EnablePVM1:
 1196              	.LFB343:
 576:Drivers/STM32G4xx_HAL_Driver/Src/stm32g4xx_hal_pwr_ex.c **** 
 577:Drivers/STM32G4xx_HAL_Driver/Src/stm32g4xx_hal_pwr_ex.c **** 
 578:Drivers/STM32G4xx_HAL_Driver/Src/stm32g4xx_hal_pwr_ex.c **** 
ARM GAS  C:\Users\57308\AppData\Local\Temp\ccqGNF8F.s 			page 33


 579:Drivers/STM32G4xx_HAL_Driver/Src/stm32g4xx_hal_pwr_ex.c **** 
 580:Drivers/STM32G4xx_HAL_Driver/Src/stm32g4xx_hal_pwr_ex.c **** #if defined(PWR_CR2_PVME1)
 581:Drivers/STM32G4xx_HAL_Driver/Src/stm32g4xx_hal_pwr_ex.c **** /**
 582:Drivers/STM32G4xx_HAL_Driver/Src/stm32g4xx_hal_pwr_ex.c ****   * @brief Enable the Power Voltage Monitoring 1: VDDA versus FASTCOMP minimum voltage.
 583:Drivers/STM32G4xx_HAL_Driver/Src/stm32g4xx_hal_pwr_ex.c ****   * @retval None
 584:Drivers/STM32G4xx_HAL_Driver/Src/stm32g4xx_hal_pwr_ex.c ****   */
 585:Drivers/STM32G4xx_HAL_Driver/Src/stm32g4xx_hal_pwr_ex.c **** void HAL_PWREx_EnablePVM1(void)
 586:Drivers/STM32G4xx_HAL_Driver/Src/stm32g4xx_hal_pwr_ex.c **** {
 1197              		.loc 1 586 1 is_stmt 1 view -0
 1198              		.cfi_startproc
 1199              		@ args = 0, pretend = 0, frame = 0
 1200              		@ frame_needed = 0, uses_anonymous_args = 0
 1201              		@ link register save eliminated.
 587:Drivers/STM32G4xx_HAL_Driver/Src/stm32g4xx_hal_pwr_ex.c ****   SET_BIT(PWR->CR2, PWR_PVM_1);
 1202              		.loc 1 587 3 view .LVU290
 1203 0000 024A     		ldr	r2, .L102
 1204 0002 5368     		ldr	r3, [r2, #4]
 1205 0004 43F01003 		orr	r3, r3, #16
 1206 0008 5360     		str	r3, [r2, #4]
 588:Drivers/STM32G4xx_HAL_Driver/Src/stm32g4xx_hal_pwr_ex.c **** }
 1207              		.loc 1 588 1 is_stmt 0 view .LVU291
 1208 000a 7047     		bx	lr
 1209              	.L103:
 1210              		.align	2
 1211              	.L102:
 1212 000c 00700040 		.word	1073770496
 1213              		.cfi_endproc
 1214              	.LFE343:
 1216              		.section	.text.HAL_PWREx_DisablePVM1,"ax",%progbits
 1217              		.align	1
 1218              		.global	HAL_PWREx_DisablePVM1
 1219              		.syntax unified
 1220              		.thumb
 1221              		.thumb_func
 1223              	HAL_PWREx_DisablePVM1:
 1224              	.LFB344:
 589:Drivers/STM32G4xx_HAL_Driver/Src/stm32g4xx_hal_pwr_ex.c **** 
 590:Drivers/STM32G4xx_HAL_Driver/Src/stm32g4xx_hal_pwr_ex.c **** /**
 591:Drivers/STM32G4xx_HAL_Driver/Src/stm32g4xx_hal_pwr_ex.c ****   * @brief Disable the Power Voltage Monitoring 1: VDDA versus FASTCOMP minimum voltage.
 592:Drivers/STM32G4xx_HAL_Driver/Src/stm32g4xx_hal_pwr_ex.c ****   * @retval None
 593:Drivers/STM32G4xx_HAL_Driver/Src/stm32g4xx_hal_pwr_ex.c ****   */
 594:Drivers/STM32G4xx_HAL_Driver/Src/stm32g4xx_hal_pwr_ex.c **** void HAL_PWREx_DisablePVM1(void)
 595:Drivers/STM32G4xx_HAL_Driver/Src/stm32g4xx_hal_pwr_ex.c **** {
 1225              		.loc 1 595 1 is_stmt 1 view -0
 1226              		.cfi_startproc
 1227              		@ args = 0, pretend = 0, frame = 0
 1228              		@ frame_needed = 0, uses_anonymous_args = 0
 1229              		@ link register save eliminated.
 596:Drivers/STM32G4xx_HAL_Driver/Src/stm32g4xx_hal_pwr_ex.c ****   CLEAR_BIT(PWR->CR2, PWR_PVM_1);
 1230              		.loc 1 596 3 view .LVU293
 1231 0000 024A     		ldr	r2, .L105
 1232 0002 5368     		ldr	r3, [r2, #4]
 1233 0004 23F01003 		bic	r3, r3, #16
 1234 0008 5360     		str	r3, [r2, #4]
 597:Drivers/STM32G4xx_HAL_Driver/Src/stm32g4xx_hal_pwr_ex.c **** }
 1235              		.loc 1 597 1 is_stmt 0 view .LVU294
 1236 000a 7047     		bx	lr
ARM GAS  C:\Users\57308\AppData\Local\Temp\ccqGNF8F.s 			page 34


 1237              	.L106:
 1238              		.align	2
 1239              	.L105:
 1240 000c 00700040 		.word	1073770496
 1241              		.cfi_endproc
 1242              	.LFE344:
 1244              		.section	.text.HAL_PWREx_EnablePVM2,"ax",%progbits
 1245              		.align	1
 1246              		.global	HAL_PWREx_EnablePVM2
 1247              		.syntax unified
 1248              		.thumb
 1249              		.thumb_func
 1251              	HAL_PWREx_EnablePVM2:
 1252              	.LFB345:
 598:Drivers/STM32G4xx_HAL_Driver/Src/stm32g4xx_hal_pwr_ex.c **** #endif /* PWR_CR2_PVME1 */
 599:Drivers/STM32G4xx_HAL_Driver/Src/stm32g4xx_hal_pwr_ex.c **** 
 600:Drivers/STM32G4xx_HAL_Driver/Src/stm32g4xx_hal_pwr_ex.c **** 
 601:Drivers/STM32G4xx_HAL_Driver/Src/stm32g4xx_hal_pwr_ex.c **** #if defined(PWR_CR2_PVME2)
 602:Drivers/STM32G4xx_HAL_Driver/Src/stm32g4xx_hal_pwr_ex.c **** /**
 603:Drivers/STM32G4xx_HAL_Driver/Src/stm32g4xx_hal_pwr_ex.c ****   * @brief Enable the Power Voltage Monitoring 2: VDDA versus FASTDAC minimum voltage.
 604:Drivers/STM32G4xx_HAL_Driver/Src/stm32g4xx_hal_pwr_ex.c ****   * @retval None
 605:Drivers/STM32G4xx_HAL_Driver/Src/stm32g4xx_hal_pwr_ex.c ****   */
 606:Drivers/STM32G4xx_HAL_Driver/Src/stm32g4xx_hal_pwr_ex.c **** void HAL_PWREx_EnablePVM2(void)
 607:Drivers/STM32G4xx_HAL_Driver/Src/stm32g4xx_hal_pwr_ex.c **** {
 1253              		.loc 1 607 1 is_stmt 1 view -0
 1254              		.cfi_startproc
 1255              		@ args = 0, pretend = 0, frame = 0
 1256              		@ frame_needed = 0, uses_anonymous_args = 0
 1257              		@ link register save eliminated.
 608:Drivers/STM32G4xx_HAL_Driver/Src/stm32g4xx_hal_pwr_ex.c ****   SET_BIT(PWR->CR2, PWR_PVM_2);
 1258              		.loc 1 608 3 view .LVU296
 1259 0000 024A     		ldr	r2, .L108
 1260 0002 5368     		ldr	r3, [r2, #4]
 1261 0004 43F02003 		orr	r3, r3, #32
 1262 0008 5360     		str	r3, [r2, #4]
 609:Drivers/STM32G4xx_HAL_Driver/Src/stm32g4xx_hal_pwr_ex.c **** }
 1263              		.loc 1 609 1 is_stmt 0 view .LVU297
 1264 000a 7047     		bx	lr
 1265              	.L109:
 1266              		.align	2
 1267              	.L108:
 1268 000c 00700040 		.word	1073770496
 1269              		.cfi_endproc
 1270              	.LFE345:
 1272              		.section	.text.HAL_PWREx_DisablePVM2,"ax",%progbits
 1273              		.align	1
 1274              		.global	HAL_PWREx_DisablePVM2
 1275              		.syntax unified
 1276              		.thumb
 1277              		.thumb_func
 1279              	HAL_PWREx_DisablePVM2:
 1280              	.LFB346:
 610:Drivers/STM32G4xx_HAL_Driver/Src/stm32g4xx_hal_pwr_ex.c **** 
 611:Drivers/STM32G4xx_HAL_Driver/Src/stm32g4xx_hal_pwr_ex.c **** /**
 612:Drivers/STM32G4xx_HAL_Driver/Src/stm32g4xx_hal_pwr_ex.c ****   * @brief Disable the Power Voltage Monitoring 2: VDDA versus FASTDAC minimum voltage.
 613:Drivers/STM32G4xx_HAL_Driver/Src/stm32g4xx_hal_pwr_ex.c ****   * @retval None
 614:Drivers/STM32G4xx_HAL_Driver/Src/stm32g4xx_hal_pwr_ex.c ****   */
ARM GAS  C:\Users\57308\AppData\Local\Temp\ccqGNF8F.s 			page 35


 615:Drivers/STM32G4xx_HAL_Driver/Src/stm32g4xx_hal_pwr_ex.c **** void HAL_PWREx_DisablePVM2(void)
 616:Drivers/STM32G4xx_HAL_Driver/Src/stm32g4xx_hal_pwr_ex.c **** {
 1281              		.loc 1 616 1 is_stmt 1 view -0
 1282              		.cfi_startproc
 1283              		@ args = 0, pretend = 0, frame = 0
 1284              		@ frame_needed = 0, uses_anonymous_args = 0
 1285              		@ link register save eliminated.
 617:Drivers/STM32G4xx_HAL_Driver/Src/stm32g4xx_hal_pwr_ex.c ****   CLEAR_BIT(PWR->CR2, PWR_PVM_2);
 1286              		.loc 1 617 3 view .LVU299
 1287 0000 024A     		ldr	r2, .L111
 1288 0002 5368     		ldr	r3, [r2, #4]
 1289 0004 23F02003 		bic	r3, r3, #32
 1290 0008 5360     		str	r3, [r2, #4]
 618:Drivers/STM32G4xx_HAL_Driver/Src/stm32g4xx_hal_pwr_ex.c **** }
 1291              		.loc 1 618 1 is_stmt 0 view .LVU300
 1292 000a 7047     		bx	lr
 1293              	.L112:
 1294              		.align	2
 1295              	.L111:
 1296 000c 00700040 		.word	1073770496
 1297              		.cfi_endproc
 1298              	.LFE346:
 1300              		.section	.text.HAL_PWREx_EnablePVM3,"ax",%progbits
 1301              		.align	1
 1302              		.global	HAL_PWREx_EnablePVM3
 1303              		.syntax unified
 1304              		.thumb
 1305              		.thumb_func
 1307              	HAL_PWREx_EnablePVM3:
 1308              	.LFB347:
 619:Drivers/STM32G4xx_HAL_Driver/Src/stm32g4xx_hal_pwr_ex.c **** #endif /* PWR_CR2_PVME2 */
 620:Drivers/STM32G4xx_HAL_Driver/Src/stm32g4xx_hal_pwr_ex.c **** 
 621:Drivers/STM32G4xx_HAL_Driver/Src/stm32g4xx_hal_pwr_ex.c **** 
 622:Drivers/STM32G4xx_HAL_Driver/Src/stm32g4xx_hal_pwr_ex.c **** /**
 623:Drivers/STM32G4xx_HAL_Driver/Src/stm32g4xx_hal_pwr_ex.c ****   * @brief Enable the Power Voltage Monitoring 3: VDDA versus ADC minimum voltage 1.62V.
 624:Drivers/STM32G4xx_HAL_Driver/Src/stm32g4xx_hal_pwr_ex.c ****   * @retval None
 625:Drivers/STM32G4xx_HAL_Driver/Src/stm32g4xx_hal_pwr_ex.c ****   */
 626:Drivers/STM32G4xx_HAL_Driver/Src/stm32g4xx_hal_pwr_ex.c **** void HAL_PWREx_EnablePVM3(void)
 627:Drivers/STM32G4xx_HAL_Driver/Src/stm32g4xx_hal_pwr_ex.c **** {
 1309              		.loc 1 627 1 is_stmt 1 view -0
 1310              		.cfi_startproc
 1311              		@ args = 0, pretend = 0, frame = 0
 1312              		@ frame_needed = 0, uses_anonymous_args = 0
 1313              		@ link register save eliminated.
 628:Drivers/STM32G4xx_HAL_Driver/Src/stm32g4xx_hal_pwr_ex.c ****   SET_BIT(PWR->CR2, PWR_PVM_3);
 1314              		.loc 1 628 3 view .LVU302
 1315 0000 024A     		ldr	r2, .L114
 1316 0002 5368     		ldr	r3, [r2, #4]
 1317 0004 43F04003 		orr	r3, r3, #64
 1318 0008 5360     		str	r3, [r2, #4]
 629:Drivers/STM32G4xx_HAL_Driver/Src/stm32g4xx_hal_pwr_ex.c **** }
 1319              		.loc 1 629 1 is_stmt 0 view .LVU303
 1320 000a 7047     		bx	lr
 1321              	.L115:
 1322              		.align	2
 1323              	.L114:
 1324 000c 00700040 		.word	1073770496
ARM GAS  C:\Users\57308\AppData\Local\Temp\ccqGNF8F.s 			page 36


 1325              		.cfi_endproc
 1326              	.LFE347:
 1328              		.section	.text.HAL_PWREx_DisablePVM3,"ax",%progbits
 1329              		.align	1
 1330              		.global	HAL_PWREx_DisablePVM3
 1331              		.syntax unified
 1332              		.thumb
 1333              		.thumb_func
 1335              	HAL_PWREx_DisablePVM3:
 1336              	.LFB348:
 630:Drivers/STM32G4xx_HAL_Driver/Src/stm32g4xx_hal_pwr_ex.c **** 
 631:Drivers/STM32G4xx_HAL_Driver/Src/stm32g4xx_hal_pwr_ex.c **** /**
 632:Drivers/STM32G4xx_HAL_Driver/Src/stm32g4xx_hal_pwr_ex.c ****   * @brief Disable the Power Voltage Monitoring 3: VDDA versus ADC minimum voltage 1.62V.
 633:Drivers/STM32G4xx_HAL_Driver/Src/stm32g4xx_hal_pwr_ex.c ****   * @retval None
 634:Drivers/STM32G4xx_HAL_Driver/Src/stm32g4xx_hal_pwr_ex.c ****   */
 635:Drivers/STM32G4xx_HAL_Driver/Src/stm32g4xx_hal_pwr_ex.c **** void HAL_PWREx_DisablePVM3(void)
 636:Drivers/STM32G4xx_HAL_Driver/Src/stm32g4xx_hal_pwr_ex.c **** {
 1337              		.loc 1 636 1 is_stmt 1 view -0
 1338              		.cfi_startproc
 1339              		@ args = 0, pretend = 0, frame = 0
 1340              		@ frame_needed = 0, uses_anonymous_args = 0
 1341              		@ link register save eliminated.
 637:Drivers/STM32G4xx_HAL_Driver/Src/stm32g4xx_hal_pwr_ex.c ****   CLEAR_BIT(PWR->CR2, PWR_PVM_3);
 1342              		.loc 1 637 3 view .LVU305
 1343 0000 024A     		ldr	r2, .L117
 1344 0002 5368     		ldr	r3, [r2, #4]
 1345 0004 23F04003 		bic	r3, r3, #64
 1346 0008 5360     		str	r3, [r2, #4]
 638:Drivers/STM32G4xx_HAL_Driver/Src/stm32g4xx_hal_pwr_ex.c **** }
 1347              		.loc 1 638 1 is_stmt 0 view .LVU306
 1348 000a 7047     		bx	lr
 1349              	.L118:
 1350              		.align	2
 1351              	.L117:
 1352 000c 00700040 		.word	1073770496
 1353              		.cfi_endproc
 1354              	.LFE348:
 1356              		.section	.text.HAL_PWREx_EnablePVM4,"ax",%progbits
 1357              		.align	1
 1358              		.global	HAL_PWREx_EnablePVM4
 1359              		.syntax unified
 1360              		.thumb
 1361              		.thumb_func
 1363              	HAL_PWREx_EnablePVM4:
 1364              	.LFB349:
 639:Drivers/STM32G4xx_HAL_Driver/Src/stm32g4xx_hal_pwr_ex.c **** 
 640:Drivers/STM32G4xx_HAL_Driver/Src/stm32g4xx_hal_pwr_ex.c **** 
 641:Drivers/STM32G4xx_HAL_Driver/Src/stm32g4xx_hal_pwr_ex.c **** /**
 642:Drivers/STM32G4xx_HAL_Driver/Src/stm32g4xx_hal_pwr_ex.c ****   * @brief Enable the Power Voltage Monitoring 4: VDDA versus OPAMP/DAC minimum voltage 1.8V.
 643:Drivers/STM32G4xx_HAL_Driver/Src/stm32g4xx_hal_pwr_ex.c ****   * @retval None
 644:Drivers/STM32G4xx_HAL_Driver/Src/stm32g4xx_hal_pwr_ex.c ****   */
 645:Drivers/STM32G4xx_HAL_Driver/Src/stm32g4xx_hal_pwr_ex.c **** void HAL_PWREx_EnablePVM4(void)
 646:Drivers/STM32G4xx_HAL_Driver/Src/stm32g4xx_hal_pwr_ex.c **** {
 1365              		.loc 1 646 1 is_stmt 1 view -0
 1366              		.cfi_startproc
 1367              		@ args = 0, pretend = 0, frame = 0
 1368              		@ frame_needed = 0, uses_anonymous_args = 0
ARM GAS  C:\Users\57308\AppData\Local\Temp\ccqGNF8F.s 			page 37


 1369              		@ link register save eliminated.
 647:Drivers/STM32G4xx_HAL_Driver/Src/stm32g4xx_hal_pwr_ex.c ****   SET_BIT(PWR->CR2, PWR_PVM_4);
 1370              		.loc 1 647 3 view .LVU308
 1371 0000 024A     		ldr	r2, .L120
 1372 0002 5368     		ldr	r3, [r2, #4]
 1373 0004 43F08003 		orr	r3, r3, #128
 1374 0008 5360     		str	r3, [r2, #4]
 648:Drivers/STM32G4xx_HAL_Driver/Src/stm32g4xx_hal_pwr_ex.c **** }
 1375              		.loc 1 648 1 is_stmt 0 view .LVU309
 1376 000a 7047     		bx	lr
 1377              	.L121:
 1378              		.align	2
 1379              	.L120:
 1380 000c 00700040 		.word	1073770496
 1381              		.cfi_endproc
 1382              	.LFE349:
 1384              		.section	.text.HAL_PWREx_DisablePVM4,"ax",%progbits
 1385              		.align	1
 1386              		.global	HAL_PWREx_DisablePVM4
 1387              		.syntax unified
 1388              		.thumb
 1389              		.thumb_func
 1391              	HAL_PWREx_DisablePVM4:
 1392              	.LFB350:
 649:Drivers/STM32G4xx_HAL_Driver/Src/stm32g4xx_hal_pwr_ex.c **** 
 650:Drivers/STM32G4xx_HAL_Driver/Src/stm32g4xx_hal_pwr_ex.c **** /**
 651:Drivers/STM32G4xx_HAL_Driver/Src/stm32g4xx_hal_pwr_ex.c ****   * @brief Disable the Power Voltage Monitoring 4: VDDA versus OPAMP/DAC minimum voltage 1.8V.
 652:Drivers/STM32G4xx_HAL_Driver/Src/stm32g4xx_hal_pwr_ex.c ****   * @retval None
 653:Drivers/STM32G4xx_HAL_Driver/Src/stm32g4xx_hal_pwr_ex.c ****   */
 654:Drivers/STM32G4xx_HAL_Driver/Src/stm32g4xx_hal_pwr_ex.c **** void HAL_PWREx_DisablePVM4(void)
 655:Drivers/STM32G4xx_HAL_Driver/Src/stm32g4xx_hal_pwr_ex.c **** {
 1393              		.loc 1 655 1 is_stmt 1 view -0
 1394              		.cfi_startproc
 1395              		@ args = 0, pretend = 0, frame = 0
 1396              		@ frame_needed = 0, uses_anonymous_args = 0
 1397              		@ link register save eliminated.
 656:Drivers/STM32G4xx_HAL_Driver/Src/stm32g4xx_hal_pwr_ex.c ****   CLEAR_BIT(PWR->CR2, PWR_PVM_4);
 1398              		.loc 1 656 3 view .LVU311
 1399 0000 024A     		ldr	r2, .L123
 1400 0002 5368     		ldr	r3, [r2, #4]
 1401 0004 23F08003 		bic	r3, r3, #128
 1402 0008 5360     		str	r3, [r2, #4]
 657:Drivers/STM32G4xx_HAL_Driver/Src/stm32g4xx_hal_pwr_ex.c **** }
 1403              		.loc 1 657 1 is_stmt 0 view .LVU312
 1404 000a 7047     		bx	lr
 1405              	.L124:
 1406              		.align	2
 1407              	.L123:
 1408 000c 00700040 		.word	1073770496
 1409              		.cfi_endproc
 1410              	.LFE350:
 1412              		.section	.text.HAL_PWREx_ConfigPVM,"ax",%progbits
 1413              		.align	1
 1414              		.global	HAL_PWREx_ConfigPVM
 1415              		.syntax unified
 1416              		.thumb
 1417              		.thumb_func
ARM GAS  C:\Users\57308\AppData\Local\Temp\ccqGNF8F.s 			page 38


 1419              	HAL_PWREx_ConfigPVM:
 1420              	.LVL112:
 1421              	.LFB351:
 658:Drivers/STM32G4xx_HAL_Driver/Src/stm32g4xx_hal_pwr_ex.c **** 
 659:Drivers/STM32G4xx_HAL_Driver/Src/stm32g4xx_hal_pwr_ex.c **** 
 660:Drivers/STM32G4xx_HAL_Driver/Src/stm32g4xx_hal_pwr_ex.c **** 
 661:Drivers/STM32G4xx_HAL_Driver/Src/stm32g4xx_hal_pwr_ex.c **** 
 662:Drivers/STM32G4xx_HAL_Driver/Src/stm32g4xx_hal_pwr_ex.c **** /**
 663:Drivers/STM32G4xx_HAL_Driver/Src/stm32g4xx_hal_pwr_ex.c ****   * @brief Configure the Peripheral Voltage Monitoring (PVM).
 664:Drivers/STM32G4xx_HAL_Driver/Src/stm32g4xx_hal_pwr_ex.c ****   * @param sConfigPVM: pointer to a PWR_PVMTypeDef structure that contains the
 665:Drivers/STM32G4xx_HAL_Driver/Src/stm32g4xx_hal_pwr_ex.c ****   *        PVM configuration information.
 666:Drivers/STM32G4xx_HAL_Driver/Src/stm32g4xx_hal_pwr_ex.c ****   * @note The API configures a single PVM according to the information contained
 667:Drivers/STM32G4xx_HAL_Driver/Src/stm32g4xx_hal_pwr_ex.c ****   *       in the input structure. To configure several PVMs, the API must be singly
 668:Drivers/STM32G4xx_HAL_Driver/Src/stm32g4xx_hal_pwr_ex.c ****   *       called for each PVM used.
 669:Drivers/STM32G4xx_HAL_Driver/Src/stm32g4xx_hal_pwr_ex.c ****   * @note Refer to the electrical characteristics of your device datasheet for
 670:Drivers/STM32G4xx_HAL_Driver/Src/stm32g4xx_hal_pwr_ex.c ****   *         more details about the voltage thresholds corresponding to each
 671:Drivers/STM32G4xx_HAL_Driver/Src/stm32g4xx_hal_pwr_ex.c ****   *         detection level and to each monitored supply.
 672:Drivers/STM32G4xx_HAL_Driver/Src/stm32g4xx_hal_pwr_ex.c ****   * @retval HAL status
 673:Drivers/STM32G4xx_HAL_Driver/Src/stm32g4xx_hal_pwr_ex.c ****   */
 674:Drivers/STM32G4xx_HAL_Driver/Src/stm32g4xx_hal_pwr_ex.c **** HAL_StatusTypeDef HAL_PWREx_ConfigPVM(PWR_PVMTypeDef *sConfigPVM)
 675:Drivers/STM32G4xx_HAL_Driver/Src/stm32g4xx_hal_pwr_ex.c **** {
 1422              		.loc 1 675 1 is_stmt 1 view -0
 1423              		.cfi_startproc
 1424              		@ args = 0, pretend = 0, frame = 0
 1425              		@ frame_needed = 0, uses_anonymous_args = 0
 1426              		@ link register save eliminated.
 676:Drivers/STM32G4xx_HAL_Driver/Src/stm32g4xx_hal_pwr_ex.c ****   HAL_StatusTypeDef status = HAL_OK;
 1427              		.loc 1 676 3 view .LVU314
 677:Drivers/STM32G4xx_HAL_Driver/Src/stm32g4xx_hal_pwr_ex.c **** 
 678:Drivers/STM32G4xx_HAL_Driver/Src/stm32g4xx_hal_pwr_ex.c ****   /* Check the parameters */
 679:Drivers/STM32G4xx_HAL_Driver/Src/stm32g4xx_hal_pwr_ex.c ****   assert_param(IS_PWR_PVM_TYPE(sConfigPVM->PVMType));
 1428              		.loc 1 679 3 view .LVU315
 680:Drivers/STM32G4xx_HAL_Driver/Src/stm32g4xx_hal_pwr_ex.c ****   assert_param(IS_PWR_PVM_MODE(sConfigPVM->Mode));
 1429              		.loc 1 680 3 view .LVU316
 681:Drivers/STM32G4xx_HAL_Driver/Src/stm32g4xx_hal_pwr_ex.c **** 
 682:Drivers/STM32G4xx_HAL_Driver/Src/stm32g4xx_hal_pwr_ex.c **** 
 683:Drivers/STM32G4xx_HAL_Driver/Src/stm32g4xx_hal_pwr_ex.c ****   /* Configure EXTI 35 to 38 interrupts if so required:
 684:Drivers/STM32G4xx_HAL_Driver/Src/stm32g4xx_hal_pwr_ex.c ****      scan through PVMType to detect which PVMx is set and
 685:Drivers/STM32G4xx_HAL_Driver/Src/stm32g4xx_hal_pwr_ex.c ****      configure the corresponding EXTI line accordingly. */
 686:Drivers/STM32G4xx_HAL_Driver/Src/stm32g4xx_hal_pwr_ex.c ****   switch (sConfigPVM->PVMType)
 1430              		.loc 1 686 3 view .LVU317
 1431              		.loc 1 686 21 is_stmt 0 view .LVU318
 1432 0000 0368     		ldr	r3, [r0]
 1433              		.loc 1 686 3 view .LVU319
 1434 0002 402B     		cmp	r3, #64
 1435 0004 00F0B180 		beq	.L126
 1436 0008 3DD8     		bhi	.L127
 1437 000a 102B     		cmp	r3, #16
 1438 000c 76D0     		beq	.L128
 1439 000e 202B     		cmp	r3, #32
 1440 0010 37D1     		bne	.L148
 687:Drivers/STM32G4xx_HAL_Driver/Src/stm32g4xx_hal_pwr_ex.c ****   {
 688:Drivers/STM32G4xx_HAL_Driver/Src/stm32g4xx_hal_pwr_ex.c **** #if defined(PWR_CR2_PVME1)
 689:Drivers/STM32G4xx_HAL_Driver/Src/stm32g4xx_hal_pwr_ex.c ****     case PWR_PVM_1:
 690:Drivers/STM32G4xx_HAL_Driver/Src/stm32g4xx_hal_pwr_ex.c ****       /* Clear any previous config. Keep it clear if no event or IT mode is selected */
 691:Drivers/STM32G4xx_HAL_Driver/Src/stm32g4xx_hal_pwr_ex.c ****       __HAL_PWR_PVM1_EXTI_DISABLE_EVENT();
 692:Drivers/STM32G4xx_HAL_Driver/Src/stm32g4xx_hal_pwr_ex.c ****       __HAL_PWR_PVM1_EXTI_DISABLE_IT();
ARM GAS  C:\Users\57308\AppData\Local\Temp\ccqGNF8F.s 			page 39


 693:Drivers/STM32G4xx_HAL_Driver/Src/stm32g4xx_hal_pwr_ex.c ****       __HAL_PWR_PVM1_EXTI_DISABLE_FALLING_EDGE();
 694:Drivers/STM32G4xx_HAL_Driver/Src/stm32g4xx_hal_pwr_ex.c ****       __HAL_PWR_PVM1_EXTI_DISABLE_RISING_EDGE();
 695:Drivers/STM32G4xx_HAL_Driver/Src/stm32g4xx_hal_pwr_ex.c **** 
 696:Drivers/STM32G4xx_HAL_Driver/Src/stm32g4xx_hal_pwr_ex.c ****       /* Configure interrupt mode */
 697:Drivers/STM32G4xx_HAL_Driver/Src/stm32g4xx_hal_pwr_ex.c ****       if((sConfigPVM->Mode & PVM_MODE_IT) == PVM_MODE_IT)
 698:Drivers/STM32G4xx_HAL_Driver/Src/stm32g4xx_hal_pwr_ex.c ****       {
 699:Drivers/STM32G4xx_HAL_Driver/Src/stm32g4xx_hal_pwr_ex.c ****         __HAL_PWR_PVM1_EXTI_ENABLE_IT();
 700:Drivers/STM32G4xx_HAL_Driver/Src/stm32g4xx_hal_pwr_ex.c ****       }
 701:Drivers/STM32G4xx_HAL_Driver/Src/stm32g4xx_hal_pwr_ex.c **** 
 702:Drivers/STM32G4xx_HAL_Driver/Src/stm32g4xx_hal_pwr_ex.c ****       /* Configure event mode */
 703:Drivers/STM32G4xx_HAL_Driver/Src/stm32g4xx_hal_pwr_ex.c ****       if((sConfigPVM->Mode & PVM_MODE_EVT) == PVM_MODE_EVT)
 704:Drivers/STM32G4xx_HAL_Driver/Src/stm32g4xx_hal_pwr_ex.c ****       {
 705:Drivers/STM32G4xx_HAL_Driver/Src/stm32g4xx_hal_pwr_ex.c ****         __HAL_PWR_PVM1_EXTI_ENABLE_EVENT();
 706:Drivers/STM32G4xx_HAL_Driver/Src/stm32g4xx_hal_pwr_ex.c ****       }
 707:Drivers/STM32G4xx_HAL_Driver/Src/stm32g4xx_hal_pwr_ex.c **** 
 708:Drivers/STM32G4xx_HAL_Driver/Src/stm32g4xx_hal_pwr_ex.c ****       /* Configure the edge */
 709:Drivers/STM32G4xx_HAL_Driver/Src/stm32g4xx_hal_pwr_ex.c ****       if((sConfigPVM->Mode & PVM_RISING_EDGE) == PVM_RISING_EDGE)
 710:Drivers/STM32G4xx_HAL_Driver/Src/stm32g4xx_hal_pwr_ex.c ****       {
 711:Drivers/STM32G4xx_HAL_Driver/Src/stm32g4xx_hal_pwr_ex.c ****         __HAL_PWR_PVM1_EXTI_ENABLE_RISING_EDGE();
 712:Drivers/STM32G4xx_HAL_Driver/Src/stm32g4xx_hal_pwr_ex.c ****       }
 713:Drivers/STM32G4xx_HAL_Driver/Src/stm32g4xx_hal_pwr_ex.c **** 
 714:Drivers/STM32G4xx_HAL_Driver/Src/stm32g4xx_hal_pwr_ex.c ****       if((sConfigPVM->Mode & PVM_FALLING_EDGE) == PVM_FALLING_EDGE)
 715:Drivers/STM32G4xx_HAL_Driver/Src/stm32g4xx_hal_pwr_ex.c ****       {
 716:Drivers/STM32G4xx_HAL_Driver/Src/stm32g4xx_hal_pwr_ex.c ****         __HAL_PWR_PVM1_EXTI_ENABLE_FALLING_EDGE();
 717:Drivers/STM32G4xx_HAL_Driver/Src/stm32g4xx_hal_pwr_ex.c ****       }
 718:Drivers/STM32G4xx_HAL_Driver/Src/stm32g4xx_hal_pwr_ex.c ****       break;
 719:Drivers/STM32G4xx_HAL_Driver/Src/stm32g4xx_hal_pwr_ex.c **** #endif /* PWR_CR2_PVME1 */
 720:Drivers/STM32G4xx_HAL_Driver/Src/stm32g4xx_hal_pwr_ex.c **** 
 721:Drivers/STM32G4xx_HAL_Driver/Src/stm32g4xx_hal_pwr_ex.c **** #if defined(PWR_CR2_PVME2)
 722:Drivers/STM32G4xx_HAL_Driver/Src/stm32g4xx_hal_pwr_ex.c ****     case PWR_PVM_2:
 723:Drivers/STM32G4xx_HAL_Driver/Src/stm32g4xx_hal_pwr_ex.c ****       /* Clear any previous config. Keep it clear if no event or IT mode is selected */
 724:Drivers/STM32G4xx_HAL_Driver/Src/stm32g4xx_hal_pwr_ex.c ****       __HAL_PWR_PVM2_EXTI_DISABLE_EVENT();
 1441              		.loc 1 724 7 is_stmt 1 view .LVU320
 1442 0012 754B     		ldr	r3, .L150
 1443 0014 5A6A     		ldr	r2, [r3, #36]
 1444 0016 22F01002 		bic	r2, r2, #16
 1445 001a 5A62     		str	r2, [r3, #36]
 725:Drivers/STM32G4xx_HAL_Driver/Src/stm32g4xx_hal_pwr_ex.c ****       __HAL_PWR_PVM2_EXTI_DISABLE_IT();
 1446              		.loc 1 725 7 view .LVU321
 1447 001c 1A6A     		ldr	r2, [r3, #32]
 1448 001e 22F01002 		bic	r2, r2, #16
 1449 0022 1A62     		str	r2, [r3, #32]
 726:Drivers/STM32G4xx_HAL_Driver/Src/stm32g4xx_hal_pwr_ex.c ****       __HAL_PWR_PVM2_EXTI_DISABLE_FALLING_EDGE();
 1450              		.loc 1 726 7 view .LVU322
 1451 0024 DA6A     		ldr	r2, [r3, #44]
 1452 0026 22F01002 		bic	r2, r2, #16
 1453 002a DA62     		str	r2, [r3, #44]
 727:Drivers/STM32G4xx_HAL_Driver/Src/stm32g4xx_hal_pwr_ex.c ****       __HAL_PWR_PVM2_EXTI_DISABLE_RISING_EDGE();
 1454              		.loc 1 727 7 view .LVU323
 1455 002c 9A6A     		ldr	r2, [r3, #40]
 1456 002e 22F01002 		bic	r2, r2, #16
 1457 0032 9A62     		str	r2, [r3, #40]
 728:Drivers/STM32G4xx_HAL_Driver/Src/stm32g4xx_hal_pwr_ex.c **** 
 729:Drivers/STM32G4xx_HAL_Driver/Src/stm32g4xx_hal_pwr_ex.c ****       /* Configure interrupt mode */
 730:Drivers/STM32G4xx_HAL_Driver/Src/stm32g4xx_hal_pwr_ex.c ****       if((sConfigPVM->Mode & PVM_MODE_IT) == PVM_MODE_IT)
 1458              		.loc 1 730 7 view .LVU324
 1459              		.loc 1 730 21 is_stmt 0 view .LVU325
ARM GAS  C:\Users\57308\AppData\Local\Temp\ccqGNF8F.s 			page 40


 1460 0034 4368     		ldr	r3, [r0, #4]
 1461              		.loc 1 730 9 view .LVU326
 1462 0036 13F4803F 		tst	r3, #65536
 1463 003a 04D0     		beq	.L135
 731:Drivers/STM32G4xx_HAL_Driver/Src/stm32g4xx_hal_pwr_ex.c ****       {
 732:Drivers/STM32G4xx_HAL_Driver/Src/stm32g4xx_hal_pwr_ex.c ****         __HAL_PWR_PVM2_EXTI_ENABLE_IT();
 1464              		.loc 1 732 9 is_stmt 1 view .LVU327
 1465 003c 6A4A     		ldr	r2, .L150
 1466 003e 136A     		ldr	r3, [r2, #32]
 1467 0040 43F01003 		orr	r3, r3, #16
 1468 0044 1362     		str	r3, [r2, #32]
 1469              	.L135:
 733:Drivers/STM32G4xx_HAL_Driver/Src/stm32g4xx_hal_pwr_ex.c ****       }
 734:Drivers/STM32G4xx_HAL_Driver/Src/stm32g4xx_hal_pwr_ex.c **** 
 735:Drivers/STM32G4xx_HAL_Driver/Src/stm32g4xx_hal_pwr_ex.c ****       /* Configure event mode */
 736:Drivers/STM32G4xx_HAL_Driver/Src/stm32g4xx_hal_pwr_ex.c ****       if((sConfigPVM->Mode & PVM_MODE_EVT) == PVM_MODE_EVT)
 1470              		.loc 1 736 7 view .LVU328
 1471              		.loc 1 736 21 is_stmt 0 view .LVU329
 1472 0046 4368     		ldr	r3, [r0, #4]
 1473              		.loc 1 736 9 view .LVU330
 1474 0048 13F4003F 		tst	r3, #131072
 1475 004c 04D0     		beq	.L136
 737:Drivers/STM32G4xx_HAL_Driver/Src/stm32g4xx_hal_pwr_ex.c ****       {
 738:Drivers/STM32G4xx_HAL_Driver/Src/stm32g4xx_hal_pwr_ex.c ****         __HAL_PWR_PVM2_EXTI_ENABLE_EVENT();
 1476              		.loc 1 738 9 is_stmt 1 view .LVU331
 1477 004e 664A     		ldr	r2, .L150
 1478 0050 536A     		ldr	r3, [r2, #36]
 1479 0052 43F01003 		orr	r3, r3, #16
 1480 0056 5362     		str	r3, [r2, #36]
 1481              	.L136:
 739:Drivers/STM32G4xx_HAL_Driver/Src/stm32g4xx_hal_pwr_ex.c ****       }
 740:Drivers/STM32G4xx_HAL_Driver/Src/stm32g4xx_hal_pwr_ex.c **** 
 741:Drivers/STM32G4xx_HAL_Driver/Src/stm32g4xx_hal_pwr_ex.c ****       /* Configure the edge */
 742:Drivers/STM32G4xx_HAL_Driver/Src/stm32g4xx_hal_pwr_ex.c ****       if((sConfigPVM->Mode & PVM_RISING_EDGE) == PVM_RISING_EDGE)
 1482              		.loc 1 742 7 view .LVU332
 1483              		.loc 1 742 21 is_stmt 0 view .LVU333
 1484 0058 4368     		ldr	r3, [r0, #4]
 1485              		.loc 1 742 9 view .LVU334
 1486 005a 13F0010F 		tst	r3, #1
 1487 005e 04D0     		beq	.L137
 743:Drivers/STM32G4xx_HAL_Driver/Src/stm32g4xx_hal_pwr_ex.c ****       {
 744:Drivers/STM32G4xx_HAL_Driver/Src/stm32g4xx_hal_pwr_ex.c ****         __HAL_PWR_PVM2_EXTI_ENABLE_RISING_EDGE();
 1488              		.loc 1 744 9 is_stmt 1 view .LVU335
 1489 0060 614A     		ldr	r2, .L150
 1490 0062 936A     		ldr	r3, [r2, #40]
 1491 0064 43F01003 		orr	r3, r3, #16
 1492 0068 9362     		str	r3, [r2, #40]
 1493              	.L137:
 745:Drivers/STM32G4xx_HAL_Driver/Src/stm32g4xx_hal_pwr_ex.c ****       }
 746:Drivers/STM32G4xx_HAL_Driver/Src/stm32g4xx_hal_pwr_ex.c **** 
 747:Drivers/STM32G4xx_HAL_Driver/Src/stm32g4xx_hal_pwr_ex.c ****       if((sConfigPVM->Mode & PVM_FALLING_EDGE) == PVM_FALLING_EDGE)
 1494              		.loc 1 747 7 view .LVU336
 1495              		.loc 1 747 21 is_stmt 0 view .LVU337
 1496 006a 4368     		ldr	r3, [r0, #4]
 1497              		.loc 1 747 9 view .LVU338
 1498 006c 13F0020F 		tst	r3, #2
 1499 0070 00F0B480 		beq	.L145
ARM GAS  C:\Users\57308\AppData\Local\Temp\ccqGNF8F.s 			page 41


 748:Drivers/STM32G4xx_HAL_Driver/Src/stm32g4xx_hal_pwr_ex.c ****       {
 749:Drivers/STM32G4xx_HAL_Driver/Src/stm32g4xx_hal_pwr_ex.c ****         __HAL_PWR_PVM2_EXTI_ENABLE_FALLING_EDGE();
 1500              		.loc 1 749 9 is_stmt 1 view .LVU339
 1501 0074 5C4A     		ldr	r2, .L150
 1502 0076 D36A     		ldr	r3, [r2, #44]
 1503 0078 43F01003 		orr	r3, r3, #16
 1504 007c D362     		str	r3, [r2, #44]
 676:Drivers/STM32G4xx_HAL_Driver/Src/stm32g4xx_hal_pwr_ex.c **** 
 1505              		.loc 1 676 21 is_stmt 0 view .LVU340
 1506 007e 0020     		movs	r0, #0
 1507              	.LVL113:
 676:Drivers/STM32G4xx_HAL_Driver/Src/stm32g4xx_hal_pwr_ex.c **** 
 1508              		.loc 1 676 21 view .LVU341
 1509 0080 7047     		bx	lr
 1510              	.LVL114:
 1511              	.L148:
 686:Drivers/STM32G4xx_HAL_Driver/Src/stm32g4xx_hal_pwr_ex.c ****   {
 1512              		.loc 1 686 3 view .LVU342
 1513 0082 0120     		movs	r0, #1
 1514              	.LVL115:
 686:Drivers/STM32G4xx_HAL_Driver/Src/stm32g4xx_hal_pwr_ex.c ****   {
 1515              		.loc 1 686 3 view .LVU343
 1516 0084 7047     		bx	lr
 1517              	.LVL116:
 1518              	.L127:
 686:Drivers/STM32G4xx_HAL_Driver/Src/stm32g4xx_hal_pwr_ex.c ****   {
 1519              		.loc 1 686 3 view .LVU344
 1520 0086 802B     		cmp	r3, #128
 1521 0088 36D1     		bne	.L149
 750:Drivers/STM32G4xx_HAL_Driver/Src/stm32g4xx_hal_pwr_ex.c ****       }
 751:Drivers/STM32G4xx_HAL_Driver/Src/stm32g4xx_hal_pwr_ex.c ****       break;
 752:Drivers/STM32G4xx_HAL_Driver/Src/stm32g4xx_hal_pwr_ex.c **** #endif /* PWR_CR2_PVME2 */
 753:Drivers/STM32G4xx_HAL_Driver/Src/stm32g4xx_hal_pwr_ex.c **** 
 754:Drivers/STM32G4xx_HAL_Driver/Src/stm32g4xx_hal_pwr_ex.c ****     case PWR_PVM_3:
 755:Drivers/STM32G4xx_HAL_Driver/Src/stm32g4xx_hal_pwr_ex.c ****       /* Clear any previous config. Keep it clear if no event or IT mode is selected */
 756:Drivers/STM32G4xx_HAL_Driver/Src/stm32g4xx_hal_pwr_ex.c ****       __HAL_PWR_PVM3_EXTI_DISABLE_EVENT();
 757:Drivers/STM32G4xx_HAL_Driver/Src/stm32g4xx_hal_pwr_ex.c ****       __HAL_PWR_PVM3_EXTI_DISABLE_IT();
 758:Drivers/STM32G4xx_HAL_Driver/Src/stm32g4xx_hal_pwr_ex.c ****       __HAL_PWR_PVM3_EXTI_DISABLE_FALLING_EDGE();
 759:Drivers/STM32G4xx_HAL_Driver/Src/stm32g4xx_hal_pwr_ex.c ****       __HAL_PWR_PVM3_EXTI_DISABLE_RISING_EDGE();
 760:Drivers/STM32G4xx_HAL_Driver/Src/stm32g4xx_hal_pwr_ex.c **** 
 761:Drivers/STM32G4xx_HAL_Driver/Src/stm32g4xx_hal_pwr_ex.c ****       /* Configure interrupt mode */
 762:Drivers/STM32G4xx_HAL_Driver/Src/stm32g4xx_hal_pwr_ex.c ****       if((sConfigPVM->Mode & PVM_MODE_IT) == PVM_MODE_IT)
 763:Drivers/STM32G4xx_HAL_Driver/Src/stm32g4xx_hal_pwr_ex.c ****       {
 764:Drivers/STM32G4xx_HAL_Driver/Src/stm32g4xx_hal_pwr_ex.c ****         __HAL_PWR_PVM3_EXTI_ENABLE_IT();
 765:Drivers/STM32G4xx_HAL_Driver/Src/stm32g4xx_hal_pwr_ex.c ****       }
 766:Drivers/STM32G4xx_HAL_Driver/Src/stm32g4xx_hal_pwr_ex.c **** 
 767:Drivers/STM32G4xx_HAL_Driver/Src/stm32g4xx_hal_pwr_ex.c ****       /* Configure event mode */
 768:Drivers/STM32G4xx_HAL_Driver/Src/stm32g4xx_hal_pwr_ex.c ****       if((sConfigPVM->Mode & PVM_MODE_EVT) == PVM_MODE_EVT)
 769:Drivers/STM32G4xx_HAL_Driver/Src/stm32g4xx_hal_pwr_ex.c ****       {
 770:Drivers/STM32G4xx_HAL_Driver/Src/stm32g4xx_hal_pwr_ex.c ****         __HAL_PWR_PVM3_EXTI_ENABLE_EVENT();
 771:Drivers/STM32G4xx_HAL_Driver/Src/stm32g4xx_hal_pwr_ex.c ****       }
 772:Drivers/STM32G4xx_HAL_Driver/Src/stm32g4xx_hal_pwr_ex.c **** 
 773:Drivers/STM32G4xx_HAL_Driver/Src/stm32g4xx_hal_pwr_ex.c ****       /* Configure the edge */
 774:Drivers/STM32G4xx_HAL_Driver/Src/stm32g4xx_hal_pwr_ex.c ****       if((sConfigPVM->Mode & PVM_RISING_EDGE) == PVM_RISING_EDGE)
 775:Drivers/STM32G4xx_HAL_Driver/Src/stm32g4xx_hal_pwr_ex.c ****       {
 776:Drivers/STM32G4xx_HAL_Driver/Src/stm32g4xx_hal_pwr_ex.c ****         __HAL_PWR_PVM3_EXTI_ENABLE_RISING_EDGE();
 777:Drivers/STM32G4xx_HAL_Driver/Src/stm32g4xx_hal_pwr_ex.c ****       }
ARM GAS  C:\Users\57308\AppData\Local\Temp\ccqGNF8F.s 			page 42


 778:Drivers/STM32G4xx_HAL_Driver/Src/stm32g4xx_hal_pwr_ex.c **** 
 779:Drivers/STM32G4xx_HAL_Driver/Src/stm32g4xx_hal_pwr_ex.c ****       if((sConfigPVM->Mode & PVM_FALLING_EDGE) == PVM_FALLING_EDGE)
 780:Drivers/STM32G4xx_HAL_Driver/Src/stm32g4xx_hal_pwr_ex.c ****       {
 781:Drivers/STM32G4xx_HAL_Driver/Src/stm32g4xx_hal_pwr_ex.c ****         __HAL_PWR_PVM3_EXTI_ENABLE_FALLING_EDGE();
 782:Drivers/STM32G4xx_HAL_Driver/Src/stm32g4xx_hal_pwr_ex.c ****       }
 783:Drivers/STM32G4xx_HAL_Driver/Src/stm32g4xx_hal_pwr_ex.c ****       break;
 784:Drivers/STM32G4xx_HAL_Driver/Src/stm32g4xx_hal_pwr_ex.c **** 
 785:Drivers/STM32G4xx_HAL_Driver/Src/stm32g4xx_hal_pwr_ex.c ****     case PWR_PVM_4:
 786:Drivers/STM32G4xx_HAL_Driver/Src/stm32g4xx_hal_pwr_ex.c ****       /* Clear any previous config. Keep it clear if no event or IT mode is selected */
 787:Drivers/STM32G4xx_HAL_Driver/Src/stm32g4xx_hal_pwr_ex.c ****       __HAL_PWR_PVM4_EXTI_DISABLE_EVENT();
 1522              		.loc 1 787 7 is_stmt 1 view .LVU345
 1523 008a 574B     		ldr	r3, .L150
 1524 008c 5A6A     		ldr	r2, [r3, #36]
 1525 008e 22F04002 		bic	r2, r2, #64
 1526 0092 5A62     		str	r2, [r3, #36]
 788:Drivers/STM32G4xx_HAL_Driver/Src/stm32g4xx_hal_pwr_ex.c ****       __HAL_PWR_PVM4_EXTI_DISABLE_IT();
 1527              		.loc 1 788 7 view .LVU346
 1528 0094 1A6A     		ldr	r2, [r3, #32]
 1529 0096 22F04002 		bic	r2, r2, #64
 1530 009a 1A62     		str	r2, [r3, #32]
 789:Drivers/STM32G4xx_HAL_Driver/Src/stm32g4xx_hal_pwr_ex.c ****       __HAL_PWR_PVM4_EXTI_DISABLE_FALLING_EDGE();
 1531              		.loc 1 789 7 view .LVU347
 1532 009c DA6A     		ldr	r2, [r3, #44]
 1533 009e 22F04002 		bic	r2, r2, #64
 1534 00a2 DA62     		str	r2, [r3, #44]
 790:Drivers/STM32G4xx_HAL_Driver/Src/stm32g4xx_hal_pwr_ex.c ****       __HAL_PWR_PVM4_EXTI_DISABLE_RISING_EDGE();
 1535              		.loc 1 790 7 view .LVU348
 1536 00a4 9A6A     		ldr	r2, [r3, #40]
 1537 00a6 22F04002 		bic	r2, r2, #64
 1538 00aa 9A62     		str	r2, [r3, #40]
 791:Drivers/STM32G4xx_HAL_Driver/Src/stm32g4xx_hal_pwr_ex.c **** 
 792:Drivers/STM32G4xx_HAL_Driver/Src/stm32g4xx_hal_pwr_ex.c ****       /* Configure interrupt mode */
 793:Drivers/STM32G4xx_HAL_Driver/Src/stm32g4xx_hal_pwr_ex.c ****       if((sConfigPVM->Mode & PVM_MODE_IT) == PVM_MODE_IT)
 1539              		.loc 1 793 7 view .LVU349
 1540              		.loc 1 793 21 is_stmt 0 view .LVU350
 1541 00ac 4368     		ldr	r3, [r0, #4]
 1542              		.loc 1 793 9 view .LVU351
 1543 00ae 13F4803F 		tst	r3, #65536
 1544 00b2 04D0     		beq	.L141
 794:Drivers/STM32G4xx_HAL_Driver/Src/stm32g4xx_hal_pwr_ex.c ****       {
 795:Drivers/STM32G4xx_HAL_Driver/Src/stm32g4xx_hal_pwr_ex.c ****         __HAL_PWR_PVM4_EXTI_ENABLE_IT();
 1545              		.loc 1 795 9 is_stmt 1 view .LVU352
 1546 00b4 4C4A     		ldr	r2, .L150
 1547 00b6 136A     		ldr	r3, [r2, #32]
 1548 00b8 43F04003 		orr	r3, r3, #64
 1549 00bc 1362     		str	r3, [r2, #32]
 1550              	.L141:
 796:Drivers/STM32G4xx_HAL_Driver/Src/stm32g4xx_hal_pwr_ex.c ****       }
 797:Drivers/STM32G4xx_HAL_Driver/Src/stm32g4xx_hal_pwr_ex.c **** 
 798:Drivers/STM32G4xx_HAL_Driver/Src/stm32g4xx_hal_pwr_ex.c ****       /* Configure event mode */
 799:Drivers/STM32G4xx_HAL_Driver/Src/stm32g4xx_hal_pwr_ex.c ****       if((sConfigPVM->Mode & PVM_MODE_EVT) == PVM_MODE_EVT)
 1551              		.loc 1 799 7 view .LVU353
 1552              		.loc 1 799 21 is_stmt 0 view .LVU354
 1553 00be 4368     		ldr	r3, [r0, #4]
 1554              		.loc 1 799 9 view .LVU355
 1555 00c0 13F4003F 		tst	r3, #131072
 1556 00c4 04D0     		beq	.L142
ARM GAS  C:\Users\57308\AppData\Local\Temp\ccqGNF8F.s 			page 43


 800:Drivers/STM32G4xx_HAL_Driver/Src/stm32g4xx_hal_pwr_ex.c ****       {
 801:Drivers/STM32G4xx_HAL_Driver/Src/stm32g4xx_hal_pwr_ex.c ****         __HAL_PWR_PVM4_EXTI_ENABLE_EVENT();
 1557              		.loc 1 801 9 is_stmt 1 view .LVU356
 1558 00c6 484A     		ldr	r2, .L150
 1559 00c8 536A     		ldr	r3, [r2, #36]
 1560 00ca 43F04003 		orr	r3, r3, #64
 1561 00ce 5362     		str	r3, [r2, #36]
 1562              	.L142:
 802:Drivers/STM32G4xx_HAL_Driver/Src/stm32g4xx_hal_pwr_ex.c ****       }
 803:Drivers/STM32G4xx_HAL_Driver/Src/stm32g4xx_hal_pwr_ex.c **** 
 804:Drivers/STM32G4xx_HAL_Driver/Src/stm32g4xx_hal_pwr_ex.c ****       /* Configure the edge */
 805:Drivers/STM32G4xx_HAL_Driver/Src/stm32g4xx_hal_pwr_ex.c ****       if((sConfigPVM->Mode & PVM_RISING_EDGE) == PVM_RISING_EDGE)
 1563              		.loc 1 805 7 view .LVU357
 1564              		.loc 1 805 21 is_stmt 0 view .LVU358
 1565 00d0 4368     		ldr	r3, [r0, #4]
 1566              		.loc 1 805 9 view .LVU359
 1567 00d2 13F0010F 		tst	r3, #1
 1568 00d6 04D0     		beq	.L143
 806:Drivers/STM32G4xx_HAL_Driver/Src/stm32g4xx_hal_pwr_ex.c ****       {
 807:Drivers/STM32G4xx_HAL_Driver/Src/stm32g4xx_hal_pwr_ex.c ****         __HAL_PWR_PVM4_EXTI_ENABLE_RISING_EDGE();
 1569              		.loc 1 807 9 is_stmt 1 view .LVU360
 1570 00d8 434A     		ldr	r2, .L150
 1571 00da 936A     		ldr	r3, [r2, #40]
 1572 00dc 43F04003 		orr	r3, r3, #64
 1573 00e0 9362     		str	r3, [r2, #40]
 1574              	.L143:
 808:Drivers/STM32G4xx_HAL_Driver/Src/stm32g4xx_hal_pwr_ex.c ****       }
 809:Drivers/STM32G4xx_HAL_Driver/Src/stm32g4xx_hal_pwr_ex.c **** 
 810:Drivers/STM32G4xx_HAL_Driver/Src/stm32g4xx_hal_pwr_ex.c ****       if((sConfigPVM->Mode & PVM_FALLING_EDGE) == PVM_FALLING_EDGE)
 1575              		.loc 1 810 7 view .LVU361
 1576              		.loc 1 810 21 is_stmt 0 view .LVU362
 1577 00e2 4368     		ldr	r3, [r0, #4]
 1578              		.loc 1 810 9 view .LVU363
 1579 00e4 13F0020F 		tst	r3, #2
 1580 00e8 7CD0     		beq	.L147
 811:Drivers/STM32G4xx_HAL_Driver/Src/stm32g4xx_hal_pwr_ex.c ****       {
 812:Drivers/STM32G4xx_HAL_Driver/Src/stm32g4xx_hal_pwr_ex.c ****         __HAL_PWR_PVM4_EXTI_ENABLE_FALLING_EDGE();
 1581              		.loc 1 812 9 is_stmt 1 view .LVU364
 1582 00ea 3F4A     		ldr	r2, .L150
 1583 00ec D36A     		ldr	r3, [r2, #44]
 1584 00ee 43F04003 		orr	r3, r3, #64
 1585 00f2 D362     		str	r3, [r2, #44]
 676:Drivers/STM32G4xx_HAL_Driver/Src/stm32g4xx_hal_pwr_ex.c **** 
 1586              		.loc 1 676 21 is_stmt 0 view .LVU365
 1587 00f4 0020     		movs	r0, #0
 1588              	.LVL117:
 676:Drivers/STM32G4xx_HAL_Driver/Src/stm32g4xx_hal_pwr_ex.c **** 
 1589              		.loc 1 676 21 view .LVU366
 1590 00f6 7047     		bx	lr
 1591              	.LVL118:
 1592              	.L149:
 686:Drivers/STM32G4xx_HAL_Driver/Src/stm32g4xx_hal_pwr_ex.c ****   {
 1593              		.loc 1 686 3 view .LVU367
 1594 00f8 0120     		movs	r0, #1
 1595              	.LVL119:
 686:Drivers/STM32G4xx_HAL_Driver/Src/stm32g4xx_hal_pwr_ex.c ****   {
 1596              		.loc 1 686 3 view .LVU368
ARM GAS  C:\Users\57308\AppData\Local\Temp\ccqGNF8F.s 			page 44


 1597 00fa 7047     		bx	lr
 1598              	.LVL120:
 1599              	.L128:
 691:Drivers/STM32G4xx_HAL_Driver/Src/stm32g4xx_hal_pwr_ex.c ****       __HAL_PWR_PVM1_EXTI_DISABLE_IT();
 1600              		.loc 1 691 7 is_stmt 1 view .LVU369
 1601 00fc 3A4B     		ldr	r3, .L150
 1602 00fe 5A6A     		ldr	r2, [r3, #36]
 1603 0100 22F00802 		bic	r2, r2, #8
 1604 0104 5A62     		str	r2, [r3, #36]
 692:Drivers/STM32G4xx_HAL_Driver/Src/stm32g4xx_hal_pwr_ex.c ****       __HAL_PWR_PVM1_EXTI_DISABLE_FALLING_EDGE();
 1605              		.loc 1 692 7 view .LVU370
 1606 0106 1A6A     		ldr	r2, [r3, #32]
 1607 0108 22F00802 		bic	r2, r2, #8
 1608 010c 1A62     		str	r2, [r3, #32]
 693:Drivers/STM32G4xx_HAL_Driver/Src/stm32g4xx_hal_pwr_ex.c ****       __HAL_PWR_PVM1_EXTI_DISABLE_RISING_EDGE();
 1609              		.loc 1 693 7 view .LVU371
 1610 010e DA6A     		ldr	r2, [r3, #44]
 1611 0110 22F00802 		bic	r2, r2, #8
 1612 0114 DA62     		str	r2, [r3, #44]
 694:Drivers/STM32G4xx_HAL_Driver/Src/stm32g4xx_hal_pwr_ex.c **** 
 1613              		.loc 1 694 7 view .LVU372
 1614 0116 9A6A     		ldr	r2, [r3, #40]
 1615 0118 22F00802 		bic	r2, r2, #8
 1616 011c 9A62     		str	r2, [r3, #40]
 697:Drivers/STM32G4xx_HAL_Driver/Src/stm32g4xx_hal_pwr_ex.c ****       {
 1617              		.loc 1 697 7 view .LVU373
 697:Drivers/STM32G4xx_HAL_Driver/Src/stm32g4xx_hal_pwr_ex.c ****       {
 1618              		.loc 1 697 21 is_stmt 0 view .LVU374
 1619 011e 4368     		ldr	r3, [r0, #4]
 697:Drivers/STM32G4xx_HAL_Driver/Src/stm32g4xx_hal_pwr_ex.c ****       {
 1620              		.loc 1 697 9 view .LVU375
 1621 0120 13F4803F 		tst	r3, #65536
 1622 0124 04D0     		beq	.L132
 699:Drivers/STM32G4xx_HAL_Driver/Src/stm32g4xx_hal_pwr_ex.c ****       }
 1623              		.loc 1 699 9 is_stmt 1 view .LVU376
 1624 0126 304A     		ldr	r2, .L150
 1625 0128 136A     		ldr	r3, [r2, #32]
 1626 012a 43F00803 		orr	r3, r3, #8
 1627 012e 1362     		str	r3, [r2, #32]
 1628              	.L132:
 703:Drivers/STM32G4xx_HAL_Driver/Src/stm32g4xx_hal_pwr_ex.c ****       {
 1629              		.loc 1 703 7 view .LVU377
 703:Drivers/STM32G4xx_HAL_Driver/Src/stm32g4xx_hal_pwr_ex.c ****       {
 1630              		.loc 1 703 21 is_stmt 0 view .LVU378
 1631 0130 4368     		ldr	r3, [r0, #4]
 703:Drivers/STM32G4xx_HAL_Driver/Src/stm32g4xx_hal_pwr_ex.c ****       {
 1632              		.loc 1 703 9 view .LVU379
 1633 0132 13F4003F 		tst	r3, #131072
 1634 0136 04D0     		beq	.L133
 705:Drivers/STM32G4xx_HAL_Driver/Src/stm32g4xx_hal_pwr_ex.c ****       }
 1635              		.loc 1 705 9 is_stmt 1 view .LVU380
 1636 0138 2B4A     		ldr	r2, .L150
 1637 013a 536A     		ldr	r3, [r2, #36]
 1638 013c 43F00803 		orr	r3, r3, #8
 1639 0140 5362     		str	r3, [r2, #36]
 1640              	.L133:
 709:Drivers/STM32G4xx_HAL_Driver/Src/stm32g4xx_hal_pwr_ex.c ****       {
ARM GAS  C:\Users\57308\AppData\Local\Temp\ccqGNF8F.s 			page 45


 1641              		.loc 1 709 7 view .LVU381
 709:Drivers/STM32G4xx_HAL_Driver/Src/stm32g4xx_hal_pwr_ex.c ****       {
 1642              		.loc 1 709 21 is_stmt 0 view .LVU382
 1643 0142 4368     		ldr	r3, [r0, #4]
 709:Drivers/STM32G4xx_HAL_Driver/Src/stm32g4xx_hal_pwr_ex.c ****       {
 1644              		.loc 1 709 9 view .LVU383
 1645 0144 13F0010F 		tst	r3, #1
 1646 0148 04D0     		beq	.L134
 711:Drivers/STM32G4xx_HAL_Driver/Src/stm32g4xx_hal_pwr_ex.c ****       }
 1647              		.loc 1 711 9 is_stmt 1 view .LVU384
 1648 014a 274A     		ldr	r2, .L150
 1649 014c 936A     		ldr	r3, [r2, #40]
 1650 014e 43F00803 		orr	r3, r3, #8
 1651 0152 9362     		str	r3, [r2, #40]
 1652              	.L134:
 714:Drivers/STM32G4xx_HAL_Driver/Src/stm32g4xx_hal_pwr_ex.c ****       {
 1653              		.loc 1 714 7 view .LVU385
 714:Drivers/STM32G4xx_HAL_Driver/Src/stm32g4xx_hal_pwr_ex.c ****       {
 1654              		.loc 1 714 21 is_stmt 0 view .LVU386
 1655 0154 4368     		ldr	r3, [r0, #4]
 714:Drivers/STM32G4xx_HAL_Driver/Src/stm32g4xx_hal_pwr_ex.c ****       {
 1656              		.loc 1 714 9 view .LVU387
 1657 0156 13F0020F 		tst	r3, #2
 1658 015a 3DD0     		beq	.L144
 716:Drivers/STM32G4xx_HAL_Driver/Src/stm32g4xx_hal_pwr_ex.c ****       }
 1659              		.loc 1 716 9 is_stmt 1 view .LVU388
 1660 015c 224A     		ldr	r2, .L150
 1661 015e D36A     		ldr	r3, [r2, #44]
 1662 0160 43F00803 		orr	r3, r3, #8
 1663 0164 D362     		str	r3, [r2, #44]
 676:Drivers/STM32G4xx_HAL_Driver/Src/stm32g4xx_hal_pwr_ex.c **** 
 1664              		.loc 1 676 21 is_stmt 0 view .LVU389
 1665 0166 0020     		movs	r0, #0
 1666              	.LVL121:
 676:Drivers/STM32G4xx_HAL_Driver/Src/stm32g4xx_hal_pwr_ex.c **** 
 1667              		.loc 1 676 21 view .LVU390
 1668 0168 7047     		bx	lr
 1669              	.LVL122:
 1670              	.L126:
 756:Drivers/STM32G4xx_HAL_Driver/Src/stm32g4xx_hal_pwr_ex.c ****       __HAL_PWR_PVM3_EXTI_DISABLE_IT();
 1671              		.loc 1 756 7 is_stmt 1 view .LVU391
 1672 016a 1F4B     		ldr	r3, .L150
 1673 016c 5A6A     		ldr	r2, [r3, #36]
 1674 016e 22F02002 		bic	r2, r2, #32
 1675 0172 5A62     		str	r2, [r3, #36]
 757:Drivers/STM32G4xx_HAL_Driver/Src/stm32g4xx_hal_pwr_ex.c ****       __HAL_PWR_PVM3_EXTI_DISABLE_FALLING_EDGE();
 1676              		.loc 1 757 7 view .LVU392
 1677 0174 1A6A     		ldr	r2, [r3, #32]
 1678 0176 22F02002 		bic	r2, r2, #32
 1679 017a 1A62     		str	r2, [r3, #32]
 758:Drivers/STM32G4xx_HAL_Driver/Src/stm32g4xx_hal_pwr_ex.c ****       __HAL_PWR_PVM3_EXTI_DISABLE_RISING_EDGE();
 1680              		.loc 1 758 7 view .LVU393
 1681 017c DA6A     		ldr	r2, [r3, #44]
 1682 017e 22F02002 		bic	r2, r2, #32
 1683 0182 DA62     		str	r2, [r3, #44]
 759:Drivers/STM32G4xx_HAL_Driver/Src/stm32g4xx_hal_pwr_ex.c **** 
 1684              		.loc 1 759 7 view .LVU394
ARM GAS  C:\Users\57308\AppData\Local\Temp\ccqGNF8F.s 			page 46


 1685 0184 9A6A     		ldr	r2, [r3, #40]
 1686 0186 22F02002 		bic	r2, r2, #32
 1687 018a 9A62     		str	r2, [r3, #40]
 762:Drivers/STM32G4xx_HAL_Driver/Src/stm32g4xx_hal_pwr_ex.c ****       {
 1688              		.loc 1 762 7 view .LVU395
 762:Drivers/STM32G4xx_HAL_Driver/Src/stm32g4xx_hal_pwr_ex.c ****       {
 1689              		.loc 1 762 21 is_stmt 0 view .LVU396
 1690 018c 4368     		ldr	r3, [r0, #4]
 762:Drivers/STM32G4xx_HAL_Driver/Src/stm32g4xx_hal_pwr_ex.c ****       {
 1691              		.loc 1 762 9 view .LVU397
 1692 018e 13F4803F 		tst	r3, #65536
 1693 0192 04D0     		beq	.L138
 764:Drivers/STM32G4xx_HAL_Driver/Src/stm32g4xx_hal_pwr_ex.c ****       }
 1694              		.loc 1 764 9 is_stmt 1 view .LVU398
 1695 0194 144A     		ldr	r2, .L150
 1696 0196 136A     		ldr	r3, [r2, #32]
 1697 0198 43F02003 		orr	r3, r3, #32
 1698 019c 1362     		str	r3, [r2, #32]
 1699              	.L138:
 768:Drivers/STM32G4xx_HAL_Driver/Src/stm32g4xx_hal_pwr_ex.c ****       {
 1700              		.loc 1 768 7 view .LVU399
 768:Drivers/STM32G4xx_HAL_Driver/Src/stm32g4xx_hal_pwr_ex.c ****       {
 1701              		.loc 1 768 21 is_stmt 0 view .LVU400
 1702 019e 4368     		ldr	r3, [r0, #4]
 768:Drivers/STM32G4xx_HAL_Driver/Src/stm32g4xx_hal_pwr_ex.c ****       {
 1703              		.loc 1 768 9 view .LVU401
 1704 01a0 13F4003F 		tst	r3, #131072
 1705 01a4 04D0     		beq	.L139
 770:Drivers/STM32G4xx_HAL_Driver/Src/stm32g4xx_hal_pwr_ex.c ****       }
 1706              		.loc 1 770 9 is_stmt 1 view .LVU402
 1707 01a6 104A     		ldr	r2, .L150
 1708 01a8 536A     		ldr	r3, [r2, #36]
 1709 01aa 43F02003 		orr	r3, r3, #32
 1710 01ae 5362     		str	r3, [r2, #36]
 1711              	.L139:
 774:Drivers/STM32G4xx_HAL_Driver/Src/stm32g4xx_hal_pwr_ex.c ****       {
 1712              		.loc 1 774 7 view .LVU403
 774:Drivers/STM32G4xx_HAL_Driver/Src/stm32g4xx_hal_pwr_ex.c ****       {
 1713              		.loc 1 774 21 is_stmt 0 view .LVU404
 1714 01b0 4368     		ldr	r3, [r0, #4]
 774:Drivers/STM32G4xx_HAL_Driver/Src/stm32g4xx_hal_pwr_ex.c ****       {
 1715              		.loc 1 774 9 view .LVU405
 1716 01b2 13F0010F 		tst	r3, #1
 1717 01b6 04D0     		beq	.L140
 776:Drivers/STM32G4xx_HAL_Driver/Src/stm32g4xx_hal_pwr_ex.c ****       }
 1718              		.loc 1 776 9 is_stmt 1 view .LVU406
 1719 01b8 0B4A     		ldr	r2, .L150
 1720 01ba 936A     		ldr	r3, [r2, #40]
 1721 01bc 43F02003 		orr	r3, r3, #32
 1722 01c0 9362     		str	r3, [r2, #40]
 1723              	.L140:
 779:Drivers/STM32G4xx_HAL_Driver/Src/stm32g4xx_hal_pwr_ex.c ****       {
 1724              		.loc 1 779 7 view .LVU407
 779:Drivers/STM32G4xx_HAL_Driver/Src/stm32g4xx_hal_pwr_ex.c ****       {
 1725              		.loc 1 779 21 is_stmt 0 view .LVU408
 1726 01c2 4368     		ldr	r3, [r0, #4]
 779:Drivers/STM32G4xx_HAL_Driver/Src/stm32g4xx_hal_pwr_ex.c ****       {
ARM GAS  C:\Users\57308\AppData\Local\Temp\ccqGNF8F.s 			page 47


 1727              		.loc 1 779 9 view .LVU409
 1728 01c4 13F0020F 		tst	r3, #2
 1729 01c8 0AD0     		beq	.L146
 781:Drivers/STM32G4xx_HAL_Driver/Src/stm32g4xx_hal_pwr_ex.c ****       }
 1730              		.loc 1 781 9 is_stmt 1 view .LVU410
 1731 01ca 074A     		ldr	r2, .L150
 1732 01cc D36A     		ldr	r3, [r2, #44]
 1733 01ce 43F02003 		orr	r3, r3, #32
 1734 01d2 D362     		str	r3, [r2, #44]
 676:Drivers/STM32G4xx_HAL_Driver/Src/stm32g4xx_hal_pwr_ex.c **** 
 1735              		.loc 1 676 21 is_stmt 0 view .LVU411
 1736 01d4 0020     		movs	r0, #0
 1737              	.LVL123:
 676:Drivers/STM32G4xx_HAL_Driver/Src/stm32g4xx_hal_pwr_ex.c **** 
 1738              		.loc 1 676 21 view .LVU412
 1739 01d6 7047     		bx	lr
 1740              	.LVL124:
 1741              	.L144:
 676:Drivers/STM32G4xx_HAL_Driver/Src/stm32g4xx_hal_pwr_ex.c **** 
 1742              		.loc 1 676 21 view .LVU413
 1743 01d8 0020     		movs	r0, #0
 1744              	.LVL125:
 676:Drivers/STM32G4xx_HAL_Driver/Src/stm32g4xx_hal_pwr_ex.c **** 
 1745              		.loc 1 676 21 view .LVU414
 1746 01da 7047     		bx	lr
 1747              	.LVL126:
 1748              	.L145:
 676:Drivers/STM32G4xx_HAL_Driver/Src/stm32g4xx_hal_pwr_ex.c **** 
 1749              		.loc 1 676 21 view .LVU415
 1750 01dc 0020     		movs	r0, #0
 1751              	.LVL127:
 676:Drivers/STM32G4xx_HAL_Driver/Src/stm32g4xx_hal_pwr_ex.c **** 
 1752              		.loc 1 676 21 view .LVU416
 1753 01de 7047     		bx	lr
 1754              	.LVL128:
 1755              	.L146:
 676:Drivers/STM32G4xx_HAL_Driver/Src/stm32g4xx_hal_pwr_ex.c **** 
 1756              		.loc 1 676 21 view .LVU417
 1757 01e0 0020     		movs	r0, #0
 1758              	.LVL129:
 676:Drivers/STM32G4xx_HAL_Driver/Src/stm32g4xx_hal_pwr_ex.c **** 
 1759              		.loc 1 676 21 view .LVU418
 1760 01e2 7047     		bx	lr
 1761              	.LVL130:
 1762              	.L147:
 676:Drivers/STM32G4xx_HAL_Driver/Src/stm32g4xx_hal_pwr_ex.c **** 
 1763              		.loc 1 676 21 view .LVU419
 1764 01e4 0020     		movs	r0, #0
 1765              	.LVL131:
 813:Drivers/STM32G4xx_HAL_Driver/Src/stm32g4xx_hal_pwr_ex.c ****       }
 814:Drivers/STM32G4xx_HAL_Driver/Src/stm32g4xx_hal_pwr_ex.c ****       break;
 815:Drivers/STM32G4xx_HAL_Driver/Src/stm32g4xx_hal_pwr_ex.c **** 
 816:Drivers/STM32G4xx_HAL_Driver/Src/stm32g4xx_hal_pwr_ex.c ****     default:
 817:Drivers/STM32G4xx_HAL_Driver/Src/stm32g4xx_hal_pwr_ex.c ****       status = HAL_ERROR;
 818:Drivers/STM32G4xx_HAL_Driver/Src/stm32g4xx_hal_pwr_ex.c ****       break;
 819:Drivers/STM32G4xx_HAL_Driver/Src/stm32g4xx_hal_pwr_ex.c ****   }
 820:Drivers/STM32G4xx_HAL_Driver/Src/stm32g4xx_hal_pwr_ex.c **** 
ARM GAS  C:\Users\57308\AppData\Local\Temp\ccqGNF8F.s 			page 48


 821:Drivers/STM32G4xx_HAL_Driver/Src/stm32g4xx_hal_pwr_ex.c ****   return status;
 1766              		.loc 1 821 3 is_stmt 1 view .LVU420
 822:Drivers/STM32G4xx_HAL_Driver/Src/stm32g4xx_hal_pwr_ex.c **** }
 1767              		.loc 1 822 1 is_stmt 0 view .LVU421
 1768 01e6 7047     		bx	lr
 1769              	.L151:
 1770              		.align	2
 1771              	.L150:
 1772 01e8 00040140 		.word	1073808384
 1773              		.cfi_endproc
 1774              	.LFE351:
 1776              		.section	.text.HAL_PWREx_EnableLowPowerRunMode,"ax",%progbits
 1777              		.align	1
 1778              		.global	HAL_PWREx_EnableLowPowerRunMode
 1779              		.syntax unified
 1780              		.thumb
 1781              		.thumb_func
 1783              	HAL_PWREx_EnableLowPowerRunMode:
 1784              	.LFB352:
 823:Drivers/STM32G4xx_HAL_Driver/Src/stm32g4xx_hal_pwr_ex.c **** 
 824:Drivers/STM32G4xx_HAL_Driver/Src/stm32g4xx_hal_pwr_ex.c **** 
 825:Drivers/STM32G4xx_HAL_Driver/Src/stm32g4xx_hal_pwr_ex.c **** /**
 826:Drivers/STM32G4xx_HAL_Driver/Src/stm32g4xx_hal_pwr_ex.c ****   * @brief Enter Low-power Run mode
 827:Drivers/STM32G4xx_HAL_Driver/Src/stm32g4xx_hal_pwr_ex.c ****   * @note  In Low-power Run mode, all I/O pins keep the same state as in Run mode.
 828:Drivers/STM32G4xx_HAL_Driver/Src/stm32g4xx_hal_pwr_ex.c ****   * @note  When Regulator is set to PWR_LOWPOWERREGULATOR_ON, the user can optionally configure the
 829:Drivers/STM32G4xx_HAL_Driver/Src/stm32g4xx_hal_pwr_ex.c ****   *        Flash in power-down monde in setting the RUN_PD bit in FLASH_ACR register.
 830:Drivers/STM32G4xx_HAL_Driver/Src/stm32g4xx_hal_pwr_ex.c ****   *        Additionally, the clock frequency must be reduced below 2 MHz.
 831:Drivers/STM32G4xx_HAL_Driver/Src/stm32g4xx_hal_pwr_ex.c ****   *        Setting RUN_PD in FLASH_ACR then appropriately reducing the clock frequency must
 832:Drivers/STM32G4xx_HAL_Driver/Src/stm32g4xx_hal_pwr_ex.c ****   *        be done before calling HAL_PWREx_EnableLowPowerRunMode() API.
 833:Drivers/STM32G4xx_HAL_Driver/Src/stm32g4xx_hal_pwr_ex.c ****   * @retval None
 834:Drivers/STM32G4xx_HAL_Driver/Src/stm32g4xx_hal_pwr_ex.c ****   */
 835:Drivers/STM32G4xx_HAL_Driver/Src/stm32g4xx_hal_pwr_ex.c **** void HAL_PWREx_EnableLowPowerRunMode(void)
 836:Drivers/STM32G4xx_HAL_Driver/Src/stm32g4xx_hal_pwr_ex.c **** {
 1785              		.loc 1 836 1 is_stmt 1 view -0
 1786              		.cfi_startproc
 1787              		@ args = 0, pretend = 0, frame = 0
 1788              		@ frame_needed = 0, uses_anonymous_args = 0
 1789              		@ link register save eliminated.
 837:Drivers/STM32G4xx_HAL_Driver/Src/stm32g4xx_hal_pwr_ex.c ****   /* Set Regulator parameter */
 838:Drivers/STM32G4xx_HAL_Driver/Src/stm32g4xx_hal_pwr_ex.c ****   SET_BIT(PWR->CR1, PWR_CR1_LPR);
 1790              		.loc 1 838 3 view .LVU423
 1791 0000 024A     		ldr	r2, .L153
 1792 0002 1368     		ldr	r3, [r2]
 1793 0004 43F48043 		orr	r3, r3, #16384
 1794 0008 1360     		str	r3, [r2]
 839:Drivers/STM32G4xx_HAL_Driver/Src/stm32g4xx_hal_pwr_ex.c **** }
 1795              		.loc 1 839 1 is_stmt 0 view .LVU424
 1796 000a 7047     		bx	lr
 1797              	.L154:
 1798              		.align	2
 1799              	.L153:
 1800 000c 00700040 		.word	1073770496
 1801              		.cfi_endproc
 1802              	.LFE352:
 1804              		.section	.text.HAL_PWREx_DisableLowPowerRunMode,"ax",%progbits
 1805              		.align	1
 1806              		.global	HAL_PWREx_DisableLowPowerRunMode
ARM GAS  C:\Users\57308\AppData\Local\Temp\ccqGNF8F.s 			page 49


 1807              		.syntax unified
 1808              		.thumb
 1809              		.thumb_func
 1811              	HAL_PWREx_DisableLowPowerRunMode:
 1812              	.LFB353:
 840:Drivers/STM32G4xx_HAL_Driver/Src/stm32g4xx_hal_pwr_ex.c **** 
 841:Drivers/STM32G4xx_HAL_Driver/Src/stm32g4xx_hal_pwr_ex.c **** 
 842:Drivers/STM32G4xx_HAL_Driver/Src/stm32g4xx_hal_pwr_ex.c **** /**
 843:Drivers/STM32G4xx_HAL_Driver/Src/stm32g4xx_hal_pwr_ex.c ****   * @brief Exit Low-power Run mode.
 844:Drivers/STM32G4xx_HAL_Driver/Src/stm32g4xx_hal_pwr_ex.c ****   * @note  Before HAL_PWREx_DisableLowPowerRunMode() completion, the function checks that
 845:Drivers/STM32G4xx_HAL_Driver/Src/stm32g4xx_hal_pwr_ex.c ****   *        REGLPF has been properly reset (otherwise, HAL_PWREx_DisableLowPowerRunMode
 846:Drivers/STM32G4xx_HAL_Driver/Src/stm32g4xx_hal_pwr_ex.c ****   *        returns HAL_TIMEOUT status). The system clock frequency can then be
 847:Drivers/STM32G4xx_HAL_Driver/Src/stm32g4xx_hal_pwr_ex.c ****   *        increased above 2 MHz.
 848:Drivers/STM32G4xx_HAL_Driver/Src/stm32g4xx_hal_pwr_ex.c ****   * @retval HAL Status
 849:Drivers/STM32G4xx_HAL_Driver/Src/stm32g4xx_hal_pwr_ex.c ****   */
 850:Drivers/STM32G4xx_HAL_Driver/Src/stm32g4xx_hal_pwr_ex.c **** HAL_StatusTypeDef HAL_PWREx_DisableLowPowerRunMode(void)
 851:Drivers/STM32G4xx_HAL_Driver/Src/stm32g4xx_hal_pwr_ex.c **** {
 1813              		.loc 1 851 1 is_stmt 1 view -0
 1814              		.cfi_startproc
 1815              		@ args = 0, pretend = 0, frame = 0
 1816              		@ frame_needed = 0, uses_anonymous_args = 0
 1817              		@ link register save eliminated.
 852:Drivers/STM32G4xx_HAL_Driver/Src/stm32g4xx_hal_pwr_ex.c ****   uint32_t wait_loop_index;
 1818              		.loc 1 852 3 view .LVU426
 853:Drivers/STM32G4xx_HAL_Driver/Src/stm32g4xx_hal_pwr_ex.c **** 
 854:Drivers/STM32G4xx_HAL_Driver/Src/stm32g4xx_hal_pwr_ex.c ****   /* Clear LPR bit */
 855:Drivers/STM32G4xx_HAL_Driver/Src/stm32g4xx_hal_pwr_ex.c ****   CLEAR_BIT(PWR->CR1, PWR_CR1_LPR);
 1819              		.loc 1 855 3 view .LVU427
 1820 0000 124A     		ldr	r2, .L161
 1821 0002 1368     		ldr	r3, [r2]
 1822 0004 23F48043 		bic	r3, r3, #16384
 1823 0008 1360     		str	r3, [r2]
 856:Drivers/STM32G4xx_HAL_Driver/Src/stm32g4xx_hal_pwr_ex.c **** 
 857:Drivers/STM32G4xx_HAL_Driver/Src/stm32g4xx_hal_pwr_ex.c ****   /* Wait until REGLPF is reset */
 858:Drivers/STM32G4xx_HAL_Driver/Src/stm32g4xx_hal_pwr_ex.c ****   wait_loop_index = (PWR_FLAG_SETTING_DELAY_US * (SystemCoreClock / 1000000U));
 1824              		.loc 1 858 3 view .LVU428
 1825              		.loc 1 858 67 is_stmt 0 view .LVU429
 1826 000a 114B     		ldr	r3, .L161+4
 1827 000c 1B68     		ldr	r3, [r3]
 1828 000e 02F14672 		add	r2, r2, #51904512
 1829 0012 02F55B32 		add	r2, r2, #224256
 1830 0016 02F28322 		addw	r2, r2, #643
 1831 001a A2FB0323 		umull	r2, r3, r2, r3
 1832 001e 9B0C     		lsrs	r3, r3, #18
 1833              		.loc 1 858 19 view .LVU430
 1834 0020 3222     		movs	r2, #50
 1835 0022 02FB03F3 		mul	r3, r2, r3
 1836              	.LVL132:
 859:Drivers/STM32G4xx_HAL_Driver/Src/stm32g4xx_hal_pwr_ex.c ****   while ((HAL_IS_BIT_SET(PWR->SR2, PWR_SR2_REGLPF)) && (wait_loop_index != 0U))
 1837              		.loc 1 859 3 is_stmt 1 view .LVU431
 1838              		.loc 1 859 9 is_stmt 0 view .LVU432
 1839 0026 00E0     		b	.L156
 1840              	.L158:
 860:Drivers/STM32G4xx_HAL_Driver/Src/stm32g4xx_hal_pwr_ex.c ****   {
 861:Drivers/STM32G4xx_HAL_Driver/Src/stm32g4xx_hal_pwr_ex.c ****     wait_loop_index--;
 1841              		.loc 1 861 5 is_stmt 1 view .LVU433
 1842              		.loc 1 861 20 is_stmt 0 view .LVU434
ARM GAS  C:\Users\57308\AppData\Local\Temp\ccqGNF8F.s 			page 50


 1843 0028 013B     		subs	r3, r3, #1
 1844              	.LVL133:
 1845              	.L156:
 859:Drivers/STM32G4xx_HAL_Driver/Src/stm32g4xx_hal_pwr_ex.c ****   while ((HAL_IS_BIT_SET(PWR->SR2, PWR_SR2_REGLPF)) && (wait_loop_index != 0U))
 1846              		.loc 1 859 9 is_stmt 1 view .LVU435
 859:Drivers/STM32G4xx_HAL_Driver/Src/stm32g4xx_hal_pwr_ex.c ****   while ((HAL_IS_BIT_SET(PWR->SR2, PWR_SR2_REGLPF)) && (wait_loop_index != 0U))
 1847              		.loc 1 859 11 is_stmt 0 view .LVU436
 1848 002a 084A     		ldr	r2, .L161
 1849 002c 5269     		ldr	r2, [r2, #20]
 859:Drivers/STM32G4xx_HAL_Driver/Src/stm32g4xx_hal_pwr_ex.c ****   while ((HAL_IS_BIT_SET(PWR->SR2, PWR_SR2_REGLPF)) && (wait_loop_index != 0U))
 1850              		.loc 1 859 9 view .LVU437
 1851 002e 12F4007F 		tst	r2, #512
 1852 0032 01D0     		beq	.L157
 859:Drivers/STM32G4xx_HAL_Driver/Src/stm32g4xx_hal_pwr_ex.c ****   while ((HAL_IS_BIT_SET(PWR->SR2, PWR_SR2_REGLPF)) && (wait_loop_index != 0U))
 1853              		.loc 1 859 53 discriminator 1 view .LVU438
 1854 0034 002B     		cmp	r3, #0
 1855 0036 F7D1     		bne	.L158
 1856              	.L157:
 862:Drivers/STM32G4xx_HAL_Driver/Src/stm32g4xx_hal_pwr_ex.c ****   }
 863:Drivers/STM32G4xx_HAL_Driver/Src/stm32g4xx_hal_pwr_ex.c ****   if (HAL_IS_BIT_SET(PWR->SR2, PWR_SR2_REGLPF))
 1857              		.loc 1 863 3 is_stmt 1 view .LVU439
 1858              		.loc 1 863 7 is_stmt 0 view .LVU440
 1859 0038 044B     		ldr	r3, .L161
 1860              	.LVL134:
 1861              		.loc 1 863 7 view .LVU441
 1862 003a 5B69     		ldr	r3, [r3, #20]
 1863              		.loc 1 863 6 view .LVU442
 1864 003c 13F4007F 		tst	r3, #512
 1865 0040 01D1     		bne	.L160
 864:Drivers/STM32G4xx_HAL_Driver/Src/stm32g4xx_hal_pwr_ex.c ****   {
 865:Drivers/STM32G4xx_HAL_Driver/Src/stm32g4xx_hal_pwr_ex.c ****     return HAL_TIMEOUT;
 866:Drivers/STM32G4xx_HAL_Driver/Src/stm32g4xx_hal_pwr_ex.c ****   }
 867:Drivers/STM32G4xx_HAL_Driver/Src/stm32g4xx_hal_pwr_ex.c **** 
 868:Drivers/STM32G4xx_HAL_Driver/Src/stm32g4xx_hal_pwr_ex.c ****   return HAL_OK;
 1866              		.loc 1 868 10 view .LVU443
 1867 0042 0020     		movs	r0, #0
 1868 0044 7047     		bx	lr
 1869              	.L160:
 865:Drivers/STM32G4xx_HAL_Driver/Src/stm32g4xx_hal_pwr_ex.c ****   }
 1870              		.loc 1 865 12 view .LVU444
 1871 0046 0320     		movs	r0, #3
 869:Drivers/STM32G4xx_HAL_Driver/Src/stm32g4xx_hal_pwr_ex.c **** }
 1872              		.loc 1 869 1 view .LVU445
 1873 0048 7047     		bx	lr
 1874              	.L162:
 1875 004a 00BF     		.align	2
 1876              	.L161:
 1877 004c 00700040 		.word	1073770496
 1878 0050 00000000 		.word	SystemCoreClock
 1879              		.cfi_endproc
 1880              	.LFE353:
 1882              		.section	.text.HAL_PWREx_EnterSTOP0Mode,"ax",%progbits
 1883              		.align	1
 1884              		.global	HAL_PWREx_EnterSTOP0Mode
 1885              		.syntax unified
 1886              		.thumb
 1887              		.thumb_func
ARM GAS  C:\Users\57308\AppData\Local\Temp\ccqGNF8F.s 			page 51


 1889              	HAL_PWREx_EnterSTOP0Mode:
 1890              	.LVL135:
 1891              	.LFB354:
 870:Drivers/STM32G4xx_HAL_Driver/Src/stm32g4xx_hal_pwr_ex.c **** 
 871:Drivers/STM32G4xx_HAL_Driver/Src/stm32g4xx_hal_pwr_ex.c **** 
 872:Drivers/STM32G4xx_HAL_Driver/Src/stm32g4xx_hal_pwr_ex.c **** /**
 873:Drivers/STM32G4xx_HAL_Driver/Src/stm32g4xx_hal_pwr_ex.c ****   * @brief Enter Stop 0 mode.
 874:Drivers/STM32G4xx_HAL_Driver/Src/stm32g4xx_hal_pwr_ex.c ****   * @note  In Stop 0 mode, main and low voltage regulators are ON.
 875:Drivers/STM32G4xx_HAL_Driver/Src/stm32g4xx_hal_pwr_ex.c ****   * @note  In Stop 0 mode, all I/O pins keep the same state as in Run mode.
 876:Drivers/STM32G4xx_HAL_Driver/Src/stm32g4xx_hal_pwr_ex.c ****   * @note  All clocks in the VCORE domain are stopped; the PLL, the HSI
 877:Drivers/STM32G4xx_HAL_Driver/Src/stm32g4xx_hal_pwr_ex.c ****   *        and the HSE oscillators are disabled. Some peripherals with the wakeup capability
 878:Drivers/STM32G4xx_HAL_Driver/Src/stm32g4xx_hal_pwr_ex.c ****   *        (I2Cx, USARTx and LPUART) can switch on the HSI to receive a frame, and switch off the H
 879:Drivers/STM32G4xx_HAL_Driver/Src/stm32g4xx_hal_pwr_ex.c ****   *        after receiving the frame if it is not a wakeup frame. In this case, the HSI clock is pr
 880:Drivers/STM32G4xx_HAL_Driver/Src/stm32g4xx_hal_pwr_ex.c ****   *        only to the peripheral requesting it.
 881:Drivers/STM32G4xx_HAL_Driver/Src/stm32g4xx_hal_pwr_ex.c ****   *        SRAM1, SRAM2 and register contents are preserved.
 882:Drivers/STM32G4xx_HAL_Driver/Src/stm32g4xx_hal_pwr_ex.c ****   *        The BOR is available.
 883:Drivers/STM32G4xx_HAL_Driver/Src/stm32g4xx_hal_pwr_ex.c ****   * @note  When exiting Stop 0 mode by issuing an interrupt or a wakeup event,
 884:Drivers/STM32G4xx_HAL_Driver/Src/stm32g4xx_hal_pwr_ex.c ****   *         the HSI RC oscillator is selected as system clock if STOPWUCK bit in RCC_CFGR register
 885:Drivers/STM32G4xx_HAL_Driver/Src/stm32g4xx_hal_pwr_ex.c ****   *         is set; the HSI oscillator is selected if STOPWUCK is cleared.
 886:Drivers/STM32G4xx_HAL_Driver/Src/stm32g4xx_hal_pwr_ex.c ****   * @note  By keeping the internal regulator ON during Stop 0 mode, the consumption
 887:Drivers/STM32G4xx_HAL_Driver/Src/stm32g4xx_hal_pwr_ex.c ****   *         is higher although the startup time is reduced.
 888:Drivers/STM32G4xx_HAL_Driver/Src/stm32g4xx_hal_pwr_ex.c ****   * @param STOPEntry  specifies if Stop mode in entered with WFI or WFE instruction.
 889:Drivers/STM32G4xx_HAL_Driver/Src/stm32g4xx_hal_pwr_ex.c ****   *          This parameter can be one of the following values:
 890:Drivers/STM32G4xx_HAL_Driver/Src/stm32g4xx_hal_pwr_ex.c ****   *            @arg @ref PWR_STOPENTRY_WFI  Enter Stop mode with WFI instruction
 891:Drivers/STM32G4xx_HAL_Driver/Src/stm32g4xx_hal_pwr_ex.c ****   *            @arg @ref PWR_STOPENTRY_WFE  Enter Stop mode with WFE instruction
 892:Drivers/STM32G4xx_HAL_Driver/Src/stm32g4xx_hal_pwr_ex.c ****   * @retval None
 893:Drivers/STM32G4xx_HAL_Driver/Src/stm32g4xx_hal_pwr_ex.c ****   */
 894:Drivers/STM32G4xx_HAL_Driver/Src/stm32g4xx_hal_pwr_ex.c **** void HAL_PWREx_EnterSTOP0Mode(uint8_t STOPEntry)
 895:Drivers/STM32G4xx_HAL_Driver/Src/stm32g4xx_hal_pwr_ex.c **** {
 1892              		.loc 1 895 1 is_stmt 1 view -0
 1893              		.cfi_startproc
 1894              		@ args = 0, pretend = 0, frame = 0
 1895              		@ frame_needed = 0, uses_anonymous_args = 0
 1896              		@ link register save eliminated.
 896:Drivers/STM32G4xx_HAL_Driver/Src/stm32g4xx_hal_pwr_ex.c ****   /* Check the parameters */
 897:Drivers/STM32G4xx_HAL_Driver/Src/stm32g4xx_hal_pwr_ex.c ****   assert_param(IS_PWR_STOP_ENTRY(STOPEntry));
 1897              		.loc 1 897 3 view .LVU447
 898:Drivers/STM32G4xx_HAL_Driver/Src/stm32g4xx_hal_pwr_ex.c **** 
 899:Drivers/STM32G4xx_HAL_Driver/Src/stm32g4xx_hal_pwr_ex.c ****   /* Stop 0 mode with Main Regulator */
 900:Drivers/STM32G4xx_HAL_Driver/Src/stm32g4xx_hal_pwr_ex.c ****   MODIFY_REG(PWR->CR1, PWR_CR1_LPMS, PWR_CR1_LPMS_STOP0);
 1898              		.loc 1 900 3 view .LVU448
 1899 0000 0B4A     		ldr	r2, .L167
 1900 0002 1368     		ldr	r3, [r2]
 1901 0004 23F00703 		bic	r3, r3, #7
 1902 0008 1360     		str	r3, [r2]
 901:Drivers/STM32G4xx_HAL_Driver/Src/stm32g4xx_hal_pwr_ex.c **** 
 902:Drivers/STM32G4xx_HAL_Driver/Src/stm32g4xx_hal_pwr_ex.c ****   /* Set SLEEPDEEP bit of Cortex System Control Register */
 903:Drivers/STM32G4xx_HAL_Driver/Src/stm32g4xx_hal_pwr_ex.c ****   SET_BIT(SCB->SCR, ((uint32_t)SCB_SCR_SLEEPDEEP_Msk));
 1903              		.loc 1 903 3 view .LVU449
 1904 000a 0A4A     		ldr	r2, .L167+4
 1905 000c 1369     		ldr	r3, [r2, #16]
 1906 000e 43F00403 		orr	r3, r3, #4
 1907 0012 1361     		str	r3, [r2, #16]
 904:Drivers/STM32G4xx_HAL_Driver/Src/stm32g4xx_hal_pwr_ex.c **** 
 905:Drivers/STM32G4xx_HAL_Driver/Src/stm32g4xx_hal_pwr_ex.c ****   /* Select Stop mode entry --------------------------------------------------*/
 906:Drivers/STM32G4xx_HAL_Driver/Src/stm32g4xx_hal_pwr_ex.c ****   if(STOPEntry == PWR_STOPENTRY_WFI)
 1908              		.loc 1 906 3 view .LVU450
ARM GAS  C:\Users\57308\AppData\Local\Temp\ccqGNF8F.s 			page 52


 1909              		.loc 1 906 5 is_stmt 0 view .LVU451
 1910 0014 0128     		cmp	r0, #1
 1911 0016 08D0     		beq	.L166
 907:Drivers/STM32G4xx_HAL_Driver/Src/stm32g4xx_hal_pwr_ex.c ****   {
 908:Drivers/STM32G4xx_HAL_Driver/Src/stm32g4xx_hal_pwr_ex.c ****     /* Request Wait For Interrupt */
 909:Drivers/STM32G4xx_HAL_Driver/Src/stm32g4xx_hal_pwr_ex.c ****     __WFI();
 910:Drivers/STM32G4xx_HAL_Driver/Src/stm32g4xx_hal_pwr_ex.c ****   }
 911:Drivers/STM32G4xx_HAL_Driver/Src/stm32g4xx_hal_pwr_ex.c ****   else
 912:Drivers/STM32G4xx_HAL_Driver/Src/stm32g4xx_hal_pwr_ex.c ****   {
 913:Drivers/STM32G4xx_HAL_Driver/Src/stm32g4xx_hal_pwr_ex.c ****     /* Request Wait For Event */
 914:Drivers/STM32G4xx_HAL_Driver/Src/stm32g4xx_hal_pwr_ex.c ****     __SEV();
 1912              		.loc 1 914 5 is_stmt 1 view .LVU452
 1913              		.syntax unified
 1914              	@ 914 "Drivers/STM32G4xx_HAL_Driver/Src/stm32g4xx_hal_pwr_ex.c" 1
 1915 0018 40BF     		sev
 1916              	@ 0 "" 2
 915:Drivers/STM32G4xx_HAL_Driver/Src/stm32g4xx_hal_pwr_ex.c ****     __WFE();
 1917              		.loc 1 915 5 view .LVU453
 1918              	@ 915 "Drivers/STM32G4xx_HAL_Driver/Src/stm32g4xx_hal_pwr_ex.c" 1
 1919 001a 20BF     		wfe
 1920              	@ 0 "" 2
 916:Drivers/STM32G4xx_HAL_Driver/Src/stm32g4xx_hal_pwr_ex.c ****     __WFE();
 1921              		.loc 1 916 5 view .LVU454
 1922              	@ 916 "Drivers/STM32G4xx_HAL_Driver/Src/stm32g4xx_hal_pwr_ex.c" 1
 1923 001c 20BF     		wfe
 1924              	@ 0 "" 2
 1925              		.thumb
 1926              		.syntax unified
 1927              	.L165:
 917:Drivers/STM32G4xx_HAL_Driver/Src/stm32g4xx_hal_pwr_ex.c ****   }
 918:Drivers/STM32G4xx_HAL_Driver/Src/stm32g4xx_hal_pwr_ex.c **** 
 919:Drivers/STM32G4xx_HAL_Driver/Src/stm32g4xx_hal_pwr_ex.c ****   /* Reset SLEEPDEEP bit of Cortex System Control Register */
 920:Drivers/STM32G4xx_HAL_Driver/Src/stm32g4xx_hal_pwr_ex.c ****   CLEAR_BIT(SCB->SCR, ((uint32_t)SCB_SCR_SLEEPDEEP_Msk));
 1928              		.loc 1 920 3 view .LVU455
 1929 001e 054A     		ldr	r2, .L167+4
 1930 0020 1369     		ldr	r3, [r2, #16]
 1931 0022 23F00403 		bic	r3, r3, #4
 1932 0026 1361     		str	r3, [r2, #16]
 921:Drivers/STM32G4xx_HAL_Driver/Src/stm32g4xx_hal_pwr_ex.c **** }
 1933              		.loc 1 921 1 is_stmt 0 view .LVU456
 1934 0028 7047     		bx	lr
 1935              	.L166:
 909:Drivers/STM32G4xx_HAL_Driver/Src/stm32g4xx_hal_pwr_ex.c ****   }
 1936              		.loc 1 909 5 is_stmt 1 view .LVU457
 1937              		.syntax unified
 1938              	@ 909 "Drivers/STM32G4xx_HAL_Driver/Src/stm32g4xx_hal_pwr_ex.c" 1
 1939 002a 30BF     		wfi
 1940              	@ 0 "" 2
 1941              		.thumb
 1942              		.syntax unified
 1943 002c F7E7     		b	.L165
 1944              	.L168:
 1945 002e 00BF     		.align	2
 1946              	.L167:
 1947 0030 00700040 		.word	1073770496
 1948 0034 00ED00E0 		.word	-536810240
 1949              		.cfi_endproc
ARM GAS  C:\Users\57308\AppData\Local\Temp\ccqGNF8F.s 			page 53


 1950              	.LFE354:
 1952              		.section	.text.HAL_PWREx_EnterSTOP1Mode,"ax",%progbits
 1953              		.align	1
 1954              		.global	HAL_PWREx_EnterSTOP1Mode
 1955              		.syntax unified
 1956              		.thumb
 1957              		.thumb_func
 1959              	HAL_PWREx_EnterSTOP1Mode:
 1960              	.LVL136:
 1961              	.LFB355:
 922:Drivers/STM32G4xx_HAL_Driver/Src/stm32g4xx_hal_pwr_ex.c **** 
 923:Drivers/STM32G4xx_HAL_Driver/Src/stm32g4xx_hal_pwr_ex.c **** 
 924:Drivers/STM32G4xx_HAL_Driver/Src/stm32g4xx_hal_pwr_ex.c **** /**
 925:Drivers/STM32G4xx_HAL_Driver/Src/stm32g4xx_hal_pwr_ex.c ****   * @brief Enter Stop 1 mode.
 926:Drivers/STM32G4xx_HAL_Driver/Src/stm32g4xx_hal_pwr_ex.c ****   * @note  In Stop 1 mode, only low power voltage regulator is ON.
 927:Drivers/STM32G4xx_HAL_Driver/Src/stm32g4xx_hal_pwr_ex.c ****   * @note  In Stop 1 mode, all I/O pins keep the same state as in Run mode.
 928:Drivers/STM32G4xx_HAL_Driver/Src/stm32g4xx_hal_pwr_ex.c ****   * @note  All clocks in the VCORE domain are stopped; the PLL, the HSI
 929:Drivers/STM32G4xx_HAL_Driver/Src/stm32g4xx_hal_pwr_ex.c ****   *        and the HSE oscillators are disabled. Some peripherals with the wakeup capability
 930:Drivers/STM32G4xx_HAL_Driver/Src/stm32g4xx_hal_pwr_ex.c ****   *        (I2Cx, USARTx and LPUART) can switch on the HSI to receive a frame, and switch off the H
 931:Drivers/STM32G4xx_HAL_Driver/Src/stm32g4xx_hal_pwr_ex.c ****   *        after receiving the frame if it is not a wakeup frame. In this case, the HSI clock is pr
 932:Drivers/STM32G4xx_HAL_Driver/Src/stm32g4xx_hal_pwr_ex.c ****   *        only to the peripheral requesting it.
 933:Drivers/STM32G4xx_HAL_Driver/Src/stm32g4xx_hal_pwr_ex.c ****   *        SRAM1, SRAM2 and register contents are preserved.
 934:Drivers/STM32G4xx_HAL_Driver/Src/stm32g4xx_hal_pwr_ex.c ****   *        The BOR is available.
 935:Drivers/STM32G4xx_HAL_Driver/Src/stm32g4xx_hal_pwr_ex.c ****   * @note  When exiting Stop 1 mode by issuing an interrupt or a wakeup event,
 936:Drivers/STM32G4xx_HAL_Driver/Src/stm32g4xx_hal_pwr_ex.c ****   *         the HSI RC oscillator is selected as system clock if STOPWUCK bit in RCC_CFGR register
 937:Drivers/STM32G4xx_HAL_Driver/Src/stm32g4xx_hal_pwr_ex.c ****   *         is set.
 938:Drivers/STM32G4xx_HAL_Driver/Src/stm32g4xx_hal_pwr_ex.c ****   * @note  Due to low power mode, an additional startup delay is incurred when waking up from Stop 
 939:Drivers/STM32G4xx_HAL_Driver/Src/stm32g4xx_hal_pwr_ex.c ****   * @param STOPEntry  specifies if Stop mode in entered with WFI or WFE instruction.
 940:Drivers/STM32G4xx_HAL_Driver/Src/stm32g4xx_hal_pwr_ex.c ****   *          This parameter can be one of the following values:
 941:Drivers/STM32G4xx_HAL_Driver/Src/stm32g4xx_hal_pwr_ex.c ****   *            @arg @ref PWR_STOPENTRY_WFI  Enter Stop mode with WFI instruction
 942:Drivers/STM32G4xx_HAL_Driver/Src/stm32g4xx_hal_pwr_ex.c ****   *            @arg @ref PWR_STOPENTRY_WFE  Enter Stop mode with WFE instruction
 943:Drivers/STM32G4xx_HAL_Driver/Src/stm32g4xx_hal_pwr_ex.c ****   * @retval None
 944:Drivers/STM32G4xx_HAL_Driver/Src/stm32g4xx_hal_pwr_ex.c ****   */
 945:Drivers/STM32G4xx_HAL_Driver/Src/stm32g4xx_hal_pwr_ex.c **** void HAL_PWREx_EnterSTOP1Mode(uint8_t STOPEntry)
 946:Drivers/STM32G4xx_HAL_Driver/Src/stm32g4xx_hal_pwr_ex.c **** {
 1962              		.loc 1 946 1 view -0
 1963              		.cfi_startproc
 1964              		@ args = 0, pretend = 0, frame = 0
 1965              		@ frame_needed = 0, uses_anonymous_args = 0
 1966              		@ link register save eliminated.
 947:Drivers/STM32G4xx_HAL_Driver/Src/stm32g4xx_hal_pwr_ex.c ****   /* Check the parameters */
 948:Drivers/STM32G4xx_HAL_Driver/Src/stm32g4xx_hal_pwr_ex.c ****   assert_param(IS_PWR_STOP_ENTRY(STOPEntry));
 1967              		.loc 1 948 3 view .LVU459
 949:Drivers/STM32G4xx_HAL_Driver/Src/stm32g4xx_hal_pwr_ex.c **** 
 950:Drivers/STM32G4xx_HAL_Driver/Src/stm32g4xx_hal_pwr_ex.c ****   /* Stop 1 mode with Low-Power Regulator */
 951:Drivers/STM32G4xx_HAL_Driver/Src/stm32g4xx_hal_pwr_ex.c ****   MODIFY_REG(PWR->CR1, PWR_CR1_LPMS, PWR_CR1_LPMS_STOP1);
 1968              		.loc 1 951 3 view .LVU460
 1969 0000 0C4A     		ldr	r2, .L173
 1970 0002 1368     		ldr	r3, [r2]
 1971 0004 23F00703 		bic	r3, r3, #7
 1972 0008 43F00103 		orr	r3, r3, #1
 1973 000c 1360     		str	r3, [r2]
 952:Drivers/STM32G4xx_HAL_Driver/Src/stm32g4xx_hal_pwr_ex.c **** 
 953:Drivers/STM32G4xx_HAL_Driver/Src/stm32g4xx_hal_pwr_ex.c ****   /* Set SLEEPDEEP bit of Cortex System Control Register */
 954:Drivers/STM32G4xx_HAL_Driver/Src/stm32g4xx_hal_pwr_ex.c ****   SET_BIT(SCB->SCR, ((uint32_t)SCB_SCR_SLEEPDEEP_Msk));
 1974              		.loc 1 954 3 view .LVU461
 1975 000e 0A4A     		ldr	r2, .L173+4
ARM GAS  C:\Users\57308\AppData\Local\Temp\ccqGNF8F.s 			page 54


 1976 0010 1369     		ldr	r3, [r2, #16]
 1977 0012 43F00403 		orr	r3, r3, #4
 1978 0016 1361     		str	r3, [r2, #16]
 955:Drivers/STM32G4xx_HAL_Driver/Src/stm32g4xx_hal_pwr_ex.c **** 
 956:Drivers/STM32G4xx_HAL_Driver/Src/stm32g4xx_hal_pwr_ex.c ****   /* Select Stop mode entry --------------------------------------------------*/
 957:Drivers/STM32G4xx_HAL_Driver/Src/stm32g4xx_hal_pwr_ex.c ****   if(STOPEntry == PWR_STOPENTRY_WFI)
 1979              		.loc 1 957 3 view .LVU462
 1980              		.loc 1 957 5 is_stmt 0 view .LVU463
 1981 0018 0128     		cmp	r0, #1
 1982 001a 08D0     		beq	.L172
 958:Drivers/STM32G4xx_HAL_Driver/Src/stm32g4xx_hal_pwr_ex.c ****   {
 959:Drivers/STM32G4xx_HAL_Driver/Src/stm32g4xx_hal_pwr_ex.c ****     /* Request Wait For Interrupt */
 960:Drivers/STM32G4xx_HAL_Driver/Src/stm32g4xx_hal_pwr_ex.c ****     __WFI();
 961:Drivers/STM32G4xx_HAL_Driver/Src/stm32g4xx_hal_pwr_ex.c ****   }
 962:Drivers/STM32G4xx_HAL_Driver/Src/stm32g4xx_hal_pwr_ex.c ****   else
 963:Drivers/STM32G4xx_HAL_Driver/Src/stm32g4xx_hal_pwr_ex.c ****   {
 964:Drivers/STM32G4xx_HAL_Driver/Src/stm32g4xx_hal_pwr_ex.c ****     /* Request Wait For Event */
 965:Drivers/STM32G4xx_HAL_Driver/Src/stm32g4xx_hal_pwr_ex.c ****     __SEV();
 1983              		.loc 1 965 5 is_stmt 1 view .LVU464
 1984              		.syntax unified
 1985              	@ 965 "Drivers/STM32G4xx_HAL_Driver/Src/stm32g4xx_hal_pwr_ex.c" 1
 1986 001c 40BF     		sev
 1987              	@ 0 "" 2
 966:Drivers/STM32G4xx_HAL_Driver/Src/stm32g4xx_hal_pwr_ex.c ****     __WFE();
 1988              		.loc 1 966 5 view .LVU465
 1989              	@ 966 "Drivers/STM32G4xx_HAL_Driver/Src/stm32g4xx_hal_pwr_ex.c" 1
 1990 001e 20BF     		wfe
 1991              	@ 0 "" 2
 967:Drivers/STM32G4xx_HAL_Driver/Src/stm32g4xx_hal_pwr_ex.c ****     __WFE();
 1992              		.loc 1 967 5 view .LVU466
 1993              	@ 967 "Drivers/STM32G4xx_HAL_Driver/Src/stm32g4xx_hal_pwr_ex.c" 1
 1994 0020 20BF     		wfe
 1995              	@ 0 "" 2
 1996              		.thumb
 1997              		.syntax unified
 1998              	.L171:
 968:Drivers/STM32G4xx_HAL_Driver/Src/stm32g4xx_hal_pwr_ex.c ****   }
 969:Drivers/STM32G4xx_HAL_Driver/Src/stm32g4xx_hal_pwr_ex.c **** 
 970:Drivers/STM32G4xx_HAL_Driver/Src/stm32g4xx_hal_pwr_ex.c ****   /* Reset SLEEPDEEP bit of Cortex System Control Register */
 971:Drivers/STM32G4xx_HAL_Driver/Src/stm32g4xx_hal_pwr_ex.c ****   CLEAR_BIT(SCB->SCR, ((uint32_t)SCB_SCR_SLEEPDEEP_Msk));
 1999              		.loc 1 971 3 view .LVU467
 2000 0022 054A     		ldr	r2, .L173+4
 2001 0024 1369     		ldr	r3, [r2, #16]
 2002 0026 23F00403 		bic	r3, r3, #4
 2003 002a 1361     		str	r3, [r2, #16]
 972:Drivers/STM32G4xx_HAL_Driver/Src/stm32g4xx_hal_pwr_ex.c **** }
 2004              		.loc 1 972 1 is_stmt 0 view .LVU468
 2005 002c 7047     		bx	lr
 2006              	.L172:
 960:Drivers/STM32G4xx_HAL_Driver/Src/stm32g4xx_hal_pwr_ex.c ****   }
 2007              		.loc 1 960 5 is_stmt 1 view .LVU469
 2008              		.syntax unified
 2009              	@ 960 "Drivers/STM32G4xx_HAL_Driver/Src/stm32g4xx_hal_pwr_ex.c" 1
 2010 002e 30BF     		wfi
 2011              	@ 0 "" 2
 2012              		.thumb
 2013              		.syntax unified
ARM GAS  C:\Users\57308\AppData\Local\Temp\ccqGNF8F.s 			page 55


 2014 0030 F7E7     		b	.L171
 2015              	.L174:
 2016 0032 00BF     		.align	2
 2017              	.L173:
 2018 0034 00700040 		.word	1073770496
 2019 0038 00ED00E0 		.word	-536810240
 2020              		.cfi_endproc
 2021              	.LFE355:
 2023              		.section	.text.HAL_PWREx_EnterSHUTDOWNMode,"ax",%progbits
 2024              		.align	1
 2025              		.global	HAL_PWREx_EnterSHUTDOWNMode
 2026              		.syntax unified
 2027              		.thumb
 2028              		.thumb_func
 2030              	HAL_PWREx_EnterSHUTDOWNMode:
 2031              	.LFB356:
 973:Drivers/STM32G4xx_HAL_Driver/Src/stm32g4xx_hal_pwr_ex.c **** 
 974:Drivers/STM32G4xx_HAL_Driver/Src/stm32g4xx_hal_pwr_ex.c **** 
 975:Drivers/STM32G4xx_HAL_Driver/Src/stm32g4xx_hal_pwr_ex.c **** 
 976:Drivers/STM32G4xx_HAL_Driver/Src/stm32g4xx_hal_pwr_ex.c **** 
 977:Drivers/STM32G4xx_HAL_Driver/Src/stm32g4xx_hal_pwr_ex.c **** /**
 978:Drivers/STM32G4xx_HAL_Driver/Src/stm32g4xx_hal_pwr_ex.c ****   * @brief Enter Shutdown mode.
 979:Drivers/STM32G4xx_HAL_Driver/Src/stm32g4xx_hal_pwr_ex.c ****   * @note  In Shutdown mode, the PLL, the HSI, the LSI and the HSE oscillators are switched
 980:Drivers/STM32G4xx_HAL_Driver/Src/stm32g4xx_hal_pwr_ex.c ****   *        off. The voltage regulator is disabled and Vcore domain is powered off.
 981:Drivers/STM32G4xx_HAL_Driver/Src/stm32g4xx_hal_pwr_ex.c ****   *        SRAM1, SRAM2 and registers contents are lost except for registers in the Backup domain.
 982:Drivers/STM32G4xx_HAL_Driver/Src/stm32g4xx_hal_pwr_ex.c ****   *        The BOR is not available.
 983:Drivers/STM32G4xx_HAL_Driver/Src/stm32g4xx_hal_pwr_ex.c ****   * @note  The I/Os can be configured either with a pull-up or pull-down or can be kept in analog s
 984:Drivers/STM32G4xx_HAL_Driver/Src/stm32g4xx_hal_pwr_ex.c ****   * @retval None
 985:Drivers/STM32G4xx_HAL_Driver/Src/stm32g4xx_hal_pwr_ex.c ****   */
 986:Drivers/STM32G4xx_HAL_Driver/Src/stm32g4xx_hal_pwr_ex.c **** void HAL_PWREx_EnterSHUTDOWNMode(void)
 987:Drivers/STM32G4xx_HAL_Driver/Src/stm32g4xx_hal_pwr_ex.c **** {
 2032              		.loc 1 987 1 view -0
 2033              		.cfi_startproc
 2034              		@ args = 0, pretend = 0, frame = 0
 2035              		@ frame_needed = 0, uses_anonymous_args = 0
 2036              		@ link register save eliminated.
 988:Drivers/STM32G4xx_HAL_Driver/Src/stm32g4xx_hal_pwr_ex.c **** 
 989:Drivers/STM32G4xx_HAL_Driver/Src/stm32g4xx_hal_pwr_ex.c ****   /* Set Shutdown mode */
 990:Drivers/STM32G4xx_HAL_Driver/Src/stm32g4xx_hal_pwr_ex.c ****   MODIFY_REG(PWR->CR1, PWR_CR1_LPMS, PWR_CR1_LPMS_SHUTDOWN);
 2037              		.loc 1 990 3 view .LVU471
 2038 0000 064A     		ldr	r2, .L176
 2039 0002 1368     		ldr	r3, [r2]
 2040 0004 23F00703 		bic	r3, r3, #7
 2041 0008 43F00403 		orr	r3, r3, #4
 2042 000c 1360     		str	r3, [r2]
 991:Drivers/STM32G4xx_HAL_Driver/Src/stm32g4xx_hal_pwr_ex.c **** 
 992:Drivers/STM32G4xx_HAL_Driver/Src/stm32g4xx_hal_pwr_ex.c ****   /* Set SLEEPDEEP bit of Cortex System Control Register */
 993:Drivers/STM32G4xx_HAL_Driver/Src/stm32g4xx_hal_pwr_ex.c ****   SET_BIT(SCB->SCR, ((uint32_t)SCB_SCR_SLEEPDEEP_Msk));
 2043              		.loc 1 993 3 view .LVU472
 2044 000e 044A     		ldr	r2, .L176+4
 2045 0010 1369     		ldr	r3, [r2, #16]
 2046 0012 43F00403 		orr	r3, r3, #4
 2047 0016 1361     		str	r3, [r2, #16]
 994:Drivers/STM32G4xx_HAL_Driver/Src/stm32g4xx_hal_pwr_ex.c **** 
 995:Drivers/STM32G4xx_HAL_Driver/Src/stm32g4xx_hal_pwr_ex.c **** /* This option is used to ensure that store operations are completed */
 996:Drivers/STM32G4xx_HAL_Driver/Src/stm32g4xx_hal_pwr_ex.c **** #if defined ( __CC_ARM)
 997:Drivers/STM32G4xx_HAL_Driver/Src/stm32g4xx_hal_pwr_ex.c ****   __force_stores();
ARM GAS  C:\Users\57308\AppData\Local\Temp\ccqGNF8F.s 			page 56


 998:Drivers/STM32G4xx_HAL_Driver/Src/stm32g4xx_hal_pwr_ex.c **** #endif
 999:Drivers/STM32G4xx_HAL_Driver/Src/stm32g4xx_hal_pwr_ex.c ****   /* Request Wait For Interrupt */
1000:Drivers/STM32G4xx_HAL_Driver/Src/stm32g4xx_hal_pwr_ex.c ****   __WFI();
 2048              		.loc 1 1000 3 view .LVU473
 2049              		.syntax unified
 2050              	@ 1000 "Drivers/STM32G4xx_HAL_Driver/Src/stm32g4xx_hal_pwr_ex.c" 1
 2051 0018 30BF     		wfi
 2052              	@ 0 "" 2
1001:Drivers/STM32G4xx_HAL_Driver/Src/stm32g4xx_hal_pwr_ex.c **** }
 2053              		.loc 1 1001 1 is_stmt 0 view .LVU474
 2054              		.thumb
 2055              		.syntax unified
 2056 001a 7047     		bx	lr
 2057              	.L177:
 2058              		.align	2
 2059              	.L176:
 2060 001c 00700040 		.word	1073770496
 2061 0020 00ED00E0 		.word	-536810240
 2062              		.cfi_endproc
 2063              	.LFE356:
 2065              		.section	.text.HAL_PWREx_PVM1Callback,"ax",%progbits
 2066              		.align	1
 2067              		.weak	HAL_PWREx_PVM1Callback
 2068              		.syntax unified
 2069              		.thumb
 2070              		.thumb_func
 2072              	HAL_PWREx_PVM1Callback:
 2073              	.LFB358:
1002:Drivers/STM32G4xx_HAL_Driver/Src/stm32g4xx_hal_pwr_ex.c **** 
1003:Drivers/STM32G4xx_HAL_Driver/Src/stm32g4xx_hal_pwr_ex.c **** 
1004:Drivers/STM32G4xx_HAL_Driver/Src/stm32g4xx_hal_pwr_ex.c **** 
1005:Drivers/STM32G4xx_HAL_Driver/Src/stm32g4xx_hal_pwr_ex.c **** 
1006:Drivers/STM32G4xx_HAL_Driver/Src/stm32g4xx_hal_pwr_ex.c **** /**
1007:Drivers/STM32G4xx_HAL_Driver/Src/stm32g4xx_hal_pwr_ex.c ****   * @brief This function handles the PWR PVD/PVMx interrupt request.
1008:Drivers/STM32G4xx_HAL_Driver/Src/stm32g4xx_hal_pwr_ex.c ****   * @note This API should be called under the PVD_PVM_IRQHandler().
1009:Drivers/STM32G4xx_HAL_Driver/Src/stm32g4xx_hal_pwr_ex.c ****   * @retval None
1010:Drivers/STM32G4xx_HAL_Driver/Src/stm32g4xx_hal_pwr_ex.c ****   */
1011:Drivers/STM32G4xx_HAL_Driver/Src/stm32g4xx_hal_pwr_ex.c **** void HAL_PWREx_PVD_PVM_IRQHandler(void)
1012:Drivers/STM32G4xx_HAL_Driver/Src/stm32g4xx_hal_pwr_ex.c **** {
1013:Drivers/STM32G4xx_HAL_Driver/Src/stm32g4xx_hal_pwr_ex.c ****   /* Check PWR exti flag */
1014:Drivers/STM32G4xx_HAL_Driver/Src/stm32g4xx_hal_pwr_ex.c ****   if(__HAL_PWR_PVD_EXTI_GET_FLAG() != 0U)
1015:Drivers/STM32G4xx_HAL_Driver/Src/stm32g4xx_hal_pwr_ex.c ****   {
1016:Drivers/STM32G4xx_HAL_Driver/Src/stm32g4xx_hal_pwr_ex.c ****     /* PWR PVD interrupt user callback */
1017:Drivers/STM32G4xx_HAL_Driver/Src/stm32g4xx_hal_pwr_ex.c ****     HAL_PWR_PVDCallback();
1018:Drivers/STM32G4xx_HAL_Driver/Src/stm32g4xx_hal_pwr_ex.c **** 
1019:Drivers/STM32G4xx_HAL_Driver/Src/stm32g4xx_hal_pwr_ex.c ****     /* Clear PVD exti pending bit */
1020:Drivers/STM32G4xx_HAL_Driver/Src/stm32g4xx_hal_pwr_ex.c ****     __HAL_PWR_PVD_EXTI_CLEAR_FLAG();
1021:Drivers/STM32G4xx_HAL_Driver/Src/stm32g4xx_hal_pwr_ex.c ****   }
1022:Drivers/STM32G4xx_HAL_Driver/Src/stm32g4xx_hal_pwr_ex.c ****   /* Next, successively check PVMx exti flags */
1023:Drivers/STM32G4xx_HAL_Driver/Src/stm32g4xx_hal_pwr_ex.c **** #if defined(PWR_CR2_PVME1)
1024:Drivers/STM32G4xx_HAL_Driver/Src/stm32g4xx_hal_pwr_ex.c ****   if(__HAL_PWR_PVM1_EXTI_GET_FLAG() != 0U)
1025:Drivers/STM32G4xx_HAL_Driver/Src/stm32g4xx_hal_pwr_ex.c ****   {
1026:Drivers/STM32G4xx_HAL_Driver/Src/stm32g4xx_hal_pwr_ex.c ****     /* PWR PVM1 interrupt user callback */
1027:Drivers/STM32G4xx_HAL_Driver/Src/stm32g4xx_hal_pwr_ex.c ****     HAL_PWREx_PVM1Callback();
1028:Drivers/STM32G4xx_HAL_Driver/Src/stm32g4xx_hal_pwr_ex.c **** 
1029:Drivers/STM32G4xx_HAL_Driver/Src/stm32g4xx_hal_pwr_ex.c ****     /* Clear PVM1 exti pending bit */
1030:Drivers/STM32G4xx_HAL_Driver/Src/stm32g4xx_hal_pwr_ex.c ****     __HAL_PWR_PVM1_EXTI_CLEAR_FLAG();
ARM GAS  C:\Users\57308\AppData\Local\Temp\ccqGNF8F.s 			page 57


1031:Drivers/STM32G4xx_HAL_Driver/Src/stm32g4xx_hal_pwr_ex.c ****   }
1032:Drivers/STM32G4xx_HAL_Driver/Src/stm32g4xx_hal_pwr_ex.c **** #endif /* PWR_CR2_PVME1 */
1033:Drivers/STM32G4xx_HAL_Driver/Src/stm32g4xx_hal_pwr_ex.c **** #if defined(PWR_CR2_PVME2)
1034:Drivers/STM32G4xx_HAL_Driver/Src/stm32g4xx_hal_pwr_ex.c ****   if(__HAL_PWR_PVM2_EXTI_GET_FLAG() != 0U)
1035:Drivers/STM32G4xx_HAL_Driver/Src/stm32g4xx_hal_pwr_ex.c ****   {
1036:Drivers/STM32G4xx_HAL_Driver/Src/stm32g4xx_hal_pwr_ex.c ****     /* PWR PVM2 interrupt user callback */
1037:Drivers/STM32G4xx_HAL_Driver/Src/stm32g4xx_hal_pwr_ex.c ****     HAL_PWREx_PVM2Callback();
1038:Drivers/STM32G4xx_HAL_Driver/Src/stm32g4xx_hal_pwr_ex.c **** 
1039:Drivers/STM32G4xx_HAL_Driver/Src/stm32g4xx_hal_pwr_ex.c ****     /* Clear PVM2 exti pending bit */
1040:Drivers/STM32G4xx_HAL_Driver/Src/stm32g4xx_hal_pwr_ex.c ****     __HAL_PWR_PVM2_EXTI_CLEAR_FLAG();
1041:Drivers/STM32G4xx_HAL_Driver/Src/stm32g4xx_hal_pwr_ex.c ****   }
1042:Drivers/STM32G4xx_HAL_Driver/Src/stm32g4xx_hal_pwr_ex.c **** #endif /* PWR_CR2_PVME2 */
1043:Drivers/STM32G4xx_HAL_Driver/Src/stm32g4xx_hal_pwr_ex.c ****   if(__HAL_PWR_PVM3_EXTI_GET_FLAG() != 0U)
1044:Drivers/STM32G4xx_HAL_Driver/Src/stm32g4xx_hal_pwr_ex.c ****   {
1045:Drivers/STM32G4xx_HAL_Driver/Src/stm32g4xx_hal_pwr_ex.c ****     /* PWR PVM3 interrupt user callback */
1046:Drivers/STM32G4xx_HAL_Driver/Src/stm32g4xx_hal_pwr_ex.c ****     HAL_PWREx_PVM3Callback();
1047:Drivers/STM32G4xx_HAL_Driver/Src/stm32g4xx_hal_pwr_ex.c **** 
1048:Drivers/STM32G4xx_HAL_Driver/Src/stm32g4xx_hal_pwr_ex.c ****     /* Clear PVM3 exti pending bit */
1049:Drivers/STM32G4xx_HAL_Driver/Src/stm32g4xx_hal_pwr_ex.c ****     __HAL_PWR_PVM3_EXTI_CLEAR_FLAG();
1050:Drivers/STM32G4xx_HAL_Driver/Src/stm32g4xx_hal_pwr_ex.c ****   }
1051:Drivers/STM32G4xx_HAL_Driver/Src/stm32g4xx_hal_pwr_ex.c ****   if(__HAL_PWR_PVM4_EXTI_GET_FLAG() != 0U)
1052:Drivers/STM32G4xx_HAL_Driver/Src/stm32g4xx_hal_pwr_ex.c ****   {
1053:Drivers/STM32G4xx_HAL_Driver/Src/stm32g4xx_hal_pwr_ex.c ****     /* PWR PVM4 interrupt user callback */
1054:Drivers/STM32G4xx_HAL_Driver/Src/stm32g4xx_hal_pwr_ex.c ****     HAL_PWREx_PVM4Callback();
1055:Drivers/STM32G4xx_HAL_Driver/Src/stm32g4xx_hal_pwr_ex.c **** 
1056:Drivers/STM32G4xx_HAL_Driver/Src/stm32g4xx_hal_pwr_ex.c ****     /* Clear PVM4 exti pending bit */
1057:Drivers/STM32G4xx_HAL_Driver/Src/stm32g4xx_hal_pwr_ex.c ****     __HAL_PWR_PVM4_EXTI_CLEAR_FLAG();
1058:Drivers/STM32G4xx_HAL_Driver/Src/stm32g4xx_hal_pwr_ex.c ****   }
1059:Drivers/STM32G4xx_HAL_Driver/Src/stm32g4xx_hal_pwr_ex.c **** }
1060:Drivers/STM32G4xx_HAL_Driver/Src/stm32g4xx_hal_pwr_ex.c **** 
1061:Drivers/STM32G4xx_HAL_Driver/Src/stm32g4xx_hal_pwr_ex.c **** 
1062:Drivers/STM32G4xx_HAL_Driver/Src/stm32g4xx_hal_pwr_ex.c **** #if defined(PWR_CR2_PVME1)
1063:Drivers/STM32G4xx_HAL_Driver/Src/stm32g4xx_hal_pwr_ex.c **** /**
1064:Drivers/STM32G4xx_HAL_Driver/Src/stm32g4xx_hal_pwr_ex.c ****   * @brief PWR PVM1 interrupt callback
1065:Drivers/STM32G4xx_HAL_Driver/Src/stm32g4xx_hal_pwr_ex.c ****   * @retval None
1066:Drivers/STM32G4xx_HAL_Driver/Src/stm32g4xx_hal_pwr_ex.c ****   */
1067:Drivers/STM32G4xx_HAL_Driver/Src/stm32g4xx_hal_pwr_ex.c **** __weak void HAL_PWREx_PVM1Callback(void)
1068:Drivers/STM32G4xx_HAL_Driver/Src/stm32g4xx_hal_pwr_ex.c **** {
 2074              		.loc 1 1068 1 is_stmt 1 view -0
 2075              		.cfi_startproc
 2076              		@ args = 0, pretend = 0, frame = 0
 2077              		@ frame_needed = 0, uses_anonymous_args = 0
 2078              		@ link register save eliminated.
1069:Drivers/STM32G4xx_HAL_Driver/Src/stm32g4xx_hal_pwr_ex.c ****   /* NOTE : This function should not be modified; when the callback is needed,
1070:Drivers/STM32G4xx_HAL_Driver/Src/stm32g4xx_hal_pwr_ex.c ****             HAL_PWREx_PVM1Callback() API can be implemented in the user file
1071:Drivers/STM32G4xx_HAL_Driver/Src/stm32g4xx_hal_pwr_ex.c ****    */
1072:Drivers/STM32G4xx_HAL_Driver/Src/stm32g4xx_hal_pwr_ex.c **** }
 2079              		.loc 1 1072 1 view .LVU476
 2080 0000 7047     		bx	lr
 2081              		.cfi_endproc
 2082              	.LFE358:
 2084              		.section	.text.HAL_PWREx_PVM2Callback,"ax",%progbits
 2085              		.align	1
 2086              		.weak	HAL_PWREx_PVM2Callback
 2087              		.syntax unified
 2088              		.thumb
 2089              		.thumb_func
ARM GAS  C:\Users\57308\AppData\Local\Temp\ccqGNF8F.s 			page 58


 2091              	HAL_PWREx_PVM2Callback:
 2092              	.LFB359:
1073:Drivers/STM32G4xx_HAL_Driver/Src/stm32g4xx_hal_pwr_ex.c **** #endif /* PWR_CR2_PVME1 */
1074:Drivers/STM32G4xx_HAL_Driver/Src/stm32g4xx_hal_pwr_ex.c **** 
1075:Drivers/STM32G4xx_HAL_Driver/Src/stm32g4xx_hal_pwr_ex.c **** #if defined(PWR_CR2_PVME2)
1076:Drivers/STM32G4xx_HAL_Driver/Src/stm32g4xx_hal_pwr_ex.c **** /**
1077:Drivers/STM32G4xx_HAL_Driver/Src/stm32g4xx_hal_pwr_ex.c ****   * @brief PWR PVM2 interrupt callback
1078:Drivers/STM32G4xx_HAL_Driver/Src/stm32g4xx_hal_pwr_ex.c ****   * @retval None
1079:Drivers/STM32G4xx_HAL_Driver/Src/stm32g4xx_hal_pwr_ex.c ****   */
1080:Drivers/STM32G4xx_HAL_Driver/Src/stm32g4xx_hal_pwr_ex.c **** __weak void HAL_PWREx_PVM2Callback(void)
1081:Drivers/STM32G4xx_HAL_Driver/Src/stm32g4xx_hal_pwr_ex.c **** {
 2093              		.loc 1 1081 1 view -0
 2094              		.cfi_startproc
 2095              		@ args = 0, pretend = 0, frame = 0
 2096              		@ frame_needed = 0, uses_anonymous_args = 0
 2097              		@ link register save eliminated.
1082:Drivers/STM32G4xx_HAL_Driver/Src/stm32g4xx_hal_pwr_ex.c ****   /* NOTE : This function should not be modified; when the callback is needed,
1083:Drivers/STM32G4xx_HAL_Driver/Src/stm32g4xx_hal_pwr_ex.c ****             HAL_PWREx_PVM2Callback() API can be implemented in the user file
1084:Drivers/STM32G4xx_HAL_Driver/Src/stm32g4xx_hal_pwr_ex.c ****    */
1085:Drivers/STM32G4xx_HAL_Driver/Src/stm32g4xx_hal_pwr_ex.c **** }
 2098              		.loc 1 1085 1 view .LVU478
 2099 0000 7047     		bx	lr
 2100              		.cfi_endproc
 2101              	.LFE359:
 2103              		.section	.text.HAL_PWREx_PVM3Callback,"ax",%progbits
 2104              		.align	1
 2105              		.weak	HAL_PWREx_PVM3Callback
 2106              		.syntax unified
 2107              		.thumb
 2108              		.thumb_func
 2110              	HAL_PWREx_PVM3Callback:
 2111              	.LFB360:
1086:Drivers/STM32G4xx_HAL_Driver/Src/stm32g4xx_hal_pwr_ex.c **** #endif /* PWR_CR2_PVME2 */
1087:Drivers/STM32G4xx_HAL_Driver/Src/stm32g4xx_hal_pwr_ex.c **** 
1088:Drivers/STM32G4xx_HAL_Driver/Src/stm32g4xx_hal_pwr_ex.c **** /**
1089:Drivers/STM32G4xx_HAL_Driver/Src/stm32g4xx_hal_pwr_ex.c ****   * @brief PWR PVM3 interrupt callback
1090:Drivers/STM32G4xx_HAL_Driver/Src/stm32g4xx_hal_pwr_ex.c ****   * @retval None
1091:Drivers/STM32G4xx_HAL_Driver/Src/stm32g4xx_hal_pwr_ex.c ****   */
1092:Drivers/STM32G4xx_HAL_Driver/Src/stm32g4xx_hal_pwr_ex.c **** __weak void HAL_PWREx_PVM3Callback(void)
1093:Drivers/STM32G4xx_HAL_Driver/Src/stm32g4xx_hal_pwr_ex.c **** {
 2112              		.loc 1 1093 1 view -0
 2113              		.cfi_startproc
 2114              		@ args = 0, pretend = 0, frame = 0
 2115              		@ frame_needed = 0, uses_anonymous_args = 0
 2116              		@ link register save eliminated.
1094:Drivers/STM32G4xx_HAL_Driver/Src/stm32g4xx_hal_pwr_ex.c ****   /* NOTE : This function should not be modified; when the callback is needed,
1095:Drivers/STM32G4xx_HAL_Driver/Src/stm32g4xx_hal_pwr_ex.c ****             HAL_PWREx_PVM3Callback() API can be implemented in the user file
1096:Drivers/STM32G4xx_HAL_Driver/Src/stm32g4xx_hal_pwr_ex.c ****    */
1097:Drivers/STM32G4xx_HAL_Driver/Src/stm32g4xx_hal_pwr_ex.c **** }
 2117              		.loc 1 1097 1 view .LVU480
 2118 0000 7047     		bx	lr
 2119              		.cfi_endproc
 2120              	.LFE360:
 2122              		.section	.text.HAL_PWREx_PVM4Callback,"ax",%progbits
 2123              		.align	1
 2124              		.weak	HAL_PWREx_PVM4Callback
 2125              		.syntax unified
ARM GAS  C:\Users\57308\AppData\Local\Temp\ccqGNF8F.s 			page 59


 2126              		.thumb
 2127              		.thumb_func
 2129              	HAL_PWREx_PVM4Callback:
 2130              	.LFB361:
1098:Drivers/STM32G4xx_HAL_Driver/Src/stm32g4xx_hal_pwr_ex.c **** 
1099:Drivers/STM32G4xx_HAL_Driver/Src/stm32g4xx_hal_pwr_ex.c **** /**
1100:Drivers/STM32G4xx_HAL_Driver/Src/stm32g4xx_hal_pwr_ex.c ****   * @brief PWR PVM4 interrupt callback
1101:Drivers/STM32G4xx_HAL_Driver/Src/stm32g4xx_hal_pwr_ex.c ****   * @retval None
1102:Drivers/STM32G4xx_HAL_Driver/Src/stm32g4xx_hal_pwr_ex.c ****   */
1103:Drivers/STM32G4xx_HAL_Driver/Src/stm32g4xx_hal_pwr_ex.c **** __weak void HAL_PWREx_PVM4Callback(void)
1104:Drivers/STM32G4xx_HAL_Driver/Src/stm32g4xx_hal_pwr_ex.c **** {
 2131              		.loc 1 1104 1 view -0
 2132              		.cfi_startproc
 2133              		@ args = 0, pretend = 0, frame = 0
 2134              		@ frame_needed = 0, uses_anonymous_args = 0
 2135              		@ link register save eliminated.
1105:Drivers/STM32G4xx_HAL_Driver/Src/stm32g4xx_hal_pwr_ex.c ****   /* NOTE : This function should not be modified; when the callback is needed,
1106:Drivers/STM32G4xx_HAL_Driver/Src/stm32g4xx_hal_pwr_ex.c ****             HAL_PWREx_PVM4Callback() API can be implemented in the user file
1107:Drivers/STM32G4xx_HAL_Driver/Src/stm32g4xx_hal_pwr_ex.c ****    */
1108:Drivers/STM32G4xx_HAL_Driver/Src/stm32g4xx_hal_pwr_ex.c **** }
 2136              		.loc 1 1108 1 view .LVU482
 2137 0000 7047     		bx	lr
 2138              		.cfi_endproc
 2139              	.LFE361:
 2141              		.section	.text.HAL_PWREx_PVD_PVM_IRQHandler,"ax",%progbits
 2142              		.align	1
 2143              		.global	HAL_PWREx_PVD_PVM_IRQHandler
 2144              		.syntax unified
 2145              		.thumb
 2146              		.thumb_func
 2148              	HAL_PWREx_PVD_PVM_IRQHandler:
 2149              	.LFB357:
1012:Drivers/STM32G4xx_HAL_Driver/Src/stm32g4xx_hal_pwr_ex.c ****   /* Check PWR exti flag */
 2150              		.loc 1 1012 1 view -0
 2151              		.cfi_startproc
 2152              		@ args = 0, pretend = 0, frame = 0
 2153              		@ frame_needed = 0, uses_anonymous_args = 0
 2154 0000 08B5     		push	{r3, lr}
 2155              	.LCFI0:
 2156              		.cfi_def_cfa_offset 8
 2157              		.cfi_offset 3, -8
 2158              		.cfi_offset 14, -4
1014:Drivers/STM32G4xx_HAL_Driver/Src/stm32g4xx_hal_pwr_ex.c ****   {
 2159              		.loc 1 1014 3 view .LVU484
1014:Drivers/STM32G4xx_HAL_Driver/Src/stm32g4xx_hal_pwr_ex.c ****   {
 2160              		.loc 1 1014 6 is_stmt 0 view .LVU485
 2161 0002 1C4B     		ldr	r3, .L194
 2162 0004 5B69     		ldr	r3, [r3, #20]
1014:Drivers/STM32G4xx_HAL_Driver/Src/stm32g4xx_hal_pwr_ex.c ****   {
 2163              		.loc 1 1014 5 view .LVU486
 2164 0006 13F4803F 		tst	r3, #65536
 2165 000a 14D1     		bne	.L189
 2166              	.L183:
1024:Drivers/STM32G4xx_HAL_Driver/Src/stm32g4xx_hal_pwr_ex.c ****   {
 2167              		.loc 1 1024 3 is_stmt 1 view .LVU487
1024:Drivers/STM32G4xx_HAL_Driver/Src/stm32g4xx_hal_pwr_ex.c ****   {
 2168              		.loc 1 1024 6 is_stmt 0 view .LVU488
ARM GAS  C:\Users\57308\AppData\Local\Temp\ccqGNF8F.s 			page 60


 2169 000c 194B     		ldr	r3, .L194
 2170 000e 5B6B     		ldr	r3, [r3, #52]
1024:Drivers/STM32G4xx_HAL_Driver/Src/stm32g4xx_hal_pwr_ex.c ****   {
 2171              		.loc 1 1024 5 view .LVU489
 2172 0010 13F0080F 		tst	r3, #8
 2173 0014 16D1     		bne	.L190
 2174              	.L184:
1034:Drivers/STM32G4xx_HAL_Driver/Src/stm32g4xx_hal_pwr_ex.c ****   {
 2175              		.loc 1 1034 3 is_stmt 1 view .LVU490
1034:Drivers/STM32G4xx_HAL_Driver/Src/stm32g4xx_hal_pwr_ex.c ****   {
 2176              		.loc 1 1034 6 is_stmt 0 view .LVU491
 2177 0016 174B     		ldr	r3, .L194
 2178 0018 5B6B     		ldr	r3, [r3, #52]
1034:Drivers/STM32G4xx_HAL_Driver/Src/stm32g4xx_hal_pwr_ex.c ****   {
 2179              		.loc 1 1034 5 view .LVU492
 2180 001a 13F0100F 		tst	r3, #16
 2181 001e 17D1     		bne	.L191
 2182              	.L185:
1043:Drivers/STM32G4xx_HAL_Driver/Src/stm32g4xx_hal_pwr_ex.c ****   {
 2183              		.loc 1 1043 3 is_stmt 1 view .LVU493
1043:Drivers/STM32G4xx_HAL_Driver/Src/stm32g4xx_hal_pwr_ex.c ****   {
 2184              		.loc 1 1043 6 is_stmt 0 view .LVU494
 2185 0020 144B     		ldr	r3, .L194
 2186 0022 5B6B     		ldr	r3, [r3, #52]
1043:Drivers/STM32G4xx_HAL_Driver/Src/stm32g4xx_hal_pwr_ex.c ****   {
 2187              		.loc 1 1043 5 view .LVU495
 2188 0024 13F0200F 		tst	r3, #32
 2189 0028 18D1     		bne	.L192
 2190              	.L186:
1051:Drivers/STM32G4xx_HAL_Driver/Src/stm32g4xx_hal_pwr_ex.c ****   {
 2191              		.loc 1 1051 3 is_stmt 1 view .LVU496
1051:Drivers/STM32G4xx_HAL_Driver/Src/stm32g4xx_hal_pwr_ex.c ****   {
 2192              		.loc 1 1051 6 is_stmt 0 view .LVU497
 2193 002a 124B     		ldr	r3, .L194
 2194 002c 5B6B     		ldr	r3, [r3, #52]
1051:Drivers/STM32G4xx_HAL_Driver/Src/stm32g4xx_hal_pwr_ex.c ****   {
 2195              		.loc 1 1051 5 view .LVU498
 2196 002e 13F0400F 		tst	r3, #64
 2197 0032 19D1     		bne	.L193
 2198              	.L182:
1059:Drivers/STM32G4xx_HAL_Driver/Src/stm32g4xx_hal_pwr_ex.c **** 
 2199              		.loc 1 1059 1 view .LVU499
 2200 0034 08BD     		pop	{r3, pc}
 2201              	.L189:
1017:Drivers/STM32G4xx_HAL_Driver/Src/stm32g4xx_hal_pwr_ex.c **** 
 2202              		.loc 1 1017 5 is_stmt 1 view .LVU500
 2203 0036 FFF7FEFF 		bl	HAL_PWR_PVDCallback
 2204              	.LVL137:
1020:Drivers/STM32G4xx_HAL_Driver/Src/stm32g4xx_hal_pwr_ex.c ****   }
 2205              		.loc 1 1020 5 view .LVU501
 2206 003a 0E4B     		ldr	r3, .L194
 2207 003c 4FF48032 		mov	r2, #65536
 2208 0040 5A61     		str	r2, [r3, #20]
 2209 0042 E3E7     		b	.L183
 2210              	.L190:
1027:Drivers/STM32G4xx_HAL_Driver/Src/stm32g4xx_hal_pwr_ex.c **** 
 2211              		.loc 1 1027 5 view .LVU502
ARM GAS  C:\Users\57308\AppData\Local\Temp\ccqGNF8F.s 			page 61


 2212 0044 FFF7FEFF 		bl	HAL_PWREx_PVM1Callback
 2213              	.LVL138:
1030:Drivers/STM32G4xx_HAL_Driver/Src/stm32g4xx_hal_pwr_ex.c ****   }
 2214              		.loc 1 1030 5 view .LVU503
 2215 0048 0A4B     		ldr	r3, .L194
 2216 004a 0822     		movs	r2, #8
 2217 004c 5A63     		str	r2, [r3, #52]
 2218 004e E2E7     		b	.L184
 2219              	.L191:
1037:Drivers/STM32G4xx_HAL_Driver/Src/stm32g4xx_hal_pwr_ex.c **** 
 2220              		.loc 1 1037 5 view .LVU504
 2221 0050 FFF7FEFF 		bl	HAL_PWREx_PVM2Callback
 2222              	.LVL139:
1040:Drivers/STM32G4xx_HAL_Driver/Src/stm32g4xx_hal_pwr_ex.c ****   }
 2223              		.loc 1 1040 5 view .LVU505
 2224 0054 074B     		ldr	r3, .L194
 2225 0056 1022     		movs	r2, #16
 2226 0058 5A63     		str	r2, [r3, #52]
 2227 005a E1E7     		b	.L185
 2228              	.L192:
1046:Drivers/STM32G4xx_HAL_Driver/Src/stm32g4xx_hal_pwr_ex.c **** 
 2229              		.loc 1 1046 5 view .LVU506
 2230 005c FFF7FEFF 		bl	HAL_PWREx_PVM3Callback
 2231              	.LVL140:
1049:Drivers/STM32G4xx_HAL_Driver/Src/stm32g4xx_hal_pwr_ex.c ****   }
 2232              		.loc 1 1049 5 view .LVU507
 2233 0060 044B     		ldr	r3, .L194
 2234 0062 2022     		movs	r2, #32
 2235 0064 5A63     		str	r2, [r3, #52]
 2236 0066 E0E7     		b	.L186
 2237              	.L193:
1054:Drivers/STM32G4xx_HAL_Driver/Src/stm32g4xx_hal_pwr_ex.c **** 
 2238              		.loc 1 1054 5 view .LVU508
 2239 0068 FFF7FEFF 		bl	HAL_PWREx_PVM4Callback
 2240              	.LVL141:
1057:Drivers/STM32G4xx_HAL_Driver/Src/stm32g4xx_hal_pwr_ex.c ****   }
 2241              		.loc 1 1057 5 view .LVU509
 2242 006c 014B     		ldr	r3, .L194
 2243 006e 4022     		movs	r2, #64
 2244 0070 5A63     		str	r2, [r3, #52]
1059:Drivers/STM32G4xx_HAL_Driver/Src/stm32g4xx_hal_pwr_ex.c **** 
 2245              		.loc 1 1059 1 is_stmt 0 view .LVU510
 2246 0072 DFE7     		b	.L182
 2247              	.L195:
 2248              		.align	2
 2249              	.L194:
 2250 0074 00040140 		.word	1073808384
 2251              		.cfi_endproc
 2252              	.LFE357:
 2254              		.section	.text.HAL_PWREx_EnableUCPDStandbyMode,"ax",%progbits
 2255              		.align	1
 2256              		.global	HAL_PWREx_EnableUCPDStandbyMode
 2257              		.syntax unified
 2258              		.thumb
 2259              		.thumb_func
 2261              	HAL_PWREx_EnableUCPDStandbyMode:
 2262              	.LFB362:
ARM GAS  C:\Users\57308\AppData\Local\Temp\ccqGNF8F.s 			page 62


1109:Drivers/STM32G4xx_HAL_Driver/Src/stm32g4xx_hal_pwr_ex.c **** 
1110:Drivers/STM32G4xx_HAL_Driver/Src/stm32g4xx_hal_pwr_ex.c **** #if defined(PWR_CR3_UCPD_STDBY)
1111:Drivers/STM32G4xx_HAL_Driver/Src/stm32g4xx_hal_pwr_ex.c **** /**
1112:Drivers/STM32G4xx_HAL_Driver/Src/stm32g4xx_hal_pwr_ex.c ****   * @brief Enable UCPD configuration memorization in Standby.
1113:Drivers/STM32G4xx_HAL_Driver/Src/stm32g4xx_hal_pwr_ex.c ****   * @retval None
1114:Drivers/STM32G4xx_HAL_Driver/Src/stm32g4xx_hal_pwr_ex.c ****   */
1115:Drivers/STM32G4xx_HAL_Driver/Src/stm32g4xx_hal_pwr_ex.c **** void HAL_PWREx_EnableUCPDStandbyMode(void)
1116:Drivers/STM32G4xx_HAL_Driver/Src/stm32g4xx_hal_pwr_ex.c **** {
 2263              		.loc 1 1116 1 is_stmt 1 view -0
 2264              		.cfi_startproc
 2265              		@ args = 0, pretend = 0, frame = 0
 2266              		@ frame_needed = 0, uses_anonymous_args = 0
 2267              		@ link register save eliminated.
1117:Drivers/STM32G4xx_HAL_Driver/Src/stm32g4xx_hal_pwr_ex.c ****   /* Memorize UCPD configuration when entering standby mode */
1118:Drivers/STM32G4xx_HAL_Driver/Src/stm32g4xx_hal_pwr_ex.c ****   SET_BIT(PWR->CR3, PWR_CR3_UCPD_STDBY);
 2268              		.loc 1 1118 3 view .LVU512
 2269 0000 024A     		ldr	r2, .L197
 2270 0002 9368     		ldr	r3, [r2, #8]
 2271 0004 43F40053 		orr	r3, r3, #8192
 2272 0008 9360     		str	r3, [r2, #8]
1119:Drivers/STM32G4xx_HAL_Driver/Src/stm32g4xx_hal_pwr_ex.c **** }
 2273              		.loc 1 1119 1 is_stmt 0 view .LVU513
 2274 000a 7047     		bx	lr
 2275              	.L198:
 2276              		.align	2
 2277              	.L197:
 2278 000c 00700040 		.word	1073770496
 2279              		.cfi_endproc
 2280              	.LFE362:
 2282              		.section	.text.HAL_PWREx_DisableUCPDStandbyMode,"ax",%progbits
 2283              		.align	1
 2284              		.global	HAL_PWREx_DisableUCPDStandbyMode
 2285              		.syntax unified
 2286              		.thumb
 2287              		.thumb_func
 2289              	HAL_PWREx_DisableUCPDStandbyMode:
 2290              	.LFB363:
1120:Drivers/STM32G4xx_HAL_Driver/Src/stm32g4xx_hal_pwr_ex.c **** 
1121:Drivers/STM32G4xx_HAL_Driver/Src/stm32g4xx_hal_pwr_ex.c **** /**
1122:Drivers/STM32G4xx_HAL_Driver/Src/stm32g4xx_hal_pwr_ex.c ****   * @brief Disable UCPD configuration memorization in Standby.
1123:Drivers/STM32G4xx_HAL_Driver/Src/stm32g4xx_hal_pwr_ex.c ****   * @note  This function must be called on exiting the Standby mode and before any UCPD
1124:Drivers/STM32G4xx_HAL_Driver/Src/stm32g4xx_hal_pwr_ex.c ****   *        configuration update.
1125:Drivers/STM32G4xx_HAL_Driver/Src/stm32g4xx_hal_pwr_ex.c ****   * @retval None
1126:Drivers/STM32G4xx_HAL_Driver/Src/stm32g4xx_hal_pwr_ex.c ****   */
1127:Drivers/STM32G4xx_HAL_Driver/Src/stm32g4xx_hal_pwr_ex.c **** void HAL_PWREx_DisableUCPDStandbyMode(void)
1128:Drivers/STM32G4xx_HAL_Driver/Src/stm32g4xx_hal_pwr_ex.c **** {
 2291              		.loc 1 1128 1 is_stmt 1 view -0
 2292              		.cfi_startproc
 2293              		@ args = 0, pretend = 0, frame = 0
 2294              		@ frame_needed = 0, uses_anonymous_args = 0
 2295              		@ link register save eliminated.
1129:Drivers/STM32G4xx_HAL_Driver/Src/stm32g4xx_hal_pwr_ex.c ****   /* Write 0 immediately after Standby exit when using UCPD,
1130:Drivers/STM32G4xx_HAL_Driver/Src/stm32g4xx_hal_pwr_ex.c ****      and before writing any UCPD registers */
1131:Drivers/STM32G4xx_HAL_Driver/Src/stm32g4xx_hal_pwr_ex.c ****   CLEAR_BIT(PWR->CR3, PWR_CR3_UCPD_STDBY);
 2296              		.loc 1 1131 3 view .LVU515
 2297 0000 024A     		ldr	r2, .L200
 2298 0002 9368     		ldr	r3, [r2, #8]
ARM GAS  C:\Users\57308\AppData\Local\Temp\ccqGNF8F.s 			page 63


 2299 0004 23F40053 		bic	r3, r3, #8192
 2300 0008 9360     		str	r3, [r2, #8]
1132:Drivers/STM32G4xx_HAL_Driver/Src/stm32g4xx_hal_pwr_ex.c **** }
 2301              		.loc 1 1132 1 is_stmt 0 view .LVU516
 2302 000a 7047     		bx	lr
 2303              	.L201:
 2304              		.align	2
 2305              	.L200:
 2306 000c 00700040 		.word	1073770496
 2307              		.cfi_endproc
 2308              	.LFE363:
 2310              		.section	.text.HAL_PWREx_EnableUCPDDeadBattery,"ax",%progbits
 2311              		.align	1
 2312              		.global	HAL_PWREx_EnableUCPDDeadBattery
 2313              		.syntax unified
 2314              		.thumb
 2315              		.thumb_func
 2317              	HAL_PWREx_EnableUCPDDeadBattery:
 2318              	.LFB364:
1133:Drivers/STM32G4xx_HAL_Driver/Src/stm32g4xx_hal_pwr_ex.c **** #endif /* PWR_CR3_UCPD_STDBY */
1134:Drivers/STM32G4xx_HAL_Driver/Src/stm32g4xx_hal_pwr_ex.c **** 
1135:Drivers/STM32G4xx_HAL_Driver/Src/stm32g4xx_hal_pwr_ex.c **** #if defined(PWR_CR3_UCPD_DBDIS)
1136:Drivers/STM32G4xx_HAL_Driver/Src/stm32g4xx_hal_pwr_ex.c **** /**
1137:Drivers/STM32G4xx_HAL_Driver/Src/stm32g4xx_hal_pwr_ex.c ****   * @brief Enable the USB Type-C dead battery pull-down behavior
1138:Drivers/STM32G4xx_HAL_Driver/Src/stm32g4xx_hal_pwr_ex.c ****   *        on UCPDx_CC1 and UCPDx_CC2 pins
1139:Drivers/STM32G4xx_HAL_Driver/Src/stm32g4xx_hal_pwr_ex.c ****   * @retval None
1140:Drivers/STM32G4xx_HAL_Driver/Src/stm32g4xx_hal_pwr_ex.c ****   */
1141:Drivers/STM32G4xx_HAL_Driver/Src/stm32g4xx_hal_pwr_ex.c **** void HAL_PWREx_EnableUCPDDeadBattery(void)
1142:Drivers/STM32G4xx_HAL_Driver/Src/stm32g4xx_hal_pwr_ex.c **** {
 2319              		.loc 1 1142 1 is_stmt 1 view -0
 2320              		.cfi_startproc
 2321              		@ args = 0, pretend = 0, frame = 0
 2322              		@ frame_needed = 0, uses_anonymous_args = 0
 2323              		@ link register save eliminated.
1143:Drivers/STM32G4xx_HAL_Driver/Src/stm32g4xx_hal_pwr_ex.c ****   /* Write 0 to enable the USB Type-C dead battery pull-down behavior */
1144:Drivers/STM32G4xx_HAL_Driver/Src/stm32g4xx_hal_pwr_ex.c ****   CLEAR_BIT(PWR->CR3, PWR_CR3_UCPD_DBDIS);
 2324              		.loc 1 1144 3 view .LVU518
 2325 0000 024A     		ldr	r2, .L203
 2326 0002 9368     		ldr	r3, [r2, #8]
 2327 0004 23F48043 		bic	r3, r3, #16384
 2328 0008 9360     		str	r3, [r2, #8]
1145:Drivers/STM32G4xx_HAL_Driver/Src/stm32g4xx_hal_pwr_ex.c **** }
 2329              		.loc 1 1145 1 is_stmt 0 view .LVU519
 2330 000a 7047     		bx	lr
 2331              	.L204:
 2332              		.align	2
 2333              	.L203:
 2334 000c 00700040 		.word	1073770496
 2335              		.cfi_endproc
 2336              	.LFE364:
 2338              		.section	.text.HAL_PWREx_DisableUCPDDeadBattery,"ax",%progbits
 2339              		.align	1
 2340              		.global	HAL_PWREx_DisableUCPDDeadBattery
 2341              		.syntax unified
 2342              		.thumb
 2343              		.thumb_func
 2345              	HAL_PWREx_DisableUCPDDeadBattery:
ARM GAS  C:\Users\57308\AppData\Local\Temp\ccqGNF8F.s 			page 64


 2346              	.LFB365:
1146:Drivers/STM32G4xx_HAL_Driver/Src/stm32g4xx_hal_pwr_ex.c **** 
1147:Drivers/STM32G4xx_HAL_Driver/Src/stm32g4xx_hal_pwr_ex.c **** /**
1148:Drivers/STM32G4xx_HAL_Driver/Src/stm32g4xx_hal_pwr_ex.c ****   * @brief Disable the USB Type-C dead battery pull-down behavior
1149:Drivers/STM32G4xx_HAL_Driver/Src/stm32g4xx_hal_pwr_ex.c ****   *        on UCPDx_CC1 and UCPDx_CC2 pins
1150:Drivers/STM32G4xx_HAL_Driver/Src/stm32g4xx_hal_pwr_ex.c ****   * @note After exiting reset, the USB Type-C dead battery behavior will be enabled,
1151:Drivers/STM32G4xx_HAL_Driver/Src/stm32g4xx_hal_pwr_ex.c ****   *       which may have a pull-down effect on CC1 and CC2 pins.
1152:Drivers/STM32G4xx_HAL_Driver/Src/stm32g4xx_hal_pwr_ex.c ****   *       It is recommended to disable it in all cases, either to stop this pull-down
1153:Drivers/STM32G4xx_HAL_Driver/Src/stm32g4xx_hal_pwr_ex.c ****   *       or to hand over control to the UCPD (which should therefore be
1154:Drivers/STM32G4xx_HAL_Driver/Src/stm32g4xx_hal_pwr_ex.c ****   *       initialized before doing the disable).
1155:Drivers/STM32G4xx_HAL_Driver/Src/stm32g4xx_hal_pwr_ex.c ****   * @retval None
1156:Drivers/STM32G4xx_HAL_Driver/Src/stm32g4xx_hal_pwr_ex.c ****   */
1157:Drivers/STM32G4xx_HAL_Driver/Src/stm32g4xx_hal_pwr_ex.c **** void HAL_PWREx_DisableUCPDDeadBattery(void)
1158:Drivers/STM32G4xx_HAL_Driver/Src/stm32g4xx_hal_pwr_ex.c **** {
 2347              		.loc 1 1158 1 is_stmt 1 view -0
 2348              		.cfi_startproc
 2349              		@ args = 0, pretend = 0, frame = 0
 2350              		@ frame_needed = 0, uses_anonymous_args = 0
 2351              		@ link register save eliminated.
1159:Drivers/STM32G4xx_HAL_Driver/Src/stm32g4xx_hal_pwr_ex.c ****   /* Write 1 to disable the USB Type-C dead battery pull-down behavior */
1160:Drivers/STM32G4xx_HAL_Driver/Src/stm32g4xx_hal_pwr_ex.c ****   SET_BIT(PWR->CR3, PWR_CR3_UCPD_DBDIS);
 2352              		.loc 1 1160 3 view .LVU521
 2353 0000 024A     		ldr	r2, .L206
 2354 0002 9368     		ldr	r3, [r2, #8]
 2355 0004 43F48043 		orr	r3, r3, #16384
 2356 0008 9360     		str	r3, [r2, #8]
1161:Drivers/STM32G4xx_HAL_Driver/Src/stm32g4xx_hal_pwr_ex.c **** }
 2357              		.loc 1 1161 1 is_stmt 0 view .LVU522
 2358 000a 7047     		bx	lr
 2359              	.L207:
 2360              		.align	2
 2361              	.L206:
 2362 000c 00700040 		.word	1073770496
 2363              		.cfi_endproc
 2364              	.LFE365:
 2366              		.text
 2367              	.Letext0:
 2368              		.file 2 "d:\\program files\\gcc-arm-none-eabi-10.3-2021.10\\arm-none-eabi\\include\\machine\\_defa
 2369              		.file 3 "d:\\program files\\gcc-arm-none-eabi-10.3-2021.10\\arm-none-eabi\\include\\sys\\_stdint.h
 2370              		.file 4 "Drivers/CMSIS/Include/core_cm4.h"
 2371              		.file 5 "Drivers/CMSIS/Device/ST/STM32G4xx/Include/stm32g431xx.h"
 2372              		.file 6 "Drivers/STM32G4xx_HAL_Driver/Inc/stm32g4xx_hal_def.h"
 2373              		.file 7 "Drivers/STM32G4xx_HAL_Driver/Inc/stm32g4xx_hal_pwr_ex.h"
 2374              		.file 8 "Drivers/CMSIS/Device/ST/STM32G4xx/Include/system_stm32g4xx.h"
 2375              		.file 9 "Drivers/STM32G4xx_HAL_Driver/Inc/stm32g4xx_hal_pwr.h"
ARM GAS  C:\Users\57308\AppData\Local\Temp\ccqGNF8F.s 			page 65

