ARM GAS  C:\Users\57308\AppData\Local\Temp\cc8B5aw1.s 			page 1


   1              		.cpu cortex-m4
   2              		.arch armv7e-m
   3              		.fpu fpv4-sp-d16
   4              		.eabi_attribute 27, 1
   5              		.eabi_attribute 28, 1
   6              		.eabi_attribute 20, 1
   7              		.eabi_attribute 21, 1
   8              		.eabi_attribute 23, 3
   9              		.eabi_attribute 24, 1
  10              		.eabi_attribute 25, 1
  11              		.eabi_attribute 26, 1
  12              		.eabi_attribute 30, 1
  13              		.eabi_attribute 34, 1
  14              		.eabi_attribute 18, 4
  15              		.file	"tim.c"
  16              		.text
  17              	.Ltext0:
  18              		.cfi_sections	.debug_frame
  19              		.section	.text.MX_TIM2_Init,"ax",%progbits
  20              		.align	1
  21              		.global	MX_TIM2_Init
  22              		.syntax unified
  23              		.thumb
  24              		.thumb_func
  26              	MX_TIM2_Init:
  27              	.LFB330:
  28              		.file 1 "Src/tim.c"
   1:Src/tim.c     **** /* USER CODE BEGIN Header */
   2:Src/tim.c     **** /**
   3:Src/tim.c     ****   ******************************************************************************
   4:Src/tim.c     ****   * @file    tim.c
   5:Src/tim.c     ****   * @brief   This file provides code for the configuration
   6:Src/tim.c     ****   *          of the TIM instances.
   7:Src/tim.c     ****   ******************************************************************************
   8:Src/tim.c     ****   * @attention
   9:Src/tim.c     ****   *
  10:Src/tim.c     ****   * Copyright (c) 2023 STMicroelectronics.
  11:Src/tim.c     ****   * All rights reserved.
  12:Src/tim.c     ****   *
  13:Src/tim.c     ****   * This software is licensed under terms that can be found in the LICENSE file
  14:Src/tim.c     ****   * in the root directory of this software component.
  15:Src/tim.c     ****   * If no LICENSE file comes with this software, it is provided AS-IS.
  16:Src/tim.c     ****   *
  17:Src/tim.c     ****   ******************************************************************************
  18:Src/tim.c     ****   */
  19:Src/tim.c     **** /* USER CODE END Header */
  20:Src/tim.c     **** /* Includes ------------------------------------------------------------------*/
  21:Src/tim.c     **** #include "tim.h"
  22:Src/tim.c     **** 
  23:Src/tim.c     **** /* USER CODE BEGIN 0 */
  24:Src/tim.c     **** 
  25:Src/tim.c     **** /* USER CODE END 0 */
  26:Src/tim.c     **** 
  27:Src/tim.c     **** TIM_HandleTypeDef htim1;
  28:Src/tim.c     **** TIM_HandleTypeDef htim2;
  29:Src/tim.c     **** 
  30:Src/tim.c     **** /* TIM1 init function */
ARM GAS  C:\Users\57308\AppData\Local\Temp\cc8B5aw1.s 			page 2


  31:Src/tim.c     **** void MX_TIM1_Init(void)
  32:Src/tim.c     **** {
  33:Src/tim.c     **** 
  34:Src/tim.c     ****   /* USER CODE BEGIN TIM1_Init 0 */
  35:Src/tim.c     **** 
  36:Src/tim.c     ****   /* USER CODE END TIM1_Init 0 */
  37:Src/tim.c     **** 
  38:Src/tim.c     ****   TIM_ClockConfigTypeDef sClockSourceConfig = {0};
  39:Src/tim.c     ****   TIM_MasterConfigTypeDef sMasterConfig = {0};
  40:Src/tim.c     ****   TIM_OC_InitTypeDef sConfigOC = {0};
  41:Src/tim.c     ****   TIM_BreakDeadTimeConfigTypeDef sBreakDeadTimeConfig = {0};
  42:Src/tim.c     **** 
  43:Src/tim.c     ****   /* USER CODE BEGIN TIM1_Init 1 */
  44:Src/tim.c     **** 
  45:Src/tim.c     ****   /* USER CODE END TIM1_Init 1 */
  46:Src/tim.c     ****   htim1.Instance = TIM1;
  47:Src/tim.c     ****   htim1.Init.Prescaler = _PSC-1;
  48:Src/tim.c     ****   htim1.Init.CounterMode = TIM_COUNTERMODE_CENTERALIGNED1;
  49:Src/tim.c     ****   htim1.Init.Period = 8499;
  50:Src/tim.c     ****   htim1.Init.ClockDivision = TIM_CLOCKDIVISION_DIV2;
  51:Src/tim.c     ****   htim1.Init.RepetitionCounter = 0;
  52:Src/tim.c     ****   htim1.Init.AutoReloadPreload = TIM_AUTORELOAD_PRELOAD_DISABLE;
  53:Src/tim.c     ****   if (HAL_TIM_Base_Init(&htim1) != HAL_OK)
  54:Src/tim.c     ****   {
  55:Src/tim.c     ****     Error_Handler();
  56:Src/tim.c     ****   }
  57:Src/tim.c     ****   sClockSourceConfig.ClockSource = TIM_CLOCKSOURCE_INTERNAL;
  58:Src/tim.c     ****   if (HAL_TIM_ConfigClockSource(&htim1, &sClockSourceConfig) != HAL_OK)
  59:Src/tim.c     ****   {
  60:Src/tim.c     ****     Error_Handler();
  61:Src/tim.c     ****   }
  62:Src/tim.c     ****   if (HAL_TIM_PWM_Init(&htim1) != HAL_OK)
  63:Src/tim.c     ****   {
  64:Src/tim.c     ****     Error_Handler();
  65:Src/tim.c     ****   }
  66:Src/tim.c     ****   sMasterConfig.MasterOutputTrigger = TIM_TRGO_RESET;
  67:Src/tim.c     ****   sMasterConfig.MasterOutputTrigger2 = TIM_TRGO2_RESET;
  68:Src/tim.c     ****   sMasterConfig.MasterSlaveMode = TIM_MASTERSLAVEMODE_DISABLE;
  69:Src/tim.c     ****   if (HAL_TIMEx_MasterConfigSynchronization(&htim1, &sMasterConfig) != HAL_OK)
  70:Src/tim.c     ****   {
  71:Src/tim.c     ****     Error_Handler();
  72:Src/tim.c     ****   }
  73:Src/tim.c     ****   sConfigOC.OCMode = TIM_OCMODE_PWM1;
  74:Src/tim.c     ****   sConfigOC.Pulse = 0;
  75:Src/tim.c     ****   sConfigOC.OCPolarity = TIM_OCPOLARITY_HIGH;
  76:Src/tim.c     ****   sConfigOC.OCNPolarity = TIM_OCNPOLARITY_HIGH;
  77:Src/tim.c     ****   sConfigOC.OCFastMode = TIM_OCFAST_DISABLE;
  78:Src/tim.c     ****   sConfigOC.OCIdleState = TIM_OCIDLESTATE_RESET;
  79:Src/tim.c     ****   sConfigOC.OCNIdleState = TIM_OCNIDLESTATE_RESET;
  80:Src/tim.c     ****   if (HAL_TIM_PWM_ConfigChannel(&htim1, &sConfigOC, TIM_CHANNEL_1) != HAL_OK)
  81:Src/tim.c     ****   {
  82:Src/tim.c     ****     Error_Handler();
  83:Src/tim.c     ****   }
  84:Src/tim.c     ****   sConfigOC.Pulse = 1599;
  85:Src/tim.c     ****   if (HAL_TIM_PWM_ConfigChannel(&htim1, &sConfigOC, TIM_CHANNEL_2) != HAL_OK)
  86:Src/tim.c     ****   {
  87:Src/tim.c     ****     Error_Handler();
ARM GAS  C:\Users\57308\AppData\Local\Temp\cc8B5aw1.s 			page 3


  88:Src/tim.c     ****   }
  89:Src/tim.c     ****   sConfigOC.Pulse = 0;
  90:Src/tim.c     ****   if (HAL_TIM_PWM_ConfigChannel(&htim1, &sConfigOC, TIM_CHANNEL_3) != HAL_OK)
  91:Src/tim.c     ****   {
  92:Src/tim.c     ****     Error_Handler();
  93:Src/tim.c     ****   }
  94:Src/tim.c     ****   sConfigOC.Pulse = 1200;
  95:Src/tim.c     ****   if (HAL_TIM_PWM_ConfigChannel(&htim1, &sConfigOC, TIM_CHANNEL_4) != HAL_OK)
  96:Src/tim.c     ****   {
  97:Src/tim.c     ****     Error_Handler();
  98:Src/tim.c     ****   }
  99:Src/tim.c     ****   sBreakDeadTimeConfig.OffStateRunMode = TIM_OSSR_DISABLE;
 100:Src/tim.c     ****   sBreakDeadTimeConfig.OffStateIDLEMode = TIM_OSSI_DISABLE;
 101:Src/tim.c     ****   sBreakDeadTimeConfig.LockLevel = TIM_LOCKLEVEL_OFF;
 102:Src/tim.c     ****   sBreakDeadTimeConfig.DeadTime = 0;
 103:Src/tim.c     ****   sBreakDeadTimeConfig.BreakState = TIM_BREAK_DISABLE;
 104:Src/tim.c     ****   sBreakDeadTimeConfig.BreakPolarity = TIM_BREAKPOLARITY_HIGH;
 105:Src/tim.c     ****   sBreakDeadTimeConfig.BreakFilter = 0;
 106:Src/tim.c     ****   sBreakDeadTimeConfig.BreakAFMode = TIM_BREAK_AFMODE_INPUT;
 107:Src/tim.c     ****   sBreakDeadTimeConfig.Break2State = TIM_BREAK2_DISABLE;
 108:Src/tim.c     ****   sBreakDeadTimeConfig.Break2Polarity = TIM_BREAK2POLARITY_HIGH;
 109:Src/tim.c     ****   sBreakDeadTimeConfig.Break2Filter = 0;
 110:Src/tim.c     ****   sBreakDeadTimeConfig.Break2AFMode = TIM_BREAK_AFMODE_INPUT;
 111:Src/tim.c     ****   sBreakDeadTimeConfig.AutomaticOutput = TIM_AUTOMATICOUTPUT_DISABLE;
 112:Src/tim.c     ****   if (HAL_TIMEx_ConfigBreakDeadTime(&htim1, &sBreakDeadTimeConfig) != HAL_OK)
 113:Src/tim.c     ****   {
 114:Src/tim.c     ****     Error_Handler();
 115:Src/tim.c     ****   }
 116:Src/tim.c     ****   /* USER CODE BEGIN TIM1_Init 2 */
 117:Src/tim.c     **** 
 118:Src/tim.c     ****   /* USER CODE END TIM1_Init 2 */
 119:Src/tim.c     ****   HAL_TIM_MspPostInit(&htim1);
 120:Src/tim.c     **** 
 121:Src/tim.c     **** }
 122:Src/tim.c     **** /* TIM2 init function */
 123:Src/tim.c     **** void MX_TIM2_Init(void)
 124:Src/tim.c     **** {
  29              		.loc 1 124 1 view -0
  30              		.cfi_startproc
  31              		@ args = 0, pretend = 0, frame = 32
  32              		@ frame_needed = 0, uses_anonymous_args = 0
  33 0000 00B5     		push	{lr}
  34              	.LCFI0:
  35              		.cfi_def_cfa_offset 4
  36              		.cfi_offset 14, -4
  37 0002 89B0     		sub	sp, sp, #36
  38              	.LCFI1:
  39              		.cfi_def_cfa_offset 40
 125:Src/tim.c     **** 
 126:Src/tim.c     ****   /* USER CODE BEGIN TIM2_Init 0 */
 127:Src/tim.c     **** 
 128:Src/tim.c     ****   /* USER CODE END TIM2_Init 0 */
 129:Src/tim.c     **** 
 130:Src/tim.c     ****   TIM_ClockConfigTypeDef sClockSourceConfig = {0};
  40              		.loc 1 130 3 view .LVU1
  41              		.loc 1 130 26 is_stmt 0 view .LVU2
  42 0004 0023     		movs	r3, #0
ARM GAS  C:\Users\57308\AppData\Local\Temp\cc8B5aw1.s 			page 4


  43 0006 0493     		str	r3, [sp, #16]
  44 0008 0593     		str	r3, [sp, #20]
  45 000a 0693     		str	r3, [sp, #24]
  46 000c 0793     		str	r3, [sp, #28]
 131:Src/tim.c     ****   TIM_MasterConfigTypeDef sMasterConfig = {0};
  47              		.loc 1 131 3 is_stmt 1 view .LVU3
  48              		.loc 1 131 27 is_stmt 0 view .LVU4
  49 000e 0193     		str	r3, [sp, #4]
  50 0010 0293     		str	r3, [sp, #8]
  51 0012 0393     		str	r3, [sp, #12]
 132:Src/tim.c     **** 
 133:Src/tim.c     ****   /* USER CODE BEGIN TIM2_Init 1 */
 134:Src/tim.c     **** 
 135:Src/tim.c     ****   /* USER CODE END TIM2_Init 1 */
 136:Src/tim.c     ****   htim2.Instance = TIM2;
  52              		.loc 1 136 3 is_stmt 1 view .LVU5
  53              		.loc 1 136 18 is_stmt 0 view .LVU6
  54 0014 1448     		ldr	r0, .L9
  55 0016 4FF08042 		mov	r2, #1073741824
  56 001a 0260     		str	r2, [r0]
 137:Src/tim.c     ****   htim2.Init.Prescaler = 0;
  57              		.loc 1 137 3 is_stmt 1 view .LVU7
  58              		.loc 1 137 24 is_stmt 0 view .LVU8
  59 001c 4360     		str	r3, [r0, #4]
 138:Src/tim.c     ****   htim2.Init.CounterMode = TIM_COUNTERMODE_UP;
  60              		.loc 1 138 3 is_stmt 1 view .LVU9
  61              		.loc 1 138 26 is_stmt 0 view .LVU10
  62 001e 8360     		str	r3, [r0, #8]
 139:Src/tim.c     ****   htim2.Init.Period = 8000;
  63              		.loc 1 139 3 is_stmt 1 view .LVU11
  64              		.loc 1 139 21 is_stmt 0 view .LVU12
  65 0020 4FF4FA52 		mov	r2, #8000
  66 0024 C260     		str	r2, [r0, #12]
 140:Src/tim.c     ****   htim2.Init.ClockDivision = TIM_CLOCKDIVISION_DIV1;
  67              		.loc 1 140 3 is_stmt 1 view .LVU13
  68              		.loc 1 140 28 is_stmt 0 view .LVU14
  69 0026 0361     		str	r3, [r0, #16]
 141:Src/tim.c     ****   htim2.Init.AutoReloadPreload = TIM_AUTORELOAD_PRELOAD_DISABLE;
  70              		.loc 1 141 3 is_stmt 1 view .LVU15
  71              		.loc 1 141 32 is_stmt 0 view .LVU16
  72 0028 8361     		str	r3, [r0, #24]
 142:Src/tim.c     ****   if (HAL_TIM_Base_Init(&htim2) != HAL_OK)
  73              		.loc 1 142 3 is_stmt 1 view .LVU17
  74              		.loc 1 142 7 is_stmt 0 view .LVU18
  75 002a FFF7FEFF 		bl	HAL_TIM_Base_Init
  76              	.LVL0:
  77              		.loc 1 142 6 view .LVU19
  78 002e 90B9     		cbnz	r0, .L6
  79              	.L2:
 143:Src/tim.c     ****   {
 144:Src/tim.c     ****     Error_Handler();
 145:Src/tim.c     ****   }
 146:Src/tim.c     ****   sClockSourceConfig.ClockSource = TIM_CLOCKSOURCE_INTERNAL;
  80              		.loc 1 146 3 is_stmt 1 view .LVU20
  81              		.loc 1 146 34 is_stmt 0 view .LVU21
  82 0030 4FF48053 		mov	r3, #4096
  83 0034 0493     		str	r3, [sp, #16]
ARM GAS  C:\Users\57308\AppData\Local\Temp\cc8B5aw1.s 			page 5


 147:Src/tim.c     ****   if (HAL_TIM_ConfigClockSource(&htim2, &sClockSourceConfig) != HAL_OK)
  84              		.loc 1 147 3 is_stmt 1 view .LVU22
  85              		.loc 1 147 7 is_stmt 0 view .LVU23
  86 0036 04A9     		add	r1, sp, #16
  87 0038 0B48     		ldr	r0, .L9
  88 003a FFF7FEFF 		bl	HAL_TIM_ConfigClockSource
  89              	.LVL1:
  90              		.loc 1 147 6 view .LVU24
  91 003e 68B9     		cbnz	r0, .L7
  92              	.L3:
 148:Src/tim.c     ****   {
 149:Src/tim.c     ****     Error_Handler();
 150:Src/tim.c     ****   }
 151:Src/tim.c     ****   sMasterConfig.MasterOutputTrigger = TIM_TRGO_RESET;
  93              		.loc 1 151 3 is_stmt 1 view .LVU25
  94              		.loc 1 151 37 is_stmt 0 view .LVU26
  95 0040 0023     		movs	r3, #0
  96 0042 0193     		str	r3, [sp, #4]
 152:Src/tim.c     ****   sMasterConfig.MasterSlaveMode = TIM_MASTERSLAVEMODE_DISABLE;
  97              		.loc 1 152 3 is_stmt 1 view .LVU27
  98              		.loc 1 152 33 is_stmt 0 view .LVU28
  99 0044 0393     		str	r3, [sp, #12]
 153:Src/tim.c     ****   if (HAL_TIMEx_MasterConfigSynchronization(&htim2, &sMasterConfig) != HAL_OK)
 100              		.loc 1 153 3 is_stmt 1 view .LVU29
 101              		.loc 1 153 7 is_stmt 0 view .LVU30
 102 0046 01A9     		add	r1, sp, #4
 103 0048 0748     		ldr	r0, .L9
 104 004a FFF7FEFF 		bl	HAL_TIMEx_MasterConfigSynchronization
 105              	.LVL2:
 106              		.loc 1 153 6 view .LVU31
 107 004e 40B9     		cbnz	r0, .L8
 108              	.L1:
 154:Src/tim.c     ****   {
 155:Src/tim.c     ****     Error_Handler();
 156:Src/tim.c     ****   }
 157:Src/tim.c     ****   /* USER CODE BEGIN TIM2_Init 2 */
 158:Src/tim.c     **** 
 159:Src/tim.c     ****   /* USER CODE END TIM2_Init 2 */
 160:Src/tim.c     **** 
 161:Src/tim.c     **** }
 109              		.loc 1 161 1 view .LVU32
 110 0050 09B0     		add	sp, sp, #36
 111              	.LCFI2:
 112              		.cfi_remember_state
 113              		.cfi_def_cfa_offset 4
 114              		@ sp needed
 115 0052 5DF804FB 		ldr	pc, [sp], #4
 116              	.L6:
 117              	.LCFI3:
 118              		.cfi_restore_state
 144:Src/tim.c     ****   }
 119              		.loc 1 144 5 is_stmt 1 view .LVU33
 120 0056 FFF7FEFF 		bl	Error_Handler
 121              	.LVL3:
 122 005a E9E7     		b	.L2
 123              	.L7:
 149:Src/tim.c     ****   }
ARM GAS  C:\Users\57308\AppData\Local\Temp\cc8B5aw1.s 			page 6


 124              		.loc 1 149 5 view .LVU34
 125 005c FFF7FEFF 		bl	Error_Handler
 126              	.LVL4:
 127 0060 EEE7     		b	.L3
 128              	.L8:
 155:Src/tim.c     ****   }
 129              		.loc 1 155 5 view .LVU35
 130 0062 FFF7FEFF 		bl	Error_Handler
 131              	.LVL5:
 132              		.loc 1 161 1 is_stmt 0 view .LVU36
 133 0066 F3E7     		b	.L1
 134              	.L10:
 135              		.align	2
 136              	.L9:
 137 0068 00000000 		.word	.LANCHOR0
 138              		.cfi_endproc
 139              	.LFE330:
 141              		.section	.text.HAL_TIM_Base_MspInit,"ax",%progbits
 142              		.align	1
 143              		.global	HAL_TIM_Base_MspInit
 144              		.syntax unified
 145              		.thumb
 146              		.thumb_func
 148              	HAL_TIM_Base_MspInit:
 149              	.LVL6:
 150              	.LFB331:
 162:Src/tim.c     **** 
 163:Src/tim.c     **** void HAL_TIM_Base_MspInit(TIM_HandleTypeDef* tim_baseHandle)
 164:Src/tim.c     **** {
 151              		.loc 1 164 1 is_stmt 1 view -0
 152              		.cfi_startproc
 153              		@ args = 0, pretend = 0, frame = 8
 154              		@ frame_needed = 0, uses_anonymous_args = 0
 155              		.loc 1 164 1 is_stmt 0 view .LVU38
 156 0000 00B5     		push	{lr}
 157              	.LCFI4:
 158              		.cfi_def_cfa_offset 4
 159              		.cfi_offset 14, -4
 160 0002 83B0     		sub	sp, sp, #12
 161              	.LCFI5:
 162              		.cfi_def_cfa_offset 16
 165:Src/tim.c     **** 
 166:Src/tim.c     ****   if(tim_baseHandle->Instance==TIM1)
 163              		.loc 1 166 3 is_stmt 1 view .LVU39
 164              		.loc 1 166 20 is_stmt 0 view .LVU40
 165 0004 0368     		ldr	r3, [r0]
 166              		.loc 1 166 5 view .LVU41
 167 0006 144A     		ldr	r2, .L17
 168 0008 9342     		cmp	r3, r2
 169 000a 05D0     		beq	.L15
 167:Src/tim.c     ****   {
 168:Src/tim.c     ****   /* USER CODE BEGIN TIM1_MspInit 0 */
 169:Src/tim.c     **** 
 170:Src/tim.c     ****   /* USER CODE END TIM1_MspInit 0 */
 171:Src/tim.c     ****     /* TIM1 clock enable */
 172:Src/tim.c     ****     __HAL_RCC_TIM1_CLK_ENABLE();
 173:Src/tim.c     ****   /* USER CODE BEGIN TIM1_MspInit 1 */
ARM GAS  C:\Users\57308\AppData\Local\Temp\cc8B5aw1.s 			page 7


 174:Src/tim.c     **** 
 175:Src/tim.c     ****   /* USER CODE END TIM1_MspInit 1 */
 176:Src/tim.c     ****   }
 177:Src/tim.c     ****   else if(tim_baseHandle->Instance==TIM2)
 170              		.loc 1 177 8 is_stmt 1 view .LVU42
 171              		.loc 1 177 10 is_stmt 0 view .LVU43
 172 000c B3F1804F 		cmp	r3, #1073741824
 173 0010 0DD0     		beq	.L16
 174              	.LVL7:
 175              	.L11:
 178:Src/tim.c     ****   {
 179:Src/tim.c     ****   /* USER CODE BEGIN TIM2_MspInit 0 */
 180:Src/tim.c     **** 
 181:Src/tim.c     ****   /* USER CODE END TIM2_MspInit 0 */
 182:Src/tim.c     ****     /* TIM2 clock enable */
 183:Src/tim.c     ****     __HAL_RCC_TIM2_CLK_ENABLE();
 184:Src/tim.c     **** 
 185:Src/tim.c     ****     /* TIM2 interrupt Init */
 186:Src/tim.c     ****     HAL_NVIC_SetPriority(TIM2_IRQn, 0, 0);
 187:Src/tim.c     ****     HAL_NVIC_EnableIRQ(TIM2_IRQn);
 188:Src/tim.c     ****   /* USER CODE BEGIN TIM2_MspInit 1 */
 189:Src/tim.c     **** 
 190:Src/tim.c     ****   /* USER CODE END TIM2_MspInit 1 */
 191:Src/tim.c     ****   }
 192:Src/tim.c     **** }
 176              		.loc 1 192 1 view .LVU44
 177 0012 03B0     		add	sp, sp, #12
 178              	.LCFI6:
 179              		.cfi_remember_state
 180              		.cfi_def_cfa_offset 4
 181              		@ sp needed
 182 0014 5DF804FB 		ldr	pc, [sp], #4
 183              	.LVL8:
 184              	.L15:
 185              	.LCFI7:
 186              		.cfi_restore_state
 172:Src/tim.c     ****   /* USER CODE BEGIN TIM1_MspInit 1 */
 187              		.loc 1 172 5 is_stmt 1 view .LVU45
 188              	.LBB2:
 172:Src/tim.c     ****   /* USER CODE BEGIN TIM1_MspInit 1 */
 189              		.loc 1 172 5 view .LVU46
 172:Src/tim.c     ****   /* USER CODE BEGIN TIM1_MspInit 1 */
 190              		.loc 1 172 5 view .LVU47
 191 0018 104B     		ldr	r3, .L17+4
 192 001a 1A6E     		ldr	r2, [r3, #96]
 193 001c 42F40062 		orr	r2, r2, #2048
 194 0020 1A66     		str	r2, [r3, #96]
 172:Src/tim.c     ****   /* USER CODE BEGIN TIM1_MspInit 1 */
 195              		.loc 1 172 5 view .LVU48
 196 0022 1B6E     		ldr	r3, [r3, #96]
 197 0024 03F40063 		and	r3, r3, #2048
 198 0028 0093     		str	r3, [sp]
 172:Src/tim.c     ****   /* USER CODE BEGIN TIM1_MspInit 1 */
 199              		.loc 1 172 5 view .LVU49
 200 002a 009B     		ldr	r3, [sp]
 201              	.LBE2:
 172:Src/tim.c     ****   /* USER CODE BEGIN TIM1_MspInit 1 */
ARM GAS  C:\Users\57308\AppData\Local\Temp\cc8B5aw1.s 			page 8


 202              		.loc 1 172 5 view .LVU50
 203 002c F1E7     		b	.L11
 204              	.L16:
 183:Src/tim.c     **** 
 205              		.loc 1 183 5 view .LVU51
 206              	.LBB3:
 183:Src/tim.c     **** 
 207              		.loc 1 183 5 view .LVU52
 183:Src/tim.c     **** 
 208              		.loc 1 183 5 view .LVU53
 209 002e 03F50433 		add	r3, r3, #135168
 210 0032 9A6D     		ldr	r2, [r3, #88]
 211 0034 42F00102 		orr	r2, r2, #1
 212 0038 9A65     		str	r2, [r3, #88]
 183:Src/tim.c     **** 
 213              		.loc 1 183 5 view .LVU54
 214 003a 9B6D     		ldr	r3, [r3, #88]
 215 003c 03F00103 		and	r3, r3, #1
 216 0040 0193     		str	r3, [sp, #4]
 183:Src/tim.c     **** 
 217              		.loc 1 183 5 view .LVU55
 218 0042 019B     		ldr	r3, [sp, #4]
 219              	.LBE3:
 183:Src/tim.c     **** 
 220              		.loc 1 183 5 view .LVU56
 186:Src/tim.c     ****     HAL_NVIC_EnableIRQ(TIM2_IRQn);
 221              		.loc 1 186 5 view .LVU57
 222 0044 0022     		movs	r2, #0
 223 0046 1146     		mov	r1, r2
 224 0048 1C20     		movs	r0, #28
 225              	.LVL9:
 186:Src/tim.c     ****     HAL_NVIC_EnableIRQ(TIM2_IRQn);
 226              		.loc 1 186 5 is_stmt 0 view .LVU58
 227 004a FFF7FEFF 		bl	HAL_NVIC_SetPriority
 228              	.LVL10:
 187:Src/tim.c     ****   /* USER CODE BEGIN TIM2_MspInit 1 */
 229              		.loc 1 187 5 is_stmt 1 view .LVU59
 230 004e 1C20     		movs	r0, #28
 231 0050 FFF7FEFF 		bl	HAL_NVIC_EnableIRQ
 232              	.LVL11:
 233              		.loc 1 192 1 is_stmt 0 view .LVU60
 234 0054 DDE7     		b	.L11
 235              	.L18:
 236 0056 00BF     		.align	2
 237              	.L17:
 238 0058 002C0140 		.word	1073818624
 239 005c 00100240 		.word	1073876992
 240              		.cfi_endproc
 241              	.LFE331:
 243              		.section	.text.HAL_TIM_MspPostInit,"ax",%progbits
 244              		.align	1
 245              		.global	HAL_TIM_MspPostInit
 246              		.syntax unified
 247              		.thumb
 248              		.thumb_func
 250              	HAL_TIM_MspPostInit:
 251              	.LVL12:
ARM GAS  C:\Users\57308\AppData\Local\Temp\cc8B5aw1.s 			page 9


 252              	.LFB332:
 193:Src/tim.c     **** void HAL_TIM_MspPostInit(TIM_HandleTypeDef* timHandle)
 194:Src/tim.c     **** {
 253              		.loc 1 194 1 is_stmt 1 view -0
 254              		.cfi_startproc
 255              		@ args = 0, pretend = 0, frame = 32
 256              		@ frame_needed = 0, uses_anonymous_args = 0
 257              		.loc 1 194 1 is_stmt 0 view .LVU62
 258 0000 F0B5     		push	{r4, r5, r6, r7, lr}
 259              	.LCFI8:
 260              		.cfi_def_cfa_offset 20
 261              		.cfi_offset 4, -20
 262              		.cfi_offset 5, -16
 263              		.cfi_offset 6, -12
 264              		.cfi_offset 7, -8
 265              		.cfi_offset 14, -4
 266 0002 89B0     		sub	sp, sp, #36
 267              	.LCFI9:
 268              		.cfi_def_cfa_offset 56
 195:Src/tim.c     **** 
 196:Src/tim.c     ****   GPIO_InitTypeDef GPIO_InitStruct = {0};
 269              		.loc 1 196 3 is_stmt 1 view .LVU63
 270              		.loc 1 196 20 is_stmt 0 view .LVU64
 271 0004 0023     		movs	r3, #0
 272 0006 0393     		str	r3, [sp, #12]
 273 0008 0493     		str	r3, [sp, #16]
 274 000a 0593     		str	r3, [sp, #20]
 275 000c 0693     		str	r3, [sp, #24]
 276 000e 0793     		str	r3, [sp, #28]
 197:Src/tim.c     ****   if(timHandle->Instance==TIM1)
 277              		.loc 1 197 3 is_stmt 1 view .LVU65
 278              		.loc 1 197 15 is_stmt 0 view .LVU66
 279 0010 0268     		ldr	r2, [r0]
 280              		.loc 1 197 5 view .LVU67
 281 0012 264B     		ldr	r3, .L23
 282 0014 9A42     		cmp	r2, r3
 283 0016 01D0     		beq	.L22
 284              	.LVL13:
 285              	.L19:
 198:Src/tim.c     ****   {
 199:Src/tim.c     ****   /* USER CODE BEGIN TIM1_MspPostInit 0 */
 200:Src/tim.c     **** 
 201:Src/tim.c     ****   /* USER CODE END TIM1_MspPostInit 0 */
 202:Src/tim.c     **** 
 203:Src/tim.c     ****     __HAL_RCC_GPIOB_CLK_ENABLE();
 204:Src/tim.c     ****     __HAL_RCC_GPIOA_CLK_ENABLE();
 205:Src/tim.c     ****     /**TIM1 GPIO Configuration
 206:Src/tim.c     ****     PB13     ------> TIM1_CH1N
 207:Src/tim.c     ****     PB14     ------> TIM1_CH2N
 208:Src/tim.c     ****     PB15     ------> TIM1_CH3N
 209:Src/tim.c     ****     PA8     ------> TIM1_CH1
 210:Src/tim.c     ****     PA9     ------> TIM1_CH2
 211:Src/tim.c     ****     PA10     ------> TIM1_CH3
 212:Src/tim.c     ****     PA11     ------> TIM1_CH4
 213:Src/tim.c     ****     */
 214:Src/tim.c     ****     GPIO_InitStruct.Pin = GPIO_PIN_13|GPIO_PIN_14;
 215:Src/tim.c     ****     GPIO_InitStruct.Mode = GPIO_MODE_AF_PP;
ARM GAS  C:\Users\57308\AppData\Local\Temp\cc8B5aw1.s 			page 10


 216:Src/tim.c     ****     GPIO_InitStruct.Pull = GPIO_NOPULL;
 217:Src/tim.c     ****     GPIO_InitStruct.Speed = GPIO_SPEED_FREQ_LOW;
 218:Src/tim.c     ****     GPIO_InitStruct.Alternate = GPIO_AF6_TIM1;
 219:Src/tim.c     ****     HAL_GPIO_Init(GPIOB, &GPIO_InitStruct);
 220:Src/tim.c     **** 
 221:Src/tim.c     ****     GPIO_InitStruct.Pin = GPIO_PIN_15;
 222:Src/tim.c     ****     GPIO_InitStruct.Mode = GPIO_MODE_AF_PP;
 223:Src/tim.c     ****     GPIO_InitStruct.Pull = GPIO_NOPULL;
 224:Src/tim.c     ****     GPIO_InitStruct.Speed = GPIO_SPEED_FREQ_LOW;
 225:Src/tim.c     ****     GPIO_InitStruct.Alternate = GPIO_AF4_TIM1;
 226:Src/tim.c     ****     HAL_GPIO_Init(GPIOB, &GPIO_InitStruct);
 227:Src/tim.c     **** 
 228:Src/tim.c     ****     GPIO_InitStruct.Pin = GPIO_PIN_8|GPIO_PIN_9|GPIO_PIN_10;
 229:Src/tim.c     ****     GPIO_InitStruct.Mode = GPIO_MODE_AF_PP;
 230:Src/tim.c     ****     GPIO_InitStruct.Pull = GPIO_NOPULL;
 231:Src/tim.c     ****     GPIO_InitStruct.Speed = GPIO_SPEED_FREQ_LOW;
 232:Src/tim.c     ****     GPIO_InitStruct.Alternate = GPIO_AF6_TIM1;
 233:Src/tim.c     ****     HAL_GPIO_Init(GPIOA, &GPIO_InitStruct);
 234:Src/tim.c     **** 
 235:Src/tim.c     ****     GPIO_InitStruct.Pin = GPIO_PIN_11;
 236:Src/tim.c     ****     GPIO_InitStruct.Mode = GPIO_MODE_AF_PP;
 237:Src/tim.c     ****     GPIO_InitStruct.Pull = GPIO_NOPULL;
 238:Src/tim.c     ****     GPIO_InitStruct.Speed = GPIO_SPEED_FREQ_LOW;
 239:Src/tim.c     ****     GPIO_InitStruct.Alternate = GPIO_AF11_TIM1;
 240:Src/tim.c     ****     HAL_GPIO_Init(GPIOA, &GPIO_InitStruct);
 241:Src/tim.c     **** 
 242:Src/tim.c     ****   /* USER CODE BEGIN TIM1_MspPostInit 1 */
 243:Src/tim.c     **** 
 244:Src/tim.c     ****   /* USER CODE END TIM1_MspPostInit 1 */
 245:Src/tim.c     ****   }
 246:Src/tim.c     **** 
 247:Src/tim.c     **** }
 286              		.loc 1 247 1 view .LVU68
 287 0018 09B0     		add	sp, sp, #36
 288              	.LCFI10:
 289              		.cfi_remember_state
 290              		.cfi_def_cfa_offset 20
 291              		@ sp needed
 292 001a F0BD     		pop	{r4, r5, r6, r7, pc}
 293              	.LVL14:
 294              	.L22:
 295              	.LCFI11:
 296              		.cfi_restore_state
 203:Src/tim.c     ****     __HAL_RCC_GPIOA_CLK_ENABLE();
 297              		.loc 1 203 5 is_stmt 1 view .LVU69
 298              	.LBB4:
 203:Src/tim.c     ****     __HAL_RCC_GPIOA_CLK_ENABLE();
 299              		.loc 1 203 5 view .LVU70
 203:Src/tim.c     ****     __HAL_RCC_GPIOA_CLK_ENABLE();
 300              		.loc 1 203 5 view .LVU71
 301 001c 03F56443 		add	r3, r3, #58368
 302 0020 DA6C     		ldr	r2, [r3, #76]
 303 0022 42F00202 		orr	r2, r2, #2
 304 0026 DA64     		str	r2, [r3, #76]
 203:Src/tim.c     ****     __HAL_RCC_GPIOA_CLK_ENABLE();
 305              		.loc 1 203 5 view .LVU72
 306 0028 DA6C     		ldr	r2, [r3, #76]
ARM GAS  C:\Users\57308\AppData\Local\Temp\cc8B5aw1.s 			page 11


 307 002a 02F00202 		and	r2, r2, #2
 308 002e 0192     		str	r2, [sp, #4]
 203:Src/tim.c     ****     __HAL_RCC_GPIOA_CLK_ENABLE();
 309              		.loc 1 203 5 view .LVU73
 310 0030 019A     		ldr	r2, [sp, #4]
 311              	.LBE4:
 203:Src/tim.c     ****     __HAL_RCC_GPIOA_CLK_ENABLE();
 312              		.loc 1 203 5 view .LVU74
 204:Src/tim.c     ****     /**TIM1 GPIO Configuration
 313              		.loc 1 204 5 view .LVU75
 314              	.LBB5:
 204:Src/tim.c     ****     /**TIM1 GPIO Configuration
 315              		.loc 1 204 5 view .LVU76
 204:Src/tim.c     ****     /**TIM1 GPIO Configuration
 316              		.loc 1 204 5 view .LVU77
 317 0032 DA6C     		ldr	r2, [r3, #76]
 318 0034 42F00102 		orr	r2, r2, #1
 319 0038 DA64     		str	r2, [r3, #76]
 204:Src/tim.c     ****     /**TIM1 GPIO Configuration
 320              		.loc 1 204 5 view .LVU78
 321 003a DB6C     		ldr	r3, [r3, #76]
 322 003c 03F00103 		and	r3, r3, #1
 323 0040 0293     		str	r3, [sp, #8]
 204:Src/tim.c     ****     /**TIM1 GPIO Configuration
 324              		.loc 1 204 5 view .LVU79
 325 0042 029B     		ldr	r3, [sp, #8]
 326              	.LBE5:
 204:Src/tim.c     ****     /**TIM1 GPIO Configuration
 327              		.loc 1 204 5 view .LVU80
 214:Src/tim.c     ****     GPIO_InitStruct.Mode = GPIO_MODE_AF_PP;
 328              		.loc 1 214 5 view .LVU81
 214:Src/tim.c     ****     GPIO_InitStruct.Mode = GPIO_MODE_AF_PP;
 329              		.loc 1 214 25 is_stmt 0 view .LVU82
 330 0044 4FF4C043 		mov	r3, #24576
 331 0048 0393     		str	r3, [sp, #12]
 215:Src/tim.c     ****     GPIO_InitStruct.Pull = GPIO_NOPULL;
 332              		.loc 1 215 5 is_stmt 1 view .LVU83
 215:Src/tim.c     ****     GPIO_InitStruct.Pull = GPIO_NOPULL;
 333              		.loc 1 215 26 is_stmt 0 view .LVU84
 334 004a 0225     		movs	r5, #2
 335 004c 0495     		str	r5, [sp, #16]
 216:Src/tim.c     ****     GPIO_InitStruct.Speed = GPIO_SPEED_FREQ_LOW;
 336              		.loc 1 216 5 is_stmt 1 view .LVU85
 217:Src/tim.c     ****     GPIO_InitStruct.Alternate = GPIO_AF6_TIM1;
 337              		.loc 1 217 5 view .LVU86
 218:Src/tim.c     ****     HAL_GPIO_Init(GPIOB, &GPIO_InitStruct);
 338              		.loc 1 218 5 view .LVU87
 218:Src/tim.c     ****     HAL_GPIO_Init(GPIOB, &GPIO_InitStruct);
 339              		.loc 1 218 31 is_stmt 0 view .LVU88
 340 004e 0626     		movs	r6, #6
 341 0050 0796     		str	r6, [sp, #28]
 219:Src/tim.c     **** 
 342              		.loc 1 219 5 is_stmt 1 view .LVU89
 343 0052 174F     		ldr	r7, .L23+4
 344 0054 03A9     		add	r1, sp, #12
 345 0056 3846     		mov	r0, r7
 346              	.LVL15:
ARM GAS  C:\Users\57308\AppData\Local\Temp\cc8B5aw1.s 			page 12


 219:Src/tim.c     **** 
 347              		.loc 1 219 5 is_stmt 0 view .LVU90
 348 0058 FFF7FEFF 		bl	HAL_GPIO_Init
 349              	.LVL16:
 221:Src/tim.c     ****     GPIO_InitStruct.Mode = GPIO_MODE_AF_PP;
 350              		.loc 1 221 5 is_stmt 1 view .LVU91
 221:Src/tim.c     ****     GPIO_InitStruct.Mode = GPIO_MODE_AF_PP;
 351              		.loc 1 221 25 is_stmt 0 view .LVU92
 352 005c 4FF40043 		mov	r3, #32768
 353 0060 0393     		str	r3, [sp, #12]
 222:Src/tim.c     ****     GPIO_InitStruct.Pull = GPIO_NOPULL;
 354              		.loc 1 222 5 is_stmt 1 view .LVU93
 222:Src/tim.c     ****     GPIO_InitStruct.Pull = GPIO_NOPULL;
 355              		.loc 1 222 26 is_stmt 0 view .LVU94
 356 0062 0495     		str	r5, [sp, #16]
 223:Src/tim.c     ****     GPIO_InitStruct.Speed = GPIO_SPEED_FREQ_LOW;
 357              		.loc 1 223 5 is_stmt 1 view .LVU95
 223:Src/tim.c     ****     GPIO_InitStruct.Speed = GPIO_SPEED_FREQ_LOW;
 358              		.loc 1 223 26 is_stmt 0 view .LVU96
 359 0064 0024     		movs	r4, #0
 360 0066 0594     		str	r4, [sp, #20]
 224:Src/tim.c     ****     GPIO_InitStruct.Alternate = GPIO_AF4_TIM1;
 361              		.loc 1 224 5 is_stmt 1 view .LVU97
 224:Src/tim.c     ****     GPIO_InitStruct.Alternate = GPIO_AF4_TIM1;
 362              		.loc 1 224 27 is_stmt 0 view .LVU98
 363 0068 0694     		str	r4, [sp, #24]
 225:Src/tim.c     ****     HAL_GPIO_Init(GPIOB, &GPIO_InitStruct);
 364              		.loc 1 225 5 is_stmt 1 view .LVU99
 225:Src/tim.c     ****     HAL_GPIO_Init(GPIOB, &GPIO_InitStruct);
 365              		.loc 1 225 31 is_stmt 0 view .LVU100
 366 006a 0423     		movs	r3, #4
 367 006c 0793     		str	r3, [sp, #28]
 226:Src/tim.c     **** 
 368              		.loc 1 226 5 is_stmt 1 view .LVU101
 369 006e 03A9     		add	r1, sp, #12
 370 0070 3846     		mov	r0, r7
 371 0072 FFF7FEFF 		bl	HAL_GPIO_Init
 372              	.LVL17:
 228:Src/tim.c     ****     GPIO_InitStruct.Mode = GPIO_MODE_AF_PP;
 373              		.loc 1 228 5 view .LVU102
 228:Src/tim.c     ****     GPIO_InitStruct.Mode = GPIO_MODE_AF_PP;
 374              		.loc 1 228 25 is_stmt 0 view .LVU103
 375 0076 4FF4E063 		mov	r3, #1792
 376 007a 0393     		str	r3, [sp, #12]
 229:Src/tim.c     ****     GPIO_InitStruct.Pull = GPIO_NOPULL;
 377              		.loc 1 229 5 is_stmt 1 view .LVU104
 229:Src/tim.c     ****     GPIO_InitStruct.Pull = GPIO_NOPULL;
 378              		.loc 1 229 26 is_stmt 0 view .LVU105
 379 007c 0495     		str	r5, [sp, #16]
 230:Src/tim.c     ****     GPIO_InitStruct.Speed = GPIO_SPEED_FREQ_LOW;
 380              		.loc 1 230 5 is_stmt 1 view .LVU106
 230:Src/tim.c     ****     GPIO_InitStruct.Speed = GPIO_SPEED_FREQ_LOW;
 381              		.loc 1 230 26 is_stmt 0 view .LVU107
 382 007e 0594     		str	r4, [sp, #20]
 231:Src/tim.c     ****     GPIO_InitStruct.Alternate = GPIO_AF6_TIM1;
 383              		.loc 1 231 5 is_stmt 1 view .LVU108
 231:Src/tim.c     ****     GPIO_InitStruct.Alternate = GPIO_AF6_TIM1;
ARM GAS  C:\Users\57308\AppData\Local\Temp\cc8B5aw1.s 			page 13


 384              		.loc 1 231 27 is_stmt 0 view .LVU109
 385 0080 0694     		str	r4, [sp, #24]
 232:Src/tim.c     ****     HAL_GPIO_Init(GPIOA, &GPIO_InitStruct);
 386              		.loc 1 232 5 is_stmt 1 view .LVU110
 232:Src/tim.c     ****     HAL_GPIO_Init(GPIOA, &GPIO_InitStruct);
 387              		.loc 1 232 31 is_stmt 0 view .LVU111
 388 0082 0796     		str	r6, [sp, #28]
 233:Src/tim.c     **** 
 389              		.loc 1 233 5 is_stmt 1 view .LVU112
 390 0084 03A9     		add	r1, sp, #12
 391 0086 4FF09040 		mov	r0, #1207959552
 392 008a FFF7FEFF 		bl	HAL_GPIO_Init
 393              	.LVL18:
 235:Src/tim.c     ****     GPIO_InitStruct.Mode = GPIO_MODE_AF_PP;
 394              		.loc 1 235 5 view .LVU113
 235:Src/tim.c     ****     GPIO_InitStruct.Mode = GPIO_MODE_AF_PP;
 395              		.loc 1 235 25 is_stmt 0 view .LVU114
 396 008e 4FF40063 		mov	r3, #2048
 397 0092 0393     		str	r3, [sp, #12]
 236:Src/tim.c     ****     GPIO_InitStruct.Pull = GPIO_NOPULL;
 398              		.loc 1 236 5 is_stmt 1 view .LVU115
 236:Src/tim.c     ****     GPIO_InitStruct.Pull = GPIO_NOPULL;
 399              		.loc 1 236 26 is_stmt 0 view .LVU116
 400 0094 0495     		str	r5, [sp, #16]
 237:Src/tim.c     ****     GPIO_InitStruct.Speed = GPIO_SPEED_FREQ_LOW;
 401              		.loc 1 237 5 is_stmt 1 view .LVU117
 237:Src/tim.c     ****     GPIO_InitStruct.Speed = GPIO_SPEED_FREQ_LOW;
 402              		.loc 1 237 26 is_stmt 0 view .LVU118
 403 0096 0594     		str	r4, [sp, #20]
 238:Src/tim.c     ****     GPIO_InitStruct.Alternate = GPIO_AF11_TIM1;
 404              		.loc 1 238 5 is_stmt 1 view .LVU119
 238:Src/tim.c     ****     GPIO_InitStruct.Alternate = GPIO_AF11_TIM1;
 405              		.loc 1 238 27 is_stmt 0 view .LVU120
 406 0098 0694     		str	r4, [sp, #24]
 239:Src/tim.c     ****     HAL_GPIO_Init(GPIOA, &GPIO_InitStruct);
 407              		.loc 1 239 5 is_stmt 1 view .LVU121
 239:Src/tim.c     ****     HAL_GPIO_Init(GPIOA, &GPIO_InitStruct);
 408              		.loc 1 239 31 is_stmt 0 view .LVU122
 409 009a 0B23     		movs	r3, #11
 410 009c 0793     		str	r3, [sp, #28]
 240:Src/tim.c     **** 
 411              		.loc 1 240 5 is_stmt 1 view .LVU123
 412 009e 03A9     		add	r1, sp, #12
 413 00a0 4FF09040 		mov	r0, #1207959552
 414 00a4 FFF7FEFF 		bl	HAL_GPIO_Init
 415              	.LVL19:
 416              		.loc 1 247 1 is_stmt 0 view .LVU124
 417 00a8 B6E7     		b	.L19
 418              	.L24:
 419 00aa 00BF     		.align	2
 420              	.L23:
 421 00ac 002C0140 		.word	1073818624
 422 00b0 00040048 		.word	1207960576
 423              		.cfi_endproc
 424              	.LFE332:
 426              		.section	.text.MX_TIM1_Init,"ax",%progbits
 427              		.align	1
ARM GAS  C:\Users\57308\AppData\Local\Temp\cc8B5aw1.s 			page 14


 428              		.global	MX_TIM1_Init
 429              		.syntax unified
 430              		.thumb
 431              		.thumb_func
 433              	MX_TIM1_Init:
 434              	.LFB329:
  32:Src/tim.c     **** 
 435              		.loc 1 32 1 is_stmt 1 view -0
 436              		.cfi_startproc
 437              		@ args = 0, pretend = 0, frame = 112
 438              		@ frame_needed = 0, uses_anonymous_args = 0
 439 0000 10B5     		push	{r4, lr}
 440              	.LCFI12:
 441              		.cfi_def_cfa_offset 8
 442              		.cfi_offset 4, -8
 443              		.cfi_offset 14, -4
 444 0002 9CB0     		sub	sp, sp, #112
 445              	.LCFI13:
 446              		.cfi_def_cfa_offset 120
  38:Src/tim.c     ****   TIM_MasterConfigTypeDef sMasterConfig = {0};
 447              		.loc 1 38 3 view .LVU126
  38:Src/tim.c     ****   TIM_MasterConfigTypeDef sMasterConfig = {0};
 448              		.loc 1 38 26 is_stmt 0 view .LVU127
 449 0004 0024     		movs	r4, #0
 450 0006 1894     		str	r4, [sp, #96]
 451 0008 1994     		str	r4, [sp, #100]
 452 000a 1A94     		str	r4, [sp, #104]
 453 000c 1B94     		str	r4, [sp, #108]
  39:Src/tim.c     ****   TIM_OC_InitTypeDef sConfigOC = {0};
 454              		.loc 1 39 3 is_stmt 1 view .LVU128
  39:Src/tim.c     ****   TIM_OC_InitTypeDef sConfigOC = {0};
 455              		.loc 1 39 27 is_stmt 0 view .LVU129
 456 000e 1594     		str	r4, [sp, #84]
 457 0010 1694     		str	r4, [sp, #88]
 458 0012 1794     		str	r4, [sp, #92]
  40:Src/tim.c     ****   TIM_BreakDeadTimeConfigTypeDef sBreakDeadTimeConfig = {0};
 459              		.loc 1 40 3 is_stmt 1 view .LVU130
  40:Src/tim.c     ****   TIM_BreakDeadTimeConfigTypeDef sBreakDeadTimeConfig = {0};
 460              		.loc 1 40 22 is_stmt 0 view .LVU131
 461 0014 0E94     		str	r4, [sp, #56]
 462 0016 0F94     		str	r4, [sp, #60]
 463 0018 1094     		str	r4, [sp, #64]
 464 001a 1194     		str	r4, [sp, #68]
 465 001c 1294     		str	r4, [sp, #72]
 466 001e 1394     		str	r4, [sp, #76]
 467 0020 1494     		str	r4, [sp, #80]
  41:Src/tim.c     **** 
 468              		.loc 1 41 3 is_stmt 1 view .LVU132
  41:Src/tim.c     **** 
 469              		.loc 1 41 34 is_stmt 0 view .LVU133
 470 0022 3422     		movs	r2, #52
 471 0024 2146     		mov	r1, r4
 472 0026 01A8     		add	r0, sp, #4
 473 0028 FFF7FEFF 		bl	memset
 474              	.LVL20:
  46:Src/tim.c     ****   htim1.Init.Prescaler = _PSC-1;
 475              		.loc 1 46 3 is_stmt 1 view .LVU134
ARM GAS  C:\Users\57308\AppData\Local\Temp\cc8B5aw1.s 			page 15


  46:Src/tim.c     ****   htim1.Init.Prescaler = _PSC-1;
 476              		.loc 1 46 18 is_stmt 0 view .LVU135
 477 002c 4648     		ldr	r0, .L45
 478 002e 474B     		ldr	r3, .L45+4
 479 0030 0360     		str	r3, [r0]
  47:Src/tim.c     ****   htim1.Init.CounterMode = TIM_COUNTERMODE_CENTERALIGNED1;
 480              		.loc 1 47 3 is_stmt 1 view .LVU136
  47:Src/tim.c     ****   htim1.Init.CounterMode = TIM_COUNTERMODE_CENTERALIGNED1;
 481              		.loc 1 47 24 is_stmt 0 view .LVU137
 482 0032 4460     		str	r4, [r0, #4]
  48:Src/tim.c     ****   htim1.Init.Period = 8499;
 483              		.loc 1 48 3 is_stmt 1 view .LVU138
  48:Src/tim.c     ****   htim1.Init.Period = 8499;
 484              		.loc 1 48 26 is_stmt 0 view .LVU139
 485 0034 2023     		movs	r3, #32
 486 0036 8360     		str	r3, [r0, #8]
  49:Src/tim.c     ****   htim1.Init.ClockDivision = TIM_CLOCKDIVISION_DIV2;
 487              		.loc 1 49 3 is_stmt 1 view .LVU140
  49:Src/tim.c     ****   htim1.Init.ClockDivision = TIM_CLOCKDIVISION_DIV2;
 488              		.loc 1 49 21 is_stmt 0 view .LVU141
 489 0038 42F23313 		movw	r3, #8499
 490 003c C360     		str	r3, [r0, #12]
  50:Src/tim.c     ****   htim1.Init.RepetitionCounter = 0;
 491              		.loc 1 50 3 is_stmt 1 view .LVU142
  50:Src/tim.c     ****   htim1.Init.RepetitionCounter = 0;
 492              		.loc 1 50 28 is_stmt 0 view .LVU143
 493 003e 4FF48073 		mov	r3, #256
 494 0042 0361     		str	r3, [r0, #16]
  51:Src/tim.c     ****   htim1.Init.AutoReloadPreload = TIM_AUTORELOAD_PRELOAD_DISABLE;
 495              		.loc 1 51 3 is_stmt 1 view .LVU144
  51:Src/tim.c     ****   htim1.Init.AutoReloadPreload = TIM_AUTORELOAD_PRELOAD_DISABLE;
 496              		.loc 1 51 32 is_stmt 0 view .LVU145
 497 0044 4461     		str	r4, [r0, #20]
  52:Src/tim.c     ****   if (HAL_TIM_Base_Init(&htim1) != HAL_OK)
 498              		.loc 1 52 3 is_stmt 1 view .LVU146
  52:Src/tim.c     ****   if (HAL_TIM_Base_Init(&htim1) != HAL_OK)
 499              		.loc 1 52 32 is_stmt 0 view .LVU147
 500 0046 8461     		str	r4, [r0, #24]
  53:Src/tim.c     ****   {
 501              		.loc 1 53 3 is_stmt 1 view .LVU148
  53:Src/tim.c     ****   {
 502              		.loc 1 53 7 is_stmt 0 view .LVU149
 503 0048 FFF7FEFF 		bl	HAL_TIM_Base_Init
 504              	.LVL21:
  53:Src/tim.c     ****   {
 505              		.loc 1 53 6 view .LVU150
 506 004c 0028     		cmp	r0, #0
 507 004e 5FD1     		bne	.L36
 508              	.L26:
  57:Src/tim.c     ****   if (HAL_TIM_ConfigClockSource(&htim1, &sClockSourceConfig) != HAL_OK)
 509              		.loc 1 57 3 is_stmt 1 view .LVU151
  57:Src/tim.c     ****   if (HAL_TIM_ConfigClockSource(&htim1, &sClockSourceConfig) != HAL_OK)
 510              		.loc 1 57 34 is_stmt 0 view .LVU152
 511 0050 4FF48053 		mov	r3, #4096
 512 0054 1893     		str	r3, [sp, #96]
  58:Src/tim.c     ****   {
 513              		.loc 1 58 3 is_stmt 1 view .LVU153
ARM GAS  C:\Users\57308\AppData\Local\Temp\cc8B5aw1.s 			page 16


  58:Src/tim.c     ****   {
 514              		.loc 1 58 7 is_stmt 0 view .LVU154
 515 0056 18A9     		add	r1, sp, #96
 516 0058 3B48     		ldr	r0, .L45
 517 005a FFF7FEFF 		bl	HAL_TIM_ConfigClockSource
 518              	.LVL22:
  58:Src/tim.c     ****   {
 519              		.loc 1 58 6 view .LVU155
 520 005e 0028     		cmp	r0, #0
 521 0060 59D1     		bne	.L37
 522              	.L27:
  62:Src/tim.c     ****   {
 523              		.loc 1 62 3 is_stmt 1 view .LVU156
  62:Src/tim.c     ****   {
 524              		.loc 1 62 7 is_stmt 0 view .LVU157
 525 0062 3948     		ldr	r0, .L45
 526 0064 FFF7FEFF 		bl	HAL_TIM_PWM_Init
 527              	.LVL23:
  62:Src/tim.c     ****   {
 528              		.loc 1 62 6 view .LVU158
 529 0068 0028     		cmp	r0, #0
 530 006a 57D1     		bne	.L38
 531              	.L28:
  66:Src/tim.c     ****   sMasterConfig.MasterOutputTrigger2 = TIM_TRGO2_RESET;
 532              		.loc 1 66 3 is_stmt 1 view .LVU159
  66:Src/tim.c     ****   sMasterConfig.MasterOutputTrigger2 = TIM_TRGO2_RESET;
 533              		.loc 1 66 37 is_stmt 0 view .LVU160
 534 006c 0023     		movs	r3, #0
 535 006e 1593     		str	r3, [sp, #84]
  67:Src/tim.c     ****   sMasterConfig.MasterSlaveMode = TIM_MASTERSLAVEMODE_DISABLE;
 536              		.loc 1 67 3 is_stmt 1 view .LVU161
  67:Src/tim.c     ****   sMasterConfig.MasterSlaveMode = TIM_MASTERSLAVEMODE_DISABLE;
 537              		.loc 1 67 38 is_stmt 0 view .LVU162
 538 0070 1693     		str	r3, [sp, #88]
  68:Src/tim.c     ****   if (HAL_TIMEx_MasterConfigSynchronization(&htim1, &sMasterConfig) != HAL_OK)
 539              		.loc 1 68 3 is_stmt 1 view .LVU163
  68:Src/tim.c     ****   if (HAL_TIMEx_MasterConfigSynchronization(&htim1, &sMasterConfig) != HAL_OK)
 540              		.loc 1 68 33 is_stmt 0 view .LVU164
 541 0072 1793     		str	r3, [sp, #92]
  69:Src/tim.c     ****   {
 542              		.loc 1 69 3 is_stmt 1 view .LVU165
  69:Src/tim.c     ****   {
 543              		.loc 1 69 7 is_stmt 0 view .LVU166
 544 0074 15A9     		add	r1, sp, #84
 545 0076 3448     		ldr	r0, .L45
 546 0078 FFF7FEFF 		bl	HAL_TIMEx_MasterConfigSynchronization
 547              	.LVL24:
  69:Src/tim.c     ****   {
 548              		.loc 1 69 6 view .LVU167
 549 007c 0028     		cmp	r0, #0
 550 007e 50D1     		bne	.L39
 551              	.L29:
  73:Src/tim.c     ****   sConfigOC.Pulse = 0;
 552              		.loc 1 73 3 is_stmt 1 view .LVU168
  73:Src/tim.c     ****   sConfigOC.Pulse = 0;
 553              		.loc 1 73 20 is_stmt 0 view .LVU169
 554 0080 6023     		movs	r3, #96
ARM GAS  C:\Users\57308\AppData\Local\Temp\cc8B5aw1.s 			page 17


 555 0082 0E93     		str	r3, [sp, #56]
  74:Src/tim.c     ****   sConfigOC.OCPolarity = TIM_OCPOLARITY_HIGH;
 556              		.loc 1 74 3 is_stmt 1 view .LVU170
  74:Src/tim.c     ****   sConfigOC.OCPolarity = TIM_OCPOLARITY_HIGH;
 557              		.loc 1 74 19 is_stmt 0 view .LVU171
 558 0084 0022     		movs	r2, #0
 559 0086 0F92     		str	r2, [sp, #60]
  75:Src/tim.c     ****   sConfigOC.OCNPolarity = TIM_OCNPOLARITY_HIGH;
 560              		.loc 1 75 3 is_stmt 1 view .LVU172
  75:Src/tim.c     ****   sConfigOC.OCNPolarity = TIM_OCNPOLARITY_HIGH;
 561              		.loc 1 75 24 is_stmt 0 view .LVU173
 562 0088 1092     		str	r2, [sp, #64]
  76:Src/tim.c     ****   sConfigOC.OCFastMode = TIM_OCFAST_DISABLE;
 563              		.loc 1 76 3 is_stmt 1 view .LVU174
  76:Src/tim.c     ****   sConfigOC.OCFastMode = TIM_OCFAST_DISABLE;
 564              		.loc 1 76 25 is_stmt 0 view .LVU175
 565 008a 1192     		str	r2, [sp, #68]
  77:Src/tim.c     ****   sConfigOC.OCIdleState = TIM_OCIDLESTATE_RESET;
 566              		.loc 1 77 3 is_stmt 1 view .LVU176
  77:Src/tim.c     ****   sConfigOC.OCIdleState = TIM_OCIDLESTATE_RESET;
 567              		.loc 1 77 24 is_stmt 0 view .LVU177
 568 008c 1292     		str	r2, [sp, #72]
  78:Src/tim.c     ****   sConfigOC.OCNIdleState = TIM_OCNIDLESTATE_RESET;
 569              		.loc 1 78 3 is_stmt 1 view .LVU178
  78:Src/tim.c     ****   sConfigOC.OCNIdleState = TIM_OCNIDLESTATE_RESET;
 570              		.loc 1 78 25 is_stmt 0 view .LVU179
 571 008e 1392     		str	r2, [sp, #76]
  79:Src/tim.c     ****   if (HAL_TIM_PWM_ConfigChannel(&htim1, &sConfigOC, TIM_CHANNEL_1) != HAL_OK)
 572              		.loc 1 79 3 is_stmt 1 view .LVU180
  79:Src/tim.c     ****   if (HAL_TIM_PWM_ConfigChannel(&htim1, &sConfigOC, TIM_CHANNEL_1) != HAL_OK)
 573              		.loc 1 79 26 is_stmt 0 view .LVU181
 574 0090 1492     		str	r2, [sp, #80]
  80:Src/tim.c     ****   {
 575              		.loc 1 80 3 is_stmt 1 view .LVU182
  80:Src/tim.c     ****   {
 576              		.loc 1 80 7 is_stmt 0 view .LVU183
 577 0092 0EA9     		add	r1, sp, #56
 578 0094 2C48     		ldr	r0, .L45
 579 0096 FFF7FEFF 		bl	HAL_TIM_PWM_ConfigChannel
 580              	.LVL25:
  80:Src/tim.c     ****   {
 581              		.loc 1 80 6 view .LVU184
 582 009a 0028     		cmp	r0, #0
 583 009c 44D1     		bne	.L40
 584              	.L30:
  84:Src/tim.c     ****   if (HAL_TIM_PWM_ConfigChannel(&htim1, &sConfigOC, TIM_CHANNEL_2) != HAL_OK)
 585              		.loc 1 84 3 is_stmt 1 view .LVU185
  84:Src/tim.c     ****   if (HAL_TIM_PWM_ConfigChannel(&htim1, &sConfigOC, TIM_CHANNEL_2) != HAL_OK)
 586              		.loc 1 84 19 is_stmt 0 view .LVU186
 587 009e 40F23F63 		movw	r3, #1599
 588 00a2 0F93     		str	r3, [sp, #60]
  85:Src/tim.c     ****   {
 589              		.loc 1 85 3 is_stmt 1 view .LVU187
  85:Src/tim.c     ****   {
 590              		.loc 1 85 7 is_stmt 0 view .LVU188
 591 00a4 0422     		movs	r2, #4
 592 00a6 0EA9     		add	r1, sp, #56
ARM GAS  C:\Users\57308\AppData\Local\Temp\cc8B5aw1.s 			page 18


 593 00a8 2748     		ldr	r0, .L45
 594 00aa FFF7FEFF 		bl	HAL_TIM_PWM_ConfigChannel
 595              	.LVL26:
  85:Src/tim.c     ****   {
 596              		.loc 1 85 6 view .LVU189
 597 00ae 0028     		cmp	r0, #0
 598 00b0 3DD1     		bne	.L41
 599              	.L31:
  89:Src/tim.c     ****   if (HAL_TIM_PWM_ConfigChannel(&htim1, &sConfigOC, TIM_CHANNEL_3) != HAL_OK)
 600              		.loc 1 89 3 is_stmt 1 view .LVU190
  89:Src/tim.c     ****   if (HAL_TIM_PWM_ConfigChannel(&htim1, &sConfigOC, TIM_CHANNEL_3) != HAL_OK)
 601              		.loc 1 89 19 is_stmt 0 view .LVU191
 602 00b2 0023     		movs	r3, #0
 603 00b4 0F93     		str	r3, [sp, #60]
  90:Src/tim.c     ****   {
 604              		.loc 1 90 3 is_stmt 1 view .LVU192
  90:Src/tim.c     ****   {
 605              		.loc 1 90 7 is_stmt 0 view .LVU193
 606 00b6 0822     		movs	r2, #8
 607 00b8 0EA9     		add	r1, sp, #56
 608 00ba 2348     		ldr	r0, .L45
 609 00bc FFF7FEFF 		bl	HAL_TIM_PWM_ConfigChannel
 610              	.LVL27:
  90:Src/tim.c     ****   {
 611              		.loc 1 90 6 view .LVU194
 612 00c0 0028     		cmp	r0, #0
 613 00c2 37D1     		bne	.L42
 614              	.L32:
  94:Src/tim.c     ****   if (HAL_TIM_PWM_ConfigChannel(&htim1, &sConfigOC, TIM_CHANNEL_4) != HAL_OK)
 615              		.loc 1 94 3 is_stmt 1 view .LVU195
  94:Src/tim.c     ****   if (HAL_TIM_PWM_ConfigChannel(&htim1, &sConfigOC, TIM_CHANNEL_4) != HAL_OK)
 616              		.loc 1 94 19 is_stmt 0 view .LVU196
 617 00c4 4FF49663 		mov	r3, #1200
 618 00c8 0F93     		str	r3, [sp, #60]
  95:Src/tim.c     ****   {
 619              		.loc 1 95 3 is_stmt 1 view .LVU197
  95:Src/tim.c     ****   {
 620              		.loc 1 95 7 is_stmt 0 view .LVU198
 621 00ca 0C22     		movs	r2, #12
 622 00cc 0EA9     		add	r1, sp, #56
 623 00ce 1E48     		ldr	r0, .L45
 624 00d0 FFF7FEFF 		bl	HAL_TIM_PWM_ConfigChannel
 625              	.LVL28:
  95:Src/tim.c     ****   {
 626              		.loc 1 95 6 view .LVU199
 627 00d4 0028     		cmp	r0, #0
 628 00d6 30D1     		bne	.L43
 629              	.L33:
  99:Src/tim.c     ****   sBreakDeadTimeConfig.OffStateIDLEMode = TIM_OSSI_DISABLE;
 630              		.loc 1 99 3 is_stmt 1 view .LVU200
  99:Src/tim.c     ****   sBreakDeadTimeConfig.OffStateIDLEMode = TIM_OSSI_DISABLE;
 631              		.loc 1 99 40 is_stmt 0 view .LVU201
 632 00d8 0023     		movs	r3, #0
 633 00da 0193     		str	r3, [sp, #4]
 100:Src/tim.c     ****   sBreakDeadTimeConfig.LockLevel = TIM_LOCKLEVEL_OFF;
 634              		.loc 1 100 3 is_stmt 1 view .LVU202
 100:Src/tim.c     ****   sBreakDeadTimeConfig.LockLevel = TIM_LOCKLEVEL_OFF;
ARM GAS  C:\Users\57308\AppData\Local\Temp\cc8B5aw1.s 			page 19


 635              		.loc 1 100 41 is_stmt 0 view .LVU203
 636 00dc 0293     		str	r3, [sp, #8]
 101:Src/tim.c     ****   sBreakDeadTimeConfig.DeadTime = 0;
 637              		.loc 1 101 3 is_stmt 1 view .LVU204
 101:Src/tim.c     ****   sBreakDeadTimeConfig.DeadTime = 0;
 638              		.loc 1 101 34 is_stmt 0 view .LVU205
 639 00de 0393     		str	r3, [sp, #12]
 102:Src/tim.c     ****   sBreakDeadTimeConfig.BreakState = TIM_BREAK_DISABLE;
 640              		.loc 1 102 3 is_stmt 1 view .LVU206
 102:Src/tim.c     ****   sBreakDeadTimeConfig.BreakState = TIM_BREAK_DISABLE;
 641              		.loc 1 102 33 is_stmt 0 view .LVU207
 642 00e0 0493     		str	r3, [sp, #16]
 103:Src/tim.c     ****   sBreakDeadTimeConfig.BreakPolarity = TIM_BREAKPOLARITY_HIGH;
 643              		.loc 1 103 3 is_stmt 1 view .LVU208
 103:Src/tim.c     ****   sBreakDeadTimeConfig.BreakPolarity = TIM_BREAKPOLARITY_HIGH;
 644              		.loc 1 103 35 is_stmt 0 view .LVU209
 645 00e2 0593     		str	r3, [sp, #20]
 104:Src/tim.c     ****   sBreakDeadTimeConfig.BreakFilter = 0;
 646              		.loc 1 104 3 is_stmt 1 view .LVU210
 104:Src/tim.c     ****   sBreakDeadTimeConfig.BreakFilter = 0;
 647              		.loc 1 104 38 is_stmt 0 view .LVU211
 648 00e4 4FF40052 		mov	r2, #8192
 649 00e8 0692     		str	r2, [sp, #24]
 105:Src/tim.c     ****   sBreakDeadTimeConfig.BreakAFMode = TIM_BREAK_AFMODE_INPUT;
 650              		.loc 1 105 3 is_stmt 1 view .LVU212
 105:Src/tim.c     ****   sBreakDeadTimeConfig.BreakAFMode = TIM_BREAK_AFMODE_INPUT;
 651              		.loc 1 105 36 is_stmt 0 view .LVU213
 652 00ea 0793     		str	r3, [sp, #28]
 106:Src/tim.c     ****   sBreakDeadTimeConfig.Break2State = TIM_BREAK2_DISABLE;
 653              		.loc 1 106 3 is_stmt 1 view .LVU214
 106:Src/tim.c     ****   sBreakDeadTimeConfig.Break2State = TIM_BREAK2_DISABLE;
 654              		.loc 1 106 36 is_stmt 0 view .LVU215
 655 00ec 0893     		str	r3, [sp, #32]
 107:Src/tim.c     ****   sBreakDeadTimeConfig.Break2Polarity = TIM_BREAK2POLARITY_HIGH;
 656              		.loc 1 107 3 is_stmt 1 view .LVU216
 107:Src/tim.c     ****   sBreakDeadTimeConfig.Break2Polarity = TIM_BREAK2POLARITY_HIGH;
 657              		.loc 1 107 36 is_stmt 0 view .LVU217
 658 00ee 0993     		str	r3, [sp, #36]
 108:Src/tim.c     ****   sBreakDeadTimeConfig.Break2Filter = 0;
 659              		.loc 1 108 3 is_stmt 1 view .LVU218
 108:Src/tim.c     ****   sBreakDeadTimeConfig.Break2Filter = 0;
 660              		.loc 1 108 39 is_stmt 0 view .LVU219
 661 00f0 4FF00072 		mov	r2, #33554432
 662 00f4 0A92     		str	r2, [sp, #40]
 109:Src/tim.c     ****   sBreakDeadTimeConfig.Break2AFMode = TIM_BREAK_AFMODE_INPUT;
 663              		.loc 1 109 3 is_stmt 1 view .LVU220
 109:Src/tim.c     ****   sBreakDeadTimeConfig.Break2AFMode = TIM_BREAK_AFMODE_INPUT;
 664              		.loc 1 109 37 is_stmt 0 view .LVU221
 665 00f6 0B93     		str	r3, [sp, #44]
 110:Src/tim.c     ****   sBreakDeadTimeConfig.AutomaticOutput = TIM_AUTOMATICOUTPUT_DISABLE;
 666              		.loc 1 110 3 is_stmt 1 view .LVU222
 110:Src/tim.c     ****   sBreakDeadTimeConfig.AutomaticOutput = TIM_AUTOMATICOUTPUT_DISABLE;
 667              		.loc 1 110 37 is_stmt 0 view .LVU223
 668 00f8 0C93     		str	r3, [sp, #48]
 111:Src/tim.c     ****   if (HAL_TIMEx_ConfigBreakDeadTime(&htim1, &sBreakDeadTimeConfig) != HAL_OK)
 669              		.loc 1 111 3 is_stmt 1 view .LVU224
 111:Src/tim.c     ****   if (HAL_TIMEx_ConfigBreakDeadTime(&htim1, &sBreakDeadTimeConfig) != HAL_OK)
ARM GAS  C:\Users\57308\AppData\Local\Temp\cc8B5aw1.s 			page 20


 670              		.loc 1 111 40 is_stmt 0 view .LVU225
 671 00fa 0D93     		str	r3, [sp, #52]
 112:Src/tim.c     ****   {
 672              		.loc 1 112 3 is_stmt 1 view .LVU226
 112:Src/tim.c     ****   {
 673              		.loc 1 112 7 is_stmt 0 view .LVU227
 674 00fc 01A9     		add	r1, sp, #4
 675 00fe 1248     		ldr	r0, .L45
 676 0100 FFF7FEFF 		bl	HAL_TIMEx_ConfigBreakDeadTime
 677              	.LVL29:
 112:Src/tim.c     ****   {
 678              		.loc 1 112 6 view .LVU228
 679 0104 E0B9     		cbnz	r0, .L44
 680              	.L34:
 119:Src/tim.c     **** 
 681              		.loc 1 119 3 is_stmt 1 view .LVU229
 682 0106 1048     		ldr	r0, .L45
 683 0108 FFF7FEFF 		bl	HAL_TIM_MspPostInit
 684              	.LVL30:
 121:Src/tim.c     **** /* TIM2 init function */
 685              		.loc 1 121 1 is_stmt 0 view .LVU230
 686 010c 1CB0     		add	sp, sp, #112
 687              	.LCFI14:
 688              		.cfi_remember_state
 689              		.cfi_def_cfa_offset 8
 690              		@ sp needed
 691 010e 10BD     		pop	{r4, pc}
 692              	.L36:
 693              	.LCFI15:
 694              		.cfi_restore_state
  55:Src/tim.c     ****   }
 695              		.loc 1 55 5 is_stmt 1 view .LVU231
 696 0110 FFF7FEFF 		bl	Error_Handler
 697              	.LVL31:
 698 0114 9CE7     		b	.L26
 699              	.L37:
  60:Src/tim.c     ****   }
 700              		.loc 1 60 5 view .LVU232
 701 0116 FFF7FEFF 		bl	Error_Handler
 702              	.LVL32:
 703 011a A2E7     		b	.L27
 704              	.L38:
  64:Src/tim.c     ****   }
 705              		.loc 1 64 5 view .LVU233
 706 011c FFF7FEFF 		bl	Error_Handler
 707              	.LVL33:
 708 0120 A4E7     		b	.L28
 709              	.L39:
  71:Src/tim.c     ****   }
 710              		.loc 1 71 5 view .LVU234
 711 0122 FFF7FEFF 		bl	Error_Handler
 712              	.LVL34:
 713 0126 ABE7     		b	.L29
 714              	.L40:
  82:Src/tim.c     ****   }
 715              		.loc 1 82 5 view .LVU235
 716 0128 FFF7FEFF 		bl	Error_Handler
ARM GAS  C:\Users\57308\AppData\Local\Temp\cc8B5aw1.s 			page 21


 717              	.LVL35:
 718 012c B7E7     		b	.L30
 719              	.L41:
  87:Src/tim.c     ****   }
 720              		.loc 1 87 5 view .LVU236
 721 012e FFF7FEFF 		bl	Error_Handler
 722              	.LVL36:
 723 0132 BEE7     		b	.L31
 724              	.L42:
  92:Src/tim.c     ****   }
 725              		.loc 1 92 5 view .LVU237
 726 0134 FFF7FEFF 		bl	Error_Handler
 727              	.LVL37:
 728 0138 C4E7     		b	.L32
 729              	.L43:
  97:Src/tim.c     ****   }
 730              		.loc 1 97 5 view .LVU238
 731 013a FFF7FEFF 		bl	Error_Handler
 732              	.LVL38:
 733 013e CBE7     		b	.L33
 734              	.L44:
 114:Src/tim.c     ****   }
 735              		.loc 1 114 5 view .LVU239
 736 0140 FFF7FEFF 		bl	Error_Handler
 737              	.LVL39:
 738 0144 DFE7     		b	.L34
 739              	.L46:
 740 0146 00BF     		.align	2
 741              	.L45:
 742 0148 00000000 		.word	.LANCHOR1
 743 014c 002C0140 		.word	1073818624
 744              		.cfi_endproc
 745              	.LFE329:
 747              		.section	.text.HAL_TIM_Base_MspDeInit,"ax",%progbits
 748              		.align	1
 749              		.global	HAL_TIM_Base_MspDeInit
 750              		.syntax unified
 751              		.thumb
 752              		.thumb_func
 754              	HAL_TIM_Base_MspDeInit:
 755              	.LVL40:
 756              	.LFB333:
 248:Src/tim.c     **** 
 249:Src/tim.c     **** void HAL_TIM_Base_MspDeInit(TIM_HandleTypeDef* tim_baseHandle)
 250:Src/tim.c     **** {
 757              		.loc 1 250 1 view -0
 758              		.cfi_startproc
 759              		@ args = 0, pretend = 0, frame = 0
 760              		@ frame_needed = 0, uses_anonymous_args = 0
 761              		.loc 1 250 1 is_stmt 0 view .LVU241
 762 0000 08B5     		push	{r3, lr}
 763              	.LCFI16:
 764              		.cfi_def_cfa_offset 8
 765              		.cfi_offset 3, -8
 766              		.cfi_offset 14, -4
 251:Src/tim.c     **** 
 252:Src/tim.c     ****   if(tim_baseHandle->Instance==TIM1)
ARM GAS  C:\Users\57308\AppData\Local\Temp\cc8B5aw1.s 			page 22


 767              		.loc 1 252 3 is_stmt 1 view .LVU242
 768              		.loc 1 252 20 is_stmt 0 view .LVU243
 769 0002 0368     		ldr	r3, [r0]
 770              		.loc 1 252 5 view .LVU244
 771 0004 0B4A     		ldr	r2, .L53
 772 0006 9342     		cmp	r3, r2
 773 0008 03D0     		beq	.L51
 253:Src/tim.c     ****   {
 254:Src/tim.c     ****   /* USER CODE BEGIN TIM1_MspDeInit 0 */
 255:Src/tim.c     **** 
 256:Src/tim.c     ****   /* USER CODE END TIM1_MspDeInit 0 */
 257:Src/tim.c     ****     /* Peripheral clock disable */
 258:Src/tim.c     ****     __HAL_RCC_TIM1_CLK_DISABLE();
 259:Src/tim.c     ****   /* USER CODE BEGIN TIM1_MspDeInit 1 */
 260:Src/tim.c     **** 
 261:Src/tim.c     ****   /* USER CODE END TIM1_MspDeInit 1 */
 262:Src/tim.c     ****   }
 263:Src/tim.c     ****   else if(tim_baseHandle->Instance==TIM2)
 774              		.loc 1 263 8 is_stmt 1 view .LVU245
 775              		.loc 1 263 10 is_stmt 0 view .LVU246
 776 000a B3F1804F 		cmp	r3, #1073741824
 777 000e 07D0     		beq	.L52
 778              	.LVL41:
 779              	.L47:
 264:Src/tim.c     ****   {
 265:Src/tim.c     ****   /* USER CODE BEGIN TIM2_MspDeInit 0 */
 266:Src/tim.c     **** 
 267:Src/tim.c     ****   /* USER CODE END TIM2_MspDeInit 0 */
 268:Src/tim.c     ****     /* Peripheral clock disable */
 269:Src/tim.c     ****     __HAL_RCC_TIM2_CLK_DISABLE();
 270:Src/tim.c     **** 
 271:Src/tim.c     ****     /* TIM2 interrupt Deinit */
 272:Src/tim.c     ****     HAL_NVIC_DisableIRQ(TIM2_IRQn);
 273:Src/tim.c     ****   /* USER CODE BEGIN TIM2_MspDeInit 1 */
 274:Src/tim.c     **** 
 275:Src/tim.c     ****   /* USER CODE END TIM2_MspDeInit 1 */
 276:Src/tim.c     ****   }
 277:Src/tim.c     **** }
 780              		.loc 1 277 1 view .LVU247
 781 0010 08BD     		pop	{r3, pc}
 782              	.LVL42:
 783              	.L51:
 258:Src/tim.c     ****   /* USER CODE BEGIN TIM1_MspDeInit 1 */
 784              		.loc 1 258 5 is_stmt 1 view .LVU248
 785 0012 02F56442 		add	r2, r2, #58368
 786 0016 136E     		ldr	r3, [r2, #96]
 787 0018 23F40063 		bic	r3, r3, #2048
 788 001c 1366     		str	r3, [r2, #96]
 789 001e F7E7     		b	.L47
 790              	.L52:
 269:Src/tim.c     **** 
 791              		.loc 1 269 5 view .LVU249
 792 0020 054A     		ldr	r2, .L53+4
 793 0022 936D     		ldr	r3, [r2, #88]
 794 0024 23F00103 		bic	r3, r3, #1
 795 0028 9365     		str	r3, [r2, #88]
 272:Src/tim.c     ****   /* USER CODE BEGIN TIM2_MspDeInit 1 */
ARM GAS  C:\Users\57308\AppData\Local\Temp\cc8B5aw1.s 			page 23


 796              		.loc 1 272 5 view .LVU250
 797 002a 1C20     		movs	r0, #28
 798              	.LVL43:
 272:Src/tim.c     ****   /* USER CODE BEGIN TIM2_MspDeInit 1 */
 799              		.loc 1 272 5 is_stmt 0 view .LVU251
 800 002c FFF7FEFF 		bl	HAL_NVIC_DisableIRQ
 801              	.LVL44:
 802              		.loc 1 277 1 view .LVU252
 803 0030 EEE7     		b	.L47
 804              	.L54:
 805 0032 00BF     		.align	2
 806              	.L53:
 807 0034 002C0140 		.word	1073818624
 808 0038 00100240 		.word	1073876992
 809              		.cfi_endproc
 810              	.LFE333:
 812              		.section	.text.tim_set_pwm,"ax",%progbits
 813              		.align	1
 814              		.global	tim_set_pwm
 815              		.syntax unified
 816              		.thumb
 817              		.thumb_func
 819              	tim_set_pwm:
 820              	.LVL45:
 821              	.LFB336:
 278:Src/tim.c     **** 
 279:Src/tim.c     **** /* USER CODE BEGIN 1 */
 280:Src/tim.c     **** 
 281:Src/tim.c     **** static unsigned short max_val_01(unsigned short a,unsigned short b,unsigned short c)
 282:Src/tim.c     **** {
 283:Src/tim.c     **** 	short max;
 284:Src/tim.c     **** 	if(a>b)
 285:Src/tim.c     **** 	{
 286:Src/tim.c     **** 		max = a;
 287:Src/tim.c     **** 	}else{
 288:Src/tim.c     **** 		max = b;
 289:Src/tim.c     **** 	}
 290:Src/tim.c     **** 	if(c>max)
 291:Src/tim.c     **** 	{
 292:Src/tim.c     **** 		max = c;
 293:Src/tim.c     **** 	}
 294:Src/tim.c     **** 	return max;
 295:Src/tim.c     **** }
 296:Src/tim.c     **** static unsigned short min_val_01(unsigned short a,unsigned short b,unsigned short c)
 297:Src/tim.c     **** {
 298:Src/tim.c     ****   unsigned short min;
 299:Src/tim.c     ****   if(a<b)
 300:Src/tim.c     ****   {
 301:Src/tim.c     ****     min = a;
 302:Src/tim.c     ****   }else{
 303:Src/tim.c     ****     min = b;
 304:Src/tim.c     ****   }
 305:Src/tim.c     ****   if (c < min)
 306:Src/tim.c     ****   {
 307:Src/tim.c     ****     min = c;
 308:Src/tim.c     ****   }
 309:Src/tim.c     ****   return min;
ARM GAS  C:\Users\57308\AppData\Local\Temp\cc8B5aw1.s 			page 24


 310:Src/tim.c     **** }
 311:Src/tim.c     **** void tim_set_pwm(float _a,float _b,float _c)
 312:Src/tim.c     **** {
 822              		.loc 1 312 1 is_stmt 1 view -0
 823              		.cfi_startproc
 824              		@ args = 0, pretend = 0, frame = 0
 825              		@ frame_needed = 0, uses_anonymous_args = 0
 826              		@ link register save eliminated.
 313:Src/tim.c     ****     float a,b,c;
 827              		.loc 1 313 5 view .LVU254
 314:Src/tim.c     ****     a = (((float)_a)*_ARR);
 828              		.loc 1 314 5 view .LVU255
 829              		.loc 1 314 7 is_stmt 0 view .LVU256
 830 0000 DFED0F7A 		vldr.32	s15, .L56
 831 0004 20EE270A 		vmul.f32	s0, s0, s15
 832              	.LVL46:
 315:Src/tim.c     ****     b = (((float)_b)*_ARR);
 833              		.loc 1 315 5 is_stmt 1 view .LVU257
 834              		.loc 1 315 7 is_stmt 0 view .LVU258
 835 0008 60EEA70A 		vmul.f32	s1, s1, s15
 836              	.LVL47:
 316:Src/tim.c     ****     c = (((float)_c)*_ARR);
 837              		.loc 1 316 5 is_stmt 1 view .LVU259
 838              		.loc 1 316 7 is_stmt 0 view .LVU260
 839 000c 21EE271A 		vmul.f32	s2, s2, s15
 840              	.LVL48:
 317:Src/tim.c     **** 
 318:Src/tim.c     ****     __HAL_TIM_SET_COMPARE(&htim1,TIM_CHANNEL_1,(uint16_t)a);
 841              		.loc 1 318 5 is_stmt 1 view .LVU261
 842 0010 0C4B     		ldr	r3, .L56+4
 843 0012 1A68     		ldr	r2, [r3]
 844 0014 BCEEC00A 		vcvt.u32.f32	s0, s0
 845              	.LVL49:
 846              		.loc 1 318 5 is_stmt 0 view .LVU262
 847 0018 10EE103A 		vmov	r3, s0	@ int
 848 001c 9BB2     		uxth	r3, r3
 849 001e 5363     		str	r3, [r2, #52]
 319:Src/tim.c     ****     __HAL_TIM_SET_COMPARE(&htim1,TIM_CHANNEL_2,(uint16_t)b);
 850              		.loc 1 319 5 is_stmt 1 view .LVU263
 851 0020 FCEEE00A 		vcvt.u32.f32	s1, s1
 852              	.LVL50:
 853              		.loc 1 319 5 is_stmt 0 view .LVU264
 854 0024 10EE903A 		vmov	r3, s1	@ int
 855 0028 9BB2     		uxth	r3, r3
 856 002a 9363     		str	r3, [r2, #56]
 320:Src/tim.c     ****     __HAL_TIM_SET_COMPARE(&htim1,TIM_CHANNEL_3,(uint16_t)c);
 857              		.loc 1 320 5 is_stmt 1 view .LVU265
 858 002c BCEEC11A 		vcvt.u32.f32	s2, s2
 859              	.LVL51:
 860              		.loc 1 320 5 is_stmt 0 view .LVU266
 861 0030 11EE103A 		vmov	r3, s2	@ int
 862 0034 9BB2     		uxth	r3, r3
 863 0036 D363     		str	r3, [r2, #60]
 321:Src/tim.c     **** 
 322:Src/tim.c     ****     unsigned short max = 0;
 864              		.loc 1 322 5 is_stmt 1 view .LVU267
 865              	.LVL52:
ARM GAS  C:\Users\57308\AppData\Local\Temp\cc8B5aw1.s 			page 25


 323:Src/tim.c     ****     max = max_val_01((uint16_t)a,(uint16_t)b,(uint16_t)c);
 866              		.loc 1 323 5 view .LVU268
 324:Src/tim.c     ****     __HAL_TIM_SET_COMPARE(&htim1,TIM_CHANNEL_4,(uint16_t)(8390));
 867              		.loc 1 324 5 view .LVU269
 868 0038 42F2C603 		movw	r3, #8390
 869 003c 1364     		str	r3, [r2, #64]
 325:Src/tim.c     **** }
 870              		.loc 1 325 1 is_stmt 0 view .LVU270
 871 003e 7047     		bx	lr
 872              	.L57:
 873              		.align	2
 874              	.L56:
 875 0040 00D00446 		.word	1174720512
 876 0044 00000000 		.word	.LANCHOR1
 877              		.cfi_endproc
 878              	.LFE336:
 880              		.section	.text.tim_pwm_enable_noirq,"ax",%progbits
 881              		.align	1
 882              		.global	tim_pwm_enable_noirq
 883              		.syntax unified
 884              		.thumb
 885              		.thumb_func
 887              	tim_pwm_enable_noirq:
 888              	.LFB337:
 326:Src/tim.c     **** void tim_pwm_enable_noirq(void)
 327:Src/tim.c     **** {
 889              		.loc 1 327 1 is_stmt 1 view -0
 890              		.cfi_startproc
 891              		@ args = 0, pretend = 0, frame = 0
 892              		@ frame_needed = 0, uses_anonymous_args = 0
 893 0000 38B5     		push	{r3, r4, r5, lr}
 894              	.LCFI17:
 895              		.cfi_def_cfa_offset 16
 896              		.cfi_offset 3, -16
 897              		.cfi_offset 4, -12
 898              		.cfi_offset 5, -8
 899              		.cfi_offset 14, -4
 328:Src/tim.c     ****     __HAL_TIM_SET_COMPARE(&htim1,TIM_CHANNEL_1,(uint16_t)0);
 900              		.loc 1 328 5 view .LVU272
 901 0002 0F4C     		ldr	r4, .L60
 902 0004 2368     		ldr	r3, [r4]
 903 0006 0025     		movs	r5, #0
 904 0008 5D63     		str	r5, [r3, #52]
 329:Src/tim.c     ****     __HAL_TIM_SET_COMPARE(&htim1,TIM_CHANNEL_2,(uint16_t)0);
 905              		.loc 1 329 5 view .LVU273
 906 000a 9D63     		str	r5, [r3, #56]
 330:Src/tim.c     ****     __HAL_TIM_SET_COMPARE(&htim1,TIM_CHANNEL_3,(uint16_t)0);    
 907              		.loc 1 330 5 view .LVU274
 908 000c DD63     		str	r5, [r3, #60]
 331:Src/tim.c     ****     HAL_TIM_PWM_Start(&htim1,TIM_CHANNEL_1);
 909              		.loc 1 331 5 view .LVU275
 910 000e 2946     		mov	r1, r5
 911 0010 2046     		mov	r0, r4
 912 0012 FFF7FEFF 		bl	HAL_TIM_PWM_Start
 913              	.LVL53:
 332:Src/tim.c     ****     HAL_TIMEx_PWMN_Start(&htim1,TIM_CHANNEL_1);
 914              		.loc 1 332 5 view .LVU276
ARM GAS  C:\Users\57308\AppData\Local\Temp\cc8B5aw1.s 			page 26


 915 0016 2946     		mov	r1, r5
 916 0018 2046     		mov	r0, r4
 917 001a FFF7FEFF 		bl	HAL_TIMEx_PWMN_Start
 918              	.LVL54:
 333:Src/tim.c     ****     HAL_TIM_PWM_Start(&htim1,TIM_CHANNEL_2);
 919              		.loc 1 333 5 view .LVU277
 920 001e 0421     		movs	r1, #4
 921 0020 2046     		mov	r0, r4
 922 0022 FFF7FEFF 		bl	HAL_TIM_PWM_Start
 923              	.LVL55:
 334:Src/tim.c     ****     HAL_TIMEx_PWMN_Start(&htim1,TIM_CHANNEL_2);
 924              		.loc 1 334 5 view .LVU278
 925 0026 0421     		movs	r1, #4
 926 0028 2046     		mov	r0, r4
 927 002a FFF7FEFF 		bl	HAL_TIMEx_PWMN_Start
 928              	.LVL56:
 335:Src/tim.c     ****     HAL_TIM_PWM_Start(&htim1,TIM_CHANNEL_3);
 929              		.loc 1 335 5 view .LVU279
 930 002e 0821     		movs	r1, #8
 931 0030 2046     		mov	r0, r4
 932 0032 FFF7FEFF 		bl	HAL_TIM_PWM_Start
 933              	.LVL57:
 336:Src/tim.c     ****     HAL_TIMEx_PWMN_Start(&htim1,TIM_CHANNEL_3);     
 934              		.loc 1 336 5 view .LVU280
 935 0036 0821     		movs	r1, #8
 936 0038 2046     		mov	r0, r4
 937 003a FFF7FEFF 		bl	HAL_TIMEx_PWMN_Start
 938              	.LVL58:
 337:Src/tim.c     **** }
 939              		.loc 1 337 1 is_stmt 0 view .LVU281
 940 003e 38BD     		pop	{r3, r4, r5, pc}
 941              	.L61:
 942              		.align	2
 943              	.L60:
 944 0040 00000000 		.word	.LANCHOR1
 945              		.cfi_endproc
 946              	.LFE337:
 948              		.section	.text.tim_pwm_enable,"ax",%progbits
 949              		.align	1
 950              		.global	tim_pwm_enable
 951              		.syntax unified
 952              		.thumb
 953              		.thumb_func
 955              	tim_pwm_enable:
 956              	.LFB338:
 338:Src/tim.c     **** void tim_pwm_enable(void)
 339:Src/tim.c     **** {
 957              		.loc 1 339 1 is_stmt 1 view -0
 958              		.cfi_startproc
 959              		@ args = 0, pretend = 0, frame = 0
 960              		@ frame_needed = 0, uses_anonymous_args = 0
 961 0000 38B5     		push	{r3, r4, r5, lr}
 962              	.LCFI18:
 963              		.cfi_def_cfa_offset 16
 964              		.cfi_offset 3, -16
 965              		.cfi_offset 4, -12
 966              		.cfi_offset 5, -8
ARM GAS  C:\Users\57308\AppData\Local\Temp\cc8B5aw1.s 			page 27


 967              		.cfi_offset 14, -4
 340:Src/tim.c     ****     __HAL_TIM_SET_COMPARE(&htim1,TIM_CHANNEL_1,(uint16_t)0);
 968              		.loc 1 340 5 view .LVU283
 969 0002 0F4C     		ldr	r4, .L64
 970 0004 2368     		ldr	r3, [r4]
 971 0006 0025     		movs	r5, #0
 972 0008 5D63     		str	r5, [r3, #52]
 341:Src/tim.c     ****     __HAL_TIM_SET_COMPARE(&htim1,TIM_CHANNEL_2,(uint16_t)0);
 973              		.loc 1 341 5 view .LVU284
 974 000a 9D63     		str	r5, [r3, #56]
 342:Src/tim.c     ****     __HAL_TIM_SET_COMPARE(&htim1,TIM_CHANNEL_3,(uint16_t)0);    
 975              		.loc 1 342 5 view .LVU285
 976 000c DD63     		str	r5, [r3, #60]
 343:Src/tim.c     ****     HAL_TIM_PWM_Start(&htim1,TIM_CHANNEL_1);
 977              		.loc 1 343 5 view .LVU286
 978 000e 2946     		mov	r1, r5
 979 0010 2046     		mov	r0, r4
 980 0012 FFF7FEFF 		bl	HAL_TIM_PWM_Start
 981              	.LVL59:
 344:Src/tim.c     ****     HAL_TIMEx_PWMN_Start(&htim1,TIM_CHANNEL_1);
 982              		.loc 1 344 5 view .LVU287
 983 0016 2946     		mov	r1, r5
 984 0018 2046     		mov	r0, r4
 985 001a FFF7FEFF 		bl	HAL_TIMEx_PWMN_Start
 986              	.LVL60:
 345:Src/tim.c     ****     HAL_TIM_PWM_Start(&htim1,TIM_CHANNEL_2);
 987              		.loc 1 345 5 view .LVU288
 988 001e 0421     		movs	r1, #4
 989 0020 2046     		mov	r0, r4
 990 0022 FFF7FEFF 		bl	HAL_TIM_PWM_Start
 991              	.LVL61:
 346:Src/tim.c     ****     HAL_TIMEx_PWMN_Start(&htim1,TIM_CHANNEL_2);
 992              		.loc 1 346 5 view .LVU289
 993 0026 0421     		movs	r1, #4
 994 0028 2046     		mov	r0, r4
 995 002a FFF7FEFF 		bl	HAL_TIMEx_PWMN_Start
 996              	.LVL62:
 347:Src/tim.c     ****     HAL_TIM_PWM_Start(&htim1,TIM_CHANNEL_3);
 997              		.loc 1 347 5 view .LVU290
 998 002e 0821     		movs	r1, #8
 999 0030 2046     		mov	r0, r4
 1000 0032 FFF7FEFF 		bl	HAL_TIM_PWM_Start
 1001              	.LVL63:
 348:Src/tim.c     ****     HAL_TIMEx_PWMN_Start(&htim1,TIM_CHANNEL_3); 
 1002              		.loc 1 348 5 view .LVU291
 1003 0036 0821     		movs	r1, #8
 1004 0038 2046     		mov	r0, r4
 1005 003a FFF7FEFF 		bl	HAL_TIMEx_PWMN_Start
 1006              	.LVL64:
 349:Src/tim.c     **** }
 1007              		.loc 1 349 1 is_stmt 0 view .LVU292
 1008 003e 38BD     		pop	{r3, r4, r5, pc}
 1009              	.L65:
 1010              		.align	2
 1011              	.L64:
 1012 0040 00000000 		.word	.LANCHOR1
 1013              		.cfi_endproc
ARM GAS  C:\Users\57308\AppData\Local\Temp\cc8B5aw1.s 			page 28


 1014              	.LFE338:
 1016              		.section	.text.tim_pwm_disable,"ax",%progbits
 1017              		.align	1
 1018              		.global	tim_pwm_disable
 1019              		.syntax unified
 1020              		.thumb
 1021              		.thumb_func
 1023              	tim_pwm_disable:
 1024              	.LFB339:
 350:Src/tim.c     **** void tim_pwm_disable(void)
 351:Src/tim.c     **** {
 1025              		.loc 1 351 1 is_stmt 1 view -0
 1026              		.cfi_startproc
 1027              		@ args = 0, pretend = 0, frame = 0
 1028              		@ frame_needed = 0, uses_anonymous_args = 0
 1029 0000 38B5     		push	{r3, r4, r5, lr}
 1030              	.LCFI19:
 1031              		.cfi_def_cfa_offset 16
 1032              		.cfi_offset 3, -16
 1033              		.cfi_offset 4, -12
 1034              		.cfi_offset 5, -8
 1035              		.cfi_offset 14, -4
 352:Src/tim.c     ****     __HAL_TIM_SET_COMPARE(&htim1,TIM_CHANNEL_1,(0));
 1036              		.loc 1 352 5 view .LVU294
 1037 0002 114C     		ldr	r4, .L68
 1038 0004 2368     		ldr	r3, [r4]
 1039 0006 0025     		movs	r5, #0
 1040 0008 5D63     		str	r5, [r3, #52]
 353:Src/tim.c     ****     __HAL_TIM_SET_COMPARE(&htim1,TIM_CHANNEL_2,(0));
 1041              		.loc 1 353 5 view .LVU295
 1042 000a 9D63     		str	r5, [r3, #56]
 354:Src/tim.c     ****     __HAL_TIM_SET_COMPARE(&htim1,TIM_CHANNEL_3,(0));
 1043              		.loc 1 354 5 view .LVU296
 1044 000c DD63     		str	r5, [r3, #60]
 355:Src/tim.c     **** 
 356:Src/tim.c     ****     HAL_TIM_PWM_Stop(&htim1,TIM_CHANNEL_1);
 1045              		.loc 1 356 5 view .LVU297
 1046 000e 2946     		mov	r1, r5
 1047 0010 2046     		mov	r0, r4
 1048 0012 FFF7FEFF 		bl	HAL_TIM_PWM_Stop
 1049              	.LVL65:
 357:Src/tim.c     ****     HAL_TIMEx_PWMN_Stop(&htim1,TIM_CHANNEL_1);
 1050              		.loc 1 357 5 view .LVU298
 1051 0016 2946     		mov	r1, r5
 1052 0018 2046     		mov	r0, r4
 1053 001a FFF7FEFF 		bl	HAL_TIMEx_PWMN_Stop
 1054              	.LVL66:
 358:Src/tim.c     ****     HAL_TIM_PWM_Stop(&htim1,TIM_CHANNEL_2);
 1055              		.loc 1 358 5 view .LVU299
 1056 001e 0421     		movs	r1, #4
 1057 0020 2046     		mov	r0, r4
 1058 0022 FFF7FEFF 		bl	HAL_TIM_PWM_Stop
 1059              	.LVL67:
 359:Src/tim.c     ****     HAL_TIMEx_PWMN_Stop(&htim1,TIM_CHANNEL_2);
 1060              		.loc 1 359 5 view .LVU300
 1061 0026 0421     		movs	r1, #4
 1062 0028 2046     		mov	r0, r4
ARM GAS  C:\Users\57308\AppData\Local\Temp\cc8B5aw1.s 			page 29


 1063 002a FFF7FEFF 		bl	HAL_TIMEx_PWMN_Stop
 1064              	.LVL68:
 360:Src/tim.c     ****     HAL_TIM_PWM_Stop(&htim1,TIM_CHANNEL_3);
 1065              		.loc 1 360 5 view .LVU301
 1066 002e 0821     		movs	r1, #8
 1067 0030 2046     		mov	r0, r4
 1068 0032 FFF7FEFF 		bl	HAL_TIM_PWM_Stop
 1069              	.LVL69:
 361:Src/tim.c     ****     HAL_TIMEx_PWMN_Stop(&htim1,TIM_CHANNEL_3); 
 1070              		.loc 1 361 5 view .LVU302
 1071 0036 0821     		movs	r1, #8
 1072 0038 2046     		mov	r0, r4
 1073 003a FFF7FEFF 		bl	HAL_TIMEx_PWMN_Stop
 1074              	.LVL70:
 362:Src/tim.c     **** 
 363:Src/tim.c     ****     HAL_TIM_PWM_Stop(&htim1,TIM_CHANNEL_4);      
 1075              		.loc 1 363 5 view .LVU303
 1076 003e 0C21     		movs	r1, #12
 1077 0040 2046     		mov	r0, r4
 1078 0042 FFF7FEFF 		bl	HAL_TIM_PWM_Stop
 1079              	.LVL71:
 364:Src/tim.c     **** }
 1080              		.loc 1 364 1 is_stmt 0 view .LVU304
 1081 0046 38BD     		pop	{r3, r4, r5, pc}
 1082              	.L69:
 1083              		.align	2
 1084              	.L68:
 1085 0048 00000000 		.word	.LANCHOR1
 1086              		.cfi_endproc
 1087              	.LFE339:
 1089              		.section	.text.tim_tigger_adc,"ax",%progbits
 1090              		.align	1
 1091              		.global	tim_tigger_adc
 1092              		.syntax unified
 1093              		.thumb
 1094              		.thumb_func
 1096              	tim_tigger_adc:
 1097              	.LFB340:
 365:Src/tim.c     **** 
 366:Src/tim.c     **** void tim_tigger_adc(void)
 367:Src/tim.c     **** {
 1098              		.loc 1 367 1 is_stmt 1 view -0
 1099              		.cfi_startproc
 1100              		@ args = 0, pretend = 0, frame = 0
 1101              		@ frame_needed = 0, uses_anonymous_args = 0
 1102 0000 08B5     		push	{r3, lr}
 1103              	.LCFI20:
 1104              		.cfi_def_cfa_offset 8
 1105              		.cfi_offset 3, -8
 1106              		.cfi_offset 14, -4
 368:Src/tim.c     ****   HAL_TIM_PWM_Start(&htim1,TIM_CHANNEL_4);
 1107              		.loc 1 368 3 view .LVU306
 1108 0002 0C21     		movs	r1, #12
 1109 0004 0148     		ldr	r0, .L72
 1110 0006 FFF7FEFF 		bl	HAL_TIM_PWM_Start
 1111              	.LVL72:
 369:Src/tim.c     **** }
ARM GAS  C:\Users\57308\AppData\Local\Temp\cc8B5aw1.s 			page 30


 1112              		.loc 1 369 1 is_stmt 0 view .LVU307
 1113 000a 08BD     		pop	{r3, pc}
 1114              	.L73:
 1115              		.align	2
 1116              	.L72:
 1117 000c 00000000 		.word	.LANCHOR1
 1118              		.cfi_endproc
 1119              	.LFE340:
 1121              		.section	.text.HAL_TIM_PeriodElapsedCallback,"ax",%progbits
 1122              		.align	1
 1123              		.global	HAL_TIM_PeriodElapsedCallback
 1124              		.syntax unified
 1125              		.thumb
 1126              		.thumb_func
 1128              	HAL_TIM_PeriodElapsedCallback:
 1129              	.LVL73:
 1130              	.LFB341:
 370:Src/tim.c     **** 
 371:Src/tim.c     **** 
 372:Src/tim.c     **** #include "spi.h"
 373:Src/tim.c     **** extern unsigned char Spi_TxData[4];
 374:Src/tim.c     **** extern unsigned char Spi_pRxData[4];
 375:Src/tim.c     **** void HAL_TIM_PeriodElapsedCallback(TIM_HandleTypeDef *htim)
 376:Src/tim.c     **** {
 1131              		.loc 1 376 1 is_stmt 1 view -0
 1132              		.cfi_startproc
 1133              		@ args = 0, pretend = 0, frame = 0
 1134              		@ frame_needed = 0, uses_anonymous_args = 0
 1135              		.loc 1 376 1 is_stmt 0 view .LVU309
 1136 0000 00B5     		push	{lr}
 1137              	.LCFI21:
 1138              		.cfi_def_cfa_offset 4
 1139              		.cfi_offset 14, -4
 1140 0002 83B0     		sub	sp, sp, #12
 1141              	.LCFI22:
 1142              		.cfi_def_cfa_offset 16
 377:Src/tim.c     ****     HAL_GPIO_WritePin(MT68XX_CSN_GPIO_Port, MT68XX_CSN_Pin, GPIO_PIN_RESET);  
 1143              		.loc 1 377 5 is_stmt 1 view .LVU310
 1144 0004 0022     		movs	r2, #0
 1145 0006 4FF40041 		mov	r1, #32768
 1146 000a 4FF09040 		mov	r0, #1207959552
 1147              	.LVL74:
 1148              		.loc 1 377 5 is_stmt 0 view .LVU311
 1149 000e FFF7FEFF 		bl	HAL_GPIO_WritePin
 1150              	.LVL75:
 378:Src/tim.c     ****     HAL_SPI_TransmitReceive(&hspi1, &Spi_TxData[0], &Spi_pRxData[0],0x03,0xFF);
 1151              		.loc 1 378 5 is_stmt 1 view .LVU312
 1152 0012 FF23     		movs	r3, #255
 1153 0014 0093     		str	r3, [sp]
 1154 0016 0323     		movs	r3, #3
 1155 0018 074A     		ldr	r2, .L76
 1156 001a 0849     		ldr	r1, .L76+4
 1157 001c 0848     		ldr	r0, .L76+8
 1158 001e FFF7FEFF 		bl	HAL_SPI_TransmitReceive
 1159              	.LVL76:
 379:Src/tim.c     ****     HAL_GPIO_WritePin(MT68XX_CSN_GPIO_Port, MT68XX_CSN_Pin, GPIO_PIN_SET);  
 1160              		.loc 1 379 5 view .LVU313
ARM GAS  C:\Users\57308\AppData\Local\Temp\cc8B5aw1.s 			page 31


 1161 0022 0122     		movs	r2, #1
 1162 0024 4FF40041 		mov	r1, #32768
 1163 0028 4FF09040 		mov	r0, #1207959552
 1164 002c FFF7FEFF 		bl	HAL_GPIO_WritePin
 1165              	.LVL77:
 380:Src/tim.c     **** }
 1166              		.loc 1 380 1 is_stmt 0 view .LVU314
 1167 0030 03B0     		add	sp, sp, #12
 1168              	.LCFI23:
 1169              		.cfi_def_cfa_offset 4
 1170              		@ sp needed
 1171 0032 5DF804FB 		ldr	pc, [sp], #4
 1172              	.L77:
 1173 0036 00BF     		.align	2
 1174              	.L76:
 1175 0038 00000000 		.word	Spi_pRxData
 1176 003c 00000000 		.word	Spi_TxData
 1177 0040 00000000 		.word	hspi1
 1178              		.cfi_endproc
 1179              	.LFE341:
 1181              		.global	htim2
 1182              		.global	htim1
 1183              		.section	.bss.htim1,"aw",%nobits
 1184              		.align	2
 1185              		.set	.LANCHOR1,. + 0
 1188              	htim1:
 1189 0000 00000000 		.space	76
 1189      00000000 
 1189      00000000 
 1189      00000000 
 1189      00000000 
 1190              		.section	.bss.htim2,"aw",%nobits
 1191              		.align	2
 1192              		.set	.LANCHOR0,. + 0
 1195              	htim2:
 1196 0000 00000000 		.space	76
 1196      00000000 
 1196      00000000 
 1196      00000000 
 1196      00000000 
 1197              		.text
 1198              	.Letext0:
 1199              		.file 2 "d:\\program files\\gcc-arm-none-eabi-10.3-2021.10\\arm-none-eabi\\include\\machine\\_defa
 1200              		.file 3 "d:\\program files\\gcc-arm-none-eabi-10.3-2021.10\\arm-none-eabi\\include\\sys\\_stdint.h
 1201              		.file 4 "Drivers/CMSIS/Device/ST/STM32G4xx/Include/stm32g431xx.h"
 1202              		.file 5 "Drivers/STM32G4xx_HAL_Driver/Inc/stm32g4xx_hal_def.h"
 1203              		.file 6 "Drivers/STM32G4xx_HAL_Driver/Inc/stm32g4xx_hal_gpio.h"
 1204              		.file 7 "Drivers/STM32G4xx_HAL_Driver/Inc/stm32g4xx_hal_dma.h"
 1205              		.file 8 "Drivers/STM32G4xx_HAL_Driver/Inc/stm32g4xx_hal_spi.h"
 1206              		.file 9 "Drivers/STM32G4xx_HAL_Driver/Inc/stm32g4xx_hal_tim.h"
 1207              		.file 10 "Inc/tim.h"
 1208              		.file 11 "Inc/spi.h"
 1209              		.file 12 "Drivers/STM32G4xx_HAL_Driver/Inc/stm32g4xx_hal_tim_ex.h"
 1210              		.file 13 "Drivers/STM32G4xx_HAL_Driver/Inc/stm32g4xx_hal_cortex.h"
 1211              		.file 14 "Inc/main.h"
 1212              		.file 15 "<built-in>"
ARM GAS  C:\Users\57308\AppData\Local\Temp\cc8B5aw1.s 			page 32


DEFINED SYMBOLS
                            *ABS*:00000000 tim.c
C:\Users\57308\AppData\Local\Temp\cc8B5aw1.s:20     .text.MX_TIM2_Init:00000000 $t
C:\Users\57308\AppData\Local\Temp\cc8B5aw1.s:26     .text.MX_TIM2_Init:00000000 MX_TIM2_Init
C:\Users\57308\AppData\Local\Temp\cc8B5aw1.s:137    .text.MX_TIM2_Init:00000068 $d
C:\Users\57308\AppData\Local\Temp\cc8B5aw1.s:142    .text.HAL_TIM_Base_MspInit:00000000 $t
C:\Users\57308\AppData\Local\Temp\cc8B5aw1.s:148    .text.HAL_TIM_Base_MspInit:00000000 HAL_TIM_Base_MspInit
C:\Users\57308\AppData\Local\Temp\cc8B5aw1.s:238    .text.HAL_TIM_Base_MspInit:00000058 $d
C:\Users\57308\AppData\Local\Temp\cc8B5aw1.s:244    .text.HAL_TIM_MspPostInit:00000000 $t
C:\Users\57308\AppData\Local\Temp\cc8B5aw1.s:250    .text.HAL_TIM_MspPostInit:00000000 HAL_TIM_MspPostInit
C:\Users\57308\AppData\Local\Temp\cc8B5aw1.s:421    .text.HAL_TIM_MspPostInit:000000ac $d
C:\Users\57308\AppData\Local\Temp\cc8B5aw1.s:427    .text.MX_TIM1_Init:00000000 $t
C:\Users\57308\AppData\Local\Temp\cc8B5aw1.s:433    .text.MX_TIM1_Init:00000000 MX_TIM1_Init
C:\Users\57308\AppData\Local\Temp\cc8B5aw1.s:742    .text.MX_TIM1_Init:00000148 $d
C:\Users\57308\AppData\Local\Temp\cc8B5aw1.s:748    .text.HAL_TIM_Base_MspDeInit:00000000 $t
C:\Users\57308\AppData\Local\Temp\cc8B5aw1.s:754    .text.HAL_TIM_Base_MspDeInit:00000000 HAL_TIM_Base_MspDeInit
C:\Users\57308\AppData\Local\Temp\cc8B5aw1.s:807    .text.HAL_TIM_Base_MspDeInit:00000034 $d
C:\Users\57308\AppData\Local\Temp\cc8B5aw1.s:813    .text.tim_set_pwm:00000000 $t
C:\Users\57308\AppData\Local\Temp\cc8B5aw1.s:819    .text.tim_set_pwm:00000000 tim_set_pwm
C:\Users\57308\AppData\Local\Temp\cc8B5aw1.s:875    .text.tim_set_pwm:00000040 $d
C:\Users\57308\AppData\Local\Temp\cc8B5aw1.s:881    .text.tim_pwm_enable_noirq:00000000 $t
C:\Users\57308\AppData\Local\Temp\cc8B5aw1.s:887    .text.tim_pwm_enable_noirq:00000000 tim_pwm_enable_noirq
C:\Users\57308\AppData\Local\Temp\cc8B5aw1.s:944    .text.tim_pwm_enable_noirq:00000040 $d
C:\Users\57308\AppData\Local\Temp\cc8B5aw1.s:949    .text.tim_pwm_enable:00000000 $t
C:\Users\57308\AppData\Local\Temp\cc8B5aw1.s:955    .text.tim_pwm_enable:00000000 tim_pwm_enable
C:\Users\57308\AppData\Local\Temp\cc8B5aw1.s:1012   .text.tim_pwm_enable:00000040 $d
C:\Users\57308\AppData\Local\Temp\cc8B5aw1.s:1017   .text.tim_pwm_disable:00000000 $t
C:\Users\57308\AppData\Local\Temp\cc8B5aw1.s:1023   .text.tim_pwm_disable:00000000 tim_pwm_disable
C:\Users\57308\AppData\Local\Temp\cc8B5aw1.s:1085   .text.tim_pwm_disable:00000048 $d
C:\Users\57308\AppData\Local\Temp\cc8B5aw1.s:1090   .text.tim_tigger_adc:00000000 $t
C:\Users\57308\AppData\Local\Temp\cc8B5aw1.s:1096   .text.tim_tigger_adc:00000000 tim_tigger_adc
C:\Users\57308\AppData\Local\Temp\cc8B5aw1.s:1117   .text.tim_tigger_adc:0000000c $d
C:\Users\57308\AppData\Local\Temp\cc8B5aw1.s:1122   .text.HAL_TIM_PeriodElapsedCallback:00000000 $t
C:\Users\57308\AppData\Local\Temp\cc8B5aw1.s:1128   .text.HAL_TIM_PeriodElapsedCallback:00000000 HAL_TIM_PeriodElapsedCallback
C:\Users\57308\AppData\Local\Temp\cc8B5aw1.s:1175   .text.HAL_TIM_PeriodElapsedCallback:00000038 $d
C:\Users\57308\AppData\Local\Temp\cc8B5aw1.s:1195   .bss.htim2:00000000 htim2
C:\Users\57308\AppData\Local\Temp\cc8B5aw1.s:1188   .bss.htim1:00000000 htim1
C:\Users\57308\AppData\Local\Temp\cc8B5aw1.s:1184   .bss.htim1:00000000 $d
C:\Users\57308\AppData\Local\Temp\cc8B5aw1.s:1191   .bss.htim2:00000000 $d

UNDEFINED SYMBOLS
HAL_TIM_Base_Init
HAL_TIM_ConfigClockSource
HAL_TIMEx_MasterConfigSynchronization
Error_Handler
HAL_NVIC_SetPriority
HAL_NVIC_EnableIRQ
HAL_GPIO_Init
memset
HAL_TIM_PWM_Init
HAL_TIM_PWM_ConfigChannel
HAL_TIMEx_ConfigBreakDeadTime
HAL_NVIC_DisableIRQ
HAL_TIM_PWM_Start
HAL_TIMEx_PWMN_Start
HAL_TIM_PWM_Stop
HAL_TIMEx_PWMN_Stop
ARM GAS  C:\Users\57308\AppData\Local\Temp\cc8B5aw1.s 			page 33


HAL_GPIO_WritePin
HAL_SPI_TransmitReceive
Spi_pRxData
Spi_TxData
hspi1
