ARM GAS  C:\Users\ADMINI~1\AppData\Local\Temp\cckbeWhj.s 			page 1


   1              		.cpu cortex-m4
   2              		.eabi_attribute 27, 1
   3              		.eabi_attribute 28, 1
   4              		.eabi_attribute 20, 1
   5              		.eabi_attribute 21, 1
   6              		.eabi_attribute 23, 3
   7              		.eabi_attribute 24, 1
   8              		.eabi_attribute 25, 1
   9              		.eabi_attribute 26, 1
  10              		.eabi_attribute 30, 1
  11              		.eabi_attribute 34, 1
  12              		.eabi_attribute 18, 4
  13              		.file	"tim.c"
  14              		.text
  15              	.Ltext0:
  16              		.cfi_sections	.debug_frame
  17              		.section	.text.max_val_01,"ax",%progbits
  18              		.align	1
  19              		.arch armv7e-m
  20              		.syntax unified
  21              		.thumb
  22              		.thumb_func
  23              		.fpu fpv4-sp-d16
  25              	max_val_01:
  26              	.LVL0:
  27              	.LFB333:
  28              		.file 1 "Src/tim.c"
   1:Src/tim.c     **** /* USER CODE BEGIN Header */
   2:Src/tim.c     **** /**
   3:Src/tim.c     ****   ******************************************************************************
   4:Src/tim.c     ****   * @file    tim.c
   5:Src/tim.c     ****   * @brief   This file provides code for the configuration
   6:Src/tim.c     ****   *          of the TIM instances.
   7:Src/tim.c     ****   ******************************************************************************
   8:Src/tim.c     ****   * @attention
   9:Src/tim.c     ****   *
  10:Src/tim.c     ****   * Copyright (c) 2023 STMicroelectronics.
  11:Src/tim.c     ****   * All rights reserved.
  12:Src/tim.c     ****   *
  13:Src/tim.c     ****   * This software is licensed under terms that can be found in the LICENSE file
  14:Src/tim.c     ****   * in the root directory of this software component.
  15:Src/tim.c     ****   * If no LICENSE file comes with this software, it is provided AS-IS.
  16:Src/tim.c     ****   *
  17:Src/tim.c     ****   ******************************************************************************
  18:Src/tim.c     ****   */
  19:Src/tim.c     **** /* USER CODE END Header */
  20:Src/tim.c     **** /* Includes ------------------------------------------------------------------*/
  21:Src/tim.c     **** #include "tim.h"
  22:Src/tim.c     **** 
  23:Src/tim.c     **** /* USER CODE BEGIN 0 */
  24:Src/tim.c     **** 
  25:Src/tim.c     **** /* USER CODE END 0 */
  26:Src/tim.c     **** 
  27:Src/tim.c     **** TIM_HandleTypeDef htim1;
  28:Src/tim.c     **** 
  29:Src/tim.c     **** /* TIM1 init function */
  30:Src/tim.c     **** void MX_TIM1_Init(void)
ARM GAS  C:\Users\ADMINI~1\AppData\Local\Temp\cckbeWhj.s 			page 2


  31:Src/tim.c     **** {
  32:Src/tim.c     **** 
  33:Src/tim.c     ****   /* USER CODE BEGIN TIM1_Init 0 */
  34:Src/tim.c     **** 
  35:Src/tim.c     ****   /* USER CODE END TIM1_Init 0 */
  36:Src/tim.c     **** 
  37:Src/tim.c     ****   TIM_ClockConfigTypeDef sClockSourceConfig = {0};
  38:Src/tim.c     ****   TIM_MasterConfigTypeDef sMasterConfig = {0};
  39:Src/tim.c     ****   TIM_OC_InitTypeDef sConfigOC = {0};
  40:Src/tim.c     ****   TIM_BreakDeadTimeConfigTypeDef sBreakDeadTimeConfig = {0};
  41:Src/tim.c     **** 
  42:Src/tim.c     ****   /* USER CODE BEGIN TIM1_Init 1 */
  43:Src/tim.c     **** 
  44:Src/tim.c     ****   /* USER CODE END TIM1_Init 1 */
  45:Src/tim.c     ****   htim1.Instance = TIM1;
  46:Src/tim.c     ****   htim1.Init.Prescaler = _PSC-1;
  47:Src/tim.c     ****   htim1.Init.CounterMode = TIM_COUNTERMODE_CENTERALIGNED1;
  48:Src/tim.c     ****   htim1.Init.Period = 8499;
  49:Src/tim.c     ****   htim1.Init.ClockDivision = TIM_CLOCKDIVISION_DIV2;
  50:Src/tim.c     ****   htim1.Init.RepetitionCounter = 0;
  51:Src/tim.c     ****   htim1.Init.AutoReloadPreload = TIM_AUTORELOAD_PRELOAD_DISABLE;
  52:Src/tim.c     ****   if (HAL_TIM_Base_Init(&htim1) != HAL_OK)
  53:Src/tim.c     ****   {
  54:Src/tim.c     ****     Error_Handler();
  55:Src/tim.c     ****   }
  56:Src/tim.c     ****   sClockSourceConfig.ClockSource = TIM_CLOCKSOURCE_INTERNAL;
  57:Src/tim.c     ****   if (HAL_TIM_ConfigClockSource(&htim1, &sClockSourceConfig) != HAL_OK)
  58:Src/tim.c     ****   {
  59:Src/tim.c     ****     Error_Handler();
  60:Src/tim.c     ****   }
  61:Src/tim.c     ****   if (HAL_TIM_PWM_Init(&htim1) != HAL_OK)
  62:Src/tim.c     ****   {
  63:Src/tim.c     ****     Error_Handler();
  64:Src/tim.c     ****   }
  65:Src/tim.c     ****   sMasterConfig.MasterOutputTrigger = TIM_TRGO_RESET;
  66:Src/tim.c     ****   sMasterConfig.MasterOutputTrigger2 = TIM_TRGO2_RESET;
  67:Src/tim.c     ****   sMasterConfig.MasterSlaveMode = TIM_MASTERSLAVEMODE_DISABLE;
  68:Src/tim.c     ****   if (HAL_TIMEx_MasterConfigSynchronization(&htim1, &sMasterConfig) != HAL_OK)
  69:Src/tim.c     ****   {
  70:Src/tim.c     ****     Error_Handler();
  71:Src/tim.c     ****   }
  72:Src/tim.c     ****   sConfigOC.OCMode = TIM_OCMODE_PWM1;
  73:Src/tim.c     ****   sConfigOC.Pulse = 0;
  74:Src/tim.c     ****   sConfigOC.OCPolarity = TIM_OCPOLARITY_HIGH;
  75:Src/tim.c     ****   sConfigOC.OCNPolarity = TIM_OCNPOLARITY_HIGH;
  76:Src/tim.c     ****   sConfigOC.OCFastMode = TIM_OCFAST_DISABLE;
  77:Src/tim.c     ****   sConfigOC.OCIdleState = TIM_OCIDLESTATE_RESET;
  78:Src/tim.c     ****   sConfigOC.OCNIdleState = TIM_OCNIDLESTATE_RESET;
  79:Src/tim.c     ****   if (HAL_TIM_PWM_ConfigChannel(&htim1, &sConfigOC, TIM_CHANNEL_1) != HAL_OK)
  80:Src/tim.c     ****   {
  81:Src/tim.c     ****     Error_Handler();
  82:Src/tim.c     ****   }
  83:Src/tim.c     ****   sConfigOC.Pulse = 1599;
  84:Src/tim.c     ****   if (HAL_TIM_PWM_ConfigChannel(&htim1, &sConfigOC, TIM_CHANNEL_2) != HAL_OK)
  85:Src/tim.c     ****   {
  86:Src/tim.c     ****     Error_Handler();
  87:Src/tim.c     ****   }
ARM GAS  C:\Users\ADMINI~1\AppData\Local\Temp\cckbeWhj.s 			page 3


  88:Src/tim.c     ****   sConfigOC.Pulse = 0;
  89:Src/tim.c     ****   if (HAL_TIM_PWM_ConfigChannel(&htim1, &sConfigOC, TIM_CHANNEL_3) != HAL_OK)
  90:Src/tim.c     ****   {
  91:Src/tim.c     ****     Error_Handler();
  92:Src/tim.c     ****   }
  93:Src/tim.c     ****   sConfigOC.Pulse = 1200;
  94:Src/tim.c     ****   if (HAL_TIM_PWM_ConfigChannel(&htim1, &sConfigOC, TIM_CHANNEL_4) != HAL_OK)
  95:Src/tim.c     ****   {
  96:Src/tim.c     ****     Error_Handler();
  97:Src/tim.c     ****   }
  98:Src/tim.c     ****   sBreakDeadTimeConfig.OffStateRunMode = TIM_OSSR_DISABLE;
  99:Src/tim.c     ****   sBreakDeadTimeConfig.OffStateIDLEMode = TIM_OSSI_DISABLE;
 100:Src/tim.c     ****   sBreakDeadTimeConfig.LockLevel = TIM_LOCKLEVEL_OFF;
 101:Src/tim.c     ****   sBreakDeadTimeConfig.DeadTime = 0;
 102:Src/tim.c     ****   sBreakDeadTimeConfig.BreakState = TIM_BREAK_DISABLE;
 103:Src/tim.c     ****   sBreakDeadTimeConfig.BreakPolarity = TIM_BREAKPOLARITY_HIGH;
 104:Src/tim.c     ****   sBreakDeadTimeConfig.BreakFilter = 0;
 105:Src/tim.c     ****   sBreakDeadTimeConfig.BreakAFMode = TIM_BREAK_AFMODE_INPUT;
 106:Src/tim.c     ****   sBreakDeadTimeConfig.Break2State = TIM_BREAK2_DISABLE;
 107:Src/tim.c     ****   sBreakDeadTimeConfig.Break2Polarity = TIM_BREAK2POLARITY_HIGH;
 108:Src/tim.c     ****   sBreakDeadTimeConfig.Break2Filter = 0;
 109:Src/tim.c     ****   sBreakDeadTimeConfig.Break2AFMode = TIM_BREAK_AFMODE_INPUT;
 110:Src/tim.c     ****   sBreakDeadTimeConfig.AutomaticOutput = TIM_AUTOMATICOUTPUT_DISABLE;
 111:Src/tim.c     ****   if (HAL_TIMEx_ConfigBreakDeadTime(&htim1, &sBreakDeadTimeConfig) != HAL_OK)
 112:Src/tim.c     ****   {
 113:Src/tim.c     ****     Error_Handler();
 114:Src/tim.c     ****   }
 115:Src/tim.c     ****   /* USER CODE BEGIN TIM1_Init 2 */
 116:Src/tim.c     **** 
 117:Src/tim.c     ****   /* USER CODE END TIM1_Init 2 */
 118:Src/tim.c     ****   HAL_TIM_MspPostInit(&htim1);
 119:Src/tim.c     **** 
 120:Src/tim.c     **** }
 121:Src/tim.c     **** 
 122:Src/tim.c     **** void HAL_TIM_Base_MspInit(TIM_HandleTypeDef* tim_baseHandle)
 123:Src/tim.c     **** {
 124:Src/tim.c     **** 
 125:Src/tim.c     ****   if(tim_baseHandle->Instance==TIM1)
 126:Src/tim.c     ****   {
 127:Src/tim.c     ****   /* USER CODE BEGIN TIM1_MspInit 0 */
 128:Src/tim.c     **** 
 129:Src/tim.c     ****   /* USER CODE END TIM1_MspInit 0 */
 130:Src/tim.c     ****     /* TIM1 clock enable */
 131:Src/tim.c     ****     __HAL_RCC_TIM1_CLK_ENABLE();
 132:Src/tim.c     ****   /* USER CODE BEGIN TIM1_MspInit 1 */
 133:Src/tim.c     **** 
 134:Src/tim.c     ****   /* USER CODE END TIM1_MspInit 1 */
 135:Src/tim.c     ****   }
 136:Src/tim.c     **** }
 137:Src/tim.c     **** void HAL_TIM_MspPostInit(TIM_HandleTypeDef* timHandle)
 138:Src/tim.c     **** {
 139:Src/tim.c     **** 
 140:Src/tim.c     ****   GPIO_InitTypeDef GPIO_InitStruct = {0};
 141:Src/tim.c     ****   if(timHandle->Instance==TIM1)
 142:Src/tim.c     ****   {
 143:Src/tim.c     ****   /* USER CODE BEGIN TIM1_MspPostInit 0 */
 144:Src/tim.c     **** 
ARM GAS  C:\Users\ADMINI~1\AppData\Local\Temp\cckbeWhj.s 			page 4


 145:Src/tim.c     ****   /* USER CODE END TIM1_MspPostInit 0 */
 146:Src/tim.c     **** 
 147:Src/tim.c     ****     __HAL_RCC_GPIOB_CLK_ENABLE();
 148:Src/tim.c     ****     __HAL_RCC_GPIOA_CLK_ENABLE();
 149:Src/tim.c     ****     /**TIM1 GPIO Configuration
 150:Src/tim.c     ****     PB13     ------> TIM1_CH1N
 151:Src/tim.c     ****     PB14     ------> TIM1_CH2N
 152:Src/tim.c     ****     PB15     ------> TIM1_CH3N
 153:Src/tim.c     ****     PA8     ------> TIM1_CH1
 154:Src/tim.c     ****     PA9     ------> TIM1_CH2
 155:Src/tim.c     ****     PA10     ------> TIM1_CH3
 156:Src/tim.c     ****     PA11     ------> TIM1_CH4
 157:Src/tim.c     ****     */
 158:Src/tim.c     ****     GPIO_InitStruct.Pin = GPIO_PIN_13|GPIO_PIN_14;
 159:Src/tim.c     ****     GPIO_InitStruct.Mode = GPIO_MODE_AF_PP;
 160:Src/tim.c     ****     GPIO_InitStruct.Pull = GPIO_NOPULL;
 161:Src/tim.c     ****     GPIO_InitStruct.Speed = GPIO_SPEED_FREQ_LOW;
 162:Src/tim.c     ****     GPIO_InitStruct.Alternate = GPIO_AF6_TIM1;
 163:Src/tim.c     ****     HAL_GPIO_Init(GPIOB, &GPIO_InitStruct);
 164:Src/tim.c     **** 
 165:Src/tim.c     ****     GPIO_InitStruct.Pin = GPIO_PIN_15;
 166:Src/tim.c     ****     GPIO_InitStruct.Mode = GPIO_MODE_AF_PP;
 167:Src/tim.c     ****     GPIO_InitStruct.Pull = GPIO_NOPULL;
 168:Src/tim.c     ****     GPIO_InitStruct.Speed = GPIO_SPEED_FREQ_LOW;
 169:Src/tim.c     ****     GPIO_InitStruct.Alternate = GPIO_AF4_TIM1;
 170:Src/tim.c     ****     HAL_GPIO_Init(GPIOB, &GPIO_InitStruct);
 171:Src/tim.c     **** 
 172:Src/tim.c     ****     GPIO_InitStruct.Pin = GPIO_PIN_8|GPIO_PIN_9|GPIO_PIN_10;
 173:Src/tim.c     ****     GPIO_InitStruct.Mode = GPIO_MODE_AF_PP;
 174:Src/tim.c     ****     GPIO_InitStruct.Pull = GPIO_NOPULL;
 175:Src/tim.c     ****     GPIO_InitStruct.Speed = GPIO_SPEED_FREQ_LOW;
 176:Src/tim.c     ****     GPIO_InitStruct.Alternate = GPIO_AF6_TIM1;
 177:Src/tim.c     ****     HAL_GPIO_Init(GPIOA, &GPIO_InitStruct);
 178:Src/tim.c     **** 
 179:Src/tim.c     ****     GPIO_InitStruct.Pin = GPIO_PIN_11;
 180:Src/tim.c     ****     GPIO_InitStruct.Mode = GPIO_MODE_AF_PP;
 181:Src/tim.c     ****     GPIO_InitStruct.Pull = GPIO_NOPULL;
 182:Src/tim.c     ****     GPIO_InitStruct.Speed = GPIO_SPEED_FREQ_LOW;
 183:Src/tim.c     ****     GPIO_InitStruct.Alternate = GPIO_AF11_TIM1;
 184:Src/tim.c     ****     HAL_GPIO_Init(GPIOA, &GPIO_InitStruct);
 185:Src/tim.c     **** 
 186:Src/tim.c     ****   /* USER CODE BEGIN TIM1_MspPostInit 1 */
 187:Src/tim.c     **** 
 188:Src/tim.c     ****   /* USER CODE END TIM1_MspPostInit 1 */
 189:Src/tim.c     ****   }
 190:Src/tim.c     **** 
 191:Src/tim.c     **** }
 192:Src/tim.c     **** 
 193:Src/tim.c     **** void HAL_TIM_Base_MspDeInit(TIM_HandleTypeDef* tim_baseHandle)
 194:Src/tim.c     **** {
 195:Src/tim.c     **** 
 196:Src/tim.c     ****   if(tim_baseHandle->Instance==TIM1)
 197:Src/tim.c     ****   {
 198:Src/tim.c     ****   /* USER CODE BEGIN TIM1_MspDeInit 0 */
 199:Src/tim.c     **** 
 200:Src/tim.c     ****   /* USER CODE END TIM1_MspDeInit 0 */
 201:Src/tim.c     ****     /* Peripheral clock disable */
ARM GAS  C:\Users\ADMINI~1\AppData\Local\Temp\cckbeWhj.s 			page 5


 202:Src/tim.c     ****     __HAL_RCC_TIM1_CLK_DISABLE();
 203:Src/tim.c     ****   /* USER CODE BEGIN TIM1_MspDeInit 1 */
 204:Src/tim.c     **** 
 205:Src/tim.c     ****   /* USER CODE END TIM1_MspDeInit 1 */
 206:Src/tim.c     ****   }
 207:Src/tim.c     **** }
 208:Src/tim.c     **** 
 209:Src/tim.c     **** /* USER CODE BEGIN 1 */
 210:Src/tim.c     **** #include "adc.h"
 211:Src/tim.c     **** 
 212:Src/tim.c     **** static unsigned short max_val_01(unsigned short a,unsigned short b,unsigned short c)
 213:Src/tim.c     **** {
  29              		.loc 1 213 1 view -0
  30              		.cfi_startproc
  31              		@ args = 0, pretend = 0, frame = 0
  32              		@ frame_needed = 0, uses_anonymous_args = 0
  33              		@ link register save eliminated.
 214:Src/tim.c     **** 	short max;
  34              		.loc 1 214 2 view .LVU1
 215:Src/tim.c     **** 	if(a>b)
  35              		.loc 1 215 2 view .LVU2
  36              		.loc 1 215 4 is_stmt 0 view .LVU3
  37 0000 8842     		cmp	r0, r1
  38 0002 05D9     		bls	.L2
 216:Src/tim.c     **** 	{
 217:Src/tim.c     **** 		max = a;
  39              		.loc 1 217 3 is_stmt 1 view .LVU4
  40              		.loc 1 217 7 is_stmt 0 view .LVU5
  41 0004 00B2     		sxth	r0, r0
  42              	.LVL1:
  43              	.L3:
 218:Src/tim.c     **** 	}else{
 219:Src/tim.c     **** 		max = b;
 220:Src/tim.c     **** 	}
 221:Src/tim.c     **** 	if(c>max)
  44              		.loc 1 221 2 is_stmt 1 view .LVU6
  45              		.loc 1 221 4 is_stmt 0 view .LVU7
  46 0006 8242     		cmp	r2, r0
  47 0008 00DD     		ble	.L4
 222:Src/tim.c     **** 	{
 223:Src/tim.c     **** 		max = c;
  48              		.loc 1 223 3 is_stmt 1 view .LVU8
  49              		.loc 1 223 7 is_stmt 0 view .LVU9
  50 000a 10B2     		sxth	r0, r2
  51              	.LVL2:
  52              	.L4:
 224:Src/tim.c     **** 	}
 225:Src/tim.c     **** 	return max;
  53              		.loc 1 225 2 is_stmt 1 view .LVU10
 226:Src/tim.c     **** }
  54              		.loc 1 226 1 is_stmt 0 view .LVU11
  55 000c 80B2     		uxth	r0, r0
  56              		.loc 1 226 1 view .LVU12
  57 000e 7047     		bx	lr
  58              	.LVL3:
  59              	.L2:
 219:Src/tim.c     **** 	}
ARM GAS  C:\Users\ADMINI~1\AppData\Local\Temp\cckbeWhj.s 			page 6


  60              		.loc 1 219 3 is_stmt 1 view .LVU13
 219:Src/tim.c     **** 	}
  61              		.loc 1 219 7 is_stmt 0 view .LVU14
  62 0010 08B2     		sxth	r0, r1
  63              	.LVL4:
 219:Src/tim.c     **** 	}
  64              		.loc 1 219 7 view .LVU15
  65 0012 F8E7     		b	.L3
  66              		.cfi_endproc
  67              	.LFE333:
  69              		.section	.text.HAL_TIM_Base_MspInit,"ax",%progbits
  70              		.align	1
  71              		.global	HAL_TIM_Base_MspInit
  72              		.syntax unified
  73              		.thumb
  74              		.thumb_func
  75              		.fpu fpv4-sp-d16
  77              	HAL_TIM_Base_MspInit:
  78              	.LVL5:
  79              	.LFB330:
 123:Src/tim.c     **** 
  80              		.loc 1 123 1 is_stmt 1 view -0
  81              		.cfi_startproc
  82              		@ args = 0, pretend = 0, frame = 8
  83              		@ frame_needed = 0, uses_anonymous_args = 0
  84              		@ link register save eliminated.
 125:Src/tim.c     ****   {
  85              		.loc 1 125 3 view .LVU17
 125:Src/tim.c     ****   {
  86              		.loc 1 125 20 is_stmt 0 view .LVU18
  87 0000 0268     		ldr	r2, [r0]
 125:Src/tim.c     ****   {
  88              		.loc 1 125 5 view .LVU19
  89 0002 094B     		ldr	r3, .L12
  90 0004 9A42     		cmp	r2, r3
  91 0006 00D0     		beq	.L11
  92 0008 7047     		bx	lr
  93              	.L11:
 123:Src/tim.c     **** 
  94              		.loc 1 123 1 view .LVU20
  95 000a 82B0     		sub	sp, sp, #8
  96              	.LCFI0:
  97              		.cfi_def_cfa_offset 8
 131:Src/tim.c     ****   /* USER CODE BEGIN TIM1_MspInit 1 */
  98              		.loc 1 131 5 is_stmt 1 view .LVU21
  99              	.LBB2:
 131:Src/tim.c     ****   /* USER CODE BEGIN TIM1_MspInit 1 */
 100              		.loc 1 131 5 view .LVU22
 131:Src/tim.c     ****   /* USER CODE BEGIN TIM1_MspInit 1 */
 101              		.loc 1 131 5 view .LVU23
 102 000c 03F56443 		add	r3, r3, #58368
 103 0010 1A6E     		ldr	r2, [r3, #96]
 104 0012 42F40062 		orr	r2, r2, #2048
 105 0016 1A66     		str	r2, [r3, #96]
 131:Src/tim.c     ****   /* USER CODE BEGIN TIM1_MspInit 1 */
 106              		.loc 1 131 5 view .LVU24
 107 0018 1B6E     		ldr	r3, [r3, #96]
ARM GAS  C:\Users\ADMINI~1\AppData\Local\Temp\cckbeWhj.s 			page 7


 108 001a 03F40063 		and	r3, r3, #2048
 109 001e 0193     		str	r3, [sp, #4]
 131:Src/tim.c     ****   /* USER CODE BEGIN TIM1_MspInit 1 */
 110              		.loc 1 131 5 view .LVU25
 111 0020 019B     		ldr	r3, [sp, #4]
 112              	.LBE2:
 131:Src/tim.c     ****   /* USER CODE BEGIN TIM1_MspInit 1 */
 113              		.loc 1 131 5 view .LVU26
 136:Src/tim.c     **** void HAL_TIM_MspPostInit(TIM_HandleTypeDef* timHandle)
 114              		.loc 1 136 1 is_stmt 0 view .LVU27
 115 0022 02B0     		add	sp, sp, #8
 116              	.LCFI1:
 117              		.cfi_def_cfa_offset 0
 118              		@ sp needed
 119 0024 7047     		bx	lr
 120              	.L13:
 121 0026 00BF     		.align	2
 122              	.L12:
 123 0028 002C0140 		.word	1073818624
 124              		.cfi_endproc
 125              	.LFE330:
 127              		.section	.text.HAL_TIM_MspPostInit,"ax",%progbits
 128              		.align	1
 129              		.global	HAL_TIM_MspPostInit
 130              		.syntax unified
 131              		.thumb
 132              		.thumb_func
 133              		.fpu fpv4-sp-d16
 135              	HAL_TIM_MspPostInit:
 136              	.LVL6:
 137              	.LFB331:
 138:Src/tim.c     **** 
 138              		.loc 1 138 1 is_stmt 1 view -0
 139              		.cfi_startproc
 140              		@ args = 0, pretend = 0, frame = 32
 141              		@ frame_needed = 0, uses_anonymous_args = 0
 138:Src/tim.c     **** 
 142              		.loc 1 138 1 is_stmt 0 view .LVU29
 143 0000 F0B5     		push	{r4, r5, r6, r7, lr}
 144              	.LCFI2:
 145              		.cfi_def_cfa_offset 20
 146              		.cfi_offset 4, -20
 147              		.cfi_offset 5, -16
 148              		.cfi_offset 6, -12
 149              		.cfi_offset 7, -8
 150              		.cfi_offset 14, -4
 151 0002 89B0     		sub	sp, sp, #36
 152              	.LCFI3:
 153              		.cfi_def_cfa_offset 56
 140:Src/tim.c     ****   if(timHandle->Instance==TIM1)
 154              		.loc 1 140 3 is_stmt 1 view .LVU30
 140:Src/tim.c     ****   if(timHandle->Instance==TIM1)
 155              		.loc 1 140 20 is_stmt 0 view .LVU31
 156 0004 0023     		movs	r3, #0
 157 0006 0393     		str	r3, [sp, #12]
 158 0008 0493     		str	r3, [sp, #16]
 159 000a 0593     		str	r3, [sp, #20]
ARM GAS  C:\Users\ADMINI~1\AppData\Local\Temp\cckbeWhj.s 			page 8


 160 000c 0693     		str	r3, [sp, #24]
 161 000e 0793     		str	r3, [sp, #28]
 141:Src/tim.c     ****   {
 162              		.loc 1 141 3 is_stmt 1 view .LVU32
 141:Src/tim.c     ****   {
 163              		.loc 1 141 15 is_stmt 0 view .LVU33
 164 0010 0268     		ldr	r2, [r0]
 141:Src/tim.c     ****   {
 165              		.loc 1 141 5 view .LVU34
 166 0012 264B     		ldr	r3, .L18
 167 0014 9A42     		cmp	r2, r3
 168 0016 01D0     		beq	.L17
 169              	.LVL7:
 170              	.L14:
 191:Src/tim.c     **** 
 171              		.loc 1 191 1 view .LVU35
 172 0018 09B0     		add	sp, sp, #36
 173              	.LCFI4:
 174              		.cfi_remember_state
 175              		.cfi_def_cfa_offset 20
 176              		@ sp needed
 177 001a F0BD     		pop	{r4, r5, r6, r7, pc}
 178              	.LVL8:
 179              	.L17:
 180              	.LCFI5:
 181              		.cfi_restore_state
 147:Src/tim.c     ****     __HAL_RCC_GPIOA_CLK_ENABLE();
 182              		.loc 1 147 5 is_stmt 1 view .LVU36
 183              	.LBB3:
 147:Src/tim.c     ****     __HAL_RCC_GPIOA_CLK_ENABLE();
 184              		.loc 1 147 5 view .LVU37
 147:Src/tim.c     ****     __HAL_RCC_GPIOA_CLK_ENABLE();
 185              		.loc 1 147 5 view .LVU38
 186 001c 03F56443 		add	r3, r3, #58368
 187 0020 DA6C     		ldr	r2, [r3, #76]
 188 0022 42F00202 		orr	r2, r2, #2
 189 0026 DA64     		str	r2, [r3, #76]
 147:Src/tim.c     ****     __HAL_RCC_GPIOA_CLK_ENABLE();
 190              		.loc 1 147 5 view .LVU39
 191 0028 DA6C     		ldr	r2, [r3, #76]
 192 002a 02F00202 		and	r2, r2, #2
 193 002e 0192     		str	r2, [sp, #4]
 147:Src/tim.c     ****     __HAL_RCC_GPIOA_CLK_ENABLE();
 194              		.loc 1 147 5 view .LVU40
 195 0030 019A     		ldr	r2, [sp, #4]
 196              	.LBE3:
 147:Src/tim.c     ****     __HAL_RCC_GPIOA_CLK_ENABLE();
 197              		.loc 1 147 5 view .LVU41
 148:Src/tim.c     ****     /**TIM1 GPIO Configuration
 198              		.loc 1 148 5 view .LVU42
 199              	.LBB4:
 148:Src/tim.c     ****     /**TIM1 GPIO Configuration
 200              		.loc 1 148 5 view .LVU43
 148:Src/tim.c     ****     /**TIM1 GPIO Configuration
 201              		.loc 1 148 5 view .LVU44
 202 0032 DA6C     		ldr	r2, [r3, #76]
 203 0034 42F00102 		orr	r2, r2, #1
ARM GAS  C:\Users\ADMINI~1\AppData\Local\Temp\cckbeWhj.s 			page 9


 204 0038 DA64     		str	r2, [r3, #76]
 148:Src/tim.c     ****     /**TIM1 GPIO Configuration
 205              		.loc 1 148 5 view .LVU45
 206 003a DB6C     		ldr	r3, [r3, #76]
 207 003c 03F00103 		and	r3, r3, #1
 208 0040 0293     		str	r3, [sp, #8]
 148:Src/tim.c     ****     /**TIM1 GPIO Configuration
 209              		.loc 1 148 5 view .LVU46
 210 0042 029B     		ldr	r3, [sp, #8]
 211              	.LBE4:
 148:Src/tim.c     ****     /**TIM1 GPIO Configuration
 212              		.loc 1 148 5 view .LVU47
 158:Src/tim.c     ****     GPIO_InitStruct.Mode = GPIO_MODE_AF_PP;
 213              		.loc 1 158 5 view .LVU48
 158:Src/tim.c     ****     GPIO_InitStruct.Mode = GPIO_MODE_AF_PP;
 214              		.loc 1 158 25 is_stmt 0 view .LVU49
 215 0044 4FF4C043 		mov	r3, #24576
 216 0048 0393     		str	r3, [sp, #12]
 159:Src/tim.c     ****     GPIO_InitStruct.Pull = GPIO_NOPULL;
 217              		.loc 1 159 5 is_stmt 1 view .LVU50
 159:Src/tim.c     ****     GPIO_InitStruct.Pull = GPIO_NOPULL;
 218              		.loc 1 159 26 is_stmt 0 view .LVU51
 219 004a 0225     		movs	r5, #2
 220 004c 0495     		str	r5, [sp, #16]
 160:Src/tim.c     ****     GPIO_InitStruct.Speed = GPIO_SPEED_FREQ_LOW;
 221              		.loc 1 160 5 is_stmt 1 view .LVU52
 161:Src/tim.c     ****     GPIO_InitStruct.Alternate = GPIO_AF6_TIM1;
 222              		.loc 1 161 5 view .LVU53
 162:Src/tim.c     ****     HAL_GPIO_Init(GPIOB, &GPIO_InitStruct);
 223              		.loc 1 162 5 view .LVU54
 162:Src/tim.c     ****     HAL_GPIO_Init(GPIOB, &GPIO_InitStruct);
 224              		.loc 1 162 31 is_stmt 0 view .LVU55
 225 004e 0626     		movs	r6, #6
 226 0050 0796     		str	r6, [sp, #28]
 163:Src/tim.c     **** 
 227              		.loc 1 163 5 is_stmt 1 view .LVU56
 228 0052 174F     		ldr	r7, .L18+4
 229 0054 03A9     		add	r1, sp, #12
 230 0056 3846     		mov	r0, r7
 231              	.LVL9:
 163:Src/tim.c     **** 
 232              		.loc 1 163 5 is_stmt 0 view .LVU57
 233 0058 FFF7FEFF 		bl	HAL_GPIO_Init
 234              	.LVL10:
 165:Src/tim.c     ****     GPIO_InitStruct.Mode = GPIO_MODE_AF_PP;
 235              		.loc 1 165 5 is_stmt 1 view .LVU58
 165:Src/tim.c     ****     GPIO_InitStruct.Mode = GPIO_MODE_AF_PP;
 236              		.loc 1 165 25 is_stmt 0 view .LVU59
 237 005c 4FF40043 		mov	r3, #32768
 238 0060 0393     		str	r3, [sp, #12]
 166:Src/tim.c     ****     GPIO_InitStruct.Pull = GPIO_NOPULL;
 239              		.loc 1 166 5 is_stmt 1 view .LVU60
 166:Src/tim.c     ****     GPIO_InitStruct.Pull = GPIO_NOPULL;
 240              		.loc 1 166 26 is_stmt 0 view .LVU61
 241 0062 0495     		str	r5, [sp, #16]
 167:Src/tim.c     ****     GPIO_InitStruct.Speed = GPIO_SPEED_FREQ_LOW;
 242              		.loc 1 167 5 is_stmt 1 view .LVU62
ARM GAS  C:\Users\ADMINI~1\AppData\Local\Temp\cckbeWhj.s 			page 10


 167:Src/tim.c     ****     GPIO_InitStruct.Speed = GPIO_SPEED_FREQ_LOW;
 243              		.loc 1 167 26 is_stmt 0 view .LVU63
 244 0064 0024     		movs	r4, #0
 245 0066 0594     		str	r4, [sp, #20]
 168:Src/tim.c     ****     GPIO_InitStruct.Alternate = GPIO_AF4_TIM1;
 246              		.loc 1 168 5 is_stmt 1 view .LVU64
 168:Src/tim.c     ****     GPIO_InitStruct.Alternate = GPIO_AF4_TIM1;
 247              		.loc 1 168 27 is_stmt 0 view .LVU65
 248 0068 0694     		str	r4, [sp, #24]
 169:Src/tim.c     ****     HAL_GPIO_Init(GPIOB, &GPIO_InitStruct);
 249              		.loc 1 169 5 is_stmt 1 view .LVU66
 169:Src/tim.c     ****     HAL_GPIO_Init(GPIOB, &GPIO_InitStruct);
 250              		.loc 1 169 31 is_stmt 0 view .LVU67
 251 006a 0423     		movs	r3, #4
 252 006c 0793     		str	r3, [sp, #28]
 170:Src/tim.c     **** 
 253              		.loc 1 170 5 is_stmt 1 view .LVU68
 254 006e 03A9     		add	r1, sp, #12
 255 0070 3846     		mov	r0, r7
 256 0072 FFF7FEFF 		bl	HAL_GPIO_Init
 257              	.LVL11:
 172:Src/tim.c     ****     GPIO_InitStruct.Mode = GPIO_MODE_AF_PP;
 258              		.loc 1 172 5 view .LVU69
 172:Src/tim.c     ****     GPIO_InitStruct.Mode = GPIO_MODE_AF_PP;
 259              		.loc 1 172 25 is_stmt 0 view .LVU70
 260 0076 4FF4E063 		mov	r3, #1792
 261 007a 0393     		str	r3, [sp, #12]
 173:Src/tim.c     ****     GPIO_InitStruct.Pull = GPIO_NOPULL;
 262              		.loc 1 173 5 is_stmt 1 view .LVU71
 173:Src/tim.c     ****     GPIO_InitStruct.Pull = GPIO_NOPULL;
 263              		.loc 1 173 26 is_stmt 0 view .LVU72
 264 007c 0495     		str	r5, [sp, #16]
 174:Src/tim.c     ****     GPIO_InitStruct.Speed = GPIO_SPEED_FREQ_LOW;
 265              		.loc 1 174 5 is_stmt 1 view .LVU73
 174:Src/tim.c     ****     GPIO_InitStruct.Speed = GPIO_SPEED_FREQ_LOW;
 266              		.loc 1 174 26 is_stmt 0 view .LVU74
 267 007e 0594     		str	r4, [sp, #20]
 175:Src/tim.c     ****     GPIO_InitStruct.Alternate = GPIO_AF6_TIM1;
 268              		.loc 1 175 5 is_stmt 1 view .LVU75
 175:Src/tim.c     ****     GPIO_InitStruct.Alternate = GPIO_AF6_TIM1;
 269              		.loc 1 175 27 is_stmt 0 view .LVU76
 270 0080 0694     		str	r4, [sp, #24]
 176:Src/tim.c     ****     HAL_GPIO_Init(GPIOA, &GPIO_InitStruct);
 271              		.loc 1 176 5 is_stmt 1 view .LVU77
 176:Src/tim.c     ****     HAL_GPIO_Init(GPIOA, &GPIO_InitStruct);
 272              		.loc 1 176 31 is_stmt 0 view .LVU78
 273 0082 0796     		str	r6, [sp, #28]
 177:Src/tim.c     **** 
 274              		.loc 1 177 5 is_stmt 1 view .LVU79
 275 0084 03A9     		add	r1, sp, #12
 276 0086 4FF09040 		mov	r0, #1207959552
 277 008a FFF7FEFF 		bl	HAL_GPIO_Init
 278              	.LVL12:
 179:Src/tim.c     ****     GPIO_InitStruct.Mode = GPIO_MODE_AF_PP;
 279              		.loc 1 179 5 view .LVU80
 179:Src/tim.c     ****     GPIO_InitStruct.Mode = GPIO_MODE_AF_PP;
 280              		.loc 1 179 25 is_stmt 0 view .LVU81
ARM GAS  C:\Users\ADMINI~1\AppData\Local\Temp\cckbeWhj.s 			page 11


 281 008e 4FF40063 		mov	r3, #2048
 282 0092 0393     		str	r3, [sp, #12]
 180:Src/tim.c     ****     GPIO_InitStruct.Pull = GPIO_NOPULL;
 283              		.loc 1 180 5 is_stmt 1 view .LVU82
 180:Src/tim.c     ****     GPIO_InitStruct.Pull = GPIO_NOPULL;
 284              		.loc 1 180 26 is_stmt 0 view .LVU83
 285 0094 0495     		str	r5, [sp, #16]
 181:Src/tim.c     ****     GPIO_InitStruct.Speed = GPIO_SPEED_FREQ_LOW;
 286              		.loc 1 181 5 is_stmt 1 view .LVU84
 181:Src/tim.c     ****     GPIO_InitStruct.Speed = GPIO_SPEED_FREQ_LOW;
 287              		.loc 1 181 26 is_stmt 0 view .LVU85
 288 0096 0594     		str	r4, [sp, #20]
 182:Src/tim.c     ****     GPIO_InitStruct.Alternate = GPIO_AF11_TIM1;
 289              		.loc 1 182 5 is_stmt 1 view .LVU86
 182:Src/tim.c     ****     GPIO_InitStruct.Alternate = GPIO_AF11_TIM1;
 290              		.loc 1 182 27 is_stmt 0 view .LVU87
 291 0098 0694     		str	r4, [sp, #24]
 183:Src/tim.c     ****     HAL_GPIO_Init(GPIOA, &GPIO_InitStruct);
 292              		.loc 1 183 5 is_stmt 1 view .LVU88
 183:Src/tim.c     ****     HAL_GPIO_Init(GPIOA, &GPIO_InitStruct);
 293              		.loc 1 183 31 is_stmt 0 view .LVU89
 294 009a 0B23     		movs	r3, #11
 295 009c 0793     		str	r3, [sp, #28]
 184:Src/tim.c     **** 
 296              		.loc 1 184 5 is_stmt 1 view .LVU90
 297 009e 03A9     		add	r1, sp, #12
 298 00a0 4FF09040 		mov	r0, #1207959552
 299 00a4 FFF7FEFF 		bl	HAL_GPIO_Init
 300              	.LVL13:
 191:Src/tim.c     **** 
 301              		.loc 1 191 1 is_stmt 0 view .LVU91
 302 00a8 B6E7     		b	.L14
 303              	.L19:
 304 00aa 00BF     		.align	2
 305              	.L18:
 306 00ac 002C0140 		.word	1073818624
 307 00b0 00040048 		.word	1207960576
 308              		.cfi_endproc
 309              	.LFE331:
 311              		.section	.text.MX_TIM1_Init,"ax",%progbits
 312              		.align	1
 313              		.global	MX_TIM1_Init
 314              		.syntax unified
 315              		.thumb
 316              		.thumb_func
 317              		.fpu fpv4-sp-d16
 319              	MX_TIM1_Init:
 320              	.LFB329:
  31:Src/tim.c     **** 
 321              		.loc 1 31 1 is_stmt 1 view -0
 322              		.cfi_startproc
 323              		@ args = 0, pretend = 0, frame = 112
 324              		@ frame_needed = 0, uses_anonymous_args = 0
 325 0000 10B5     		push	{r4, lr}
 326              	.LCFI6:
 327              		.cfi_def_cfa_offset 8
 328              		.cfi_offset 4, -8
ARM GAS  C:\Users\ADMINI~1\AppData\Local\Temp\cckbeWhj.s 			page 12


 329              		.cfi_offset 14, -4
 330 0002 9CB0     		sub	sp, sp, #112
 331              	.LCFI7:
 332              		.cfi_def_cfa_offset 120
  37:Src/tim.c     ****   TIM_MasterConfigTypeDef sMasterConfig = {0};
 333              		.loc 1 37 3 view .LVU93
  37:Src/tim.c     ****   TIM_MasterConfigTypeDef sMasterConfig = {0};
 334              		.loc 1 37 26 is_stmt 0 view .LVU94
 335 0004 0024     		movs	r4, #0
 336 0006 1894     		str	r4, [sp, #96]
 337 0008 1994     		str	r4, [sp, #100]
 338 000a 1A94     		str	r4, [sp, #104]
 339 000c 1B94     		str	r4, [sp, #108]
  38:Src/tim.c     ****   TIM_OC_InitTypeDef sConfigOC = {0};
 340              		.loc 1 38 3 is_stmt 1 view .LVU95
  38:Src/tim.c     ****   TIM_OC_InitTypeDef sConfigOC = {0};
 341              		.loc 1 38 27 is_stmt 0 view .LVU96
 342 000e 1594     		str	r4, [sp, #84]
 343 0010 1694     		str	r4, [sp, #88]
 344 0012 1794     		str	r4, [sp, #92]
  39:Src/tim.c     ****   TIM_BreakDeadTimeConfigTypeDef sBreakDeadTimeConfig = {0};
 345              		.loc 1 39 3 is_stmt 1 view .LVU97
  39:Src/tim.c     ****   TIM_BreakDeadTimeConfigTypeDef sBreakDeadTimeConfig = {0};
 346              		.loc 1 39 22 is_stmt 0 view .LVU98
 347 0014 0E94     		str	r4, [sp, #56]
 348 0016 0F94     		str	r4, [sp, #60]
 349 0018 1094     		str	r4, [sp, #64]
 350 001a 1194     		str	r4, [sp, #68]
 351 001c 1294     		str	r4, [sp, #72]
 352 001e 1394     		str	r4, [sp, #76]
 353 0020 1494     		str	r4, [sp, #80]
  40:Src/tim.c     **** 
 354              		.loc 1 40 3 is_stmt 1 view .LVU99
  40:Src/tim.c     **** 
 355              		.loc 1 40 34 is_stmt 0 view .LVU100
 356 0022 3422     		movs	r2, #52
 357 0024 2146     		mov	r1, r4
 358 0026 01A8     		add	r0, sp, #4
 359 0028 FFF7FEFF 		bl	memset
 360              	.LVL14:
  45:Src/tim.c     ****   htim1.Init.Prescaler = _PSC-1;
 361              		.loc 1 45 3 is_stmt 1 view .LVU101
  45:Src/tim.c     ****   htim1.Init.Prescaler = _PSC-1;
 362              		.loc 1 45 18 is_stmt 0 view .LVU102
 363 002c 4648     		ldr	r0, .L40
 364 002e 474B     		ldr	r3, .L40+4
 365 0030 0360     		str	r3, [r0]
  46:Src/tim.c     ****   htim1.Init.CounterMode = TIM_COUNTERMODE_CENTERALIGNED1;
 366              		.loc 1 46 3 is_stmt 1 view .LVU103
  46:Src/tim.c     ****   htim1.Init.CounterMode = TIM_COUNTERMODE_CENTERALIGNED1;
 367              		.loc 1 46 24 is_stmt 0 view .LVU104
 368 0032 4460     		str	r4, [r0, #4]
  47:Src/tim.c     ****   htim1.Init.Period = 8499;
 369              		.loc 1 47 3 is_stmt 1 view .LVU105
  47:Src/tim.c     ****   htim1.Init.Period = 8499;
 370              		.loc 1 47 26 is_stmt 0 view .LVU106
 371 0034 2023     		movs	r3, #32
ARM GAS  C:\Users\ADMINI~1\AppData\Local\Temp\cckbeWhj.s 			page 13


 372 0036 8360     		str	r3, [r0, #8]
  48:Src/tim.c     ****   htim1.Init.ClockDivision = TIM_CLOCKDIVISION_DIV2;
 373              		.loc 1 48 3 is_stmt 1 view .LVU107
  48:Src/tim.c     ****   htim1.Init.ClockDivision = TIM_CLOCKDIVISION_DIV2;
 374              		.loc 1 48 21 is_stmt 0 view .LVU108
 375 0038 42F23313 		movw	r3, #8499
 376 003c C360     		str	r3, [r0, #12]
  49:Src/tim.c     ****   htim1.Init.RepetitionCounter = 0;
 377              		.loc 1 49 3 is_stmt 1 view .LVU109
  49:Src/tim.c     ****   htim1.Init.RepetitionCounter = 0;
 378              		.loc 1 49 28 is_stmt 0 view .LVU110
 379 003e 4FF48073 		mov	r3, #256
 380 0042 0361     		str	r3, [r0, #16]
  50:Src/tim.c     ****   htim1.Init.AutoReloadPreload = TIM_AUTORELOAD_PRELOAD_DISABLE;
 381              		.loc 1 50 3 is_stmt 1 view .LVU111
  50:Src/tim.c     ****   htim1.Init.AutoReloadPreload = TIM_AUTORELOAD_PRELOAD_DISABLE;
 382              		.loc 1 50 32 is_stmt 0 view .LVU112
 383 0044 4461     		str	r4, [r0, #20]
  51:Src/tim.c     ****   if (HAL_TIM_Base_Init(&htim1) != HAL_OK)
 384              		.loc 1 51 3 is_stmt 1 view .LVU113
  51:Src/tim.c     ****   if (HAL_TIM_Base_Init(&htim1) != HAL_OK)
 385              		.loc 1 51 32 is_stmt 0 view .LVU114
 386 0046 8461     		str	r4, [r0, #24]
  52:Src/tim.c     ****   {
 387              		.loc 1 52 3 is_stmt 1 view .LVU115
  52:Src/tim.c     ****   {
 388              		.loc 1 52 7 is_stmt 0 view .LVU116
 389 0048 FFF7FEFF 		bl	HAL_TIM_Base_Init
 390              	.LVL15:
  52:Src/tim.c     ****   {
 391              		.loc 1 52 6 view .LVU117
 392 004c 0028     		cmp	r0, #0
 393 004e 5FD1     		bne	.L31
 394              	.L21:
  56:Src/tim.c     ****   if (HAL_TIM_ConfigClockSource(&htim1, &sClockSourceConfig) != HAL_OK)
 395              		.loc 1 56 3 is_stmt 1 view .LVU118
  56:Src/tim.c     ****   if (HAL_TIM_ConfigClockSource(&htim1, &sClockSourceConfig) != HAL_OK)
 396              		.loc 1 56 34 is_stmt 0 view .LVU119
 397 0050 4FF48053 		mov	r3, #4096
 398 0054 1893     		str	r3, [sp, #96]
  57:Src/tim.c     ****   {
 399              		.loc 1 57 3 is_stmt 1 view .LVU120
  57:Src/tim.c     ****   {
 400              		.loc 1 57 7 is_stmt 0 view .LVU121
 401 0056 18A9     		add	r1, sp, #96
 402 0058 3B48     		ldr	r0, .L40
 403 005a FFF7FEFF 		bl	HAL_TIM_ConfigClockSource
 404              	.LVL16:
  57:Src/tim.c     ****   {
 405              		.loc 1 57 6 view .LVU122
 406 005e 0028     		cmp	r0, #0
 407 0060 59D1     		bne	.L32
 408              	.L22:
  61:Src/tim.c     ****   {
 409              		.loc 1 61 3 is_stmt 1 view .LVU123
  61:Src/tim.c     ****   {
 410              		.loc 1 61 7 is_stmt 0 view .LVU124
ARM GAS  C:\Users\ADMINI~1\AppData\Local\Temp\cckbeWhj.s 			page 14


 411 0062 3948     		ldr	r0, .L40
 412 0064 FFF7FEFF 		bl	HAL_TIM_PWM_Init
 413              	.LVL17:
  61:Src/tim.c     ****   {
 414              		.loc 1 61 6 view .LVU125
 415 0068 0028     		cmp	r0, #0
 416 006a 57D1     		bne	.L33
 417              	.L23:
  65:Src/tim.c     ****   sMasterConfig.MasterOutputTrigger2 = TIM_TRGO2_RESET;
 418              		.loc 1 65 3 is_stmt 1 view .LVU126
  65:Src/tim.c     ****   sMasterConfig.MasterOutputTrigger2 = TIM_TRGO2_RESET;
 419              		.loc 1 65 37 is_stmt 0 view .LVU127
 420 006c 0023     		movs	r3, #0
 421 006e 1593     		str	r3, [sp, #84]
  66:Src/tim.c     ****   sMasterConfig.MasterSlaveMode = TIM_MASTERSLAVEMODE_DISABLE;
 422              		.loc 1 66 3 is_stmt 1 view .LVU128
  66:Src/tim.c     ****   sMasterConfig.MasterSlaveMode = TIM_MASTERSLAVEMODE_DISABLE;
 423              		.loc 1 66 38 is_stmt 0 view .LVU129
 424 0070 1693     		str	r3, [sp, #88]
  67:Src/tim.c     ****   if (HAL_TIMEx_MasterConfigSynchronization(&htim1, &sMasterConfig) != HAL_OK)
 425              		.loc 1 67 3 is_stmt 1 view .LVU130
  67:Src/tim.c     ****   if (HAL_TIMEx_MasterConfigSynchronization(&htim1, &sMasterConfig) != HAL_OK)
 426              		.loc 1 67 33 is_stmt 0 view .LVU131
 427 0072 1793     		str	r3, [sp, #92]
  68:Src/tim.c     ****   {
 428              		.loc 1 68 3 is_stmt 1 view .LVU132
  68:Src/tim.c     ****   {
 429              		.loc 1 68 7 is_stmt 0 view .LVU133
 430 0074 15A9     		add	r1, sp, #84
 431 0076 3448     		ldr	r0, .L40
 432 0078 FFF7FEFF 		bl	HAL_TIMEx_MasterConfigSynchronization
 433              	.LVL18:
  68:Src/tim.c     ****   {
 434              		.loc 1 68 6 view .LVU134
 435 007c 0028     		cmp	r0, #0
 436 007e 50D1     		bne	.L34
 437              	.L24:
  72:Src/tim.c     ****   sConfigOC.Pulse = 0;
 438              		.loc 1 72 3 is_stmt 1 view .LVU135
  72:Src/tim.c     ****   sConfigOC.Pulse = 0;
 439              		.loc 1 72 20 is_stmt 0 view .LVU136
 440 0080 6023     		movs	r3, #96
 441 0082 0E93     		str	r3, [sp, #56]
  73:Src/tim.c     ****   sConfigOC.OCPolarity = TIM_OCPOLARITY_HIGH;
 442              		.loc 1 73 3 is_stmt 1 view .LVU137
  73:Src/tim.c     ****   sConfigOC.OCPolarity = TIM_OCPOLARITY_HIGH;
 443              		.loc 1 73 19 is_stmt 0 view .LVU138
 444 0084 0022     		movs	r2, #0
 445 0086 0F92     		str	r2, [sp, #60]
  74:Src/tim.c     ****   sConfigOC.OCNPolarity = TIM_OCNPOLARITY_HIGH;
 446              		.loc 1 74 3 is_stmt 1 view .LVU139
  74:Src/tim.c     ****   sConfigOC.OCNPolarity = TIM_OCNPOLARITY_HIGH;
 447              		.loc 1 74 24 is_stmt 0 view .LVU140
 448 0088 1092     		str	r2, [sp, #64]
  75:Src/tim.c     ****   sConfigOC.OCFastMode = TIM_OCFAST_DISABLE;
 449              		.loc 1 75 3 is_stmt 1 view .LVU141
  75:Src/tim.c     ****   sConfigOC.OCFastMode = TIM_OCFAST_DISABLE;
ARM GAS  C:\Users\ADMINI~1\AppData\Local\Temp\cckbeWhj.s 			page 15


 450              		.loc 1 75 25 is_stmt 0 view .LVU142
 451 008a 1192     		str	r2, [sp, #68]
  76:Src/tim.c     ****   sConfigOC.OCIdleState = TIM_OCIDLESTATE_RESET;
 452              		.loc 1 76 3 is_stmt 1 view .LVU143
  76:Src/tim.c     ****   sConfigOC.OCIdleState = TIM_OCIDLESTATE_RESET;
 453              		.loc 1 76 24 is_stmt 0 view .LVU144
 454 008c 1292     		str	r2, [sp, #72]
  77:Src/tim.c     ****   sConfigOC.OCNIdleState = TIM_OCNIDLESTATE_RESET;
 455              		.loc 1 77 3 is_stmt 1 view .LVU145
  77:Src/tim.c     ****   sConfigOC.OCNIdleState = TIM_OCNIDLESTATE_RESET;
 456              		.loc 1 77 25 is_stmt 0 view .LVU146
 457 008e 1392     		str	r2, [sp, #76]
  78:Src/tim.c     ****   if (HAL_TIM_PWM_ConfigChannel(&htim1, &sConfigOC, TIM_CHANNEL_1) != HAL_OK)
 458              		.loc 1 78 3 is_stmt 1 view .LVU147
  78:Src/tim.c     ****   if (HAL_TIM_PWM_ConfigChannel(&htim1, &sConfigOC, TIM_CHANNEL_1) != HAL_OK)
 459              		.loc 1 78 26 is_stmt 0 view .LVU148
 460 0090 1492     		str	r2, [sp, #80]
  79:Src/tim.c     ****   {
 461              		.loc 1 79 3 is_stmt 1 view .LVU149
  79:Src/tim.c     ****   {
 462              		.loc 1 79 7 is_stmt 0 view .LVU150
 463 0092 0EA9     		add	r1, sp, #56
 464 0094 2C48     		ldr	r0, .L40
 465 0096 FFF7FEFF 		bl	HAL_TIM_PWM_ConfigChannel
 466              	.LVL19:
  79:Src/tim.c     ****   {
 467              		.loc 1 79 6 view .LVU151
 468 009a 0028     		cmp	r0, #0
 469 009c 44D1     		bne	.L35
 470              	.L25:
  83:Src/tim.c     ****   if (HAL_TIM_PWM_ConfigChannel(&htim1, &sConfigOC, TIM_CHANNEL_2) != HAL_OK)
 471              		.loc 1 83 3 is_stmt 1 view .LVU152
  83:Src/tim.c     ****   if (HAL_TIM_PWM_ConfigChannel(&htim1, &sConfigOC, TIM_CHANNEL_2) != HAL_OK)
 472              		.loc 1 83 19 is_stmt 0 view .LVU153
 473 009e 40F23F63 		movw	r3, #1599
 474 00a2 0F93     		str	r3, [sp, #60]
  84:Src/tim.c     ****   {
 475              		.loc 1 84 3 is_stmt 1 view .LVU154
  84:Src/tim.c     ****   {
 476              		.loc 1 84 7 is_stmt 0 view .LVU155
 477 00a4 0422     		movs	r2, #4
 478 00a6 0EA9     		add	r1, sp, #56
 479 00a8 2748     		ldr	r0, .L40
 480 00aa FFF7FEFF 		bl	HAL_TIM_PWM_ConfigChannel
 481              	.LVL20:
  84:Src/tim.c     ****   {
 482              		.loc 1 84 6 view .LVU156
 483 00ae 0028     		cmp	r0, #0
 484 00b0 3DD1     		bne	.L36
 485              	.L26:
  88:Src/tim.c     ****   if (HAL_TIM_PWM_ConfigChannel(&htim1, &sConfigOC, TIM_CHANNEL_3) != HAL_OK)
 486              		.loc 1 88 3 is_stmt 1 view .LVU157
  88:Src/tim.c     ****   if (HAL_TIM_PWM_ConfigChannel(&htim1, &sConfigOC, TIM_CHANNEL_3) != HAL_OK)
 487              		.loc 1 88 19 is_stmt 0 view .LVU158
 488 00b2 0023     		movs	r3, #0
 489 00b4 0F93     		str	r3, [sp, #60]
  89:Src/tim.c     ****   {
ARM GAS  C:\Users\ADMINI~1\AppData\Local\Temp\cckbeWhj.s 			page 16


 490              		.loc 1 89 3 is_stmt 1 view .LVU159
  89:Src/tim.c     ****   {
 491              		.loc 1 89 7 is_stmt 0 view .LVU160
 492 00b6 0822     		movs	r2, #8
 493 00b8 0EA9     		add	r1, sp, #56
 494 00ba 2348     		ldr	r0, .L40
 495 00bc FFF7FEFF 		bl	HAL_TIM_PWM_ConfigChannel
 496              	.LVL21:
  89:Src/tim.c     ****   {
 497              		.loc 1 89 6 view .LVU161
 498 00c0 0028     		cmp	r0, #0
 499 00c2 37D1     		bne	.L37
 500              	.L27:
  93:Src/tim.c     ****   if (HAL_TIM_PWM_ConfigChannel(&htim1, &sConfigOC, TIM_CHANNEL_4) != HAL_OK)
 501              		.loc 1 93 3 is_stmt 1 view .LVU162
  93:Src/tim.c     ****   if (HAL_TIM_PWM_ConfigChannel(&htim1, &sConfigOC, TIM_CHANNEL_4) != HAL_OK)
 502              		.loc 1 93 19 is_stmt 0 view .LVU163
 503 00c4 4FF49663 		mov	r3, #1200
 504 00c8 0F93     		str	r3, [sp, #60]
  94:Src/tim.c     ****   {
 505              		.loc 1 94 3 is_stmt 1 view .LVU164
  94:Src/tim.c     ****   {
 506              		.loc 1 94 7 is_stmt 0 view .LVU165
 507 00ca 0C22     		movs	r2, #12
 508 00cc 0EA9     		add	r1, sp, #56
 509 00ce 1E48     		ldr	r0, .L40
 510 00d0 FFF7FEFF 		bl	HAL_TIM_PWM_ConfigChannel
 511              	.LVL22:
  94:Src/tim.c     ****   {
 512              		.loc 1 94 6 view .LVU166
 513 00d4 0028     		cmp	r0, #0
 514 00d6 30D1     		bne	.L38
 515              	.L28:
  98:Src/tim.c     ****   sBreakDeadTimeConfig.OffStateIDLEMode = TIM_OSSI_DISABLE;
 516              		.loc 1 98 3 is_stmt 1 view .LVU167
  98:Src/tim.c     ****   sBreakDeadTimeConfig.OffStateIDLEMode = TIM_OSSI_DISABLE;
 517              		.loc 1 98 40 is_stmt 0 view .LVU168
 518 00d8 0023     		movs	r3, #0
 519 00da 0193     		str	r3, [sp, #4]
  99:Src/tim.c     ****   sBreakDeadTimeConfig.LockLevel = TIM_LOCKLEVEL_OFF;
 520              		.loc 1 99 3 is_stmt 1 view .LVU169
  99:Src/tim.c     ****   sBreakDeadTimeConfig.LockLevel = TIM_LOCKLEVEL_OFF;
 521              		.loc 1 99 41 is_stmt 0 view .LVU170
 522 00dc 0293     		str	r3, [sp, #8]
 100:Src/tim.c     ****   sBreakDeadTimeConfig.DeadTime = 0;
 523              		.loc 1 100 3 is_stmt 1 view .LVU171
 100:Src/tim.c     ****   sBreakDeadTimeConfig.DeadTime = 0;
 524              		.loc 1 100 34 is_stmt 0 view .LVU172
 525 00de 0393     		str	r3, [sp, #12]
 101:Src/tim.c     ****   sBreakDeadTimeConfig.BreakState = TIM_BREAK_DISABLE;
 526              		.loc 1 101 3 is_stmt 1 view .LVU173
 101:Src/tim.c     ****   sBreakDeadTimeConfig.BreakState = TIM_BREAK_DISABLE;
 527              		.loc 1 101 33 is_stmt 0 view .LVU174
 528 00e0 0493     		str	r3, [sp, #16]
 102:Src/tim.c     ****   sBreakDeadTimeConfig.BreakPolarity = TIM_BREAKPOLARITY_HIGH;
 529              		.loc 1 102 3 is_stmt 1 view .LVU175
 102:Src/tim.c     ****   sBreakDeadTimeConfig.BreakPolarity = TIM_BREAKPOLARITY_HIGH;
ARM GAS  C:\Users\ADMINI~1\AppData\Local\Temp\cckbeWhj.s 			page 17


 530              		.loc 1 102 35 is_stmt 0 view .LVU176
 531 00e2 0593     		str	r3, [sp, #20]
 103:Src/tim.c     ****   sBreakDeadTimeConfig.BreakFilter = 0;
 532              		.loc 1 103 3 is_stmt 1 view .LVU177
 103:Src/tim.c     ****   sBreakDeadTimeConfig.BreakFilter = 0;
 533              		.loc 1 103 38 is_stmt 0 view .LVU178
 534 00e4 4FF40052 		mov	r2, #8192
 535 00e8 0692     		str	r2, [sp, #24]
 104:Src/tim.c     ****   sBreakDeadTimeConfig.BreakAFMode = TIM_BREAK_AFMODE_INPUT;
 536              		.loc 1 104 3 is_stmt 1 view .LVU179
 104:Src/tim.c     ****   sBreakDeadTimeConfig.BreakAFMode = TIM_BREAK_AFMODE_INPUT;
 537              		.loc 1 104 36 is_stmt 0 view .LVU180
 538 00ea 0793     		str	r3, [sp, #28]
 105:Src/tim.c     ****   sBreakDeadTimeConfig.Break2State = TIM_BREAK2_DISABLE;
 539              		.loc 1 105 3 is_stmt 1 view .LVU181
 105:Src/tim.c     ****   sBreakDeadTimeConfig.Break2State = TIM_BREAK2_DISABLE;
 540              		.loc 1 105 36 is_stmt 0 view .LVU182
 541 00ec 0893     		str	r3, [sp, #32]
 106:Src/tim.c     ****   sBreakDeadTimeConfig.Break2Polarity = TIM_BREAK2POLARITY_HIGH;
 542              		.loc 1 106 3 is_stmt 1 view .LVU183
 106:Src/tim.c     ****   sBreakDeadTimeConfig.Break2Polarity = TIM_BREAK2POLARITY_HIGH;
 543              		.loc 1 106 36 is_stmt 0 view .LVU184
 544 00ee 0993     		str	r3, [sp, #36]
 107:Src/tim.c     ****   sBreakDeadTimeConfig.Break2Filter = 0;
 545              		.loc 1 107 3 is_stmt 1 view .LVU185
 107:Src/tim.c     ****   sBreakDeadTimeConfig.Break2Filter = 0;
 546              		.loc 1 107 39 is_stmt 0 view .LVU186
 547 00f0 4FF00072 		mov	r2, #33554432
 548 00f4 0A92     		str	r2, [sp, #40]
 108:Src/tim.c     ****   sBreakDeadTimeConfig.Break2AFMode = TIM_BREAK_AFMODE_INPUT;
 549              		.loc 1 108 3 is_stmt 1 view .LVU187
 108:Src/tim.c     ****   sBreakDeadTimeConfig.Break2AFMode = TIM_BREAK_AFMODE_INPUT;
 550              		.loc 1 108 37 is_stmt 0 view .LVU188
 551 00f6 0B93     		str	r3, [sp, #44]
 109:Src/tim.c     ****   sBreakDeadTimeConfig.AutomaticOutput = TIM_AUTOMATICOUTPUT_DISABLE;
 552              		.loc 1 109 3 is_stmt 1 view .LVU189
 109:Src/tim.c     ****   sBreakDeadTimeConfig.AutomaticOutput = TIM_AUTOMATICOUTPUT_DISABLE;
 553              		.loc 1 109 37 is_stmt 0 view .LVU190
 554 00f8 0C93     		str	r3, [sp, #48]
 110:Src/tim.c     ****   if (HAL_TIMEx_ConfigBreakDeadTime(&htim1, &sBreakDeadTimeConfig) != HAL_OK)
 555              		.loc 1 110 3 is_stmt 1 view .LVU191
 110:Src/tim.c     ****   if (HAL_TIMEx_ConfigBreakDeadTime(&htim1, &sBreakDeadTimeConfig) != HAL_OK)
 556              		.loc 1 110 40 is_stmt 0 view .LVU192
 557 00fa 0D93     		str	r3, [sp, #52]
 111:Src/tim.c     ****   {
 558              		.loc 1 111 3 is_stmt 1 view .LVU193
 111:Src/tim.c     ****   {
 559              		.loc 1 111 7 is_stmt 0 view .LVU194
 560 00fc 01A9     		add	r1, sp, #4
 561 00fe 1248     		ldr	r0, .L40
 562 0100 FFF7FEFF 		bl	HAL_TIMEx_ConfigBreakDeadTime
 563              	.LVL23:
 111:Src/tim.c     ****   {
 564              		.loc 1 111 6 view .LVU195
 565 0104 E0B9     		cbnz	r0, .L39
 566              	.L29:
 118:Src/tim.c     **** 
ARM GAS  C:\Users\ADMINI~1\AppData\Local\Temp\cckbeWhj.s 			page 18


 567              		.loc 1 118 3 is_stmt 1 view .LVU196
 568 0106 1048     		ldr	r0, .L40
 569 0108 FFF7FEFF 		bl	HAL_TIM_MspPostInit
 570              	.LVL24:
 120:Src/tim.c     **** 
 571              		.loc 1 120 1 is_stmt 0 view .LVU197
 572 010c 1CB0     		add	sp, sp, #112
 573              	.LCFI8:
 574              		.cfi_remember_state
 575              		.cfi_def_cfa_offset 8
 576              		@ sp needed
 577 010e 10BD     		pop	{r4, pc}
 578              	.L31:
 579              	.LCFI9:
 580              		.cfi_restore_state
  54:Src/tim.c     ****   }
 581              		.loc 1 54 5 is_stmt 1 view .LVU198
 582 0110 FFF7FEFF 		bl	Error_Handler
 583              	.LVL25:
 584 0114 9CE7     		b	.L21
 585              	.L32:
  59:Src/tim.c     ****   }
 586              		.loc 1 59 5 view .LVU199
 587 0116 FFF7FEFF 		bl	Error_Handler
 588              	.LVL26:
 589 011a A2E7     		b	.L22
 590              	.L33:
  63:Src/tim.c     ****   }
 591              		.loc 1 63 5 view .LVU200
 592 011c FFF7FEFF 		bl	Error_Handler
 593              	.LVL27:
 594 0120 A4E7     		b	.L23
 595              	.L34:
  70:Src/tim.c     ****   }
 596              		.loc 1 70 5 view .LVU201
 597 0122 FFF7FEFF 		bl	Error_Handler
 598              	.LVL28:
 599 0126 ABE7     		b	.L24
 600              	.L35:
  81:Src/tim.c     ****   }
 601              		.loc 1 81 5 view .LVU202
 602 0128 FFF7FEFF 		bl	Error_Handler
 603              	.LVL29:
 604 012c B7E7     		b	.L25
 605              	.L36:
  86:Src/tim.c     ****   }
 606              		.loc 1 86 5 view .LVU203
 607 012e FFF7FEFF 		bl	Error_Handler
 608              	.LVL30:
 609 0132 BEE7     		b	.L26
 610              	.L37:
  91:Src/tim.c     ****   }
 611              		.loc 1 91 5 view .LVU204
 612 0134 FFF7FEFF 		bl	Error_Handler
 613              	.LVL31:
 614 0138 C4E7     		b	.L27
 615              	.L38:
ARM GAS  C:\Users\ADMINI~1\AppData\Local\Temp\cckbeWhj.s 			page 19


  96:Src/tim.c     ****   }
 616              		.loc 1 96 5 view .LVU205
 617 013a FFF7FEFF 		bl	Error_Handler
 618              	.LVL32:
 619 013e CBE7     		b	.L28
 620              	.L39:
 113:Src/tim.c     ****   }
 621              		.loc 1 113 5 view .LVU206
 622 0140 FFF7FEFF 		bl	Error_Handler
 623              	.LVL33:
 624 0144 DFE7     		b	.L29
 625              	.L41:
 626 0146 00BF     		.align	2
 627              	.L40:
 628 0148 00000000 		.word	.LANCHOR0
 629 014c 002C0140 		.word	1073818624
 630              		.cfi_endproc
 631              	.LFE329:
 633              		.section	.text.HAL_TIM_Base_MspDeInit,"ax",%progbits
 634              		.align	1
 635              		.global	HAL_TIM_Base_MspDeInit
 636              		.syntax unified
 637              		.thumb
 638              		.thumb_func
 639              		.fpu fpv4-sp-d16
 641              	HAL_TIM_Base_MspDeInit:
 642              	.LVL34:
 643              	.LFB332:
 194:Src/tim.c     **** 
 644              		.loc 1 194 1 view -0
 645              		.cfi_startproc
 646              		@ args = 0, pretend = 0, frame = 0
 647              		@ frame_needed = 0, uses_anonymous_args = 0
 648              		@ link register save eliminated.
 196:Src/tim.c     ****   {
 649              		.loc 1 196 3 view .LVU208
 196:Src/tim.c     ****   {
 650              		.loc 1 196 20 is_stmt 0 view .LVU209
 651 0000 0268     		ldr	r2, [r0]
 196:Src/tim.c     ****   {
 652              		.loc 1 196 5 view .LVU210
 653 0002 054B     		ldr	r3, .L45
 654 0004 9A42     		cmp	r2, r3
 655 0006 00D0     		beq	.L44
 656              	.L42:
 207:Src/tim.c     **** 
 657              		.loc 1 207 1 view .LVU211
 658 0008 7047     		bx	lr
 659              	.L44:
 202:Src/tim.c     ****   /* USER CODE BEGIN TIM1_MspDeInit 1 */
 660              		.loc 1 202 5 is_stmt 1 view .LVU212
 661 000a 044A     		ldr	r2, .L45+4
 662 000c 136E     		ldr	r3, [r2, #96]
 663 000e 23F40063 		bic	r3, r3, #2048
 664 0012 1366     		str	r3, [r2, #96]
 207:Src/tim.c     **** 
 665              		.loc 1 207 1 is_stmt 0 view .LVU213
ARM GAS  C:\Users\ADMINI~1\AppData\Local\Temp\cckbeWhj.s 			page 20


 666 0014 F8E7     		b	.L42
 667              	.L46:
 668 0016 00BF     		.align	2
 669              	.L45:
 670 0018 002C0140 		.word	1073818624
 671 001c 00100240 		.word	1073876992
 672              		.cfi_endproc
 673              	.LFE332:
 675              		.section	.text.motor_set_pwm,"ax",%progbits
 676              		.align	1
 677              		.global	motor_set_pwm
 678              		.syntax unified
 679              		.thumb
 680              		.thumb_func
 681              		.fpu fpv4-sp-d16
 683              	motor_set_pwm:
 684              	.LVL35:
 685              	.LFB335:
 227:Src/tim.c     **** static unsigned short min_val_01(unsigned short a,unsigned short b,unsigned short c)
 228:Src/tim.c     **** {
 229:Src/tim.c     ****   unsigned short min;
 230:Src/tim.c     ****   if(a<b)
 231:Src/tim.c     ****   {
 232:Src/tim.c     ****     min = a;
 233:Src/tim.c     ****   }else{
 234:Src/tim.c     ****     min = b;
 235:Src/tim.c     ****   }
 236:Src/tim.c     ****   if (c < min)
 237:Src/tim.c     ****   {
 238:Src/tim.c     ****     min = c;
 239:Src/tim.c     ****   }
 240:Src/tim.c     ****   return min;
 241:Src/tim.c     **** }
 242:Src/tim.c     **** #include "ipc.h"
 243:Src/tim.c     **** float AAAAA;
 244:Src/tim.c     **** void motor_set_pwm(float _a,float _b,float _c)
 245:Src/tim.c     **** {
 686              		.loc 1 245 1 is_stmt 1 view -0
 687              		.cfi_startproc
 688              		@ args = 0, pretend = 0, frame = 0
 689              		@ frame_needed = 0, uses_anonymous_args = 0
 690              		.loc 1 245 1 is_stmt 0 view .LVU215
 691 0000 08B5     		push	{r3, lr}
 692              	.LCFI10:
 693              		.cfi_def_cfa_offset 8
 694              		.cfi_offset 3, -8
 695              		.cfi_offset 14, -4
 696 0002 2DED048B 		vpush.64	{d8, d9}
 697              	.LCFI11:
 698              		.cfi_def_cfa_offset 24
 699              		.cfi_offset 80, -24
 700              		.cfi_offset 81, -20
 701              		.cfi_offset 82, -16
 702              		.cfi_offset 83, -12
 246:Src/tim.c     ****     float a,b,c;
 703              		.loc 1 246 5 is_stmt 1 view .LVU216
 247:Src/tim.c     ****     a = ((1.0f-(float)_a)*_ARR);
ARM GAS  C:\Users\ADMINI~1\AppData\Local\Temp\cckbeWhj.s 			page 21


 704              		.loc 1 247 5 view .LVU217
 705              		.loc 1 247 15 is_stmt 0 view .LVU218
 706 0006 F7EE007A 		vmov.f32	s15, #1.0e+0
 707 000a 37EEC00A 		vsub.f32	s0, s15, s0
 708              	.LVL36:
 709              		.loc 1 247 7 view .LVU219
 710 000e DFED168A 		vldr.32	s17, .L49
 711 0012 20EE288A 		vmul.f32	s16, s0, s17
 712              	.LVL37:
 248:Src/tim.c     ****     b = ((1.0f-(float)_b)*_ARR);
 713              		.loc 1 248 5 is_stmt 1 view .LVU220
 714              		.loc 1 248 15 is_stmt 0 view .LVU221
 715 0016 77EEE00A 		vsub.f32	s1, s15, s1
 716              	.LVL38:
 717              		.loc 1 248 7 view .LVU222
 718 001a 20EEA89A 		vmul.f32	s18, s1, s17
 719              	.LVL39:
 249:Src/tim.c     ****     c = ((1.0f-(float)_c)*_ARR);
 720              		.loc 1 249 5 is_stmt 1 view .LVU223
 721              		.loc 1 249 15 is_stmt 0 view .LVU224
 722 001e 77EEC17A 		vsub.f32	s15, s15, s2
 723              		.loc 1 249 7 view .LVU225
 724 0022 67EEA88A 		vmul.f32	s17, s15, s17
 725              	.LVL40:
 250:Src/tim.c     ****     AAAAA = a;
 726              		.loc 1 250 5 is_stmt 1 view .LVU226
 727              		.loc 1 250 11 is_stmt 0 view .LVU227
 728 0026 114B     		ldr	r3, .L49+4
 729 0028 83ED008A 		vstr.32	s16, [r3]
 251:Src/tim.c     ****     // a = (((float)_a)*_ARR);
 252:Src/tim.c     ****     // b = (((float)_b)*_ARR);
 253:Src/tim.c     ****     // c = (((float)_c)*_ARR);
 254:Src/tim.c     ****     ipc_write_data(PUBLIC_DATA_TEMP0,a);
 730              		.loc 1 254 5 is_stmt 1 view .LVU228
 731 002c B0EE480A 		vmov.f32	s0, s16
 732 0030 0C20     		movs	r0, #12
 733 0032 FFF7FEFF 		bl	ipc_write_data
 734              	.LVL41:
 255:Src/tim.c     **** 
 256:Src/tim.c     ****     // __HAL_TIM_SET_COMPARE(&htim1,TIM_CHANNEL_1,(uint16_t)a);
 257:Src/tim.c     ****     // __HAL_TIM_SET_COMPARE(&htim1,TIM_CHANNEL_2,(uint16_t)b);
 258:Src/tim.c     ****     // __HAL_TIM_SET_COMPARE(&htim1,TIM_CHANNEL_3,(uint16_t)c);
 259:Src/tim.c     **** 
 260:Src/tim.c     ****     unsigned short max = 0;
 735              		.loc 1 260 5 view .LVU229
 261:Src/tim.c     ****     max = max_val_01((uint16_t)a,(uint16_t)b,(uint16_t)c);
 736              		.loc 1 261 5 view .LVU230
 737              		.loc 1 261 11 is_stmt 0 view .LVU231
 738 0036 FCEEE88A 		vcvt.u32.f32	s17, s17
 739              	.LVL42:
 740              		.loc 1 261 11 view .LVU232
 741 003a BCEEC99A 		vcvt.u32.f32	s18, s18
 742              	.LVL43:
 743              		.loc 1 261 11 view .LVU233
 744 003e BCEEC88A 		vcvt.u32.f32	s16, s16
 745              	.LVL44:
 746              		.loc 1 261 11 view .LVU234
ARM GAS  C:\Users\ADMINI~1\AppData\Local\Temp\cckbeWhj.s 			page 22


 747 0042 18EE903A 		vmov	r3, s17	@ int
 748 0046 9AB2     		uxth	r2, r3
 749 0048 19EE103A 		vmov	r3, s18	@ int
 750 004c 99B2     		uxth	r1, r3
 751 004e 18EE103A 		vmov	r3, s16	@ int
 752 0052 98B2     		uxth	r0, r3
 753 0054 FFF7FEFF 		bl	max_val_01
 754              	.LVL45:
 262:Src/tim.c     ****     __HAL_TIM_SET_COMPARE(&htim1,TIM_CHANNEL_4,(uint16_t)(max + 100));	    
 755              		.loc 1 262 5 is_stmt 1 view .LVU235
 756 0058 054B     		ldr	r3, .L49+8
 757 005a 1B68     		ldr	r3, [r3]
 758 005c 6430     		adds	r0, r0, #100
 759              	.LVL46:
 760              		.loc 1 262 5 is_stmt 0 view .LVU236
 761 005e 80B2     		uxth	r0, r0
 762 0060 1864     		str	r0, [r3, #64]
 263:Src/tim.c     ****     // unsigned short min = 0;
 264:Src/tim.c     ****     // min = min_val_01((uint16_t)a,(uint16_t)b,(uint16_t)c);  
 265:Src/tim.c     ****     // __HAL_TIM_SET_COMPARE(&htim1,TIM_CHANNEL_4,(uint16_t)(min + 20));	
 266:Src/tim.c     **** }
 763              		.loc 1 266 1 view .LVU237
 764 0062 BDEC048B 		vldm	sp!, {d8-d9}
 765              	.LCFI12:
 766              		.cfi_restore 82
 767              		.cfi_restore 83
 768              		.cfi_restore 80
 769              		.cfi_restore 81
 770              		.cfi_def_cfa_offset 8
 771 0066 08BD     		pop	{r3, pc}
 772              	.L50:
 773              		.align	2
 774              	.L49:
 775 0068 00D00446 		.word	1174720512
 776 006c 00000000 		.word	.LANCHOR1
 777 0070 00000000 		.word	.LANCHOR0
 778              		.cfi_endproc
 779              	.LFE335:
 781              		.section	.text.motor_enable_noirq,"ax",%progbits
 782              		.align	1
 783              		.global	motor_enable_noirq
 784              		.syntax unified
 785              		.thumb
 786              		.thumb_func
 787              		.fpu fpv4-sp-d16
 789              	motor_enable_noirq:
 790              	.LFB336:
 267:Src/tim.c     **** void motor_enable_noirq(void)
 268:Src/tim.c     **** {
 791              		.loc 1 268 1 is_stmt 1 view -0
 792              		.cfi_startproc
 793              		@ args = 0, pretend = 0, frame = 0
 794              		@ frame_needed = 0, uses_anonymous_args = 0
 795 0000 38B5     		push	{r3, r4, r5, lr}
 796              	.LCFI13:
 797              		.cfi_def_cfa_offset 16
 798              		.cfi_offset 3, -16
ARM GAS  C:\Users\ADMINI~1\AppData\Local\Temp\cckbeWhj.s 			page 23


 799              		.cfi_offset 4, -12
 800              		.cfi_offset 5, -8
 801              		.cfi_offset 14, -4
 269:Src/tim.c     ****     __HAL_TIM_SET_COMPARE(&htim1,TIM_CHANNEL_1,(uint16_t)0);
 802              		.loc 1 269 5 view .LVU239
 803 0002 0F4C     		ldr	r4, .L53
 804 0004 2368     		ldr	r3, [r4]
 805 0006 0025     		movs	r5, #0
 806 0008 5D63     		str	r5, [r3, #52]
 270:Src/tim.c     ****     __HAL_TIM_SET_COMPARE(&htim1,TIM_CHANNEL_2,(uint16_t)0);
 807              		.loc 1 270 5 view .LVU240
 808 000a 9D63     		str	r5, [r3, #56]
 271:Src/tim.c     ****     __HAL_TIM_SET_COMPARE(&htim1,TIM_CHANNEL_3,(uint16_t)0);    
 809              		.loc 1 271 5 view .LVU241
 810 000c DD63     		str	r5, [r3, #60]
 272:Src/tim.c     ****     HAL_TIM_PWM_Start(&htim1,TIM_CHANNEL_1);
 811              		.loc 1 272 5 view .LVU242
 812 000e 2946     		mov	r1, r5
 813 0010 2046     		mov	r0, r4
 814 0012 FFF7FEFF 		bl	HAL_TIM_PWM_Start
 815              	.LVL47:
 273:Src/tim.c     ****     HAL_TIMEx_PWMN_Start(&htim1,TIM_CHANNEL_1);
 816              		.loc 1 273 5 view .LVU243
 817 0016 2946     		mov	r1, r5
 818 0018 2046     		mov	r0, r4
 819 001a FFF7FEFF 		bl	HAL_TIMEx_PWMN_Start
 820              	.LVL48:
 274:Src/tim.c     ****     HAL_TIM_PWM_Start(&htim1,TIM_CHANNEL_2);
 821              		.loc 1 274 5 view .LVU244
 822 001e 0421     		movs	r1, #4
 823 0020 2046     		mov	r0, r4
 824 0022 FFF7FEFF 		bl	HAL_TIM_PWM_Start
 825              	.LVL49:
 275:Src/tim.c     ****     HAL_TIMEx_PWMN_Start(&htim1,TIM_CHANNEL_2);
 826              		.loc 1 275 5 view .LVU245
 827 0026 0421     		movs	r1, #4
 828 0028 2046     		mov	r0, r4
 829 002a FFF7FEFF 		bl	HAL_TIMEx_PWMN_Start
 830              	.LVL50:
 276:Src/tim.c     ****     HAL_TIM_PWM_Start(&htim1,TIM_CHANNEL_3);
 831              		.loc 1 276 5 view .LVU246
 832 002e 0821     		movs	r1, #8
 833 0030 2046     		mov	r0, r4
 834 0032 FFF7FEFF 		bl	HAL_TIM_PWM_Start
 835              	.LVL51:
 277:Src/tim.c     ****     HAL_TIMEx_PWMN_Start(&htim1,TIM_CHANNEL_3);     
 836              		.loc 1 277 5 view .LVU247
 837 0036 0821     		movs	r1, #8
 838 0038 2046     		mov	r0, r4
 839 003a FFF7FEFF 		bl	HAL_TIMEx_PWMN_Start
 840              	.LVL52:
 278:Src/tim.c     **** }
 841              		.loc 1 278 1 is_stmt 0 view .LVU248
 842 003e 38BD     		pop	{r3, r4, r5, pc}
 843              	.L54:
 844              		.align	2
 845              	.L53:
ARM GAS  C:\Users\ADMINI~1\AppData\Local\Temp\cckbeWhj.s 			page 24


 846 0040 00000000 		.word	.LANCHOR0
 847              		.cfi_endproc
 848              	.LFE336:
 850              		.section	.text.motor_enable,"ax",%progbits
 851              		.align	1
 852              		.global	motor_enable
 853              		.syntax unified
 854              		.thumb
 855              		.thumb_func
 856              		.fpu fpv4-sp-d16
 858              	motor_enable:
 859              	.LFB337:
 279:Src/tim.c     **** void motor_enable(void)
 280:Src/tim.c     **** {
 860              		.loc 1 280 1 is_stmt 1 view -0
 861              		.cfi_startproc
 862              		@ args = 0, pretend = 0, frame = 0
 863              		@ frame_needed = 0, uses_anonymous_args = 0
 864 0000 38B5     		push	{r3, r4, r5, lr}
 865              	.LCFI14:
 866              		.cfi_def_cfa_offset 16
 867              		.cfi_offset 3, -16
 868              		.cfi_offset 4, -12
 869              		.cfi_offset 5, -8
 870              		.cfi_offset 14, -4
 281:Src/tim.c     ****     HAL_TIM_PWM_Start(&htim1,TIM_CHANNEL_1);
 871              		.loc 1 281 5 view .LVU250
 872 0002 134C     		ldr	r4, .L57
 873 0004 0021     		movs	r1, #0
 874 0006 2046     		mov	r0, r4
 875 0008 FFF7FEFF 		bl	HAL_TIM_PWM_Start
 876              	.LVL53:
 282:Src/tim.c     ****     HAL_TIMEx_PWMN_Start(&htim1,TIM_CHANNEL_1);
 877              		.loc 1 282 5 view .LVU251
 878 000c 0021     		movs	r1, #0
 879 000e 2046     		mov	r0, r4
 880 0010 FFF7FEFF 		bl	HAL_TIMEx_PWMN_Start
 881              	.LVL54:
 283:Src/tim.c     ****     HAL_TIM_PWM_Start(&htim1,TIM_CHANNEL_2);
 882              		.loc 1 283 5 view .LVU252
 883 0014 0421     		movs	r1, #4
 884 0016 2046     		mov	r0, r4
 885 0018 FFF7FEFF 		bl	HAL_TIM_PWM_Start
 886              	.LVL55:
 284:Src/tim.c     ****     HAL_TIMEx_PWMN_Start(&htim1,TIM_CHANNEL_2);
 887              		.loc 1 284 5 view .LVU253
 888 001c 0421     		movs	r1, #4
 889 001e 2046     		mov	r0, r4
 890 0020 FFF7FEFF 		bl	HAL_TIMEx_PWMN_Start
 891              	.LVL56:
 285:Src/tim.c     ****     HAL_TIM_PWM_Start(&htim1,TIM_CHANNEL_3);
 892              		.loc 1 285 5 view .LVU254
 893 0024 0821     		movs	r1, #8
 894 0026 2046     		mov	r0, r4
 895 0028 FFF7FEFF 		bl	HAL_TIM_PWM_Start
 896              	.LVL57:
 286:Src/tim.c     ****     HAL_TIMEx_PWMN_Start(&htim1,TIM_CHANNEL_3); 
ARM GAS  C:\Users\ADMINI~1\AppData\Local\Temp\cckbeWhj.s 			page 25


 897              		.loc 1 286 5 view .LVU255
 898 002c 0821     		movs	r1, #8
 899 002e 2046     		mov	r0, r4
 900 0030 FFF7FEFF 		bl	HAL_TIMEx_PWMN_Start
 901              	.LVL58:
 287:Src/tim.c     **** 
 288:Src/tim.c     ****     /*------------------------*/
 289:Src/tim.c     ****     HAL_ADCEx_Calibration_Start(&hadc1,ADC_SINGLE_ENDED);
 902              		.loc 1 289 5 view .LVU256
 903 0034 074D     		ldr	r5, .L57+4
 904 0036 7F21     		movs	r1, #127
 905 0038 2846     		mov	r0, r5
 906 003a FFF7FEFF 		bl	HAL_ADCEx_Calibration_Start
 907              	.LVL59:
 290:Src/tim.c     ****     HAL_ADCEx_InjectedStart_IT(&hadc1);
 908              		.loc 1 290 5 view .LVU257
 909 003e 2846     		mov	r0, r5
 910 0040 FFF7FEFF 		bl	HAL_ADCEx_InjectedStart_IT
 911              	.LVL60:
 291:Src/tim.c     ****     HAL_TIM_PWM_Start(&htim1,TIM_CHANNEL_4);  
 912              		.loc 1 291 5 view .LVU258
 913 0044 0C21     		movs	r1, #12
 914 0046 2046     		mov	r0, r4
 915 0048 FFF7FEFF 		bl	HAL_TIM_PWM_Start
 916              	.LVL61:
 292:Src/tim.c     **** }
 917              		.loc 1 292 1 is_stmt 0 view .LVU259
 918 004c 38BD     		pop	{r3, r4, r5, pc}
 919              	.L58:
 920 004e 00BF     		.align	2
 921              	.L57:
 922 0050 00000000 		.word	.LANCHOR0
 923 0054 00000000 		.word	hadc1
 924              		.cfi_endproc
 925              	.LFE337:
 927              		.section	.text.motor_disable,"ax",%progbits
 928              		.align	1
 929              		.global	motor_disable
 930              		.syntax unified
 931              		.thumb
 932              		.thumb_func
 933              		.fpu fpv4-sp-d16
 935              	motor_disable:
 936              	.LFB338:
 293:Src/tim.c     **** void motor_disable(void)
 294:Src/tim.c     **** {
 937              		.loc 1 294 1 is_stmt 1 view -0
 938              		.cfi_startproc
 939              		@ args = 0, pretend = 0, frame = 0
 940              		@ frame_needed = 0, uses_anonymous_args = 0
 941 0000 38B5     		push	{r3, r4, r5, lr}
 942              	.LCFI15:
 943              		.cfi_def_cfa_offset 16
 944              		.cfi_offset 3, -16
 945              		.cfi_offset 4, -12
 946              		.cfi_offset 5, -8
 947              		.cfi_offset 14, -4
ARM GAS  C:\Users\ADMINI~1\AppData\Local\Temp\cckbeWhj.s 			page 26


 295:Src/tim.c     ****     __HAL_TIM_SET_COMPARE(&htim1,TIM_CHANNEL_1,(0));
 948              		.loc 1 295 5 view .LVU261
 949 0002 134C     		ldr	r4, .L61
 950 0004 2368     		ldr	r3, [r4]
 951 0006 0025     		movs	r5, #0
 952 0008 5D63     		str	r5, [r3, #52]
 296:Src/tim.c     ****     __HAL_TIM_SET_COMPARE(&htim1,TIM_CHANNEL_2,(0));
 953              		.loc 1 296 5 view .LVU262
 954 000a 9D63     		str	r5, [r3, #56]
 297:Src/tim.c     ****     __HAL_TIM_SET_COMPARE(&htim1,TIM_CHANNEL_3,(0));
 955              		.loc 1 297 5 view .LVU263
 956 000c DD63     		str	r5, [r3, #60]
 298:Src/tim.c     **** 
 299:Src/tim.c     ****     HAL_TIM_PWM_Stop(&htim1,TIM_CHANNEL_1);
 957              		.loc 1 299 5 view .LVU264
 958 000e 2946     		mov	r1, r5
 959 0010 2046     		mov	r0, r4
 960 0012 FFF7FEFF 		bl	HAL_TIM_PWM_Stop
 961              	.LVL62:
 300:Src/tim.c     ****     HAL_TIMEx_PWMN_Stop(&htim1,TIM_CHANNEL_1);
 962              		.loc 1 300 5 view .LVU265
 963 0016 2946     		mov	r1, r5
 964 0018 2046     		mov	r0, r4
 965 001a FFF7FEFF 		bl	HAL_TIMEx_PWMN_Stop
 966              	.LVL63:
 301:Src/tim.c     ****     HAL_TIM_PWM_Stop(&htim1,TIM_CHANNEL_2);
 967              		.loc 1 301 5 view .LVU266
 968 001e 0421     		movs	r1, #4
 969 0020 2046     		mov	r0, r4
 970 0022 FFF7FEFF 		bl	HAL_TIM_PWM_Stop
 971              	.LVL64:
 302:Src/tim.c     ****     HAL_TIMEx_PWMN_Stop(&htim1,TIM_CHANNEL_2);
 972              		.loc 1 302 5 view .LVU267
 973 0026 0421     		movs	r1, #4
 974 0028 2046     		mov	r0, r4
 975 002a FFF7FEFF 		bl	HAL_TIMEx_PWMN_Stop
 976              	.LVL65:
 303:Src/tim.c     ****     HAL_TIM_PWM_Stop(&htim1,TIM_CHANNEL_3);
 977              		.loc 1 303 5 view .LVU268
 978 002e 0821     		movs	r1, #8
 979 0030 2046     		mov	r0, r4
 980 0032 FFF7FEFF 		bl	HAL_TIM_PWM_Stop
 981              	.LVL66:
 304:Src/tim.c     ****     HAL_TIMEx_PWMN_Stop(&htim1,TIM_CHANNEL_3); 
 982              		.loc 1 304 5 view .LVU269
 983 0036 0821     		movs	r1, #8
 984 0038 2046     		mov	r0, r4
 985 003a FFF7FEFF 		bl	HAL_TIMEx_PWMN_Stop
 986              	.LVL67:
 305:Src/tim.c     ****     HAL_ADCEx_InjectedStop_IT(&hadc1);
 987              		.loc 1 305 5 view .LVU270
 988 003e 0548     		ldr	r0, .L61+4
 989 0040 FFF7FEFF 		bl	HAL_ADCEx_InjectedStop_IT
 990              	.LVL68:
 306:Src/tim.c     ****     HAL_TIM_PWM_Stop(&htim1,TIM_CHANNEL_4);      
 991              		.loc 1 306 5 view .LVU271
 992 0044 0C21     		movs	r1, #12
ARM GAS  C:\Users\ADMINI~1\AppData\Local\Temp\cckbeWhj.s 			page 27


 993 0046 2046     		mov	r0, r4
 994 0048 FFF7FEFF 		bl	HAL_TIM_PWM_Stop
 995              	.LVL69:
 307:Src/tim.c     **** }
 996              		.loc 1 307 1 is_stmt 0 view .LVU272
 997 004c 38BD     		pop	{r3, r4, r5, pc}
 998              	.L62:
 999 004e 00BF     		.align	2
 1000              	.L61:
 1001 0050 00000000 		.word	.LANCHOR0
 1002 0054 00000000 		.word	hadc1
 1003              		.cfi_endproc
 1004              	.LFE338:
 1006              		.global	AAAAA
 1007              		.global	htim1
 1008              		.section	.bss.AAAAA,"aw",%nobits
 1009              		.align	2
 1010              		.set	.LANCHOR1,. + 0
 1013              	AAAAA:
 1014 0000 00000000 		.space	4
 1015              		.section	.bss.htim1,"aw",%nobits
 1016              		.align	2
 1017              		.set	.LANCHOR0,. + 0
 1020              	htim1:
 1021 0000 00000000 		.space	76
 1021      00000000 
 1021      00000000 
 1021      00000000 
 1021      00000000 
 1022              		.text
 1023              	.Letext0:
 1024              		.file 2 "d:\\program files (x86)\\gcc-arm-none-eabi-10-2020-q4-major-win32\\tool\\arm-none-eabi\\i
 1025              		.file 3 "d:\\program files (x86)\\gcc-arm-none-eabi-10-2020-q4-major-win32\\tool\\arm-none-eabi\\i
 1026              		.file 4 "Drivers/CMSIS/Device/ST/STM32G4xx/Include/stm32g431xx.h"
 1027              		.file 5 "Drivers/CMSIS/Device/ST/STM32G4xx/Include/stm32g4xx.h"
 1028              		.file 6 "Drivers/STM32G4xx_HAL_Driver/Inc/stm32g4xx_hal_def.h"
 1029              		.file 7 "Drivers/STM32G4xx_HAL_Driver/Inc/stm32g4xx_hal_gpio.h"
 1030              		.file 8 "Drivers/STM32G4xx_HAL_Driver/Inc/stm32g4xx_hal_dma.h"
 1031              		.file 9 "Drivers/STM32G4xx_HAL_Driver/Inc/stm32g4xx_hal_adc.h"
 1032              		.file 10 "Drivers/STM32G4xx_HAL_Driver/Inc/stm32g4xx_hal_tim.h"
 1033              		.file 11 "Inc/tim.h"
 1034              		.file 12 "Inc/adc.h"
 1035              		.file 13 "../Public/IPC/ipc.h"
 1036              		.file 14 "Drivers/STM32G4xx_HAL_Driver/Inc/stm32g4xx_hal_tim_ex.h"
 1037              		.file 15 "Drivers/STM32G4xx_HAL_Driver/Inc/stm32g4xx_hal_adc_ex.h"
 1038              		.file 16 "Inc/main.h"
 1039              		.file 17 "<built-in>"
ARM GAS  C:\Users\ADMINI~1\AppData\Local\Temp\cckbeWhj.s 			page 28

