ARM GAS  C:\Users\ADMINI~1\AppData\Local\Temp\cci4oVZg.s 			page 1


   1              		.cpu cortex-m4
   2              		.eabi_attribute 27, 1
   3              		.eabi_attribute 28, 1
   4              		.eabi_attribute 20, 1
   5              		.eabi_attribute 21, 1
   6              		.eabi_attribute 23, 3
   7              		.eabi_attribute 24, 1
   8              		.eabi_attribute 25, 1
   9              		.eabi_attribute 26, 1
  10              		.eabi_attribute 30, 1
  11              		.eabi_attribute 34, 1
  12              		.eabi_attribute 18, 4
  13              		.file	"tim.c"
  14              		.text
  15              	.Ltext0:
  16              		.cfi_sections	.debug_frame
  17              		.section	.text.HAL_TIM_Base_MspInit,"ax",%progbits
  18              		.align	1
  19              		.global	HAL_TIM_Base_MspInit
  20              		.arch armv7e-m
  21              		.syntax unified
  22              		.thumb
  23              		.thumb_func
  24              		.fpu fpv4-sp-d16
  26              	HAL_TIM_Base_MspInit:
  27              	.LVL0:
  28              	.LFB330:
  29              		.file 1 "Src/tim.c"
   1:Src/tim.c     **** /* USER CODE BEGIN Header */
   2:Src/tim.c     **** /**
   3:Src/tim.c     ****   ******************************************************************************
   4:Src/tim.c     ****   * @file    tim.c
   5:Src/tim.c     ****   * @brief   This file provides code for the configuration
   6:Src/tim.c     ****   *          of the TIM instances.
   7:Src/tim.c     ****   ******************************************************************************
   8:Src/tim.c     ****   * @attention
   9:Src/tim.c     ****   *
  10:Src/tim.c     ****   * Copyright (c) 2023 STMicroelectronics.
  11:Src/tim.c     ****   * All rights reserved.
  12:Src/tim.c     ****   *
  13:Src/tim.c     ****   * This software is licensed under terms that can be found in the LICENSE file
  14:Src/tim.c     ****   * in the root directory of this software component.
  15:Src/tim.c     ****   * If no LICENSE file comes with this software, it is provided AS-IS.
  16:Src/tim.c     ****   *
  17:Src/tim.c     ****   ******************************************************************************
  18:Src/tim.c     ****   */
  19:Src/tim.c     **** /* USER CODE END Header */
  20:Src/tim.c     **** /* Includes ------------------------------------------------------------------*/
  21:Src/tim.c     **** #include "tim.h"
  22:Src/tim.c     **** 
  23:Src/tim.c     **** /* USER CODE BEGIN 0 */
  24:Src/tim.c     **** 
  25:Src/tim.c     **** /* USER CODE END 0 */
  26:Src/tim.c     **** 
  27:Src/tim.c     **** TIM_HandleTypeDef htim1;
  28:Src/tim.c     **** 
  29:Src/tim.c     **** /* TIM1 init function */
ARM GAS  C:\Users\ADMINI~1\AppData\Local\Temp\cci4oVZg.s 			page 2


  30:Src/tim.c     **** void MX_TIM1_Init(void)
  31:Src/tim.c     **** {
  32:Src/tim.c     **** 
  33:Src/tim.c     ****   /* USER CODE BEGIN TIM1_Init 0 */
  34:Src/tim.c     **** 
  35:Src/tim.c     ****   /* USER CODE END TIM1_Init 0 */
  36:Src/tim.c     **** 
  37:Src/tim.c     ****   TIM_ClockConfigTypeDef sClockSourceConfig = {0};
  38:Src/tim.c     ****   TIM_MasterConfigTypeDef sMasterConfig = {0};
  39:Src/tim.c     ****   TIM_OC_InitTypeDef sConfigOC = {0};
  40:Src/tim.c     ****   TIM_BreakDeadTimeConfigTypeDef sBreakDeadTimeConfig = {0};
  41:Src/tim.c     **** 
  42:Src/tim.c     ****   /* USER CODE BEGIN TIM1_Init 1 */
  43:Src/tim.c     **** 
  44:Src/tim.c     ****   /* USER CODE END TIM1_Init 1 */
  45:Src/tim.c     ****   htim1.Instance = TIM1;
  46:Src/tim.c     ****   htim1.Init.Prescaler = _PSC-1;
  47:Src/tim.c     ****   htim1.Init.CounterMode = TIM_COUNTERMODE_CENTERALIGNED1;
  48:Src/tim.c     ****   htim1.Init.Period = 8499;
  49:Src/tim.c     ****   htim1.Init.ClockDivision = TIM_CLOCKDIVISION_DIV2;
  50:Src/tim.c     ****   htim1.Init.RepetitionCounter = 0;
  51:Src/tim.c     ****   htim1.Init.AutoReloadPreload = TIM_AUTORELOAD_PRELOAD_DISABLE;
  52:Src/tim.c     ****   if (HAL_TIM_Base_Init(&htim1) != HAL_OK)
  53:Src/tim.c     ****   {
  54:Src/tim.c     ****     Error_Handler();
  55:Src/tim.c     ****   }
  56:Src/tim.c     ****   sClockSourceConfig.ClockSource = TIM_CLOCKSOURCE_INTERNAL;
  57:Src/tim.c     ****   if (HAL_TIM_ConfigClockSource(&htim1, &sClockSourceConfig) != HAL_OK)
  58:Src/tim.c     ****   {
  59:Src/tim.c     ****     Error_Handler();
  60:Src/tim.c     ****   }
  61:Src/tim.c     ****   if (HAL_TIM_PWM_Init(&htim1) != HAL_OK)
  62:Src/tim.c     ****   {
  63:Src/tim.c     ****     Error_Handler();
  64:Src/tim.c     ****   }
  65:Src/tim.c     ****   sMasterConfig.MasterOutputTrigger = TIM_TRGO_RESET;
  66:Src/tim.c     ****   sMasterConfig.MasterOutputTrigger2 = TIM_TRGO2_RESET;
  67:Src/tim.c     ****   sMasterConfig.MasterSlaveMode = TIM_MASTERSLAVEMODE_DISABLE;
  68:Src/tim.c     ****   if (HAL_TIMEx_MasterConfigSynchronization(&htim1, &sMasterConfig) != HAL_OK)
  69:Src/tim.c     ****   {
  70:Src/tim.c     ****     Error_Handler();
  71:Src/tim.c     ****   }
  72:Src/tim.c     ****   sConfigOC.OCMode = TIM_OCMODE_PWM1;
  73:Src/tim.c     ****   sConfigOC.Pulse = 0;
  74:Src/tim.c     ****   sConfigOC.OCPolarity = TIM_OCPOLARITY_HIGH;
  75:Src/tim.c     ****   sConfigOC.OCNPolarity = TIM_OCNPOLARITY_HIGH;
  76:Src/tim.c     ****   sConfigOC.OCFastMode = TIM_OCFAST_DISABLE;
  77:Src/tim.c     ****   sConfigOC.OCIdleState = TIM_OCIDLESTATE_RESET;
  78:Src/tim.c     ****   sConfigOC.OCNIdleState = TIM_OCNIDLESTATE_RESET;
  79:Src/tim.c     ****   if (HAL_TIM_PWM_ConfigChannel(&htim1, &sConfigOC, TIM_CHANNEL_1) != HAL_OK)
  80:Src/tim.c     ****   {
  81:Src/tim.c     ****     Error_Handler();
  82:Src/tim.c     ****   }
  83:Src/tim.c     ****   sConfigOC.Pulse = 1599;
  84:Src/tim.c     ****   if (HAL_TIM_PWM_ConfigChannel(&htim1, &sConfigOC, TIM_CHANNEL_2) != HAL_OK)
  85:Src/tim.c     ****   {
  86:Src/tim.c     ****     Error_Handler();
ARM GAS  C:\Users\ADMINI~1\AppData\Local\Temp\cci4oVZg.s 			page 3


  87:Src/tim.c     ****   }
  88:Src/tim.c     ****   sConfigOC.Pulse = 0;
  89:Src/tim.c     ****   if (HAL_TIM_PWM_ConfigChannel(&htim1, &sConfigOC, TIM_CHANNEL_3) != HAL_OK)
  90:Src/tim.c     ****   {
  91:Src/tim.c     ****     Error_Handler();
  92:Src/tim.c     ****   }
  93:Src/tim.c     ****   sConfigOC.Pulse = 1200;
  94:Src/tim.c     ****   if (HAL_TIM_PWM_ConfigChannel(&htim1, &sConfigOC, TIM_CHANNEL_4) != HAL_OK)
  95:Src/tim.c     ****   {
  96:Src/tim.c     ****     Error_Handler();
  97:Src/tim.c     ****   }
  98:Src/tim.c     ****   sBreakDeadTimeConfig.OffStateRunMode = TIM_OSSR_DISABLE;
  99:Src/tim.c     ****   sBreakDeadTimeConfig.OffStateIDLEMode = TIM_OSSI_DISABLE;
 100:Src/tim.c     ****   sBreakDeadTimeConfig.LockLevel = TIM_LOCKLEVEL_OFF;
 101:Src/tim.c     ****   sBreakDeadTimeConfig.DeadTime = 0;
 102:Src/tim.c     ****   sBreakDeadTimeConfig.BreakState = TIM_BREAK_DISABLE;
 103:Src/tim.c     ****   sBreakDeadTimeConfig.BreakPolarity = TIM_BREAKPOLARITY_HIGH;
 104:Src/tim.c     ****   sBreakDeadTimeConfig.BreakFilter = 0;
 105:Src/tim.c     ****   sBreakDeadTimeConfig.BreakAFMode = TIM_BREAK_AFMODE_INPUT;
 106:Src/tim.c     ****   sBreakDeadTimeConfig.Break2State = TIM_BREAK2_DISABLE;
 107:Src/tim.c     ****   sBreakDeadTimeConfig.Break2Polarity = TIM_BREAK2POLARITY_HIGH;
 108:Src/tim.c     ****   sBreakDeadTimeConfig.Break2Filter = 0;
 109:Src/tim.c     ****   sBreakDeadTimeConfig.Break2AFMode = TIM_BREAK_AFMODE_INPUT;
 110:Src/tim.c     ****   sBreakDeadTimeConfig.AutomaticOutput = TIM_AUTOMATICOUTPUT_DISABLE;
 111:Src/tim.c     ****   if (HAL_TIMEx_ConfigBreakDeadTime(&htim1, &sBreakDeadTimeConfig) != HAL_OK)
 112:Src/tim.c     ****   {
 113:Src/tim.c     ****     Error_Handler();
 114:Src/tim.c     ****   }
 115:Src/tim.c     ****   /* USER CODE BEGIN TIM1_Init 2 */
 116:Src/tim.c     **** 
 117:Src/tim.c     ****   /* USER CODE END TIM1_Init 2 */
 118:Src/tim.c     ****   HAL_TIM_MspPostInit(&htim1);
 119:Src/tim.c     **** 
 120:Src/tim.c     **** }
 121:Src/tim.c     **** 
 122:Src/tim.c     **** void HAL_TIM_Base_MspInit(TIM_HandleTypeDef* tim_baseHandle)
 123:Src/tim.c     **** {
  30              		.loc 1 123 1 view -0
  31              		.cfi_startproc
  32              		@ args = 0, pretend = 0, frame = 8
  33              		@ frame_needed = 0, uses_anonymous_args = 0
  34              		@ link register save eliminated.
 124:Src/tim.c     **** 
 125:Src/tim.c     ****   if(tim_baseHandle->Instance==TIM1)
  35              		.loc 1 125 3 view .LVU1
  36              		.loc 1 125 20 is_stmt 0 view .LVU2
  37 0000 0268     		ldr	r2, [r0]
  38              		.loc 1 125 5 view .LVU3
  39 0002 094B     		ldr	r3, .L8
  40 0004 9A42     		cmp	r2, r3
  41 0006 00D0     		beq	.L7
  42 0008 7047     		bx	lr
  43              	.L7:
 123:Src/tim.c     **** 
  44              		.loc 1 123 1 view .LVU4
  45 000a 82B0     		sub	sp, sp, #8
  46              	.LCFI0:
ARM GAS  C:\Users\ADMINI~1\AppData\Local\Temp\cci4oVZg.s 			page 4


  47              		.cfi_def_cfa_offset 8
 126:Src/tim.c     ****   {
 127:Src/tim.c     ****   /* USER CODE BEGIN TIM1_MspInit 0 */
 128:Src/tim.c     **** 
 129:Src/tim.c     ****   /* USER CODE END TIM1_MspInit 0 */
 130:Src/tim.c     ****     /* TIM1 clock enable */
 131:Src/tim.c     ****     __HAL_RCC_TIM1_CLK_ENABLE();
  48              		.loc 1 131 5 is_stmt 1 view .LVU5
  49              	.LBB2:
  50              		.loc 1 131 5 view .LVU6
  51              		.loc 1 131 5 view .LVU7
  52 000c 03F56443 		add	r3, r3, #58368
  53 0010 1A6E     		ldr	r2, [r3, #96]
  54 0012 42F40062 		orr	r2, r2, #2048
  55 0016 1A66     		str	r2, [r3, #96]
  56              		.loc 1 131 5 view .LVU8
  57 0018 1B6E     		ldr	r3, [r3, #96]
  58 001a 03F40063 		and	r3, r3, #2048
  59 001e 0193     		str	r3, [sp, #4]
  60              		.loc 1 131 5 view .LVU9
  61 0020 019B     		ldr	r3, [sp, #4]
  62              	.LBE2:
  63              		.loc 1 131 5 view .LVU10
 132:Src/tim.c     ****   /* USER CODE BEGIN TIM1_MspInit 1 */
 133:Src/tim.c     **** 
 134:Src/tim.c     ****   /* USER CODE END TIM1_MspInit 1 */
 135:Src/tim.c     ****   }
 136:Src/tim.c     **** }
  64              		.loc 1 136 1 is_stmt 0 view .LVU11
  65 0022 02B0     		add	sp, sp, #8
  66              	.LCFI1:
  67              		.cfi_def_cfa_offset 0
  68              		@ sp needed
  69 0024 7047     		bx	lr
  70              	.L9:
  71 0026 00BF     		.align	2
  72              	.L8:
  73 0028 002C0140 		.word	1073818624
  74              		.cfi_endproc
  75              	.LFE330:
  77              		.section	.text.HAL_TIM_MspPostInit,"ax",%progbits
  78              		.align	1
  79              		.global	HAL_TIM_MspPostInit
  80              		.syntax unified
  81              		.thumb
  82              		.thumb_func
  83              		.fpu fpv4-sp-d16
  85              	HAL_TIM_MspPostInit:
  86              	.LVL1:
  87              	.LFB331:
 137:Src/tim.c     **** void HAL_TIM_MspPostInit(TIM_HandleTypeDef* timHandle)
 138:Src/tim.c     **** {
  88              		.loc 1 138 1 is_stmt 1 view -0
  89              		.cfi_startproc
  90              		@ args = 0, pretend = 0, frame = 32
  91              		@ frame_needed = 0, uses_anonymous_args = 0
  92              		.loc 1 138 1 is_stmt 0 view .LVU13
ARM GAS  C:\Users\ADMINI~1\AppData\Local\Temp\cci4oVZg.s 			page 5


  93 0000 F0B5     		push	{r4, r5, r6, r7, lr}
  94              	.LCFI2:
  95              		.cfi_def_cfa_offset 20
  96              		.cfi_offset 4, -20
  97              		.cfi_offset 5, -16
  98              		.cfi_offset 6, -12
  99              		.cfi_offset 7, -8
 100              		.cfi_offset 14, -4
 101 0002 89B0     		sub	sp, sp, #36
 102              	.LCFI3:
 103              		.cfi_def_cfa_offset 56
 139:Src/tim.c     **** 
 140:Src/tim.c     ****   GPIO_InitTypeDef GPIO_InitStruct = {0};
 104              		.loc 1 140 3 is_stmt 1 view .LVU14
 105              		.loc 1 140 20 is_stmt 0 view .LVU15
 106 0004 0023     		movs	r3, #0
 107 0006 0393     		str	r3, [sp, #12]
 108 0008 0493     		str	r3, [sp, #16]
 109 000a 0593     		str	r3, [sp, #20]
 110 000c 0693     		str	r3, [sp, #24]
 111 000e 0793     		str	r3, [sp, #28]
 141:Src/tim.c     ****   if(timHandle->Instance==TIM1)
 112              		.loc 1 141 3 is_stmt 1 view .LVU16
 113              		.loc 1 141 15 is_stmt 0 view .LVU17
 114 0010 0268     		ldr	r2, [r0]
 115              		.loc 1 141 5 view .LVU18
 116 0012 264B     		ldr	r3, .L14
 117 0014 9A42     		cmp	r2, r3
 118 0016 01D0     		beq	.L13
 119              	.LVL2:
 120              	.L10:
 142:Src/tim.c     ****   {
 143:Src/tim.c     ****   /* USER CODE BEGIN TIM1_MspPostInit 0 */
 144:Src/tim.c     **** 
 145:Src/tim.c     ****   /* USER CODE END TIM1_MspPostInit 0 */
 146:Src/tim.c     **** 
 147:Src/tim.c     ****     __HAL_RCC_GPIOB_CLK_ENABLE();
 148:Src/tim.c     ****     __HAL_RCC_GPIOA_CLK_ENABLE();
 149:Src/tim.c     ****     /**TIM1 GPIO Configuration
 150:Src/tim.c     ****     PB13     ------> TIM1_CH1N
 151:Src/tim.c     ****     PB14     ------> TIM1_CH2N
 152:Src/tim.c     ****     PB15     ------> TIM1_CH3N
 153:Src/tim.c     ****     PA8     ------> TIM1_CH1
 154:Src/tim.c     ****     PA9     ------> TIM1_CH2
 155:Src/tim.c     ****     PA10     ------> TIM1_CH3
 156:Src/tim.c     ****     PA11     ------> TIM1_CH4
 157:Src/tim.c     ****     */
 158:Src/tim.c     ****     GPIO_InitStruct.Pin = GPIO_PIN_13|GPIO_PIN_14;
 159:Src/tim.c     ****     GPIO_InitStruct.Mode = GPIO_MODE_AF_PP;
 160:Src/tim.c     ****     GPIO_InitStruct.Pull = GPIO_NOPULL;
 161:Src/tim.c     ****     GPIO_InitStruct.Speed = GPIO_SPEED_FREQ_LOW;
 162:Src/tim.c     ****     GPIO_InitStruct.Alternate = GPIO_AF6_TIM1;
 163:Src/tim.c     ****     HAL_GPIO_Init(GPIOB, &GPIO_InitStruct);
 164:Src/tim.c     **** 
 165:Src/tim.c     ****     GPIO_InitStruct.Pin = GPIO_PIN_15;
 166:Src/tim.c     ****     GPIO_InitStruct.Mode = GPIO_MODE_AF_PP;
 167:Src/tim.c     ****     GPIO_InitStruct.Pull = GPIO_NOPULL;
ARM GAS  C:\Users\ADMINI~1\AppData\Local\Temp\cci4oVZg.s 			page 6


 168:Src/tim.c     ****     GPIO_InitStruct.Speed = GPIO_SPEED_FREQ_LOW;
 169:Src/tim.c     ****     GPIO_InitStruct.Alternate = GPIO_AF4_TIM1;
 170:Src/tim.c     ****     HAL_GPIO_Init(GPIOB, &GPIO_InitStruct);
 171:Src/tim.c     **** 
 172:Src/tim.c     ****     GPIO_InitStruct.Pin = GPIO_PIN_8|GPIO_PIN_9|GPIO_PIN_10;
 173:Src/tim.c     ****     GPIO_InitStruct.Mode = GPIO_MODE_AF_PP;
 174:Src/tim.c     ****     GPIO_InitStruct.Pull = GPIO_NOPULL;
 175:Src/tim.c     ****     GPIO_InitStruct.Speed = GPIO_SPEED_FREQ_LOW;
 176:Src/tim.c     ****     GPIO_InitStruct.Alternate = GPIO_AF6_TIM1;
 177:Src/tim.c     ****     HAL_GPIO_Init(GPIOA, &GPIO_InitStruct);
 178:Src/tim.c     **** 
 179:Src/tim.c     ****     GPIO_InitStruct.Pin = GPIO_PIN_11;
 180:Src/tim.c     ****     GPIO_InitStruct.Mode = GPIO_MODE_AF_PP;
 181:Src/tim.c     ****     GPIO_InitStruct.Pull = GPIO_NOPULL;
 182:Src/tim.c     ****     GPIO_InitStruct.Speed = GPIO_SPEED_FREQ_LOW;
 183:Src/tim.c     ****     GPIO_InitStruct.Alternate = GPIO_AF11_TIM1;
 184:Src/tim.c     ****     HAL_GPIO_Init(GPIOA, &GPIO_InitStruct);
 185:Src/tim.c     **** 
 186:Src/tim.c     ****   /* USER CODE BEGIN TIM1_MspPostInit 1 */
 187:Src/tim.c     **** 
 188:Src/tim.c     ****   /* USER CODE END TIM1_MspPostInit 1 */
 189:Src/tim.c     ****   }
 190:Src/tim.c     **** 
 191:Src/tim.c     **** }
 121              		.loc 1 191 1 view .LVU19
 122 0018 09B0     		add	sp, sp, #36
 123              	.LCFI4:
 124              		.cfi_remember_state
 125              		.cfi_def_cfa_offset 20
 126              		@ sp needed
 127 001a F0BD     		pop	{r4, r5, r6, r7, pc}
 128              	.LVL3:
 129              	.L13:
 130              	.LCFI5:
 131              		.cfi_restore_state
 147:Src/tim.c     ****     __HAL_RCC_GPIOA_CLK_ENABLE();
 132              		.loc 1 147 5 is_stmt 1 view .LVU20
 133              	.LBB3:
 147:Src/tim.c     ****     __HAL_RCC_GPIOA_CLK_ENABLE();
 134              		.loc 1 147 5 view .LVU21
 147:Src/tim.c     ****     __HAL_RCC_GPIOA_CLK_ENABLE();
 135              		.loc 1 147 5 view .LVU22
 136 001c 03F56443 		add	r3, r3, #58368
 137 0020 DA6C     		ldr	r2, [r3, #76]
 138 0022 42F00202 		orr	r2, r2, #2
 139 0026 DA64     		str	r2, [r3, #76]
 147:Src/tim.c     ****     __HAL_RCC_GPIOA_CLK_ENABLE();
 140              		.loc 1 147 5 view .LVU23
 141 0028 DA6C     		ldr	r2, [r3, #76]
 142 002a 02F00202 		and	r2, r2, #2
 143 002e 0192     		str	r2, [sp, #4]
 147:Src/tim.c     ****     __HAL_RCC_GPIOA_CLK_ENABLE();
 144              		.loc 1 147 5 view .LVU24
 145 0030 019A     		ldr	r2, [sp, #4]
 146              	.LBE3:
 147:Src/tim.c     ****     __HAL_RCC_GPIOA_CLK_ENABLE();
 147              		.loc 1 147 5 view .LVU25
ARM GAS  C:\Users\ADMINI~1\AppData\Local\Temp\cci4oVZg.s 			page 7


 148:Src/tim.c     ****     /**TIM1 GPIO Configuration
 148              		.loc 1 148 5 view .LVU26
 149              	.LBB4:
 148:Src/tim.c     ****     /**TIM1 GPIO Configuration
 150              		.loc 1 148 5 view .LVU27
 148:Src/tim.c     ****     /**TIM1 GPIO Configuration
 151              		.loc 1 148 5 view .LVU28
 152 0032 DA6C     		ldr	r2, [r3, #76]
 153 0034 42F00102 		orr	r2, r2, #1
 154 0038 DA64     		str	r2, [r3, #76]
 148:Src/tim.c     ****     /**TIM1 GPIO Configuration
 155              		.loc 1 148 5 view .LVU29
 156 003a DB6C     		ldr	r3, [r3, #76]
 157 003c 03F00103 		and	r3, r3, #1
 158 0040 0293     		str	r3, [sp, #8]
 148:Src/tim.c     ****     /**TIM1 GPIO Configuration
 159              		.loc 1 148 5 view .LVU30
 160 0042 029B     		ldr	r3, [sp, #8]
 161              	.LBE4:
 148:Src/tim.c     ****     /**TIM1 GPIO Configuration
 162              		.loc 1 148 5 view .LVU31
 158:Src/tim.c     ****     GPIO_InitStruct.Mode = GPIO_MODE_AF_PP;
 163              		.loc 1 158 5 view .LVU32
 158:Src/tim.c     ****     GPIO_InitStruct.Mode = GPIO_MODE_AF_PP;
 164              		.loc 1 158 25 is_stmt 0 view .LVU33
 165 0044 4FF4C043 		mov	r3, #24576
 166 0048 0393     		str	r3, [sp, #12]
 159:Src/tim.c     ****     GPIO_InitStruct.Pull = GPIO_NOPULL;
 167              		.loc 1 159 5 is_stmt 1 view .LVU34
 159:Src/tim.c     ****     GPIO_InitStruct.Pull = GPIO_NOPULL;
 168              		.loc 1 159 26 is_stmt 0 view .LVU35
 169 004a 0225     		movs	r5, #2
 170 004c 0495     		str	r5, [sp, #16]
 160:Src/tim.c     ****     GPIO_InitStruct.Speed = GPIO_SPEED_FREQ_LOW;
 171              		.loc 1 160 5 is_stmt 1 view .LVU36
 161:Src/tim.c     ****     GPIO_InitStruct.Alternate = GPIO_AF6_TIM1;
 172              		.loc 1 161 5 view .LVU37
 162:Src/tim.c     ****     HAL_GPIO_Init(GPIOB, &GPIO_InitStruct);
 173              		.loc 1 162 5 view .LVU38
 162:Src/tim.c     ****     HAL_GPIO_Init(GPIOB, &GPIO_InitStruct);
 174              		.loc 1 162 31 is_stmt 0 view .LVU39
 175 004e 0626     		movs	r6, #6
 176 0050 0796     		str	r6, [sp, #28]
 163:Src/tim.c     **** 
 177              		.loc 1 163 5 is_stmt 1 view .LVU40
 178 0052 174F     		ldr	r7, .L14+4
 179 0054 03A9     		add	r1, sp, #12
 180 0056 3846     		mov	r0, r7
 181              	.LVL4:
 163:Src/tim.c     **** 
 182              		.loc 1 163 5 is_stmt 0 view .LVU41
 183 0058 FFF7FEFF 		bl	HAL_GPIO_Init
 184              	.LVL5:
 165:Src/tim.c     ****     GPIO_InitStruct.Mode = GPIO_MODE_AF_PP;
 185              		.loc 1 165 5 is_stmt 1 view .LVU42
 165:Src/tim.c     ****     GPIO_InitStruct.Mode = GPIO_MODE_AF_PP;
 186              		.loc 1 165 25 is_stmt 0 view .LVU43
ARM GAS  C:\Users\ADMINI~1\AppData\Local\Temp\cci4oVZg.s 			page 8


 187 005c 4FF40043 		mov	r3, #32768
 188 0060 0393     		str	r3, [sp, #12]
 166:Src/tim.c     ****     GPIO_InitStruct.Pull = GPIO_NOPULL;
 189              		.loc 1 166 5 is_stmt 1 view .LVU44
 166:Src/tim.c     ****     GPIO_InitStruct.Pull = GPIO_NOPULL;
 190              		.loc 1 166 26 is_stmt 0 view .LVU45
 191 0062 0495     		str	r5, [sp, #16]
 167:Src/tim.c     ****     GPIO_InitStruct.Speed = GPIO_SPEED_FREQ_LOW;
 192              		.loc 1 167 5 is_stmt 1 view .LVU46
 167:Src/tim.c     ****     GPIO_InitStruct.Speed = GPIO_SPEED_FREQ_LOW;
 193              		.loc 1 167 26 is_stmt 0 view .LVU47
 194 0064 0024     		movs	r4, #0
 195 0066 0594     		str	r4, [sp, #20]
 168:Src/tim.c     ****     GPIO_InitStruct.Alternate = GPIO_AF4_TIM1;
 196              		.loc 1 168 5 is_stmt 1 view .LVU48
 168:Src/tim.c     ****     GPIO_InitStruct.Alternate = GPIO_AF4_TIM1;
 197              		.loc 1 168 27 is_stmt 0 view .LVU49
 198 0068 0694     		str	r4, [sp, #24]
 169:Src/tim.c     ****     HAL_GPIO_Init(GPIOB, &GPIO_InitStruct);
 199              		.loc 1 169 5 is_stmt 1 view .LVU50
 169:Src/tim.c     ****     HAL_GPIO_Init(GPIOB, &GPIO_InitStruct);
 200              		.loc 1 169 31 is_stmt 0 view .LVU51
 201 006a 0423     		movs	r3, #4
 202 006c 0793     		str	r3, [sp, #28]
 170:Src/tim.c     **** 
 203              		.loc 1 170 5 is_stmt 1 view .LVU52
 204 006e 03A9     		add	r1, sp, #12
 205 0070 3846     		mov	r0, r7
 206 0072 FFF7FEFF 		bl	HAL_GPIO_Init
 207              	.LVL6:
 172:Src/tim.c     ****     GPIO_InitStruct.Mode = GPIO_MODE_AF_PP;
 208              		.loc 1 172 5 view .LVU53
 172:Src/tim.c     ****     GPIO_InitStruct.Mode = GPIO_MODE_AF_PP;
 209              		.loc 1 172 25 is_stmt 0 view .LVU54
 210 0076 4FF4E063 		mov	r3, #1792
 211 007a 0393     		str	r3, [sp, #12]
 173:Src/tim.c     ****     GPIO_InitStruct.Pull = GPIO_NOPULL;
 212              		.loc 1 173 5 is_stmt 1 view .LVU55
 173:Src/tim.c     ****     GPIO_InitStruct.Pull = GPIO_NOPULL;
 213              		.loc 1 173 26 is_stmt 0 view .LVU56
 214 007c 0495     		str	r5, [sp, #16]
 174:Src/tim.c     ****     GPIO_InitStruct.Speed = GPIO_SPEED_FREQ_LOW;
 215              		.loc 1 174 5 is_stmt 1 view .LVU57
 174:Src/tim.c     ****     GPIO_InitStruct.Speed = GPIO_SPEED_FREQ_LOW;
 216              		.loc 1 174 26 is_stmt 0 view .LVU58
 217 007e 0594     		str	r4, [sp, #20]
 175:Src/tim.c     ****     GPIO_InitStruct.Alternate = GPIO_AF6_TIM1;
 218              		.loc 1 175 5 is_stmt 1 view .LVU59
 175:Src/tim.c     ****     GPIO_InitStruct.Alternate = GPIO_AF6_TIM1;
 219              		.loc 1 175 27 is_stmt 0 view .LVU60
 220 0080 0694     		str	r4, [sp, #24]
 176:Src/tim.c     ****     HAL_GPIO_Init(GPIOA, &GPIO_InitStruct);
 221              		.loc 1 176 5 is_stmt 1 view .LVU61
 176:Src/tim.c     ****     HAL_GPIO_Init(GPIOA, &GPIO_InitStruct);
 222              		.loc 1 176 31 is_stmt 0 view .LVU62
 223 0082 0796     		str	r6, [sp, #28]
 177:Src/tim.c     **** 
ARM GAS  C:\Users\ADMINI~1\AppData\Local\Temp\cci4oVZg.s 			page 9


 224              		.loc 1 177 5 is_stmt 1 view .LVU63
 225 0084 03A9     		add	r1, sp, #12
 226 0086 4FF09040 		mov	r0, #1207959552
 227 008a FFF7FEFF 		bl	HAL_GPIO_Init
 228              	.LVL7:
 179:Src/tim.c     ****     GPIO_InitStruct.Mode = GPIO_MODE_AF_PP;
 229              		.loc 1 179 5 view .LVU64
 179:Src/tim.c     ****     GPIO_InitStruct.Mode = GPIO_MODE_AF_PP;
 230              		.loc 1 179 25 is_stmt 0 view .LVU65
 231 008e 4FF40063 		mov	r3, #2048
 232 0092 0393     		str	r3, [sp, #12]
 180:Src/tim.c     ****     GPIO_InitStruct.Pull = GPIO_NOPULL;
 233              		.loc 1 180 5 is_stmt 1 view .LVU66
 180:Src/tim.c     ****     GPIO_InitStruct.Pull = GPIO_NOPULL;
 234              		.loc 1 180 26 is_stmt 0 view .LVU67
 235 0094 0495     		str	r5, [sp, #16]
 181:Src/tim.c     ****     GPIO_InitStruct.Speed = GPIO_SPEED_FREQ_LOW;
 236              		.loc 1 181 5 is_stmt 1 view .LVU68
 181:Src/tim.c     ****     GPIO_InitStruct.Speed = GPIO_SPEED_FREQ_LOW;
 237              		.loc 1 181 26 is_stmt 0 view .LVU69
 238 0096 0594     		str	r4, [sp, #20]
 182:Src/tim.c     ****     GPIO_InitStruct.Alternate = GPIO_AF11_TIM1;
 239              		.loc 1 182 5 is_stmt 1 view .LVU70
 182:Src/tim.c     ****     GPIO_InitStruct.Alternate = GPIO_AF11_TIM1;
 240              		.loc 1 182 27 is_stmt 0 view .LVU71
 241 0098 0694     		str	r4, [sp, #24]
 183:Src/tim.c     ****     HAL_GPIO_Init(GPIOA, &GPIO_InitStruct);
 242              		.loc 1 183 5 is_stmt 1 view .LVU72
 183:Src/tim.c     ****     HAL_GPIO_Init(GPIOA, &GPIO_InitStruct);
 243              		.loc 1 183 31 is_stmt 0 view .LVU73
 244 009a 0B23     		movs	r3, #11
 245 009c 0793     		str	r3, [sp, #28]
 184:Src/tim.c     **** 
 246              		.loc 1 184 5 is_stmt 1 view .LVU74
 247 009e 03A9     		add	r1, sp, #12
 248 00a0 4FF09040 		mov	r0, #1207959552
 249 00a4 FFF7FEFF 		bl	HAL_GPIO_Init
 250              	.LVL8:
 251              		.loc 1 191 1 is_stmt 0 view .LVU75
 252 00a8 B6E7     		b	.L10
 253              	.L15:
 254 00aa 00BF     		.align	2
 255              	.L14:
 256 00ac 002C0140 		.word	1073818624
 257 00b0 00040048 		.word	1207960576
 258              		.cfi_endproc
 259              	.LFE331:
 261              		.section	.text.MX_TIM1_Init,"ax",%progbits
 262              		.align	1
 263              		.global	MX_TIM1_Init
 264              		.syntax unified
 265              		.thumb
 266              		.thumb_func
 267              		.fpu fpv4-sp-d16
 269              	MX_TIM1_Init:
 270              	.LFB329:
  31:Src/tim.c     **** 
ARM GAS  C:\Users\ADMINI~1\AppData\Local\Temp\cci4oVZg.s 			page 10


 271              		.loc 1 31 1 is_stmt 1 view -0
 272              		.cfi_startproc
 273              		@ args = 0, pretend = 0, frame = 112
 274              		@ frame_needed = 0, uses_anonymous_args = 0
 275 0000 10B5     		push	{r4, lr}
 276              	.LCFI6:
 277              		.cfi_def_cfa_offset 8
 278              		.cfi_offset 4, -8
 279              		.cfi_offset 14, -4
 280 0002 9CB0     		sub	sp, sp, #112
 281              	.LCFI7:
 282              		.cfi_def_cfa_offset 120
  37:Src/tim.c     ****   TIM_MasterConfigTypeDef sMasterConfig = {0};
 283              		.loc 1 37 3 view .LVU77
  37:Src/tim.c     ****   TIM_MasterConfigTypeDef sMasterConfig = {0};
 284              		.loc 1 37 26 is_stmt 0 view .LVU78
 285 0004 0024     		movs	r4, #0
 286 0006 1894     		str	r4, [sp, #96]
 287 0008 1994     		str	r4, [sp, #100]
 288 000a 1A94     		str	r4, [sp, #104]
 289 000c 1B94     		str	r4, [sp, #108]
  38:Src/tim.c     ****   TIM_OC_InitTypeDef sConfigOC = {0};
 290              		.loc 1 38 3 is_stmt 1 view .LVU79
  38:Src/tim.c     ****   TIM_OC_InitTypeDef sConfigOC = {0};
 291              		.loc 1 38 27 is_stmt 0 view .LVU80
 292 000e 1594     		str	r4, [sp, #84]
 293 0010 1694     		str	r4, [sp, #88]
 294 0012 1794     		str	r4, [sp, #92]
  39:Src/tim.c     ****   TIM_BreakDeadTimeConfigTypeDef sBreakDeadTimeConfig = {0};
 295              		.loc 1 39 3 is_stmt 1 view .LVU81
  39:Src/tim.c     ****   TIM_BreakDeadTimeConfigTypeDef sBreakDeadTimeConfig = {0};
 296              		.loc 1 39 22 is_stmt 0 view .LVU82
 297 0014 0E94     		str	r4, [sp, #56]
 298 0016 0F94     		str	r4, [sp, #60]
 299 0018 1094     		str	r4, [sp, #64]
 300 001a 1194     		str	r4, [sp, #68]
 301 001c 1294     		str	r4, [sp, #72]
 302 001e 1394     		str	r4, [sp, #76]
 303 0020 1494     		str	r4, [sp, #80]
  40:Src/tim.c     **** 
 304              		.loc 1 40 3 is_stmt 1 view .LVU83
  40:Src/tim.c     **** 
 305              		.loc 1 40 34 is_stmt 0 view .LVU84
 306 0022 3422     		movs	r2, #52
 307 0024 2146     		mov	r1, r4
 308 0026 01A8     		add	r0, sp, #4
 309 0028 FFF7FEFF 		bl	memset
 310              	.LVL9:
  45:Src/tim.c     ****   htim1.Init.Prescaler = _PSC-1;
 311              		.loc 1 45 3 is_stmt 1 view .LVU85
  45:Src/tim.c     ****   htim1.Init.Prescaler = _PSC-1;
 312              		.loc 1 45 18 is_stmt 0 view .LVU86
 313 002c 4648     		ldr	r0, .L36
 314 002e 474B     		ldr	r3, .L36+4
 315 0030 0360     		str	r3, [r0]
  46:Src/tim.c     ****   htim1.Init.CounterMode = TIM_COUNTERMODE_CENTERALIGNED1;
 316              		.loc 1 46 3 is_stmt 1 view .LVU87
ARM GAS  C:\Users\ADMINI~1\AppData\Local\Temp\cci4oVZg.s 			page 11


  46:Src/tim.c     ****   htim1.Init.CounterMode = TIM_COUNTERMODE_CENTERALIGNED1;
 317              		.loc 1 46 24 is_stmt 0 view .LVU88
 318 0032 4460     		str	r4, [r0, #4]
  47:Src/tim.c     ****   htim1.Init.Period = 8499;
 319              		.loc 1 47 3 is_stmt 1 view .LVU89
  47:Src/tim.c     ****   htim1.Init.Period = 8499;
 320              		.loc 1 47 26 is_stmt 0 view .LVU90
 321 0034 2023     		movs	r3, #32
 322 0036 8360     		str	r3, [r0, #8]
  48:Src/tim.c     ****   htim1.Init.ClockDivision = TIM_CLOCKDIVISION_DIV2;
 323              		.loc 1 48 3 is_stmt 1 view .LVU91
  48:Src/tim.c     ****   htim1.Init.ClockDivision = TIM_CLOCKDIVISION_DIV2;
 324              		.loc 1 48 21 is_stmt 0 view .LVU92
 325 0038 42F23313 		movw	r3, #8499
 326 003c C360     		str	r3, [r0, #12]
  49:Src/tim.c     ****   htim1.Init.RepetitionCounter = 0;
 327              		.loc 1 49 3 is_stmt 1 view .LVU93
  49:Src/tim.c     ****   htim1.Init.RepetitionCounter = 0;
 328              		.loc 1 49 28 is_stmt 0 view .LVU94
 329 003e 4FF48073 		mov	r3, #256
 330 0042 0361     		str	r3, [r0, #16]
  50:Src/tim.c     ****   htim1.Init.AutoReloadPreload = TIM_AUTORELOAD_PRELOAD_DISABLE;
 331              		.loc 1 50 3 is_stmt 1 view .LVU95
  50:Src/tim.c     ****   htim1.Init.AutoReloadPreload = TIM_AUTORELOAD_PRELOAD_DISABLE;
 332              		.loc 1 50 32 is_stmt 0 view .LVU96
 333 0044 4461     		str	r4, [r0, #20]
  51:Src/tim.c     ****   if (HAL_TIM_Base_Init(&htim1) != HAL_OK)
 334              		.loc 1 51 3 is_stmt 1 view .LVU97
  51:Src/tim.c     ****   if (HAL_TIM_Base_Init(&htim1) != HAL_OK)
 335              		.loc 1 51 32 is_stmt 0 view .LVU98
 336 0046 8461     		str	r4, [r0, #24]
  52:Src/tim.c     ****   {
 337              		.loc 1 52 3 is_stmt 1 view .LVU99
  52:Src/tim.c     ****   {
 338              		.loc 1 52 7 is_stmt 0 view .LVU100
 339 0048 FFF7FEFF 		bl	HAL_TIM_Base_Init
 340              	.LVL10:
  52:Src/tim.c     ****   {
 341              		.loc 1 52 6 view .LVU101
 342 004c 0028     		cmp	r0, #0
 343 004e 5FD1     		bne	.L27
 344              	.L17:
  56:Src/tim.c     ****   if (HAL_TIM_ConfigClockSource(&htim1, &sClockSourceConfig) != HAL_OK)
 345              		.loc 1 56 3 is_stmt 1 view .LVU102
  56:Src/tim.c     ****   if (HAL_TIM_ConfigClockSource(&htim1, &sClockSourceConfig) != HAL_OK)
 346              		.loc 1 56 34 is_stmt 0 view .LVU103
 347 0050 4FF48053 		mov	r3, #4096
 348 0054 1893     		str	r3, [sp, #96]
  57:Src/tim.c     ****   {
 349              		.loc 1 57 3 is_stmt 1 view .LVU104
  57:Src/tim.c     ****   {
 350              		.loc 1 57 7 is_stmt 0 view .LVU105
 351 0056 18A9     		add	r1, sp, #96
 352 0058 3B48     		ldr	r0, .L36
 353 005a FFF7FEFF 		bl	HAL_TIM_ConfigClockSource
 354              	.LVL11:
  57:Src/tim.c     ****   {
ARM GAS  C:\Users\ADMINI~1\AppData\Local\Temp\cci4oVZg.s 			page 12


 355              		.loc 1 57 6 view .LVU106
 356 005e 0028     		cmp	r0, #0
 357 0060 59D1     		bne	.L28
 358              	.L18:
  61:Src/tim.c     ****   {
 359              		.loc 1 61 3 is_stmt 1 view .LVU107
  61:Src/tim.c     ****   {
 360              		.loc 1 61 7 is_stmt 0 view .LVU108
 361 0062 3948     		ldr	r0, .L36
 362 0064 FFF7FEFF 		bl	HAL_TIM_PWM_Init
 363              	.LVL12:
  61:Src/tim.c     ****   {
 364              		.loc 1 61 6 view .LVU109
 365 0068 0028     		cmp	r0, #0
 366 006a 57D1     		bne	.L29
 367              	.L19:
  65:Src/tim.c     ****   sMasterConfig.MasterOutputTrigger2 = TIM_TRGO2_RESET;
 368              		.loc 1 65 3 is_stmt 1 view .LVU110
  65:Src/tim.c     ****   sMasterConfig.MasterOutputTrigger2 = TIM_TRGO2_RESET;
 369              		.loc 1 65 37 is_stmt 0 view .LVU111
 370 006c 0023     		movs	r3, #0
 371 006e 1593     		str	r3, [sp, #84]
  66:Src/tim.c     ****   sMasterConfig.MasterSlaveMode = TIM_MASTERSLAVEMODE_DISABLE;
 372              		.loc 1 66 3 is_stmt 1 view .LVU112
  66:Src/tim.c     ****   sMasterConfig.MasterSlaveMode = TIM_MASTERSLAVEMODE_DISABLE;
 373              		.loc 1 66 38 is_stmt 0 view .LVU113
 374 0070 1693     		str	r3, [sp, #88]
  67:Src/tim.c     ****   if (HAL_TIMEx_MasterConfigSynchronization(&htim1, &sMasterConfig) != HAL_OK)
 375              		.loc 1 67 3 is_stmt 1 view .LVU114
  67:Src/tim.c     ****   if (HAL_TIMEx_MasterConfigSynchronization(&htim1, &sMasterConfig) != HAL_OK)
 376              		.loc 1 67 33 is_stmt 0 view .LVU115
 377 0072 1793     		str	r3, [sp, #92]
  68:Src/tim.c     ****   {
 378              		.loc 1 68 3 is_stmt 1 view .LVU116
  68:Src/tim.c     ****   {
 379              		.loc 1 68 7 is_stmt 0 view .LVU117
 380 0074 15A9     		add	r1, sp, #84
 381 0076 3448     		ldr	r0, .L36
 382 0078 FFF7FEFF 		bl	HAL_TIMEx_MasterConfigSynchronization
 383              	.LVL13:
  68:Src/tim.c     ****   {
 384              		.loc 1 68 6 view .LVU118
 385 007c 0028     		cmp	r0, #0
 386 007e 50D1     		bne	.L30
 387              	.L20:
  72:Src/tim.c     ****   sConfigOC.Pulse = 0;
 388              		.loc 1 72 3 is_stmt 1 view .LVU119
  72:Src/tim.c     ****   sConfigOC.Pulse = 0;
 389              		.loc 1 72 20 is_stmt 0 view .LVU120
 390 0080 6023     		movs	r3, #96
 391 0082 0E93     		str	r3, [sp, #56]
  73:Src/tim.c     ****   sConfigOC.OCPolarity = TIM_OCPOLARITY_HIGH;
 392              		.loc 1 73 3 is_stmt 1 view .LVU121
  73:Src/tim.c     ****   sConfigOC.OCPolarity = TIM_OCPOLARITY_HIGH;
 393              		.loc 1 73 19 is_stmt 0 view .LVU122
 394 0084 0022     		movs	r2, #0
 395 0086 0F92     		str	r2, [sp, #60]
ARM GAS  C:\Users\ADMINI~1\AppData\Local\Temp\cci4oVZg.s 			page 13


  74:Src/tim.c     ****   sConfigOC.OCNPolarity = TIM_OCNPOLARITY_HIGH;
 396              		.loc 1 74 3 is_stmt 1 view .LVU123
  74:Src/tim.c     ****   sConfigOC.OCNPolarity = TIM_OCNPOLARITY_HIGH;
 397              		.loc 1 74 24 is_stmt 0 view .LVU124
 398 0088 1092     		str	r2, [sp, #64]
  75:Src/tim.c     ****   sConfigOC.OCFastMode = TIM_OCFAST_DISABLE;
 399              		.loc 1 75 3 is_stmt 1 view .LVU125
  75:Src/tim.c     ****   sConfigOC.OCFastMode = TIM_OCFAST_DISABLE;
 400              		.loc 1 75 25 is_stmt 0 view .LVU126
 401 008a 1192     		str	r2, [sp, #68]
  76:Src/tim.c     ****   sConfigOC.OCIdleState = TIM_OCIDLESTATE_RESET;
 402              		.loc 1 76 3 is_stmt 1 view .LVU127
  76:Src/tim.c     ****   sConfigOC.OCIdleState = TIM_OCIDLESTATE_RESET;
 403              		.loc 1 76 24 is_stmt 0 view .LVU128
 404 008c 1292     		str	r2, [sp, #72]
  77:Src/tim.c     ****   sConfigOC.OCNIdleState = TIM_OCNIDLESTATE_RESET;
 405              		.loc 1 77 3 is_stmt 1 view .LVU129
  77:Src/tim.c     ****   sConfigOC.OCNIdleState = TIM_OCNIDLESTATE_RESET;
 406              		.loc 1 77 25 is_stmt 0 view .LVU130
 407 008e 1392     		str	r2, [sp, #76]
  78:Src/tim.c     ****   if (HAL_TIM_PWM_ConfigChannel(&htim1, &sConfigOC, TIM_CHANNEL_1) != HAL_OK)
 408              		.loc 1 78 3 is_stmt 1 view .LVU131
  78:Src/tim.c     ****   if (HAL_TIM_PWM_ConfigChannel(&htim1, &sConfigOC, TIM_CHANNEL_1) != HAL_OK)
 409              		.loc 1 78 26 is_stmt 0 view .LVU132
 410 0090 1492     		str	r2, [sp, #80]
  79:Src/tim.c     ****   {
 411              		.loc 1 79 3 is_stmt 1 view .LVU133
  79:Src/tim.c     ****   {
 412              		.loc 1 79 7 is_stmt 0 view .LVU134
 413 0092 0EA9     		add	r1, sp, #56
 414 0094 2C48     		ldr	r0, .L36
 415 0096 FFF7FEFF 		bl	HAL_TIM_PWM_ConfigChannel
 416              	.LVL14:
  79:Src/tim.c     ****   {
 417              		.loc 1 79 6 view .LVU135
 418 009a 0028     		cmp	r0, #0
 419 009c 44D1     		bne	.L31
 420              	.L21:
  83:Src/tim.c     ****   if (HAL_TIM_PWM_ConfigChannel(&htim1, &sConfigOC, TIM_CHANNEL_2) != HAL_OK)
 421              		.loc 1 83 3 is_stmt 1 view .LVU136
  83:Src/tim.c     ****   if (HAL_TIM_PWM_ConfigChannel(&htim1, &sConfigOC, TIM_CHANNEL_2) != HAL_OK)
 422              		.loc 1 83 19 is_stmt 0 view .LVU137
 423 009e 40F23F63 		movw	r3, #1599
 424 00a2 0F93     		str	r3, [sp, #60]
  84:Src/tim.c     ****   {
 425              		.loc 1 84 3 is_stmt 1 view .LVU138
  84:Src/tim.c     ****   {
 426              		.loc 1 84 7 is_stmt 0 view .LVU139
 427 00a4 0422     		movs	r2, #4
 428 00a6 0EA9     		add	r1, sp, #56
 429 00a8 2748     		ldr	r0, .L36
 430 00aa FFF7FEFF 		bl	HAL_TIM_PWM_ConfigChannel
 431              	.LVL15:
  84:Src/tim.c     ****   {
 432              		.loc 1 84 6 view .LVU140
 433 00ae 0028     		cmp	r0, #0
 434 00b0 3DD1     		bne	.L32
ARM GAS  C:\Users\ADMINI~1\AppData\Local\Temp\cci4oVZg.s 			page 14


 435              	.L22:
  88:Src/tim.c     ****   if (HAL_TIM_PWM_ConfigChannel(&htim1, &sConfigOC, TIM_CHANNEL_3) != HAL_OK)
 436              		.loc 1 88 3 is_stmt 1 view .LVU141
  88:Src/tim.c     ****   if (HAL_TIM_PWM_ConfigChannel(&htim1, &sConfigOC, TIM_CHANNEL_3) != HAL_OK)
 437              		.loc 1 88 19 is_stmt 0 view .LVU142
 438 00b2 0023     		movs	r3, #0
 439 00b4 0F93     		str	r3, [sp, #60]
  89:Src/tim.c     ****   {
 440              		.loc 1 89 3 is_stmt 1 view .LVU143
  89:Src/tim.c     ****   {
 441              		.loc 1 89 7 is_stmt 0 view .LVU144
 442 00b6 0822     		movs	r2, #8
 443 00b8 0EA9     		add	r1, sp, #56
 444 00ba 2348     		ldr	r0, .L36
 445 00bc FFF7FEFF 		bl	HAL_TIM_PWM_ConfigChannel
 446              	.LVL16:
  89:Src/tim.c     ****   {
 447              		.loc 1 89 6 view .LVU145
 448 00c0 0028     		cmp	r0, #0
 449 00c2 37D1     		bne	.L33
 450              	.L23:
  93:Src/tim.c     ****   if (HAL_TIM_PWM_ConfigChannel(&htim1, &sConfigOC, TIM_CHANNEL_4) != HAL_OK)
 451              		.loc 1 93 3 is_stmt 1 view .LVU146
  93:Src/tim.c     ****   if (HAL_TIM_PWM_ConfigChannel(&htim1, &sConfigOC, TIM_CHANNEL_4) != HAL_OK)
 452              		.loc 1 93 19 is_stmt 0 view .LVU147
 453 00c4 4FF49663 		mov	r3, #1200
 454 00c8 0F93     		str	r3, [sp, #60]
  94:Src/tim.c     ****   {
 455              		.loc 1 94 3 is_stmt 1 view .LVU148
  94:Src/tim.c     ****   {
 456              		.loc 1 94 7 is_stmt 0 view .LVU149
 457 00ca 0C22     		movs	r2, #12
 458 00cc 0EA9     		add	r1, sp, #56
 459 00ce 1E48     		ldr	r0, .L36
 460 00d0 FFF7FEFF 		bl	HAL_TIM_PWM_ConfigChannel
 461              	.LVL17:
  94:Src/tim.c     ****   {
 462              		.loc 1 94 6 view .LVU150
 463 00d4 0028     		cmp	r0, #0
 464 00d6 30D1     		bne	.L34
 465              	.L24:
  98:Src/tim.c     ****   sBreakDeadTimeConfig.OffStateIDLEMode = TIM_OSSI_DISABLE;
 466              		.loc 1 98 3 is_stmt 1 view .LVU151
  98:Src/tim.c     ****   sBreakDeadTimeConfig.OffStateIDLEMode = TIM_OSSI_DISABLE;
 467              		.loc 1 98 40 is_stmt 0 view .LVU152
 468 00d8 0023     		movs	r3, #0
 469 00da 0193     		str	r3, [sp, #4]
  99:Src/tim.c     ****   sBreakDeadTimeConfig.LockLevel = TIM_LOCKLEVEL_OFF;
 470              		.loc 1 99 3 is_stmt 1 view .LVU153
  99:Src/tim.c     ****   sBreakDeadTimeConfig.LockLevel = TIM_LOCKLEVEL_OFF;
 471              		.loc 1 99 41 is_stmt 0 view .LVU154
 472 00dc 0293     		str	r3, [sp, #8]
 100:Src/tim.c     ****   sBreakDeadTimeConfig.DeadTime = 0;
 473              		.loc 1 100 3 is_stmt 1 view .LVU155
 100:Src/tim.c     ****   sBreakDeadTimeConfig.DeadTime = 0;
 474              		.loc 1 100 34 is_stmt 0 view .LVU156
 475 00de 0393     		str	r3, [sp, #12]
ARM GAS  C:\Users\ADMINI~1\AppData\Local\Temp\cci4oVZg.s 			page 15


 101:Src/tim.c     ****   sBreakDeadTimeConfig.BreakState = TIM_BREAK_DISABLE;
 476              		.loc 1 101 3 is_stmt 1 view .LVU157
 101:Src/tim.c     ****   sBreakDeadTimeConfig.BreakState = TIM_BREAK_DISABLE;
 477              		.loc 1 101 33 is_stmt 0 view .LVU158
 478 00e0 0493     		str	r3, [sp, #16]
 102:Src/tim.c     ****   sBreakDeadTimeConfig.BreakPolarity = TIM_BREAKPOLARITY_HIGH;
 479              		.loc 1 102 3 is_stmt 1 view .LVU159
 102:Src/tim.c     ****   sBreakDeadTimeConfig.BreakPolarity = TIM_BREAKPOLARITY_HIGH;
 480              		.loc 1 102 35 is_stmt 0 view .LVU160
 481 00e2 0593     		str	r3, [sp, #20]
 103:Src/tim.c     ****   sBreakDeadTimeConfig.BreakFilter = 0;
 482              		.loc 1 103 3 is_stmt 1 view .LVU161
 103:Src/tim.c     ****   sBreakDeadTimeConfig.BreakFilter = 0;
 483              		.loc 1 103 38 is_stmt 0 view .LVU162
 484 00e4 4FF40052 		mov	r2, #8192
 485 00e8 0692     		str	r2, [sp, #24]
 104:Src/tim.c     ****   sBreakDeadTimeConfig.BreakAFMode = TIM_BREAK_AFMODE_INPUT;
 486              		.loc 1 104 3 is_stmt 1 view .LVU163
 104:Src/tim.c     ****   sBreakDeadTimeConfig.BreakAFMode = TIM_BREAK_AFMODE_INPUT;
 487              		.loc 1 104 36 is_stmt 0 view .LVU164
 488 00ea 0793     		str	r3, [sp, #28]
 105:Src/tim.c     ****   sBreakDeadTimeConfig.Break2State = TIM_BREAK2_DISABLE;
 489              		.loc 1 105 3 is_stmt 1 view .LVU165
 105:Src/tim.c     ****   sBreakDeadTimeConfig.Break2State = TIM_BREAK2_DISABLE;
 490              		.loc 1 105 36 is_stmt 0 view .LVU166
 491 00ec 0893     		str	r3, [sp, #32]
 106:Src/tim.c     ****   sBreakDeadTimeConfig.Break2Polarity = TIM_BREAK2POLARITY_HIGH;
 492              		.loc 1 106 3 is_stmt 1 view .LVU167
 106:Src/tim.c     ****   sBreakDeadTimeConfig.Break2Polarity = TIM_BREAK2POLARITY_HIGH;
 493              		.loc 1 106 36 is_stmt 0 view .LVU168
 494 00ee 0993     		str	r3, [sp, #36]
 107:Src/tim.c     ****   sBreakDeadTimeConfig.Break2Filter = 0;
 495              		.loc 1 107 3 is_stmt 1 view .LVU169
 107:Src/tim.c     ****   sBreakDeadTimeConfig.Break2Filter = 0;
 496              		.loc 1 107 39 is_stmt 0 view .LVU170
 497 00f0 4FF00072 		mov	r2, #33554432
 498 00f4 0A92     		str	r2, [sp, #40]
 108:Src/tim.c     ****   sBreakDeadTimeConfig.Break2AFMode = TIM_BREAK_AFMODE_INPUT;
 499              		.loc 1 108 3 is_stmt 1 view .LVU171
 108:Src/tim.c     ****   sBreakDeadTimeConfig.Break2AFMode = TIM_BREAK_AFMODE_INPUT;
 500              		.loc 1 108 37 is_stmt 0 view .LVU172
 501 00f6 0B93     		str	r3, [sp, #44]
 109:Src/tim.c     ****   sBreakDeadTimeConfig.AutomaticOutput = TIM_AUTOMATICOUTPUT_DISABLE;
 502              		.loc 1 109 3 is_stmt 1 view .LVU173
 109:Src/tim.c     ****   sBreakDeadTimeConfig.AutomaticOutput = TIM_AUTOMATICOUTPUT_DISABLE;
 503              		.loc 1 109 37 is_stmt 0 view .LVU174
 504 00f8 0C93     		str	r3, [sp, #48]
 110:Src/tim.c     ****   if (HAL_TIMEx_ConfigBreakDeadTime(&htim1, &sBreakDeadTimeConfig) != HAL_OK)
 505              		.loc 1 110 3 is_stmt 1 view .LVU175
 110:Src/tim.c     ****   if (HAL_TIMEx_ConfigBreakDeadTime(&htim1, &sBreakDeadTimeConfig) != HAL_OK)
 506              		.loc 1 110 40 is_stmt 0 view .LVU176
 507 00fa 0D93     		str	r3, [sp, #52]
 111:Src/tim.c     ****   {
 508              		.loc 1 111 3 is_stmt 1 view .LVU177
 111:Src/tim.c     ****   {
 509              		.loc 1 111 7 is_stmt 0 view .LVU178
 510 00fc 01A9     		add	r1, sp, #4
ARM GAS  C:\Users\ADMINI~1\AppData\Local\Temp\cci4oVZg.s 			page 16


 511 00fe 1248     		ldr	r0, .L36
 512 0100 FFF7FEFF 		bl	HAL_TIMEx_ConfigBreakDeadTime
 513              	.LVL18:
 111:Src/tim.c     ****   {
 514              		.loc 1 111 6 view .LVU179
 515 0104 E0B9     		cbnz	r0, .L35
 516              	.L25:
 118:Src/tim.c     **** 
 517              		.loc 1 118 3 is_stmt 1 view .LVU180
 518 0106 1048     		ldr	r0, .L36
 519 0108 FFF7FEFF 		bl	HAL_TIM_MspPostInit
 520              	.LVL19:
 120:Src/tim.c     **** 
 521              		.loc 1 120 1 is_stmt 0 view .LVU181
 522 010c 1CB0     		add	sp, sp, #112
 523              	.LCFI8:
 524              		.cfi_remember_state
 525              		.cfi_def_cfa_offset 8
 526              		@ sp needed
 527 010e 10BD     		pop	{r4, pc}
 528              	.L27:
 529              	.LCFI9:
 530              		.cfi_restore_state
  54:Src/tim.c     ****   }
 531              		.loc 1 54 5 is_stmt 1 view .LVU182
 532 0110 FFF7FEFF 		bl	Error_Handler
 533              	.LVL20:
 534 0114 9CE7     		b	.L17
 535              	.L28:
  59:Src/tim.c     ****   }
 536              		.loc 1 59 5 view .LVU183
 537 0116 FFF7FEFF 		bl	Error_Handler
 538              	.LVL21:
 539 011a A2E7     		b	.L18
 540              	.L29:
  63:Src/tim.c     ****   }
 541              		.loc 1 63 5 view .LVU184
 542 011c FFF7FEFF 		bl	Error_Handler
 543              	.LVL22:
 544 0120 A4E7     		b	.L19
 545              	.L30:
  70:Src/tim.c     ****   }
 546              		.loc 1 70 5 view .LVU185
 547 0122 FFF7FEFF 		bl	Error_Handler
 548              	.LVL23:
 549 0126 ABE7     		b	.L20
 550              	.L31:
  81:Src/tim.c     ****   }
 551              		.loc 1 81 5 view .LVU186
 552 0128 FFF7FEFF 		bl	Error_Handler
 553              	.LVL24:
 554 012c B7E7     		b	.L21
 555              	.L32:
  86:Src/tim.c     ****   }
 556              		.loc 1 86 5 view .LVU187
 557 012e FFF7FEFF 		bl	Error_Handler
 558              	.LVL25:
ARM GAS  C:\Users\ADMINI~1\AppData\Local\Temp\cci4oVZg.s 			page 17


 559 0132 BEE7     		b	.L22
 560              	.L33:
  91:Src/tim.c     ****   }
 561              		.loc 1 91 5 view .LVU188
 562 0134 FFF7FEFF 		bl	Error_Handler
 563              	.LVL26:
 564 0138 C4E7     		b	.L23
 565              	.L34:
  96:Src/tim.c     ****   }
 566              		.loc 1 96 5 view .LVU189
 567 013a FFF7FEFF 		bl	Error_Handler
 568              	.LVL27:
 569 013e CBE7     		b	.L24
 570              	.L35:
 113:Src/tim.c     ****   }
 571              		.loc 1 113 5 view .LVU190
 572 0140 FFF7FEFF 		bl	Error_Handler
 573              	.LVL28:
 574 0144 DFE7     		b	.L25
 575              	.L37:
 576 0146 00BF     		.align	2
 577              	.L36:
 578 0148 00000000 		.word	.LANCHOR0
 579 014c 002C0140 		.word	1073818624
 580              		.cfi_endproc
 581              	.LFE329:
 583              		.section	.text.HAL_TIM_Base_MspDeInit,"ax",%progbits
 584              		.align	1
 585              		.global	HAL_TIM_Base_MspDeInit
 586              		.syntax unified
 587              		.thumb
 588              		.thumb_func
 589              		.fpu fpv4-sp-d16
 591              	HAL_TIM_Base_MspDeInit:
 592              	.LVL29:
 593              	.LFB332:
 192:Src/tim.c     **** 
 193:Src/tim.c     **** void HAL_TIM_Base_MspDeInit(TIM_HandleTypeDef* tim_baseHandle)
 194:Src/tim.c     **** {
 594              		.loc 1 194 1 view -0
 595              		.cfi_startproc
 596              		@ args = 0, pretend = 0, frame = 0
 597              		@ frame_needed = 0, uses_anonymous_args = 0
 598              		@ link register save eliminated.
 195:Src/tim.c     **** 
 196:Src/tim.c     ****   if(tim_baseHandle->Instance==TIM1)
 599              		.loc 1 196 3 view .LVU192
 600              		.loc 1 196 20 is_stmt 0 view .LVU193
 601 0000 0268     		ldr	r2, [r0]
 602              		.loc 1 196 5 view .LVU194
 603 0002 054B     		ldr	r3, .L41
 604 0004 9A42     		cmp	r2, r3
 605 0006 00D0     		beq	.L40
 606              	.L38:
 197:Src/tim.c     ****   {
 198:Src/tim.c     ****   /* USER CODE BEGIN TIM1_MspDeInit 0 */
 199:Src/tim.c     **** 
ARM GAS  C:\Users\ADMINI~1\AppData\Local\Temp\cci4oVZg.s 			page 18


 200:Src/tim.c     ****   /* USER CODE END TIM1_MspDeInit 0 */
 201:Src/tim.c     ****     /* Peripheral clock disable */
 202:Src/tim.c     ****     __HAL_RCC_TIM1_CLK_DISABLE();
 203:Src/tim.c     ****   /* USER CODE BEGIN TIM1_MspDeInit 1 */
 204:Src/tim.c     **** 
 205:Src/tim.c     ****   /* USER CODE END TIM1_MspDeInit 1 */
 206:Src/tim.c     ****   }
 207:Src/tim.c     **** }
 607              		.loc 1 207 1 view .LVU195
 608 0008 7047     		bx	lr
 609              	.L40:
 202:Src/tim.c     ****   /* USER CODE BEGIN TIM1_MspDeInit 1 */
 610              		.loc 1 202 5 is_stmt 1 view .LVU196
 611 000a 044A     		ldr	r2, .L41+4
 612 000c 136E     		ldr	r3, [r2, #96]
 613 000e 23F40063 		bic	r3, r3, #2048
 614 0012 1366     		str	r3, [r2, #96]
 615              		.loc 1 207 1 is_stmt 0 view .LVU197
 616 0014 F8E7     		b	.L38
 617              	.L42:
 618 0016 00BF     		.align	2
 619              	.L41:
 620 0018 002C0140 		.word	1073818624
 621 001c 00100240 		.word	1073876992
 622              		.cfi_endproc
 623              	.LFE332:
 625              		.section	.text.motor_set_pwm,"ax",%progbits
 626              		.align	1
 627              		.global	motor_set_pwm
 628              		.syntax unified
 629              		.thumb
 630              		.thumb_func
 631              		.fpu fpv4-sp-d16
 633              	motor_set_pwm:
 634              	.LVL30:
 635              	.LFB335:
 208:Src/tim.c     **** 
 209:Src/tim.c     **** /* USER CODE BEGIN 1 */
 210:Src/tim.c     **** #include "adc.h"
 211:Src/tim.c     **** 
 212:Src/tim.c     **** static unsigned short max_val_01(unsigned short a,unsigned short b,unsigned short c)
 213:Src/tim.c     **** {
 214:Src/tim.c     **** 	short max;
 215:Src/tim.c     **** 	if(a>b)
 216:Src/tim.c     **** 	{
 217:Src/tim.c     **** 		max = a;
 218:Src/tim.c     **** 	}else{
 219:Src/tim.c     **** 		max = b;
 220:Src/tim.c     **** 	}
 221:Src/tim.c     **** 	if(c>max)
 222:Src/tim.c     **** 	{
 223:Src/tim.c     **** 		max = c;
 224:Src/tim.c     **** 	}
 225:Src/tim.c     **** 	return max;
 226:Src/tim.c     **** }
 227:Src/tim.c     **** static unsigned short min_val_01(unsigned short a,unsigned short b,unsigned short c)
 228:Src/tim.c     **** {
ARM GAS  C:\Users\ADMINI~1\AppData\Local\Temp\cci4oVZg.s 			page 19


 229:Src/tim.c     ****   unsigned short min;
 230:Src/tim.c     ****   if(a<b)
 231:Src/tim.c     ****   {
 232:Src/tim.c     ****     min = a;
 233:Src/tim.c     ****   }else{
 234:Src/tim.c     ****     min = b;
 235:Src/tim.c     ****   }
 236:Src/tim.c     ****   if (c < min)
 237:Src/tim.c     ****   {
 238:Src/tim.c     ****     min = c;
 239:Src/tim.c     ****   }
 240:Src/tim.c     ****   return min;
 241:Src/tim.c     **** }
 242:Src/tim.c     **** void motor_set_pwm(float _a,float _b,float _c)
 243:Src/tim.c     **** {
 636              		.loc 1 243 1 is_stmt 1 view -0
 637              		.cfi_startproc
 638              		@ args = 0, pretend = 0, frame = 0
 639              		@ frame_needed = 0, uses_anonymous_args = 0
 640              		@ link register save eliminated.
 244:Src/tim.c     ****     float a,b,c;
 641              		.loc 1 244 5 view .LVU199
 245:Src/tim.c     ****     // a = ((1.0f-(float)_a)*_ARR);
 246:Src/tim.c     ****     // b = ((1.0f-(float)_b)*_ARR);
 247:Src/tim.c     ****     // c = ((1.0f-(float)_c)*_ARR);
 248:Src/tim.c     ****     a = (((float)_a)*_ARR);
 642              		.loc 1 248 5 view .LVU200
 643              		.loc 1 248 7 is_stmt 0 view .LVU201
 644 0000 DFED0F7A 		vldr.32	s15, .L44
 645 0004 20EE270A 		vmul.f32	s0, s0, s15
 646              	.LVL31:
 249:Src/tim.c     ****     b = (((float)_b)*_ARR);
 647              		.loc 1 249 5 is_stmt 1 view .LVU202
 648              		.loc 1 249 7 is_stmt 0 view .LVU203
 649 0008 60EEA70A 		vmul.f32	s1, s1, s15
 650              	.LVL32:
 250:Src/tim.c     ****     c = (((float)_c)*_ARR);
 651              		.loc 1 250 5 is_stmt 1 view .LVU204
 652              		.loc 1 250 7 is_stmt 0 view .LVU205
 653 000c 21EE271A 		vmul.f32	s2, s2, s15
 654              	.LVL33:
 251:Src/tim.c     **** 
 252:Src/tim.c     ****     __HAL_TIM_SET_COMPARE(&htim1,TIM_CHANNEL_1,(uint16_t)a);
 655              		.loc 1 252 5 is_stmt 1 view .LVU206
 656 0010 0C4B     		ldr	r3, .L44+4
 657 0012 1A68     		ldr	r2, [r3]
 658 0014 BCEEC00A 		vcvt.u32.f32	s0, s0
 659              	.LVL34:
 660              		.loc 1 252 5 is_stmt 0 view .LVU207
 661 0018 10EE103A 		vmov	r3, s0	@ int
 662 001c 9BB2     		uxth	r3, r3
 663 001e 5363     		str	r3, [r2, #52]
 253:Src/tim.c     ****     __HAL_TIM_SET_COMPARE(&htim1,TIM_CHANNEL_2,(uint16_t)b);
 664              		.loc 1 253 5 is_stmt 1 view .LVU208
 665 0020 FCEEE00A 		vcvt.u32.f32	s1, s1
 666              	.LVL35:
 667              		.loc 1 253 5 is_stmt 0 view .LVU209
ARM GAS  C:\Users\ADMINI~1\AppData\Local\Temp\cci4oVZg.s 			page 20


 668 0024 10EE903A 		vmov	r3, s1	@ int
 669 0028 9BB2     		uxth	r3, r3
 670 002a 9363     		str	r3, [r2, #56]
 254:Src/tim.c     ****     __HAL_TIM_SET_COMPARE(&htim1,TIM_CHANNEL_3,(uint16_t)c);
 671              		.loc 1 254 5 is_stmt 1 view .LVU210
 672 002c BCEEC11A 		vcvt.u32.f32	s2, s2
 673              	.LVL36:
 674              		.loc 1 254 5 is_stmt 0 view .LVU211
 675 0030 11EE103A 		vmov	r3, s2	@ int
 676 0034 9BB2     		uxth	r3, r3
 677 0036 D363     		str	r3, [r2, #60]
 255:Src/tim.c     **** 
 256:Src/tim.c     ****     unsigned short max = 0;
 678              		.loc 1 256 5 is_stmt 1 view .LVU212
 679              	.LVL37:
 257:Src/tim.c     ****     max = max_val_01((uint16_t)a,(uint16_t)b,(uint16_t)c);
 680              		.loc 1 257 5 view .LVU213
 258:Src/tim.c     ****     // __HAL_TIM_SET_COMPARE(&htim1,TIM_CHANNEL_4,(uint16_t)(max + 60));	 
 259:Src/tim.c     ****     __HAL_TIM_SET_COMPARE(&htim1,TIM_CHANNEL_4,(uint16_t)(8390));   
 681              		.loc 1 259 5 view .LVU214
 682 0038 42F2C603 		movw	r3, #8390
 683 003c 1364     		str	r3, [r2, #64]
 260:Src/tim.c     ****     // unsigned short min = 0;
 261:Src/tim.c     ****     // min = min_val_01((uint16_t)a,(uint16_t)b,(uint16_t)c);  
 262:Src/tim.c     ****     // __HAL_TIM_SET_COMPARE(&htim1,TIM_CHANNEL_4,(uint16_t)(min + 20));	
 263:Src/tim.c     **** }
 684              		.loc 1 263 1 is_stmt 0 view .LVU215
 685 003e 7047     		bx	lr
 686              	.L45:
 687              		.align	2
 688              	.L44:
 689 0040 00D00446 		.word	1174720512
 690 0044 00000000 		.word	.LANCHOR0
 691              		.cfi_endproc
 692              	.LFE335:
 694              		.section	.text.motor_enable_noirq,"ax",%progbits
 695              		.align	1
 696              		.global	motor_enable_noirq
 697              		.syntax unified
 698              		.thumb
 699              		.thumb_func
 700              		.fpu fpv4-sp-d16
 702              	motor_enable_noirq:
 703              	.LFB336:
 264:Src/tim.c     **** void motor_enable_noirq(void)
 265:Src/tim.c     **** {
 704              		.loc 1 265 1 is_stmt 1 view -0
 705              		.cfi_startproc
 706              		@ args = 0, pretend = 0, frame = 0
 707              		@ frame_needed = 0, uses_anonymous_args = 0
 708 0000 38B5     		push	{r3, r4, r5, lr}
 709              	.LCFI10:
 710              		.cfi_def_cfa_offset 16
 711              		.cfi_offset 3, -16
 712              		.cfi_offset 4, -12
 713              		.cfi_offset 5, -8
 714              		.cfi_offset 14, -4
ARM GAS  C:\Users\ADMINI~1\AppData\Local\Temp\cci4oVZg.s 			page 21


 266:Src/tim.c     ****     __HAL_TIM_SET_COMPARE(&htim1,TIM_CHANNEL_1,(uint16_t)0);
 715              		.loc 1 266 5 view .LVU217
 716 0002 0F4C     		ldr	r4, .L48
 717 0004 2368     		ldr	r3, [r4]
 718 0006 0025     		movs	r5, #0
 719 0008 5D63     		str	r5, [r3, #52]
 267:Src/tim.c     ****     __HAL_TIM_SET_COMPARE(&htim1,TIM_CHANNEL_2,(uint16_t)0);
 720              		.loc 1 267 5 view .LVU218
 721 000a 9D63     		str	r5, [r3, #56]
 268:Src/tim.c     ****     __HAL_TIM_SET_COMPARE(&htim1,TIM_CHANNEL_3,(uint16_t)0);    
 722              		.loc 1 268 5 view .LVU219
 723 000c DD63     		str	r5, [r3, #60]
 269:Src/tim.c     ****     HAL_TIM_PWM_Start(&htim1,TIM_CHANNEL_1);
 724              		.loc 1 269 5 view .LVU220
 725 000e 2946     		mov	r1, r5
 726 0010 2046     		mov	r0, r4
 727 0012 FFF7FEFF 		bl	HAL_TIM_PWM_Start
 728              	.LVL38:
 270:Src/tim.c     ****     HAL_TIMEx_PWMN_Start(&htim1,TIM_CHANNEL_1);
 729              		.loc 1 270 5 view .LVU221
 730 0016 2946     		mov	r1, r5
 731 0018 2046     		mov	r0, r4
 732 001a FFF7FEFF 		bl	HAL_TIMEx_PWMN_Start
 733              	.LVL39:
 271:Src/tim.c     ****     HAL_TIM_PWM_Start(&htim1,TIM_CHANNEL_2);
 734              		.loc 1 271 5 view .LVU222
 735 001e 0421     		movs	r1, #4
 736 0020 2046     		mov	r0, r4
 737 0022 FFF7FEFF 		bl	HAL_TIM_PWM_Start
 738              	.LVL40:
 272:Src/tim.c     ****     HAL_TIMEx_PWMN_Start(&htim1,TIM_CHANNEL_2);
 739              		.loc 1 272 5 view .LVU223
 740 0026 0421     		movs	r1, #4
 741 0028 2046     		mov	r0, r4
 742 002a FFF7FEFF 		bl	HAL_TIMEx_PWMN_Start
 743              	.LVL41:
 273:Src/tim.c     ****     HAL_TIM_PWM_Start(&htim1,TIM_CHANNEL_3);
 744              		.loc 1 273 5 view .LVU224
 745 002e 0821     		movs	r1, #8
 746 0030 2046     		mov	r0, r4
 747 0032 FFF7FEFF 		bl	HAL_TIM_PWM_Start
 748              	.LVL42:
 274:Src/tim.c     ****     HAL_TIMEx_PWMN_Start(&htim1,TIM_CHANNEL_3);     
 749              		.loc 1 274 5 view .LVU225
 750 0036 0821     		movs	r1, #8
 751 0038 2046     		mov	r0, r4
 752 003a FFF7FEFF 		bl	HAL_TIMEx_PWMN_Start
 753              	.LVL43:
 275:Src/tim.c     **** }
 754              		.loc 1 275 1 is_stmt 0 view .LVU226
 755 003e 38BD     		pop	{r3, r4, r5, pc}
 756              	.L49:
 757              		.align	2
 758              	.L48:
 759 0040 00000000 		.word	.LANCHOR0
 760              		.cfi_endproc
 761              	.LFE336:
ARM GAS  C:\Users\ADMINI~1\AppData\Local\Temp\cci4oVZg.s 			page 22


 763              		.section	.text.motor_enable,"ax",%progbits
 764              		.align	1
 765              		.global	motor_enable
 766              		.syntax unified
 767              		.thumb
 768              		.thumb_func
 769              		.fpu fpv4-sp-d16
 771              	motor_enable:
 772              	.LFB337:
 276:Src/tim.c     **** void motor_enable(void)
 277:Src/tim.c     **** {
 773              		.loc 1 277 1 is_stmt 1 view -0
 774              		.cfi_startproc
 775              		@ args = 0, pretend = 0, frame = 0
 776              		@ frame_needed = 0, uses_anonymous_args = 0
 777 0000 38B5     		push	{r3, r4, r5, lr}
 778              	.LCFI11:
 779              		.cfi_def_cfa_offset 16
 780              		.cfi_offset 3, -16
 781              		.cfi_offset 4, -12
 782              		.cfi_offset 5, -8
 783              		.cfi_offset 14, -4
 278:Src/tim.c     ****     HAL_TIM_PWM_Start(&htim1,TIM_CHANNEL_1);
 784              		.loc 1 278 5 view .LVU228
 785 0002 134C     		ldr	r4, .L52
 786 0004 0021     		movs	r1, #0
 787 0006 2046     		mov	r0, r4
 788 0008 FFF7FEFF 		bl	HAL_TIM_PWM_Start
 789              	.LVL44:
 279:Src/tim.c     ****     HAL_TIMEx_PWMN_Start(&htim1,TIM_CHANNEL_1);
 790              		.loc 1 279 5 view .LVU229
 791 000c 0021     		movs	r1, #0
 792 000e 2046     		mov	r0, r4
 793 0010 FFF7FEFF 		bl	HAL_TIMEx_PWMN_Start
 794              	.LVL45:
 280:Src/tim.c     ****     HAL_TIM_PWM_Start(&htim1,TIM_CHANNEL_2);
 795              		.loc 1 280 5 view .LVU230
 796 0014 0421     		movs	r1, #4
 797 0016 2046     		mov	r0, r4
 798 0018 FFF7FEFF 		bl	HAL_TIM_PWM_Start
 799              	.LVL46:
 281:Src/tim.c     ****     HAL_TIMEx_PWMN_Start(&htim1,TIM_CHANNEL_2);
 800              		.loc 1 281 5 view .LVU231
 801 001c 0421     		movs	r1, #4
 802 001e 2046     		mov	r0, r4
 803 0020 FFF7FEFF 		bl	HAL_TIMEx_PWMN_Start
 804              	.LVL47:
 282:Src/tim.c     ****     HAL_TIM_PWM_Start(&htim1,TIM_CHANNEL_3);
 805              		.loc 1 282 5 view .LVU232
 806 0024 0821     		movs	r1, #8
 807 0026 2046     		mov	r0, r4
 808 0028 FFF7FEFF 		bl	HAL_TIM_PWM_Start
 809              	.LVL48:
 283:Src/tim.c     ****     HAL_TIMEx_PWMN_Start(&htim1,TIM_CHANNEL_3); 
 810              		.loc 1 283 5 view .LVU233
 811 002c 0821     		movs	r1, #8
 812 002e 2046     		mov	r0, r4
ARM GAS  C:\Users\ADMINI~1\AppData\Local\Temp\cci4oVZg.s 			page 23


 813 0030 FFF7FEFF 		bl	HAL_TIMEx_PWMN_Start
 814              	.LVL49:
 284:Src/tim.c     **** 
 285:Src/tim.c     ****     /*------------------------*/
 286:Src/tim.c     ****     HAL_ADCEx_Calibration_Start(&hadc1,ADC_SINGLE_ENDED);
 815              		.loc 1 286 5 view .LVU234
 816 0034 074D     		ldr	r5, .L52+4
 817 0036 7F21     		movs	r1, #127
 818 0038 2846     		mov	r0, r5
 819 003a FFF7FEFF 		bl	HAL_ADCEx_Calibration_Start
 820              	.LVL50:
 287:Src/tim.c     ****     HAL_ADCEx_InjectedStart_IT(&hadc1);
 821              		.loc 1 287 5 view .LVU235
 822 003e 2846     		mov	r0, r5
 823 0040 FFF7FEFF 		bl	HAL_ADCEx_InjectedStart_IT
 824              	.LVL51:
 288:Src/tim.c     ****     HAL_TIM_PWM_Start(&htim1,TIM_CHANNEL_4);  
 825              		.loc 1 288 5 view .LVU236
 826 0044 0C21     		movs	r1, #12
 827 0046 2046     		mov	r0, r4
 828 0048 FFF7FEFF 		bl	HAL_TIM_PWM_Start
 829              	.LVL52:
 289:Src/tim.c     **** }
 830              		.loc 1 289 1 is_stmt 0 view .LVU237
 831 004c 38BD     		pop	{r3, r4, r5, pc}
 832              	.L53:
 833 004e 00BF     		.align	2
 834              	.L52:
 835 0050 00000000 		.word	.LANCHOR0
 836 0054 00000000 		.word	hadc1
 837              		.cfi_endproc
 838              	.LFE337:
 840              		.section	.text.motor_disable,"ax",%progbits
 841              		.align	1
 842              		.global	motor_disable
 843              		.syntax unified
 844              		.thumb
 845              		.thumb_func
 846              		.fpu fpv4-sp-d16
 848              	motor_disable:
 849              	.LFB338:
 290:Src/tim.c     **** void motor_disable(void)
 291:Src/tim.c     **** {
 850              		.loc 1 291 1 is_stmt 1 view -0
 851              		.cfi_startproc
 852              		@ args = 0, pretend = 0, frame = 0
 853              		@ frame_needed = 0, uses_anonymous_args = 0
 854 0000 38B5     		push	{r3, r4, r5, lr}
 855              	.LCFI12:
 856              		.cfi_def_cfa_offset 16
 857              		.cfi_offset 3, -16
 858              		.cfi_offset 4, -12
 859              		.cfi_offset 5, -8
 860              		.cfi_offset 14, -4
 292:Src/tim.c     ****     __HAL_TIM_SET_COMPARE(&htim1,TIM_CHANNEL_1,(0));
 861              		.loc 1 292 5 view .LVU239
 862 0002 134C     		ldr	r4, .L56
ARM GAS  C:\Users\ADMINI~1\AppData\Local\Temp\cci4oVZg.s 			page 24


 863 0004 2368     		ldr	r3, [r4]
 864 0006 0025     		movs	r5, #0
 865 0008 5D63     		str	r5, [r3, #52]
 293:Src/tim.c     ****     __HAL_TIM_SET_COMPARE(&htim1,TIM_CHANNEL_2,(0));
 866              		.loc 1 293 5 view .LVU240
 867 000a 9D63     		str	r5, [r3, #56]
 294:Src/tim.c     ****     __HAL_TIM_SET_COMPARE(&htim1,TIM_CHANNEL_3,(0));
 868              		.loc 1 294 5 view .LVU241
 869 000c DD63     		str	r5, [r3, #60]
 295:Src/tim.c     **** 
 296:Src/tim.c     ****     HAL_TIM_PWM_Stop(&htim1,TIM_CHANNEL_1);
 870              		.loc 1 296 5 view .LVU242
 871 000e 2946     		mov	r1, r5
 872 0010 2046     		mov	r0, r4
 873 0012 FFF7FEFF 		bl	HAL_TIM_PWM_Stop
 874              	.LVL53:
 297:Src/tim.c     ****     HAL_TIMEx_PWMN_Stop(&htim1,TIM_CHANNEL_1);
 875              		.loc 1 297 5 view .LVU243
 876 0016 2946     		mov	r1, r5
 877 0018 2046     		mov	r0, r4
 878 001a FFF7FEFF 		bl	HAL_TIMEx_PWMN_Stop
 879              	.LVL54:
 298:Src/tim.c     ****     HAL_TIM_PWM_Stop(&htim1,TIM_CHANNEL_2);
 880              		.loc 1 298 5 view .LVU244
 881 001e 0421     		movs	r1, #4
 882 0020 2046     		mov	r0, r4
 883 0022 FFF7FEFF 		bl	HAL_TIM_PWM_Stop
 884              	.LVL55:
 299:Src/tim.c     ****     HAL_TIMEx_PWMN_Stop(&htim1,TIM_CHANNEL_2);
 885              		.loc 1 299 5 view .LVU245
 886 0026 0421     		movs	r1, #4
 887 0028 2046     		mov	r0, r4
 888 002a FFF7FEFF 		bl	HAL_TIMEx_PWMN_Stop
 889              	.LVL56:
 300:Src/tim.c     ****     HAL_TIM_PWM_Stop(&htim1,TIM_CHANNEL_3);
 890              		.loc 1 300 5 view .LVU246
 891 002e 0821     		movs	r1, #8
 892 0030 2046     		mov	r0, r4
 893 0032 FFF7FEFF 		bl	HAL_TIM_PWM_Stop
 894              	.LVL57:
 301:Src/tim.c     ****     HAL_TIMEx_PWMN_Stop(&htim1,TIM_CHANNEL_3); 
 895              		.loc 1 301 5 view .LVU247
 896 0036 0821     		movs	r1, #8
 897 0038 2046     		mov	r0, r4
 898 003a FFF7FEFF 		bl	HAL_TIMEx_PWMN_Stop
 899              	.LVL58:
 302:Src/tim.c     ****     HAL_ADCEx_InjectedStop_IT(&hadc1);
 900              		.loc 1 302 5 view .LVU248
 901 003e 0548     		ldr	r0, .L56+4
 902 0040 FFF7FEFF 		bl	HAL_ADCEx_InjectedStop_IT
 903              	.LVL59:
 303:Src/tim.c     ****     HAL_TIM_PWM_Stop(&htim1,TIM_CHANNEL_4);      
 904              		.loc 1 303 5 view .LVU249
 905 0044 0C21     		movs	r1, #12
 906 0046 2046     		mov	r0, r4
 907 0048 FFF7FEFF 		bl	HAL_TIM_PWM_Stop
 908              	.LVL60:
ARM GAS  C:\Users\ADMINI~1\AppData\Local\Temp\cci4oVZg.s 			page 25


 304:Src/tim.c     **** }
 909              		.loc 1 304 1 is_stmt 0 view .LVU250
 910 004c 38BD     		pop	{r3, r4, r5, pc}
 911              	.L57:
 912 004e 00BF     		.align	2
 913              	.L56:
 914 0050 00000000 		.word	.LANCHOR0
 915 0054 00000000 		.word	hadc1
 916              		.cfi_endproc
 917              	.LFE338:
 919              		.global	htim1
 920              		.section	.bss.htim1,"aw",%nobits
 921              		.align	2
 922              		.set	.LANCHOR0,. + 0
 925              	htim1:
 926 0000 00000000 		.space	76
 926      00000000 
 926      00000000 
 926      00000000 
 926      00000000 
 927              		.text
 928              	.Letext0:
 929              		.file 2 "d:\\program files (x86)\\gcc-arm-none-eabi-10-2020-q4-major-win32\\tool\\arm-none-eabi\\i
 930              		.file 3 "d:\\program files (x86)\\gcc-arm-none-eabi-10-2020-q4-major-win32\\tool\\arm-none-eabi\\i
 931              		.file 4 "Drivers/CMSIS/Device/ST/STM32G4xx/Include/stm32g431xx.h"
 932              		.file 5 "Drivers/CMSIS/Device/ST/STM32G4xx/Include/stm32g4xx.h"
 933              		.file 6 "Drivers/STM32G4xx_HAL_Driver/Inc/stm32g4xx_hal_def.h"
 934              		.file 7 "Drivers/STM32G4xx_HAL_Driver/Inc/stm32g4xx_hal_gpio.h"
 935              		.file 8 "Drivers/STM32G4xx_HAL_Driver/Inc/stm32g4xx_hal_dma.h"
 936              		.file 9 "Drivers/STM32G4xx_HAL_Driver/Inc/stm32g4xx_hal_adc.h"
 937              		.file 10 "Drivers/STM32G4xx_HAL_Driver/Inc/stm32g4xx_hal_tim.h"
 938              		.file 11 "Inc/tim.h"
 939              		.file 12 "Inc/adc.h"
 940              		.file 13 "Drivers/STM32G4xx_HAL_Driver/Inc/stm32g4xx_hal_tim_ex.h"
 941              		.file 14 "Drivers/STM32G4xx_HAL_Driver/Inc/stm32g4xx_hal_adc_ex.h"
 942              		.file 15 "Inc/main.h"
 943              		.file 16 "<built-in>"
ARM GAS  C:\Users\ADMINI~1\AppData\Local\Temp\cci4oVZg.s 			page 26


DEFINED SYMBOLS
                            *ABS*:00000000 tim.c
C:\Users\ADMINI~1\AppData\Local\Temp\cci4oVZg.s:18     .text.HAL_TIM_Base_MspInit:00000000 $t
C:\Users\ADMINI~1\AppData\Local\Temp\cci4oVZg.s:26     .text.HAL_TIM_Base_MspInit:00000000 HAL_TIM_Base_MspInit
C:\Users\ADMINI~1\AppData\Local\Temp\cci4oVZg.s:73     .text.HAL_TIM_Base_MspInit:00000028 $d
C:\Users\ADMINI~1\AppData\Local\Temp\cci4oVZg.s:78     .text.HAL_TIM_MspPostInit:00000000 $t
C:\Users\ADMINI~1\AppData\Local\Temp\cci4oVZg.s:85     .text.HAL_TIM_MspPostInit:00000000 HAL_TIM_MspPostInit
C:\Users\ADMINI~1\AppData\Local\Temp\cci4oVZg.s:256    .text.HAL_TIM_MspPostInit:000000ac $d
C:\Users\ADMINI~1\AppData\Local\Temp\cci4oVZg.s:262    .text.MX_TIM1_Init:00000000 $t
C:\Users\ADMINI~1\AppData\Local\Temp\cci4oVZg.s:269    .text.MX_TIM1_Init:00000000 MX_TIM1_Init
C:\Users\ADMINI~1\AppData\Local\Temp\cci4oVZg.s:578    .text.MX_TIM1_Init:00000148 $d
C:\Users\ADMINI~1\AppData\Local\Temp\cci4oVZg.s:584    .text.HAL_TIM_Base_MspDeInit:00000000 $t
C:\Users\ADMINI~1\AppData\Local\Temp\cci4oVZg.s:591    .text.HAL_TIM_Base_MspDeInit:00000000 HAL_TIM_Base_MspDeInit
C:\Users\ADMINI~1\AppData\Local\Temp\cci4oVZg.s:620    .text.HAL_TIM_Base_MspDeInit:00000018 $d
C:\Users\ADMINI~1\AppData\Local\Temp\cci4oVZg.s:626    .text.motor_set_pwm:00000000 $t
C:\Users\ADMINI~1\AppData\Local\Temp\cci4oVZg.s:633    .text.motor_set_pwm:00000000 motor_set_pwm
C:\Users\ADMINI~1\AppData\Local\Temp\cci4oVZg.s:689    .text.motor_set_pwm:00000040 $d
C:\Users\ADMINI~1\AppData\Local\Temp\cci4oVZg.s:695    .text.motor_enable_noirq:00000000 $t
C:\Users\ADMINI~1\AppData\Local\Temp\cci4oVZg.s:702    .text.motor_enable_noirq:00000000 motor_enable_noirq
C:\Users\ADMINI~1\AppData\Local\Temp\cci4oVZg.s:759    .text.motor_enable_noirq:00000040 $d
C:\Users\ADMINI~1\AppData\Local\Temp\cci4oVZg.s:764    .text.motor_enable:00000000 $t
C:\Users\ADMINI~1\AppData\Local\Temp\cci4oVZg.s:771    .text.motor_enable:00000000 motor_enable
C:\Users\ADMINI~1\AppData\Local\Temp\cci4oVZg.s:835    .text.motor_enable:00000050 $d
C:\Users\ADMINI~1\AppData\Local\Temp\cci4oVZg.s:841    .text.motor_disable:00000000 $t
C:\Users\ADMINI~1\AppData\Local\Temp\cci4oVZg.s:848    .text.motor_disable:00000000 motor_disable
C:\Users\ADMINI~1\AppData\Local\Temp\cci4oVZg.s:914    .text.motor_disable:00000050 $d
C:\Users\ADMINI~1\AppData\Local\Temp\cci4oVZg.s:925    .bss.htim1:00000000 htim1
C:\Users\ADMINI~1\AppData\Local\Temp\cci4oVZg.s:921    .bss.htim1:00000000 $d

UNDEFINED SYMBOLS
HAL_GPIO_Init
memset
HAL_TIM_Base_Init
HAL_TIM_ConfigClockSource
HAL_TIM_PWM_Init
HAL_TIMEx_MasterConfigSynchronization
HAL_TIM_PWM_ConfigChannel
HAL_TIMEx_ConfigBreakDeadTime
Error_Handler
HAL_TIM_PWM_Start
HAL_TIMEx_PWMN_Start
HAL_ADCEx_Calibration_Start
HAL_ADCEx_InjectedStart_IT
hadc1
HAL_TIM_PWM_Stop
HAL_TIMEx_PWMN_Stop
HAL_ADCEx_InjectedStop_IT
