ARM GAS  C:\Users\57308\AppData\Local\Temp\ccyuPR38.s 			page 1


   1              		.cpu cortex-m4
   2              		.arch armv7e-m
   3              		.fpu fpv4-sp-d16
   4              		.eabi_attribute 27, 1
   5              		.eabi_attribute 28, 1
   6              		.eabi_attribute 20, 1
   7              		.eabi_attribute 21, 1
   8              		.eabi_attribute 23, 3
   9              		.eabi_attribute 24, 1
  10              		.eabi_attribute 25, 1
  11              		.eabi_attribute 26, 1
  12              		.eabi_attribute 30, 1
  13              		.eabi_attribute 34, 1
  14              		.eabi_attribute 18, 4
  15              		.file	"_IQNexp.c"
  16              		.text
  17              	.Ltext0:
  18              		.cfi_sections	.debug_frame
  19              		.section	.text._IQ30exp,"ax",%progbits
  20              		.align	1
  21              		.global	_IQ30exp
  22              		.syntax unified
  23              		.thumb
  24              		.thumb_func
  26              	_IQ30exp:
  27              	.LVL0:
  28              	.LFB262:
  29              		.file 1 "../Common/IQMath/ti/_IQNexp.c"
   1:../Common/IQMath/ti/_IQNexp.c **** /*!****************************************************************************
   2:../Common/IQMath/ti/_IQNexp.c ****  *  @file       _IQNexp.c
   3:../Common/IQMath/ti/_IQNexp.c ****  *  @brief      Functions to compute the exponential of the input 
   4:../Common/IQMath/ti/_IQNexp.c ****  *              and return the result.
   5:../Common/IQMath/ti/_IQNexp.c ****  *
   6:../Common/IQMath/ti/_IQNexp.c ****  *  <hr>
   7:../Common/IQMath/ti/_IQNexp.c ****  ******************************************************************************/
   8:../Common/IQMath/ti/_IQNexp.c **** 
   9:../Common/IQMath/ti/_IQNexp.c **** #include <stdint.h>
  10:../Common/IQMath/ti/_IQNexp.c **** 
  11:../Common/IQMath/ti/_IQNexp.c **** #include "./support/support.h"
  12:../Common/IQMath/ti/_IQNexp.c **** #include "_IQNtables.h"
  13:../Common/IQMath/ti/_IQNexp.c **** 
  14:../Common/IQMath/ti/_IQNexp.c **** /**
  15:../Common/IQMath/ti/_IQNexp.c ****  * @brief Computes the exponential of an IQN input.
  16:../Common/IQMath/ti/_IQNexp.c ****  *
  17:../Common/IQMath/ti/_IQNexp.c ****  * @param iqNInput          IQN type input.
  18:../Common/IQMath/ti/_IQNexp.c ****  * @param iqNLookupTable    Integer result lookup table. 
  19:../Common/IQMath/ti/_IQNexp.c ****  * @param ui8IntegerOffset  Integer portion offset
  20:../Common/IQMath/ti/_IQNexp.c ****  * @param iqN_MIN           Minimum parameter value.
  21:../Common/IQMath/ti/_IQNexp.c ****  * @param iqN_MAX           Maximum parameter value.
  22:../Common/IQMath/ti/_IQNexp.c ****  * @param q_value           IQ format.
  23:../Common/IQMath/ti/_IQNexp.c ****  *
  24:../Common/IQMath/ti/_IQNexp.c ****  * 
  25:../Common/IQMath/ti/_IQNexp.c ****  * @return                  IQN type result of exponential.
  26:../Common/IQMath/ti/_IQNexp.c ****  */
  27:../Common/IQMath/ti/_IQNexp.c **** #if defined (__TI_COMPILER_VERSION__)
  28:../Common/IQMath/ti/_IQNexp.c ****     #pragma FUNC_ALWAYS_INLINE(__IQNexp)
  29:../Common/IQMath/ti/_IQNexp.c **** #elif defined(__IAR_SYSTEMS_ICC__)
ARM GAS  C:\Users\57308\AppData\Local\Temp\ccyuPR38.s 			page 2


  30:../Common/IQMath/ti/_IQNexp.c ****     #pragma inline=forced
  31:../Common/IQMath/ti/_IQNexp.c **** #endif
  32:../Common/IQMath/ti/_IQNexp.c **** __STATIC_INLINE int_fast32_t __IQNexp(int_fast32_t iqNInput, const uint_fast32_t *iqNLookupTable, u
  33:../Common/IQMath/ti/_IQNexp.c **** {
  34:../Common/IQMath/ti/_IQNexp.c ****     uint8_t ui8Count;
  35:../Common/IQMath/ti/_IQNexp.c ****     int_fast16_t i16Integer;
  36:../Common/IQMath/ti/_IQNexp.c ****     uint_fast16_t ui16IntState;
  37:../Common/IQMath/ti/_IQNexp.c ****     uint_fast16_t ui16MPYState;
  38:../Common/IQMath/ti/_IQNexp.c ****     int_fast32_t iq31Fractional;
  39:../Common/IQMath/ti/_IQNexp.c ****     uint_fast32_t uiqNResult;
  40:../Common/IQMath/ti/_IQNexp.c ****     uint_fast32_t uiqNIntegerResult;
  41:../Common/IQMath/ti/_IQNexp.c ****     uint_fast32_t uiq30FractionalResult;
  42:../Common/IQMath/ti/_IQNexp.c ****     uint_fast32_t uiq31FractionalResult;
  43:../Common/IQMath/ti/_IQNexp.c ****     const uint_fast32_t *piq30Coeffs;
  44:../Common/IQMath/ti/_IQNexp.c ****     
  45:../Common/IQMath/ti/_IQNexp.c ****     /* Input is negative. */
  46:../Common/IQMath/ti/_IQNexp.c ****     if (iqNInput < 0) {
  47:../Common/IQMath/ti/_IQNexp.c ****         /* Check for the minimum value. */
  48:../Common/IQMath/ti/_IQNexp.c ****         if (iqNInput < iqN_MIN) {
  49:../Common/IQMath/ti/_IQNexp.c ****             return 0;
  50:../Common/IQMath/ti/_IQNexp.c ****         }
  51:../Common/IQMath/ti/_IQNexp.c ****         
  52:../Common/IQMath/ti/_IQNexp.c ****         /* Extract the fractional portion in iq31 and set sign bit. */
  53:../Common/IQMath/ti/_IQNexp.c ****         iq31Fractional = iqNInput;
  54:../Common/IQMath/ti/_IQNexp.c ****         iq31Fractional <<= (31 - q_value);
  55:../Common/IQMath/ti/_IQNexp.c ****         iq31Fractional |= 0x80000000;
  56:../Common/IQMath/ti/_IQNexp.c ****     
  57:../Common/IQMath/ti/_IQNexp.c ****         /* Extract the integer portion. */
  58:../Common/IQMath/ti/_IQNexp.c ****         i16Integer = (int_fast16_t)(iqNInput >> q_value) + 1;
  59:../Common/IQMath/ti/_IQNexp.c ****     
  60:../Common/IQMath/ti/_IQNexp.c ****         /* Offset the integer portion and lookup the integer result. */
  61:../Common/IQMath/ti/_IQNexp.c ****         i16Integer += ui8IntegerOffset;
  62:../Common/IQMath/ti/_IQNexp.c ****         uiqNIntegerResult = iqNLookupTable[i16Integer];
  63:../Common/IQMath/ti/_IQNexp.c ****         
  64:../Common/IQMath/ti/_IQNexp.c ****         /* Reduce the fractional portion to -ln(2) < iq31Fractional < 0 */
  65:../Common/IQMath/ti/_IQNexp.c ****         if (iq31Fractional <= -iq31_ln2) {
  66:../Common/IQMath/ti/_IQNexp.c ****             iq31Fractional += iq31_ln2;
  67:../Common/IQMath/ti/_IQNexp.c ****             uiqNIntegerResult >>= 1;
  68:../Common/IQMath/ti/_IQNexp.c ****         }
  69:../Common/IQMath/ti/_IQNexp.c ****     }
  70:../Common/IQMath/ti/_IQNexp.c ****     /* Input is positive. */
  71:../Common/IQMath/ti/_IQNexp.c ****     else {
  72:../Common/IQMath/ti/_IQNexp.c ****         /* Check for the maximum value. */
  73:../Common/IQMath/ti/_IQNexp.c ****         if (iqNInput > iqN_MAX) {
  74:../Common/IQMath/ti/_IQNexp.c ****             return INT32_MAX;
  75:../Common/IQMath/ti/_IQNexp.c ****         }
  76:../Common/IQMath/ti/_IQNexp.c ****         
  77:../Common/IQMath/ti/_IQNexp.c ****         /* Extract the fractional portion in iq31 and clear sign bit. */
  78:../Common/IQMath/ti/_IQNexp.c ****         iq31Fractional = iqNInput;
  79:../Common/IQMath/ti/_IQNexp.c ****         iq31Fractional <<= (31 - q_value);
  80:../Common/IQMath/ti/_IQNexp.c ****         iq31Fractional &= 0x7fffffff;
  81:../Common/IQMath/ti/_IQNexp.c ****     
  82:../Common/IQMath/ti/_IQNexp.c ****         /* Extract the integer portion. */
  83:../Common/IQMath/ti/_IQNexp.c ****         i16Integer = (int_fast16_t)(iqNInput >> q_value);
  84:../Common/IQMath/ti/_IQNexp.c ****     
  85:../Common/IQMath/ti/_IQNexp.c ****         /* Offset the integer portion and lookup the integer result. */
  86:../Common/IQMath/ti/_IQNexp.c ****         i16Integer += ui8IntegerOffset;
ARM GAS  C:\Users\57308\AppData\Local\Temp\ccyuPR38.s 			page 3


  87:../Common/IQMath/ti/_IQNexp.c ****         uiqNIntegerResult = iqNLookupTable[i16Integer];
  88:../Common/IQMath/ti/_IQNexp.c ****         
  89:../Common/IQMath/ti/_IQNexp.c ****         /* Reduce the fractional portion to 0 < iq31Fractional < ln(2) */
  90:../Common/IQMath/ti/_IQNexp.c ****         if (iq31Fractional >= iq31_ln2) {
  91:../Common/IQMath/ti/_IQNexp.c ****             iq31Fractional -= iq31_ln2;
  92:../Common/IQMath/ti/_IQNexp.c ****             uiqNIntegerResult <<= 1;
  93:../Common/IQMath/ti/_IQNexp.c ****         }
  94:../Common/IQMath/ti/_IQNexp.c ****     }
  95:../Common/IQMath/ti/_IQNexp.c ****     
  96:../Common/IQMath/ti/_IQNexp.c ****     /*
  97:../Common/IQMath/ti/_IQNexp.c ****      * Mark the start of any multiplies. This will disable interrupts and set
  98:../Common/IQMath/ti/_IQNexp.c ****      * the multiplier to fractional mode. This is designed to reduce overhead
  99:../Common/IQMath/ti/_IQNexp.c ****      * of constantly switching states when using repeated multiplies (MSP430
 100:../Common/IQMath/ti/_IQNexp.c ****      * only).
 101:../Common/IQMath/ti/_IQNexp.c ****      */
 102:../Common/IQMath/ti/_IQNexp.c ****     __mpyf_start(&ui16IntState, &ui16MPYState);
 103:../Common/IQMath/ti/_IQNexp.c ****     
 104:../Common/IQMath/ti/_IQNexp.c ****     /*
 105:../Common/IQMath/ti/_IQNexp.c ****      * Initialize the coefficient pointer to the Taylor Series iq30 coefficients
 106:../Common/IQMath/ti/_IQNexp.c ****      * for the exponential functions. Set the iq30 result to the first
 107:../Common/IQMath/ti/_IQNexp.c ****      * coefficient in the table.
 108:../Common/IQMath/ti/_IQNexp.c ****      */
 109:../Common/IQMath/ti/_IQNexp.c ****     piq30Coeffs = _IQ30exp_coeffs;
 110:../Common/IQMath/ti/_IQNexp.c ****     uiq30FractionalResult = *piq30Coeffs++;
 111:../Common/IQMath/ti/_IQNexp.c ****     
 112:../Common/IQMath/ti/_IQNexp.c ****     /* Compute exp^(iq31Fractional). */
 113:../Common/IQMath/ti/_IQNexp.c ****     for (ui8Count = _IQ30exp_order; ui8Count > 0; ui8Count--) {
 114:../Common/IQMath/ti/_IQNexp.c ****         uiq30FractionalResult = __mpyf_l(iq31Fractional, uiq30FractionalResult);
 115:../Common/IQMath/ti/_IQNexp.c ****         uiq30FractionalResult += *piq30Coeffs++;
 116:../Common/IQMath/ti/_IQNexp.c ****     }
 117:../Common/IQMath/ti/_IQNexp.c ****     
 118:../Common/IQMath/ti/_IQNexp.c ****     /* Scale the iq30 fractional result by to iq31. */
 119:../Common/IQMath/ti/_IQNexp.c ****     uiq31FractionalResult = uiq30FractionalResult << 1;
 120:../Common/IQMath/ti/_IQNexp.c ****     
 121:../Common/IQMath/ti/_IQNexp.c ****     /*
 122:../Common/IQMath/ti/_IQNexp.c ****      * Multiply the integer result in iqN format and the fractional result in
 123:../Common/IQMath/ti/_IQNexp.c ****      * iq31 format to obtain the result in iqN format.
 124:../Common/IQMath/ti/_IQNexp.c ****      */
 125:../Common/IQMath/ti/_IQNexp.c ****     uiqNResult = __mpyf_ul(uiqNIntegerResult, uiq31FractionalResult);
 126:../Common/IQMath/ti/_IQNexp.c ****     
 127:../Common/IQMath/ti/_IQNexp.c ****     /* 
 128:../Common/IQMath/ti/_IQNexp.c ****      * Mark the end of all multiplies. This restores MPY and interrupt states
 129:../Common/IQMath/ti/_IQNexp.c ****      * (MSP430 only).
 130:../Common/IQMath/ti/_IQNexp.c ****      */
 131:../Common/IQMath/ti/_IQNexp.c ****     __mpy_stop(&ui16IntState, &ui16MPYState);
 132:../Common/IQMath/ti/_IQNexp.c ****     
 133:../Common/IQMath/ti/_IQNexp.c ****     /* The result is scaled by 2, round the result and scale to iqN format. */
 134:../Common/IQMath/ti/_IQNexp.c ****     uiqNResult++;
 135:../Common/IQMath/ti/_IQNexp.c ****     uiqNResult >>= 1;
 136:../Common/IQMath/ti/_IQNexp.c ****     
 137:../Common/IQMath/ti/_IQNexp.c ****     return uiqNResult;
 138:../Common/IQMath/ti/_IQNexp.c **** }
 139:../Common/IQMath/ti/_IQNexp.c **** 
 140:../Common/IQMath/ti/_IQNexp.c **** /**
 141:../Common/IQMath/ti/_IQNexp.c ****  * @brief Computes the exponential of an IQ30 input.
 142:../Common/IQMath/ti/_IQNexp.c ****  *
 143:../Common/IQMath/ti/_IQNexp.c ****  * @param a               IQ30 type input.
ARM GAS  C:\Users\57308\AppData\Local\Temp\ccyuPR38.s 			page 4


 144:../Common/IQMath/ti/_IQNexp.c ****  *
 145:../Common/IQMath/ti/_IQNexp.c ****  * @return                IQ30 type result of exponential.
 146:../Common/IQMath/ti/_IQNexp.c ****  */
 147:../Common/IQMath/ti/_IQNexp.c **** int32_t _IQ30exp(int32_t a)
 148:../Common/IQMath/ti/_IQNexp.c **** {
  30              		.loc 1 148 1 view -0
  31              		.cfi_startproc
  32              		@ args = 0, pretend = 0, frame = 0
  33              		@ frame_needed = 0, uses_anonymous_args = 0
  34              		@ link register save eliminated.
  35              		.loc 1 148 1 is_stmt 0 view .LVU1
  36 0000 30B4     		push	{r4, r5}
  37              	.LCFI0:
  38              		.cfi_def_cfa_offset 8
  39              		.cfi_offset 4, -8
  40              		.cfi_offset 5, -4
 149:../Common/IQMath/ti/_IQNexp.c ****     return __IQNexp(a, _IQNexp_lookup30, _IQNexp_offset[30-1], _IQNexp_min[30-1], _IQNexp_max[30-1]
  41              		.loc 1 149 5 is_stmt 1 view .LVU2
  42              		.loc 1 149 12 is_stmt 0 view .LVU3
  43 0002 2F4B     		ldr	r3, .L11
  44 0004 93F87430 		ldrb	r3, [r3, #116]	@ zero_extendqisi2
  45              		.loc 1 149 75 view .LVU4
  46 0008 2E4A     		ldr	r2, .L11+4
  47 000a 516F     		ldr	r1, [r2, #116]
  48              		.loc 1 149 94 view .LVU5
  49 000c 2E4A     		ldr	r2, .L11+8
  50 000e 526F     		ldr	r2, [r2, #116]
  51              	.LVL1:
  52              	.LBB16:
  53              	.LBI16:
  32:../Common/IQMath/ti/_IQNexp.c **** {
  54              		.loc 1 32 30 is_stmt 1 view .LVU6
  55              	.LBB17:
  34:../Common/IQMath/ti/_IQNexp.c ****     int_fast16_t i16Integer;
  56              		.loc 1 34 5 view .LVU7
  35:../Common/IQMath/ti/_IQNexp.c ****     uint_fast16_t ui16IntState;
  57              		.loc 1 35 5 view .LVU8
  36:../Common/IQMath/ti/_IQNexp.c ****     uint_fast16_t ui16MPYState;
  58              		.loc 1 36 5 view .LVU9
  37:../Common/IQMath/ti/_IQNexp.c ****     int_fast32_t iq31Fractional;
  59              		.loc 1 37 5 view .LVU10
  38:../Common/IQMath/ti/_IQNexp.c ****     uint_fast32_t uiqNResult;
  60              		.loc 1 38 5 view .LVU11
  39:../Common/IQMath/ti/_IQNexp.c ****     uint_fast32_t uiqNIntegerResult;
  61              		.loc 1 39 5 view .LVU12
  40:../Common/IQMath/ti/_IQNexp.c ****     uint_fast32_t uiq30FractionalResult;
  62              		.loc 1 40 5 view .LVU13
  41:../Common/IQMath/ti/_IQNexp.c ****     uint_fast32_t uiq31FractionalResult;
  63              		.loc 1 41 5 view .LVU14
  42:../Common/IQMath/ti/_IQNexp.c ****     const uint_fast32_t *piq30Coeffs;
  64              		.loc 1 42 5 view .LVU15
  43:../Common/IQMath/ti/_IQNexp.c ****     
  65              		.loc 1 43 5 view .LVU16
  46:../Common/IQMath/ti/_IQNexp.c ****         /* Check for the minimum value. */
  66              		.loc 1 46 5 view .LVU17
  46:../Common/IQMath/ti/_IQNexp.c ****         /* Check for the minimum value. */
  67              		.loc 1 46 8 is_stmt 0 view .LVU18
ARM GAS  C:\Users\57308\AppData\Local\Temp\ccyuPR38.s 			page 5


  68 0010 0028     		cmp	r0, #0
  46:../Common/IQMath/ti/_IQNexp.c ****         /* Check for the minimum value. */
  69              		.loc 1 46 8 view .LVU19
  70 0012 19DB     		blt	.L10
  73:../Common/IQMath/ti/_IQNexp.c ****             return INT32_MAX;
  71              		.loc 1 73 9 is_stmt 1 view .LVU20
  73:../Common/IQMath/ti/_IQNexp.c ****             return INT32_MAX;
  72              		.loc 1 73 12 is_stmt 0 view .LVU21
  73 0014 8242     		cmp	r2, r0
  74 0016 50DB     		blt	.L8
  78:../Common/IQMath/ti/_IQNexp.c ****         iq31Fractional <<= (31 - q_value);
  75              		.loc 1 78 9 is_stmt 1 view .LVU22
  76              	.LVL2:
  79:../Common/IQMath/ti/_IQNexp.c ****         iq31Fractional &= 0x7fffffff;
  77              		.loc 1 79 9 view .LVU23
  79:../Common/IQMath/ti/_IQNexp.c ****         iq31Fractional &= 0x7fffffff;
  78              		.loc 1 79 24 is_stmt 0 view .LVU24
  79 0018 4FEA400C 		lsl	ip, r0, #1
  80              	.LVL3:
  80:../Common/IQMath/ti/_IQNexp.c ****     
  81              		.loc 1 80 9 is_stmt 1 view .LVU25
  80:../Common/IQMath/ti/_IQNexp.c ****     
  82              		.loc 1 80 24 is_stmt 0 view .LVU26
  83 001c 2CF0004C 		bic	ip, ip, #-2147483648
  84              	.LVL4:
  83:../Common/IQMath/ti/_IQNexp.c ****     
  85              		.loc 1 83 9 is_stmt 1 view .LVU27
  86:../Common/IQMath/ti/_IQNexp.c ****         uiqNIntegerResult = iqNLookupTable[i16Integer];
  86              		.loc 1 86 9 view .LVU28
  86:../Common/IQMath/ti/_IQNexp.c ****         uiqNIntegerResult = iqNLookupTable[i16Integer];
  87              		.loc 1 86 20 is_stmt 0 view .LVU29
  88 0020 03EBA070 		add	r0, r3, r0, asr #30
  89              	.LVL5:
  87:../Common/IQMath/ti/_IQNexp.c ****         
  90              		.loc 1 87 9 is_stmt 1 view .LVU30
  87:../Common/IQMath/ti/_IQNexp.c ****         
  91              		.loc 1 87 43 is_stmt 0 view .LVU31
  92 0024 294B     		ldr	r3, .L11+12
  93              	.LVL6:
  87:../Common/IQMath/ti/_IQNexp.c ****         
  94              		.loc 1 87 27 view .LVU32
  95 0026 53F82050 		ldr	r5, [r3, r0, lsl #2]
  96              	.LVL7:
  90:../Common/IQMath/ti/_IQNexp.c ****             iq31Fractional -= iq31_ln2;
  97              		.loc 1 90 9 is_stmt 1 view .LVU33
  90:../Common/IQMath/ti/_IQNexp.c ****             iq31Fractional -= iq31_ln2;
  98              		.loc 1 90 12 is_stmt 0 view .LVU34
  99 002a 294B     		ldr	r3, .L11+16
 100 002c 9C45     		cmp	ip, r3
 101 002e 06DD     		ble	.L4
  91:../Common/IQMath/ti/_IQNexp.c ****             uiqNIntegerResult <<= 1;
 102              		.loc 1 91 13 is_stmt 1 view .LVU35
  91:../Common/IQMath/ti/_IQNexp.c ****             uiqNIntegerResult <<= 1;
 103              		.loc 1 91 28 is_stmt 0 view .LVU36
 104 0030 ACF1B14C 		sub	ip, ip, #1484783616
 105              	.LVL8:
  91:../Common/IQMath/ti/_IQNexp.c ****             uiqNIntegerResult <<= 1;
ARM GAS  C:\Users\57308\AppData\Local\Temp\ccyuPR38.s 			page 6


 106              		.loc 1 91 28 view .LVU37
 107 0034 ACF5641C 		sub	ip, ip, #3735552
 108              	.LVL9:
  91:../Common/IQMath/ti/_IQNexp.c ****             uiqNIntegerResult <<= 1;
 109              		.loc 1 91 28 view .LVU38
 110 0038 ACF6FC3C 		subw	ip, ip, #3068
 111              	.LVL10:
  92:../Common/IQMath/ti/_IQNexp.c ****         }
 112              		.loc 1 92 13 is_stmt 1 view .LVU39
  92:../Common/IQMath/ti/_IQNexp.c ****         }
 113              		.loc 1 92 31 is_stmt 0 view .LVU40
 114 003c 6D00     		lsls	r5, r5, #1
 115              	.LVL11:
 116              	.L4:
 102:../Common/IQMath/ti/_IQNexp.c ****     
 117              		.loc 1 102 5 is_stmt 1 view .LVU41
 102:../Common/IQMath/ti/_IQNexp.c ****     
 118              		.loc 1 102 5 is_stmt 0 view .LVU42
 119              	.LBE17:
 120              	.LBE16:
 121              		.file 2 "../Common/IQMath/ti/./support/RTS_support.h"
   1:../Common/IQMath/ti/./support/RTS_support.h **** #ifndef __RTS_SUPPORTH__
   2:../Common/IQMath/ti/./support/RTS_support.h **** #define __RTS_SUPPORTH__
   3:../Common/IQMath/ti/./support/RTS_support.h **** 
   4:../Common/IQMath/ti/./support/RTS_support.h **** ////////////////////////////////////////////////////////////
   5:../Common/IQMath/ti/./support/RTS_support.h **** //                                                        //
   6:../Common/IQMath/ti/./support/RTS_support.h **** //              MPY32 control functions.                  //
   7:../Common/IQMath/ti/./support/RTS_support.h **** //                                                        //
   8:../Common/IQMath/ti/./support/RTS_support.h **** ////////////////////////////////////////////////////////////
   9:../Common/IQMath/ti/./support/RTS_support.h **** #if defined (__TI_COMPILER_VERSION__)
  10:../Common/IQMath/ti/./support/RTS_support.h ****     #pragma FUNC_ALWAYS_INLINE(__mpy_start)
  11:../Common/IQMath/ti/./support/RTS_support.h **** #elif defined(__IAR_SYSTEMS_ICC__)
  12:../Common/IQMath/ti/./support/RTS_support.h ****     #pragma inline=forced
  13:../Common/IQMath/ti/./support/RTS_support.h **** #endif
  14:../Common/IQMath/ti/./support/RTS_support.h **** static inline void __mpy_start(uint_fast16_t *ui16IntState, uint_fast16_t *ui16MPYState)
  15:../Common/IQMath/ti/./support/RTS_support.h **** {
  16:../Common/IQMath/ti/./support/RTS_support.h ****     /* Do nothing. */
  17:../Common/IQMath/ti/./support/RTS_support.h ****     return;
  18:../Common/IQMath/ti/./support/RTS_support.h **** }
  19:../Common/IQMath/ti/./support/RTS_support.h **** 
  20:../Common/IQMath/ti/./support/RTS_support.h **** #if defined (__TI_COMPILER_VERSION__)
  21:../Common/IQMath/ti/./support/RTS_support.h ****     #pragma FUNC_ALWAYS_INLINE(__mpyf_start)
  22:../Common/IQMath/ti/./support/RTS_support.h **** #elif defined(__IAR_SYSTEMS_ICC__)
  23:../Common/IQMath/ti/./support/RTS_support.h ****     #pragma inline=forced
  24:../Common/IQMath/ti/./support/RTS_support.h **** #endif
  25:../Common/IQMath/ti/./support/RTS_support.h **** static inline void __mpyf_start(uint_fast16_t *ui16IntState, uint_fast16_t *ui16MPYState)
  26:../Common/IQMath/ti/./support/RTS_support.h **** {
  27:../Common/IQMath/ti/./support/RTS_support.h ****     /* Do nothing. */
  28:../Common/IQMath/ti/./support/RTS_support.h ****     return;
 122              		.loc 2 28 5 is_stmt 1 view .LVU43
 123              	.LBB25:
 124              	.LBB22:
 109:../Common/IQMath/ti/_IQNexp.c ****     uiq30FractionalResult = *piq30Coeffs++;
 125              		.loc 1 109 5 view .LVU44
 110:../Common/IQMath/ti/_IQNexp.c ****     
 126              		.loc 1 110 5 view .LVU45
 110:../Common/IQMath/ti/_IQNexp.c ****     
ARM GAS  C:\Users\57308\AppData\Local\Temp\ccyuPR38.s 			page 7


 127              		.loc 1 110 27 is_stmt 0 view .LVU46
 128 003e 2548     		ldr	r0, .L11+20
 129              	.LVL12:
 110:../Common/IQMath/ti/_IQNexp.c ****     
 130              		.loc 1 110 27 view .LVU47
 131 0040 50F8043B 		ldr	r3, [r0], #4
 132              	.LVL13:
 113:../Common/IQMath/ti/_IQNexp.c ****         uiq30FractionalResult = __mpyf_l(iq31Fractional, uiq30FractionalResult);
 133              		.loc 1 113 5 is_stmt 1 view .LVU48
 113:../Common/IQMath/ti/_IQNexp.c ****         uiq30FractionalResult = __mpyf_l(iq31Fractional, uiq30FractionalResult);
 134              		.loc 1 113 19 is_stmt 0 view .LVU49
 135 0044 0A24     		movs	r4, #10
 113:../Common/IQMath/ti/_IQNexp.c ****         uiq30FractionalResult = __mpyf_l(iq31Fractional, uiq30FractionalResult);
 136              		.loc 1 113 5 view .LVU50
 137 0046 2AE0     		b	.L5
 138              	.LVL14:
 139              	.L10:
  48:../Common/IQMath/ti/_IQNexp.c ****             return 0;
 140              		.loc 1 48 9 is_stmt 1 view .LVU51
  48:../Common/IQMath/ti/_IQNexp.c ****             return 0;
 141              		.loc 1 48 12 is_stmt 0 view .LVU52
 142 0048 8142     		cmp	r1, r0
 143 004a 34DC     		bgt	.L7
  53:../Common/IQMath/ti/_IQNexp.c ****         iq31Fractional <<= (31 - q_value);
 144              		.loc 1 53 9 is_stmt 1 view .LVU53
 145              	.LVL15:
  54:../Common/IQMath/ti/_IQNexp.c ****         iq31Fractional |= 0x80000000;
 146              		.loc 1 54 9 view .LVU54
  54:../Common/IQMath/ti/_IQNexp.c ****         iq31Fractional |= 0x80000000;
 147              		.loc 1 54 24 is_stmt 0 view .LVU55
 148 004c 4FEA400C 		lsl	ip, r0, #1
 149              	.LVL16:
  55:../Common/IQMath/ti/_IQNexp.c ****     
 150              		.loc 1 55 9 is_stmt 1 view .LVU56
  55:../Common/IQMath/ti/_IQNexp.c ****     
 151              		.loc 1 55 24 is_stmt 0 view .LVU57
 152 0050 4CF0004C 		orr	ip, ip, #-2147483648
 153              	.LVL17:
  58:../Common/IQMath/ti/_IQNexp.c ****     
 154              		.loc 1 58 9 is_stmt 1 view .LVU58
  58:../Common/IQMath/ti/_IQNexp.c ****     
 155              		.loc 1 58 46 is_stmt 0 view .LVU59
 156 0054 8017     		asrs	r0, r0, #30
 157              	.LVL18:
  58:../Common/IQMath/ti/_IQNexp.c ****     
 158              		.loc 1 58 20 view .LVU60
 159 0056 0130     		adds	r0, r0, #1
 160              	.LVL19:
  61:../Common/IQMath/ti/_IQNexp.c ****         uiqNIntegerResult = iqNLookupTable[i16Integer];
 161              		.loc 1 61 9 is_stmt 1 view .LVU61
  61:../Common/IQMath/ti/_IQNexp.c ****         uiqNIntegerResult = iqNLookupTable[i16Integer];
 162              		.loc 1 61 20 is_stmt 0 view .LVU62
 163 0058 1844     		add	r0, r0, r3
 164              	.LVL20:
  62:../Common/IQMath/ti/_IQNexp.c ****         
 165              		.loc 1 62 9 is_stmt 1 view .LVU63
  62:../Common/IQMath/ti/_IQNexp.c ****         
ARM GAS  C:\Users\57308\AppData\Local\Temp\ccyuPR38.s 			page 8


 166              		.loc 1 62 43 is_stmt 0 view .LVU64
 167 005a 1C4B     		ldr	r3, .L11+12
 168              	.LVL21:
  62:../Common/IQMath/ti/_IQNexp.c ****         
 169              		.loc 1 62 27 view .LVU65
 170 005c 53F82050 		ldr	r5, [r3, r0, lsl #2]
 171              	.LVL22:
  65:../Common/IQMath/ti/_IQNexp.c ****             iq31Fractional += iq31_ln2;
 172              		.loc 1 65 9 is_stmt 1 view .LVU66
  65:../Common/IQMath/ti/_IQNexp.c ****             iq31Fractional += iq31_ln2;
 173              		.loc 1 65 12 is_stmt 0 view .LVU67
 174 0060 1D4B     		ldr	r3, .L11+24
 175 0062 9C45     		cmp	ip, r3
 176 0064 EBDA     		bge	.L4
  66:../Common/IQMath/ti/_IQNexp.c ****             uiqNIntegerResult >>= 1;
 177              		.loc 1 66 13 is_stmt 1 view .LVU68
  66:../Common/IQMath/ti/_IQNexp.c ****             uiqNIntegerResult >>= 1;
 178              		.loc 1 66 28 is_stmt 0 view .LVU69
 179 0066 0CF1B14C 		add	ip, ip, #1484783616
 180              	.LVL23:
  66:../Common/IQMath/ti/_IQNexp.c ****             uiqNIntegerResult >>= 1;
 181              		.loc 1 66 28 view .LVU70
 182 006a 0CF5641C 		add	ip, ip, #3735552
 183              	.LVL24:
  66:../Common/IQMath/ti/_IQNexp.c ****             uiqNIntegerResult >>= 1;
 184              		.loc 1 66 28 view .LVU71
 185 006e 0CF6FC3C 		addw	ip, ip, #3068
 186              	.LVL25:
  67:../Common/IQMath/ti/_IQNexp.c ****         }
 187              		.loc 1 67 13 is_stmt 1 view .LVU72
  67:../Common/IQMath/ti/_IQNexp.c ****         }
 188              		.loc 1 67 31 is_stmt 0 view .LVU73
 189 0072 6D08     		lsrs	r5, r5, #1
 190              	.LVL26:
  67:../Common/IQMath/ti/_IQNexp.c ****         }
 191              		.loc 1 67 31 view .LVU74
 192 0074 E3E7     		b	.L4
 193              	.LVL27:
 194              	.L6:
 114:../Common/IQMath/ti/_IQNexp.c ****         uiq30FractionalResult += *piq30Coeffs++;
 195              		.loc 1 114 9 is_stmt 1 view .LVU75
 196              	.LBB18:
 197              	.LBI18:
  29:../Common/IQMath/ti/./support/RTS_support.h **** }
  30:../Common/IQMath/ti/./support/RTS_support.h **** 
  31:../Common/IQMath/ti/./support/RTS_support.h **** #if defined (__TI_COMPILER_VERSION__)
  32:../Common/IQMath/ti/./support/RTS_support.h ****     #pragma FUNC_ALWAYS_INLINE(__mpyfs_start)
  33:../Common/IQMath/ti/./support/RTS_support.h **** #elif defined(__IAR_SYSTEMS_ICC__)
  34:../Common/IQMath/ti/./support/RTS_support.h ****     #pragma inline=forced
  35:../Common/IQMath/ti/./support/RTS_support.h **** #endif
  36:../Common/IQMath/ti/./support/RTS_support.h **** static inline void __mpyfs_start(uint_fast16_t *ui16IntState, uint_fast16_t *ui16MPYState)
  37:../Common/IQMath/ti/./support/RTS_support.h **** {
  38:../Common/IQMath/ti/./support/RTS_support.h ****     /* Do nothing. */
  39:../Common/IQMath/ti/./support/RTS_support.h ****     return;
  40:../Common/IQMath/ti/./support/RTS_support.h **** }
  41:../Common/IQMath/ti/./support/RTS_support.h **** 
  42:../Common/IQMath/ti/./support/RTS_support.h **** #if defined (__TI_COMPILER_VERSION__)
ARM GAS  C:\Users\57308\AppData\Local\Temp\ccyuPR38.s 			page 9


  43:../Common/IQMath/ti/./support/RTS_support.h ****     #pragma FUNC_ALWAYS_INLINE(__mpy_clear_ctl0)
  44:../Common/IQMath/ti/./support/RTS_support.h **** #elif defined(__IAR_SYSTEMS_ICC__)
  45:../Common/IQMath/ti/./support/RTS_support.h ****     #pragma inline=forced
  46:../Common/IQMath/ti/./support/RTS_support.h **** #endif
  47:../Common/IQMath/ti/./support/RTS_support.h **** static inline void __mpy_clear_ctl0(void)
  48:../Common/IQMath/ti/./support/RTS_support.h **** {
  49:../Common/IQMath/ti/./support/RTS_support.h ****     /* Do nothing. */
  50:../Common/IQMath/ti/./support/RTS_support.h ****     return;
  51:../Common/IQMath/ti/./support/RTS_support.h **** }
  52:../Common/IQMath/ti/./support/RTS_support.h **** 
  53:../Common/IQMath/ti/./support/RTS_support.h **** #if defined (__TI_COMPILER_VERSION__)
  54:../Common/IQMath/ti/./support/RTS_support.h ****     #pragma FUNC_ALWAYS_INLINE(__mpy_set_frac)
  55:../Common/IQMath/ti/./support/RTS_support.h **** #elif defined(__IAR_SYSTEMS_ICC__)
  56:../Common/IQMath/ti/./support/RTS_support.h ****     #pragma inline=forced
  57:../Common/IQMath/ti/./support/RTS_support.h **** #endif
  58:../Common/IQMath/ti/./support/RTS_support.h **** static inline void __mpy_set_frac(void)
  59:../Common/IQMath/ti/./support/RTS_support.h **** {
  60:../Common/IQMath/ti/./support/RTS_support.h ****     /* Do nothing. */
  61:../Common/IQMath/ti/./support/RTS_support.h ****     return;
  62:../Common/IQMath/ti/./support/RTS_support.h **** }
  63:../Common/IQMath/ti/./support/RTS_support.h **** 
  64:../Common/IQMath/ti/./support/RTS_support.h **** #if defined (__TI_COMPILER_VERSION__)
  65:../Common/IQMath/ti/./support/RTS_support.h ****     #pragma FUNC_ALWAYS_INLINE(__mpy_stop)
  66:../Common/IQMath/ti/./support/RTS_support.h **** #elif defined(__IAR_SYSTEMS_ICC__)
  67:../Common/IQMath/ti/./support/RTS_support.h ****     #pragma inline=forced
  68:../Common/IQMath/ti/./support/RTS_support.h **** #endif
  69:../Common/IQMath/ti/./support/RTS_support.h **** static inline void __mpy_stop(uint_fast16_t *ui16IntState, uint_fast16_t *ui16MPYState)
  70:../Common/IQMath/ti/./support/RTS_support.h **** {
  71:../Common/IQMath/ti/./support/RTS_support.h ****     /* Do nothing. */
  72:../Common/IQMath/ti/./support/RTS_support.h ****     return;
  73:../Common/IQMath/ti/./support/RTS_support.h **** }
  74:../Common/IQMath/ti/./support/RTS_support.h **** 
  75:../Common/IQMath/ti/./support/RTS_support.h **** ////////////////////////////////////////////////////////////
  76:../Common/IQMath/ti/./support/RTS_support.h **** //                                                        //
  77:../Common/IQMath/ti/./support/RTS_support.h **** //                16-bit functions                        //
  78:../Common/IQMath/ti/./support/RTS_support.h **** //                                                        //
  79:../Common/IQMath/ti/./support/RTS_support.h **** ////////////////////////////////////////////////////////////
  80:../Common/IQMath/ti/./support/RTS_support.h **** #if defined (__TI_COMPILER_VERSION__)
  81:../Common/IQMath/ti/./support/RTS_support.h ****     #pragma FUNC_ALWAYS_INLINE(__mpy_w)
  82:../Common/IQMath/ti/./support/RTS_support.h **** #elif defined(__IAR_SYSTEMS_ICC__)
  83:../Common/IQMath/ti/./support/RTS_support.h ****     #pragma inline=forced
  84:../Common/IQMath/ti/./support/RTS_support.h **** #endif
  85:../Common/IQMath/ti/./support/RTS_support.h **** static inline int_fast16_t __mpy_w(int_fast16_t arg1, int_fast16_t arg2)
  86:../Common/IQMath/ti/./support/RTS_support.h **** {
  87:../Common/IQMath/ti/./support/RTS_support.h ****     return (arg1 * arg2);
  88:../Common/IQMath/ti/./support/RTS_support.h **** }
  89:../Common/IQMath/ti/./support/RTS_support.h **** 
  90:../Common/IQMath/ti/./support/RTS_support.h **** #if defined (__TI_COMPILER_VERSION__)
  91:../Common/IQMath/ti/./support/RTS_support.h ****     #pragma FUNC_ALWAYS_INLINE(__mpy_uw)
  92:../Common/IQMath/ti/./support/RTS_support.h **** #elif defined(__IAR_SYSTEMS_ICC__)
  93:../Common/IQMath/ti/./support/RTS_support.h ****     #pragma inline=forced
  94:../Common/IQMath/ti/./support/RTS_support.h **** #endif
  95:../Common/IQMath/ti/./support/RTS_support.h **** static inline uint_fast16_t __mpy_uw(uint_fast16_t arg1, uint_fast16_t arg2)
  96:../Common/IQMath/ti/./support/RTS_support.h **** {
  97:../Common/IQMath/ti/./support/RTS_support.h ****     return (arg1 * arg2);
  98:../Common/IQMath/ti/./support/RTS_support.h **** }
  99:../Common/IQMath/ti/./support/RTS_support.h **** 
ARM GAS  C:\Users\57308\AppData\Local\Temp\ccyuPR38.s 			page 10


 100:../Common/IQMath/ti/./support/RTS_support.h **** #if defined (__TI_COMPILER_VERSION__)
 101:../Common/IQMath/ti/./support/RTS_support.h ****     #pragma FUNC_ALWAYS_INLINE(__mpyx_w)
 102:../Common/IQMath/ti/./support/RTS_support.h **** #elif defined(__IAR_SYSTEMS_ICC__)
 103:../Common/IQMath/ti/./support/RTS_support.h ****     #pragma inline=forced
 104:../Common/IQMath/ti/./support/RTS_support.h **** #endif
 105:../Common/IQMath/ti/./support/RTS_support.h **** static inline int_fast32_t __mpyx_w(int_fast16_t arg1, int_fast16_t arg2)
 106:../Common/IQMath/ti/./support/RTS_support.h **** {
 107:../Common/IQMath/ti/./support/RTS_support.h ****     return ((int_fast32_t)arg1 * (int_fast32_t)arg2);
 108:../Common/IQMath/ti/./support/RTS_support.h **** }
 109:../Common/IQMath/ti/./support/RTS_support.h **** 
 110:../Common/IQMath/ti/./support/RTS_support.h **** #if defined (__TI_COMPILER_VERSION__)
 111:../Common/IQMath/ti/./support/RTS_support.h ****     #pragma FUNC_ALWAYS_INLINE(__mpyx_uw)
 112:../Common/IQMath/ti/./support/RTS_support.h **** #elif defined(__IAR_SYSTEMS_ICC__)
 113:../Common/IQMath/ti/./support/RTS_support.h ****     #pragma inline=forced
 114:../Common/IQMath/ti/./support/RTS_support.h **** #endif
 115:../Common/IQMath/ti/./support/RTS_support.h **** static inline uint_fast32_t __mpyx_uw(uint_fast16_t arg1, uint_fast16_t arg2)
 116:../Common/IQMath/ti/./support/RTS_support.h **** {
 117:../Common/IQMath/ti/./support/RTS_support.h ****     return ((uint_fast32_t)arg1 * (uint_fast32_t)arg2);
 118:../Common/IQMath/ti/./support/RTS_support.h **** }
 119:../Common/IQMath/ti/./support/RTS_support.h **** 
 120:../Common/IQMath/ti/./support/RTS_support.h **** #if defined (__TI_COMPILER_VERSION__)
 121:../Common/IQMath/ti/./support/RTS_support.h ****     #pragma FUNC_ALWAYS_INLINE(__mpyf_w)
 122:../Common/IQMath/ti/./support/RTS_support.h **** #elif defined(__IAR_SYSTEMS_ICC__)
 123:../Common/IQMath/ti/./support/RTS_support.h ****     #pragma inline=forced
 124:../Common/IQMath/ti/./support/RTS_support.h **** #endif
 125:../Common/IQMath/ti/./support/RTS_support.h **** static inline int_fast16_t __mpyf_w(int_fast16_t arg1, int_fast16_t arg2)
 126:../Common/IQMath/ti/./support/RTS_support.h **** {
 127:../Common/IQMath/ti/./support/RTS_support.h ****     return (int_fast16_t)(((int_fast32_t)arg1 * (int_fast32_t)arg2) >> 15);
 128:../Common/IQMath/ti/./support/RTS_support.h **** }
 129:../Common/IQMath/ti/./support/RTS_support.h **** 
 130:../Common/IQMath/ti/./support/RTS_support.h **** #if defined (__TI_COMPILER_VERSION__)
 131:../Common/IQMath/ti/./support/RTS_support.h ****     #pragma FUNC_ALWAYS_INLINE(__mpyf_w_reuse_arg1)
 132:../Common/IQMath/ti/./support/RTS_support.h **** #elif defined(__IAR_SYSTEMS_ICC__)
 133:../Common/IQMath/ti/./support/RTS_support.h ****     #pragma inline=forced
 134:../Common/IQMath/ti/./support/RTS_support.h **** #endif
 135:../Common/IQMath/ti/./support/RTS_support.h **** static inline int_fast16_t __mpyf_w_reuse_arg1(int_fast16_t arg1, int_fast16_t arg2)
 136:../Common/IQMath/ti/./support/RTS_support.h **** {
 137:../Common/IQMath/ti/./support/RTS_support.h ****     /* This is identical to __mpyf_w */
 138:../Common/IQMath/ti/./support/RTS_support.h ****     return (int_fast16_t)(((int_fast32_t)arg1 * (int_fast32_t)arg2) >> 15);
 139:../Common/IQMath/ti/./support/RTS_support.h **** }
 140:../Common/IQMath/ti/./support/RTS_support.h **** 
 141:../Common/IQMath/ti/./support/RTS_support.h **** #if defined (__TI_COMPILER_VERSION__)
 142:../Common/IQMath/ti/./support/RTS_support.h ****     #pragma FUNC_ALWAYS_INLINE(__mpyf_uw)
 143:../Common/IQMath/ti/./support/RTS_support.h **** #elif defined(__IAR_SYSTEMS_ICC__)
 144:../Common/IQMath/ti/./support/RTS_support.h ****     #pragma inline=forced
 145:../Common/IQMath/ti/./support/RTS_support.h **** #endif
 146:../Common/IQMath/ti/./support/RTS_support.h **** static inline uint_fast16_t __mpyf_uw(uint_fast16_t arg1, uint_fast16_t arg2)
 147:../Common/IQMath/ti/./support/RTS_support.h **** {
 148:../Common/IQMath/ti/./support/RTS_support.h ****     return (uint_fast16_t)(((uint_fast32_t)arg1 * (uint_fast32_t)arg2) >> 15);
 149:../Common/IQMath/ti/./support/RTS_support.h **** }
 150:../Common/IQMath/ti/./support/RTS_support.h **** 
 151:../Common/IQMath/ti/./support/RTS_support.h **** #if defined (__TI_COMPILER_VERSION__)
 152:../Common/IQMath/ti/./support/RTS_support.h ****     #pragma FUNC_ALWAYS_INLINE(__mpyf_uw_reuse_arg1)
 153:../Common/IQMath/ti/./support/RTS_support.h **** #elif defined(__IAR_SYSTEMS_ICC__)
 154:../Common/IQMath/ti/./support/RTS_support.h ****     #pragma inline=forced
 155:../Common/IQMath/ti/./support/RTS_support.h **** #endif
 156:../Common/IQMath/ti/./support/RTS_support.h **** static inline uint_fast16_t __mpyf_uw_reuse_arg1(uint_fast16_t arg1, uint_fast16_t arg2)
ARM GAS  C:\Users\57308\AppData\Local\Temp\ccyuPR38.s 			page 11


 157:../Common/IQMath/ti/./support/RTS_support.h **** {
 158:../Common/IQMath/ti/./support/RTS_support.h ****     /* This is identical to __mpyf_uw */
 159:../Common/IQMath/ti/./support/RTS_support.h ****     return (uint_fast16_t)(((uint_fast32_t)arg1 * (uint_fast32_t)arg2) >> 15);
 160:../Common/IQMath/ti/./support/RTS_support.h **** }
 161:../Common/IQMath/ti/./support/RTS_support.h **** 
 162:../Common/IQMath/ti/./support/RTS_support.h **** #if defined (__TI_COMPILER_VERSION__)
 163:../Common/IQMath/ti/./support/RTS_support.h ****     #pragma FUNC_ALWAYS_INLINE(__mpyfx_w)
 164:../Common/IQMath/ti/./support/RTS_support.h **** #elif defined(__IAR_SYSTEMS_ICC__)
 165:../Common/IQMath/ti/./support/RTS_support.h ****     #pragma inline=forced
 166:../Common/IQMath/ti/./support/RTS_support.h **** #endif
 167:../Common/IQMath/ti/./support/RTS_support.h **** static inline int_fast32_t __mpyfx_w(int_fast16_t arg1, int_fast16_t arg2)
 168:../Common/IQMath/ti/./support/RTS_support.h **** {
 169:../Common/IQMath/ti/./support/RTS_support.h ****     return (((int_fast32_t)arg1 * (int_fast32_t)arg2) << 1);
 170:../Common/IQMath/ti/./support/RTS_support.h **** }
 171:../Common/IQMath/ti/./support/RTS_support.h **** 
 172:../Common/IQMath/ti/./support/RTS_support.h **** #if defined (__TI_COMPILER_VERSION__)
 173:../Common/IQMath/ti/./support/RTS_support.h ****     #pragma FUNC_ALWAYS_INLINE(__mpyfx_uw)
 174:../Common/IQMath/ti/./support/RTS_support.h **** #elif defined(__IAR_SYSTEMS_ICC__)
 175:../Common/IQMath/ti/./support/RTS_support.h ****     #pragma inline=forced
 176:../Common/IQMath/ti/./support/RTS_support.h **** #endif
 177:../Common/IQMath/ti/./support/RTS_support.h **** static inline int_fast32_t __mpyfx_uw(uint_fast16_t arg1, uint_fast16_t arg2)
 178:../Common/IQMath/ti/./support/RTS_support.h **** {
 179:../Common/IQMath/ti/./support/RTS_support.h ****     return (((uint_fast32_t)arg1 * (uint_fast32_t)arg2) << 1);
 180:../Common/IQMath/ti/./support/RTS_support.h **** }
 181:../Common/IQMath/ti/./support/RTS_support.h **** 
 182:../Common/IQMath/ti/./support/RTS_support.h **** 
 183:../Common/IQMath/ti/./support/RTS_support.h **** ////////////////////////////////////////////////////////////
 184:../Common/IQMath/ti/./support/RTS_support.h **** //                                                        //
 185:../Common/IQMath/ti/./support/RTS_support.h **** //                 32-bit functions                       //
 186:../Common/IQMath/ti/./support/RTS_support.h **** //                                                        //
 187:../Common/IQMath/ti/./support/RTS_support.h **** ////////////////////////////////////////////////////////////
 188:../Common/IQMath/ti/./support/RTS_support.h **** #if defined (__TI_COMPILER_VERSION__)
 189:../Common/IQMath/ti/./support/RTS_support.h ****     #pragma FUNC_ALWAYS_INLINE(__mpy_l)
 190:../Common/IQMath/ti/./support/RTS_support.h **** #elif defined(__IAR_SYSTEMS_ICC__)
 191:../Common/IQMath/ti/./support/RTS_support.h ****     #pragma inline=forced
 192:../Common/IQMath/ti/./support/RTS_support.h **** #endif
 193:../Common/IQMath/ti/./support/RTS_support.h **** static inline int_fast32_t __mpy_l(int_fast32_t arg1, int_fast32_t arg2)
 194:../Common/IQMath/ti/./support/RTS_support.h **** {
 195:../Common/IQMath/ti/./support/RTS_support.h ****     return (arg1 * arg2);
 196:../Common/IQMath/ti/./support/RTS_support.h **** }
 197:../Common/IQMath/ti/./support/RTS_support.h **** 
 198:../Common/IQMath/ti/./support/RTS_support.h **** #if defined (__TI_COMPILER_VERSION__)
 199:../Common/IQMath/ti/./support/RTS_support.h ****     #pragma FUNC_ALWAYS_INLINE(__mpy_ul)
 200:../Common/IQMath/ti/./support/RTS_support.h **** #elif defined(__IAR_SYSTEMS_ICC__)
 201:../Common/IQMath/ti/./support/RTS_support.h ****     #pragma inline=forced
 202:../Common/IQMath/ti/./support/RTS_support.h **** #endif
 203:../Common/IQMath/ti/./support/RTS_support.h **** static inline uint_fast32_t __mpy_ul(uint_fast32_t arg1, uint_fast32_t arg2)
 204:../Common/IQMath/ti/./support/RTS_support.h **** {
 205:../Common/IQMath/ti/./support/RTS_support.h ****     return (arg1 * arg2);
 206:../Common/IQMath/ti/./support/RTS_support.h **** }
 207:../Common/IQMath/ti/./support/RTS_support.h **** 
 208:../Common/IQMath/ti/./support/RTS_support.h **** #if defined (__TI_COMPILER_VERSION__)
 209:../Common/IQMath/ti/./support/RTS_support.h ****     #pragma FUNC_ALWAYS_INLINE(__mpyx)
 210:../Common/IQMath/ti/./support/RTS_support.h **** #elif defined(__IAR_SYSTEMS_ICC__)
 211:../Common/IQMath/ti/./support/RTS_support.h ****     #pragma inline=forced
 212:../Common/IQMath/ti/./support/RTS_support.h **** #endif
 213:../Common/IQMath/ti/./support/RTS_support.h **** static inline int_fast64_t __mpyx(int_fast32_t arg1, int_fast32_t arg2)
ARM GAS  C:\Users\57308\AppData\Local\Temp\ccyuPR38.s 			page 12


 214:../Common/IQMath/ti/./support/RTS_support.h **** {
 215:../Common/IQMath/ti/./support/RTS_support.h ****     return ((int_fast64_t)arg1 * (int_fast64_t)arg2);
 216:../Common/IQMath/ti/./support/RTS_support.h **** }
 217:../Common/IQMath/ti/./support/RTS_support.h **** 
 218:../Common/IQMath/ti/./support/RTS_support.h **** #if defined (__TI_COMPILER_VERSION__)
 219:../Common/IQMath/ti/./support/RTS_support.h ****     #pragma FUNC_ALWAYS_INLINE(__mpyx_u)
 220:../Common/IQMath/ti/./support/RTS_support.h **** #elif defined(__IAR_SYSTEMS_ICC__)
 221:../Common/IQMath/ti/./support/RTS_support.h ****     #pragma inline=forced
 222:../Common/IQMath/ti/./support/RTS_support.h **** #endif
 223:../Common/IQMath/ti/./support/RTS_support.h **** static inline uint_fast64_t __mpyx_u(uint_fast32_t arg1, uint_fast32_t arg2)
 224:../Common/IQMath/ti/./support/RTS_support.h **** {
 225:../Common/IQMath/ti/./support/RTS_support.h ****     return ((uint_fast64_t)arg1 * (uint_fast64_t)arg2);
 226:../Common/IQMath/ti/./support/RTS_support.h **** }
 227:../Common/IQMath/ti/./support/RTS_support.h **** 
 228:../Common/IQMath/ti/./support/RTS_support.h **** #if defined (__TI_COMPILER_VERSION__)
 229:../Common/IQMath/ti/./support/RTS_support.h ****     #pragma FUNC_ALWAYS_INLINE(__mpyf_l)
 230:../Common/IQMath/ti/./support/RTS_support.h **** #elif defined(__IAR_SYSTEMS_ICC__)
 231:../Common/IQMath/ti/./support/RTS_support.h ****     #pragma inline=forced
 232:../Common/IQMath/ti/./support/RTS_support.h **** #endif
 233:../Common/IQMath/ti/./support/RTS_support.h **** static inline int_fast32_t __mpyf_l(int_fast32_t arg1, int_fast32_t arg2)
 198              		.loc 2 233 28 view .LVU76
 199              	.LBB19:
 234:../Common/IQMath/ti/./support/RTS_support.h **** {
 235:../Common/IQMath/ti/./support/RTS_support.h ****     return (int_fast32_t)(((int_fast64_t)arg1 * (int_fast64_t)arg2) >> 31);
 200              		.loc 2 235 5 view .LVU77
 201              		.loc 2 235 28 is_stmt 0 view .LVU78
 202 0076 4FEAEC72 		asr	r2, ip, #31
 203              		.loc 2 235 49 view .LVU79
 204 007a D917     		asrs	r1, r3, #31
 205              		.loc 2 235 47 view .LVU80
 206 007c 0CFB01F1 		mul	r1, ip, r1
 207 0080 03FB0212 		mla	r2, r3, r2, r1
 208 0084 ACFB0331 		umull	r3, r1, ip, r3
 209              	.LVL28:
 210              		.loc 2 235 47 view .LVU81
 211 0088 0A44     		add	r2, r2, r1
 212              		.loc 2 235 69 view .LVU82
 213 008a DB0F     		lsrs	r3, r3, #31
 214 008c 43EA4203 		orr	r3, r3, r2, lsl #1
 215              	.LVL29:
 216              		.loc 2 235 69 view .LVU83
 217              	.LBE19:
 218              	.LBE18:
 115:../Common/IQMath/ti/_IQNexp.c ****     }
 219              		.loc 1 115 9 is_stmt 1 view .LVU84
 115:../Common/IQMath/ti/_IQNexp.c ****     }
 220              		.loc 1 115 46 is_stmt 0 view .LVU85
 221 0090 0246     		mov	r2, r0
 222              	.LVL30:
 115:../Common/IQMath/ti/_IQNexp.c ****     }
 223              		.loc 1 115 34 view .LVU86
 224 0092 52F8041B 		ldr	r1, [r2], #4
 225              	.LVL31:
 115:../Common/IQMath/ti/_IQNexp.c ****     }
 226              		.loc 1 115 31 view .LVU87
 227 0096 0B44     		add	r3, r3, r1
 228              	.LVL32:
ARM GAS  C:\Users\57308\AppData\Local\Temp\ccyuPR38.s 			page 13


 113:../Common/IQMath/ti/_IQNexp.c ****         uiq30FractionalResult = __mpyf_l(iq31Fractional, uiq30FractionalResult);
 229              		.loc 1 113 51 is_stmt 1 view .LVU88
 113:../Common/IQMath/ti/_IQNexp.c ****         uiq30FractionalResult = __mpyf_l(iq31Fractional, uiq30FractionalResult);
 230              		.loc 1 113 59 is_stmt 0 view .LVU89
 231 0098 013C     		subs	r4, r4, #1
 232              	.LVL33:
 113:../Common/IQMath/ti/_IQNexp.c ****         uiq30FractionalResult = __mpyf_l(iq31Fractional, uiq30FractionalResult);
 233              		.loc 1 113 59 view .LVU90
 234 009a E4B2     		uxtb	r4, r4
 235              	.LVL34:
 115:../Common/IQMath/ti/_IQNexp.c ****     }
 236              		.loc 1 115 46 view .LVU91
 237 009c 1046     		mov	r0, r2
 238              	.LVL35:
 239              	.L5:
 113:../Common/IQMath/ti/_IQNexp.c ****         uiq30FractionalResult = __mpyf_l(iq31Fractional, uiq30FractionalResult);
 240              		.loc 1 113 37 is_stmt 1 view .LVU92
 113:../Common/IQMath/ti/_IQNexp.c ****         uiq30FractionalResult = __mpyf_l(iq31Fractional, uiq30FractionalResult);
 241              		.loc 1 113 5 is_stmt 0 view .LVU93
 242 009e 002C     		cmp	r4, #0
 243 00a0 E9D1     		bne	.L6
 119:../Common/IQMath/ti/_IQNexp.c ****     
 244              		.loc 1 119 5 is_stmt 1 view .LVU94
 119:../Common/IQMath/ti/_IQNexp.c ****     
 245              		.loc 1 119 27 is_stmt 0 view .LVU95
 246 00a2 5B00     		lsls	r3, r3, #1
 247              	.LVL36:
 125:../Common/IQMath/ti/_IQNexp.c ****     
 248              		.loc 1 125 5 is_stmt 1 view .LVU96
 249              	.LBB20:
 250              	.LBI20:
 236:../Common/IQMath/ti/./support/RTS_support.h **** }
 237:../Common/IQMath/ti/./support/RTS_support.h **** 
 238:../Common/IQMath/ti/./support/RTS_support.h **** #if defined (__TI_COMPILER_VERSION__)
 239:../Common/IQMath/ti/./support/RTS_support.h ****     #pragma FUNC_ALWAYS_INLINE(__mpyf_l_reuse_arg1)
 240:../Common/IQMath/ti/./support/RTS_support.h **** #elif defined(__IAR_SYSTEMS_ICC__)
 241:../Common/IQMath/ti/./support/RTS_support.h ****     #pragma inline=forced
 242:../Common/IQMath/ti/./support/RTS_support.h **** #endif
 243:../Common/IQMath/ti/./support/RTS_support.h **** static inline int_fast32_t __mpyf_l_reuse_arg1(int_fast32_t arg1, int_fast32_t arg2)
 244:../Common/IQMath/ti/./support/RTS_support.h **** {
 245:../Common/IQMath/ti/./support/RTS_support.h ****     /* This is identical to __mpyf_l */
 246:../Common/IQMath/ti/./support/RTS_support.h ****     return (int_fast32_t)(((int_fast64_t)arg1 * (int_fast64_t)arg2) >> 31);
 247:../Common/IQMath/ti/./support/RTS_support.h **** }
 248:../Common/IQMath/ti/./support/RTS_support.h **** 
 249:../Common/IQMath/ti/./support/RTS_support.h **** #if defined (__TI_COMPILER_VERSION__)
 250:../Common/IQMath/ti/./support/RTS_support.h ****     #pragma FUNC_ALWAYS_INLINE(__mpyf_ul)
 251:../Common/IQMath/ti/./support/RTS_support.h **** #elif defined(__IAR_SYSTEMS_ICC__)
 252:../Common/IQMath/ti/./support/RTS_support.h ****     #pragma inline=forced
 253:../Common/IQMath/ti/./support/RTS_support.h **** #endif
 254:../Common/IQMath/ti/./support/RTS_support.h **** static inline uint_fast32_t __mpyf_ul(uint_fast32_t arg1, uint_fast32_t arg2)
 251              		.loc 2 254 29 view .LVU97
 252              	.LBB21:
 255:../Common/IQMath/ti/./support/RTS_support.h **** {
 256:../Common/IQMath/ti/./support/RTS_support.h ****     return (uint_fast32_t)(((uint_fast64_t)arg1 * (uint_fast64_t)arg2) >> 31);
 253              		.loc 2 256 5 view .LVU98
 254              		.loc 2 256 49 is_stmt 0 view .LVU99
 255 00a4 A5FB0353 		umull	r5, r3, r5, r3
ARM GAS  C:\Users\57308\AppData\Local\Temp\ccyuPR38.s 			page 14


 256              	.LVL37:
 257              		.loc 2 256 72 view .LVU100
 258 00a8 ED0F     		lsrs	r5, r5, #31
 259 00aa 45EA4305 		orr	r5, r5, r3, lsl #1
 260              	.LVL38:
 261              		.loc 2 256 72 view .LVU101
 262              	.LBE21:
 263              	.LBE20:
 131:../Common/IQMath/ti/_IQNexp.c ****     
 264              		.loc 1 131 5 is_stmt 1 view .LVU102
 131:../Common/IQMath/ti/_IQNexp.c ****     
 265              		.loc 1 131 5 is_stmt 0 view .LVU103
 266              	.LBE22:
 267              	.LBE25:
  72:../Common/IQMath/ti/./support/RTS_support.h **** }
 268              		.loc 2 72 5 is_stmt 1 view .LVU104
 269              	.LBB26:
 270              	.LBB23:
 134:../Common/IQMath/ti/_IQNexp.c ****     uiqNResult >>= 1;
 271              		.loc 1 134 5 view .LVU105
 134:../Common/IQMath/ti/_IQNexp.c ****     uiqNResult >>= 1;
 272              		.loc 1 134 15 is_stmt 0 view .LVU106
 273 00ae 0135     		adds	r5, r5, #1
 274              	.LVL39:
 135:../Common/IQMath/ti/_IQNexp.c ****     
 275              		.loc 1 135 5 is_stmt 1 view .LVU107
 135:../Common/IQMath/ti/_IQNexp.c ****     
 276              		.loc 1 135 16 is_stmt 0 view .LVU108
 277 00b0 6808     		lsrs	r0, r5, #1
 278              	.LVL40:
 137:../Common/IQMath/ti/_IQNexp.c **** }
 279              		.loc 1 137 5 is_stmt 1 view .LVU109
 280              	.L1:
 137:../Common/IQMath/ti/_IQNexp.c **** }
 281              		.loc 1 137 5 is_stmt 0 view .LVU110
 282              	.LBE23:
 283              	.LBE26:
 150:../Common/IQMath/ti/_IQNexp.c **** }
 284              		.loc 1 150 1 view .LVU111
 285 00b2 30BC     		pop	{r4, r5}
 286              	.LCFI1:
 287              		.cfi_remember_state
 288              		.cfi_restore 5
 289              		.cfi_restore 4
 290              		.cfi_def_cfa_offset 0
 291 00b4 7047     		bx	lr
 292              	.LVL41:
 293              	.L7:
 294              	.LCFI2:
 295              		.cfi_restore_state
 296              	.LBB27:
 297              	.LBB24:
  49:../Common/IQMath/ti/_IQNexp.c ****         }
 298              		.loc 1 49 20 view .LVU112
 299 00b6 0020     		movs	r0, #0
 300              	.LVL42:
  49:../Common/IQMath/ti/_IQNexp.c ****         }
ARM GAS  C:\Users\57308\AppData\Local\Temp\ccyuPR38.s 			page 15


 301              		.loc 1 49 20 view .LVU113
 302 00b8 FBE7     		b	.L1
 303              	.LVL43:
 304              	.L8:
  74:../Common/IQMath/ti/_IQNexp.c ****         }
 305              		.loc 1 74 20 view .LVU114
 306 00ba 6FF00040 		mvn	r0, #-2147483648
 307              	.LVL44:
  74:../Common/IQMath/ti/_IQNexp.c ****         }
 308              		.loc 1 74 20 view .LVU115
 309              	.LBE24:
 310              	.LBE27:
 149:../Common/IQMath/ti/_IQNexp.c **** }
 311              		.loc 1 149 12 view .LVU116
 312 00be F8E7     		b	.L1
 313              	.L12:
 314              		.align	2
 315              	.L11:
 316 00c0 00000000 		.word	_IQNexp_offset
 317 00c4 00000000 		.word	_IQNexp_min
 318 00c8 00000000 		.word	_IQNexp_max
 319 00cc 00000000 		.word	_IQNexp_lookup30
 320 00d0 FB0BB958 		.word	1488522235
 321 00d4 00000000 		.word	_IQ30exp_coeffs
 322 00d8 05F446A7 		.word	-1488522235
 323              		.cfi_endproc
 324              	.LFE262:
 326              		.section	.text._IQ29exp,"ax",%progbits
 327              		.align	1
 328              		.global	_IQ29exp
 329              		.syntax unified
 330              		.thumb
 331              		.thumb_func
 333              	_IQ29exp:
 334              	.LVL45:
 335              	.LFB263:
 151:../Common/IQMath/ti/_IQNexp.c **** /**
 152:../Common/IQMath/ti/_IQNexp.c ****  * @brief Computes the exponential of an IQ29 input.
 153:../Common/IQMath/ti/_IQNexp.c ****  *
 154:../Common/IQMath/ti/_IQNexp.c ****  * @param a               IQ29 type input.
 155:../Common/IQMath/ti/_IQNexp.c ****  *
 156:../Common/IQMath/ti/_IQNexp.c ****  * @return                IQ29 type result of exponential.
 157:../Common/IQMath/ti/_IQNexp.c ****  */
 158:../Common/IQMath/ti/_IQNexp.c **** int32_t _IQ29exp(int32_t a)
 159:../Common/IQMath/ti/_IQNexp.c **** {
 336              		.loc 1 159 1 is_stmt 1 view -0
 337              		.cfi_startproc
 338              		@ args = 0, pretend = 0, frame = 0
 339              		@ frame_needed = 0, uses_anonymous_args = 0
 340              		@ link register save eliminated.
 341              		.loc 1 159 1 is_stmt 0 view .LVU118
 342 0000 30B4     		push	{r4, r5}
 343              	.LCFI3:
 344              		.cfi_def_cfa_offset 8
 345              		.cfi_offset 4, -8
 346              		.cfi_offset 5, -4
 160:../Common/IQMath/ti/_IQNexp.c ****     return __IQNexp(a, _IQNexp_lookup29, _IQNexp_offset[29-1], _IQNexp_min[29-1], _IQNexp_max[29-1]
ARM GAS  C:\Users\57308\AppData\Local\Temp\ccyuPR38.s 			page 16


 347              		.loc 1 160 5 is_stmt 1 view .LVU119
 348              		.loc 1 160 12 is_stmt 0 view .LVU120
 349 0002 2F4B     		ldr	r3, .L23
 350 0004 93F87030 		ldrb	r3, [r3, #112]	@ zero_extendqisi2
 351              		.loc 1 160 75 view .LVU121
 352 0008 2E4A     		ldr	r2, .L23+4
 353 000a 116F     		ldr	r1, [r2, #112]
 354              		.loc 1 160 94 view .LVU122
 355 000c 2E4A     		ldr	r2, .L23+8
 356 000e 126F     		ldr	r2, [r2, #112]
 357              	.LVL46:
 358              	.LBB34:
 359              	.LBI34:
  32:../Common/IQMath/ti/_IQNexp.c **** {
 360              		.loc 1 32 30 is_stmt 1 view .LVU123
 361              	.LBB35:
  34:../Common/IQMath/ti/_IQNexp.c ****     int_fast16_t i16Integer;
 362              		.loc 1 34 5 view .LVU124
  35:../Common/IQMath/ti/_IQNexp.c ****     uint_fast16_t ui16IntState;
 363              		.loc 1 35 5 view .LVU125
  36:../Common/IQMath/ti/_IQNexp.c ****     uint_fast16_t ui16MPYState;
 364              		.loc 1 36 5 view .LVU126
  37:../Common/IQMath/ti/_IQNexp.c ****     int_fast32_t iq31Fractional;
 365              		.loc 1 37 5 view .LVU127
  38:../Common/IQMath/ti/_IQNexp.c ****     uint_fast32_t uiqNResult;
 366              		.loc 1 38 5 view .LVU128
  39:../Common/IQMath/ti/_IQNexp.c ****     uint_fast32_t uiqNIntegerResult;
 367              		.loc 1 39 5 view .LVU129
  40:../Common/IQMath/ti/_IQNexp.c ****     uint_fast32_t uiq30FractionalResult;
 368              		.loc 1 40 5 view .LVU130
  41:../Common/IQMath/ti/_IQNexp.c ****     uint_fast32_t uiq31FractionalResult;
 369              		.loc 1 41 5 view .LVU131
  42:../Common/IQMath/ti/_IQNexp.c ****     const uint_fast32_t *piq30Coeffs;
 370              		.loc 1 42 5 view .LVU132
  43:../Common/IQMath/ti/_IQNexp.c ****     
 371              		.loc 1 43 5 view .LVU133
  46:../Common/IQMath/ti/_IQNexp.c ****         /* Check for the minimum value. */
 372              		.loc 1 46 5 view .LVU134
  46:../Common/IQMath/ti/_IQNexp.c ****         /* Check for the minimum value. */
 373              		.loc 1 46 8 is_stmt 0 view .LVU135
 374 0010 0028     		cmp	r0, #0
  46:../Common/IQMath/ti/_IQNexp.c ****         /* Check for the minimum value. */
 375              		.loc 1 46 8 view .LVU136
 376 0012 19DB     		blt	.L22
  73:../Common/IQMath/ti/_IQNexp.c ****             return INT32_MAX;
 377              		.loc 1 73 9 is_stmt 1 view .LVU137
  73:../Common/IQMath/ti/_IQNexp.c ****             return INT32_MAX;
 378              		.loc 1 73 12 is_stmt 0 view .LVU138
 379 0014 8242     		cmp	r2, r0
 380 0016 50DB     		blt	.L20
  78:../Common/IQMath/ti/_IQNexp.c ****         iq31Fractional <<= (31 - q_value);
 381              		.loc 1 78 9 is_stmt 1 view .LVU139
 382              	.LVL47:
  79:../Common/IQMath/ti/_IQNexp.c ****         iq31Fractional &= 0x7fffffff;
 383              		.loc 1 79 9 view .LVU140
  79:../Common/IQMath/ti/_IQNexp.c ****         iq31Fractional &= 0x7fffffff;
 384              		.loc 1 79 24 is_stmt 0 view .LVU141
ARM GAS  C:\Users\57308\AppData\Local\Temp\ccyuPR38.s 			page 17


 385 0018 4FEA800C 		lsl	ip, r0, #2
 386              	.LVL48:
  80:../Common/IQMath/ti/_IQNexp.c ****     
 387              		.loc 1 80 9 is_stmt 1 view .LVU142
  80:../Common/IQMath/ti/_IQNexp.c ****     
 388              		.loc 1 80 24 is_stmt 0 view .LVU143
 389 001c 2CF0004C 		bic	ip, ip, #-2147483648
 390              	.LVL49:
  83:../Common/IQMath/ti/_IQNexp.c ****     
 391              		.loc 1 83 9 is_stmt 1 view .LVU144
  86:../Common/IQMath/ti/_IQNexp.c ****         uiqNIntegerResult = iqNLookupTable[i16Integer];
 392              		.loc 1 86 9 view .LVU145
  86:../Common/IQMath/ti/_IQNexp.c ****         uiqNIntegerResult = iqNLookupTable[i16Integer];
 393              		.loc 1 86 20 is_stmt 0 view .LVU146
 394 0020 03EB6070 		add	r0, r3, r0, asr #29
 395              	.LVL50:
  87:../Common/IQMath/ti/_IQNexp.c ****         
 396              		.loc 1 87 9 is_stmt 1 view .LVU147
  87:../Common/IQMath/ti/_IQNexp.c ****         
 397              		.loc 1 87 43 is_stmt 0 view .LVU148
 398 0024 294B     		ldr	r3, .L23+12
 399              	.LVL51:
  87:../Common/IQMath/ti/_IQNexp.c ****         
 400              		.loc 1 87 27 view .LVU149
 401 0026 53F82050 		ldr	r5, [r3, r0, lsl #2]
 402              	.LVL52:
  90:../Common/IQMath/ti/_IQNexp.c ****             iq31Fractional -= iq31_ln2;
 403              		.loc 1 90 9 is_stmt 1 view .LVU150
  90:../Common/IQMath/ti/_IQNexp.c ****             iq31Fractional -= iq31_ln2;
 404              		.loc 1 90 12 is_stmt 0 view .LVU151
 405 002a 294B     		ldr	r3, .L23+16
 406 002c 9C45     		cmp	ip, r3
 407 002e 06DD     		ble	.L16
  91:../Common/IQMath/ti/_IQNexp.c ****             uiqNIntegerResult <<= 1;
 408              		.loc 1 91 13 is_stmt 1 view .LVU152
  91:../Common/IQMath/ti/_IQNexp.c ****             uiqNIntegerResult <<= 1;
 409              		.loc 1 91 28 is_stmt 0 view .LVU153
 410 0030 ACF1B14C 		sub	ip, ip, #1484783616
 411              	.LVL53:
  91:../Common/IQMath/ti/_IQNexp.c ****             uiqNIntegerResult <<= 1;
 412              		.loc 1 91 28 view .LVU154
 413 0034 ACF5641C 		sub	ip, ip, #3735552
 414              	.LVL54:
  91:../Common/IQMath/ti/_IQNexp.c ****             uiqNIntegerResult <<= 1;
 415              		.loc 1 91 28 view .LVU155
 416 0038 ACF6FC3C 		subw	ip, ip, #3068
 417              	.LVL55:
  92:../Common/IQMath/ti/_IQNexp.c ****         }
 418              		.loc 1 92 13 is_stmt 1 view .LVU156
  92:../Common/IQMath/ti/_IQNexp.c ****         }
 419              		.loc 1 92 31 is_stmt 0 view .LVU157
 420 003c 6D00     		lsls	r5, r5, #1
 421              	.LVL56:
 422              	.L16:
 102:../Common/IQMath/ti/_IQNexp.c ****     
 423              		.loc 1 102 5 is_stmt 1 view .LVU158
 102:../Common/IQMath/ti/_IQNexp.c ****     
ARM GAS  C:\Users\57308\AppData\Local\Temp\ccyuPR38.s 			page 18


 424              		.loc 1 102 5 is_stmt 0 view .LVU159
 425              	.LBE35:
 426              	.LBE34:
  28:../Common/IQMath/ti/./support/RTS_support.h **** }
 427              		.loc 2 28 5 is_stmt 1 view .LVU160
 428              	.LBB43:
 429              	.LBB40:
 109:../Common/IQMath/ti/_IQNexp.c ****     uiq30FractionalResult = *piq30Coeffs++;
 430              		.loc 1 109 5 view .LVU161
 110:../Common/IQMath/ti/_IQNexp.c ****     
 431              		.loc 1 110 5 view .LVU162
 110:../Common/IQMath/ti/_IQNexp.c ****     
 432              		.loc 1 110 27 is_stmt 0 view .LVU163
 433 003e 2548     		ldr	r0, .L23+20
 434              	.LVL57:
 110:../Common/IQMath/ti/_IQNexp.c ****     
 435              		.loc 1 110 27 view .LVU164
 436 0040 50F8043B 		ldr	r3, [r0], #4
 437              	.LVL58:
 113:../Common/IQMath/ti/_IQNexp.c ****         uiq30FractionalResult = __mpyf_l(iq31Fractional, uiq30FractionalResult);
 438              		.loc 1 113 5 is_stmt 1 view .LVU165
 113:../Common/IQMath/ti/_IQNexp.c ****         uiq30FractionalResult = __mpyf_l(iq31Fractional, uiq30FractionalResult);
 439              		.loc 1 113 19 is_stmt 0 view .LVU166
 440 0044 0A24     		movs	r4, #10
 113:../Common/IQMath/ti/_IQNexp.c ****         uiq30FractionalResult = __mpyf_l(iq31Fractional, uiq30FractionalResult);
 441              		.loc 1 113 5 view .LVU167
 442 0046 2AE0     		b	.L17
 443              	.LVL59:
 444              	.L22:
  48:../Common/IQMath/ti/_IQNexp.c ****             return 0;
 445              		.loc 1 48 9 is_stmt 1 view .LVU168
  48:../Common/IQMath/ti/_IQNexp.c ****             return 0;
 446              		.loc 1 48 12 is_stmt 0 view .LVU169
 447 0048 8142     		cmp	r1, r0
 448 004a 34DC     		bgt	.L19
  53:../Common/IQMath/ti/_IQNexp.c ****         iq31Fractional <<= (31 - q_value);
 449              		.loc 1 53 9 is_stmt 1 view .LVU170
 450              	.LVL60:
  54:../Common/IQMath/ti/_IQNexp.c ****         iq31Fractional |= 0x80000000;
 451              		.loc 1 54 9 view .LVU171
  54:../Common/IQMath/ti/_IQNexp.c ****         iq31Fractional |= 0x80000000;
 452              		.loc 1 54 24 is_stmt 0 view .LVU172
 453 004c 4FEA800C 		lsl	ip, r0, #2
 454              	.LVL61:
  55:../Common/IQMath/ti/_IQNexp.c ****     
 455              		.loc 1 55 9 is_stmt 1 view .LVU173
  55:../Common/IQMath/ti/_IQNexp.c ****     
 456              		.loc 1 55 24 is_stmt 0 view .LVU174
 457 0050 4CF0004C 		orr	ip, ip, #-2147483648
 458              	.LVL62:
  58:../Common/IQMath/ti/_IQNexp.c ****     
 459              		.loc 1 58 9 is_stmt 1 view .LVU175
  58:../Common/IQMath/ti/_IQNexp.c ****     
 460              		.loc 1 58 46 is_stmt 0 view .LVU176
 461 0054 4017     		asrs	r0, r0, #29
 462              	.LVL63:
  58:../Common/IQMath/ti/_IQNexp.c ****     
ARM GAS  C:\Users\57308\AppData\Local\Temp\ccyuPR38.s 			page 19


 463              		.loc 1 58 20 view .LVU177
 464 0056 0130     		adds	r0, r0, #1
 465              	.LVL64:
  61:../Common/IQMath/ti/_IQNexp.c ****         uiqNIntegerResult = iqNLookupTable[i16Integer];
 466              		.loc 1 61 9 is_stmt 1 view .LVU178
  61:../Common/IQMath/ti/_IQNexp.c ****         uiqNIntegerResult = iqNLookupTable[i16Integer];
 467              		.loc 1 61 20 is_stmt 0 view .LVU179
 468 0058 1844     		add	r0, r0, r3
 469              	.LVL65:
  62:../Common/IQMath/ti/_IQNexp.c ****         
 470              		.loc 1 62 9 is_stmt 1 view .LVU180
  62:../Common/IQMath/ti/_IQNexp.c ****         
 471              		.loc 1 62 43 is_stmt 0 view .LVU181
 472 005a 1C4B     		ldr	r3, .L23+12
 473              	.LVL66:
  62:../Common/IQMath/ti/_IQNexp.c ****         
 474              		.loc 1 62 27 view .LVU182
 475 005c 53F82050 		ldr	r5, [r3, r0, lsl #2]
 476              	.LVL67:
  65:../Common/IQMath/ti/_IQNexp.c ****             iq31Fractional += iq31_ln2;
 477              		.loc 1 65 9 is_stmt 1 view .LVU183
  65:../Common/IQMath/ti/_IQNexp.c ****             iq31Fractional += iq31_ln2;
 478              		.loc 1 65 12 is_stmt 0 view .LVU184
 479 0060 1D4B     		ldr	r3, .L23+24
 480 0062 9C45     		cmp	ip, r3
 481 0064 EBDA     		bge	.L16
  66:../Common/IQMath/ti/_IQNexp.c ****             uiqNIntegerResult >>= 1;
 482              		.loc 1 66 13 is_stmt 1 view .LVU185
  66:../Common/IQMath/ti/_IQNexp.c ****             uiqNIntegerResult >>= 1;
 483              		.loc 1 66 28 is_stmt 0 view .LVU186
 484 0066 0CF1B14C 		add	ip, ip, #1484783616
 485              	.LVL68:
  66:../Common/IQMath/ti/_IQNexp.c ****             uiqNIntegerResult >>= 1;
 486              		.loc 1 66 28 view .LVU187
 487 006a 0CF5641C 		add	ip, ip, #3735552
 488              	.LVL69:
  66:../Common/IQMath/ti/_IQNexp.c ****             uiqNIntegerResult >>= 1;
 489              		.loc 1 66 28 view .LVU188
 490 006e 0CF6FC3C 		addw	ip, ip, #3068
 491              	.LVL70:
  67:../Common/IQMath/ti/_IQNexp.c ****         }
 492              		.loc 1 67 13 is_stmt 1 view .LVU189
  67:../Common/IQMath/ti/_IQNexp.c ****         }
 493              		.loc 1 67 31 is_stmt 0 view .LVU190
 494 0072 6D08     		lsrs	r5, r5, #1
 495              	.LVL71:
  67:../Common/IQMath/ti/_IQNexp.c ****         }
 496              		.loc 1 67 31 view .LVU191
 497 0074 E3E7     		b	.L16
 498              	.LVL72:
 499              	.L18:
 114:../Common/IQMath/ti/_IQNexp.c ****         uiq30FractionalResult += *piq30Coeffs++;
 500              		.loc 1 114 9 is_stmt 1 view .LVU192
 501              	.LBB36:
 502              	.LBI36:
 233:../Common/IQMath/ti/./support/RTS_support.h **** {
 503              		.loc 2 233 28 view .LVU193
ARM GAS  C:\Users\57308\AppData\Local\Temp\ccyuPR38.s 			page 20


 504              	.LBB37:
 235:../Common/IQMath/ti/./support/RTS_support.h **** }
 505              		.loc 2 235 5 view .LVU194
 235:../Common/IQMath/ti/./support/RTS_support.h **** }
 506              		.loc 2 235 28 is_stmt 0 view .LVU195
 507 0076 4FEAEC72 		asr	r2, ip, #31
 235:../Common/IQMath/ti/./support/RTS_support.h **** }
 508              		.loc 2 235 49 view .LVU196
 509 007a D917     		asrs	r1, r3, #31
 235:../Common/IQMath/ti/./support/RTS_support.h **** }
 510              		.loc 2 235 47 view .LVU197
 511 007c 0CFB01F1 		mul	r1, ip, r1
 512 0080 03FB0212 		mla	r2, r3, r2, r1
 513 0084 ACFB0331 		umull	r3, r1, ip, r3
 514              	.LVL73:
 235:../Common/IQMath/ti/./support/RTS_support.h **** }
 515              		.loc 2 235 47 view .LVU198
 516 0088 0A44     		add	r2, r2, r1
 235:../Common/IQMath/ti/./support/RTS_support.h **** }
 517              		.loc 2 235 69 view .LVU199
 518 008a DB0F     		lsrs	r3, r3, #31
 519 008c 43EA4203 		orr	r3, r3, r2, lsl #1
 520              	.LVL74:
 235:../Common/IQMath/ti/./support/RTS_support.h **** }
 521              		.loc 2 235 69 view .LVU200
 522              	.LBE37:
 523              	.LBE36:
 115:../Common/IQMath/ti/_IQNexp.c ****     }
 524              		.loc 1 115 9 is_stmt 1 view .LVU201
 115:../Common/IQMath/ti/_IQNexp.c ****     }
 525              		.loc 1 115 46 is_stmt 0 view .LVU202
 526 0090 0246     		mov	r2, r0
 527              	.LVL75:
 115:../Common/IQMath/ti/_IQNexp.c ****     }
 528              		.loc 1 115 34 view .LVU203
 529 0092 52F8041B 		ldr	r1, [r2], #4
 530              	.LVL76:
 115:../Common/IQMath/ti/_IQNexp.c ****     }
 531              		.loc 1 115 31 view .LVU204
 532 0096 0B44     		add	r3, r3, r1
 533              	.LVL77:
 113:../Common/IQMath/ti/_IQNexp.c ****         uiq30FractionalResult = __mpyf_l(iq31Fractional, uiq30FractionalResult);
 534              		.loc 1 113 51 is_stmt 1 view .LVU205
 113:../Common/IQMath/ti/_IQNexp.c ****         uiq30FractionalResult = __mpyf_l(iq31Fractional, uiq30FractionalResult);
 535              		.loc 1 113 59 is_stmt 0 view .LVU206
 536 0098 013C     		subs	r4, r4, #1
 537              	.LVL78:
 113:../Common/IQMath/ti/_IQNexp.c ****         uiq30FractionalResult = __mpyf_l(iq31Fractional, uiq30FractionalResult);
 538              		.loc 1 113 59 view .LVU207
 539 009a E4B2     		uxtb	r4, r4
 540              	.LVL79:
 115:../Common/IQMath/ti/_IQNexp.c ****     }
 541              		.loc 1 115 46 view .LVU208
 542 009c 1046     		mov	r0, r2
 543              	.LVL80:
 544              	.L17:
 113:../Common/IQMath/ti/_IQNexp.c ****         uiq30FractionalResult = __mpyf_l(iq31Fractional, uiq30FractionalResult);
ARM GAS  C:\Users\57308\AppData\Local\Temp\ccyuPR38.s 			page 21


 545              		.loc 1 113 37 is_stmt 1 view .LVU209
 113:../Common/IQMath/ti/_IQNexp.c ****         uiq30FractionalResult = __mpyf_l(iq31Fractional, uiq30FractionalResult);
 546              		.loc 1 113 5 is_stmt 0 view .LVU210
 547 009e 002C     		cmp	r4, #0
 548 00a0 E9D1     		bne	.L18
 119:../Common/IQMath/ti/_IQNexp.c ****     
 549              		.loc 1 119 5 is_stmt 1 view .LVU211
 119:../Common/IQMath/ti/_IQNexp.c ****     
 550              		.loc 1 119 27 is_stmt 0 view .LVU212
 551 00a2 5B00     		lsls	r3, r3, #1
 552              	.LVL81:
 125:../Common/IQMath/ti/_IQNexp.c ****     
 553              		.loc 1 125 5 is_stmt 1 view .LVU213
 554              	.LBB38:
 555              	.LBI38:
 254:../Common/IQMath/ti/./support/RTS_support.h **** {
 556              		.loc 2 254 29 view .LVU214
 557              	.LBB39:
 558              		.loc 2 256 5 view .LVU215
 559              		.loc 2 256 49 is_stmt 0 view .LVU216
 560 00a4 A5FB0353 		umull	r5, r3, r5, r3
 561              	.LVL82:
 562              		.loc 2 256 72 view .LVU217
 563 00a8 ED0F     		lsrs	r5, r5, #31
 564 00aa 45EA4305 		orr	r5, r5, r3, lsl #1
 565              	.LVL83:
 566              		.loc 2 256 72 view .LVU218
 567              	.LBE39:
 568              	.LBE38:
 131:../Common/IQMath/ti/_IQNexp.c ****     
 569              		.loc 1 131 5 is_stmt 1 view .LVU219
 131:../Common/IQMath/ti/_IQNexp.c ****     
 570              		.loc 1 131 5 is_stmt 0 view .LVU220
 571              	.LBE40:
 572              	.LBE43:
  72:../Common/IQMath/ti/./support/RTS_support.h **** }
 573              		.loc 2 72 5 is_stmt 1 view .LVU221
 574              	.LBB44:
 575              	.LBB41:
 134:../Common/IQMath/ti/_IQNexp.c ****     uiqNResult >>= 1;
 576              		.loc 1 134 5 view .LVU222
 134:../Common/IQMath/ti/_IQNexp.c ****     uiqNResult >>= 1;
 577              		.loc 1 134 15 is_stmt 0 view .LVU223
 578 00ae 0135     		adds	r5, r5, #1
 579              	.LVL84:
 135:../Common/IQMath/ti/_IQNexp.c ****     
 580              		.loc 1 135 5 is_stmt 1 view .LVU224
 135:../Common/IQMath/ti/_IQNexp.c ****     
 581              		.loc 1 135 16 is_stmt 0 view .LVU225
 582 00b0 6808     		lsrs	r0, r5, #1
 583              	.LVL85:
 137:../Common/IQMath/ti/_IQNexp.c **** }
 584              		.loc 1 137 5 is_stmt 1 view .LVU226
 585              	.L13:
 137:../Common/IQMath/ti/_IQNexp.c **** }
 586              		.loc 1 137 5 is_stmt 0 view .LVU227
 587              	.LBE41:
ARM GAS  C:\Users\57308\AppData\Local\Temp\ccyuPR38.s 			page 22


 588              	.LBE44:
 161:../Common/IQMath/ti/_IQNexp.c **** }
 589              		.loc 1 161 1 view .LVU228
 590 00b2 30BC     		pop	{r4, r5}
 591              	.LCFI4:
 592              		.cfi_remember_state
 593              		.cfi_restore 5
 594              		.cfi_restore 4
 595              		.cfi_def_cfa_offset 0
 596 00b4 7047     		bx	lr
 597              	.LVL86:
 598              	.L19:
 599              	.LCFI5:
 600              		.cfi_restore_state
 601              	.LBB45:
 602              	.LBB42:
  49:../Common/IQMath/ti/_IQNexp.c ****         }
 603              		.loc 1 49 20 view .LVU229
 604 00b6 0020     		movs	r0, #0
 605              	.LVL87:
  49:../Common/IQMath/ti/_IQNexp.c ****         }
 606              		.loc 1 49 20 view .LVU230
 607 00b8 FBE7     		b	.L13
 608              	.LVL88:
 609              	.L20:
  74:../Common/IQMath/ti/_IQNexp.c ****         }
 610              		.loc 1 74 20 view .LVU231
 611 00ba 6FF00040 		mvn	r0, #-2147483648
 612              	.LVL89:
  74:../Common/IQMath/ti/_IQNexp.c ****         }
 613              		.loc 1 74 20 view .LVU232
 614              	.LBE42:
 615              	.LBE45:
 160:../Common/IQMath/ti/_IQNexp.c **** }
 616              		.loc 1 160 12 view .LVU233
 617 00be F8E7     		b	.L13
 618              	.L24:
 619              		.align	2
 620              	.L23:
 621 00c0 00000000 		.word	_IQNexp_offset
 622 00c4 00000000 		.word	_IQNexp_min
 623 00c8 00000000 		.word	_IQNexp_max
 624 00cc 00000000 		.word	_IQNexp_lookup29
 625 00d0 FB0BB958 		.word	1488522235
 626 00d4 00000000 		.word	_IQ30exp_coeffs
 627 00d8 05F446A7 		.word	-1488522235
 628              		.cfi_endproc
 629              	.LFE263:
 631              		.section	.text._IQ28exp,"ax",%progbits
 632              		.align	1
 633              		.global	_IQ28exp
 634              		.syntax unified
 635              		.thumb
 636              		.thumb_func
 638              	_IQ28exp:
 639              	.LVL90:
 640              	.LFB264:
ARM GAS  C:\Users\57308\AppData\Local\Temp\ccyuPR38.s 			page 23


 162:../Common/IQMath/ti/_IQNexp.c **** /**
 163:../Common/IQMath/ti/_IQNexp.c ****  * @brief Computes the exponential of an IQ28 input.
 164:../Common/IQMath/ti/_IQNexp.c ****  *
 165:../Common/IQMath/ti/_IQNexp.c ****  * @param a               IQ28 type input.
 166:../Common/IQMath/ti/_IQNexp.c ****  *
 167:../Common/IQMath/ti/_IQNexp.c ****  * @return                IQ28 type result of exponential.
 168:../Common/IQMath/ti/_IQNexp.c ****  */
 169:../Common/IQMath/ti/_IQNexp.c **** int32_t _IQ28exp(int32_t a)
 170:../Common/IQMath/ti/_IQNexp.c **** {
 641              		.loc 1 170 1 is_stmt 1 view -0
 642              		.cfi_startproc
 643              		@ args = 0, pretend = 0, frame = 0
 644              		@ frame_needed = 0, uses_anonymous_args = 0
 645              		@ link register save eliminated.
 646              		.loc 1 170 1 is_stmt 0 view .LVU235
 647 0000 30B4     		push	{r4, r5}
 648              	.LCFI6:
 649              		.cfi_def_cfa_offset 8
 650              		.cfi_offset 4, -8
 651              		.cfi_offset 5, -4
 171:../Common/IQMath/ti/_IQNexp.c ****     return __IQNexp(a, _IQNexp_lookup28, _IQNexp_offset[28-1], _IQNexp_min[28-1], _IQNexp_max[28-1]
 652              		.loc 1 171 5 is_stmt 1 view .LVU236
 653              		.loc 1 171 12 is_stmt 0 view .LVU237
 654 0002 2F4B     		ldr	r3, .L35
 655 0004 93F86C30 		ldrb	r3, [r3, #108]	@ zero_extendqisi2
 656              		.loc 1 171 75 view .LVU238
 657 0008 2E4A     		ldr	r2, .L35+4
 658 000a D16E     		ldr	r1, [r2, #108]
 659              		.loc 1 171 94 view .LVU239
 660 000c 2E4A     		ldr	r2, .L35+8
 661 000e D26E     		ldr	r2, [r2, #108]
 662              	.LVL91:
 663              	.LBB52:
 664              	.LBI52:
  32:../Common/IQMath/ti/_IQNexp.c **** {
 665              		.loc 1 32 30 is_stmt 1 view .LVU240
 666              	.LBB53:
  34:../Common/IQMath/ti/_IQNexp.c ****     int_fast16_t i16Integer;
 667              		.loc 1 34 5 view .LVU241
  35:../Common/IQMath/ti/_IQNexp.c ****     uint_fast16_t ui16IntState;
 668              		.loc 1 35 5 view .LVU242
  36:../Common/IQMath/ti/_IQNexp.c ****     uint_fast16_t ui16MPYState;
 669              		.loc 1 36 5 view .LVU243
  37:../Common/IQMath/ti/_IQNexp.c ****     int_fast32_t iq31Fractional;
 670              		.loc 1 37 5 view .LVU244
  38:../Common/IQMath/ti/_IQNexp.c ****     uint_fast32_t uiqNResult;
 671              		.loc 1 38 5 view .LVU245
  39:../Common/IQMath/ti/_IQNexp.c ****     uint_fast32_t uiqNIntegerResult;
 672              		.loc 1 39 5 view .LVU246
  40:../Common/IQMath/ti/_IQNexp.c ****     uint_fast32_t uiq30FractionalResult;
 673              		.loc 1 40 5 view .LVU247
  41:../Common/IQMath/ti/_IQNexp.c ****     uint_fast32_t uiq31FractionalResult;
 674              		.loc 1 41 5 view .LVU248
  42:../Common/IQMath/ti/_IQNexp.c ****     const uint_fast32_t *piq30Coeffs;
 675              		.loc 1 42 5 view .LVU249
  43:../Common/IQMath/ti/_IQNexp.c ****     
 676              		.loc 1 43 5 view .LVU250
ARM GAS  C:\Users\57308\AppData\Local\Temp\ccyuPR38.s 			page 24


  46:../Common/IQMath/ti/_IQNexp.c ****         /* Check for the minimum value. */
 677              		.loc 1 46 5 view .LVU251
  46:../Common/IQMath/ti/_IQNexp.c ****         /* Check for the minimum value. */
 678              		.loc 1 46 8 is_stmt 0 view .LVU252
 679 0010 0028     		cmp	r0, #0
  46:../Common/IQMath/ti/_IQNexp.c ****         /* Check for the minimum value. */
 680              		.loc 1 46 8 view .LVU253
 681 0012 19DB     		blt	.L34
  73:../Common/IQMath/ti/_IQNexp.c ****             return INT32_MAX;
 682              		.loc 1 73 9 is_stmt 1 view .LVU254
  73:../Common/IQMath/ti/_IQNexp.c ****             return INT32_MAX;
 683              		.loc 1 73 12 is_stmt 0 view .LVU255
 684 0014 8242     		cmp	r2, r0
 685 0016 50DB     		blt	.L32
  78:../Common/IQMath/ti/_IQNexp.c ****         iq31Fractional <<= (31 - q_value);
 686              		.loc 1 78 9 is_stmt 1 view .LVU256
 687              	.LVL92:
  79:../Common/IQMath/ti/_IQNexp.c ****         iq31Fractional &= 0x7fffffff;
 688              		.loc 1 79 9 view .LVU257
  79:../Common/IQMath/ti/_IQNexp.c ****         iq31Fractional &= 0x7fffffff;
 689              		.loc 1 79 24 is_stmt 0 view .LVU258
 690 0018 4FEAC00C 		lsl	ip, r0, #3
 691              	.LVL93:
  80:../Common/IQMath/ti/_IQNexp.c ****     
 692              		.loc 1 80 9 is_stmt 1 view .LVU259
  80:../Common/IQMath/ti/_IQNexp.c ****     
 693              		.loc 1 80 24 is_stmt 0 view .LVU260
 694 001c 2CF0004C 		bic	ip, ip, #-2147483648
 695              	.LVL94:
  83:../Common/IQMath/ti/_IQNexp.c ****     
 696              		.loc 1 83 9 is_stmt 1 view .LVU261
  86:../Common/IQMath/ti/_IQNexp.c ****         uiqNIntegerResult = iqNLookupTable[i16Integer];
 697              		.loc 1 86 9 view .LVU262
  86:../Common/IQMath/ti/_IQNexp.c ****         uiqNIntegerResult = iqNLookupTable[i16Integer];
 698              		.loc 1 86 20 is_stmt 0 view .LVU263
 699 0020 03EB2070 		add	r0, r3, r0, asr #28
 700              	.LVL95:
  87:../Common/IQMath/ti/_IQNexp.c ****         
 701              		.loc 1 87 9 is_stmt 1 view .LVU264
  87:../Common/IQMath/ti/_IQNexp.c ****         
 702              		.loc 1 87 43 is_stmt 0 view .LVU265
 703 0024 294B     		ldr	r3, .L35+12
 704              	.LVL96:
  87:../Common/IQMath/ti/_IQNexp.c ****         
 705              		.loc 1 87 27 view .LVU266
 706 0026 53F82050 		ldr	r5, [r3, r0, lsl #2]
 707              	.LVL97:
  90:../Common/IQMath/ti/_IQNexp.c ****             iq31Fractional -= iq31_ln2;
 708              		.loc 1 90 9 is_stmt 1 view .LVU267
  90:../Common/IQMath/ti/_IQNexp.c ****             iq31Fractional -= iq31_ln2;
 709              		.loc 1 90 12 is_stmt 0 view .LVU268
 710 002a 294B     		ldr	r3, .L35+16
 711 002c 9C45     		cmp	ip, r3
 712 002e 06DD     		ble	.L28
  91:../Common/IQMath/ti/_IQNexp.c ****             uiqNIntegerResult <<= 1;
 713              		.loc 1 91 13 is_stmt 1 view .LVU269
  91:../Common/IQMath/ti/_IQNexp.c ****             uiqNIntegerResult <<= 1;
ARM GAS  C:\Users\57308\AppData\Local\Temp\ccyuPR38.s 			page 25


 714              		.loc 1 91 28 is_stmt 0 view .LVU270
 715 0030 ACF1B14C 		sub	ip, ip, #1484783616
 716              	.LVL98:
  91:../Common/IQMath/ti/_IQNexp.c ****             uiqNIntegerResult <<= 1;
 717              		.loc 1 91 28 view .LVU271
 718 0034 ACF5641C 		sub	ip, ip, #3735552
 719              	.LVL99:
  91:../Common/IQMath/ti/_IQNexp.c ****             uiqNIntegerResult <<= 1;
 720              		.loc 1 91 28 view .LVU272
 721 0038 ACF6FC3C 		subw	ip, ip, #3068
 722              	.LVL100:
  92:../Common/IQMath/ti/_IQNexp.c ****         }
 723              		.loc 1 92 13 is_stmt 1 view .LVU273
  92:../Common/IQMath/ti/_IQNexp.c ****         }
 724              		.loc 1 92 31 is_stmt 0 view .LVU274
 725 003c 6D00     		lsls	r5, r5, #1
 726              	.LVL101:
 727              	.L28:
 102:../Common/IQMath/ti/_IQNexp.c ****     
 728              		.loc 1 102 5 is_stmt 1 view .LVU275
 102:../Common/IQMath/ti/_IQNexp.c ****     
 729              		.loc 1 102 5 is_stmt 0 view .LVU276
 730              	.LBE53:
 731              	.LBE52:
  28:../Common/IQMath/ti/./support/RTS_support.h **** }
 732              		.loc 2 28 5 is_stmt 1 view .LVU277
 733              	.LBB61:
 734              	.LBB58:
 109:../Common/IQMath/ti/_IQNexp.c ****     uiq30FractionalResult = *piq30Coeffs++;
 735              		.loc 1 109 5 view .LVU278
 110:../Common/IQMath/ti/_IQNexp.c ****     
 736              		.loc 1 110 5 view .LVU279
 110:../Common/IQMath/ti/_IQNexp.c ****     
 737              		.loc 1 110 27 is_stmt 0 view .LVU280
 738 003e 2548     		ldr	r0, .L35+20
 739              	.LVL102:
 110:../Common/IQMath/ti/_IQNexp.c ****     
 740              		.loc 1 110 27 view .LVU281
 741 0040 50F8043B 		ldr	r3, [r0], #4
 742              	.LVL103:
 113:../Common/IQMath/ti/_IQNexp.c ****         uiq30FractionalResult = __mpyf_l(iq31Fractional, uiq30FractionalResult);
 743              		.loc 1 113 5 is_stmt 1 view .LVU282
 113:../Common/IQMath/ti/_IQNexp.c ****         uiq30FractionalResult = __mpyf_l(iq31Fractional, uiq30FractionalResult);
 744              		.loc 1 113 19 is_stmt 0 view .LVU283
 745 0044 0A24     		movs	r4, #10
 113:../Common/IQMath/ti/_IQNexp.c ****         uiq30FractionalResult = __mpyf_l(iq31Fractional, uiq30FractionalResult);
 746              		.loc 1 113 5 view .LVU284
 747 0046 2AE0     		b	.L29
 748              	.LVL104:
 749              	.L34:
  48:../Common/IQMath/ti/_IQNexp.c ****             return 0;
 750              		.loc 1 48 9 is_stmt 1 view .LVU285
  48:../Common/IQMath/ti/_IQNexp.c ****             return 0;
 751              		.loc 1 48 12 is_stmt 0 view .LVU286
 752 0048 8142     		cmp	r1, r0
 753 004a 34DC     		bgt	.L31
  53:../Common/IQMath/ti/_IQNexp.c ****         iq31Fractional <<= (31 - q_value);
ARM GAS  C:\Users\57308\AppData\Local\Temp\ccyuPR38.s 			page 26


 754              		.loc 1 53 9 is_stmt 1 view .LVU287
 755              	.LVL105:
  54:../Common/IQMath/ti/_IQNexp.c ****         iq31Fractional |= 0x80000000;
 756              		.loc 1 54 9 view .LVU288
  54:../Common/IQMath/ti/_IQNexp.c ****         iq31Fractional |= 0x80000000;
 757              		.loc 1 54 24 is_stmt 0 view .LVU289
 758 004c 4FEAC00C 		lsl	ip, r0, #3
 759              	.LVL106:
  55:../Common/IQMath/ti/_IQNexp.c ****     
 760              		.loc 1 55 9 is_stmt 1 view .LVU290
  55:../Common/IQMath/ti/_IQNexp.c ****     
 761              		.loc 1 55 24 is_stmt 0 view .LVU291
 762 0050 4CF0004C 		orr	ip, ip, #-2147483648
 763              	.LVL107:
  58:../Common/IQMath/ti/_IQNexp.c ****     
 764              		.loc 1 58 9 is_stmt 1 view .LVU292
  58:../Common/IQMath/ti/_IQNexp.c ****     
 765              		.loc 1 58 46 is_stmt 0 view .LVU293
 766 0054 0017     		asrs	r0, r0, #28
 767              	.LVL108:
  58:../Common/IQMath/ti/_IQNexp.c ****     
 768              		.loc 1 58 20 view .LVU294
 769 0056 0130     		adds	r0, r0, #1
 770              	.LVL109:
  61:../Common/IQMath/ti/_IQNexp.c ****         uiqNIntegerResult = iqNLookupTable[i16Integer];
 771              		.loc 1 61 9 is_stmt 1 view .LVU295
  61:../Common/IQMath/ti/_IQNexp.c ****         uiqNIntegerResult = iqNLookupTable[i16Integer];
 772              		.loc 1 61 20 is_stmt 0 view .LVU296
 773 0058 1844     		add	r0, r0, r3
 774              	.LVL110:
  62:../Common/IQMath/ti/_IQNexp.c ****         
 775              		.loc 1 62 9 is_stmt 1 view .LVU297
  62:../Common/IQMath/ti/_IQNexp.c ****         
 776              		.loc 1 62 43 is_stmt 0 view .LVU298
 777 005a 1C4B     		ldr	r3, .L35+12
 778              	.LVL111:
  62:../Common/IQMath/ti/_IQNexp.c ****         
 779              		.loc 1 62 27 view .LVU299
 780 005c 53F82050 		ldr	r5, [r3, r0, lsl #2]
 781              	.LVL112:
  65:../Common/IQMath/ti/_IQNexp.c ****             iq31Fractional += iq31_ln2;
 782              		.loc 1 65 9 is_stmt 1 view .LVU300
  65:../Common/IQMath/ti/_IQNexp.c ****             iq31Fractional += iq31_ln2;
 783              		.loc 1 65 12 is_stmt 0 view .LVU301
 784 0060 1D4B     		ldr	r3, .L35+24
 785 0062 9C45     		cmp	ip, r3
 786 0064 EBDA     		bge	.L28
  66:../Common/IQMath/ti/_IQNexp.c ****             uiqNIntegerResult >>= 1;
 787              		.loc 1 66 13 is_stmt 1 view .LVU302
  66:../Common/IQMath/ti/_IQNexp.c ****             uiqNIntegerResult >>= 1;
 788              		.loc 1 66 28 is_stmt 0 view .LVU303
 789 0066 0CF1B14C 		add	ip, ip, #1484783616
 790              	.LVL113:
  66:../Common/IQMath/ti/_IQNexp.c ****             uiqNIntegerResult >>= 1;
 791              		.loc 1 66 28 view .LVU304
 792 006a 0CF5641C 		add	ip, ip, #3735552
 793              	.LVL114:
ARM GAS  C:\Users\57308\AppData\Local\Temp\ccyuPR38.s 			page 27


  66:../Common/IQMath/ti/_IQNexp.c ****             uiqNIntegerResult >>= 1;
 794              		.loc 1 66 28 view .LVU305
 795 006e 0CF6FC3C 		addw	ip, ip, #3068
 796              	.LVL115:
  67:../Common/IQMath/ti/_IQNexp.c ****         }
 797              		.loc 1 67 13 is_stmt 1 view .LVU306
  67:../Common/IQMath/ti/_IQNexp.c ****         }
 798              		.loc 1 67 31 is_stmt 0 view .LVU307
 799 0072 6D08     		lsrs	r5, r5, #1
 800              	.LVL116:
  67:../Common/IQMath/ti/_IQNexp.c ****         }
 801              		.loc 1 67 31 view .LVU308
 802 0074 E3E7     		b	.L28
 803              	.LVL117:
 804              	.L30:
 114:../Common/IQMath/ti/_IQNexp.c ****         uiq30FractionalResult += *piq30Coeffs++;
 805              		.loc 1 114 9 is_stmt 1 view .LVU309
 806              	.LBB54:
 807              	.LBI54:
 233:../Common/IQMath/ti/./support/RTS_support.h **** {
 808              		.loc 2 233 28 view .LVU310
 809              	.LBB55:
 235:../Common/IQMath/ti/./support/RTS_support.h **** }
 810              		.loc 2 235 5 view .LVU311
 235:../Common/IQMath/ti/./support/RTS_support.h **** }
 811              		.loc 2 235 28 is_stmt 0 view .LVU312
 812 0076 4FEAEC72 		asr	r2, ip, #31
 235:../Common/IQMath/ti/./support/RTS_support.h **** }
 813              		.loc 2 235 49 view .LVU313
 814 007a D917     		asrs	r1, r3, #31
 235:../Common/IQMath/ti/./support/RTS_support.h **** }
 815              		.loc 2 235 47 view .LVU314
 816 007c 0CFB01F1 		mul	r1, ip, r1
 817 0080 03FB0212 		mla	r2, r3, r2, r1
 818 0084 ACFB0331 		umull	r3, r1, ip, r3
 819              	.LVL118:
 235:../Common/IQMath/ti/./support/RTS_support.h **** }
 820              		.loc 2 235 47 view .LVU315
 821 0088 0A44     		add	r2, r2, r1
 235:../Common/IQMath/ti/./support/RTS_support.h **** }
 822              		.loc 2 235 69 view .LVU316
 823 008a DB0F     		lsrs	r3, r3, #31
 824 008c 43EA4203 		orr	r3, r3, r2, lsl #1
 825              	.LVL119:
 235:../Common/IQMath/ti/./support/RTS_support.h **** }
 826              		.loc 2 235 69 view .LVU317
 827              	.LBE55:
 828              	.LBE54:
 115:../Common/IQMath/ti/_IQNexp.c ****     }
 829              		.loc 1 115 9 is_stmt 1 view .LVU318
 115:../Common/IQMath/ti/_IQNexp.c ****     }
 830              		.loc 1 115 46 is_stmt 0 view .LVU319
 831 0090 0246     		mov	r2, r0
 832              	.LVL120:
 115:../Common/IQMath/ti/_IQNexp.c ****     }
 833              		.loc 1 115 34 view .LVU320
 834 0092 52F8041B 		ldr	r1, [r2], #4
ARM GAS  C:\Users\57308\AppData\Local\Temp\ccyuPR38.s 			page 28


 835              	.LVL121:
 115:../Common/IQMath/ti/_IQNexp.c ****     }
 836              		.loc 1 115 31 view .LVU321
 837 0096 0B44     		add	r3, r3, r1
 838              	.LVL122:
 113:../Common/IQMath/ti/_IQNexp.c ****         uiq30FractionalResult = __mpyf_l(iq31Fractional, uiq30FractionalResult);
 839              		.loc 1 113 51 is_stmt 1 view .LVU322
 113:../Common/IQMath/ti/_IQNexp.c ****         uiq30FractionalResult = __mpyf_l(iq31Fractional, uiq30FractionalResult);
 840              		.loc 1 113 59 is_stmt 0 view .LVU323
 841 0098 013C     		subs	r4, r4, #1
 842              	.LVL123:
 113:../Common/IQMath/ti/_IQNexp.c ****         uiq30FractionalResult = __mpyf_l(iq31Fractional, uiq30FractionalResult);
 843              		.loc 1 113 59 view .LVU324
 844 009a E4B2     		uxtb	r4, r4
 845              	.LVL124:
 115:../Common/IQMath/ti/_IQNexp.c ****     }
 846              		.loc 1 115 46 view .LVU325
 847 009c 1046     		mov	r0, r2
 848              	.LVL125:
 849              	.L29:
 113:../Common/IQMath/ti/_IQNexp.c ****         uiq30FractionalResult = __mpyf_l(iq31Fractional, uiq30FractionalResult);
 850              		.loc 1 113 37 is_stmt 1 view .LVU326
 113:../Common/IQMath/ti/_IQNexp.c ****         uiq30FractionalResult = __mpyf_l(iq31Fractional, uiq30FractionalResult);
 851              		.loc 1 113 5 is_stmt 0 view .LVU327
 852 009e 002C     		cmp	r4, #0
 853 00a0 E9D1     		bne	.L30
 119:../Common/IQMath/ti/_IQNexp.c ****     
 854              		.loc 1 119 5 is_stmt 1 view .LVU328
 119:../Common/IQMath/ti/_IQNexp.c ****     
 855              		.loc 1 119 27 is_stmt 0 view .LVU329
 856 00a2 5B00     		lsls	r3, r3, #1
 857              	.LVL126:
 125:../Common/IQMath/ti/_IQNexp.c ****     
 858              		.loc 1 125 5 is_stmt 1 view .LVU330
 859              	.LBB56:
 860              	.LBI56:
 254:../Common/IQMath/ti/./support/RTS_support.h **** {
 861              		.loc 2 254 29 view .LVU331
 862              	.LBB57:
 863              		.loc 2 256 5 view .LVU332
 864              		.loc 2 256 49 is_stmt 0 view .LVU333
 865 00a4 A5FB0353 		umull	r5, r3, r5, r3
 866              	.LVL127:
 867              		.loc 2 256 72 view .LVU334
 868 00a8 ED0F     		lsrs	r5, r5, #31
 869 00aa 45EA4305 		orr	r5, r5, r3, lsl #1
 870              	.LVL128:
 871              		.loc 2 256 72 view .LVU335
 872              	.LBE57:
 873              	.LBE56:
 131:../Common/IQMath/ti/_IQNexp.c ****     
 874              		.loc 1 131 5 is_stmt 1 view .LVU336
 131:../Common/IQMath/ti/_IQNexp.c ****     
 875              		.loc 1 131 5 is_stmt 0 view .LVU337
 876              	.LBE58:
 877              	.LBE61:
  72:../Common/IQMath/ti/./support/RTS_support.h **** }
ARM GAS  C:\Users\57308\AppData\Local\Temp\ccyuPR38.s 			page 29


 878              		.loc 2 72 5 is_stmt 1 view .LVU338
 879              	.LBB62:
 880              	.LBB59:
 134:../Common/IQMath/ti/_IQNexp.c ****     uiqNResult >>= 1;
 881              		.loc 1 134 5 view .LVU339
 134:../Common/IQMath/ti/_IQNexp.c ****     uiqNResult >>= 1;
 882              		.loc 1 134 15 is_stmt 0 view .LVU340
 883 00ae 0135     		adds	r5, r5, #1
 884              	.LVL129:
 135:../Common/IQMath/ti/_IQNexp.c ****     
 885              		.loc 1 135 5 is_stmt 1 view .LVU341
 135:../Common/IQMath/ti/_IQNexp.c ****     
 886              		.loc 1 135 16 is_stmt 0 view .LVU342
 887 00b0 6808     		lsrs	r0, r5, #1
 888              	.LVL130:
 137:../Common/IQMath/ti/_IQNexp.c **** }
 889              		.loc 1 137 5 is_stmt 1 view .LVU343
 890              	.L25:
 137:../Common/IQMath/ti/_IQNexp.c **** }
 891              		.loc 1 137 5 is_stmt 0 view .LVU344
 892              	.LBE59:
 893              	.LBE62:
 172:../Common/IQMath/ti/_IQNexp.c **** }
 894              		.loc 1 172 1 view .LVU345
 895 00b2 30BC     		pop	{r4, r5}
 896              	.LCFI7:
 897              		.cfi_remember_state
 898              		.cfi_restore 5
 899              		.cfi_restore 4
 900              		.cfi_def_cfa_offset 0
 901 00b4 7047     		bx	lr
 902              	.LVL131:
 903              	.L31:
 904              	.LCFI8:
 905              		.cfi_restore_state
 906              	.LBB63:
 907              	.LBB60:
  49:../Common/IQMath/ti/_IQNexp.c ****         }
 908              		.loc 1 49 20 view .LVU346
 909 00b6 0020     		movs	r0, #0
 910              	.LVL132:
  49:../Common/IQMath/ti/_IQNexp.c ****         }
 911              		.loc 1 49 20 view .LVU347
 912 00b8 FBE7     		b	.L25
 913              	.LVL133:
 914              	.L32:
  74:../Common/IQMath/ti/_IQNexp.c ****         }
 915              		.loc 1 74 20 view .LVU348
 916 00ba 6FF00040 		mvn	r0, #-2147483648
 917              	.LVL134:
  74:../Common/IQMath/ti/_IQNexp.c ****         }
 918              		.loc 1 74 20 view .LVU349
 919              	.LBE60:
 920              	.LBE63:
 171:../Common/IQMath/ti/_IQNexp.c **** }
 921              		.loc 1 171 12 view .LVU350
 922 00be F8E7     		b	.L25
ARM GAS  C:\Users\57308\AppData\Local\Temp\ccyuPR38.s 			page 30


 923              	.L36:
 924              		.align	2
 925              	.L35:
 926 00c0 00000000 		.word	_IQNexp_offset
 927 00c4 00000000 		.word	_IQNexp_min
 928 00c8 00000000 		.word	_IQNexp_max
 929 00cc 00000000 		.word	_IQNexp_lookup28
 930 00d0 FB0BB958 		.word	1488522235
 931 00d4 00000000 		.word	_IQ30exp_coeffs
 932 00d8 05F446A7 		.word	-1488522235
 933              		.cfi_endproc
 934              	.LFE264:
 936              		.section	.text._IQ27exp,"ax",%progbits
 937              		.align	1
 938              		.global	_IQ27exp
 939              		.syntax unified
 940              		.thumb
 941              		.thumb_func
 943              	_IQ27exp:
 944              	.LVL135:
 945              	.LFB265:
 173:../Common/IQMath/ti/_IQNexp.c **** /**
 174:../Common/IQMath/ti/_IQNexp.c ****  * @brief Computes the exponential of an IQ27 input.
 175:../Common/IQMath/ti/_IQNexp.c ****  *
 176:../Common/IQMath/ti/_IQNexp.c ****  * @param a               IQ27 type input.
 177:../Common/IQMath/ti/_IQNexp.c ****  *
 178:../Common/IQMath/ti/_IQNexp.c ****  * @return                IQ27 type result of exponential.
 179:../Common/IQMath/ti/_IQNexp.c ****  */
 180:../Common/IQMath/ti/_IQNexp.c **** int32_t _IQ27exp(int32_t a)
 181:../Common/IQMath/ti/_IQNexp.c **** {
 946              		.loc 1 181 1 is_stmt 1 view -0
 947              		.cfi_startproc
 948              		@ args = 0, pretend = 0, frame = 0
 949              		@ frame_needed = 0, uses_anonymous_args = 0
 950              		@ link register save eliminated.
 951              		.loc 1 181 1 is_stmt 0 view .LVU352
 952 0000 30B4     		push	{r4, r5}
 953              	.LCFI9:
 954              		.cfi_def_cfa_offset 8
 955              		.cfi_offset 4, -8
 956              		.cfi_offset 5, -4
 182:../Common/IQMath/ti/_IQNexp.c ****     return __IQNexp(a, _IQNexp_lookup27, _IQNexp_offset[27-1], _IQNexp_min[27-1], _IQNexp_max[27-1]
 957              		.loc 1 182 5 is_stmt 1 view .LVU353
 958              		.loc 1 182 12 is_stmt 0 view .LVU354
 959 0002 2F4B     		ldr	r3, .L47
 960 0004 93F86830 		ldrb	r3, [r3, #104]	@ zero_extendqisi2
 961              		.loc 1 182 75 view .LVU355
 962 0008 2E4A     		ldr	r2, .L47+4
 963 000a 916E     		ldr	r1, [r2, #104]
 964              		.loc 1 182 94 view .LVU356
 965 000c 2E4A     		ldr	r2, .L47+8
 966 000e 926E     		ldr	r2, [r2, #104]
 967              	.LVL136:
 968              	.LBB70:
 969              	.LBI70:
  32:../Common/IQMath/ti/_IQNexp.c **** {
 970              		.loc 1 32 30 is_stmt 1 view .LVU357
ARM GAS  C:\Users\57308\AppData\Local\Temp\ccyuPR38.s 			page 31


 971              	.LBB71:
  34:../Common/IQMath/ti/_IQNexp.c ****     int_fast16_t i16Integer;
 972              		.loc 1 34 5 view .LVU358
  35:../Common/IQMath/ti/_IQNexp.c ****     uint_fast16_t ui16IntState;
 973              		.loc 1 35 5 view .LVU359
  36:../Common/IQMath/ti/_IQNexp.c ****     uint_fast16_t ui16MPYState;
 974              		.loc 1 36 5 view .LVU360
  37:../Common/IQMath/ti/_IQNexp.c ****     int_fast32_t iq31Fractional;
 975              		.loc 1 37 5 view .LVU361
  38:../Common/IQMath/ti/_IQNexp.c ****     uint_fast32_t uiqNResult;
 976              		.loc 1 38 5 view .LVU362
  39:../Common/IQMath/ti/_IQNexp.c ****     uint_fast32_t uiqNIntegerResult;
 977              		.loc 1 39 5 view .LVU363
  40:../Common/IQMath/ti/_IQNexp.c ****     uint_fast32_t uiq30FractionalResult;
 978              		.loc 1 40 5 view .LVU364
  41:../Common/IQMath/ti/_IQNexp.c ****     uint_fast32_t uiq31FractionalResult;
 979              		.loc 1 41 5 view .LVU365
  42:../Common/IQMath/ti/_IQNexp.c ****     const uint_fast32_t *piq30Coeffs;
 980              		.loc 1 42 5 view .LVU366
  43:../Common/IQMath/ti/_IQNexp.c ****     
 981              		.loc 1 43 5 view .LVU367
  46:../Common/IQMath/ti/_IQNexp.c ****         /* Check for the minimum value. */
 982              		.loc 1 46 5 view .LVU368
  46:../Common/IQMath/ti/_IQNexp.c ****         /* Check for the minimum value. */
 983              		.loc 1 46 8 is_stmt 0 view .LVU369
 984 0010 0028     		cmp	r0, #0
  46:../Common/IQMath/ti/_IQNexp.c ****         /* Check for the minimum value. */
 985              		.loc 1 46 8 view .LVU370
 986 0012 19DB     		blt	.L46
  73:../Common/IQMath/ti/_IQNexp.c ****             return INT32_MAX;
 987              		.loc 1 73 9 is_stmt 1 view .LVU371
  73:../Common/IQMath/ti/_IQNexp.c ****             return INT32_MAX;
 988              		.loc 1 73 12 is_stmt 0 view .LVU372
 989 0014 8242     		cmp	r2, r0
 990 0016 50DB     		blt	.L44
  78:../Common/IQMath/ti/_IQNexp.c ****         iq31Fractional <<= (31 - q_value);
 991              		.loc 1 78 9 is_stmt 1 view .LVU373
 992              	.LVL137:
  79:../Common/IQMath/ti/_IQNexp.c ****         iq31Fractional &= 0x7fffffff;
 993              		.loc 1 79 9 view .LVU374
  79:../Common/IQMath/ti/_IQNexp.c ****         iq31Fractional &= 0x7fffffff;
 994              		.loc 1 79 24 is_stmt 0 view .LVU375
 995 0018 4FEA001C 		lsl	ip, r0, #4
 996              	.LVL138:
  80:../Common/IQMath/ti/_IQNexp.c ****     
 997              		.loc 1 80 9 is_stmt 1 view .LVU376
  80:../Common/IQMath/ti/_IQNexp.c ****     
 998              		.loc 1 80 24 is_stmt 0 view .LVU377
 999 001c 2CF0004C 		bic	ip, ip, #-2147483648
 1000              	.LVL139:
  83:../Common/IQMath/ti/_IQNexp.c ****     
 1001              		.loc 1 83 9 is_stmt 1 view .LVU378
  86:../Common/IQMath/ti/_IQNexp.c ****         uiqNIntegerResult = iqNLookupTable[i16Integer];
 1002              		.loc 1 86 9 view .LVU379
  86:../Common/IQMath/ti/_IQNexp.c ****         uiqNIntegerResult = iqNLookupTable[i16Integer];
 1003              		.loc 1 86 20 is_stmt 0 view .LVU380
 1004 0020 03EBE060 		add	r0, r3, r0, asr #27
ARM GAS  C:\Users\57308\AppData\Local\Temp\ccyuPR38.s 			page 32


 1005              	.LVL140:
  87:../Common/IQMath/ti/_IQNexp.c ****         
 1006              		.loc 1 87 9 is_stmt 1 view .LVU381
  87:../Common/IQMath/ti/_IQNexp.c ****         
 1007              		.loc 1 87 43 is_stmt 0 view .LVU382
 1008 0024 294B     		ldr	r3, .L47+12
 1009              	.LVL141:
  87:../Common/IQMath/ti/_IQNexp.c ****         
 1010              		.loc 1 87 27 view .LVU383
 1011 0026 53F82050 		ldr	r5, [r3, r0, lsl #2]
 1012              	.LVL142:
  90:../Common/IQMath/ti/_IQNexp.c ****             iq31Fractional -= iq31_ln2;
 1013              		.loc 1 90 9 is_stmt 1 view .LVU384
  90:../Common/IQMath/ti/_IQNexp.c ****             iq31Fractional -= iq31_ln2;
 1014              		.loc 1 90 12 is_stmt 0 view .LVU385
 1015 002a 294B     		ldr	r3, .L47+16
 1016 002c 9C45     		cmp	ip, r3
 1017 002e 06DD     		ble	.L40
  91:../Common/IQMath/ti/_IQNexp.c ****             uiqNIntegerResult <<= 1;
 1018              		.loc 1 91 13 is_stmt 1 view .LVU386
  91:../Common/IQMath/ti/_IQNexp.c ****             uiqNIntegerResult <<= 1;
 1019              		.loc 1 91 28 is_stmt 0 view .LVU387
 1020 0030 ACF1B14C 		sub	ip, ip, #1484783616
 1021              	.LVL143:
  91:../Common/IQMath/ti/_IQNexp.c ****             uiqNIntegerResult <<= 1;
 1022              		.loc 1 91 28 view .LVU388
 1023 0034 ACF5641C 		sub	ip, ip, #3735552
 1024              	.LVL144:
  91:../Common/IQMath/ti/_IQNexp.c ****             uiqNIntegerResult <<= 1;
 1025              		.loc 1 91 28 view .LVU389
 1026 0038 ACF6FC3C 		subw	ip, ip, #3068
 1027              	.LVL145:
  92:../Common/IQMath/ti/_IQNexp.c ****         }
 1028              		.loc 1 92 13 is_stmt 1 view .LVU390
  92:../Common/IQMath/ti/_IQNexp.c ****         }
 1029              		.loc 1 92 31 is_stmt 0 view .LVU391
 1030 003c 6D00     		lsls	r5, r5, #1
 1031              	.LVL146:
 1032              	.L40:
 102:../Common/IQMath/ti/_IQNexp.c ****     
 1033              		.loc 1 102 5 is_stmt 1 view .LVU392
 102:../Common/IQMath/ti/_IQNexp.c ****     
 1034              		.loc 1 102 5 is_stmt 0 view .LVU393
 1035              	.LBE71:
 1036              	.LBE70:
  28:../Common/IQMath/ti/./support/RTS_support.h **** }
 1037              		.loc 2 28 5 is_stmt 1 view .LVU394
 1038              	.LBB79:
 1039              	.LBB76:
 109:../Common/IQMath/ti/_IQNexp.c ****     uiq30FractionalResult = *piq30Coeffs++;
 1040              		.loc 1 109 5 view .LVU395
 110:../Common/IQMath/ti/_IQNexp.c ****     
 1041              		.loc 1 110 5 view .LVU396
 110:../Common/IQMath/ti/_IQNexp.c ****     
 1042              		.loc 1 110 27 is_stmt 0 view .LVU397
 1043 003e 2548     		ldr	r0, .L47+20
 1044              	.LVL147:
ARM GAS  C:\Users\57308\AppData\Local\Temp\ccyuPR38.s 			page 33


 110:../Common/IQMath/ti/_IQNexp.c ****     
 1045              		.loc 1 110 27 view .LVU398
 1046 0040 50F8043B 		ldr	r3, [r0], #4
 1047              	.LVL148:
 113:../Common/IQMath/ti/_IQNexp.c ****         uiq30FractionalResult = __mpyf_l(iq31Fractional, uiq30FractionalResult);
 1048              		.loc 1 113 5 is_stmt 1 view .LVU399
 113:../Common/IQMath/ti/_IQNexp.c ****         uiq30FractionalResult = __mpyf_l(iq31Fractional, uiq30FractionalResult);
 1049              		.loc 1 113 19 is_stmt 0 view .LVU400
 1050 0044 0A24     		movs	r4, #10
 113:../Common/IQMath/ti/_IQNexp.c ****         uiq30FractionalResult = __mpyf_l(iq31Fractional, uiq30FractionalResult);
 1051              		.loc 1 113 5 view .LVU401
 1052 0046 2AE0     		b	.L41
 1053              	.LVL149:
 1054              	.L46:
  48:../Common/IQMath/ti/_IQNexp.c ****             return 0;
 1055              		.loc 1 48 9 is_stmt 1 view .LVU402
  48:../Common/IQMath/ti/_IQNexp.c ****             return 0;
 1056              		.loc 1 48 12 is_stmt 0 view .LVU403
 1057 0048 8142     		cmp	r1, r0
 1058 004a 34DC     		bgt	.L43
  53:../Common/IQMath/ti/_IQNexp.c ****         iq31Fractional <<= (31 - q_value);
 1059              		.loc 1 53 9 is_stmt 1 view .LVU404
 1060              	.LVL150:
  54:../Common/IQMath/ti/_IQNexp.c ****         iq31Fractional |= 0x80000000;
 1061              		.loc 1 54 9 view .LVU405
  54:../Common/IQMath/ti/_IQNexp.c ****         iq31Fractional |= 0x80000000;
 1062              		.loc 1 54 24 is_stmt 0 view .LVU406
 1063 004c 4FEA001C 		lsl	ip, r0, #4
 1064              	.LVL151:
  55:../Common/IQMath/ti/_IQNexp.c ****     
 1065              		.loc 1 55 9 is_stmt 1 view .LVU407
  55:../Common/IQMath/ti/_IQNexp.c ****     
 1066              		.loc 1 55 24 is_stmt 0 view .LVU408
 1067 0050 4CF0004C 		orr	ip, ip, #-2147483648
 1068              	.LVL152:
  58:../Common/IQMath/ti/_IQNexp.c ****     
 1069              		.loc 1 58 9 is_stmt 1 view .LVU409
  58:../Common/IQMath/ti/_IQNexp.c ****     
 1070              		.loc 1 58 46 is_stmt 0 view .LVU410
 1071 0054 C016     		asrs	r0, r0, #27
 1072              	.LVL153:
  58:../Common/IQMath/ti/_IQNexp.c ****     
 1073              		.loc 1 58 20 view .LVU411
 1074 0056 0130     		adds	r0, r0, #1
 1075              	.LVL154:
  61:../Common/IQMath/ti/_IQNexp.c ****         uiqNIntegerResult = iqNLookupTable[i16Integer];
 1076              		.loc 1 61 9 is_stmt 1 view .LVU412
  61:../Common/IQMath/ti/_IQNexp.c ****         uiqNIntegerResult = iqNLookupTable[i16Integer];
 1077              		.loc 1 61 20 is_stmt 0 view .LVU413
 1078 0058 1844     		add	r0, r0, r3
 1079              	.LVL155:
  62:../Common/IQMath/ti/_IQNexp.c ****         
 1080              		.loc 1 62 9 is_stmt 1 view .LVU414
  62:../Common/IQMath/ti/_IQNexp.c ****         
 1081              		.loc 1 62 43 is_stmt 0 view .LVU415
 1082 005a 1C4B     		ldr	r3, .L47+12
 1083              	.LVL156:
ARM GAS  C:\Users\57308\AppData\Local\Temp\ccyuPR38.s 			page 34


  62:../Common/IQMath/ti/_IQNexp.c ****         
 1084              		.loc 1 62 27 view .LVU416
 1085 005c 53F82050 		ldr	r5, [r3, r0, lsl #2]
 1086              	.LVL157:
  65:../Common/IQMath/ti/_IQNexp.c ****             iq31Fractional += iq31_ln2;
 1087              		.loc 1 65 9 is_stmt 1 view .LVU417
  65:../Common/IQMath/ti/_IQNexp.c ****             iq31Fractional += iq31_ln2;
 1088              		.loc 1 65 12 is_stmt 0 view .LVU418
 1089 0060 1D4B     		ldr	r3, .L47+24
 1090 0062 9C45     		cmp	ip, r3
 1091 0064 EBDA     		bge	.L40
  66:../Common/IQMath/ti/_IQNexp.c ****             uiqNIntegerResult >>= 1;
 1092              		.loc 1 66 13 is_stmt 1 view .LVU419
  66:../Common/IQMath/ti/_IQNexp.c ****             uiqNIntegerResult >>= 1;
 1093              		.loc 1 66 28 is_stmt 0 view .LVU420
 1094 0066 0CF1B14C 		add	ip, ip, #1484783616
 1095              	.LVL158:
  66:../Common/IQMath/ti/_IQNexp.c ****             uiqNIntegerResult >>= 1;
 1096              		.loc 1 66 28 view .LVU421
 1097 006a 0CF5641C 		add	ip, ip, #3735552
 1098              	.LVL159:
  66:../Common/IQMath/ti/_IQNexp.c ****             uiqNIntegerResult >>= 1;
 1099              		.loc 1 66 28 view .LVU422
 1100 006e 0CF6FC3C 		addw	ip, ip, #3068
 1101              	.LVL160:
  67:../Common/IQMath/ti/_IQNexp.c ****         }
 1102              		.loc 1 67 13 is_stmt 1 view .LVU423
  67:../Common/IQMath/ti/_IQNexp.c ****         }
 1103              		.loc 1 67 31 is_stmt 0 view .LVU424
 1104 0072 6D08     		lsrs	r5, r5, #1
 1105              	.LVL161:
  67:../Common/IQMath/ti/_IQNexp.c ****         }
 1106              		.loc 1 67 31 view .LVU425
 1107 0074 E3E7     		b	.L40
 1108              	.LVL162:
 1109              	.L42:
 114:../Common/IQMath/ti/_IQNexp.c ****         uiq30FractionalResult += *piq30Coeffs++;
 1110              		.loc 1 114 9 is_stmt 1 view .LVU426
 1111              	.LBB72:
 1112              	.LBI72:
 233:../Common/IQMath/ti/./support/RTS_support.h **** {
 1113              		.loc 2 233 28 view .LVU427
 1114              	.LBB73:
 235:../Common/IQMath/ti/./support/RTS_support.h **** }
 1115              		.loc 2 235 5 view .LVU428
 235:../Common/IQMath/ti/./support/RTS_support.h **** }
 1116              		.loc 2 235 28 is_stmt 0 view .LVU429
 1117 0076 4FEAEC72 		asr	r2, ip, #31
 235:../Common/IQMath/ti/./support/RTS_support.h **** }
 1118              		.loc 2 235 49 view .LVU430
 1119 007a D917     		asrs	r1, r3, #31
 235:../Common/IQMath/ti/./support/RTS_support.h **** }
 1120              		.loc 2 235 47 view .LVU431
 1121 007c 0CFB01F1 		mul	r1, ip, r1
 1122 0080 03FB0212 		mla	r2, r3, r2, r1
 1123 0084 ACFB0331 		umull	r3, r1, ip, r3
 1124              	.LVL163:
ARM GAS  C:\Users\57308\AppData\Local\Temp\ccyuPR38.s 			page 35


 235:../Common/IQMath/ti/./support/RTS_support.h **** }
 1125              		.loc 2 235 47 view .LVU432
 1126 0088 0A44     		add	r2, r2, r1
 235:../Common/IQMath/ti/./support/RTS_support.h **** }
 1127              		.loc 2 235 69 view .LVU433
 1128 008a DB0F     		lsrs	r3, r3, #31
 1129 008c 43EA4203 		orr	r3, r3, r2, lsl #1
 1130              	.LVL164:
 235:../Common/IQMath/ti/./support/RTS_support.h **** }
 1131              		.loc 2 235 69 view .LVU434
 1132              	.LBE73:
 1133              	.LBE72:
 115:../Common/IQMath/ti/_IQNexp.c ****     }
 1134              		.loc 1 115 9 is_stmt 1 view .LVU435
 115:../Common/IQMath/ti/_IQNexp.c ****     }
 1135              		.loc 1 115 46 is_stmt 0 view .LVU436
 1136 0090 0246     		mov	r2, r0
 1137              	.LVL165:
 115:../Common/IQMath/ti/_IQNexp.c ****     }
 1138              		.loc 1 115 34 view .LVU437
 1139 0092 52F8041B 		ldr	r1, [r2], #4
 1140              	.LVL166:
 115:../Common/IQMath/ti/_IQNexp.c ****     }
 1141              		.loc 1 115 31 view .LVU438
 1142 0096 0B44     		add	r3, r3, r1
 1143              	.LVL167:
 113:../Common/IQMath/ti/_IQNexp.c ****         uiq30FractionalResult = __mpyf_l(iq31Fractional, uiq30FractionalResult);
 1144              		.loc 1 113 51 is_stmt 1 view .LVU439
 113:../Common/IQMath/ti/_IQNexp.c ****         uiq30FractionalResult = __mpyf_l(iq31Fractional, uiq30FractionalResult);
 1145              		.loc 1 113 59 is_stmt 0 view .LVU440
 1146 0098 013C     		subs	r4, r4, #1
 1147              	.LVL168:
 113:../Common/IQMath/ti/_IQNexp.c ****         uiq30FractionalResult = __mpyf_l(iq31Fractional, uiq30FractionalResult);
 1148              		.loc 1 113 59 view .LVU441
 1149 009a E4B2     		uxtb	r4, r4
 1150              	.LVL169:
 115:../Common/IQMath/ti/_IQNexp.c ****     }
 1151              		.loc 1 115 46 view .LVU442
 1152 009c 1046     		mov	r0, r2
 1153              	.LVL170:
 1154              	.L41:
 113:../Common/IQMath/ti/_IQNexp.c ****         uiq30FractionalResult = __mpyf_l(iq31Fractional, uiq30FractionalResult);
 1155              		.loc 1 113 37 is_stmt 1 view .LVU443
 113:../Common/IQMath/ti/_IQNexp.c ****         uiq30FractionalResult = __mpyf_l(iq31Fractional, uiq30FractionalResult);
 1156              		.loc 1 113 5 is_stmt 0 view .LVU444
 1157 009e 002C     		cmp	r4, #0
 1158 00a0 E9D1     		bne	.L42
 119:../Common/IQMath/ti/_IQNexp.c ****     
 1159              		.loc 1 119 5 is_stmt 1 view .LVU445
 119:../Common/IQMath/ti/_IQNexp.c ****     
 1160              		.loc 1 119 27 is_stmt 0 view .LVU446
 1161 00a2 5B00     		lsls	r3, r3, #1
 1162              	.LVL171:
 125:../Common/IQMath/ti/_IQNexp.c ****     
 1163              		.loc 1 125 5 is_stmt 1 view .LVU447
 1164              	.LBB74:
 1165              	.LBI74:
ARM GAS  C:\Users\57308\AppData\Local\Temp\ccyuPR38.s 			page 36


 254:../Common/IQMath/ti/./support/RTS_support.h **** {
 1166              		.loc 2 254 29 view .LVU448
 1167              	.LBB75:
 1168              		.loc 2 256 5 view .LVU449
 1169              		.loc 2 256 49 is_stmt 0 view .LVU450
 1170 00a4 A5FB0353 		umull	r5, r3, r5, r3
 1171              	.LVL172:
 1172              		.loc 2 256 72 view .LVU451
 1173 00a8 ED0F     		lsrs	r5, r5, #31
 1174 00aa 45EA4305 		orr	r5, r5, r3, lsl #1
 1175              	.LVL173:
 1176              		.loc 2 256 72 view .LVU452
 1177              	.LBE75:
 1178              	.LBE74:
 131:../Common/IQMath/ti/_IQNexp.c ****     
 1179              		.loc 1 131 5 is_stmt 1 view .LVU453
 131:../Common/IQMath/ti/_IQNexp.c ****     
 1180              		.loc 1 131 5 is_stmt 0 view .LVU454
 1181              	.LBE76:
 1182              	.LBE79:
  72:../Common/IQMath/ti/./support/RTS_support.h **** }
 1183              		.loc 2 72 5 is_stmt 1 view .LVU455
 1184              	.LBB80:
 1185              	.LBB77:
 134:../Common/IQMath/ti/_IQNexp.c ****     uiqNResult >>= 1;
 1186              		.loc 1 134 5 view .LVU456
 134:../Common/IQMath/ti/_IQNexp.c ****     uiqNResult >>= 1;
 1187              		.loc 1 134 15 is_stmt 0 view .LVU457
 1188 00ae 0135     		adds	r5, r5, #1
 1189              	.LVL174:
 135:../Common/IQMath/ti/_IQNexp.c ****     
 1190              		.loc 1 135 5 is_stmt 1 view .LVU458
 135:../Common/IQMath/ti/_IQNexp.c ****     
 1191              		.loc 1 135 16 is_stmt 0 view .LVU459
 1192 00b0 6808     		lsrs	r0, r5, #1
 1193              	.LVL175:
 137:../Common/IQMath/ti/_IQNexp.c **** }
 1194              		.loc 1 137 5 is_stmt 1 view .LVU460
 1195              	.L37:
 137:../Common/IQMath/ti/_IQNexp.c **** }
 1196              		.loc 1 137 5 is_stmt 0 view .LVU461
 1197              	.LBE77:
 1198              	.LBE80:
 183:../Common/IQMath/ti/_IQNexp.c **** }
 1199              		.loc 1 183 1 view .LVU462
 1200 00b2 30BC     		pop	{r4, r5}
 1201              	.LCFI10:
 1202              		.cfi_remember_state
 1203              		.cfi_restore 5
 1204              		.cfi_restore 4
 1205              		.cfi_def_cfa_offset 0
 1206 00b4 7047     		bx	lr
 1207              	.LVL176:
 1208              	.L43:
 1209              	.LCFI11:
 1210              		.cfi_restore_state
 1211              	.LBB81:
ARM GAS  C:\Users\57308\AppData\Local\Temp\ccyuPR38.s 			page 37


 1212              	.LBB78:
  49:../Common/IQMath/ti/_IQNexp.c ****         }
 1213              		.loc 1 49 20 view .LVU463
 1214 00b6 0020     		movs	r0, #0
 1215              	.LVL177:
  49:../Common/IQMath/ti/_IQNexp.c ****         }
 1216              		.loc 1 49 20 view .LVU464
 1217 00b8 FBE7     		b	.L37
 1218              	.LVL178:
 1219              	.L44:
  74:../Common/IQMath/ti/_IQNexp.c ****         }
 1220              		.loc 1 74 20 view .LVU465
 1221 00ba 6FF00040 		mvn	r0, #-2147483648
 1222              	.LVL179:
  74:../Common/IQMath/ti/_IQNexp.c ****         }
 1223              		.loc 1 74 20 view .LVU466
 1224              	.LBE78:
 1225              	.LBE81:
 182:../Common/IQMath/ti/_IQNexp.c **** }
 1226              		.loc 1 182 12 view .LVU467
 1227 00be F8E7     		b	.L37
 1228              	.L48:
 1229              		.align	2
 1230              	.L47:
 1231 00c0 00000000 		.word	_IQNexp_offset
 1232 00c4 00000000 		.word	_IQNexp_min
 1233 00c8 00000000 		.word	_IQNexp_max
 1234 00cc 00000000 		.word	_IQNexp_lookup27
 1235 00d0 FB0BB958 		.word	1488522235
 1236 00d4 00000000 		.word	_IQ30exp_coeffs
 1237 00d8 05F446A7 		.word	-1488522235
 1238              		.cfi_endproc
 1239              	.LFE265:
 1241              		.section	.text._IQ26exp,"ax",%progbits
 1242              		.align	1
 1243              		.global	_IQ26exp
 1244              		.syntax unified
 1245              		.thumb
 1246              		.thumb_func
 1248              	_IQ26exp:
 1249              	.LVL180:
 1250              	.LFB266:
 184:../Common/IQMath/ti/_IQNexp.c **** /**
 185:../Common/IQMath/ti/_IQNexp.c ****  * @brief Computes the exponential of an IQ26 input.
 186:../Common/IQMath/ti/_IQNexp.c ****  *
 187:../Common/IQMath/ti/_IQNexp.c ****  * @param a               IQ26 type input.
 188:../Common/IQMath/ti/_IQNexp.c ****  *
 189:../Common/IQMath/ti/_IQNexp.c ****  * @return                IQ26 type result of exponential.
 190:../Common/IQMath/ti/_IQNexp.c ****  */
 191:../Common/IQMath/ti/_IQNexp.c **** int32_t _IQ26exp(int32_t a)
 192:../Common/IQMath/ti/_IQNexp.c **** {
 1251              		.loc 1 192 1 is_stmt 1 view -0
 1252              		.cfi_startproc
 1253              		@ args = 0, pretend = 0, frame = 0
 1254              		@ frame_needed = 0, uses_anonymous_args = 0
 1255              		@ link register save eliminated.
 1256              		.loc 1 192 1 is_stmt 0 view .LVU469
ARM GAS  C:\Users\57308\AppData\Local\Temp\ccyuPR38.s 			page 38


 1257 0000 30B4     		push	{r4, r5}
 1258              	.LCFI12:
 1259              		.cfi_def_cfa_offset 8
 1260              		.cfi_offset 4, -8
 1261              		.cfi_offset 5, -4
 193:../Common/IQMath/ti/_IQNexp.c ****     return __IQNexp(a, _IQNexp_lookup26, _IQNexp_offset[26-1], _IQNexp_min[26-1], _IQNexp_max[26-1]
 1262              		.loc 1 193 5 is_stmt 1 view .LVU470
 1263              		.loc 1 193 12 is_stmt 0 view .LVU471
 1264 0002 2F4B     		ldr	r3, .L59
 1265 0004 93F86430 		ldrb	r3, [r3, #100]	@ zero_extendqisi2
 1266              		.loc 1 193 75 view .LVU472
 1267 0008 2E4A     		ldr	r2, .L59+4
 1268 000a 516E     		ldr	r1, [r2, #100]
 1269              		.loc 1 193 94 view .LVU473
 1270 000c 2E4A     		ldr	r2, .L59+8
 1271 000e 526E     		ldr	r2, [r2, #100]
 1272              	.LVL181:
 1273              	.LBB88:
 1274              	.LBI88:
  32:../Common/IQMath/ti/_IQNexp.c **** {
 1275              		.loc 1 32 30 is_stmt 1 view .LVU474
 1276              	.LBB89:
  34:../Common/IQMath/ti/_IQNexp.c ****     int_fast16_t i16Integer;
 1277              		.loc 1 34 5 view .LVU475
  35:../Common/IQMath/ti/_IQNexp.c ****     uint_fast16_t ui16IntState;
 1278              		.loc 1 35 5 view .LVU476
  36:../Common/IQMath/ti/_IQNexp.c ****     uint_fast16_t ui16MPYState;
 1279              		.loc 1 36 5 view .LVU477
  37:../Common/IQMath/ti/_IQNexp.c ****     int_fast32_t iq31Fractional;
 1280              		.loc 1 37 5 view .LVU478
  38:../Common/IQMath/ti/_IQNexp.c ****     uint_fast32_t uiqNResult;
 1281              		.loc 1 38 5 view .LVU479
  39:../Common/IQMath/ti/_IQNexp.c ****     uint_fast32_t uiqNIntegerResult;
 1282              		.loc 1 39 5 view .LVU480
  40:../Common/IQMath/ti/_IQNexp.c ****     uint_fast32_t uiq30FractionalResult;
 1283              		.loc 1 40 5 view .LVU481
  41:../Common/IQMath/ti/_IQNexp.c ****     uint_fast32_t uiq31FractionalResult;
 1284              		.loc 1 41 5 view .LVU482
  42:../Common/IQMath/ti/_IQNexp.c ****     const uint_fast32_t *piq30Coeffs;
 1285              		.loc 1 42 5 view .LVU483
  43:../Common/IQMath/ti/_IQNexp.c ****     
 1286              		.loc 1 43 5 view .LVU484
  46:../Common/IQMath/ti/_IQNexp.c ****         /* Check for the minimum value. */
 1287              		.loc 1 46 5 view .LVU485
  46:../Common/IQMath/ti/_IQNexp.c ****         /* Check for the minimum value. */
 1288              		.loc 1 46 8 is_stmt 0 view .LVU486
 1289 0010 0028     		cmp	r0, #0
  46:../Common/IQMath/ti/_IQNexp.c ****         /* Check for the minimum value. */
 1290              		.loc 1 46 8 view .LVU487
 1291 0012 19DB     		blt	.L58
  73:../Common/IQMath/ti/_IQNexp.c ****             return INT32_MAX;
 1292              		.loc 1 73 9 is_stmt 1 view .LVU488
  73:../Common/IQMath/ti/_IQNexp.c ****             return INT32_MAX;
 1293              		.loc 1 73 12 is_stmt 0 view .LVU489
 1294 0014 8242     		cmp	r2, r0
 1295 0016 50DB     		blt	.L56
  78:../Common/IQMath/ti/_IQNexp.c ****         iq31Fractional <<= (31 - q_value);
ARM GAS  C:\Users\57308\AppData\Local\Temp\ccyuPR38.s 			page 39


 1296              		.loc 1 78 9 is_stmt 1 view .LVU490
 1297              	.LVL182:
  79:../Common/IQMath/ti/_IQNexp.c ****         iq31Fractional &= 0x7fffffff;
 1298              		.loc 1 79 9 view .LVU491
  79:../Common/IQMath/ti/_IQNexp.c ****         iq31Fractional &= 0x7fffffff;
 1299              		.loc 1 79 24 is_stmt 0 view .LVU492
 1300 0018 4FEA401C 		lsl	ip, r0, #5
 1301              	.LVL183:
  80:../Common/IQMath/ti/_IQNexp.c ****     
 1302              		.loc 1 80 9 is_stmt 1 view .LVU493
  80:../Common/IQMath/ti/_IQNexp.c ****     
 1303              		.loc 1 80 24 is_stmt 0 view .LVU494
 1304 001c 2CF0004C 		bic	ip, ip, #-2147483648
 1305              	.LVL184:
  83:../Common/IQMath/ti/_IQNexp.c ****     
 1306              		.loc 1 83 9 is_stmt 1 view .LVU495
  86:../Common/IQMath/ti/_IQNexp.c ****         uiqNIntegerResult = iqNLookupTable[i16Integer];
 1307              		.loc 1 86 9 view .LVU496
  86:../Common/IQMath/ti/_IQNexp.c ****         uiqNIntegerResult = iqNLookupTable[i16Integer];
 1308              		.loc 1 86 20 is_stmt 0 view .LVU497
 1309 0020 03EBA060 		add	r0, r3, r0, asr #26
 1310              	.LVL185:
  87:../Common/IQMath/ti/_IQNexp.c ****         
 1311              		.loc 1 87 9 is_stmt 1 view .LVU498
  87:../Common/IQMath/ti/_IQNexp.c ****         
 1312              		.loc 1 87 43 is_stmt 0 view .LVU499
 1313 0024 294B     		ldr	r3, .L59+12
 1314              	.LVL186:
  87:../Common/IQMath/ti/_IQNexp.c ****         
 1315              		.loc 1 87 27 view .LVU500
 1316 0026 53F82050 		ldr	r5, [r3, r0, lsl #2]
 1317              	.LVL187:
  90:../Common/IQMath/ti/_IQNexp.c ****             iq31Fractional -= iq31_ln2;
 1318              		.loc 1 90 9 is_stmt 1 view .LVU501
  90:../Common/IQMath/ti/_IQNexp.c ****             iq31Fractional -= iq31_ln2;
 1319              		.loc 1 90 12 is_stmt 0 view .LVU502
 1320 002a 294B     		ldr	r3, .L59+16
 1321 002c 9C45     		cmp	ip, r3
 1322 002e 06DD     		ble	.L52
  91:../Common/IQMath/ti/_IQNexp.c ****             uiqNIntegerResult <<= 1;
 1323              		.loc 1 91 13 is_stmt 1 view .LVU503
  91:../Common/IQMath/ti/_IQNexp.c ****             uiqNIntegerResult <<= 1;
 1324              		.loc 1 91 28 is_stmt 0 view .LVU504
 1325 0030 ACF1B14C 		sub	ip, ip, #1484783616
 1326              	.LVL188:
  91:../Common/IQMath/ti/_IQNexp.c ****             uiqNIntegerResult <<= 1;
 1327              		.loc 1 91 28 view .LVU505
 1328 0034 ACF5641C 		sub	ip, ip, #3735552
 1329              	.LVL189:
  91:../Common/IQMath/ti/_IQNexp.c ****             uiqNIntegerResult <<= 1;
 1330              		.loc 1 91 28 view .LVU506
 1331 0038 ACF6FC3C 		subw	ip, ip, #3068
 1332              	.LVL190:
  92:../Common/IQMath/ti/_IQNexp.c ****         }
 1333              		.loc 1 92 13 is_stmt 1 view .LVU507
  92:../Common/IQMath/ti/_IQNexp.c ****         }
 1334              		.loc 1 92 31 is_stmt 0 view .LVU508
ARM GAS  C:\Users\57308\AppData\Local\Temp\ccyuPR38.s 			page 40


 1335 003c 6D00     		lsls	r5, r5, #1
 1336              	.LVL191:
 1337              	.L52:
 102:../Common/IQMath/ti/_IQNexp.c ****     
 1338              		.loc 1 102 5 is_stmt 1 view .LVU509
 102:../Common/IQMath/ti/_IQNexp.c ****     
 1339              		.loc 1 102 5 is_stmt 0 view .LVU510
 1340              	.LBE89:
 1341              	.LBE88:
  28:../Common/IQMath/ti/./support/RTS_support.h **** }
 1342              		.loc 2 28 5 is_stmt 1 view .LVU511
 1343              	.LBB97:
 1344              	.LBB94:
 109:../Common/IQMath/ti/_IQNexp.c ****     uiq30FractionalResult = *piq30Coeffs++;
 1345              		.loc 1 109 5 view .LVU512
 110:../Common/IQMath/ti/_IQNexp.c ****     
 1346              		.loc 1 110 5 view .LVU513
 110:../Common/IQMath/ti/_IQNexp.c ****     
 1347              		.loc 1 110 27 is_stmt 0 view .LVU514
 1348 003e 2548     		ldr	r0, .L59+20
 1349              	.LVL192:
 110:../Common/IQMath/ti/_IQNexp.c ****     
 1350              		.loc 1 110 27 view .LVU515
 1351 0040 50F8043B 		ldr	r3, [r0], #4
 1352              	.LVL193:
 113:../Common/IQMath/ti/_IQNexp.c ****         uiq30FractionalResult = __mpyf_l(iq31Fractional, uiq30FractionalResult);
 1353              		.loc 1 113 5 is_stmt 1 view .LVU516
 113:../Common/IQMath/ti/_IQNexp.c ****         uiq30FractionalResult = __mpyf_l(iq31Fractional, uiq30FractionalResult);
 1354              		.loc 1 113 19 is_stmt 0 view .LVU517
 1355 0044 0A24     		movs	r4, #10
 113:../Common/IQMath/ti/_IQNexp.c ****         uiq30FractionalResult = __mpyf_l(iq31Fractional, uiq30FractionalResult);
 1356              		.loc 1 113 5 view .LVU518
 1357 0046 2AE0     		b	.L53
 1358              	.LVL194:
 1359              	.L58:
  48:../Common/IQMath/ti/_IQNexp.c ****             return 0;
 1360              		.loc 1 48 9 is_stmt 1 view .LVU519
  48:../Common/IQMath/ti/_IQNexp.c ****             return 0;
 1361              		.loc 1 48 12 is_stmt 0 view .LVU520
 1362 0048 8142     		cmp	r1, r0
 1363 004a 34DC     		bgt	.L55
  53:../Common/IQMath/ti/_IQNexp.c ****         iq31Fractional <<= (31 - q_value);
 1364              		.loc 1 53 9 is_stmt 1 view .LVU521
 1365              	.LVL195:
  54:../Common/IQMath/ti/_IQNexp.c ****         iq31Fractional |= 0x80000000;
 1366              		.loc 1 54 9 view .LVU522
  54:../Common/IQMath/ti/_IQNexp.c ****         iq31Fractional |= 0x80000000;
 1367              		.loc 1 54 24 is_stmt 0 view .LVU523
 1368 004c 4FEA401C 		lsl	ip, r0, #5
 1369              	.LVL196:
  55:../Common/IQMath/ti/_IQNexp.c ****     
 1370              		.loc 1 55 9 is_stmt 1 view .LVU524
  55:../Common/IQMath/ti/_IQNexp.c ****     
 1371              		.loc 1 55 24 is_stmt 0 view .LVU525
 1372 0050 4CF0004C 		orr	ip, ip, #-2147483648
 1373              	.LVL197:
  58:../Common/IQMath/ti/_IQNexp.c ****     
ARM GAS  C:\Users\57308\AppData\Local\Temp\ccyuPR38.s 			page 41


 1374              		.loc 1 58 9 is_stmt 1 view .LVU526
  58:../Common/IQMath/ti/_IQNexp.c ****     
 1375              		.loc 1 58 46 is_stmt 0 view .LVU527
 1376 0054 8016     		asrs	r0, r0, #26
 1377              	.LVL198:
  58:../Common/IQMath/ti/_IQNexp.c ****     
 1378              		.loc 1 58 20 view .LVU528
 1379 0056 0130     		adds	r0, r0, #1
 1380              	.LVL199:
  61:../Common/IQMath/ti/_IQNexp.c ****         uiqNIntegerResult = iqNLookupTable[i16Integer];
 1381              		.loc 1 61 9 is_stmt 1 view .LVU529
  61:../Common/IQMath/ti/_IQNexp.c ****         uiqNIntegerResult = iqNLookupTable[i16Integer];
 1382              		.loc 1 61 20 is_stmt 0 view .LVU530
 1383 0058 1844     		add	r0, r0, r3
 1384              	.LVL200:
  62:../Common/IQMath/ti/_IQNexp.c ****         
 1385              		.loc 1 62 9 is_stmt 1 view .LVU531
  62:../Common/IQMath/ti/_IQNexp.c ****         
 1386              		.loc 1 62 43 is_stmt 0 view .LVU532
 1387 005a 1C4B     		ldr	r3, .L59+12
 1388              	.LVL201:
  62:../Common/IQMath/ti/_IQNexp.c ****         
 1389              		.loc 1 62 27 view .LVU533
 1390 005c 53F82050 		ldr	r5, [r3, r0, lsl #2]
 1391              	.LVL202:
  65:../Common/IQMath/ti/_IQNexp.c ****             iq31Fractional += iq31_ln2;
 1392              		.loc 1 65 9 is_stmt 1 view .LVU534
  65:../Common/IQMath/ti/_IQNexp.c ****             iq31Fractional += iq31_ln2;
 1393              		.loc 1 65 12 is_stmt 0 view .LVU535
 1394 0060 1D4B     		ldr	r3, .L59+24
 1395 0062 9C45     		cmp	ip, r3
 1396 0064 EBDA     		bge	.L52
  66:../Common/IQMath/ti/_IQNexp.c ****             uiqNIntegerResult >>= 1;
 1397              		.loc 1 66 13 is_stmt 1 view .LVU536
  66:../Common/IQMath/ti/_IQNexp.c ****             uiqNIntegerResult >>= 1;
 1398              		.loc 1 66 28 is_stmt 0 view .LVU537
 1399 0066 0CF1B14C 		add	ip, ip, #1484783616
 1400              	.LVL203:
  66:../Common/IQMath/ti/_IQNexp.c ****             uiqNIntegerResult >>= 1;
 1401              		.loc 1 66 28 view .LVU538
 1402 006a 0CF5641C 		add	ip, ip, #3735552
 1403              	.LVL204:
  66:../Common/IQMath/ti/_IQNexp.c ****             uiqNIntegerResult >>= 1;
 1404              		.loc 1 66 28 view .LVU539
 1405 006e 0CF6FC3C 		addw	ip, ip, #3068
 1406              	.LVL205:
  67:../Common/IQMath/ti/_IQNexp.c ****         }
 1407              		.loc 1 67 13 is_stmt 1 view .LVU540
  67:../Common/IQMath/ti/_IQNexp.c ****         }
 1408              		.loc 1 67 31 is_stmt 0 view .LVU541
 1409 0072 6D08     		lsrs	r5, r5, #1
 1410              	.LVL206:
  67:../Common/IQMath/ti/_IQNexp.c ****         }
 1411              		.loc 1 67 31 view .LVU542
 1412 0074 E3E7     		b	.L52
 1413              	.LVL207:
 1414              	.L54:
ARM GAS  C:\Users\57308\AppData\Local\Temp\ccyuPR38.s 			page 42


 114:../Common/IQMath/ti/_IQNexp.c ****         uiq30FractionalResult += *piq30Coeffs++;
 1415              		.loc 1 114 9 is_stmt 1 view .LVU543
 1416              	.LBB90:
 1417              	.LBI90:
 233:../Common/IQMath/ti/./support/RTS_support.h **** {
 1418              		.loc 2 233 28 view .LVU544
 1419              	.LBB91:
 235:../Common/IQMath/ti/./support/RTS_support.h **** }
 1420              		.loc 2 235 5 view .LVU545
 235:../Common/IQMath/ti/./support/RTS_support.h **** }
 1421              		.loc 2 235 28 is_stmt 0 view .LVU546
 1422 0076 4FEAEC72 		asr	r2, ip, #31
 235:../Common/IQMath/ti/./support/RTS_support.h **** }
 1423              		.loc 2 235 49 view .LVU547
 1424 007a D917     		asrs	r1, r3, #31
 235:../Common/IQMath/ti/./support/RTS_support.h **** }
 1425              		.loc 2 235 47 view .LVU548
 1426 007c 0CFB01F1 		mul	r1, ip, r1
 1427 0080 03FB0212 		mla	r2, r3, r2, r1
 1428 0084 ACFB0331 		umull	r3, r1, ip, r3
 1429              	.LVL208:
 235:../Common/IQMath/ti/./support/RTS_support.h **** }
 1430              		.loc 2 235 47 view .LVU549
 1431 0088 0A44     		add	r2, r2, r1
 235:../Common/IQMath/ti/./support/RTS_support.h **** }
 1432              		.loc 2 235 69 view .LVU550
 1433 008a DB0F     		lsrs	r3, r3, #31
 1434 008c 43EA4203 		orr	r3, r3, r2, lsl #1
 1435              	.LVL209:
 235:../Common/IQMath/ti/./support/RTS_support.h **** }
 1436              		.loc 2 235 69 view .LVU551
 1437              	.LBE91:
 1438              	.LBE90:
 115:../Common/IQMath/ti/_IQNexp.c ****     }
 1439              		.loc 1 115 9 is_stmt 1 view .LVU552
 115:../Common/IQMath/ti/_IQNexp.c ****     }
 1440              		.loc 1 115 46 is_stmt 0 view .LVU553
 1441 0090 0246     		mov	r2, r0
 1442              	.LVL210:
 115:../Common/IQMath/ti/_IQNexp.c ****     }
 1443              		.loc 1 115 34 view .LVU554
 1444 0092 52F8041B 		ldr	r1, [r2], #4
 1445              	.LVL211:
 115:../Common/IQMath/ti/_IQNexp.c ****     }
 1446              		.loc 1 115 31 view .LVU555
 1447 0096 0B44     		add	r3, r3, r1
 1448              	.LVL212:
 113:../Common/IQMath/ti/_IQNexp.c ****         uiq30FractionalResult = __mpyf_l(iq31Fractional, uiq30FractionalResult);
 1449              		.loc 1 113 51 is_stmt 1 view .LVU556
 113:../Common/IQMath/ti/_IQNexp.c ****         uiq30FractionalResult = __mpyf_l(iq31Fractional, uiq30FractionalResult);
 1450              		.loc 1 113 59 is_stmt 0 view .LVU557
 1451 0098 013C     		subs	r4, r4, #1
 1452              	.LVL213:
 113:../Common/IQMath/ti/_IQNexp.c ****         uiq30FractionalResult = __mpyf_l(iq31Fractional, uiq30FractionalResult);
 1453              		.loc 1 113 59 view .LVU558
 1454 009a E4B2     		uxtb	r4, r4
 1455              	.LVL214:
ARM GAS  C:\Users\57308\AppData\Local\Temp\ccyuPR38.s 			page 43


 115:../Common/IQMath/ti/_IQNexp.c ****     }
 1456              		.loc 1 115 46 view .LVU559
 1457 009c 1046     		mov	r0, r2
 1458              	.LVL215:
 1459              	.L53:
 113:../Common/IQMath/ti/_IQNexp.c ****         uiq30FractionalResult = __mpyf_l(iq31Fractional, uiq30FractionalResult);
 1460              		.loc 1 113 37 is_stmt 1 view .LVU560
 113:../Common/IQMath/ti/_IQNexp.c ****         uiq30FractionalResult = __mpyf_l(iq31Fractional, uiq30FractionalResult);
 1461              		.loc 1 113 5 is_stmt 0 view .LVU561
 1462 009e 002C     		cmp	r4, #0
 1463 00a0 E9D1     		bne	.L54
 119:../Common/IQMath/ti/_IQNexp.c ****     
 1464              		.loc 1 119 5 is_stmt 1 view .LVU562
 119:../Common/IQMath/ti/_IQNexp.c ****     
 1465              		.loc 1 119 27 is_stmt 0 view .LVU563
 1466 00a2 5B00     		lsls	r3, r3, #1
 1467              	.LVL216:
 125:../Common/IQMath/ti/_IQNexp.c ****     
 1468              		.loc 1 125 5 is_stmt 1 view .LVU564
 1469              	.LBB92:
 1470              	.LBI92:
 254:../Common/IQMath/ti/./support/RTS_support.h **** {
 1471              		.loc 2 254 29 view .LVU565
 1472              	.LBB93:
 1473              		.loc 2 256 5 view .LVU566
 1474              		.loc 2 256 49 is_stmt 0 view .LVU567
 1475 00a4 A5FB0353 		umull	r5, r3, r5, r3
 1476              	.LVL217:
 1477              		.loc 2 256 72 view .LVU568
 1478 00a8 ED0F     		lsrs	r5, r5, #31
 1479 00aa 45EA4305 		orr	r5, r5, r3, lsl #1
 1480              	.LVL218:
 1481              		.loc 2 256 72 view .LVU569
 1482              	.LBE93:
 1483              	.LBE92:
 131:../Common/IQMath/ti/_IQNexp.c ****     
 1484              		.loc 1 131 5 is_stmt 1 view .LVU570
 131:../Common/IQMath/ti/_IQNexp.c ****     
 1485              		.loc 1 131 5 is_stmt 0 view .LVU571
 1486              	.LBE94:
 1487              	.LBE97:
  72:../Common/IQMath/ti/./support/RTS_support.h **** }
 1488              		.loc 2 72 5 is_stmt 1 view .LVU572
 1489              	.LBB98:
 1490              	.LBB95:
 134:../Common/IQMath/ti/_IQNexp.c ****     uiqNResult >>= 1;
 1491              		.loc 1 134 5 view .LVU573
 134:../Common/IQMath/ti/_IQNexp.c ****     uiqNResult >>= 1;
 1492              		.loc 1 134 15 is_stmt 0 view .LVU574
 1493 00ae 0135     		adds	r5, r5, #1
 1494              	.LVL219:
 135:../Common/IQMath/ti/_IQNexp.c ****     
 1495              		.loc 1 135 5 is_stmt 1 view .LVU575
 135:../Common/IQMath/ti/_IQNexp.c ****     
 1496              		.loc 1 135 16 is_stmt 0 view .LVU576
 1497 00b0 6808     		lsrs	r0, r5, #1
 1498              	.LVL220:
ARM GAS  C:\Users\57308\AppData\Local\Temp\ccyuPR38.s 			page 44


 137:../Common/IQMath/ti/_IQNexp.c **** }
 1499              		.loc 1 137 5 is_stmt 1 view .LVU577
 1500              	.L49:
 137:../Common/IQMath/ti/_IQNexp.c **** }
 1501              		.loc 1 137 5 is_stmt 0 view .LVU578
 1502              	.LBE95:
 1503              	.LBE98:
 194:../Common/IQMath/ti/_IQNexp.c **** }
 1504              		.loc 1 194 1 view .LVU579
 1505 00b2 30BC     		pop	{r4, r5}
 1506              	.LCFI13:
 1507              		.cfi_remember_state
 1508              		.cfi_restore 5
 1509              		.cfi_restore 4
 1510              		.cfi_def_cfa_offset 0
 1511 00b4 7047     		bx	lr
 1512              	.LVL221:
 1513              	.L55:
 1514              	.LCFI14:
 1515              		.cfi_restore_state
 1516              	.LBB99:
 1517              	.LBB96:
  49:../Common/IQMath/ti/_IQNexp.c ****         }
 1518              		.loc 1 49 20 view .LVU580
 1519 00b6 0020     		movs	r0, #0
 1520              	.LVL222:
  49:../Common/IQMath/ti/_IQNexp.c ****         }
 1521              		.loc 1 49 20 view .LVU581
 1522 00b8 FBE7     		b	.L49
 1523              	.LVL223:
 1524              	.L56:
  74:../Common/IQMath/ti/_IQNexp.c ****         }
 1525              		.loc 1 74 20 view .LVU582
 1526 00ba 6FF00040 		mvn	r0, #-2147483648
 1527              	.LVL224:
  74:../Common/IQMath/ti/_IQNexp.c ****         }
 1528              		.loc 1 74 20 view .LVU583
 1529              	.LBE96:
 1530              	.LBE99:
 193:../Common/IQMath/ti/_IQNexp.c **** }
 1531              		.loc 1 193 12 view .LVU584
 1532 00be F8E7     		b	.L49
 1533              	.L60:
 1534              		.align	2
 1535              	.L59:
 1536 00c0 00000000 		.word	_IQNexp_offset
 1537 00c4 00000000 		.word	_IQNexp_min
 1538 00c8 00000000 		.word	_IQNexp_max
 1539 00cc 00000000 		.word	_IQNexp_lookup26
 1540 00d0 FB0BB958 		.word	1488522235
 1541 00d4 00000000 		.word	_IQ30exp_coeffs
 1542 00d8 05F446A7 		.word	-1488522235
 1543              		.cfi_endproc
 1544              	.LFE266:
 1546              		.section	.text._IQ25exp,"ax",%progbits
 1547              		.align	1
 1548              		.global	_IQ25exp
ARM GAS  C:\Users\57308\AppData\Local\Temp\ccyuPR38.s 			page 45


 1549              		.syntax unified
 1550              		.thumb
 1551              		.thumb_func
 1553              	_IQ25exp:
 1554              	.LVL225:
 1555              	.LFB267:
 195:../Common/IQMath/ti/_IQNexp.c **** /**
 196:../Common/IQMath/ti/_IQNexp.c ****  * @brief Computes the exponential of an IQ25 input.
 197:../Common/IQMath/ti/_IQNexp.c ****  *
 198:../Common/IQMath/ti/_IQNexp.c ****  * @param a               IQ25 type input.
 199:../Common/IQMath/ti/_IQNexp.c ****  *
 200:../Common/IQMath/ti/_IQNexp.c ****  * @return                IQ25 type result of exponential.
 201:../Common/IQMath/ti/_IQNexp.c ****  */
 202:../Common/IQMath/ti/_IQNexp.c **** int32_t _IQ25exp(int32_t a)
 203:../Common/IQMath/ti/_IQNexp.c **** {
 1556              		.loc 1 203 1 is_stmt 1 view -0
 1557              		.cfi_startproc
 1558              		@ args = 0, pretend = 0, frame = 0
 1559              		@ frame_needed = 0, uses_anonymous_args = 0
 1560              		@ link register save eliminated.
 1561              		.loc 1 203 1 is_stmt 0 view .LVU586
 1562 0000 30B4     		push	{r4, r5}
 1563              	.LCFI15:
 1564              		.cfi_def_cfa_offset 8
 1565              		.cfi_offset 4, -8
 1566              		.cfi_offset 5, -4
 204:../Common/IQMath/ti/_IQNexp.c ****     return __IQNexp(a, _IQNexp_lookup25, _IQNexp_offset[25-1], _IQNexp_min[25-1], _IQNexp_max[25-1]
 1567              		.loc 1 204 5 is_stmt 1 view .LVU587
 1568              		.loc 1 204 12 is_stmt 0 view .LVU588
 1569 0002 2F4B     		ldr	r3, .L71
 1570 0004 93F86030 		ldrb	r3, [r3, #96]	@ zero_extendqisi2
 1571              		.loc 1 204 75 view .LVU589
 1572 0008 2E4A     		ldr	r2, .L71+4
 1573 000a 116E     		ldr	r1, [r2, #96]
 1574              		.loc 1 204 94 view .LVU590
 1575 000c 2E4A     		ldr	r2, .L71+8
 1576 000e 126E     		ldr	r2, [r2, #96]
 1577              	.LVL226:
 1578              	.LBB106:
 1579              	.LBI106:
  32:../Common/IQMath/ti/_IQNexp.c **** {
 1580              		.loc 1 32 30 is_stmt 1 view .LVU591
 1581              	.LBB107:
  34:../Common/IQMath/ti/_IQNexp.c ****     int_fast16_t i16Integer;
 1582              		.loc 1 34 5 view .LVU592
  35:../Common/IQMath/ti/_IQNexp.c ****     uint_fast16_t ui16IntState;
 1583              		.loc 1 35 5 view .LVU593
  36:../Common/IQMath/ti/_IQNexp.c ****     uint_fast16_t ui16MPYState;
 1584              		.loc 1 36 5 view .LVU594
  37:../Common/IQMath/ti/_IQNexp.c ****     int_fast32_t iq31Fractional;
 1585              		.loc 1 37 5 view .LVU595
  38:../Common/IQMath/ti/_IQNexp.c ****     uint_fast32_t uiqNResult;
 1586              		.loc 1 38 5 view .LVU596
  39:../Common/IQMath/ti/_IQNexp.c ****     uint_fast32_t uiqNIntegerResult;
 1587              		.loc 1 39 5 view .LVU597
  40:../Common/IQMath/ti/_IQNexp.c ****     uint_fast32_t uiq30FractionalResult;
 1588              		.loc 1 40 5 view .LVU598
ARM GAS  C:\Users\57308\AppData\Local\Temp\ccyuPR38.s 			page 46


  41:../Common/IQMath/ti/_IQNexp.c ****     uint_fast32_t uiq31FractionalResult;
 1589              		.loc 1 41 5 view .LVU599
  42:../Common/IQMath/ti/_IQNexp.c ****     const uint_fast32_t *piq30Coeffs;
 1590              		.loc 1 42 5 view .LVU600
  43:../Common/IQMath/ti/_IQNexp.c ****     
 1591              		.loc 1 43 5 view .LVU601
  46:../Common/IQMath/ti/_IQNexp.c ****         /* Check for the minimum value. */
 1592              		.loc 1 46 5 view .LVU602
  46:../Common/IQMath/ti/_IQNexp.c ****         /* Check for the minimum value. */
 1593              		.loc 1 46 8 is_stmt 0 view .LVU603
 1594 0010 0028     		cmp	r0, #0
  46:../Common/IQMath/ti/_IQNexp.c ****         /* Check for the minimum value. */
 1595              		.loc 1 46 8 view .LVU604
 1596 0012 19DB     		blt	.L70
  73:../Common/IQMath/ti/_IQNexp.c ****             return INT32_MAX;
 1597              		.loc 1 73 9 is_stmt 1 view .LVU605
  73:../Common/IQMath/ti/_IQNexp.c ****             return INT32_MAX;
 1598              		.loc 1 73 12 is_stmt 0 view .LVU606
 1599 0014 8242     		cmp	r2, r0
 1600 0016 50DB     		blt	.L68
  78:../Common/IQMath/ti/_IQNexp.c ****         iq31Fractional <<= (31 - q_value);
 1601              		.loc 1 78 9 is_stmt 1 view .LVU607
 1602              	.LVL227:
  79:../Common/IQMath/ti/_IQNexp.c ****         iq31Fractional &= 0x7fffffff;
 1603              		.loc 1 79 9 view .LVU608
  79:../Common/IQMath/ti/_IQNexp.c ****         iq31Fractional &= 0x7fffffff;
 1604              		.loc 1 79 24 is_stmt 0 view .LVU609
 1605 0018 4FEA801C 		lsl	ip, r0, #6
 1606              	.LVL228:
  80:../Common/IQMath/ti/_IQNexp.c ****     
 1607              		.loc 1 80 9 is_stmt 1 view .LVU610
  80:../Common/IQMath/ti/_IQNexp.c ****     
 1608              		.loc 1 80 24 is_stmt 0 view .LVU611
 1609 001c 2CF0004C 		bic	ip, ip, #-2147483648
 1610              	.LVL229:
  83:../Common/IQMath/ti/_IQNexp.c ****     
 1611              		.loc 1 83 9 is_stmt 1 view .LVU612
  86:../Common/IQMath/ti/_IQNexp.c ****         uiqNIntegerResult = iqNLookupTable[i16Integer];
 1612              		.loc 1 86 9 view .LVU613
  86:../Common/IQMath/ti/_IQNexp.c ****         uiqNIntegerResult = iqNLookupTable[i16Integer];
 1613              		.loc 1 86 20 is_stmt 0 view .LVU614
 1614 0020 03EB6060 		add	r0, r3, r0, asr #25
 1615              	.LVL230:
  87:../Common/IQMath/ti/_IQNexp.c ****         
 1616              		.loc 1 87 9 is_stmt 1 view .LVU615
  87:../Common/IQMath/ti/_IQNexp.c ****         
 1617              		.loc 1 87 43 is_stmt 0 view .LVU616
 1618 0024 294B     		ldr	r3, .L71+12
 1619              	.LVL231:
  87:../Common/IQMath/ti/_IQNexp.c ****         
 1620              		.loc 1 87 27 view .LVU617
 1621 0026 53F82050 		ldr	r5, [r3, r0, lsl #2]
 1622              	.LVL232:
  90:../Common/IQMath/ti/_IQNexp.c ****             iq31Fractional -= iq31_ln2;
 1623              		.loc 1 90 9 is_stmt 1 view .LVU618
  90:../Common/IQMath/ti/_IQNexp.c ****             iq31Fractional -= iq31_ln2;
 1624              		.loc 1 90 12 is_stmt 0 view .LVU619
ARM GAS  C:\Users\57308\AppData\Local\Temp\ccyuPR38.s 			page 47


 1625 002a 294B     		ldr	r3, .L71+16
 1626 002c 9C45     		cmp	ip, r3
 1627 002e 06DD     		ble	.L64
  91:../Common/IQMath/ti/_IQNexp.c ****             uiqNIntegerResult <<= 1;
 1628              		.loc 1 91 13 is_stmt 1 view .LVU620
  91:../Common/IQMath/ti/_IQNexp.c ****             uiqNIntegerResult <<= 1;
 1629              		.loc 1 91 28 is_stmt 0 view .LVU621
 1630 0030 ACF1B14C 		sub	ip, ip, #1484783616
 1631              	.LVL233:
  91:../Common/IQMath/ti/_IQNexp.c ****             uiqNIntegerResult <<= 1;
 1632              		.loc 1 91 28 view .LVU622
 1633 0034 ACF5641C 		sub	ip, ip, #3735552
 1634              	.LVL234:
  91:../Common/IQMath/ti/_IQNexp.c ****             uiqNIntegerResult <<= 1;
 1635              		.loc 1 91 28 view .LVU623
 1636 0038 ACF6FC3C 		subw	ip, ip, #3068
 1637              	.LVL235:
  92:../Common/IQMath/ti/_IQNexp.c ****         }
 1638              		.loc 1 92 13 is_stmt 1 view .LVU624
  92:../Common/IQMath/ti/_IQNexp.c ****         }
 1639              		.loc 1 92 31 is_stmt 0 view .LVU625
 1640 003c 6D00     		lsls	r5, r5, #1
 1641              	.LVL236:
 1642              	.L64:
 102:../Common/IQMath/ti/_IQNexp.c ****     
 1643              		.loc 1 102 5 is_stmt 1 view .LVU626
 102:../Common/IQMath/ti/_IQNexp.c ****     
 1644              		.loc 1 102 5 is_stmt 0 view .LVU627
 1645              	.LBE107:
 1646              	.LBE106:
  28:../Common/IQMath/ti/./support/RTS_support.h **** }
 1647              		.loc 2 28 5 is_stmt 1 view .LVU628
 1648              	.LBB115:
 1649              	.LBB112:
 109:../Common/IQMath/ti/_IQNexp.c ****     uiq30FractionalResult = *piq30Coeffs++;
 1650              		.loc 1 109 5 view .LVU629
 110:../Common/IQMath/ti/_IQNexp.c ****     
 1651              		.loc 1 110 5 view .LVU630
 110:../Common/IQMath/ti/_IQNexp.c ****     
 1652              		.loc 1 110 27 is_stmt 0 view .LVU631
 1653 003e 2548     		ldr	r0, .L71+20
 1654              	.LVL237:
 110:../Common/IQMath/ti/_IQNexp.c ****     
 1655              		.loc 1 110 27 view .LVU632
 1656 0040 50F8043B 		ldr	r3, [r0], #4
 1657              	.LVL238:
 113:../Common/IQMath/ti/_IQNexp.c ****         uiq30FractionalResult = __mpyf_l(iq31Fractional, uiq30FractionalResult);
 1658              		.loc 1 113 5 is_stmt 1 view .LVU633
 113:../Common/IQMath/ti/_IQNexp.c ****         uiq30FractionalResult = __mpyf_l(iq31Fractional, uiq30FractionalResult);
 1659              		.loc 1 113 19 is_stmt 0 view .LVU634
 1660 0044 0A24     		movs	r4, #10
 113:../Common/IQMath/ti/_IQNexp.c ****         uiq30FractionalResult = __mpyf_l(iq31Fractional, uiq30FractionalResult);
 1661              		.loc 1 113 5 view .LVU635
 1662 0046 2AE0     		b	.L65
 1663              	.LVL239:
 1664              	.L70:
  48:../Common/IQMath/ti/_IQNexp.c ****             return 0;
ARM GAS  C:\Users\57308\AppData\Local\Temp\ccyuPR38.s 			page 48


 1665              		.loc 1 48 9 is_stmt 1 view .LVU636
  48:../Common/IQMath/ti/_IQNexp.c ****             return 0;
 1666              		.loc 1 48 12 is_stmt 0 view .LVU637
 1667 0048 8142     		cmp	r1, r0
 1668 004a 34DC     		bgt	.L67
  53:../Common/IQMath/ti/_IQNexp.c ****         iq31Fractional <<= (31 - q_value);
 1669              		.loc 1 53 9 is_stmt 1 view .LVU638
 1670              	.LVL240:
  54:../Common/IQMath/ti/_IQNexp.c ****         iq31Fractional |= 0x80000000;
 1671              		.loc 1 54 9 view .LVU639
  54:../Common/IQMath/ti/_IQNexp.c ****         iq31Fractional |= 0x80000000;
 1672              		.loc 1 54 24 is_stmt 0 view .LVU640
 1673 004c 4FEA801C 		lsl	ip, r0, #6
 1674              	.LVL241:
  55:../Common/IQMath/ti/_IQNexp.c ****     
 1675              		.loc 1 55 9 is_stmt 1 view .LVU641
  55:../Common/IQMath/ti/_IQNexp.c ****     
 1676              		.loc 1 55 24 is_stmt 0 view .LVU642
 1677 0050 4CF0004C 		orr	ip, ip, #-2147483648
 1678              	.LVL242:
  58:../Common/IQMath/ti/_IQNexp.c ****     
 1679              		.loc 1 58 9 is_stmt 1 view .LVU643
  58:../Common/IQMath/ti/_IQNexp.c ****     
 1680              		.loc 1 58 46 is_stmt 0 view .LVU644
 1681 0054 4016     		asrs	r0, r0, #25
 1682              	.LVL243:
  58:../Common/IQMath/ti/_IQNexp.c ****     
 1683              		.loc 1 58 20 view .LVU645
 1684 0056 0130     		adds	r0, r0, #1
 1685              	.LVL244:
  61:../Common/IQMath/ti/_IQNexp.c ****         uiqNIntegerResult = iqNLookupTable[i16Integer];
 1686              		.loc 1 61 9 is_stmt 1 view .LVU646
  61:../Common/IQMath/ti/_IQNexp.c ****         uiqNIntegerResult = iqNLookupTable[i16Integer];
 1687              		.loc 1 61 20 is_stmt 0 view .LVU647
 1688 0058 1844     		add	r0, r0, r3
 1689              	.LVL245:
  62:../Common/IQMath/ti/_IQNexp.c ****         
 1690              		.loc 1 62 9 is_stmt 1 view .LVU648
  62:../Common/IQMath/ti/_IQNexp.c ****         
 1691              		.loc 1 62 43 is_stmt 0 view .LVU649
 1692 005a 1C4B     		ldr	r3, .L71+12
 1693              	.LVL246:
  62:../Common/IQMath/ti/_IQNexp.c ****         
 1694              		.loc 1 62 27 view .LVU650
 1695 005c 53F82050 		ldr	r5, [r3, r0, lsl #2]
 1696              	.LVL247:
  65:../Common/IQMath/ti/_IQNexp.c ****             iq31Fractional += iq31_ln2;
 1697              		.loc 1 65 9 is_stmt 1 view .LVU651
  65:../Common/IQMath/ti/_IQNexp.c ****             iq31Fractional += iq31_ln2;
 1698              		.loc 1 65 12 is_stmt 0 view .LVU652
 1699 0060 1D4B     		ldr	r3, .L71+24
 1700 0062 9C45     		cmp	ip, r3
 1701 0064 EBDA     		bge	.L64
  66:../Common/IQMath/ti/_IQNexp.c ****             uiqNIntegerResult >>= 1;
 1702              		.loc 1 66 13 is_stmt 1 view .LVU653
  66:../Common/IQMath/ti/_IQNexp.c ****             uiqNIntegerResult >>= 1;
 1703              		.loc 1 66 28 is_stmt 0 view .LVU654
ARM GAS  C:\Users\57308\AppData\Local\Temp\ccyuPR38.s 			page 49


 1704 0066 0CF1B14C 		add	ip, ip, #1484783616
 1705              	.LVL248:
  66:../Common/IQMath/ti/_IQNexp.c ****             uiqNIntegerResult >>= 1;
 1706              		.loc 1 66 28 view .LVU655
 1707 006a 0CF5641C 		add	ip, ip, #3735552
 1708              	.LVL249:
  66:../Common/IQMath/ti/_IQNexp.c ****             uiqNIntegerResult >>= 1;
 1709              		.loc 1 66 28 view .LVU656
 1710 006e 0CF6FC3C 		addw	ip, ip, #3068
 1711              	.LVL250:
  67:../Common/IQMath/ti/_IQNexp.c ****         }
 1712              		.loc 1 67 13 is_stmt 1 view .LVU657
  67:../Common/IQMath/ti/_IQNexp.c ****         }
 1713              		.loc 1 67 31 is_stmt 0 view .LVU658
 1714 0072 6D08     		lsrs	r5, r5, #1
 1715              	.LVL251:
  67:../Common/IQMath/ti/_IQNexp.c ****         }
 1716              		.loc 1 67 31 view .LVU659
 1717 0074 E3E7     		b	.L64
 1718              	.LVL252:
 1719              	.L66:
 114:../Common/IQMath/ti/_IQNexp.c ****         uiq30FractionalResult += *piq30Coeffs++;
 1720              		.loc 1 114 9 is_stmt 1 view .LVU660
 1721              	.LBB108:
 1722              	.LBI108:
 233:../Common/IQMath/ti/./support/RTS_support.h **** {
 1723              		.loc 2 233 28 view .LVU661
 1724              	.LBB109:
 235:../Common/IQMath/ti/./support/RTS_support.h **** }
 1725              		.loc 2 235 5 view .LVU662
 235:../Common/IQMath/ti/./support/RTS_support.h **** }
 1726              		.loc 2 235 28 is_stmt 0 view .LVU663
 1727 0076 4FEAEC72 		asr	r2, ip, #31
 235:../Common/IQMath/ti/./support/RTS_support.h **** }
 1728              		.loc 2 235 49 view .LVU664
 1729 007a D917     		asrs	r1, r3, #31
 235:../Common/IQMath/ti/./support/RTS_support.h **** }
 1730              		.loc 2 235 47 view .LVU665
 1731 007c 0CFB01F1 		mul	r1, ip, r1
 1732 0080 03FB0212 		mla	r2, r3, r2, r1
 1733 0084 ACFB0331 		umull	r3, r1, ip, r3
 1734              	.LVL253:
 235:../Common/IQMath/ti/./support/RTS_support.h **** }
 1735              		.loc 2 235 47 view .LVU666
 1736 0088 0A44     		add	r2, r2, r1
 235:../Common/IQMath/ti/./support/RTS_support.h **** }
 1737              		.loc 2 235 69 view .LVU667
 1738 008a DB0F     		lsrs	r3, r3, #31
 1739 008c 43EA4203 		orr	r3, r3, r2, lsl #1
 1740              	.LVL254:
 235:../Common/IQMath/ti/./support/RTS_support.h **** }
 1741              		.loc 2 235 69 view .LVU668
 1742              	.LBE109:
 1743              	.LBE108:
 115:../Common/IQMath/ti/_IQNexp.c ****     }
 1744              		.loc 1 115 9 is_stmt 1 view .LVU669
 115:../Common/IQMath/ti/_IQNexp.c ****     }
ARM GAS  C:\Users\57308\AppData\Local\Temp\ccyuPR38.s 			page 50


 1745              		.loc 1 115 46 is_stmt 0 view .LVU670
 1746 0090 0246     		mov	r2, r0
 1747              	.LVL255:
 115:../Common/IQMath/ti/_IQNexp.c ****     }
 1748              		.loc 1 115 34 view .LVU671
 1749 0092 52F8041B 		ldr	r1, [r2], #4
 1750              	.LVL256:
 115:../Common/IQMath/ti/_IQNexp.c ****     }
 1751              		.loc 1 115 31 view .LVU672
 1752 0096 0B44     		add	r3, r3, r1
 1753              	.LVL257:
 113:../Common/IQMath/ti/_IQNexp.c ****         uiq30FractionalResult = __mpyf_l(iq31Fractional, uiq30FractionalResult);
 1754              		.loc 1 113 51 is_stmt 1 view .LVU673
 113:../Common/IQMath/ti/_IQNexp.c ****         uiq30FractionalResult = __mpyf_l(iq31Fractional, uiq30FractionalResult);
 1755              		.loc 1 113 59 is_stmt 0 view .LVU674
 1756 0098 013C     		subs	r4, r4, #1
 1757              	.LVL258:
 113:../Common/IQMath/ti/_IQNexp.c ****         uiq30FractionalResult = __mpyf_l(iq31Fractional, uiq30FractionalResult);
 1758              		.loc 1 113 59 view .LVU675
 1759 009a E4B2     		uxtb	r4, r4
 1760              	.LVL259:
 115:../Common/IQMath/ti/_IQNexp.c ****     }
 1761              		.loc 1 115 46 view .LVU676
 1762 009c 1046     		mov	r0, r2
 1763              	.LVL260:
 1764              	.L65:
 113:../Common/IQMath/ti/_IQNexp.c ****         uiq30FractionalResult = __mpyf_l(iq31Fractional, uiq30FractionalResult);
 1765              		.loc 1 113 37 is_stmt 1 view .LVU677
 113:../Common/IQMath/ti/_IQNexp.c ****         uiq30FractionalResult = __mpyf_l(iq31Fractional, uiq30FractionalResult);
 1766              		.loc 1 113 5 is_stmt 0 view .LVU678
 1767 009e 002C     		cmp	r4, #0
 1768 00a0 E9D1     		bne	.L66
 119:../Common/IQMath/ti/_IQNexp.c ****     
 1769              		.loc 1 119 5 is_stmt 1 view .LVU679
 119:../Common/IQMath/ti/_IQNexp.c ****     
 1770              		.loc 1 119 27 is_stmt 0 view .LVU680
 1771 00a2 5B00     		lsls	r3, r3, #1
 1772              	.LVL261:
 125:../Common/IQMath/ti/_IQNexp.c ****     
 1773              		.loc 1 125 5 is_stmt 1 view .LVU681
 1774              	.LBB110:
 1775              	.LBI110:
 254:../Common/IQMath/ti/./support/RTS_support.h **** {
 1776              		.loc 2 254 29 view .LVU682
 1777              	.LBB111:
 1778              		.loc 2 256 5 view .LVU683
 1779              		.loc 2 256 49 is_stmt 0 view .LVU684
 1780 00a4 A5FB0353 		umull	r5, r3, r5, r3
 1781              	.LVL262:
 1782              		.loc 2 256 72 view .LVU685
 1783 00a8 ED0F     		lsrs	r5, r5, #31
 1784 00aa 45EA4305 		orr	r5, r5, r3, lsl #1
 1785              	.LVL263:
 1786              		.loc 2 256 72 view .LVU686
 1787              	.LBE111:
 1788              	.LBE110:
 131:../Common/IQMath/ti/_IQNexp.c ****     
ARM GAS  C:\Users\57308\AppData\Local\Temp\ccyuPR38.s 			page 51


 1789              		.loc 1 131 5 is_stmt 1 view .LVU687
 131:../Common/IQMath/ti/_IQNexp.c ****     
 1790              		.loc 1 131 5 is_stmt 0 view .LVU688
 1791              	.LBE112:
 1792              	.LBE115:
  72:../Common/IQMath/ti/./support/RTS_support.h **** }
 1793              		.loc 2 72 5 is_stmt 1 view .LVU689
 1794              	.LBB116:
 1795              	.LBB113:
 134:../Common/IQMath/ti/_IQNexp.c ****     uiqNResult >>= 1;
 1796              		.loc 1 134 5 view .LVU690
 134:../Common/IQMath/ti/_IQNexp.c ****     uiqNResult >>= 1;
 1797              		.loc 1 134 15 is_stmt 0 view .LVU691
 1798 00ae 0135     		adds	r5, r5, #1
 1799              	.LVL264:
 135:../Common/IQMath/ti/_IQNexp.c ****     
 1800              		.loc 1 135 5 is_stmt 1 view .LVU692
 135:../Common/IQMath/ti/_IQNexp.c ****     
 1801              		.loc 1 135 16 is_stmt 0 view .LVU693
 1802 00b0 6808     		lsrs	r0, r5, #1
 1803              	.LVL265:
 137:../Common/IQMath/ti/_IQNexp.c **** }
 1804              		.loc 1 137 5 is_stmt 1 view .LVU694
 1805              	.L61:
 137:../Common/IQMath/ti/_IQNexp.c **** }
 1806              		.loc 1 137 5 is_stmt 0 view .LVU695
 1807              	.LBE113:
 1808              	.LBE116:
 205:../Common/IQMath/ti/_IQNexp.c **** }
 1809              		.loc 1 205 1 view .LVU696
 1810 00b2 30BC     		pop	{r4, r5}
 1811              	.LCFI16:
 1812              		.cfi_remember_state
 1813              		.cfi_restore 5
 1814              		.cfi_restore 4
 1815              		.cfi_def_cfa_offset 0
 1816 00b4 7047     		bx	lr
 1817              	.LVL266:
 1818              	.L67:
 1819              	.LCFI17:
 1820              		.cfi_restore_state
 1821              	.LBB117:
 1822              	.LBB114:
  49:../Common/IQMath/ti/_IQNexp.c ****         }
 1823              		.loc 1 49 20 view .LVU697
 1824 00b6 0020     		movs	r0, #0
 1825              	.LVL267:
  49:../Common/IQMath/ti/_IQNexp.c ****         }
 1826              		.loc 1 49 20 view .LVU698
 1827 00b8 FBE7     		b	.L61
 1828              	.LVL268:
 1829              	.L68:
  74:../Common/IQMath/ti/_IQNexp.c ****         }
 1830              		.loc 1 74 20 view .LVU699
 1831 00ba 6FF00040 		mvn	r0, #-2147483648
 1832              	.LVL269:
  74:../Common/IQMath/ti/_IQNexp.c ****         }
ARM GAS  C:\Users\57308\AppData\Local\Temp\ccyuPR38.s 			page 52


 1833              		.loc 1 74 20 view .LVU700
 1834              	.LBE114:
 1835              	.LBE117:
 204:../Common/IQMath/ti/_IQNexp.c **** }
 1836              		.loc 1 204 12 view .LVU701
 1837 00be F8E7     		b	.L61
 1838              	.L72:
 1839              		.align	2
 1840              	.L71:
 1841 00c0 00000000 		.word	_IQNexp_offset
 1842 00c4 00000000 		.word	_IQNexp_min
 1843 00c8 00000000 		.word	_IQNexp_max
 1844 00cc 00000000 		.word	_IQNexp_lookup25
 1845 00d0 FB0BB958 		.word	1488522235
 1846 00d4 00000000 		.word	_IQ30exp_coeffs
 1847 00d8 05F446A7 		.word	-1488522235
 1848              		.cfi_endproc
 1849              	.LFE267:
 1851              		.section	.text._IQ24exp,"ax",%progbits
 1852              		.align	1
 1853              		.global	_IQ24exp
 1854              		.syntax unified
 1855              		.thumb
 1856              		.thumb_func
 1858              	_IQ24exp:
 1859              	.LVL270:
 1860              	.LFB268:
 206:../Common/IQMath/ti/_IQNexp.c **** /**
 207:../Common/IQMath/ti/_IQNexp.c ****  * @brief Computes the exponential of an IQ24 input.
 208:../Common/IQMath/ti/_IQNexp.c ****  *
 209:../Common/IQMath/ti/_IQNexp.c ****  * @param a               IQ24 type input.
 210:../Common/IQMath/ti/_IQNexp.c ****  *
 211:../Common/IQMath/ti/_IQNexp.c ****  * @return                IQ24 type result of exponential.
 212:../Common/IQMath/ti/_IQNexp.c ****  */
 213:../Common/IQMath/ti/_IQNexp.c **** int32_t _IQ24exp(int32_t a)
 214:../Common/IQMath/ti/_IQNexp.c **** {
 1861              		.loc 1 214 1 is_stmt 1 view -0
 1862              		.cfi_startproc
 1863              		@ args = 0, pretend = 0, frame = 0
 1864              		@ frame_needed = 0, uses_anonymous_args = 0
 1865              		@ link register save eliminated.
 1866              		.loc 1 214 1 is_stmt 0 view .LVU703
 1867 0000 30B4     		push	{r4, r5}
 1868              	.LCFI18:
 1869              		.cfi_def_cfa_offset 8
 1870              		.cfi_offset 4, -8
 1871              		.cfi_offset 5, -4
 215:../Common/IQMath/ti/_IQNexp.c ****     return __IQNexp(a, _IQNexp_lookup24, _IQNexp_offset[24-1], _IQNexp_min[24-1], _IQNexp_max[24-1]
 1872              		.loc 1 215 5 is_stmt 1 view .LVU704
 1873              		.loc 1 215 12 is_stmt 0 view .LVU705
 1874 0002 2F4B     		ldr	r3, .L83
 1875 0004 93F85C30 		ldrb	r3, [r3, #92]	@ zero_extendqisi2
 1876              		.loc 1 215 75 view .LVU706
 1877 0008 2E4A     		ldr	r2, .L83+4
 1878 000a D16D     		ldr	r1, [r2, #92]
 1879              		.loc 1 215 94 view .LVU707
 1880 000c 2E4A     		ldr	r2, .L83+8
ARM GAS  C:\Users\57308\AppData\Local\Temp\ccyuPR38.s 			page 53


 1881 000e D26D     		ldr	r2, [r2, #92]
 1882              	.LVL271:
 1883              	.LBB124:
 1884              	.LBI124:
  32:../Common/IQMath/ti/_IQNexp.c **** {
 1885              		.loc 1 32 30 is_stmt 1 view .LVU708
 1886              	.LBB125:
  34:../Common/IQMath/ti/_IQNexp.c ****     int_fast16_t i16Integer;
 1887              		.loc 1 34 5 view .LVU709
  35:../Common/IQMath/ti/_IQNexp.c ****     uint_fast16_t ui16IntState;
 1888              		.loc 1 35 5 view .LVU710
  36:../Common/IQMath/ti/_IQNexp.c ****     uint_fast16_t ui16MPYState;
 1889              		.loc 1 36 5 view .LVU711
  37:../Common/IQMath/ti/_IQNexp.c ****     int_fast32_t iq31Fractional;
 1890              		.loc 1 37 5 view .LVU712
  38:../Common/IQMath/ti/_IQNexp.c ****     uint_fast32_t uiqNResult;
 1891              		.loc 1 38 5 view .LVU713
  39:../Common/IQMath/ti/_IQNexp.c ****     uint_fast32_t uiqNIntegerResult;
 1892              		.loc 1 39 5 view .LVU714
  40:../Common/IQMath/ti/_IQNexp.c ****     uint_fast32_t uiq30FractionalResult;
 1893              		.loc 1 40 5 view .LVU715
  41:../Common/IQMath/ti/_IQNexp.c ****     uint_fast32_t uiq31FractionalResult;
 1894              		.loc 1 41 5 view .LVU716
  42:../Common/IQMath/ti/_IQNexp.c ****     const uint_fast32_t *piq30Coeffs;
 1895              		.loc 1 42 5 view .LVU717
  43:../Common/IQMath/ti/_IQNexp.c ****     
 1896              		.loc 1 43 5 view .LVU718
  46:../Common/IQMath/ti/_IQNexp.c ****         /* Check for the minimum value. */
 1897              		.loc 1 46 5 view .LVU719
  46:../Common/IQMath/ti/_IQNexp.c ****         /* Check for the minimum value. */
 1898              		.loc 1 46 8 is_stmt 0 view .LVU720
 1899 0010 0028     		cmp	r0, #0
  46:../Common/IQMath/ti/_IQNexp.c ****         /* Check for the minimum value. */
 1900              		.loc 1 46 8 view .LVU721
 1901 0012 19DB     		blt	.L82
  73:../Common/IQMath/ti/_IQNexp.c ****             return INT32_MAX;
 1902              		.loc 1 73 9 is_stmt 1 view .LVU722
  73:../Common/IQMath/ti/_IQNexp.c ****             return INT32_MAX;
 1903              		.loc 1 73 12 is_stmt 0 view .LVU723
 1904 0014 8242     		cmp	r2, r0
 1905 0016 50DB     		blt	.L80
  78:../Common/IQMath/ti/_IQNexp.c ****         iq31Fractional <<= (31 - q_value);
 1906              		.loc 1 78 9 is_stmt 1 view .LVU724
 1907              	.LVL272:
  79:../Common/IQMath/ti/_IQNexp.c ****         iq31Fractional &= 0x7fffffff;
 1908              		.loc 1 79 9 view .LVU725
  79:../Common/IQMath/ti/_IQNexp.c ****         iq31Fractional &= 0x7fffffff;
 1909              		.loc 1 79 24 is_stmt 0 view .LVU726
 1910 0018 4FEAC01C 		lsl	ip, r0, #7
 1911              	.LVL273:
  80:../Common/IQMath/ti/_IQNexp.c ****     
 1912              		.loc 1 80 9 is_stmt 1 view .LVU727
  80:../Common/IQMath/ti/_IQNexp.c ****     
 1913              		.loc 1 80 24 is_stmt 0 view .LVU728
 1914 001c 2CF0004C 		bic	ip, ip, #-2147483648
 1915              	.LVL274:
  83:../Common/IQMath/ti/_IQNexp.c ****     
ARM GAS  C:\Users\57308\AppData\Local\Temp\ccyuPR38.s 			page 54


 1916              		.loc 1 83 9 is_stmt 1 view .LVU729
  86:../Common/IQMath/ti/_IQNexp.c ****         uiqNIntegerResult = iqNLookupTable[i16Integer];
 1917              		.loc 1 86 9 view .LVU730
  86:../Common/IQMath/ti/_IQNexp.c ****         uiqNIntegerResult = iqNLookupTable[i16Integer];
 1918              		.loc 1 86 20 is_stmt 0 view .LVU731
 1919 0020 03EB2060 		add	r0, r3, r0, asr #24
 1920              	.LVL275:
  87:../Common/IQMath/ti/_IQNexp.c ****         
 1921              		.loc 1 87 9 is_stmt 1 view .LVU732
  87:../Common/IQMath/ti/_IQNexp.c ****         
 1922              		.loc 1 87 43 is_stmt 0 view .LVU733
 1923 0024 294B     		ldr	r3, .L83+12
 1924              	.LVL276:
  87:../Common/IQMath/ti/_IQNexp.c ****         
 1925              		.loc 1 87 27 view .LVU734
 1926 0026 53F82050 		ldr	r5, [r3, r0, lsl #2]
 1927              	.LVL277:
  90:../Common/IQMath/ti/_IQNexp.c ****             iq31Fractional -= iq31_ln2;
 1928              		.loc 1 90 9 is_stmt 1 view .LVU735
  90:../Common/IQMath/ti/_IQNexp.c ****             iq31Fractional -= iq31_ln2;
 1929              		.loc 1 90 12 is_stmt 0 view .LVU736
 1930 002a 294B     		ldr	r3, .L83+16
 1931 002c 9C45     		cmp	ip, r3
 1932 002e 06DD     		ble	.L76
  91:../Common/IQMath/ti/_IQNexp.c ****             uiqNIntegerResult <<= 1;
 1933              		.loc 1 91 13 is_stmt 1 view .LVU737
  91:../Common/IQMath/ti/_IQNexp.c ****             uiqNIntegerResult <<= 1;
 1934              		.loc 1 91 28 is_stmt 0 view .LVU738
 1935 0030 ACF1B14C 		sub	ip, ip, #1484783616
 1936              	.LVL278:
  91:../Common/IQMath/ti/_IQNexp.c ****             uiqNIntegerResult <<= 1;
 1937              		.loc 1 91 28 view .LVU739
 1938 0034 ACF5641C 		sub	ip, ip, #3735552
 1939              	.LVL279:
  91:../Common/IQMath/ti/_IQNexp.c ****             uiqNIntegerResult <<= 1;
 1940              		.loc 1 91 28 view .LVU740
 1941 0038 ACF6FC3C 		subw	ip, ip, #3068
 1942              	.LVL280:
  92:../Common/IQMath/ti/_IQNexp.c ****         }
 1943              		.loc 1 92 13 is_stmt 1 view .LVU741
  92:../Common/IQMath/ti/_IQNexp.c ****         }
 1944              		.loc 1 92 31 is_stmt 0 view .LVU742
 1945 003c 6D00     		lsls	r5, r5, #1
 1946              	.LVL281:
 1947              	.L76:
 102:../Common/IQMath/ti/_IQNexp.c ****     
 1948              		.loc 1 102 5 is_stmt 1 view .LVU743
 102:../Common/IQMath/ti/_IQNexp.c ****     
 1949              		.loc 1 102 5 is_stmt 0 view .LVU744
 1950              	.LBE125:
 1951              	.LBE124:
  28:../Common/IQMath/ti/./support/RTS_support.h **** }
 1952              		.loc 2 28 5 is_stmt 1 view .LVU745
 1953              	.LBB133:
 1954              	.LBB130:
 109:../Common/IQMath/ti/_IQNexp.c ****     uiq30FractionalResult = *piq30Coeffs++;
 1955              		.loc 1 109 5 view .LVU746
ARM GAS  C:\Users\57308\AppData\Local\Temp\ccyuPR38.s 			page 55


 110:../Common/IQMath/ti/_IQNexp.c ****     
 1956              		.loc 1 110 5 view .LVU747
 110:../Common/IQMath/ti/_IQNexp.c ****     
 1957              		.loc 1 110 27 is_stmt 0 view .LVU748
 1958 003e 2548     		ldr	r0, .L83+20
 1959              	.LVL282:
 110:../Common/IQMath/ti/_IQNexp.c ****     
 1960              		.loc 1 110 27 view .LVU749
 1961 0040 50F8043B 		ldr	r3, [r0], #4
 1962              	.LVL283:
 113:../Common/IQMath/ti/_IQNexp.c ****         uiq30FractionalResult = __mpyf_l(iq31Fractional, uiq30FractionalResult);
 1963              		.loc 1 113 5 is_stmt 1 view .LVU750
 113:../Common/IQMath/ti/_IQNexp.c ****         uiq30FractionalResult = __mpyf_l(iq31Fractional, uiq30FractionalResult);
 1964              		.loc 1 113 19 is_stmt 0 view .LVU751
 1965 0044 0A24     		movs	r4, #10
 113:../Common/IQMath/ti/_IQNexp.c ****         uiq30FractionalResult = __mpyf_l(iq31Fractional, uiq30FractionalResult);
 1966              		.loc 1 113 5 view .LVU752
 1967 0046 2AE0     		b	.L77
 1968              	.LVL284:
 1969              	.L82:
  48:../Common/IQMath/ti/_IQNexp.c ****             return 0;
 1970              		.loc 1 48 9 is_stmt 1 view .LVU753
  48:../Common/IQMath/ti/_IQNexp.c ****             return 0;
 1971              		.loc 1 48 12 is_stmt 0 view .LVU754
 1972 0048 8142     		cmp	r1, r0
 1973 004a 34DC     		bgt	.L79
  53:../Common/IQMath/ti/_IQNexp.c ****         iq31Fractional <<= (31 - q_value);
 1974              		.loc 1 53 9 is_stmt 1 view .LVU755
 1975              	.LVL285:
  54:../Common/IQMath/ti/_IQNexp.c ****         iq31Fractional |= 0x80000000;
 1976              		.loc 1 54 9 view .LVU756
  54:../Common/IQMath/ti/_IQNexp.c ****         iq31Fractional |= 0x80000000;
 1977              		.loc 1 54 24 is_stmt 0 view .LVU757
 1978 004c 4FEAC01C 		lsl	ip, r0, #7
 1979              	.LVL286:
  55:../Common/IQMath/ti/_IQNexp.c ****     
 1980              		.loc 1 55 9 is_stmt 1 view .LVU758
  55:../Common/IQMath/ti/_IQNexp.c ****     
 1981              		.loc 1 55 24 is_stmt 0 view .LVU759
 1982 0050 4CF0004C 		orr	ip, ip, #-2147483648
 1983              	.LVL287:
  58:../Common/IQMath/ti/_IQNexp.c ****     
 1984              		.loc 1 58 9 is_stmt 1 view .LVU760
  58:../Common/IQMath/ti/_IQNexp.c ****     
 1985              		.loc 1 58 46 is_stmt 0 view .LVU761
 1986 0054 0016     		asrs	r0, r0, #24
 1987              	.LVL288:
  58:../Common/IQMath/ti/_IQNexp.c ****     
 1988              		.loc 1 58 20 view .LVU762
 1989 0056 0130     		adds	r0, r0, #1
 1990              	.LVL289:
  61:../Common/IQMath/ti/_IQNexp.c ****         uiqNIntegerResult = iqNLookupTable[i16Integer];
 1991              		.loc 1 61 9 is_stmt 1 view .LVU763
  61:../Common/IQMath/ti/_IQNexp.c ****         uiqNIntegerResult = iqNLookupTable[i16Integer];
 1992              		.loc 1 61 20 is_stmt 0 view .LVU764
 1993 0058 1844     		add	r0, r0, r3
 1994              	.LVL290:
ARM GAS  C:\Users\57308\AppData\Local\Temp\ccyuPR38.s 			page 56


  62:../Common/IQMath/ti/_IQNexp.c ****         
 1995              		.loc 1 62 9 is_stmt 1 view .LVU765
  62:../Common/IQMath/ti/_IQNexp.c ****         
 1996              		.loc 1 62 43 is_stmt 0 view .LVU766
 1997 005a 1C4B     		ldr	r3, .L83+12
 1998              	.LVL291:
  62:../Common/IQMath/ti/_IQNexp.c ****         
 1999              		.loc 1 62 27 view .LVU767
 2000 005c 53F82050 		ldr	r5, [r3, r0, lsl #2]
 2001              	.LVL292:
  65:../Common/IQMath/ti/_IQNexp.c ****             iq31Fractional += iq31_ln2;
 2002              		.loc 1 65 9 is_stmt 1 view .LVU768
  65:../Common/IQMath/ti/_IQNexp.c ****             iq31Fractional += iq31_ln2;
 2003              		.loc 1 65 12 is_stmt 0 view .LVU769
 2004 0060 1D4B     		ldr	r3, .L83+24
 2005 0062 9C45     		cmp	ip, r3
 2006 0064 EBDA     		bge	.L76
  66:../Common/IQMath/ti/_IQNexp.c ****             uiqNIntegerResult >>= 1;
 2007              		.loc 1 66 13 is_stmt 1 view .LVU770
  66:../Common/IQMath/ti/_IQNexp.c ****             uiqNIntegerResult >>= 1;
 2008              		.loc 1 66 28 is_stmt 0 view .LVU771
 2009 0066 0CF1B14C 		add	ip, ip, #1484783616
 2010              	.LVL293:
  66:../Common/IQMath/ti/_IQNexp.c ****             uiqNIntegerResult >>= 1;
 2011              		.loc 1 66 28 view .LVU772
 2012 006a 0CF5641C 		add	ip, ip, #3735552
 2013              	.LVL294:
  66:../Common/IQMath/ti/_IQNexp.c ****             uiqNIntegerResult >>= 1;
 2014              		.loc 1 66 28 view .LVU773
 2015 006e 0CF6FC3C 		addw	ip, ip, #3068
 2016              	.LVL295:
  67:../Common/IQMath/ti/_IQNexp.c ****         }
 2017              		.loc 1 67 13 is_stmt 1 view .LVU774
  67:../Common/IQMath/ti/_IQNexp.c ****         }
 2018              		.loc 1 67 31 is_stmt 0 view .LVU775
 2019 0072 6D08     		lsrs	r5, r5, #1
 2020              	.LVL296:
  67:../Common/IQMath/ti/_IQNexp.c ****         }
 2021              		.loc 1 67 31 view .LVU776
 2022 0074 E3E7     		b	.L76
 2023              	.LVL297:
 2024              	.L78:
 114:../Common/IQMath/ti/_IQNexp.c ****         uiq30FractionalResult += *piq30Coeffs++;
 2025              		.loc 1 114 9 is_stmt 1 view .LVU777
 2026              	.LBB126:
 2027              	.LBI126:
 233:../Common/IQMath/ti/./support/RTS_support.h **** {
 2028              		.loc 2 233 28 view .LVU778
 2029              	.LBB127:
 235:../Common/IQMath/ti/./support/RTS_support.h **** }
 2030              		.loc 2 235 5 view .LVU779
 235:../Common/IQMath/ti/./support/RTS_support.h **** }
 2031              		.loc 2 235 28 is_stmt 0 view .LVU780
 2032 0076 4FEAEC72 		asr	r2, ip, #31
 235:../Common/IQMath/ti/./support/RTS_support.h **** }
 2033              		.loc 2 235 49 view .LVU781
 2034 007a D917     		asrs	r1, r3, #31
ARM GAS  C:\Users\57308\AppData\Local\Temp\ccyuPR38.s 			page 57


 235:../Common/IQMath/ti/./support/RTS_support.h **** }
 2035              		.loc 2 235 47 view .LVU782
 2036 007c 0CFB01F1 		mul	r1, ip, r1
 2037 0080 03FB0212 		mla	r2, r3, r2, r1
 2038 0084 ACFB0331 		umull	r3, r1, ip, r3
 2039              	.LVL298:
 235:../Common/IQMath/ti/./support/RTS_support.h **** }
 2040              		.loc 2 235 47 view .LVU783
 2041 0088 0A44     		add	r2, r2, r1
 235:../Common/IQMath/ti/./support/RTS_support.h **** }
 2042              		.loc 2 235 69 view .LVU784
 2043 008a DB0F     		lsrs	r3, r3, #31
 2044 008c 43EA4203 		orr	r3, r3, r2, lsl #1
 2045              	.LVL299:
 235:../Common/IQMath/ti/./support/RTS_support.h **** }
 2046              		.loc 2 235 69 view .LVU785
 2047              	.LBE127:
 2048              	.LBE126:
 115:../Common/IQMath/ti/_IQNexp.c ****     }
 2049              		.loc 1 115 9 is_stmt 1 view .LVU786
 115:../Common/IQMath/ti/_IQNexp.c ****     }
 2050              		.loc 1 115 46 is_stmt 0 view .LVU787
 2051 0090 0246     		mov	r2, r0
 2052              	.LVL300:
 115:../Common/IQMath/ti/_IQNexp.c ****     }
 2053              		.loc 1 115 34 view .LVU788
 2054 0092 52F8041B 		ldr	r1, [r2], #4
 2055              	.LVL301:
 115:../Common/IQMath/ti/_IQNexp.c ****     }
 2056              		.loc 1 115 31 view .LVU789
 2057 0096 0B44     		add	r3, r3, r1
 2058              	.LVL302:
 113:../Common/IQMath/ti/_IQNexp.c ****         uiq30FractionalResult = __mpyf_l(iq31Fractional, uiq30FractionalResult);
 2059              		.loc 1 113 51 is_stmt 1 view .LVU790
 113:../Common/IQMath/ti/_IQNexp.c ****         uiq30FractionalResult = __mpyf_l(iq31Fractional, uiq30FractionalResult);
 2060              		.loc 1 113 59 is_stmt 0 view .LVU791
 2061 0098 013C     		subs	r4, r4, #1
 2062              	.LVL303:
 113:../Common/IQMath/ti/_IQNexp.c ****         uiq30FractionalResult = __mpyf_l(iq31Fractional, uiq30FractionalResult);
 2063              		.loc 1 113 59 view .LVU792
 2064 009a E4B2     		uxtb	r4, r4
 2065              	.LVL304:
 115:../Common/IQMath/ti/_IQNexp.c ****     }
 2066              		.loc 1 115 46 view .LVU793
 2067 009c 1046     		mov	r0, r2
 2068              	.LVL305:
 2069              	.L77:
 113:../Common/IQMath/ti/_IQNexp.c ****         uiq30FractionalResult = __mpyf_l(iq31Fractional, uiq30FractionalResult);
 2070              		.loc 1 113 37 is_stmt 1 view .LVU794
 113:../Common/IQMath/ti/_IQNexp.c ****         uiq30FractionalResult = __mpyf_l(iq31Fractional, uiq30FractionalResult);
 2071              		.loc 1 113 5 is_stmt 0 view .LVU795
 2072 009e 002C     		cmp	r4, #0
 2073 00a0 E9D1     		bne	.L78
 119:../Common/IQMath/ti/_IQNexp.c ****     
 2074              		.loc 1 119 5 is_stmt 1 view .LVU796
 119:../Common/IQMath/ti/_IQNexp.c ****     
 2075              		.loc 1 119 27 is_stmt 0 view .LVU797
ARM GAS  C:\Users\57308\AppData\Local\Temp\ccyuPR38.s 			page 58


 2076 00a2 5B00     		lsls	r3, r3, #1
 2077              	.LVL306:
 125:../Common/IQMath/ti/_IQNexp.c ****     
 2078              		.loc 1 125 5 is_stmt 1 view .LVU798
 2079              	.LBB128:
 2080              	.LBI128:
 254:../Common/IQMath/ti/./support/RTS_support.h **** {
 2081              		.loc 2 254 29 view .LVU799
 2082              	.LBB129:
 2083              		.loc 2 256 5 view .LVU800
 2084              		.loc 2 256 49 is_stmt 0 view .LVU801
 2085 00a4 A5FB0353 		umull	r5, r3, r5, r3
 2086              	.LVL307:
 2087              		.loc 2 256 72 view .LVU802
 2088 00a8 ED0F     		lsrs	r5, r5, #31
 2089 00aa 45EA4305 		orr	r5, r5, r3, lsl #1
 2090              	.LVL308:
 2091              		.loc 2 256 72 view .LVU803
 2092              	.LBE129:
 2093              	.LBE128:
 131:../Common/IQMath/ti/_IQNexp.c ****     
 2094              		.loc 1 131 5 is_stmt 1 view .LVU804
 131:../Common/IQMath/ti/_IQNexp.c ****     
 2095              		.loc 1 131 5 is_stmt 0 view .LVU805
 2096              	.LBE130:
 2097              	.LBE133:
  72:../Common/IQMath/ti/./support/RTS_support.h **** }
 2098              		.loc 2 72 5 is_stmt 1 view .LVU806
 2099              	.LBB134:
 2100              	.LBB131:
 134:../Common/IQMath/ti/_IQNexp.c ****     uiqNResult >>= 1;
 2101              		.loc 1 134 5 view .LVU807
 134:../Common/IQMath/ti/_IQNexp.c ****     uiqNResult >>= 1;
 2102              		.loc 1 134 15 is_stmt 0 view .LVU808
 2103 00ae 0135     		adds	r5, r5, #1
 2104              	.LVL309:
 135:../Common/IQMath/ti/_IQNexp.c ****     
 2105              		.loc 1 135 5 is_stmt 1 view .LVU809
 135:../Common/IQMath/ti/_IQNexp.c ****     
 2106              		.loc 1 135 16 is_stmt 0 view .LVU810
 2107 00b0 6808     		lsrs	r0, r5, #1
 2108              	.LVL310:
 137:../Common/IQMath/ti/_IQNexp.c **** }
 2109              		.loc 1 137 5 is_stmt 1 view .LVU811
 2110              	.L73:
 137:../Common/IQMath/ti/_IQNexp.c **** }
 2111              		.loc 1 137 5 is_stmt 0 view .LVU812
 2112              	.LBE131:
 2113              	.LBE134:
 216:../Common/IQMath/ti/_IQNexp.c **** }
 2114              		.loc 1 216 1 view .LVU813
 2115 00b2 30BC     		pop	{r4, r5}
 2116              	.LCFI19:
 2117              		.cfi_remember_state
 2118              		.cfi_restore 5
 2119              		.cfi_restore 4
 2120              		.cfi_def_cfa_offset 0
ARM GAS  C:\Users\57308\AppData\Local\Temp\ccyuPR38.s 			page 59


 2121 00b4 7047     		bx	lr
 2122              	.LVL311:
 2123              	.L79:
 2124              	.LCFI20:
 2125              		.cfi_restore_state
 2126              	.LBB135:
 2127              	.LBB132:
  49:../Common/IQMath/ti/_IQNexp.c ****         }
 2128              		.loc 1 49 20 view .LVU814
 2129 00b6 0020     		movs	r0, #0
 2130              	.LVL312:
  49:../Common/IQMath/ti/_IQNexp.c ****         }
 2131              		.loc 1 49 20 view .LVU815
 2132 00b8 FBE7     		b	.L73
 2133              	.LVL313:
 2134              	.L80:
  74:../Common/IQMath/ti/_IQNexp.c ****         }
 2135              		.loc 1 74 20 view .LVU816
 2136 00ba 6FF00040 		mvn	r0, #-2147483648
 2137              	.LVL314:
  74:../Common/IQMath/ti/_IQNexp.c ****         }
 2138              		.loc 1 74 20 view .LVU817
 2139              	.LBE132:
 2140              	.LBE135:
 215:../Common/IQMath/ti/_IQNexp.c **** }
 2141              		.loc 1 215 12 view .LVU818
 2142 00be F8E7     		b	.L73
 2143              	.L84:
 2144              		.align	2
 2145              	.L83:
 2146 00c0 00000000 		.word	_IQNexp_offset
 2147 00c4 00000000 		.word	_IQNexp_min
 2148 00c8 00000000 		.word	_IQNexp_max
 2149 00cc 00000000 		.word	_IQNexp_lookup24
 2150 00d0 FB0BB958 		.word	1488522235
 2151 00d4 00000000 		.word	_IQ30exp_coeffs
 2152 00d8 05F446A7 		.word	-1488522235
 2153              		.cfi_endproc
 2154              	.LFE268:
 2156              		.section	.text._IQ23exp,"ax",%progbits
 2157              		.align	1
 2158              		.global	_IQ23exp
 2159              		.syntax unified
 2160              		.thumb
 2161              		.thumb_func
 2163              	_IQ23exp:
 2164              	.LVL315:
 2165              	.LFB269:
 217:../Common/IQMath/ti/_IQNexp.c **** /**
 218:../Common/IQMath/ti/_IQNexp.c ****  * @brief Computes the exponential of an IQ23 input.
 219:../Common/IQMath/ti/_IQNexp.c ****  *
 220:../Common/IQMath/ti/_IQNexp.c ****  * @param a               IQ23 type input.
 221:../Common/IQMath/ti/_IQNexp.c ****  *
 222:../Common/IQMath/ti/_IQNexp.c ****  * @return                IQ23 type result of exponential.
 223:../Common/IQMath/ti/_IQNexp.c ****  */
 224:../Common/IQMath/ti/_IQNexp.c **** int32_t _IQ23exp(int32_t a)
 225:../Common/IQMath/ti/_IQNexp.c **** {
ARM GAS  C:\Users\57308\AppData\Local\Temp\ccyuPR38.s 			page 60


 2166              		.loc 1 225 1 is_stmt 1 view -0
 2167              		.cfi_startproc
 2168              		@ args = 0, pretend = 0, frame = 0
 2169              		@ frame_needed = 0, uses_anonymous_args = 0
 2170              		@ link register save eliminated.
 2171              		.loc 1 225 1 is_stmt 0 view .LVU820
 2172 0000 30B4     		push	{r4, r5}
 2173              	.LCFI21:
 2174              		.cfi_def_cfa_offset 8
 2175              		.cfi_offset 4, -8
 2176              		.cfi_offset 5, -4
 226:../Common/IQMath/ti/_IQNexp.c ****     return __IQNexp(a, _IQNexp_lookup23, _IQNexp_offset[23-1], _IQNexp_min[23-1], _IQNexp_max[23-1]
 2177              		.loc 1 226 5 is_stmt 1 view .LVU821
 2178              		.loc 1 226 12 is_stmt 0 view .LVU822
 2179 0002 2F4B     		ldr	r3, .L95
 2180 0004 93F85830 		ldrb	r3, [r3, #88]	@ zero_extendqisi2
 2181              		.loc 1 226 75 view .LVU823
 2182 0008 2E4A     		ldr	r2, .L95+4
 2183 000a 916D     		ldr	r1, [r2, #88]
 2184              		.loc 1 226 94 view .LVU824
 2185 000c 2E4A     		ldr	r2, .L95+8
 2186 000e 926D     		ldr	r2, [r2, #88]
 2187              	.LVL316:
 2188              	.LBB142:
 2189              	.LBI142:
  32:../Common/IQMath/ti/_IQNexp.c **** {
 2190              		.loc 1 32 30 is_stmt 1 view .LVU825
 2191              	.LBB143:
  34:../Common/IQMath/ti/_IQNexp.c ****     int_fast16_t i16Integer;
 2192              		.loc 1 34 5 view .LVU826
  35:../Common/IQMath/ti/_IQNexp.c ****     uint_fast16_t ui16IntState;
 2193              		.loc 1 35 5 view .LVU827
  36:../Common/IQMath/ti/_IQNexp.c ****     uint_fast16_t ui16MPYState;
 2194              		.loc 1 36 5 view .LVU828
  37:../Common/IQMath/ti/_IQNexp.c ****     int_fast32_t iq31Fractional;
 2195              		.loc 1 37 5 view .LVU829
  38:../Common/IQMath/ti/_IQNexp.c ****     uint_fast32_t uiqNResult;
 2196              		.loc 1 38 5 view .LVU830
  39:../Common/IQMath/ti/_IQNexp.c ****     uint_fast32_t uiqNIntegerResult;
 2197              		.loc 1 39 5 view .LVU831
  40:../Common/IQMath/ti/_IQNexp.c ****     uint_fast32_t uiq30FractionalResult;
 2198              		.loc 1 40 5 view .LVU832
  41:../Common/IQMath/ti/_IQNexp.c ****     uint_fast32_t uiq31FractionalResult;
 2199              		.loc 1 41 5 view .LVU833
  42:../Common/IQMath/ti/_IQNexp.c ****     const uint_fast32_t *piq30Coeffs;
 2200              		.loc 1 42 5 view .LVU834
  43:../Common/IQMath/ti/_IQNexp.c ****     
 2201              		.loc 1 43 5 view .LVU835
  46:../Common/IQMath/ti/_IQNexp.c ****         /* Check for the minimum value. */
 2202              		.loc 1 46 5 view .LVU836
  46:../Common/IQMath/ti/_IQNexp.c ****         /* Check for the minimum value. */
 2203              		.loc 1 46 8 is_stmt 0 view .LVU837
 2204 0010 0028     		cmp	r0, #0
  46:../Common/IQMath/ti/_IQNexp.c ****         /* Check for the minimum value. */
 2205              		.loc 1 46 8 view .LVU838
 2206 0012 19DB     		blt	.L94
  73:../Common/IQMath/ti/_IQNexp.c ****             return INT32_MAX;
ARM GAS  C:\Users\57308\AppData\Local\Temp\ccyuPR38.s 			page 61


 2207              		.loc 1 73 9 is_stmt 1 view .LVU839
  73:../Common/IQMath/ti/_IQNexp.c ****             return INT32_MAX;
 2208              		.loc 1 73 12 is_stmt 0 view .LVU840
 2209 0014 8242     		cmp	r2, r0
 2210 0016 50DB     		blt	.L92
  78:../Common/IQMath/ti/_IQNexp.c ****         iq31Fractional <<= (31 - q_value);
 2211              		.loc 1 78 9 is_stmt 1 view .LVU841
 2212              	.LVL317:
  79:../Common/IQMath/ti/_IQNexp.c ****         iq31Fractional &= 0x7fffffff;
 2213              		.loc 1 79 9 view .LVU842
  79:../Common/IQMath/ti/_IQNexp.c ****         iq31Fractional &= 0x7fffffff;
 2214              		.loc 1 79 24 is_stmt 0 view .LVU843
 2215 0018 4FEA002C 		lsl	ip, r0, #8
 2216              	.LVL318:
  80:../Common/IQMath/ti/_IQNexp.c ****     
 2217              		.loc 1 80 9 is_stmt 1 view .LVU844
  80:../Common/IQMath/ti/_IQNexp.c ****     
 2218              		.loc 1 80 24 is_stmt 0 view .LVU845
 2219 001c 2CF0004C 		bic	ip, ip, #-2147483648
 2220              	.LVL319:
  83:../Common/IQMath/ti/_IQNexp.c ****     
 2221              		.loc 1 83 9 is_stmt 1 view .LVU846
  86:../Common/IQMath/ti/_IQNexp.c ****         uiqNIntegerResult = iqNLookupTable[i16Integer];
 2222              		.loc 1 86 9 view .LVU847
  86:../Common/IQMath/ti/_IQNexp.c ****         uiqNIntegerResult = iqNLookupTable[i16Integer];
 2223              		.loc 1 86 20 is_stmt 0 view .LVU848
 2224 0020 03EBE050 		add	r0, r3, r0, asr #23
 2225              	.LVL320:
  87:../Common/IQMath/ti/_IQNexp.c ****         
 2226              		.loc 1 87 9 is_stmt 1 view .LVU849
  87:../Common/IQMath/ti/_IQNexp.c ****         
 2227              		.loc 1 87 43 is_stmt 0 view .LVU850
 2228 0024 294B     		ldr	r3, .L95+12
 2229              	.LVL321:
  87:../Common/IQMath/ti/_IQNexp.c ****         
 2230              		.loc 1 87 27 view .LVU851
 2231 0026 53F82050 		ldr	r5, [r3, r0, lsl #2]
 2232              	.LVL322:
  90:../Common/IQMath/ti/_IQNexp.c ****             iq31Fractional -= iq31_ln2;
 2233              		.loc 1 90 9 is_stmt 1 view .LVU852
  90:../Common/IQMath/ti/_IQNexp.c ****             iq31Fractional -= iq31_ln2;
 2234              		.loc 1 90 12 is_stmt 0 view .LVU853
 2235 002a 294B     		ldr	r3, .L95+16
 2236 002c 9C45     		cmp	ip, r3
 2237 002e 06DD     		ble	.L88
  91:../Common/IQMath/ti/_IQNexp.c ****             uiqNIntegerResult <<= 1;
 2238              		.loc 1 91 13 is_stmt 1 view .LVU854
  91:../Common/IQMath/ti/_IQNexp.c ****             uiqNIntegerResult <<= 1;
 2239              		.loc 1 91 28 is_stmt 0 view .LVU855
 2240 0030 ACF1B14C 		sub	ip, ip, #1484783616
 2241              	.LVL323:
  91:../Common/IQMath/ti/_IQNexp.c ****             uiqNIntegerResult <<= 1;
 2242              		.loc 1 91 28 view .LVU856
 2243 0034 ACF5641C 		sub	ip, ip, #3735552
 2244              	.LVL324:
  91:../Common/IQMath/ti/_IQNexp.c ****             uiqNIntegerResult <<= 1;
 2245              		.loc 1 91 28 view .LVU857
ARM GAS  C:\Users\57308\AppData\Local\Temp\ccyuPR38.s 			page 62


 2246 0038 ACF6FC3C 		subw	ip, ip, #3068
 2247              	.LVL325:
  92:../Common/IQMath/ti/_IQNexp.c ****         }
 2248              		.loc 1 92 13 is_stmt 1 view .LVU858
  92:../Common/IQMath/ti/_IQNexp.c ****         }
 2249              		.loc 1 92 31 is_stmt 0 view .LVU859
 2250 003c 6D00     		lsls	r5, r5, #1
 2251              	.LVL326:
 2252              	.L88:
 102:../Common/IQMath/ti/_IQNexp.c ****     
 2253              		.loc 1 102 5 is_stmt 1 view .LVU860
 102:../Common/IQMath/ti/_IQNexp.c ****     
 2254              		.loc 1 102 5 is_stmt 0 view .LVU861
 2255              	.LBE143:
 2256              	.LBE142:
  28:../Common/IQMath/ti/./support/RTS_support.h **** }
 2257              		.loc 2 28 5 is_stmt 1 view .LVU862
 2258              	.LBB151:
 2259              	.LBB148:
 109:../Common/IQMath/ti/_IQNexp.c ****     uiq30FractionalResult = *piq30Coeffs++;
 2260              		.loc 1 109 5 view .LVU863
 110:../Common/IQMath/ti/_IQNexp.c ****     
 2261              		.loc 1 110 5 view .LVU864
 110:../Common/IQMath/ti/_IQNexp.c ****     
 2262              		.loc 1 110 27 is_stmt 0 view .LVU865
 2263 003e 2548     		ldr	r0, .L95+20
 2264              	.LVL327:
 110:../Common/IQMath/ti/_IQNexp.c ****     
 2265              		.loc 1 110 27 view .LVU866
 2266 0040 50F8043B 		ldr	r3, [r0], #4
 2267              	.LVL328:
 113:../Common/IQMath/ti/_IQNexp.c ****         uiq30FractionalResult = __mpyf_l(iq31Fractional, uiq30FractionalResult);
 2268              		.loc 1 113 5 is_stmt 1 view .LVU867
 113:../Common/IQMath/ti/_IQNexp.c ****         uiq30FractionalResult = __mpyf_l(iq31Fractional, uiq30FractionalResult);
 2269              		.loc 1 113 19 is_stmt 0 view .LVU868
 2270 0044 0A24     		movs	r4, #10
 113:../Common/IQMath/ti/_IQNexp.c ****         uiq30FractionalResult = __mpyf_l(iq31Fractional, uiq30FractionalResult);
 2271              		.loc 1 113 5 view .LVU869
 2272 0046 2AE0     		b	.L89
 2273              	.LVL329:
 2274              	.L94:
  48:../Common/IQMath/ti/_IQNexp.c ****             return 0;
 2275              		.loc 1 48 9 is_stmt 1 view .LVU870
  48:../Common/IQMath/ti/_IQNexp.c ****             return 0;
 2276              		.loc 1 48 12 is_stmt 0 view .LVU871
 2277 0048 8142     		cmp	r1, r0
 2278 004a 34DC     		bgt	.L91
  53:../Common/IQMath/ti/_IQNexp.c ****         iq31Fractional <<= (31 - q_value);
 2279              		.loc 1 53 9 is_stmt 1 view .LVU872
 2280              	.LVL330:
  54:../Common/IQMath/ti/_IQNexp.c ****         iq31Fractional |= 0x80000000;
 2281              		.loc 1 54 9 view .LVU873
  54:../Common/IQMath/ti/_IQNexp.c ****         iq31Fractional |= 0x80000000;
 2282              		.loc 1 54 24 is_stmt 0 view .LVU874
 2283 004c 4FEA002C 		lsl	ip, r0, #8
 2284              	.LVL331:
  55:../Common/IQMath/ti/_IQNexp.c ****     
ARM GAS  C:\Users\57308\AppData\Local\Temp\ccyuPR38.s 			page 63


 2285              		.loc 1 55 9 is_stmt 1 view .LVU875
  55:../Common/IQMath/ti/_IQNexp.c ****     
 2286              		.loc 1 55 24 is_stmt 0 view .LVU876
 2287 0050 4CF0004C 		orr	ip, ip, #-2147483648
 2288              	.LVL332:
  58:../Common/IQMath/ti/_IQNexp.c ****     
 2289              		.loc 1 58 9 is_stmt 1 view .LVU877
  58:../Common/IQMath/ti/_IQNexp.c ****     
 2290              		.loc 1 58 46 is_stmt 0 view .LVU878
 2291 0054 C015     		asrs	r0, r0, #23
 2292              	.LVL333:
  58:../Common/IQMath/ti/_IQNexp.c ****     
 2293              		.loc 1 58 20 view .LVU879
 2294 0056 0130     		adds	r0, r0, #1
 2295              	.LVL334:
  61:../Common/IQMath/ti/_IQNexp.c ****         uiqNIntegerResult = iqNLookupTable[i16Integer];
 2296              		.loc 1 61 9 is_stmt 1 view .LVU880
  61:../Common/IQMath/ti/_IQNexp.c ****         uiqNIntegerResult = iqNLookupTable[i16Integer];
 2297              		.loc 1 61 20 is_stmt 0 view .LVU881
 2298 0058 1844     		add	r0, r0, r3
 2299              	.LVL335:
  62:../Common/IQMath/ti/_IQNexp.c ****         
 2300              		.loc 1 62 9 is_stmt 1 view .LVU882
  62:../Common/IQMath/ti/_IQNexp.c ****         
 2301              		.loc 1 62 43 is_stmt 0 view .LVU883
 2302 005a 1C4B     		ldr	r3, .L95+12
 2303              	.LVL336:
  62:../Common/IQMath/ti/_IQNexp.c ****         
 2304              		.loc 1 62 27 view .LVU884
 2305 005c 53F82050 		ldr	r5, [r3, r0, lsl #2]
 2306              	.LVL337:
  65:../Common/IQMath/ti/_IQNexp.c ****             iq31Fractional += iq31_ln2;
 2307              		.loc 1 65 9 is_stmt 1 view .LVU885
  65:../Common/IQMath/ti/_IQNexp.c ****             iq31Fractional += iq31_ln2;
 2308              		.loc 1 65 12 is_stmt 0 view .LVU886
 2309 0060 1D4B     		ldr	r3, .L95+24
 2310 0062 9C45     		cmp	ip, r3
 2311 0064 EBDA     		bge	.L88
  66:../Common/IQMath/ti/_IQNexp.c ****             uiqNIntegerResult >>= 1;
 2312              		.loc 1 66 13 is_stmt 1 view .LVU887
  66:../Common/IQMath/ti/_IQNexp.c ****             uiqNIntegerResult >>= 1;
 2313              		.loc 1 66 28 is_stmt 0 view .LVU888
 2314 0066 0CF1B14C 		add	ip, ip, #1484783616
 2315              	.LVL338:
  66:../Common/IQMath/ti/_IQNexp.c ****             uiqNIntegerResult >>= 1;
 2316              		.loc 1 66 28 view .LVU889
 2317 006a 0CF5641C 		add	ip, ip, #3735552
 2318              	.LVL339:
  66:../Common/IQMath/ti/_IQNexp.c ****             uiqNIntegerResult >>= 1;
 2319              		.loc 1 66 28 view .LVU890
 2320 006e 0CF6FC3C 		addw	ip, ip, #3068
 2321              	.LVL340:
  67:../Common/IQMath/ti/_IQNexp.c ****         }
 2322              		.loc 1 67 13 is_stmt 1 view .LVU891
  67:../Common/IQMath/ti/_IQNexp.c ****         }
 2323              		.loc 1 67 31 is_stmt 0 view .LVU892
 2324 0072 6D08     		lsrs	r5, r5, #1
ARM GAS  C:\Users\57308\AppData\Local\Temp\ccyuPR38.s 			page 64


 2325              	.LVL341:
  67:../Common/IQMath/ti/_IQNexp.c ****         }
 2326              		.loc 1 67 31 view .LVU893
 2327 0074 E3E7     		b	.L88
 2328              	.LVL342:
 2329              	.L90:
 114:../Common/IQMath/ti/_IQNexp.c ****         uiq30FractionalResult += *piq30Coeffs++;
 2330              		.loc 1 114 9 is_stmt 1 view .LVU894
 2331              	.LBB144:
 2332              	.LBI144:
 233:../Common/IQMath/ti/./support/RTS_support.h **** {
 2333              		.loc 2 233 28 view .LVU895
 2334              	.LBB145:
 235:../Common/IQMath/ti/./support/RTS_support.h **** }
 2335              		.loc 2 235 5 view .LVU896
 235:../Common/IQMath/ti/./support/RTS_support.h **** }
 2336              		.loc 2 235 28 is_stmt 0 view .LVU897
 2337 0076 4FEAEC72 		asr	r2, ip, #31
 235:../Common/IQMath/ti/./support/RTS_support.h **** }
 2338              		.loc 2 235 49 view .LVU898
 2339 007a D917     		asrs	r1, r3, #31
 235:../Common/IQMath/ti/./support/RTS_support.h **** }
 2340              		.loc 2 235 47 view .LVU899
 2341 007c 0CFB01F1 		mul	r1, ip, r1
 2342 0080 03FB0212 		mla	r2, r3, r2, r1
 2343 0084 ACFB0331 		umull	r3, r1, ip, r3
 2344              	.LVL343:
 235:../Common/IQMath/ti/./support/RTS_support.h **** }
 2345              		.loc 2 235 47 view .LVU900
 2346 0088 0A44     		add	r2, r2, r1
 235:../Common/IQMath/ti/./support/RTS_support.h **** }
 2347              		.loc 2 235 69 view .LVU901
 2348 008a DB0F     		lsrs	r3, r3, #31
 2349 008c 43EA4203 		orr	r3, r3, r2, lsl #1
 2350              	.LVL344:
 235:../Common/IQMath/ti/./support/RTS_support.h **** }
 2351              		.loc 2 235 69 view .LVU902
 2352              	.LBE145:
 2353              	.LBE144:
 115:../Common/IQMath/ti/_IQNexp.c ****     }
 2354              		.loc 1 115 9 is_stmt 1 view .LVU903
 115:../Common/IQMath/ti/_IQNexp.c ****     }
 2355              		.loc 1 115 46 is_stmt 0 view .LVU904
 2356 0090 0246     		mov	r2, r0
 2357              	.LVL345:
 115:../Common/IQMath/ti/_IQNexp.c ****     }
 2358              		.loc 1 115 34 view .LVU905
 2359 0092 52F8041B 		ldr	r1, [r2], #4
 2360              	.LVL346:
 115:../Common/IQMath/ti/_IQNexp.c ****     }
 2361              		.loc 1 115 31 view .LVU906
 2362 0096 0B44     		add	r3, r3, r1
 2363              	.LVL347:
 113:../Common/IQMath/ti/_IQNexp.c ****         uiq30FractionalResult = __mpyf_l(iq31Fractional, uiq30FractionalResult);
 2364              		.loc 1 113 51 is_stmt 1 view .LVU907
 113:../Common/IQMath/ti/_IQNexp.c ****         uiq30FractionalResult = __mpyf_l(iq31Fractional, uiq30FractionalResult);
 2365              		.loc 1 113 59 is_stmt 0 view .LVU908
ARM GAS  C:\Users\57308\AppData\Local\Temp\ccyuPR38.s 			page 65


 2366 0098 013C     		subs	r4, r4, #1
 2367              	.LVL348:
 113:../Common/IQMath/ti/_IQNexp.c ****         uiq30FractionalResult = __mpyf_l(iq31Fractional, uiq30FractionalResult);
 2368              		.loc 1 113 59 view .LVU909
 2369 009a E4B2     		uxtb	r4, r4
 2370              	.LVL349:
 115:../Common/IQMath/ti/_IQNexp.c ****     }
 2371              		.loc 1 115 46 view .LVU910
 2372 009c 1046     		mov	r0, r2
 2373              	.LVL350:
 2374              	.L89:
 113:../Common/IQMath/ti/_IQNexp.c ****         uiq30FractionalResult = __mpyf_l(iq31Fractional, uiq30FractionalResult);
 2375              		.loc 1 113 37 is_stmt 1 view .LVU911
 113:../Common/IQMath/ti/_IQNexp.c ****         uiq30FractionalResult = __mpyf_l(iq31Fractional, uiq30FractionalResult);
 2376              		.loc 1 113 5 is_stmt 0 view .LVU912
 2377 009e 002C     		cmp	r4, #0
 2378 00a0 E9D1     		bne	.L90
 119:../Common/IQMath/ti/_IQNexp.c ****     
 2379              		.loc 1 119 5 is_stmt 1 view .LVU913
 119:../Common/IQMath/ti/_IQNexp.c ****     
 2380              		.loc 1 119 27 is_stmt 0 view .LVU914
 2381 00a2 5B00     		lsls	r3, r3, #1
 2382              	.LVL351:
 125:../Common/IQMath/ti/_IQNexp.c ****     
 2383              		.loc 1 125 5 is_stmt 1 view .LVU915
 2384              	.LBB146:
 2385              	.LBI146:
 254:../Common/IQMath/ti/./support/RTS_support.h **** {
 2386              		.loc 2 254 29 view .LVU916
 2387              	.LBB147:
 2388              		.loc 2 256 5 view .LVU917
 2389              		.loc 2 256 49 is_stmt 0 view .LVU918
 2390 00a4 A5FB0353 		umull	r5, r3, r5, r3
 2391              	.LVL352:
 2392              		.loc 2 256 72 view .LVU919
 2393 00a8 ED0F     		lsrs	r5, r5, #31
 2394 00aa 45EA4305 		orr	r5, r5, r3, lsl #1
 2395              	.LVL353:
 2396              		.loc 2 256 72 view .LVU920
 2397              	.LBE147:
 2398              	.LBE146:
 131:../Common/IQMath/ti/_IQNexp.c ****     
 2399              		.loc 1 131 5 is_stmt 1 view .LVU921
 131:../Common/IQMath/ti/_IQNexp.c ****     
 2400              		.loc 1 131 5 is_stmt 0 view .LVU922
 2401              	.LBE148:
 2402              	.LBE151:
  72:../Common/IQMath/ti/./support/RTS_support.h **** }
 2403              		.loc 2 72 5 is_stmt 1 view .LVU923
 2404              	.LBB152:
 2405              	.LBB149:
 134:../Common/IQMath/ti/_IQNexp.c ****     uiqNResult >>= 1;
 2406              		.loc 1 134 5 view .LVU924
 134:../Common/IQMath/ti/_IQNexp.c ****     uiqNResult >>= 1;
 2407              		.loc 1 134 15 is_stmt 0 view .LVU925
 2408 00ae 0135     		adds	r5, r5, #1
 2409              	.LVL354:
ARM GAS  C:\Users\57308\AppData\Local\Temp\ccyuPR38.s 			page 66


 135:../Common/IQMath/ti/_IQNexp.c ****     
 2410              		.loc 1 135 5 is_stmt 1 view .LVU926
 135:../Common/IQMath/ti/_IQNexp.c ****     
 2411              		.loc 1 135 16 is_stmt 0 view .LVU927
 2412 00b0 6808     		lsrs	r0, r5, #1
 2413              	.LVL355:
 137:../Common/IQMath/ti/_IQNexp.c **** }
 2414              		.loc 1 137 5 is_stmt 1 view .LVU928
 2415              	.L85:
 137:../Common/IQMath/ti/_IQNexp.c **** }
 2416              		.loc 1 137 5 is_stmt 0 view .LVU929
 2417              	.LBE149:
 2418              	.LBE152:
 227:../Common/IQMath/ti/_IQNexp.c **** }
 2419              		.loc 1 227 1 view .LVU930
 2420 00b2 30BC     		pop	{r4, r5}
 2421              	.LCFI22:
 2422              		.cfi_remember_state
 2423              		.cfi_restore 5
 2424              		.cfi_restore 4
 2425              		.cfi_def_cfa_offset 0
 2426 00b4 7047     		bx	lr
 2427              	.LVL356:
 2428              	.L91:
 2429              	.LCFI23:
 2430              		.cfi_restore_state
 2431              	.LBB153:
 2432              	.LBB150:
  49:../Common/IQMath/ti/_IQNexp.c ****         }
 2433              		.loc 1 49 20 view .LVU931
 2434 00b6 0020     		movs	r0, #0
 2435              	.LVL357:
  49:../Common/IQMath/ti/_IQNexp.c ****         }
 2436              		.loc 1 49 20 view .LVU932
 2437 00b8 FBE7     		b	.L85
 2438              	.LVL358:
 2439              	.L92:
  74:../Common/IQMath/ti/_IQNexp.c ****         }
 2440              		.loc 1 74 20 view .LVU933
 2441 00ba 6FF00040 		mvn	r0, #-2147483648
 2442              	.LVL359:
  74:../Common/IQMath/ti/_IQNexp.c ****         }
 2443              		.loc 1 74 20 view .LVU934
 2444              	.LBE150:
 2445              	.LBE153:
 226:../Common/IQMath/ti/_IQNexp.c **** }
 2446              		.loc 1 226 12 view .LVU935
 2447 00be F8E7     		b	.L85
 2448              	.L96:
 2449              		.align	2
 2450              	.L95:
 2451 00c0 00000000 		.word	_IQNexp_offset
 2452 00c4 00000000 		.word	_IQNexp_min
 2453 00c8 00000000 		.word	_IQNexp_max
 2454 00cc 00000000 		.word	_IQNexp_lookup23
 2455 00d0 FB0BB958 		.word	1488522235
 2456 00d4 00000000 		.word	_IQ30exp_coeffs
ARM GAS  C:\Users\57308\AppData\Local\Temp\ccyuPR38.s 			page 67


 2457 00d8 05F446A7 		.word	-1488522235
 2458              		.cfi_endproc
 2459              	.LFE269:
 2461              		.section	.text._IQ22exp,"ax",%progbits
 2462              		.align	1
 2463              		.global	_IQ22exp
 2464              		.syntax unified
 2465              		.thumb
 2466              		.thumb_func
 2468              	_IQ22exp:
 2469              	.LVL360:
 2470              	.LFB270:
 228:../Common/IQMath/ti/_IQNexp.c **** /**
 229:../Common/IQMath/ti/_IQNexp.c ****  * @brief Computes the exponential of an IQ22 input.
 230:../Common/IQMath/ti/_IQNexp.c ****  *
 231:../Common/IQMath/ti/_IQNexp.c ****  * @param a               IQ22 type input.
 232:../Common/IQMath/ti/_IQNexp.c ****  *
 233:../Common/IQMath/ti/_IQNexp.c ****  * @return                IQ22 type result of exponential.
 234:../Common/IQMath/ti/_IQNexp.c ****  */
 235:../Common/IQMath/ti/_IQNexp.c **** int32_t _IQ22exp(int32_t a)
 236:../Common/IQMath/ti/_IQNexp.c **** {
 2471              		.loc 1 236 1 is_stmt 1 view -0
 2472              		.cfi_startproc
 2473              		@ args = 0, pretend = 0, frame = 0
 2474              		@ frame_needed = 0, uses_anonymous_args = 0
 2475              		@ link register save eliminated.
 2476              		.loc 1 236 1 is_stmt 0 view .LVU937
 2477 0000 30B4     		push	{r4, r5}
 2478              	.LCFI24:
 2479              		.cfi_def_cfa_offset 8
 2480              		.cfi_offset 4, -8
 2481              		.cfi_offset 5, -4
 237:../Common/IQMath/ti/_IQNexp.c ****     return __IQNexp(a, _IQNexp_lookup22, _IQNexp_offset[22-1], _IQNexp_min[22-1], _IQNexp_max[22-1]
 2482              		.loc 1 237 5 is_stmt 1 view .LVU938
 2483              		.loc 1 237 12 is_stmt 0 view .LVU939
 2484 0002 2F4B     		ldr	r3, .L107
 2485 0004 93F85430 		ldrb	r3, [r3, #84]	@ zero_extendqisi2
 2486              		.loc 1 237 75 view .LVU940
 2487 0008 2E4A     		ldr	r2, .L107+4
 2488 000a 516D     		ldr	r1, [r2, #84]
 2489              		.loc 1 237 94 view .LVU941
 2490 000c 2E4A     		ldr	r2, .L107+8
 2491 000e 526D     		ldr	r2, [r2, #84]
 2492              	.LVL361:
 2493              	.LBB160:
 2494              	.LBI160:
  32:../Common/IQMath/ti/_IQNexp.c **** {
 2495              		.loc 1 32 30 is_stmt 1 view .LVU942
 2496              	.LBB161:
  34:../Common/IQMath/ti/_IQNexp.c ****     int_fast16_t i16Integer;
 2497              		.loc 1 34 5 view .LVU943
  35:../Common/IQMath/ti/_IQNexp.c ****     uint_fast16_t ui16IntState;
 2498              		.loc 1 35 5 view .LVU944
  36:../Common/IQMath/ti/_IQNexp.c ****     uint_fast16_t ui16MPYState;
 2499              		.loc 1 36 5 view .LVU945
  37:../Common/IQMath/ti/_IQNexp.c ****     int_fast32_t iq31Fractional;
 2500              		.loc 1 37 5 view .LVU946
ARM GAS  C:\Users\57308\AppData\Local\Temp\ccyuPR38.s 			page 68


  38:../Common/IQMath/ti/_IQNexp.c ****     uint_fast32_t uiqNResult;
 2501              		.loc 1 38 5 view .LVU947
  39:../Common/IQMath/ti/_IQNexp.c ****     uint_fast32_t uiqNIntegerResult;
 2502              		.loc 1 39 5 view .LVU948
  40:../Common/IQMath/ti/_IQNexp.c ****     uint_fast32_t uiq30FractionalResult;
 2503              		.loc 1 40 5 view .LVU949
  41:../Common/IQMath/ti/_IQNexp.c ****     uint_fast32_t uiq31FractionalResult;
 2504              		.loc 1 41 5 view .LVU950
  42:../Common/IQMath/ti/_IQNexp.c ****     const uint_fast32_t *piq30Coeffs;
 2505              		.loc 1 42 5 view .LVU951
  43:../Common/IQMath/ti/_IQNexp.c ****     
 2506              		.loc 1 43 5 view .LVU952
  46:../Common/IQMath/ti/_IQNexp.c ****         /* Check for the minimum value. */
 2507              		.loc 1 46 5 view .LVU953
  46:../Common/IQMath/ti/_IQNexp.c ****         /* Check for the minimum value. */
 2508              		.loc 1 46 8 is_stmt 0 view .LVU954
 2509 0010 0028     		cmp	r0, #0
  46:../Common/IQMath/ti/_IQNexp.c ****         /* Check for the minimum value. */
 2510              		.loc 1 46 8 view .LVU955
 2511 0012 19DB     		blt	.L106
  73:../Common/IQMath/ti/_IQNexp.c ****             return INT32_MAX;
 2512              		.loc 1 73 9 is_stmt 1 view .LVU956
  73:../Common/IQMath/ti/_IQNexp.c ****             return INT32_MAX;
 2513              		.loc 1 73 12 is_stmt 0 view .LVU957
 2514 0014 8242     		cmp	r2, r0
 2515 0016 50DB     		blt	.L104
  78:../Common/IQMath/ti/_IQNexp.c ****         iq31Fractional <<= (31 - q_value);
 2516              		.loc 1 78 9 is_stmt 1 view .LVU958
 2517              	.LVL362:
  79:../Common/IQMath/ti/_IQNexp.c ****         iq31Fractional &= 0x7fffffff;
 2518              		.loc 1 79 9 view .LVU959
  79:../Common/IQMath/ti/_IQNexp.c ****         iq31Fractional &= 0x7fffffff;
 2519              		.loc 1 79 24 is_stmt 0 view .LVU960
 2520 0018 4FEA402C 		lsl	ip, r0, #9
 2521              	.LVL363:
  80:../Common/IQMath/ti/_IQNexp.c ****     
 2522              		.loc 1 80 9 is_stmt 1 view .LVU961
  80:../Common/IQMath/ti/_IQNexp.c ****     
 2523              		.loc 1 80 24 is_stmt 0 view .LVU962
 2524 001c 2CF0004C 		bic	ip, ip, #-2147483648
 2525              	.LVL364:
  83:../Common/IQMath/ti/_IQNexp.c ****     
 2526              		.loc 1 83 9 is_stmt 1 view .LVU963
  86:../Common/IQMath/ti/_IQNexp.c ****         uiqNIntegerResult = iqNLookupTable[i16Integer];
 2527              		.loc 1 86 9 view .LVU964
  86:../Common/IQMath/ti/_IQNexp.c ****         uiqNIntegerResult = iqNLookupTable[i16Integer];
 2528              		.loc 1 86 20 is_stmt 0 view .LVU965
 2529 0020 03EBA050 		add	r0, r3, r0, asr #22
 2530              	.LVL365:
  87:../Common/IQMath/ti/_IQNexp.c ****         
 2531              		.loc 1 87 9 is_stmt 1 view .LVU966
  87:../Common/IQMath/ti/_IQNexp.c ****         
 2532              		.loc 1 87 43 is_stmt 0 view .LVU967
 2533 0024 294B     		ldr	r3, .L107+12
 2534              	.LVL366:
  87:../Common/IQMath/ti/_IQNexp.c ****         
 2535              		.loc 1 87 27 view .LVU968
ARM GAS  C:\Users\57308\AppData\Local\Temp\ccyuPR38.s 			page 69


 2536 0026 53F82050 		ldr	r5, [r3, r0, lsl #2]
 2537              	.LVL367:
  90:../Common/IQMath/ti/_IQNexp.c ****             iq31Fractional -= iq31_ln2;
 2538              		.loc 1 90 9 is_stmt 1 view .LVU969
  90:../Common/IQMath/ti/_IQNexp.c ****             iq31Fractional -= iq31_ln2;
 2539              		.loc 1 90 12 is_stmt 0 view .LVU970
 2540 002a 294B     		ldr	r3, .L107+16
 2541 002c 9C45     		cmp	ip, r3
 2542 002e 06DD     		ble	.L100
  91:../Common/IQMath/ti/_IQNexp.c ****             uiqNIntegerResult <<= 1;
 2543              		.loc 1 91 13 is_stmt 1 view .LVU971
  91:../Common/IQMath/ti/_IQNexp.c ****             uiqNIntegerResult <<= 1;
 2544              		.loc 1 91 28 is_stmt 0 view .LVU972
 2545 0030 ACF1B14C 		sub	ip, ip, #1484783616
 2546              	.LVL368:
  91:../Common/IQMath/ti/_IQNexp.c ****             uiqNIntegerResult <<= 1;
 2547              		.loc 1 91 28 view .LVU973
 2548 0034 ACF5641C 		sub	ip, ip, #3735552
 2549              	.LVL369:
  91:../Common/IQMath/ti/_IQNexp.c ****             uiqNIntegerResult <<= 1;
 2550              		.loc 1 91 28 view .LVU974
 2551 0038 ACF6FC3C 		subw	ip, ip, #3068
 2552              	.LVL370:
  92:../Common/IQMath/ti/_IQNexp.c ****         }
 2553              		.loc 1 92 13 is_stmt 1 view .LVU975
  92:../Common/IQMath/ti/_IQNexp.c ****         }
 2554              		.loc 1 92 31 is_stmt 0 view .LVU976
 2555 003c 6D00     		lsls	r5, r5, #1
 2556              	.LVL371:
 2557              	.L100:
 102:../Common/IQMath/ti/_IQNexp.c ****     
 2558              		.loc 1 102 5 is_stmt 1 view .LVU977
 102:../Common/IQMath/ti/_IQNexp.c ****     
 2559              		.loc 1 102 5 is_stmt 0 view .LVU978
 2560              	.LBE161:
 2561              	.LBE160:
  28:../Common/IQMath/ti/./support/RTS_support.h **** }
 2562              		.loc 2 28 5 is_stmt 1 view .LVU979
 2563              	.LBB169:
 2564              	.LBB166:
 109:../Common/IQMath/ti/_IQNexp.c ****     uiq30FractionalResult = *piq30Coeffs++;
 2565              		.loc 1 109 5 view .LVU980
 110:../Common/IQMath/ti/_IQNexp.c ****     
 2566              		.loc 1 110 5 view .LVU981
 110:../Common/IQMath/ti/_IQNexp.c ****     
 2567              		.loc 1 110 27 is_stmt 0 view .LVU982
 2568 003e 2548     		ldr	r0, .L107+20
 2569              	.LVL372:
 110:../Common/IQMath/ti/_IQNexp.c ****     
 2570              		.loc 1 110 27 view .LVU983
 2571 0040 50F8043B 		ldr	r3, [r0], #4
 2572              	.LVL373:
 113:../Common/IQMath/ti/_IQNexp.c ****         uiq30FractionalResult = __mpyf_l(iq31Fractional, uiq30FractionalResult);
 2573              		.loc 1 113 5 is_stmt 1 view .LVU984
 113:../Common/IQMath/ti/_IQNexp.c ****         uiq30FractionalResult = __mpyf_l(iq31Fractional, uiq30FractionalResult);
 2574              		.loc 1 113 19 is_stmt 0 view .LVU985
 2575 0044 0A24     		movs	r4, #10
ARM GAS  C:\Users\57308\AppData\Local\Temp\ccyuPR38.s 			page 70


 113:../Common/IQMath/ti/_IQNexp.c ****         uiq30FractionalResult = __mpyf_l(iq31Fractional, uiq30FractionalResult);
 2576              		.loc 1 113 5 view .LVU986
 2577 0046 2AE0     		b	.L101
 2578              	.LVL374:
 2579              	.L106:
  48:../Common/IQMath/ti/_IQNexp.c ****             return 0;
 2580              		.loc 1 48 9 is_stmt 1 view .LVU987
  48:../Common/IQMath/ti/_IQNexp.c ****             return 0;
 2581              		.loc 1 48 12 is_stmt 0 view .LVU988
 2582 0048 8142     		cmp	r1, r0
 2583 004a 34DC     		bgt	.L103
  53:../Common/IQMath/ti/_IQNexp.c ****         iq31Fractional <<= (31 - q_value);
 2584              		.loc 1 53 9 is_stmt 1 view .LVU989
 2585              	.LVL375:
  54:../Common/IQMath/ti/_IQNexp.c ****         iq31Fractional |= 0x80000000;
 2586              		.loc 1 54 9 view .LVU990
  54:../Common/IQMath/ti/_IQNexp.c ****         iq31Fractional |= 0x80000000;
 2587              		.loc 1 54 24 is_stmt 0 view .LVU991
 2588 004c 4FEA402C 		lsl	ip, r0, #9
 2589              	.LVL376:
  55:../Common/IQMath/ti/_IQNexp.c ****     
 2590              		.loc 1 55 9 is_stmt 1 view .LVU992
  55:../Common/IQMath/ti/_IQNexp.c ****     
 2591              		.loc 1 55 24 is_stmt 0 view .LVU993
 2592 0050 4CF0004C 		orr	ip, ip, #-2147483648
 2593              	.LVL377:
  58:../Common/IQMath/ti/_IQNexp.c ****     
 2594              		.loc 1 58 9 is_stmt 1 view .LVU994
  58:../Common/IQMath/ti/_IQNexp.c ****     
 2595              		.loc 1 58 46 is_stmt 0 view .LVU995
 2596 0054 8015     		asrs	r0, r0, #22
 2597              	.LVL378:
  58:../Common/IQMath/ti/_IQNexp.c ****     
 2598              		.loc 1 58 20 view .LVU996
 2599 0056 0130     		adds	r0, r0, #1
 2600              	.LVL379:
  61:../Common/IQMath/ti/_IQNexp.c ****         uiqNIntegerResult = iqNLookupTable[i16Integer];
 2601              		.loc 1 61 9 is_stmt 1 view .LVU997
  61:../Common/IQMath/ti/_IQNexp.c ****         uiqNIntegerResult = iqNLookupTable[i16Integer];
 2602              		.loc 1 61 20 is_stmt 0 view .LVU998
 2603 0058 1844     		add	r0, r0, r3
 2604              	.LVL380:
  62:../Common/IQMath/ti/_IQNexp.c ****         
 2605              		.loc 1 62 9 is_stmt 1 view .LVU999
  62:../Common/IQMath/ti/_IQNexp.c ****         
 2606              		.loc 1 62 43 is_stmt 0 view .LVU1000
 2607 005a 1C4B     		ldr	r3, .L107+12
 2608              	.LVL381:
  62:../Common/IQMath/ti/_IQNexp.c ****         
 2609              		.loc 1 62 27 view .LVU1001
 2610 005c 53F82050 		ldr	r5, [r3, r0, lsl #2]
 2611              	.LVL382:
  65:../Common/IQMath/ti/_IQNexp.c ****             iq31Fractional += iq31_ln2;
 2612              		.loc 1 65 9 is_stmt 1 view .LVU1002
  65:../Common/IQMath/ti/_IQNexp.c ****             iq31Fractional += iq31_ln2;
 2613              		.loc 1 65 12 is_stmt 0 view .LVU1003
 2614 0060 1D4B     		ldr	r3, .L107+24
ARM GAS  C:\Users\57308\AppData\Local\Temp\ccyuPR38.s 			page 71


 2615 0062 9C45     		cmp	ip, r3
 2616 0064 EBDA     		bge	.L100
  66:../Common/IQMath/ti/_IQNexp.c ****             uiqNIntegerResult >>= 1;
 2617              		.loc 1 66 13 is_stmt 1 view .LVU1004
  66:../Common/IQMath/ti/_IQNexp.c ****             uiqNIntegerResult >>= 1;
 2618              		.loc 1 66 28 is_stmt 0 view .LVU1005
 2619 0066 0CF1B14C 		add	ip, ip, #1484783616
 2620              	.LVL383:
  66:../Common/IQMath/ti/_IQNexp.c ****             uiqNIntegerResult >>= 1;
 2621              		.loc 1 66 28 view .LVU1006
 2622 006a 0CF5641C 		add	ip, ip, #3735552
 2623              	.LVL384:
  66:../Common/IQMath/ti/_IQNexp.c ****             uiqNIntegerResult >>= 1;
 2624              		.loc 1 66 28 view .LVU1007
 2625 006e 0CF6FC3C 		addw	ip, ip, #3068
 2626              	.LVL385:
  67:../Common/IQMath/ti/_IQNexp.c ****         }
 2627              		.loc 1 67 13 is_stmt 1 view .LVU1008
  67:../Common/IQMath/ti/_IQNexp.c ****         }
 2628              		.loc 1 67 31 is_stmt 0 view .LVU1009
 2629 0072 6D08     		lsrs	r5, r5, #1
 2630              	.LVL386:
  67:../Common/IQMath/ti/_IQNexp.c ****         }
 2631              		.loc 1 67 31 view .LVU1010
 2632 0074 E3E7     		b	.L100
 2633              	.LVL387:
 2634              	.L102:
 114:../Common/IQMath/ti/_IQNexp.c ****         uiq30FractionalResult += *piq30Coeffs++;
 2635              		.loc 1 114 9 is_stmt 1 view .LVU1011
 2636              	.LBB162:
 2637              	.LBI162:
 233:../Common/IQMath/ti/./support/RTS_support.h **** {
 2638              		.loc 2 233 28 view .LVU1012
 2639              	.LBB163:
 235:../Common/IQMath/ti/./support/RTS_support.h **** }
 2640              		.loc 2 235 5 view .LVU1013
 235:../Common/IQMath/ti/./support/RTS_support.h **** }
 2641              		.loc 2 235 28 is_stmt 0 view .LVU1014
 2642 0076 4FEAEC72 		asr	r2, ip, #31
 235:../Common/IQMath/ti/./support/RTS_support.h **** }
 2643              		.loc 2 235 49 view .LVU1015
 2644 007a D917     		asrs	r1, r3, #31
 235:../Common/IQMath/ti/./support/RTS_support.h **** }
 2645              		.loc 2 235 47 view .LVU1016
 2646 007c 0CFB01F1 		mul	r1, ip, r1
 2647 0080 03FB0212 		mla	r2, r3, r2, r1
 2648 0084 ACFB0331 		umull	r3, r1, ip, r3
 2649              	.LVL388:
 235:../Common/IQMath/ti/./support/RTS_support.h **** }
 2650              		.loc 2 235 47 view .LVU1017
 2651 0088 0A44     		add	r2, r2, r1
 235:../Common/IQMath/ti/./support/RTS_support.h **** }
 2652              		.loc 2 235 69 view .LVU1018
 2653 008a DB0F     		lsrs	r3, r3, #31
 2654 008c 43EA4203 		orr	r3, r3, r2, lsl #1
 2655              	.LVL389:
 235:../Common/IQMath/ti/./support/RTS_support.h **** }
ARM GAS  C:\Users\57308\AppData\Local\Temp\ccyuPR38.s 			page 72


 2656              		.loc 2 235 69 view .LVU1019
 2657              	.LBE163:
 2658              	.LBE162:
 115:../Common/IQMath/ti/_IQNexp.c ****     }
 2659              		.loc 1 115 9 is_stmt 1 view .LVU1020
 115:../Common/IQMath/ti/_IQNexp.c ****     }
 2660              		.loc 1 115 46 is_stmt 0 view .LVU1021
 2661 0090 0246     		mov	r2, r0
 2662              	.LVL390:
 115:../Common/IQMath/ti/_IQNexp.c ****     }
 2663              		.loc 1 115 34 view .LVU1022
 2664 0092 52F8041B 		ldr	r1, [r2], #4
 2665              	.LVL391:
 115:../Common/IQMath/ti/_IQNexp.c ****     }
 2666              		.loc 1 115 31 view .LVU1023
 2667 0096 0B44     		add	r3, r3, r1
 2668              	.LVL392:
 113:../Common/IQMath/ti/_IQNexp.c ****         uiq30FractionalResult = __mpyf_l(iq31Fractional, uiq30FractionalResult);
 2669              		.loc 1 113 51 is_stmt 1 view .LVU1024
 113:../Common/IQMath/ti/_IQNexp.c ****         uiq30FractionalResult = __mpyf_l(iq31Fractional, uiq30FractionalResult);
 2670              		.loc 1 113 59 is_stmt 0 view .LVU1025
 2671 0098 013C     		subs	r4, r4, #1
 2672              	.LVL393:
 113:../Common/IQMath/ti/_IQNexp.c ****         uiq30FractionalResult = __mpyf_l(iq31Fractional, uiq30FractionalResult);
 2673              		.loc 1 113 59 view .LVU1026
 2674 009a E4B2     		uxtb	r4, r4
 2675              	.LVL394:
 115:../Common/IQMath/ti/_IQNexp.c ****     }
 2676              		.loc 1 115 46 view .LVU1027
 2677 009c 1046     		mov	r0, r2
 2678              	.LVL395:
 2679              	.L101:
 113:../Common/IQMath/ti/_IQNexp.c ****         uiq30FractionalResult = __mpyf_l(iq31Fractional, uiq30FractionalResult);
 2680              		.loc 1 113 37 is_stmt 1 view .LVU1028
 113:../Common/IQMath/ti/_IQNexp.c ****         uiq30FractionalResult = __mpyf_l(iq31Fractional, uiq30FractionalResult);
 2681              		.loc 1 113 5 is_stmt 0 view .LVU1029
 2682 009e 002C     		cmp	r4, #0
 2683 00a0 E9D1     		bne	.L102
 119:../Common/IQMath/ti/_IQNexp.c ****     
 2684              		.loc 1 119 5 is_stmt 1 view .LVU1030
 119:../Common/IQMath/ti/_IQNexp.c ****     
 2685              		.loc 1 119 27 is_stmt 0 view .LVU1031
 2686 00a2 5B00     		lsls	r3, r3, #1
 2687              	.LVL396:
 125:../Common/IQMath/ti/_IQNexp.c ****     
 2688              		.loc 1 125 5 is_stmt 1 view .LVU1032
 2689              	.LBB164:
 2690              	.LBI164:
 254:../Common/IQMath/ti/./support/RTS_support.h **** {
 2691              		.loc 2 254 29 view .LVU1033
 2692              	.LBB165:
 2693              		.loc 2 256 5 view .LVU1034
 2694              		.loc 2 256 49 is_stmt 0 view .LVU1035
 2695 00a4 A5FB0353 		umull	r5, r3, r5, r3
 2696              	.LVL397:
 2697              		.loc 2 256 72 view .LVU1036
 2698 00a8 ED0F     		lsrs	r5, r5, #31
ARM GAS  C:\Users\57308\AppData\Local\Temp\ccyuPR38.s 			page 73


 2699 00aa 45EA4305 		orr	r5, r5, r3, lsl #1
 2700              	.LVL398:
 2701              		.loc 2 256 72 view .LVU1037
 2702              	.LBE165:
 2703              	.LBE164:
 131:../Common/IQMath/ti/_IQNexp.c ****     
 2704              		.loc 1 131 5 is_stmt 1 view .LVU1038
 131:../Common/IQMath/ti/_IQNexp.c ****     
 2705              		.loc 1 131 5 is_stmt 0 view .LVU1039
 2706              	.LBE166:
 2707              	.LBE169:
  72:../Common/IQMath/ti/./support/RTS_support.h **** }
 2708              		.loc 2 72 5 is_stmt 1 view .LVU1040
 2709              	.LBB170:
 2710              	.LBB167:
 134:../Common/IQMath/ti/_IQNexp.c ****     uiqNResult >>= 1;
 2711              		.loc 1 134 5 view .LVU1041
 134:../Common/IQMath/ti/_IQNexp.c ****     uiqNResult >>= 1;
 2712              		.loc 1 134 15 is_stmt 0 view .LVU1042
 2713 00ae 0135     		adds	r5, r5, #1
 2714              	.LVL399:
 135:../Common/IQMath/ti/_IQNexp.c ****     
 2715              		.loc 1 135 5 is_stmt 1 view .LVU1043
 135:../Common/IQMath/ti/_IQNexp.c ****     
 2716              		.loc 1 135 16 is_stmt 0 view .LVU1044
 2717 00b0 6808     		lsrs	r0, r5, #1
 2718              	.LVL400:
 137:../Common/IQMath/ti/_IQNexp.c **** }
 2719              		.loc 1 137 5 is_stmt 1 view .LVU1045
 2720              	.L97:
 137:../Common/IQMath/ti/_IQNexp.c **** }
 2721              		.loc 1 137 5 is_stmt 0 view .LVU1046
 2722              	.LBE167:
 2723              	.LBE170:
 238:../Common/IQMath/ti/_IQNexp.c **** }
 2724              		.loc 1 238 1 view .LVU1047
 2725 00b2 30BC     		pop	{r4, r5}
 2726              	.LCFI25:
 2727              		.cfi_remember_state
 2728              		.cfi_restore 5
 2729              		.cfi_restore 4
 2730              		.cfi_def_cfa_offset 0
 2731 00b4 7047     		bx	lr
 2732              	.LVL401:
 2733              	.L103:
 2734              	.LCFI26:
 2735              		.cfi_restore_state
 2736              	.LBB171:
 2737              	.LBB168:
  49:../Common/IQMath/ti/_IQNexp.c ****         }
 2738              		.loc 1 49 20 view .LVU1048
 2739 00b6 0020     		movs	r0, #0
 2740              	.LVL402:
  49:../Common/IQMath/ti/_IQNexp.c ****         }
 2741              		.loc 1 49 20 view .LVU1049
 2742 00b8 FBE7     		b	.L97
 2743              	.LVL403:
ARM GAS  C:\Users\57308\AppData\Local\Temp\ccyuPR38.s 			page 74


 2744              	.L104:
  74:../Common/IQMath/ti/_IQNexp.c ****         }
 2745              		.loc 1 74 20 view .LVU1050
 2746 00ba 6FF00040 		mvn	r0, #-2147483648
 2747              	.LVL404:
  74:../Common/IQMath/ti/_IQNexp.c ****         }
 2748              		.loc 1 74 20 view .LVU1051
 2749              	.LBE168:
 2750              	.LBE171:
 237:../Common/IQMath/ti/_IQNexp.c **** }
 2751              		.loc 1 237 12 view .LVU1052
 2752 00be F8E7     		b	.L97
 2753              	.L108:
 2754              		.align	2
 2755              	.L107:
 2756 00c0 00000000 		.word	_IQNexp_offset
 2757 00c4 00000000 		.word	_IQNexp_min
 2758 00c8 00000000 		.word	_IQNexp_max
 2759 00cc 00000000 		.word	_IQNexp_lookup22
 2760 00d0 FB0BB958 		.word	1488522235
 2761 00d4 00000000 		.word	_IQ30exp_coeffs
 2762 00d8 05F446A7 		.word	-1488522235
 2763              		.cfi_endproc
 2764              	.LFE270:
 2766              		.section	.text._IQ21exp,"ax",%progbits
 2767              		.align	1
 2768              		.global	_IQ21exp
 2769              		.syntax unified
 2770              		.thumb
 2771              		.thumb_func
 2773              	_IQ21exp:
 2774              	.LVL405:
 2775              	.LFB271:
 239:../Common/IQMath/ti/_IQNexp.c **** /**
 240:../Common/IQMath/ti/_IQNexp.c ****  * @brief Computes the exponential of an IQ21 input.
 241:../Common/IQMath/ti/_IQNexp.c ****  *
 242:../Common/IQMath/ti/_IQNexp.c ****  * @param a               IQ21 type input.
 243:../Common/IQMath/ti/_IQNexp.c ****  *
 244:../Common/IQMath/ti/_IQNexp.c ****  * @return                IQ21 type result of exponential.
 245:../Common/IQMath/ti/_IQNexp.c ****  */
 246:../Common/IQMath/ti/_IQNexp.c **** int32_t _IQ21exp(int32_t a)
 247:../Common/IQMath/ti/_IQNexp.c **** {
 2776              		.loc 1 247 1 is_stmt 1 view -0
 2777              		.cfi_startproc
 2778              		@ args = 0, pretend = 0, frame = 0
 2779              		@ frame_needed = 0, uses_anonymous_args = 0
 2780              		@ link register save eliminated.
 2781              		.loc 1 247 1 is_stmt 0 view .LVU1054
 2782 0000 30B4     		push	{r4, r5}
 2783              	.LCFI27:
 2784              		.cfi_def_cfa_offset 8
 2785              		.cfi_offset 4, -8
 2786              		.cfi_offset 5, -4
 248:../Common/IQMath/ti/_IQNexp.c ****     return __IQNexp(a, _IQNexp_lookup21, _IQNexp_offset[21-1], _IQNexp_min[21-1], _IQNexp_max[21-1]
 2787              		.loc 1 248 5 is_stmt 1 view .LVU1055
 2788              		.loc 1 248 12 is_stmt 0 view .LVU1056
 2789 0002 2F4B     		ldr	r3, .L119
ARM GAS  C:\Users\57308\AppData\Local\Temp\ccyuPR38.s 			page 75


 2790 0004 93F85030 		ldrb	r3, [r3, #80]	@ zero_extendqisi2
 2791              		.loc 1 248 75 view .LVU1057
 2792 0008 2E4A     		ldr	r2, .L119+4
 2793 000a 116D     		ldr	r1, [r2, #80]
 2794              		.loc 1 248 94 view .LVU1058
 2795 000c 2E4A     		ldr	r2, .L119+8
 2796 000e 126D     		ldr	r2, [r2, #80]
 2797              	.LVL406:
 2798              	.LBB178:
 2799              	.LBI178:
  32:../Common/IQMath/ti/_IQNexp.c **** {
 2800              		.loc 1 32 30 is_stmt 1 view .LVU1059
 2801              	.LBB179:
  34:../Common/IQMath/ti/_IQNexp.c ****     int_fast16_t i16Integer;
 2802              		.loc 1 34 5 view .LVU1060
  35:../Common/IQMath/ti/_IQNexp.c ****     uint_fast16_t ui16IntState;
 2803              		.loc 1 35 5 view .LVU1061
  36:../Common/IQMath/ti/_IQNexp.c ****     uint_fast16_t ui16MPYState;
 2804              		.loc 1 36 5 view .LVU1062
  37:../Common/IQMath/ti/_IQNexp.c ****     int_fast32_t iq31Fractional;
 2805              		.loc 1 37 5 view .LVU1063
  38:../Common/IQMath/ti/_IQNexp.c ****     uint_fast32_t uiqNResult;
 2806              		.loc 1 38 5 view .LVU1064
  39:../Common/IQMath/ti/_IQNexp.c ****     uint_fast32_t uiqNIntegerResult;
 2807              		.loc 1 39 5 view .LVU1065
  40:../Common/IQMath/ti/_IQNexp.c ****     uint_fast32_t uiq30FractionalResult;
 2808              		.loc 1 40 5 view .LVU1066
  41:../Common/IQMath/ti/_IQNexp.c ****     uint_fast32_t uiq31FractionalResult;
 2809              		.loc 1 41 5 view .LVU1067
  42:../Common/IQMath/ti/_IQNexp.c ****     const uint_fast32_t *piq30Coeffs;
 2810              		.loc 1 42 5 view .LVU1068
  43:../Common/IQMath/ti/_IQNexp.c ****     
 2811              		.loc 1 43 5 view .LVU1069
  46:../Common/IQMath/ti/_IQNexp.c ****         /* Check for the minimum value. */
 2812              		.loc 1 46 5 view .LVU1070
  46:../Common/IQMath/ti/_IQNexp.c ****         /* Check for the minimum value. */
 2813              		.loc 1 46 8 is_stmt 0 view .LVU1071
 2814 0010 0028     		cmp	r0, #0
  46:../Common/IQMath/ti/_IQNexp.c ****         /* Check for the minimum value. */
 2815              		.loc 1 46 8 view .LVU1072
 2816 0012 19DB     		blt	.L118
  73:../Common/IQMath/ti/_IQNexp.c ****             return INT32_MAX;
 2817              		.loc 1 73 9 is_stmt 1 view .LVU1073
  73:../Common/IQMath/ti/_IQNexp.c ****             return INT32_MAX;
 2818              		.loc 1 73 12 is_stmt 0 view .LVU1074
 2819 0014 8242     		cmp	r2, r0
 2820 0016 50DB     		blt	.L116
  78:../Common/IQMath/ti/_IQNexp.c ****         iq31Fractional <<= (31 - q_value);
 2821              		.loc 1 78 9 is_stmt 1 view .LVU1075
 2822              	.LVL407:
  79:../Common/IQMath/ti/_IQNexp.c ****         iq31Fractional &= 0x7fffffff;
 2823              		.loc 1 79 9 view .LVU1076
  79:../Common/IQMath/ti/_IQNexp.c ****         iq31Fractional &= 0x7fffffff;
 2824              		.loc 1 79 24 is_stmt 0 view .LVU1077
 2825 0018 4FEA802C 		lsl	ip, r0, #10
 2826              	.LVL408:
  80:../Common/IQMath/ti/_IQNexp.c ****     
ARM GAS  C:\Users\57308\AppData\Local\Temp\ccyuPR38.s 			page 76


 2827              		.loc 1 80 9 is_stmt 1 view .LVU1078
  80:../Common/IQMath/ti/_IQNexp.c ****     
 2828              		.loc 1 80 24 is_stmt 0 view .LVU1079
 2829 001c 2CF0004C 		bic	ip, ip, #-2147483648
 2830              	.LVL409:
  83:../Common/IQMath/ti/_IQNexp.c ****     
 2831              		.loc 1 83 9 is_stmt 1 view .LVU1080
  86:../Common/IQMath/ti/_IQNexp.c ****         uiqNIntegerResult = iqNLookupTable[i16Integer];
 2832              		.loc 1 86 9 view .LVU1081
  86:../Common/IQMath/ti/_IQNexp.c ****         uiqNIntegerResult = iqNLookupTable[i16Integer];
 2833              		.loc 1 86 20 is_stmt 0 view .LVU1082
 2834 0020 03EB6050 		add	r0, r3, r0, asr #21
 2835              	.LVL410:
  87:../Common/IQMath/ti/_IQNexp.c ****         
 2836              		.loc 1 87 9 is_stmt 1 view .LVU1083
  87:../Common/IQMath/ti/_IQNexp.c ****         
 2837              		.loc 1 87 43 is_stmt 0 view .LVU1084
 2838 0024 294B     		ldr	r3, .L119+12
 2839              	.LVL411:
  87:../Common/IQMath/ti/_IQNexp.c ****         
 2840              		.loc 1 87 27 view .LVU1085
 2841 0026 53F82050 		ldr	r5, [r3, r0, lsl #2]
 2842              	.LVL412:
  90:../Common/IQMath/ti/_IQNexp.c ****             iq31Fractional -= iq31_ln2;
 2843              		.loc 1 90 9 is_stmt 1 view .LVU1086
  90:../Common/IQMath/ti/_IQNexp.c ****             iq31Fractional -= iq31_ln2;
 2844              		.loc 1 90 12 is_stmt 0 view .LVU1087
 2845 002a 294B     		ldr	r3, .L119+16
 2846 002c 9C45     		cmp	ip, r3
 2847 002e 06DD     		ble	.L112
  91:../Common/IQMath/ti/_IQNexp.c ****             uiqNIntegerResult <<= 1;
 2848              		.loc 1 91 13 is_stmt 1 view .LVU1088
  91:../Common/IQMath/ti/_IQNexp.c ****             uiqNIntegerResult <<= 1;
 2849              		.loc 1 91 28 is_stmt 0 view .LVU1089
 2850 0030 ACF1B14C 		sub	ip, ip, #1484783616
 2851              	.LVL413:
  91:../Common/IQMath/ti/_IQNexp.c ****             uiqNIntegerResult <<= 1;
 2852              		.loc 1 91 28 view .LVU1090
 2853 0034 ACF5641C 		sub	ip, ip, #3735552
 2854              	.LVL414:
  91:../Common/IQMath/ti/_IQNexp.c ****             uiqNIntegerResult <<= 1;
 2855              		.loc 1 91 28 view .LVU1091
 2856 0038 ACF6FC3C 		subw	ip, ip, #3068
 2857              	.LVL415:
  92:../Common/IQMath/ti/_IQNexp.c ****         }
 2858              		.loc 1 92 13 is_stmt 1 view .LVU1092
  92:../Common/IQMath/ti/_IQNexp.c ****         }
 2859              		.loc 1 92 31 is_stmt 0 view .LVU1093
 2860 003c 6D00     		lsls	r5, r5, #1
 2861              	.LVL416:
 2862              	.L112:
 102:../Common/IQMath/ti/_IQNexp.c ****     
 2863              		.loc 1 102 5 is_stmt 1 view .LVU1094
 102:../Common/IQMath/ti/_IQNexp.c ****     
 2864              		.loc 1 102 5 is_stmt 0 view .LVU1095
 2865              	.LBE179:
 2866              	.LBE178:
ARM GAS  C:\Users\57308\AppData\Local\Temp\ccyuPR38.s 			page 77


  28:../Common/IQMath/ti/./support/RTS_support.h **** }
 2867              		.loc 2 28 5 is_stmt 1 view .LVU1096
 2868              	.LBB187:
 2869              	.LBB184:
 109:../Common/IQMath/ti/_IQNexp.c ****     uiq30FractionalResult = *piq30Coeffs++;
 2870              		.loc 1 109 5 view .LVU1097
 110:../Common/IQMath/ti/_IQNexp.c ****     
 2871              		.loc 1 110 5 view .LVU1098
 110:../Common/IQMath/ti/_IQNexp.c ****     
 2872              		.loc 1 110 27 is_stmt 0 view .LVU1099
 2873 003e 2548     		ldr	r0, .L119+20
 2874              	.LVL417:
 110:../Common/IQMath/ti/_IQNexp.c ****     
 2875              		.loc 1 110 27 view .LVU1100
 2876 0040 50F8043B 		ldr	r3, [r0], #4
 2877              	.LVL418:
 113:../Common/IQMath/ti/_IQNexp.c ****         uiq30FractionalResult = __mpyf_l(iq31Fractional, uiq30FractionalResult);
 2878              		.loc 1 113 5 is_stmt 1 view .LVU1101
 113:../Common/IQMath/ti/_IQNexp.c ****         uiq30FractionalResult = __mpyf_l(iq31Fractional, uiq30FractionalResult);
 2879              		.loc 1 113 19 is_stmt 0 view .LVU1102
 2880 0044 0A24     		movs	r4, #10
 113:../Common/IQMath/ti/_IQNexp.c ****         uiq30FractionalResult = __mpyf_l(iq31Fractional, uiq30FractionalResult);
 2881              		.loc 1 113 5 view .LVU1103
 2882 0046 2AE0     		b	.L113
 2883              	.LVL419:
 2884              	.L118:
  48:../Common/IQMath/ti/_IQNexp.c ****             return 0;
 2885              		.loc 1 48 9 is_stmt 1 view .LVU1104
  48:../Common/IQMath/ti/_IQNexp.c ****             return 0;
 2886              		.loc 1 48 12 is_stmt 0 view .LVU1105
 2887 0048 8142     		cmp	r1, r0
 2888 004a 34DC     		bgt	.L115
  53:../Common/IQMath/ti/_IQNexp.c ****         iq31Fractional <<= (31 - q_value);
 2889              		.loc 1 53 9 is_stmt 1 view .LVU1106
 2890              	.LVL420:
  54:../Common/IQMath/ti/_IQNexp.c ****         iq31Fractional |= 0x80000000;
 2891              		.loc 1 54 9 view .LVU1107
  54:../Common/IQMath/ti/_IQNexp.c ****         iq31Fractional |= 0x80000000;
 2892              		.loc 1 54 24 is_stmt 0 view .LVU1108
 2893 004c 4FEA802C 		lsl	ip, r0, #10
 2894              	.LVL421:
  55:../Common/IQMath/ti/_IQNexp.c ****     
 2895              		.loc 1 55 9 is_stmt 1 view .LVU1109
  55:../Common/IQMath/ti/_IQNexp.c ****     
 2896              		.loc 1 55 24 is_stmt 0 view .LVU1110
 2897 0050 4CF0004C 		orr	ip, ip, #-2147483648
 2898              	.LVL422:
  58:../Common/IQMath/ti/_IQNexp.c ****     
 2899              		.loc 1 58 9 is_stmt 1 view .LVU1111
  58:../Common/IQMath/ti/_IQNexp.c ****     
 2900              		.loc 1 58 46 is_stmt 0 view .LVU1112
 2901 0054 4015     		asrs	r0, r0, #21
 2902              	.LVL423:
  58:../Common/IQMath/ti/_IQNexp.c ****     
 2903              		.loc 1 58 20 view .LVU1113
 2904 0056 0130     		adds	r0, r0, #1
 2905              	.LVL424:
ARM GAS  C:\Users\57308\AppData\Local\Temp\ccyuPR38.s 			page 78


  61:../Common/IQMath/ti/_IQNexp.c ****         uiqNIntegerResult = iqNLookupTable[i16Integer];
 2906              		.loc 1 61 9 is_stmt 1 view .LVU1114
  61:../Common/IQMath/ti/_IQNexp.c ****         uiqNIntegerResult = iqNLookupTable[i16Integer];
 2907              		.loc 1 61 20 is_stmt 0 view .LVU1115
 2908 0058 1844     		add	r0, r0, r3
 2909              	.LVL425:
  62:../Common/IQMath/ti/_IQNexp.c ****         
 2910              		.loc 1 62 9 is_stmt 1 view .LVU1116
  62:../Common/IQMath/ti/_IQNexp.c ****         
 2911              		.loc 1 62 43 is_stmt 0 view .LVU1117
 2912 005a 1C4B     		ldr	r3, .L119+12
 2913              	.LVL426:
  62:../Common/IQMath/ti/_IQNexp.c ****         
 2914              		.loc 1 62 27 view .LVU1118
 2915 005c 53F82050 		ldr	r5, [r3, r0, lsl #2]
 2916              	.LVL427:
  65:../Common/IQMath/ti/_IQNexp.c ****             iq31Fractional += iq31_ln2;
 2917              		.loc 1 65 9 is_stmt 1 view .LVU1119
  65:../Common/IQMath/ti/_IQNexp.c ****             iq31Fractional += iq31_ln2;
 2918              		.loc 1 65 12 is_stmt 0 view .LVU1120
 2919 0060 1D4B     		ldr	r3, .L119+24
 2920 0062 9C45     		cmp	ip, r3
 2921 0064 EBDA     		bge	.L112
  66:../Common/IQMath/ti/_IQNexp.c ****             uiqNIntegerResult >>= 1;
 2922              		.loc 1 66 13 is_stmt 1 view .LVU1121
  66:../Common/IQMath/ti/_IQNexp.c ****             uiqNIntegerResult >>= 1;
 2923              		.loc 1 66 28 is_stmt 0 view .LVU1122
 2924 0066 0CF1B14C 		add	ip, ip, #1484783616
 2925              	.LVL428:
  66:../Common/IQMath/ti/_IQNexp.c ****             uiqNIntegerResult >>= 1;
 2926              		.loc 1 66 28 view .LVU1123
 2927 006a 0CF5641C 		add	ip, ip, #3735552
 2928              	.LVL429:
  66:../Common/IQMath/ti/_IQNexp.c ****             uiqNIntegerResult >>= 1;
 2929              		.loc 1 66 28 view .LVU1124
 2930 006e 0CF6FC3C 		addw	ip, ip, #3068
 2931              	.LVL430:
  67:../Common/IQMath/ti/_IQNexp.c ****         }
 2932              		.loc 1 67 13 is_stmt 1 view .LVU1125
  67:../Common/IQMath/ti/_IQNexp.c ****         }
 2933              		.loc 1 67 31 is_stmt 0 view .LVU1126
 2934 0072 6D08     		lsrs	r5, r5, #1
 2935              	.LVL431:
  67:../Common/IQMath/ti/_IQNexp.c ****         }
 2936              		.loc 1 67 31 view .LVU1127
 2937 0074 E3E7     		b	.L112
 2938              	.LVL432:
 2939              	.L114:
 114:../Common/IQMath/ti/_IQNexp.c ****         uiq30FractionalResult += *piq30Coeffs++;
 2940              		.loc 1 114 9 is_stmt 1 view .LVU1128
 2941              	.LBB180:
 2942              	.LBI180:
 233:../Common/IQMath/ti/./support/RTS_support.h **** {
 2943              		.loc 2 233 28 view .LVU1129
 2944              	.LBB181:
 235:../Common/IQMath/ti/./support/RTS_support.h **** }
 2945              		.loc 2 235 5 view .LVU1130
ARM GAS  C:\Users\57308\AppData\Local\Temp\ccyuPR38.s 			page 79


 235:../Common/IQMath/ti/./support/RTS_support.h **** }
 2946              		.loc 2 235 28 is_stmt 0 view .LVU1131
 2947 0076 4FEAEC72 		asr	r2, ip, #31
 235:../Common/IQMath/ti/./support/RTS_support.h **** }
 2948              		.loc 2 235 49 view .LVU1132
 2949 007a D917     		asrs	r1, r3, #31
 235:../Common/IQMath/ti/./support/RTS_support.h **** }
 2950              		.loc 2 235 47 view .LVU1133
 2951 007c 0CFB01F1 		mul	r1, ip, r1
 2952 0080 03FB0212 		mla	r2, r3, r2, r1
 2953 0084 ACFB0331 		umull	r3, r1, ip, r3
 2954              	.LVL433:
 235:../Common/IQMath/ti/./support/RTS_support.h **** }
 2955              		.loc 2 235 47 view .LVU1134
 2956 0088 0A44     		add	r2, r2, r1
 235:../Common/IQMath/ti/./support/RTS_support.h **** }
 2957              		.loc 2 235 69 view .LVU1135
 2958 008a DB0F     		lsrs	r3, r3, #31
 2959 008c 43EA4203 		orr	r3, r3, r2, lsl #1
 2960              	.LVL434:
 235:../Common/IQMath/ti/./support/RTS_support.h **** }
 2961              		.loc 2 235 69 view .LVU1136
 2962              	.LBE181:
 2963              	.LBE180:
 115:../Common/IQMath/ti/_IQNexp.c ****     }
 2964              		.loc 1 115 9 is_stmt 1 view .LVU1137
 115:../Common/IQMath/ti/_IQNexp.c ****     }
 2965              		.loc 1 115 46 is_stmt 0 view .LVU1138
 2966 0090 0246     		mov	r2, r0
 2967              	.LVL435:
 115:../Common/IQMath/ti/_IQNexp.c ****     }
 2968              		.loc 1 115 34 view .LVU1139
 2969 0092 52F8041B 		ldr	r1, [r2], #4
 2970              	.LVL436:
 115:../Common/IQMath/ti/_IQNexp.c ****     }
 2971              		.loc 1 115 31 view .LVU1140
 2972 0096 0B44     		add	r3, r3, r1
 2973              	.LVL437:
 113:../Common/IQMath/ti/_IQNexp.c ****         uiq30FractionalResult = __mpyf_l(iq31Fractional, uiq30FractionalResult);
 2974              		.loc 1 113 51 is_stmt 1 view .LVU1141
 113:../Common/IQMath/ti/_IQNexp.c ****         uiq30FractionalResult = __mpyf_l(iq31Fractional, uiq30FractionalResult);
 2975              		.loc 1 113 59 is_stmt 0 view .LVU1142
 2976 0098 013C     		subs	r4, r4, #1
 2977              	.LVL438:
 113:../Common/IQMath/ti/_IQNexp.c ****         uiq30FractionalResult = __mpyf_l(iq31Fractional, uiq30FractionalResult);
 2978              		.loc 1 113 59 view .LVU1143
 2979 009a E4B2     		uxtb	r4, r4
 2980              	.LVL439:
 115:../Common/IQMath/ti/_IQNexp.c ****     }
 2981              		.loc 1 115 46 view .LVU1144
 2982 009c 1046     		mov	r0, r2
 2983              	.LVL440:
 2984              	.L113:
 113:../Common/IQMath/ti/_IQNexp.c ****         uiq30FractionalResult = __mpyf_l(iq31Fractional, uiq30FractionalResult);
 2985              		.loc 1 113 37 is_stmt 1 view .LVU1145
 113:../Common/IQMath/ti/_IQNexp.c ****         uiq30FractionalResult = __mpyf_l(iq31Fractional, uiq30FractionalResult);
 2986              		.loc 1 113 5 is_stmt 0 view .LVU1146
ARM GAS  C:\Users\57308\AppData\Local\Temp\ccyuPR38.s 			page 80


 2987 009e 002C     		cmp	r4, #0
 2988 00a0 E9D1     		bne	.L114
 119:../Common/IQMath/ti/_IQNexp.c ****     
 2989              		.loc 1 119 5 is_stmt 1 view .LVU1147
 119:../Common/IQMath/ti/_IQNexp.c ****     
 2990              		.loc 1 119 27 is_stmt 0 view .LVU1148
 2991 00a2 5B00     		lsls	r3, r3, #1
 2992              	.LVL441:
 125:../Common/IQMath/ti/_IQNexp.c ****     
 2993              		.loc 1 125 5 is_stmt 1 view .LVU1149
 2994              	.LBB182:
 2995              	.LBI182:
 254:../Common/IQMath/ti/./support/RTS_support.h **** {
 2996              		.loc 2 254 29 view .LVU1150
 2997              	.LBB183:
 2998              		.loc 2 256 5 view .LVU1151
 2999              		.loc 2 256 49 is_stmt 0 view .LVU1152
 3000 00a4 A5FB0353 		umull	r5, r3, r5, r3
 3001              	.LVL442:
 3002              		.loc 2 256 72 view .LVU1153
 3003 00a8 ED0F     		lsrs	r5, r5, #31
 3004 00aa 45EA4305 		orr	r5, r5, r3, lsl #1
 3005              	.LVL443:
 3006              		.loc 2 256 72 view .LVU1154
 3007              	.LBE183:
 3008              	.LBE182:
 131:../Common/IQMath/ti/_IQNexp.c ****     
 3009              		.loc 1 131 5 is_stmt 1 view .LVU1155
 131:../Common/IQMath/ti/_IQNexp.c ****     
 3010              		.loc 1 131 5 is_stmt 0 view .LVU1156
 3011              	.LBE184:
 3012              	.LBE187:
  72:../Common/IQMath/ti/./support/RTS_support.h **** }
 3013              		.loc 2 72 5 is_stmt 1 view .LVU1157
 3014              	.LBB188:
 3015              	.LBB185:
 134:../Common/IQMath/ti/_IQNexp.c ****     uiqNResult >>= 1;
 3016              		.loc 1 134 5 view .LVU1158
 134:../Common/IQMath/ti/_IQNexp.c ****     uiqNResult >>= 1;
 3017              		.loc 1 134 15 is_stmt 0 view .LVU1159
 3018 00ae 0135     		adds	r5, r5, #1
 3019              	.LVL444:
 135:../Common/IQMath/ti/_IQNexp.c ****     
 3020              		.loc 1 135 5 is_stmt 1 view .LVU1160
 135:../Common/IQMath/ti/_IQNexp.c ****     
 3021              		.loc 1 135 16 is_stmt 0 view .LVU1161
 3022 00b0 6808     		lsrs	r0, r5, #1
 3023              	.LVL445:
 137:../Common/IQMath/ti/_IQNexp.c **** }
 3024              		.loc 1 137 5 is_stmt 1 view .LVU1162
 3025              	.L109:
 137:../Common/IQMath/ti/_IQNexp.c **** }
 3026              		.loc 1 137 5 is_stmt 0 view .LVU1163
 3027              	.LBE185:
 3028              	.LBE188:
 249:../Common/IQMath/ti/_IQNexp.c **** }
 3029              		.loc 1 249 1 view .LVU1164
ARM GAS  C:\Users\57308\AppData\Local\Temp\ccyuPR38.s 			page 81


 3030 00b2 30BC     		pop	{r4, r5}
 3031              	.LCFI28:
 3032              		.cfi_remember_state
 3033              		.cfi_restore 5
 3034              		.cfi_restore 4
 3035              		.cfi_def_cfa_offset 0
 3036 00b4 7047     		bx	lr
 3037              	.LVL446:
 3038              	.L115:
 3039              	.LCFI29:
 3040              		.cfi_restore_state
 3041              	.LBB189:
 3042              	.LBB186:
  49:../Common/IQMath/ti/_IQNexp.c ****         }
 3043              		.loc 1 49 20 view .LVU1165
 3044 00b6 0020     		movs	r0, #0
 3045              	.LVL447:
  49:../Common/IQMath/ti/_IQNexp.c ****         }
 3046              		.loc 1 49 20 view .LVU1166
 3047 00b8 FBE7     		b	.L109
 3048              	.LVL448:
 3049              	.L116:
  74:../Common/IQMath/ti/_IQNexp.c ****         }
 3050              		.loc 1 74 20 view .LVU1167
 3051 00ba 6FF00040 		mvn	r0, #-2147483648
 3052              	.LVL449:
  74:../Common/IQMath/ti/_IQNexp.c ****         }
 3053              		.loc 1 74 20 view .LVU1168
 3054              	.LBE186:
 3055              	.LBE189:
 248:../Common/IQMath/ti/_IQNexp.c **** }
 3056              		.loc 1 248 12 view .LVU1169
 3057 00be F8E7     		b	.L109
 3058              	.L120:
 3059              		.align	2
 3060              	.L119:
 3061 00c0 00000000 		.word	_IQNexp_offset
 3062 00c4 00000000 		.word	_IQNexp_min
 3063 00c8 00000000 		.word	_IQNexp_max
 3064 00cc 00000000 		.word	_IQNexp_lookup21
 3065 00d0 FB0BB958 		.word	1488522235
 3066 00d4 00000000 		.word	_IQ30exp_coeffs
 3067 00d8 05F446A7 		.word	-1488522235
 3068              		.cfi_endproc
 3069              	.LFE271:
 3071              		.section	.text._IQ20exp,"ax",%progbits
 3072              		.align	1
 3073              		.global	_IQ20exp
 3074              		.syntax unified
 3075              		.thumb
 3076              		.thumb_func
 3078              	_IQ20exp:
 3079              	.LVL450:
 3080              	.LFB272:
 250:../Common/IQMath/ti/_IQNexp.c **** /**
 251:../Common/IQMath/ti/_IQNexp.c ****  * @brief Computes the exponential of an IQ20 input.
 252:../Common/IQMath/ti/_IQNexp.c ****  *
ARM GAS  C:\Users\57308\AppData\Local\Temp\ccyuPR38.s 			page 82


 253:../Common/IQMath/ti/_IQNexp.c ****  * @param a               IQ20 type input.
 254:../Common/IQMath/ti/_IQNexp.c ****  *
 255:../Common/IQMath/ti/_IQNexp.c ****  * @return                IQ20 type result of exponential.
 256:../Common/IQMath/ti/_IQNexp.c ****  */
 257:../Common/IQMath/ti/_IQNexp.c **** int32_t _IQ20exp(int32_t a)
 258:../Common/IQMath/ti/_IQNexp.c **** {
 3081              		.loc 1 258 1 is_stmt 1 view -0
 3082              		.cfi_startproc
 3083              		@ args = 0, pretend = 0, frame = 0
 3084              		@ frame_needed = 0, uses_anonymous_args = 0
 3085              		@ link register save eliminated.
 3086              		.loc 1 258 1 is_stmt 0 view .LVU1171
 3087 0000 30B4     		push	{r4, r5}
 3088              	.LCFI30:
 3089              		.cfi_def_cfa_offset 8
 3090              		.cfi_offset 4, -8
 3091              		.cfi_offset 5, -4
 259:../Common/IQMath/ti/_IQNexp.c ****     return __IQNexp(a, _IQNexp_lookup20, _IQNexp_offset[20-1], _IQNexp_min[20-1], _IQNexp_max[20-1]
 3092              		.loc 1 259 5 is_stmt 1 view .LVU1172
 3093              		.loc 1 259 12 is_stmt 0 view .LVU1173
 3094 0002 2F4B     		ldr	r3, .L131
 3095 0004 93F84C30 		ldrb	r3, [r3, #76]	@ zero_extendqisi2
 3096              		.loc 1 259 75 view .LVU1174
 3097 0008 2E4A     		ldr	r2, .L131+4
 3098 000a D16C     		ldr	r1, [r2, #76]
 3099              		.loc 1 259 94 view .LVU1175
 3100 000c 2E4A     		ldr	r2, .L131+8
 3101 000e D26C     		ldr	r2, [r2, #76]
 3102              	.LVL451:
 3103              	.LBB196:
 3104              	.LBI196:
  32:../Common/IQMath/ti/_IQNexp.c **** {
 3105              		.loc 1 32 30 is_stmt 1 view .LVU1176
 3106              	.LBB197:
  34:../Common/IQMath/ti/_IQNexp.c ****     int_fast16_t i16Integer;
 3107              		.loc 1 34 5 view .LVU1177
  35:../Common/IQMath/ti/_IQNexp.c ****     uint_fast16_t ui16IntState;
 3108              		.loc 1 35 5 view .LVU1178
  36:../Common/IQMath/ti/_IQNexp.c ****     uint_fast16_t ui16MPYState;
 3109              		.loc 1 36 5 view .LVU1179
  37:../Common/IQMath/ti/_IQNexp.c ****     int_fast32_t iq31Fractional;
 3110              		.loc 1 37 5 view .LVU1180
  38:../Common/IQMath/ti/_IQNexp.c ****     uint_fast32_t uiqNResult;
 3111              		.loc 1 38 5 view .LVU1181
  39:../Common/IQMath/ti/_IQNexp.c ****     uint_fast32_t uiqNIntegerResult;
 3112              		.loc 1 39 5 view .LVU1182
  40:../Common/IQMath/ti/_IQNexp.c ****     uint_fast32_t uiq30FractionalResult;
 3113              		.loc 1 40 5 view .LVU1183
  41:../Common/IQMath/ti/_IQNexp.c ****     uint_fast32_t uiq31FractionalResult;
 3114              		.loc 1 41 5 view .LVU1184
  42:../Common/IQMath/ti/_IQNexp.c ****     const uint_fast32_t *piq30Coeffs;
 3115              		.loc 1 42 5 view .LVU1185
  43:../Common/IQMath/ti/_IQNexp.c ****     
 3116              		.loc 1 43 5 view .LVU1186
  46:../Common/IQMath/ti/_IQNexp.c ****         /* Check for the minimum value. */
 3117              		.loc 1 46 5 view .LVU1187
  46:../Common/IQMath/ti/_IQNexp.c ****         /* Check for the minimum value. */
ARM GAS  C:\Users\57308\AppData\Local\Temp\ccyuPR38.s 			page 83


 3118              		.loc 1 46 8 is_stmt 0 view .LVU1188
 3119 0010 0028     		cmp	r0, #0
  46:../Common/IQMath/ti/_IQNexp.c ****         /* Check for the minimum value. */
 3120              		.loc 1 46 8 view .LVU1189
 3121 0012 19DB     		blt	.L130
  73:../Common/IQMath/ti/_IQNexp.c ****             return INT32_MAX;
 3122              		.loc 1 73 9 is_stmt 1 view .LVU1190
  73:../Common/IQMath/ti/_IQNexp.c ****             return INT32_MAX;
 3123              		.loc 1 73 12 is_stmt 0 view .LVU1191
 3124 0014 8242     		cmp	r2, r0
 3125 0016 50DB     		blt	.L128
  78:../Common/IQMath/ti/_IQNexp.c ****         iq31Fractional <<= (31 - q_value);
 3126              		.loc 1 78 9 is_stmt 1 view .LVU1192
 3127              	.LVL452:
  79:../Common/IQMath/ti/_IQNexp.c ****         iq31Fractional &= 0x7fffffff;
 3128              		.loc 1 79 9 view .LVU1193
  79:../Common/IQMath/ti/_IQNexp.c ****         iq31Fractional &= 0x7fffffff;
 3129              		.loc 1 79 24 is_stmt 0 view .LVU1194
 3130 0018 4FEAC02C 		lsl	ip, r0, #11
 3131              	.LVL453:
  80:../Common/IQMath/ti/_IQNexp.c ****     
 3132              		.loc 1 80 9 is_stmt 1 view .LVU1195
  80:../Common/IQMath/ti/_IQNexp.c ****     
 3133              		.loc 1 80 24 is_stmt 0 view .LVU1196
 3134 001c 2CF0004C 		bic	ip, ip, #-2147483648
 3135              	.LVL454:
  83:../Common/IQMath/ti/_IQNexp.c ****     
 3136              		.loc 1 83 9 is_stmt 1 view .LVU1197
  86:../Common/IQMath/ti/_IQNexp.c ****         uiqNIntegerResult = iqNLookupTable[i16Integer];
 3137              		.loc 1 86 9 view .LVU1198
  86:../Common/IQMath/ti/_IQNexp.c ****         uiqNIntegerResult = iqNLookupTable[i16Integer];
 3138              		.loc 1 86 20 is_stmt 0 view .LVU1199
 3139 0020 03EB2050 		add	r0, r3, r0, asr #20
 3140              	.LVL455:
  87:../Common/IQMath/ti/_IQNexp.c ****         
 3141              		.loc 1 87 9 is_stmt 1 view .LVU1200
  87:../Common/IQMath/ti/_IQNexp.c ****         
 3142              		.loc 1 87 43 is_stmt 0 view .LVU1201
 3143 0024 294B     		ldr	r3, .L131+12
 3144              	.LVL456:
  87:../Common/IQMath/ti/_IQNexp.c ****         
 3145              		.loc 1 87 27 view .LVU1202
 3146 0026 53F82050 		ldr	r5, [r3, r0, lsl #2]
 3147              	.LVL457:
  90:../Common/IQMath/ti/_IQNexp.c ****             iq31Fractional -= iq31_ln2;
 3148              		.loc 1 90 9 is_stmt 1 view .LVU1203
  90:../Common/IQMath/ti/_IQNexp.c ****             iq31Fractional -= iq31_ln2;
 3149              		.loc 1 90 12 is_stmt 0 view .LVU1204
 3150 002a 294B     		ldr	r3, .L131+16
 3151 002c 9C45     		cmp	ip, r3
 3152 002e 06DD     		ble	.L124
  91:../Common/IQMath/ti/_IQNexp.c ****             uiqNIntegerResult <<= 1;
 3153              		.loc 1 91 13 is_stmt 1 view .LVU1205
  91:../Common/IQMath/ti/_IQNexp.c ****             uiqNIntegerResult <<= 1;
 3154              		.loc 1 91 28 is_stmt 0 view .LVU1206
 3155 0030 ACF1B14C 		sub	ip, ip, #1484783616
 3156              	.LVL458:
ARM GAS  C:\Users\57308\AppData\Local\Temp\ccyuPR38.s 			page 84


  91:../Common/IQMath/ti/_IQNexp.c ****             uiqNIntegerResult <<= 1;
 3157              		.loc 1 91 28 view .LVU1207
 3158 0034 ACF5641C 		sub	ip, ip, #3735552
 3159              	.LVL459:
  91:../Common/IQMath/ti/_IQNexp.c ****             uiqNIntegerResult <<= 1;
 3160              		.loc 1 91 28 view .LVU1208
 3161 0038 ACF6FC3C 		subw	ip, ip, #3068
 3162              	.LVL460:
  92:../Common/IQMath/ti/_IQNexp.c ****         }
 3163              		.loc 1 92 13 is_stmt 1 view .LVU1209
  92:../Common/IQMath/ti/_IQNexp.c ****         }
 3164              		.loc 1 92 31 is_stmt 0 view .LVU1210
 3165 003c 6D00     		lsls	r5, r5, #1
 3166              	.LVL461:
 3167              	.L124:
 102:../Common/IQMath/ti/_IQNexp.c ****     
 3168              		.loc 1 102 5 is_stmt 1 view .LVU1211
 102:../Common/IQMath/ti/_IQNexp.c ****     
 3169              		.loc 1 102 5 is_stmt 0 view .LVU1212
 3170              	.LBE197:
 3171              	.LBE196:
  28:../Common/IQMath/ti/./support/RTS_support.h **** }
 3172              		.loc 2 28 5 is_stmt 1 view .LVU1213
 3173              	.LBB205:
 3174              	.LBB202:
 109:../Common/IQMath/ti/_IQNexp.c ****     uiq30FractionalResult = *piq30Coeffs++;
 3175              		.loc 1 109 5 view .LVU1214
 110:../Common/IQMath/ti/_IQNexp.c ****     
 3176              		.loc 1 110 5 view .LVU1215
 110:../Common/IQMath/ti/_IQNexp.c ****     
 3177              		.loc 1 110 27 is_stmt 0 view .LVU1216
 3178 003e 2548     		ldr	r0, .L131+20
 3179              	.LVL462:
 110:../Common/IQMath/ti/_IQNexp.c ****     
 3180              		.loc 1 110 27 view .LVU1217
 3181 0040 50F8043B 		ldr	r3, [r0], #4
 3182              	.LVL463:
 113:../Common/IQMath/ti/_IQNexp.c ****         uiq30FractionalResult = __mpyf_l(iq31Fractional, uiq30FractionalResult);
 3183              		.loc 1 113 5 is_stmt 1 view .LVU1218
 113:../Common/IQMath/ti/_IQNexp.c ****         uiq30FractionalResult = __mpyf_l(iq31Fractional, uiq30FractionalResult);
 3184              		.loc 1 113 19 is_stmt 0 view .LVU1219
 3185 0044 0A24     		movs	r4, #10
 113:../Common/IQMath/ti/_IQNexp.c ****         uiq30FractionalResult = __mpyf_l(iq31Fractional, uiq30FractionalResult);
 3186              		.loc 1 113 5 view .LVU1220
 3187 0046 2AE0     		b	.L125
 3188              	.LVL464:
 3189              	.L130:
  48:../Common/IQMath/ti/_IQNexp.c ****             return 0;
 3190              		.loc 1 48 9 is_stmt 1 view .LVU1221
  48:../Common/IQMath/ti/_IQNexp.c ****             return 0;
 3191              		.loc 1 48 12 is_stmt 0 view .LVU1222
 3192 0048 8142     		cmp	r1, r0
 3193 004a 34DC     		bgt	.L127
  53:../Common/IQMath/ti/_IQNexp.c ****         iq31Fractional <<= (31 - q_value);
 3194              		.loc 1 53 9 is_stmt 1 view .LVU1223
 3195              	.LVL465:
  54:../Common/IQMath/ti/_IQNexp.c ****         iq31Fractional |= 0x80000000;
ARM GAS  C:\Users\57308\AppData\Local\Temp\ccyuPR38.s 			page 85


 3196              		.loc 1 54 9 view .LVU1224
  54:../Common/IQMath/ti/_IQNexp.c ****         iq31Fractional |= 0x80000000;
 3197              		.loc 1 54 24 is_stmt 0 view .LVU1225
 3198 004c 4FEAC02C 		lsl	ip, r0, #11
 3199              	.LVL466:
  55:../Common/IQMath/ti/_IQNexp.c ****     
 3200              		.loc 1 55 9 is_stmt 1 view .LVU1226
  55:../Common/IQMath/ti/_IQNexp.c ****     
 3201              		.loc 1 55 24 is_stmt 0 view .LVU1227
 3202 0050 4CF0004C 		orr	ip, ip, #-2147483648
 3203              	.LVL467:
  58:../Common/IQMath/ti/_IQNexp.c ****     
 3204              		.loc 1 58 9 is_stmt 1 view .LVU1228
  58:../Common/IQMath/ti/_IQNexp.c ****     
 3205              		.loc 1 58 46 is_stmt 0 view .LVU1229
 3206 0054 0015     		asrs	r0, r0, #20
 3207              	.LVL468:
  58:../Common/IQMath/ti/_IQNexp.c ****     
 3208              		.loc 1 58 20 view .LVU1230
 3209 0056 0130     		adds	r0, r0, #1
 3210              	.LVL469:
  61:../Common/IQMath/ti/_IQNexp.c ****         uiqNIntegerResult = iqNLookupTable[i16Integer];
 3211              		.loc 1 61 9 is_stmt 1 view .LVU1231
  61:../Common/IQMath/ti/_IQNexp.c ****         uiqNIntegerResult = iqNLookupTable[i16Integer];
 3212              		.loc 1 61 20 is_stmt 0 view .LVU1232
 3213 0058 1844     		add	r0, r0, r3
 3214              	.LVL470:
  62:../Common/IQMath/ti/_IQNexp.c ****         
 3215              		.loc 1 62 9 is_stmt 1 view .LVU1233
  62:../Common/IQMath/ti/_IQNexp.c ****         
 3216              		.loc 1 62 43 is_stmt 0 view .LVU1234
 3217 005a 1C4B     		ldr	r3, .L131+12
 3218              	.LVL471:
  62:../Common/IQMath/ti/_IQNexp.c ****         
 3219              		.loc 1 62 27 view .LVU1235
 3220 005c 53F82050 		ldr	r5, [r3, r0, lsl #2]
 3221              	.LVL472:
  65:../Common/IQMath/ti/_IQNexp.c ****             iq31Fractional += iq31_ln2;
 3222              		.loc 1 65 9 is_stmt 1 view .LVU1236
  65:../Common/IQMath/ti/_IQNexp.c ****             iq31Fractional += iq31_ln2;
 3223              		.loc 1 65 12 is_stmt 0 view .LVU1237
 3224 0060 1D4B     		ldr	r3, .L131+24
 3225 0062 9C45     		cmp	ip, r3
 3226 0064 EBDA     		bge	.L124
  66:../Common/IQMath/ti/_IQNexp.c ****             uiqNIntegerResult >>= 1;
 3227              		.loc 1 66 13 is_stmt 1 view .LVU1238
  66:../Common/IQMath/ti/_IQNexp.c ****             uiqNIntegerResult >>= 1;
 3228              		.loc 1 66 28 is_stmt 0 view .LVU1239
 3229 0066 0CF1B14C 		add	ip, ip, #1484783616
 3230              	.LVL473:
  66:../Common/IQMath/ti/_IQNexp.c ****             uiqNIntegerResult >>= 1;
 3231              		.loc 1 66 28 view .LVU1240
 3232 006a 0CF5641C 		add	ip, ip, #3735552
 3233              	.LVL474:
  66:../Common/IQMath/ti/_IQNexp.c ****             uiqNIntegerResult >>= 1;
 3234              		.loc 1 66 28 view .LVU1241
 3235 006e 0CF6FC3C 		addw	ip, ip, #3068
ARM GAS  C:\Users\57308\AppData\Local\Temp\ccyuPR38.s 			page 86


 3236              	.LVL475:
  67:../Common/IQMath/ti/_IQNexp.c ****         }
 3237              		.loc 1 67 13 is_stmt 1 view .LVU1242
  67:../Common/IQMath/ti/_IQNexp.c ****         }
 3238              		.loc 1 67 31 is_stmt 0 view .LVU1243
 3239 0072 6D08     		lsrs	r5, r5, #1
 3240              	.LVL476:
  67:../Common/IQMath/ti/_IQNexp.c ****         }
 3241              		.loc 1 67 31 view .LVU1244
 3242 0074 E3E7     		b	.L124
 3243              	.LVL477:
 3244              	.L126:
 114:../Common/IQMath/ti/_IQNexp.c ****         uiq30FractionalResult += *piq30Coeffs++;
 3245              		.loc 1 114 9 is_stmt 1 view .LVU1245
 3246              	.LBB198:
 3247              	.LBI198:
 233:../Common/IQMath/ti/./support/RTS_support.h **** {
 3248              		.loc 2 233 28 view .LVU1246
 3249              	.LBB199:
 235:../Common/IQMath/ti/./support/RTS_support.h **** }
 3250              		.loc 2 235 5 view .LVU1247
 235:../Common/IQMath/ti/./support/RTS_support.h **** }
 3251              		.loc 2 235 28 is_stmt 0 view .LVU1248
 3252 0076 4FEAEC72 		asr	r2, ip, #31
 235:../Common/IQMath/ti/./support/RTS_support.h **** }
 3253              		.loc 2 235 49 view .LVU1249
 3254 007a D917     		asrs	r1, r3, #31
 235:../Common/IQMath/ti/./support/RTS_support.h **** }
 3255              		.loc 2 235 47 view .LVU1250
 3256 007c 0CFB01F1 		mul	r1, ip, r1
 3257 0080 03FB0212 		mla	r2, r3, r2, r1
 3258 0084 ACFB0331 		umull	r3, r1, ip, r3
 3259              	.LVL478:
 235:../Common/IQMath/ti/./support/RTS_support.h **** }
 3260              		.loc 2 235 47 view .LVU1251
 3261 0088 0A44     		add	r2, r2, r1
 235:../Common/IQMath/ti/./support/RTS_support.h **** }
 3262              		.loc 2 235 69 view .LVU1252
 3263 008a DB0F     		lsrs	r3, r3, #31
 3264 008c 43EA4203 		orr	r3, r3, r2, lsl #1
 3265              	.LVL479:
 235:../Common/IQMath/ti/./support/RTS_support.h **** }
 3266              		.loc 2 235 69 view .LVU1253
 3267              	.LBE199:
 3268              	.LBE198:
 115:../Common/IQMath/ti/_IQNexp.c ****     }
 3269              		.loc 1 115 9 is_stmt 1 view .LVU1254
 115:../Common/IQMath/ti/_IQNexp.c ****     }
 3270              		.loc 1 115 46 is_stmt 0 view .LVU1255
 3271 0090 0246     		mov	r2, r0
 3272              	.LVL480:
 115:../Common/IQMath/ti/_IQNexp.c ****     }
 3273              		.loc 1 115 34 view .LVU1256
 3274 0092 52F8041B 		ldr	r1, [r2], #4
 3275              	.LVL481:
 115:../Common/IQMath/ti/_IQNexp.c ****     }
 3276              		.loc 1 115 31 view .LVU1257
ARM GAS  C:\Users\57308\AppData\Local\Temp\ccyuPR38.s 			page 87


 3277 0096 0B44     		add	r3, r3, r1
 3278              	.LVL482:
 113:../Common/IQMath/ti/_IQNexp.c ****         uiq30FractionalResult = __mpyf_l(iq31Fractional, uiq30FractionalResult);
 3279              		.loc 1 113 51 is_stmt 1 view .LVU1258
 113:../Common/IQMath/ti/_IQNexp.c ****         uiq30FractionalResult = __mpyf_l(iq31Fractional, uiq30FractionalResult);
 3280              		.loc 1 113 59 is_stmt 0 view .LVU1259
 3281 0098 013C     		subs	r4, r4, #1
 3282              	.LVL483:
 113:../Common/IQMath/ti/_IQNexp.c ****         uiq30FractionalResult = __mpyf_l(iq31Fractional, uiq30FractionalResult);
 3283              		.loc 1 113 59 view .LVU1260
 3284 009a E4B2     		uxtb	r4, r4
 3285              	.LVL484:
 115:../Common/IQMath/ti/_IQNexp.c ****     }
 3286              		.loc 1 115 46 view .LVU1261
 3287 009c 1046     		mov	r0, r2
 3288              	.LVL485:
 3289              	.L125:
 113:../Common/IQMath/ti/_IQNexp.c ****         uiq30FractionalResult = __mpyf_l(iq31Fractional, uiq30FractionalResult);
 3290              		.loc 1 113 37 is_stmt 1 view .LVU1262
 113:../Common/IQMath/ti/_IQNexp.c ****         uiq30FractionalResult = __mpyf_l(iq31Fractional, uiq30FractionalResult);
 3291              		.loc 1 113 5 is_stmt 0 view .LVU1263
 3292 009e 002C     		cmp	r4, #0
 3293 00a0 E9D1     		bne	.L126
 119:../Common/IQMath/ti/_IQNexp.c ****     
 3294              		.loc 1 119 5 is_stmt 1 view .LVU1264
 119:../Common/IQMath/ti/_IQNexp.c ****     
 3295              		.loc 1 119 27 is_stmt 0 view .LVU1265
 3296 00a2 5B00     		lsls	r3, r3, #1
 3297              	.LVL486:
 125:../Common/IQMath/ti/_IQNexp.c ****     
 3298              		.loc 1 125 5 is_stmt 1 view .LVU1266
 3299              	.LBB200:
 3300              	.LBI200:
 254:../Common/IQMath/ti/./support/RTS_support.h **** {
 3301              		.loc 2 254 29 view .LVU1267
 3302              	.LBB201:
 3303              		.loc 2 256 5 view .LVU1268
 3304              		.loc 2 256 49 is_stmt 0 view .LVU1269
 3305 00a4 A5FB0353 		umull	r5, r3, r5, r3
 3306              	.LVL487:
 3307              		.loc 2 256 72 view .LVU1270
 3308 00a8 ED0F     		lsrs	r5, r5, #31
 3309 00aa 45EA4305 		orr	r5, r5, r3, lsl #1
 3310              	.LVL488:
 3311              		.loc 2 256 72 view .LVU1271
 3312              	.LBE201:
 3313              	.LBE200:
 131:../Common/IQMath/ti/_IQNexp.c ****     
 3314              		.loc 1 131 5 is_stmt 1 view .LVU1272
 131:../Common/IQMath/ti/_IQNexp.c ****     
 3315              		.loc 1 131 5 is_stmt 0 view .LVU1273
 3316              	.LBE202:
 3317              	.LBE205:
  72:../Common/IQMath/ti/./support/RTS_support.h **** }
 3318              		.loc 2 72 5 is_stmt 1 view .LVU1274
 3319              	.LBB206:
 3320              	.LBB203:
ARM GAS  C:\Users\57308\AppData\Local\Temp\ccyuPR38.s 			page 88


 134:../Common/IQMath/ti/_IQNexp.c ****     uiqNResult >>= 1;
 3321              		.loc 1 134 5 view .LVU1275
 134:../Common/IQMath/ti/_IQNexp.c ****     uiqNResult >>= 1;
 3322              		.loc 1 134 15 is_stmt 0 view .LVU1276
 3323 00ae 0135     		adds	r5, r5, #1
 3324              	.LVL489:
 135:../Common/IQMath/ti/_IQNexp.c ****     
 3325              		.loc 1 135 5 is_stmt 1 view .LVU1277
 135:../Common/IQMath/ti/_IQNexp.c ****     
 3326              		.loc 1 135 16 is_stmt 0 view .LVU1278
 3327 00b0 6808     		lsrs	r0, r5, #1
 3328              	.LVL490:
 137:../Common/IQMath/ti/_IQNexp.c **** }
 3329              		.loc 1 137 5 is_stmt 1 view .LVU1279
 3330              	.L121:
 137:../Common/IQMath/ti/_IQNexp.c **** }
 3331              		.loc 1 137 5 is_stmt 0 view .LVU1280
 3332              	.LBE203:
 3333              	.LBE206:
 260:../Common/IQMath/ti/_IQNexp.c **** }
 3334              		.loc 1 260 1 view .LVU1281
 3335 00b2 30BC     		pop	{r4, r5}
 3336              	.LCFI31:
 3337              		.cfi_remember_state
 3338              		.cfi_restore 5
 3339              		.cfi_restore 4
 3340              		.cfi_def_cfa_offset 0
 3341 00b4 7047     		bx	lr
 3342              	.LVL491:
 3343              	.L127:
 3344              	.LCFI32:
 3345              		.cfi_restore_state
 3346              	.LBB207:
 3347              	.LBB204:
  49:../Common/IQMath/ti/_IQNexp.c ****         }
 3348              		.loc 1 49 20 view .LVU1282
 3349 00b6 0020     		movs	r0, #0
 3350              	.LVL492:
  49:../Common/IQMath/ti/_IQNexp.c ****         }
 3351              		.loc 1 49 20 view .LVU1283
 3352 00b8 FBE7     		b	.L121
 3353              	.LVL493:
 3354              	.L128:
  74:../Common/IQMath/ti/_IQNexp.c ****         }
 3355              		.loc 1 74 20 view .LVU1284
 3356 00ba 6FF00040 		mvn	r0, #-2147483648
 3357              	.LVL494:
  74:../Common/IQMath/ti/_IQNexp.c ****         }
 3358              		.loc 1 74 20 view .LVU1285
 3359              	.LBE204:
 3360              	.LBE207:
 259:../Common/IQMath/ti/_IQNexp.c **** }
 3361              		.loc 1 259 12 view .LVU1286
 3362 00be F8E7     		b	.L121
 3363              	.L132:
 3364              		.align	2
 3365              	.L131:
ARM GAS  C:\Users\57308\AppData\Local\Temp\ccyuPR38.s 			page 89


 3366 00c0 00000000 		.word	_IQNexp_offset
 3367 00c4 00000000 		.word	_IQNexp_min
 3368 00c8 00000000 		.word	_IQNexp_max
 3369 00cc 00000000 		.word	_IQNexp_lookup20
 3370 00d0 FB0BB958 		.word	1488522235
 3371 00d4 00000000 		.word	_IQ30exp_coeffs
 3372 00d8 05F446A7 		.word	-1488522235
 3373              		.cfi_endproc
 3374              	.LFE272:
 3376              		.section	.text._IQ19exp,"ax",%progbits
 3377              		.align	1
 3378              		.global	_IQ19exp
 3379              		.syntax unified
 3380              		.thumb
 3381              		.thumb_func
 3383              	_IQ19exp:
 3384              	.LVL495:
 3385              	.LFB273:
 261:../Common/IQMath/ti/_IQNexp.c **** /**
 262:../Common/IQMath/ti/_IQNexp.c ****  * @brief Computes the exponential of an IQ19 input.
 263:../Common/IQMath/ti/_IQNexp.c ****  *
 264:../Common/IQMath/ti/_IQNexp.c ****  * @param a               IQ19 type input.
 265:../Common/IQMath/ti/_IQNexp.c ****  *
 266:../Common/IQMath/ti/_IQNexp.c ****  * @return                IQ19 type result of exponential.
 267:../Common/IQMath/ti/_IQNexp.c ****  */
 268:../Common/IQMath/ti/_IQNexp.c **** int32_t _IQ19exp(int32_t a)
 269:../Common/IQMath/ti/_IQNexp.c **** {
 3386              		.loc 1 269 1 is_stmt 1 view -0
 3387              		.cfi_startproc
 3388              		@ args = 0, pretend = 0, frame = 0
 3389              		@ frame_needed = 0, uses_anonymous_args = 0
 3390              		@ link register save eliminated.
 3391              		.loc 1 269 1 is_stmt 0 view .LVU1288
 3392 0000 30B4     		push	{r4, r5}
 3393              	.LCFI33:
 3394              		.cfi_def_cfa_offset 8
 3395              		.cfi_offset 4, -8
 3396              		.cfi_offset 5, -4
 270:../Common/IQMath/ti/_IQNexp.c ****     return __IQNexp(a, _IQNexp_lookup19, _IQNexp_offset[19-1], _IQNexp_min[19-1], _IQNexp_max[19-1]
 3397              		.loc 1 270 5 is_stmt 1 view .LVU1289
 3398              		.loc 1 270 12 is_stmt 0 view .LVU1290
 3399 0002 2F4B     		ldr	r3, .L143
 3400 0004 93F84830 		ldrb	r3, [r3, #72]	@ zero_extendqisi2
 3401              		.loc 1 270 75 view .LVU1291
 3402 0008 2E4A     		ldr	r2, .L143+4
 3403 000a 916C     		ldr	r1, [r2, #72]
 3404              		.loc 1 270 94 view .LVU1292
 3405 000c 2E4A     		ldr	r2, .L143+8
 3406 000e 926C     		ldr	r2, [r2, #72]
 3407              	.LVL496:
 3408              	.LBB214:
 3409              	.LBI214:
  32:../Common/IQMath/ti/_IQNexp.c **** {
 3410              		.loc 1 32 30 is_stmt 1 view .LVU1293
 3411              	.LBB215:
  34:../Common/IQMath/ti/_IQNexp.c ****     int_fast16_t i16Integer;
 3412              		.loc 1 34 5 view .LVU1294
ARM GAS  C:\Users\57308\AppData\Local\Temp\ccyuPR38.s 			page 90


  35:../Common/IQMath/ti/_IQNexp.c ****     uint_fast16_t ui16IntState;
 3413              		.loc 1 35 5 view .LVU1295
  36:../Common/IQMath/ti/_IQNexp.c ****     uint_fast16_t ui16MPYState;
 3414              		.loc 1 36 5 view .LVU1296
  37:../Common/IQMath/ti/_IQNexp.c ****     int_fast32_t iq31Fractional;
 3415              		.loc 1 37 5 view .LVU1297
  38:../Common/IQMath/ti/_IQNexp.c ****     uint_fast32_t uiqNResult;
 3416              		.loc 1 38 5 view .LVU1298
  39:../Common/IQMath/ti/_IQNexp.c ****     uint_fast32_t uiqNIntegerResult;
 3417              		.loc 1 39 5 view .LVU1299
  40:../Common/IQMath/ti/_IQNexp.c ****     uint_fast32_t uiq30FractionalResult;
 3418              		.loc 1 40 5 view .LVU1300
  41:../Common/IQMath/ti/_IQNexp.c ****     uint_fast32_t uiq31FractionalResult;
 3419              		.loc 1 41 5 view .LVU1301
  42:../Common/IQMath/ti/_IQNexp.c ****     const uint_fast32_t *piq30Coeffs;
 3420              		.loc 1 42 5 view .LVU1302
  43:../Common/IQMath/ti/_IQNexp.c ****     
 3421              		.loc 1 43 5 view .LVU1303
  46:../Common/IQMath/ti/_IQNexp.c ****         /* Check for the minimum value. */
 3422              		.loc 1 46 5 view .LVU1304
  46:../Common/IQMath/ti/_IQNexp.c ****         /* Check for the minimum value. */
 3423              		.loc 1 46 8 is_stmt 0 view .LVU1305
 3424 0010 0028     		cmp	r0, #0
  46:../Common/IQMath/ti/_IQNexp.c ****         /* Check for the minimum value. */
 3425              		.loc 1 46 8 view .LVU1306
 3426 0012 19DB     		blt	.L142
  73:../Common/IQMath/ti/_IQNexp.c ****             return INT32_MAX;
 3427              		.loc 1 73 9 is_stmt 1 view .LVU1307
  73:../Common/IQMath/ti/_IQNexp.c ****             return INT32_MAX;
 3428              		.loc 1 73 12 is_stmt 0 view .LVU1308
 3429 0014 8242     		cmp	r2, r0
 3430 0016 50DB     		blt	.L140
  78:../Common/IQMath/ti/_IQNexp.c ****         iq31Fractional <<= (31 - q_value);
 3431              		.loc 1 78 9 is_stmt 1 view .LVU1309
 3432              	.LVL497:
  79:../Common/IQMath/ti/_IQNexp.c ****         iq31Fractional &= 0x7fffffff;
 3433              		.loc 1 79 9 view .LVU1310
  79:../Common/IQMath/ti/_IQNexp.c ****         iq31Fractional &= 0x7fffffff;
 3434              		.loc 1 79 24 is_stmt 0 view .LVU1311
 3435 0018 4FEA003C 		lsl	ip, r0, #12
 3436              	.LVL498:
  80:../Common/IQMath/ti/_IQNexp.c ****     
 3437              		.loc 1 80 9 is_stmt 1 view .LVU1312
  80:../Common/IQMath/ti/_IQNexp.c ****     
 3438              		.loc 1 80 24 is_stmt 0 view .LVU1313
 3439 001c 2CF0004C 		bic	ip, ip, #-2147483648
 3440              	.LVL499:
  83:../Common/IQMath/ti/_IQNexp.c ****     
 3441              		.loc 1 83 9 is_stmt 1 view .LVU1314
  86:../Common/IQMath/ti/_IQNexp.c ****         uiqNIntegerResult = iqNLookupTable[i16Integer];
 3442              		.loc 1 86 9 view .LVU1315
  86:../Common/IQMath/ti/_IQNexp.c ****         uiqNIntegerResult = iqNLookupTable[i16Integer];
 3443              		.loc 1 86 20 is_stmt 0 view .LVU1316
 3444 0020 03EBE040 		add	r0, r3, r0, asr #19
 3445              	.LVL500:
  87:../Common/IQMath/ti/_IQNexp.c ****         
 3446              		.loc 1 87 9 is_stmt 1 view .LVU1317
ARM GAS  C:\Users\57308\AppData\Local\Temp\ccyuPR38.s 			page 91


  87:../Common/IQMath/ti/_IQNexp.c ****         
 3447              		.loc 1 87 43 is_stmt 0 view .LVU1318
 3448 0024 294B     		ldr	r3, .L143+12
 3449              	.LVL501:
  87:../Common/IQMath/ti/_IQNexp.c ****         
 3450              		.loc 1 87 27 view .LVU1319
 3451 0026 53F82050 		ldr	r5, [r3, r0, lsl #2]
 3452              	.LVL502:
  90:../Common/IQMath/ti/_IQNexp.c ****             iq31Fractional -= iq31_ln2;
 3453              		.loc 1 90 9 is_stmt 1 view .LVU1320
  90:../Common/IQMath/ti/_IQNexp.c ****             iq31Fractional -= iq31_ln2;
 3454              		.loc 1 90 12 is_stmt 0 view .LVU1321
 3455 002a 294B     		ldr	r3, .L143+16
 3456 002c 9C45     		cmp	ip, r3
 3457 002e 06DD     		ble	.L136
  91:../Common/IQMath/ti/_IQNexp.c ****             uiqNIntegerResult <<= 1;
 3458              		.loc 1 91 13 is_stmt 1 view .LVU1322
  91:../Common/IQMath/ti/_IQNexp.c ****             uiqNIntegerResult <<= 1;
 3459              		.loc 1 91 28 is_stmt 0 view .LVU1323
 3460 0030 ACF1B14C 		sub	ip, ip, #1484783616
 3461              	.LVL503:
  91:../Common/IQMath/ti/_IQNexp.c ****             uiqNIntegerResult <<= 1;
 3462              		.loc 1 91 28 view .LVU1324
 3463 0034 ACF5641C 		sub	ip, ip, #3735552
 3464              	.LVL504:
  91:../Common/IQMath/ti/_IQNexp.c ****             uiqNIntegerResult <<= 1;
 3465              		.loc 1 91 28 view .LVU1325
 3466 0038 ACF6FC3C 		subw	ip, ip, #3068
 3467              	.LVL505:
  92:../Common/IQMath/ti/_IQNexp.c ****         }
 3468              		.loc 1 92 13 is_stmt 1 view .LVU1326
  92:../Common/IQMath/ti/_IQNexp.c ****         }
 3469              		.loc 1 92 31 is_stmt 0 view .LVU1327
 3470 003c 6D00     		lsls	r5, r5, #1
 3471              	.LVL506:
 3472              	.L136:
 102:../Common/IQMath/ti/_IQNexp.c ****     
 3473              		.loc 1 102 5 is_stmt 1 view .LVU1328
 102:../Common/IQMath/ti/_IQNexp.c ****     
 3474              		.loc 1 102 5 is_stmt 0 view .LVU1329
 3475              	.LBE215:
 3476              	.LBE214:
  28:../Common/IQMath/ti/./support/RTS_support.h **** }
 3477              		.loc 2 28 5 is_stmt 1 view .LVU1330
 3478              	.LBB223:
 3479              	.LBB220:
 109:../Common/IQMath/ti/_IQNexp.c ****     uiq30FractionalResult = *piq30Coeffs++;
 3480              		.loc 1 109 5 view .LVU1331
 110:../Common/IQMath/ti/_IQNexp.c ****     
 3481              		.loc 1 110 5 view .LVU1332
 110:../Common/IQMath/ti/_IQNexp.c ****     
 3482              		.loc 1 110 27 is_stmt 0 view .LVU1333
 3483 003e 2548     		ldr	r0, .L143+20
 3484              	.LVL507:
 110:../Common/IQMath/ti/_IQNexp.c ****     
 3485              		.loc 1 110 27 view .LVU1334
 3486 0040 50F8043B 		ldr	r3, [r0], #4
ARM GAS  C:\Users\57308\AppData\Local\Temp\ccyuPR38.s 			page 92


 3487              	.LVL508:
 113:../Common/IQMath/ti/_IQNexp.c ****         uiq30FractionalResult = __mpyf_l(iq31Fractional, uiq30FractionalResult);
 3488              		.loc 1 113 5 is_stmt 1 view .LVU1335
 113:../Common/IQMath/ti/_IQNexp.c ****         uiq30FractionalResult = __mpyf_l(iq31Fractional, uiq30FractionalResult);
 3489              		.loc 1 113 19 is_stmt 0 view .LVU1336
 3490 0044 0A24     		movs	r4, #10
 113:../Common/IQMath/ti/_IQNexp.c ****         uiq30FractionalResult = __mpyf_l(iq31Fractional, uiq30FractionalResult);
 3491              		.loc 1 113 5 view .LVU1337
 3492 0046 2AE0     		b	.L137
 3493              	.LVL509:
 3494              	.L142:
  48:../Common/IQMath/ti/_IQNexp.c ****             return 0;
 3495              		.loc 1 48 9 is_stmt 1 view .LVU1338
  48:../Common/IQMath/ti/_IQNexp.c ****             return 0;
 3496              		.loc 1 48 12 is_stmt 0 view .LVU1339
 3497 0048 8142     		cmp	r1, r0
 3498 004a 34DC     		bgt	.L139
  53:../Common/IQMath/ti/_IQNexp.c ****         iq31Fractional <<= (31 - q_value);
 3499              		.loc 1 53 9 is_stmt 1 view .LVU1340
 3500              	.LVL510:
  54:../Common/IQMath/ti/_IQNexp.c ****         iq31Fractional |= 0x80000000;
 3501              		.loc 1 54 9 view .LVU1341
  54:../Common/IQMath/ti/_IQNexp.c ****         iq31Fractional |= 0x80000000;
 3502              		.loc 1 54 24 is_stmt 0 view .LVU1342
 3503 004c 4FEA003C 		lsl	ip, r0, #12
 3504              	.LVL511:
  55:../Common/IQMath/ti/_IQNexp.c ****     
 3505              		.loc 1 55 9 is_stmt 1 view .LVU1343
  55:../Common/IQMath/ti/_IQNexp.c ****     
 3506              		.loc 1 55 24 is_stmt 0 view .LVU1344
 3507 0050 4CF0004C 		orr	ip, ip, #-2147483648
 3508              	.LVL512:
  58:../Common/IQMath/ti/_IQNexp.c ****     
 3509              		.loc 1 58 9 is_stmt 1 view .LVU1345
  58:../Common/IQMath/ti/_IQNexp.c ****     
 3510              		.loc 1 58 46 is_stmt 0 view .LVU1346
 3511 0054 C014     		asrs	r0, r0, #19
 3512              	.LVL513:
  58:../Common/IQMath/ti/_IQNexp.c ****     
 3513              		.loc 1 58 20 view .LVU1347
 3514 0056 0130     		adds	r0, r0, #1
 3515              	.LVL514:
  61:../Common/IQMath/ti/_IQNexp.c ****         uiqNIntegerResult = iqNLookupTable[i16Integer];
 3516              		.loc 1 61 9 is_stmt 1 view .LVU1348
  61:../Common/IQMath/ti/_IQNexp.c ****         uiqNIntegerResult = iqNLookupTable[i16Integer];
 3517              		.loc 1 61 20 is_stmt 0 view .LVU1349
 3518 0058 1844     		add	r0, r0, r3
 3519              	.LVL515:
  62:../Common/IQMath/ti/_IQNexp.c ****         
 3520              		.loc 1 62 9 is_stmt 1 view .LVU1350
  62:../Common/IQMath/ti/_IQNexp.c ****         
 3521              		.loc 1 62 43 is_stmt 0 view .LVU1351
 3522 005a 1C4B     		ldr	r3, .L143+12
 3523              	.LVL516:
  62:../Common/IQMath/ti/_IQNexp.c ****         
 3524              		.loc 1 62 27 view .LVU1352
 3525 005c 53F82050 		ldr	r5, [r3, r0, lsl #2]
ARM GAS  C:\Users\57308\AppData\Local\Temp\ccyuPR38.s 			page 93


 3526              	.LVL517:
  65:../Common/IQMath/ti/_IQNexp.c ****             iq31Fractional += iq31_ln2;
 3527              		.loc 1 65 9 is_stmt 1 view .LVU1353
  65:../Common/IQMath/ti/_IQNexp.c ****             iq31Fractional += iq31_ln2;
 3528              		.loc 1 65 12 is_stmt 0 view .LVU1354
 3529 0060 1D4B     		ldr	r3, .L143+24
 3530 0062 9C45     		cmp	ip, r3
 3531 0064 EBDA     		bge	.L136
  66:../Common/IQMath/ti/_IQNexp.c ****             uiqNIntegerResult >>= 1;
 3532              		.loc 1 66 13 is_stmt 1 view .LVU1355
  66:../Common/IQMath/ti/_IQNexp.c ****             uiqNIntegerResult >>= 1;
 3533              		.loc 1 66 28 is_stmt 0 view .LVU1356
 3534 0066 0CF1B14C 		add	ip, ip, #1484783616
 3535              	.LVL518:
  66:../Common/IQMath/ti/_IQNexp.c ****             uiqNIntegerResult >>= 1;
 3536              		.loc 1 66 28 view .LVU1357
 3537 006a 0CF5641C 		add	ip, ip, #3735552
 3538              	.LVL519:
  66:../Common/IQMath/ti/_IQNexp.c ****             uiqNIntegerResult >>= 1;
 3539              		.loc 1 66 28 view .LVU1358
 3540 006e 0CF6FC3C 		addw	ip, ip, #3068
 3541              	.LVL520:
  67:../Common/IQMath/ti/_IQNexp.c ****         }
 3542              		.loc 1 67 13 is_stmt 1 view .LVU1359
  67:../Common/IQMath/ti/_IQNexp.c ****         }
 3543              		.loc 1 67 31 is_stmt 0 view .LVU1360
 3544 0072 6D08     		lsrs	r5, r5, #1
 3545              	.LVL521:
  67:../Common/IQMath/ti/_IQNexp.c ****         }
 3546              		.loc 1 67 31 view .LVU1361
 3547 0074 E3E7     		b	.L136
 3548              	.LVL522:
 3549              	.L138:
 114:../Common/IQMath/ti/_IQNexp.c ****         uiq30FractionalResult += *piq30Coeffs++;
 3550              		.loc 1 114 9 is_stmt 1 view .LVU1362
 3551              	.LBB216:
 3552              	.LBI216:
 233:../Common/IQMath/ti/./support/RTS_support.h **** {
 3553              		.loc 2 233 28 view .LVU1363
 3554              	.LBB217:
 235:../Common/IQMath/ti/./support/RTS_support.h **** }
 3555              		.loc 2 235 5 view .LVU1364
 235:../Common/IQMath/ti/./support/RTS_support.h **** }
 3556              		.loc 2 235 28 is_stmt 0 view .LVU1365
 3557 0076 4FEAEC72 		asr	r2, ip, #31
 235:../Common/IQMath/ti/./support/RTS_support.h **** }
 3558              		.loc 2 235 49 view .LVU1366
 3559 007a D917     		asrs	r1, r3, #31
 235:../Common/IQMath/ti/./support/RTS_support.h **** }
 3560              		.loc 2 235 47 view .LVU1367
 3561 007c 0CFB01F1 		mul	r1, ip, r1
 3562 0080 03FB0212 		mla	r2, r3, r2, r1
 3563 0084 ACFB0331 		umull	r3, r1, ip, r3
 3564              	.LVL523:
 235:../Common/IQMath/ti/./support/RTS_support.h **** }
 3565              		.loc 2 235 47 view .LVU1368
 3566 0088 0A44     		add	r2, r2, r1
ARM GAS  C:\Users\57308\AppData\Local\Temp\ccyuPR38.s 			page 94


 235:../Common/IQMath/ti/./support/RTS_support.h **** }
 3567              		.loc 2 235 69 view .LVU1369
 3568 008a DB0F     		lsrs	r3, r3, #31
 3569 008c 43EA4203 		orr	r3, r3, r2, lsl #1
 3570              	.LVL524:
 235:../Common/IQMath/ti/./support/RTS_support.h **** }
 3571              		.loc 2 235 69 view .LVU1370
 3572              	.LBE217:
 3573              	.LBE216:
 115:../Common/IQMath/ti/_IQNexp.c ****     }
 3574              		.loc 1 115 9 is_stmt 1 view .LVU1371
 115:../Common/IQMath/ti/_IQNexp.c ****     }
 3575              		.loc 1 115 46 is_stmt 0 view .LVU1372
 3576 0090 0246     		mov	r2, r0
 3577              	.LVL525:
 115:../Common/IQMath/ti/_IQNexp.c ****     }
 3578              		.loc 1 115 34 view .LVU1373
 3579 0092 52F8041B 		ldr	r1, [r2], #4
 3580              	.LVL526:
 115:../Common/IQMath/ti/_IQNexp.c ****     }
 3581              		.loc 1 115 31 view .LVU1374
 3582 0096 0B44     		add	r3, r3, r1
 3583              	.LVL527:
 113:../Common/IQMath/ti/_IQNexp.c ****         uiq30FractionalResult = __mpyf_l(iq31Fractional, uiq30FractionalResult);
 3584              		.loc 1 113 51 is_stmt 1 view .LVU1375
 113:../Common/IQMath/ti/_IQNexp.c ****         uiq30FractionalResult = __mpyf_l(iq31Fractional, uiq30FractionalResult);
 3585              		.loc 1 113 59 is_stmt 0 view .LVU1376
 3586 0098 013C     		subs	r4, r4, #1
 3587              	.LVL528:
 113:../Common/IQMath/ti/_IQNexp.c ****         uiq30FractionalResult = __mpyf_l(iq31Fractional, uiq30FractionalResult);
 3588              		.loc 1 113 59 view .LVU1377
 3589 009a E4B2     		uxtb	r4, r4
 3590              	.LVL529:
 115:../Common/IQMath/ti/_IQNexp.c ****     }
 3591              		.loc 1 115 46 view .LVU1378
 3592 009c 1046     		mov	r0, r2
 3593              	.LVL530:
 3594              	.L137:
 113:../Common/IQMath/ti/_IQNexp.c ****         uiq30FractionalResult = __mpyf_l(iq31Fractional, uiq30FractionalResult);
 3595              		.loc 1 113 37 is_stmt 1 view .LVU1379
 113:../Common/IQMath/ti/_IQNexp.c ****         uiq30FractionalResult = __mpyf_l(iq31Fractional, uiq30FractionalResult);
 3596              		.loc 1 113 5 is_stmt 0 view .LVU1380
 3597 009e 002C     		cmp	r4, #0
 3598 00a0 E9D1     		bne	.L138
 119:../Common/IQMath/ti/_IQNexp.c ****     
 3599              		.loc 1 119 5 is_stmt 1 view .LVU1381
 119:../Common/IQMath/ti/_IQNexp.c ****     
 3600              		.loc 1 119 27 is_stmt 0 view .LVU1382
 3601 00a2 5B00     		lsls	r3, r3, #1
 3602              	.LVL531:
 125:../Common/IQMath/ti/_IQNexp.c ****     
 3603              		.loc 1 125 5 is_stmt 1 view .LVU1383
 3604              	.LBB218:
 3605              	.LBI218:
 254:../Common/IQMath/ti/./support/RTS_support.h **** {
 3606              		.loc 2 254 29 view .LVU1384
 3607              	.LBB219:
ARM GAS  C:\Users\57308\AppData\Local\Temp\ccyuPR38.s 			page 95


 3608              		.loc 2 256 5 view .LVU1385
 3609              		.loc 2 256 49 is_stmt 0 view .LVU1386
 3610 00a4 A5FB0353 		umull	r5, r3, r5, r3
 3611              	.LVL532:
 3612              		.loc 2 256 72 view .LVU1387
 3613 00a8 ED0F     		lsrs	r5, r5, #31
 3614 00aa 45EA4305 		orr	r5, r5, r3, lsl #1
 3615              	.LVL533:
 3616              		.loc 2 256 72 view .LVU1388
 3617              	.LBE219:
 3618              	.LBE218:
 131:../Common/IQMath/ti/_IQNexp.c ****     
 3619              		.loc 1 131 5 is_stmt 1 view .LVU1389
 131:../Common/IQMath/ti/_IQNexp.c ****     
 3620              		.loc 1 131 5 is_stmt 0 view .LVU1390
 3621              	.LBE220:
 3622              	.LBE223:
  72:../Common/IQMath/ti/./support/RTS_support.h **** }
 3623              		.loc 2 72 5 is_stmt 1 view .LVU1391
 3624              	.LBB224:
 3625              	.LBB221:
 134:../Common/IQMath/ti/_IQNexp.c ****     uiqNResult >>= 1;
 3626              		.loc 1 134 5 view .LVU1392
 134:../Common/IQMath/ti/_IQNexp.c ****     uiqNResult >>= 1;
 3627              		.loc 1 134 15 is_stmt 0 view .LVU1393
 3628 00ae 0135     		adds	r5, r5, #1
 3629              	.LVL534:
 135:../Common/IQMath/ti/_IQNexp.c ****     
 3630              		.loc 1 135 5 is_stmt 1 view .LVU1394
 135:../Common/IQMath/ti/_IQNexp.c ****     
 3631              		.loc 1 135 16 is_stmt 0 view .LVU1395
 3632 00b0 6808     		lsrs	r0, r5, #1
 3633              	.LVL535:
 137:../Common/IQMath/ti/_IQNexp.c **** }
 3634              		.loc 1 137 5 is_stmt 1 view .LVU1396
 3635              	.L133:
 137:../Common/IQMath/ti/_IQNexp.c **** }
 3636              		.loc 1 137 5 is_stmt 0 view .LVU1397
 3637              	.LBE221:
 3638              	.LBE224:
 271:../Common/IQMath/ti/_IQNexp.c **** }
 3639              		.loc 1 271 1 view .LVU1398
 3640 00b2 30BC     		pop	{r4, r5}
 3641              	.LCFI34:
 3642              		.cfi_remember_state
 3643              		.cfi_restore 5
 3644              		.cfi_restore 4
 3645              		.cfi_def_cfa_offset 0
 3646 00b4 7047     		bx	lr
 3647              	.LVL536:
 3648              	.L139:
 3649              	.LCFI35:
 3650              		.cfi_restore_state
 3651              	.LBB225:
 3652              	.LBB222:
  49:../Common/IQMath/ti/_IQNexp.c ****         }
 3653              		.loc 1 49 20 view .LVU1399
ARM GAS  C:\Users\57308\AppData\Local\Temp\ccyuPR38.s 			page 96


 3654 00b6 0020     		movs	r0, #0
 3655              	.LVL537:
  49:../Common/IQMath/ti/_IQNexp.c ****         }
 3656              		.loc 1 49 20 view .LVU1400
 3657 00b8 FBE7     		b	.L133
 3658              	.LVL538:
 3659              	.L140:
  74:../Common/IQMath/ti/_IQNexp.c ****         }
 3660              		.loc 1 74 20 view .LVU1401
 3661 00ba 6FF00040 		mvn	r0, #-2147483648
 3662              	.LVL539:
  74:../Common/IQMath/ti/_IQNexp.c ****         }
 3663              		.loc 1 74 20 view .LVU1402
 3664              	.LBE222:
 3665              	.LBE225:
 270:../Common/IQMath/ti/_IQNexp.c **** }
 3666              		.loc 1 270 12 view .LVU1403
 3667 00be F8E7     		b	.L133
 3668              	.L144:
 3669              		.align	2
 3670              	.L143:
 3671 00c0 00000000 		.word	_IQNexp_offset
 3672 00c4 00000000 		.word	_IQNexp_min
 3673 00c8 00000000 		.word	_IQNexp_max
 3674 00cc 00000000 		.word	_IQNexp_lookup19
 3675 00d0 FB0BB958 		.word	1488522235
 3676 00d4 00000000 		.word	_IQ30exp_coeffs
 3677 00d8 05F446A7 		.word	-1488522235
 3678              		.cfi_endproc
 3679              	.LFE273:
 3681              		.section	.text._IQ18exp,"ax",%progbits
 3682              		.align	1
 3683              		.global	_IQ18exp
 3684              		.syntax unified
 3685              		.thumb
 3686              		.thumb_func
 3688              	_IQ18exp:
 3689              	.LVL540:
 3690              	.LFB274:
 272:../Common/IQMath/ti/_IQNexp.c **** /**
 273:../Common/IQMath/ti/_IQNexp.c ****  * @brief Computes the exponential of an IQ18 input.
 274:../Common/IQMath/ti/_IQNexp.c ****  *
 275:../Common/IQMath/ti/_IQNexp.c ****  * @param a               IQ18 type input.
 276:../Common/IQMath/ti/_IQNexp.c ****  *
 277:../Common/IQMath/ti/_IQNexp.c ****  * @return                IQ18 type result of exponential.
 278:../Common/IQMath/ti/_IQNexp.c ****  */
 279:../Common/IQMath/ti/_IQNexp.c **** int32_t _IQ18exp(int32_t a)
 280:../Common/IQMath/ti/_IQNexp.c **** {
 3691              		.loc 1 280 1 is_stmt 1 view -0
 3692              		.cfi_startproc
 3693              		@ args = 0, pretend = 0, frame = 0
 3694              		@ frame_needed = 0, uses_anonymous_args = 0
 3695              		@ link register save eliminated.
 3696              		.loc 1 280 1 is_stmt 0 view .LVU1405
 3697 0000 30B4     		push	{r4, r5}
 3698              	.LCFI36:
 3699              		.cfi_def_cfa_offset 8
ARM GAS  C:\Users\57308\AppData\Local\Temp\ccyuPR38.s 			page 97


 3700              		.cfi_offset 4, -8
 3701              		.cfi_offset 5, -4
 281:../Common/IQMath/ti/_IQNexp.c ****     return __IQNexp(a, _IQNexp_lookup18, _IQNexp_offset[18-1], _IQNexp_min[18-1], _IQNexp_max[18-1]
 3702              		.loc 1 281 5 is_stmt 1 view .LVU1406
 3703              		.loc 1 281 12 is_stmt 0 view .LVU1407
 3704 0002 2F4B     		ldr	r3, .L155
 3705 0004 93F84430 		ldrb	r3, [r3, #68]	@ zero_extendqisi2
 3706              		.loc 1 281 75 view .LVU1408
 3707 0008 2E4A     		ldr	r2, .L155+4
 3708 000a 516C     		ldr	r1, [r2, #68]
 3709              		.loc 1 281 94 view .LVU1409
 3710 000c 2E4A     		ldr	r2, .L155+8
 3711 000e 526C     		ldr	r2, [r2, #68]
 3712              	.LVL541:
 3713              	.LBB232:
 3714              	.LBI232:
  32:../Common/IQMath/ti/_IQNexp.c **** {
 3715              		.loc 1 32 30 is_stmt 1 view .LVU1410
 3716              	.LBB233:
  34:../Common/IQMath/ti/_IQNexp.c ****     int_fast16_t i16Integer;
 3717              		.loc 1 34 5 view .LVU1411
  35:../Common/IQMath/ti/_IQNexp.c ****     uint_fast16_t ui16IntState;
 3718              		.loc 1 35 5 view .LVU1412
  36:../Common/IQMath/ti/_IQNexp.c ****     uint_fast16_t ui16MPYState;
 3719              		.loc 1 36 5 view .LVU1413
  37:../Common/IQMath/ti/_IQNexp.c ****     int_fast32_t iq31Fractional;
 3720              		.loc 1 37 5 view .LVU1414
  38:../Common/IQMath/ti/_IQNexp.c ****     uint_fast32_t uiqNResult;
 3721              		.loc 1 38 5 view .LVU1415
  39:../Common/IQMath/ti/_IQNexp.c ****     uint_fast32_t uiqNIntegerResult;
 3722              		.loc 1 39 5 view .LVU1416
  40:../Common/IQMath/ti/_IQNexp.c ****     uint_fast32_t uiq30FractionalResult;
 3723              		.loc 1 40 5 view .LVU1417
  41:../Common/IQMath/ti/_IQNexp.c ****     uint_fast32_t uiq31FractionalResult;
 3724              		.loc 1 41 5 view .LVU1418
  42:../Common/IQMath/ti/_IQNexp.c ****     const uint_fast32_t *piq30Coeffs;
 3725              		.loc 1 42 5 view .LVU1419
  43:../Common/IQMath/ti/_IQNexp.c ****     
 3726              		.loc 1 43 5 view .LVU1420
  46:../Common/IQMath/ti/_IQNexp.c ****         /* Check for the minimum value. */
 3727              		.loc 1 46 5 view .LVU1421
  46:../Common/IQMath/ti/_IQNexp.c ****         /* Check for the minimum value. */
 3728              		.loc 1 46 8 is_stmt 0 view .LVU1422
 3729 0010 0028     		cmp	r0, #0
  46:../Common/IQMath/ti/_IQNexp.c ****         /* Check for the minimum value. */
 3730              		.loc 1 46 8 view .LVU1423
 3731 0012 19DB     		blt	.L154
  73:../Common/IQMath/ti/_IQNexp.c ****             return INT32_MAX;
 3732              		.loc 1 73 9 is_stmt 1 view .LVU1424
  73:../Common/IQMath/ti/_IQNexp.c ****             return INT32_MAX;
 3733              		.loc 1 73 12 is_stmt 0 view .LVU1425
 3734 0014 8242     		cmp	r2, r0
 3735 0016 50DB     		blt	.L152
  78:../Common/IQMath/ti/_IQNexp.c ****         iq31Fractional <<= (31 - q_value);
 3736              		.loc 1 78 9 is_stmt 1 view .LVU1426
 3737              	.LVL542:
  79:../Common/IQMath/ti/_IQNexp.c ****         iq31Fractional &= 0x7fffffff;
ARM GAS  C:\Users\57308\AppData\Local\Temp\ccyuPR38.s 			page 98


 3738              		.loc 1 79 9 view .LVU1427
  79:../Common/IQMath/ti/_IQNexp.c ****         iq31Fractional &= 0x7fffffff;
 3739              		.loc 1 79 24 is_stmt 0 view .LVU1428
 3740 0018 4FEA403C 		lsl	ip, r0, #13
 3741              	.LVL543:
  80:../Common/IQMath/ti/_IQNexp.c ****     
 3742              		.loc 1 80 9 is_stmt 1 view .LVU1429
  80:../Common/IQMath/ti/_IQNexp.c ****     
 3743              		.loc 1 80 24 is_stmt 0 view .LVU1430
 3744 001c 2CF0004C 		bic	ip, ip, #-2147483648
 3745              	.LVL544:
  83:../Common/IQMath/ti/_IQNexp.c ****     
 3746              		.loc 1 83 9 is_stmt 1 view .LVU1431
  86:../Common/IQMath/ti/_IQNexp.c ****         uiqNIntegerResult = iqNLookupTable[i16Integer];
 3747              		.loc 1 86 9 view .LVU1432
  86:../Common/IQMath/ti/_IQNexp.c ****         uiqNIntegerResult = iqNLookupTable[i16Integer];
 3748              		.loc 1 86 20 is_stmt 0 view .LVU1433
 3749 0020 03EBA040 		add	r0, r3, r0, asr #18
 3750              	.LVL545:
  87:../Common/IQMath/ti/_IQNexp.c ****         
 3751              		.loc 1 87 9 is_stmt 1 view .LVU1434
  87:../Common/IQMath/ti/_IQNexp.c ****         
 3752              		.loc 1 87 43 is_stmt 0 view .LVU1435
 3753 0024 294B     		ldr	r3, .L155+12
 3754              	.LVL546:
  87:../Common/IQMath/ti/_IQNexp.c ****         
 3755              		.loc 1 87 27 view .LVU1436
 3756 0026 53F82050 		ldr	r5, [r3, r0, lsl #2]
 3757              	.LVL547:
  90:../Common/IQMath/ti/_IQNexp.c ****             iq31Fractional -= iq31_ln2;
 3758              		.loc 1 90 9 is_stmt 1 view .LVU1437
  90:../Common/IQMath/ti/_IQNexp.c ****             iq31Fractional -= iq31_ln2;
 3759              		.loc 1 90 12 is_stmt 0 view .LVU1438
 3760 002a 294B     		ldr	r3, .L155+16
 3761 002c 9C45     		cmp	ip, r3
 3762 002e 06DD     		ble	.L148
  91:../Common/IQMath/ti/_IQNexp.c ****             uiqNIntegerResult <<= 1;
 3763              		.loc 1 91 13 is_stmt 1 view .LVU1439
  91:../Common/IQMath/ti/_IQNexp.c ****             uiqNIntegerResult <<= 1;
 3764              		.loc 1 91 28 is_stmt 0 view .LVU1440
 3765 0030 ACF1B14C 		sub	ip, ip, #1484783616
 3766              	.LVL548:
  91:../Common/IQMath/ti/_IQNexp.c ****             uiqNIntegerResult <<= 1;
 3767              		.loc 1 91 28 view .LVU1441
 3768 0034 ACF5641C 		sub	ip, ip, #3735552
 3769              	.LVL549:
  91:../Common/IQMath/ti/_IQNexp.c ****             uiqNIntegerResult <<= 1;
 3770              		.loc 1 91 28 view .LVU1442
 3771 0038 ACF6FC3C 		subw	ip, ip, #3068
 3772              	.LVL550:
  92:../Common/IQMath/ti/_IQNexp.c ****         }
 3773              		.loc 1 92 13 is_stmt 1 view .LVU1443
  92:../Common/IQMath/ti/_IQNexp.c ****         }
 3774              		.loc 1 92 31 is_stmt 0 view .LVU1444
 3775 003c 6D00     		lsls	r5, r5, #1
 3776              	.LVL551:
 3777              	.L148:
ARM GAS  C:\Users\57308\AppData\Local\Temp\ccyuPR38.s 			page 99


 102:../Common/IQMath/ti/_IQNexp.c ****     
 3778              		.loc 1 102 5 is_stmt 1 view .LVU1445
 102:../Common/IQMath/ti/_IQNexp.c ****     
 3779              		.loc 1 102 5 is_stmt 0 view .LVU1446
 3780              	.LBE233:
 3781              	.LBE232:
  28:../Common/IQMath/ti/./support/RTS_support.h **** }
 3782              		.loc 2 28 5 is_stmt 1 view .LVU1447
 3783              	.LBB241:
 3784              	.LBB238:
 109:../Common/IQMath/ti/_IQNexp.c ****     uiq30FractionalResult = *piq30Coeffs++;
 3785              		.loc 1 109 5 view .LVU1448
 110:../Common/IQMath/ti/_IQNexp.c ****     
 3786              		.loc 1 110 5 view .LVU1449
 110:../Common/IQMath/ti/_IQNexp.c ****     
 3787              		.loc 1 110 27 is_stmt 0 view .LVU1450
 3788 003e 2548     		ldr	r0, .L155+20
 3789              	.LVL552:
 110:../Common/IQMath/ti/_IQNexp.c ****     
 3790              		.loc 1 110 27 view .LVU1451
 3791 0040 50F8043B 		ldr	r3, [r0], #4
 3792              	.LVL553:
 113:../Common/IQMath/ti/_IQNexp.c ****         uiq30FractionalResult = __mpyf_l(iq31Fractional, uiq30FractionalResult);
 3793              		.loc 1 113 5 is_stmt 1 view .LVU1452
 113:../Common/IQMath/ti/_IQNexp.c ****         uiq30FractionalResult = __mpyf_l(iq31Fractional, uiq30FractionalResult);
 3794              		.loc 1 113 19 is_stmt 0 view .LVU1453
 3795 0044 0A24     		movs	r4, #10
 113:../Common/IQMath/ti/_IQNexp.c ****         uiq30FractionalResult = __mpyf_l(iq31Fractional, uiq30FractionalResult);
 3796              		.loc 1 113 5 view .LVU1454
 3797 0046 2AE0     		b	.L149
 3798              	.LVL554:
 3799              	.L154:
  48:../Common/IQMath/ti/_IQNexp.c ****             return 0;
 3800              		.loc 1 48 9 is_stmt 1 view .LVU1455
  48:../Common/IQMath/ti/_IQNexp.c ****             return 0;
 3801              		.loc 1 48 12 is_stmt 0 view .LVU1456
 3802 0048 8142     		cmp	r1, r0
 3803 004a 34DC     		bgt	.L151
  53:../Common/IQMath/ti/_IQNexp.c ****         iq31Fractional <<= (31 - q_value);
 3804              		.loc 1 53 9 is_stmt 1 view .LVU1457
 3805              	.LVL555:
  54:../Common/IQMath/ti/_IQNexp.c ****         iq31Fractional |= 0x80000000;
 3806              		.loc 1 54 9 view .LVU1458
  54:../Common/IQMath/ti/_IQNexp.c ****         iq31Fractional |= 0x80000000;
 3807              		.loc 1 54 24 is_stmt 0 view .LVU1459
 3808 004c 4FEA403C 		lsl	ip, r0, #13
 3809              	.LVL556:
  55:../Common/IQMath/ti/_IQNexp.c ****     
 3810              		.loc 1 55 9 is_stmt 1 view .LVU1460
  55:../Common/IQMath/ti/_IQNexp.c ****     
 3811              		.loc 1 55 24 is_stmt 0 view .LVU1461
 3812 0050 4CF0004C 		orr	ip, ip, #-2147483648
 3813              	.LVL557:
  58:../Common/IQMath/ti/_IQNexp.c ****     
 3814              		.loc 1 58 9 is_stmt 1 view .LVU1462
  58:../Common/IQMath/ti/_IQNexp.c ****     
 3815              		.loc 1 58 46 is_stmt 0 view .LVU1463
ARM GAS  C:\Users\57308\AppData\Local\Temp\ccyuPR38.s 			page 100


 3816 0054 8014     		asrs	r0, r0, #18
 3817              	.LVL558:
  58:../Common/IQMath/ti/_IQNexp.c ****     
 3818              		.loc 1 58 20 view .LVU1464
 3819 0056 0130     		adds	r0, r0, #1
 3820              	.LVL559:
  61:../Common/IQMath/ti/_IQNexp.c ****         uiqNIntegerResult = iqNLookupTable[i16Integer];
 3821              		.loc 1 61 9 is_stmt 1 view .LVU1465
  61:../Common/IQMath/ti/_IQNexp.c ****         uiqNIntegerResult = iqNLookupTable[i16Integer];
 3822              		.loc 1 61 20 is_stmt 0 view .LVU1466
 3823 0058 1844     		add	r0, r0, r3
 3824              	.LVL560:
  62:../Common/IQMath/ti/_IQNexp.c ****         
 3825              		.loc 1 62 9 is_stmt 1 view .LVU1467
  62:../Common/IQMath/ti/_IQNexp.c ****         
 3826              		.loc 1 62 43 is_stmt 0 view .LVU1468
 3827 005a 1C4B     		ldr	r3, .L155+12
 3828              	.LVL561:
  62:../Common/IQMath/ti/_IQNexp.c ****         
 3829              		.loc 1 62 27 view .LVU1469
 3830 005c 53F82050 		ldr	r5, [r3, r0, lsl #2]
 3831              	.LVL562:
  65:../Common/IQMath/ti/_IQNexp.c ****             iq31Fractional += iq31_ln2;
 3832              		.loc 1 65 9 is_stmt 1 view .LVU1470
  65:../Common/IQMath/ti/_IQNexp.c ****             iq31Fractional += iq31_ln2;
 3833              		.loc 1 65 12 is_stmt 0 view .LVU1471
 3834 0060 1D4B     		ldr	r3, .L155+24
 3835 0062 9C45     		cmp	ip, r3
 3836 0064 EBDA     		bge	.L148
  66:../Common/IQMath/ti/_IQNexp.c ****             uiqNIntegerResult >>= 1;
 3837              		.loc 1 66 13 is_stmt 1 view .LVU1472
  66:../Common/IQMath/ti/_IQNexp.c ****             uiqNIntegerResult >>= 1;
 3838              		.loc 1 66 28 is_stmt 0 view .LVU1473
 3839 0066 0CF1B14C 		add	ip, ip, #1484783616
 3840              	.LVL563:
  66:../Common/IQMath/ti/_IQNexp.c ****             uiqNIntegerResult >>= 1;
 3841              		.loc 1 66 28 view .LVU1474
 3842 006a 0CF5641C 		add	ip, ip, #3735552
 3843              	.LVL564:
  66:../Common/IQMath/ti/_IQNexp.c ****             uiqNIntegerResult >>= 1;
 3844              		.loc 1 66 28 view .LVU1475
 3845 006e 0CF6FC3C 		addw	ip, ip, #3068
 3846              	.LVL565:
  67:../Common/IQMath/ti/_IQNexp.c ****         }
 3847              		.loc 1 67 13 is_stmt 1 view .LVU1476
  67:../Common/IQMath/ti/_IQNexp.c ****         }
 3848              		.loc 1 67 31 is_stmt 0 view .LVU1477
 3849 0072 6D08     		lsrs	r5, r5, #1
 3850              	.LVL566:
  67:../Common/IQMath/ti/_IQNexp.c ****         }
 3851              		.loc 1 67 31 view .LVU1478
 3852 0074 E3E7     		b	.L148
 3853              	.LVL567:
 3854              	.L150:
 114:../Common/IQMath/ti/_IQNexp.c ****         uiq30FractionalResult += *piq30Coeffs++;
 3855              		.loc 1 114 9 is_stmt 1 view .LVU1479
 3856              	.LBB234:
ARM GAS  C:\Users\57308\AppData\Local\Temp\ccyuPR38.s 			page 101


 3857              	.LBI234:
 233:../Common/IQMath/ti/./support/RTS_support.h **** {
 3858              		.loc 2 233 28 view .LVU1480
 3859              	.LBB235:
 235:../Common/IQMath/ti/./support/RTS_support.h **** }
 3860              		.loc 2 235 5 view .LVU1481
 235:../Common/IQMath/ti/./support/RTS_support.h **** }
 3861              		.loc 2 235 28 is_stmt 0 view .LVU1482
 3862 0076 4FEAEC72 		asr	r2, ip, #31
 235:../Common/IQMath/ti/./support/RTS_support.h **** }
 3863              		.loc 2 235 49 view .LVU1483
 3864 007a D917     		asrs	r1, r3, #31
 235:../Common/IQMath/ti/./support/RTS_support.h **** }
 3865              		.loc 2 235 47 view .LVU1484
 3866 007c 0CFB01F1 		mul	r1, ip, r1
 3867 0080 03FB0212 		mla	r2, r3, r2, r1
 3868 0084 ACFB0331 		umull	r3, r1, ip, r3
 3869              	.LVL568:
 235:../Common/IQMath/ti/./support/RTS_support.h **** }
 3870              		.loc 2 235 47 view .LVU1485
 3871 0088 0A44     		add	r2, r2, r1
 235:../Common/IQMath/ti/./support/RTS_support.h **** }
 3872              		.loc 2 235 69 view .LVU1486
 3873 008a DB0F     		lsrs	r3, r3, #31
 3874 008c 43EA4203 		orr	r3, r3, r2, lsl #1
 3875              	.LVL569:
 235:../Common/IQMath/ti/./support/RTS_support.h **** }
 3876              		.loc 2 235 69 view .LVU1487
 3877              	.LBE235:
 3878              	.LBE234:
 115:../Common/IQMath/ti/_IQNexp.c ****     }
 3879              		.loc 1 115 9 is_stmt 1 view .LVU1488
 115:../Common/IQMath/ti/_IQNexp.c ****     }
 3880              		.loc 1 115 46 is_stmt 0 view .LVU1489
 3881 0090 0246     		mov	r2, r0
 3882              	.LVL570:
 115:../Common/IQMath/ti/_IQNexp.c ****     }
 3883              		.loc 1 115 34 view .LVU1490
 3884 0092 52F8041B 		ldr	r1, [r2], #4
 3885              	.LVL571:
 115:../Common/IQMath/ti/_IQNexp.c ****     }
 3886              		.loc 1 115 31 view .LVU1491
 3887 0096 0B44     		add	r3, r3, r1
 3888              	.LVL572:
 113:../Common/IQMath/ti/_IQNexp.c ****         uiq30FractionalResult = __mpyf_l(iq31Fractional, uiq30FractionalResult);
 3889              		.loc 1 113 51 is_stmt 1 view .LVU1492
 113:../Common/IQMath/ti/_IQNexp.c ****         uiq30FractionalResult = __mpyf_l(iq31Fractional, uiq30FractionalResult);
 3890              		.loc 1 113 59 is_stmt 0 view .LVU1493
 3891 0098 013C     		subs	r4, r4, #1
 3892              	.LVL573:
 113:../Common/IQMath/ti/_IQNexp.c ****         uiq30FractionalResult = __mpyf_l(iq31Fractional, uiq30FractionalResult);
 3893              		.loc 1 113 59 view .LVU1494
 3894 009a E4B2     		uxtb	r4, r4
 3895              	.LVL574:
 115:../Common/IQMath/ti/_IQNexp.c ****     }
 3896              		.loc 1 115 46 view .LVU1495
 3897 009c 1046     		mov	r0, r2
ARM GAS  C:\Users\57308\AppData\Local\Temp\ccyuPR38.s 			page 102


 3898              	.LVL575:
 3899              	.L149:
 113:../Common/IQMath/ti/_IQNexp.c ****         uiq30FractionalResult = __mpyf_l(iq31Fractional, uiq30FractionalResult);
 3900              		.loc 1 113 37 is_stmt 1 view .LVU1496
 113:../Common/IQMath/ti/_IQNexp.c ****         uiq30FractionalResult = __mpyf_l(iq31Fractional, uiq30FractionalResult);
 3901              		.loc 1 113 5 is_stmt 0 view .LVU1497
 3902 009e 002C     		cmp	r4, #0
 3903 00a0 E9D1     		bne	.L150
 119:../Common/IQMath/ti/_IQNexp.c ****     
 3904              		.loc 1 119 5 is_stmt 1 view .LVU1498
 119:../Common/IQMath/ti/_IQNexp.c ****     
 3905              		.loc 1 119 27 is_stmt 0 view .LVU1499
 3906 00a2 5B00     		lsls	r3, r3, #1
 3907              	.LVL576:
 125:../Common/IQMath/ti/_IQNexp.c ****     
 3908              		.loc 1 125 5 is_stmt 1 view .LVU1500
 3909              	.LBB236:
 3910              	.LBI236:
 254:../Common/IQMath/ti/./support/RTS_support.h **** {
 3911              		.loc 2 254 29 view .LVU1501
 3912              	.LBB237:
 3913              		.loc 2 256 5 view .LVU1502
 3914              		.loc 2 256 49 is_stmt 0 view .LVU1503
 3915 00a4 A5FB0353 		umull	r5, r3, r5, r3
 3916              	.LVL577:
 3917              		.loc 2 256 72 view .LVU1504
 3918 00a8 ED0F     		lsrs	r5, r5, #31
 3919 00aa 45EA4305 		orr	r5, r5, r3, lsl #1
 3920              	.LVL578:
 3921              		.loc 2 256 72 view .LVU1505
 3922              	.LBE237:
 3923              	.LBE236:
 131:../Common/IQMath/ti/_IQNexp.c ****     
 3924              		.loc 1 131 5 is_stmt 1 view .LVU1506
 131:../Common/IQMath/ti/_IQNexp.c ****     
 3925              		.loc 1 131 5 is_stmt 0 view .LVU1507
 3926              	.LBE238:
 3927              	.LBE241:
  72:../Common/IQMath/ti/./support/RTS_support.h **** }
 3928              		.loc 2 72 5 is_stmt 1 view .LVU1508
 3929              	.LBB242:
 3930              	.LBB239:
 134:../Common/IQMath/ti/_IQNexp.c ****     uiqNResult >>= 1;
 3931              		.loc 1 134 5 view .LVU1509
 134:../Common/IQMath/ti/_IQNexp.c ****     uiqNResult >>= 1;
 3932              		.loc 1 134 15 is_stmt 0 view .LVU1510
 3933 00ae 0135     		adds	r5, r5, #1
 3934              	.LVL579:
 135:../Common/IQMath/ti/_IQNexp.c ****     
 3935              		.loc 1 135 5 is_stmt 1 view .LVU1511
 135:../Common/IQMath/ti/_IQNexp.c ****     
 3936              		.loc 1 135 16 is_stmt 0 view .LVU1512
 3937 00b0 6808     		lsrs	r0, r5, #1
 3938              	.LVL580:
 137:../Common/IQMath/ti/_IQNexp.c **** }
 3939              		.loc 1 137 5 is_stmt 1 view .LVU1513
 3940              	.L145:
ARM GAS  C:\Users\57308\AppData\Local\Temp\ccyuPR38.s 			page 103


 137:../Common/IQMath/ti/_IQNexp.c **** }
 3941              		.loc 1 137 5 is_stmt 0 view .LVU1514
 3942              	.LBE239:
 3943              	.LBE242:
 282:../Common/IQMath/ti/_IQNexp.c **** }
 3944              		.loc 1 282 1 view .LVU1515
 3945 00b2 30BC     		pop	{r4, r5}
 3946              	.LCFI37:
 3947              		.cfi_remember_state
 3948              		.cfi_restore 5
 3949              		.cfi_restore 4
 3950              		.cfi_def_cfa_offset 0
 3951 00b4 7047     		bx	lr
 3952              	.LVL581:
 3953              	.L151:
 3954              	.LCFI38:
 3955              		.cfi_restore_state
 3956              	.LBB243:
 3957              	.LBB240:
  49:../Common/IQMath/ti/_IQNexp.c ****         }
 3958              		.loc 1 49 20 view .LVU1516
 3959 00b6 0020     		movs	r0, #0
 3960              	.LVL582:
  49:../Common/IQMath/ti/_IQNexp.c ****         }
 3961              		.loc 1 49 20 view .LVU1517
 3962 00b8 FBE7     		b	.L145
 3963              	.LVL583:
 3964              	.L152:
  74:../Common/IQMath/ti/_IQNexp.c ****         }
 3965              		.loc 1 74 20 view .LVU1518
 3966 00ba 6FF00040 		mvn	r0, #-2147483648
 3967              	.LVL584:
  74:../Common/IQMath/ti/_IQNexp.c ****         }
 3968              		.loc 1 74 20 view .LVU1519
 3969              	.LBE240:
 3970              	.LBE243:
 281:../Common/IQMath/ti/_IQNexp.c **** }
 3971              		.loc 1 281 12 view .LVU1520
 3972 00be F8E7     		b	.L145
 3973              	.L156:
 3974              		.align	2
 3975              	.L155:
 3976 00c0 00000000 		.word	_IQNexp_offset
 3977 00c4 00000000 		.word	_IQNexp_min
 3978 00c8 00000000 		.word	_IQNexp_max
 3979 00cc 00000000 		.word	_IQNexp_lookup18
 3980 00d0 FB0BB958 		.word	1488522235
 3981 00d4 00000000 		.word	_IQ30exp_coeffs
 3982 00d8 05F446A7 		.word	-1488522235
 3983              		.cfi_endproc
 3984              	.LFE274:
 3986              		.section	.text._IQ17exp,"ax",%progbits
 3987              		.align	1
 3988              		.global	_IQ17exp
 3989              		.syntax unified
 3990              		.thumb
 3991              		.thumb_func
ARM GAS  C:\Users\57308\AppData\Local\Temp\ccyuPR38.s 			page 104


 3993              	_IQ17exp:
 3994              	.LVL585:
 3995              	.LFB275:
 283:../Common/IQMath/ti/_IQNexp.c **** /**
 284:../Common/IQMath/ti/_IQNexp.c ****  * @brief Computes the exponential of an IQ17 input.
 285:../Common/IQMath/ti/_IQNexp.c ****  *
 286:../Common/IQMath/ti/_IQNexp.c ****  * @param a               IQ17 type input.
 287:../Common/IQMath/ti/_IQNexp.c ****  *
 288:../Common/IQMath/ti/_IQNexp.c ****  * @return                IQ17 type result of exponential.
 289:../Common/IQMath/ti/_IQNexp.c ****  */
 290:../Common/IQMath/ti/_IQNexp.c **** int32_t _IQ17exp(int32_t a)
 291:../Common/IQMath/ti/_IQNexp.c **** {
 3996              		.loc 1 291 1 is_stmt 1 view -0
 3997              		.cfi_startproc
 3998              		@ args = 0, pretend = 0, frame = 0
 3999              		@ frame_needed = 0, uses_anonymous_args = 0
 4000              		@ link register save eliminated.
 4001              		.loc 1 291 1 is_stmt 0 view .LVU1522
 4002 0000 30B4     		push	{r4, r5}
 4003              	.LCFI39:
 4004              		.cfi_def_cfa_offset 8
 4005              		.cfi_offset 4, -8
 4006              		.cfi_offset 5, -4
 292:../Common/IQMath/ti/_IQNexp.c ****     return __IQNexp(a, _IQNexp_lookup17, _IQNexp_offset[17-1], _IQNexp_min[17-1], _IQNexp_max[17-1]
 4007              		.loc 1 292 5 is_stmt 1 view .LVU1523
 4008              		.loc 1 292 12 is_stmt 0 view .LVU1524
 4009 0002 2F4B     		ldr	r3, .L167
 4010 0004 93F84030 		ldrb	r3, [r3, #64]	@ zero_extendqisi2
 4011              		.loc 1 292 75 view .LVU1525
 4012 0008 2E4A     		ldr	r2, .L167+4
 4013 000a 116C     		ldr	r1, [r2, #64]
 4014              		.loc 1 292 94 view .LVU1526
 4015 000c 2E4A     		ldr	r2, .L167+8
 4016 000e 126C     		ldr	r2, [r2, #64]
 4017              	.LVL586:
 4018              	.LBB250:
 4019              	.LBI250:
  32:../Common/IQMath/ti/_IQNexp.c **** {
 4020              		.loc 1 32 30 is_stmt 1 view .LVU1527
 4021              	.LBB251:
  34:../Common/IQMath/ti/_IQNexp.c ****     int_fast16_t i16Integer;
 4022              		.loc 1 34 5 view .LVU1528
  35:../Common/IQMath/ti/_IQNexp.c ****     uint_fast16_t ui16IntState;
 4023              		.loc 1 35 5 view .LVU1529
  36:../Common/IQMath/ti/_IQNexp.c ****     uint_fast16_t ui16MPYState;
 4024              		.loc 1 36 5 view .LVU1530
  37:../Common/IQMath/ti/_IQNexp.c ****     int_fast32_t iq31Fractional;
 4025              		.loc 1 37 5 view .LVU1531
  38:../Common/IQMath/ti/_IQNexp.c ****     uint_fast32_t uiqNResult;
 4026              		.loc 1 38 5 view .LVU1532
  39:../Common/IQMath/ti/_IQNexp.c ****     uint_fast32_t uiqNIntegerResult;
 4027              		.loc 1 39 5 view .LVU1533
  40:../Common/IQMath/ti/_IQNexp.c ****     uint_fast32_t uiq30FractionalResult;
 4028              		.loc 1 40 5 view .LVU1534
  41:../Common/IQMath/ti/_IQNexp.c ****     uint_fast32_t uiq31FractionalResult;
 4029              		.loc 1 41 5 view .LVU1535
  42:../Common/IQMath/ti/_IQNexp.c ****     const uint_fast32_t *piq30Coeffs;
ARM GAS  C:\Users\57308\AppData\Local\Temp\ccyuPR38.s 			page 105


 4030              		.loc 1 42 5 view .LVU1536
  43:../Common/IQMath/ti/_IQNexp.c ****     
 4031              		.loc 1 43 5 view .LVU1537
  46:../Common/IQMath/ti/_IQNexp.c ****         /* Check for the minimum value. */
 4032              		.loc 1 46 5 view .LVU1538
  46:../Common/IQMath/ti/_IQNexp.c ****         /* Check for the minimum value. */
 4033              		.loc 1 46 8 is_stmt 0 view .LVU1539
 4034 0010 0028     		cmp	r0, #0
  46:../Common/IQMath/ti/_IQNexp.c ****         /* Check for the minimum value. */
 4035              		.loc 1 46 8 view .LVU1540
 4036 0012 19DB     		blt	.L166
  73:../Common/IQMath/ti/_IQNexp.c ****             return INT32_MAX;
 4037              		.loc 1 73 9 is_stmt 1 view .LVU1541
  73:../Common/IQMath/ti/_IQNexp.c ****             return INT32_MAX;
 4038              		.loc 1 73 12 is_stmt 0 view .LVU1542
 4039 0014 8242     		cmp	r2, r0
 4040 0016 50DB     		blt	.L164
  78:../Common/IQMath/ti/_IQNexp.c ****         iq31Fractional <<= (31 - q_value);
 4041              		.loc 1 78 9 is_stmt 1 view .LVU1543
 4042              	.LVL587:
  79:../Common/IQMath/ti/_IQNexp.c ****         iq31Fractional &= 0x7fffffff;
 4043              		.loc 1 79 9 view .LVU1544
  79:../Common/IQMath/ti/_IQNexp.c ****         iq31Fractional &= 0x7fffffff;
 4044              		.loc 1 79 24 is_stmt 0 view .LVU1545
 4045 0018 4FEA803C 		lsl	ip, r0, #14
 4046              	.LVL588:
  80:../Common/IQMath/ti/_IQNexp.c ****     
 4047              		.loc 1 80 9 is_stmt 1 view .LVU1546
  80:../Common/IQMath/ti/_IQNexp.c ****     
 4048              		.loc 1 80 24 is_stmt 0 view .LVU1547
 4049 001c 2CF0004C 		bic	ip, ip, #-2147483648
 4050              	.LVL589:
  83:../Common/IQMath/ti/_IQNexp.c ****     
 4051              		.loc 1 83 9 is_stmt 1 view .LVU1548
  86:../Common/IQMath/ti/_IQNexp.c ****         uiqNIntegerResult = iqNLookupTable[i16Integer];
 4052              		.loc 1 86 9 view .LVU1549
  86:../Common/IQMath/ti/_IQNexp.c ****         uiqNIntegerResult = iqNLookupTable[i16Integer];
 4053              		.loc 1 86 20 is_stmt 0 view .LVU1550
 4054 0020 03EB6040 		add	r0, r3, r0, asr #17
 4055              	.LVL590:
  87:../Common/IQMath/ti/_IQNexp.c ****         
 4056              		.loc 1 87 9 is_stmt 1 view .LVU1551
  87:../Common/IQMath/ti/_IQNexp.c ****         
 4057              		.loc 1 87 43 is_stmt 0 view .LVU1552
 4058 0024 294B     		ldr	r3, .L167+12
 4059              	.LVL591:
  87:../Common/IQMath/ti/_IQNexp.c ****         
 4060              		.loc 1 87 27 view .LVU1553
 4061 0026 53F82050 		ldr	r5, [r3, r0, lsl #2]
 4062              	.LVL592:
  90:../Common/IQMath/ti/_IQNexp.c ****             iq31Fractional -= iq31_ln2;
 4063              		.loc 1 90 9 is_stmt 1 view .LVU1554
  90:../Common/IQMath/ti/_IQNexp.c ****             iq31Fractional -= iq31_ln2;
 4064              		.loc 1 90 12 is_stmt 0 view .LVU1555
 4065 002a 294B     		ldr	r3, .L167+16
 4066 002c 9C45     		cmp	ip, r3
 4067 002e 06DD     		ble	.L160
ARM GAS  C:\Users\57308\AppData\Local\Temp\ccyuPR38.s 			page 106


  91:../Common/IQMath/ti/_IQNexp.c ****             uiqNIntegerResult <<= 1;
 4068              		.loc 1 91 13 is_stmt 1 view .LVU1556
  91:../Common/IQMath/ti/_IQNexp.c ****             uiqNIntegerResult <<= 1;
 4069              		.loc 1 91 28 is_stmt 0 view .LVU1557
 4070 0030 ACF1B14C 		sub	ip, ip, #1484783616
 4071              	.LVL593:
  91:../Common/IQMath/ti/_IQNexp.c ****             uiqNIntegerResult <<= 1;
 4072              		.loc 1 91 28 view .LVU1558
 4073 0034 ACF5641C 		sub	ip, ip, #3735552
 4074              	.LVL594:
  91:../Common/IQMath/ti/_IQNexp.c ****             uiqNIntegerResult <<= 1;
 4075              		.loc 1 91 28 view .LVU1559
 4076 0038 ACF6FC3C 		subw	ip, ip, #3068
 4077              	.LVL595:
  92:../Common/IQMath/ti/_IQNexp.c ****         }
 4078              		.loc 1 92 13 is_stmt 1 view .LVU1560
  92:../Common/IQMath/ti/_IQNexp.c ****         }
 4079              		.loc 1 92 31 is_stmt 0 view .LVU1561
 4080 003c 6D00     		lsls	r5, r5, #1
 4081              	.LVL596:
 4082              	.L160:
 102:../Common/IQMath/ti/_IQNexp.c ****     
 4083              		.loc 1 102 5 is_stmt 1 view .LVU1562
 102:../Common/IQMath/ti/_IQNexp.c ****     
 4084              		.loc 1 102 5 is_stmt 0 view .LVU1563
 4085              	.LBE251:
 4086              	.LBE250:
  28:../Common/IQMath/ti/./support/RTS_support.h **** }
 4087              		.loc 2 28 5 is_stmt 1 view .LVU1564
 4088              	.LBB259:
 4089              	.LBB256:
 109:../Common/IQMath/ti/_IQNexp.c ****     uiq30FractionalResult = *piq30Coeffs++;
 4090              		.loc 1 109 5 view .LVU1565
 110:../Common/IQMath/ti/_IQNexp.c ****     
 4091              		.loc 1 110 5 view .LVU1566
 110:../Common/IQMath/ti/_IQNexp.c ****     
 4092              		.loc 1 110 27 is_stmt 0 view .LVU1567
 4093 003e 2548     		ldr	r0, .L167+20
 4094              	.LVL597:
 110:../Common/IQMath/ti/_IQNexp.c ****     
 4095              		.loc 1 110 27 view .LVU1568
 4096 0040 50F8043B 		ldr	r3, [r0], #4
 4097              	.LVL598:
 113:../Common/IQMath/ti/_IQNexp.c ****         uiq30FractionalResult = __mpyf_l(iq31Fractional, uiq30FractionalResult);
 4098              		.loc 1 113 5 is_stmt 1 view .LVU1569
 113:../Common/IQMath/ti/_IQNexp.c ****         uiq30FractionalResult = __mpyf_l(iq31Fractional, uiq30FractionalResult);
 4099              		.loc 1 113 19 is_stmt 0 view .LVU1570
 4100 0044 0A24     		movs	r4, #10
 113:../Common/IQMath/ti/_IQNexp.c ****         uiq30FractionalResult = __mpyf_l(iq31Fractional, uiq30FractionalResult);
 4101              		.loc 1 113 5 view .LVU1571
 4102 0046 2AE0     		b	.L161
 4103              	.LVL599:
 4104              	.L166:
  48:../Common/IQMath/ti/_IQNexp.c ****             return 0;
 4105              		.loc 1 48 9 is_stmt 1 view .LVU1572
  48:../Common/IQMath/ti/_IQNexp.c ****             return 0;
 4106              		.loc 1 48 12 is_stmt 0 view .LVU1573
ARM GAS  C:\Users\57308\AppData\Local\Temp\ccyuPR38.s 			page 107


 4107 0048 8142     		cmp	r1, r0
 4108 004a 34DC     		bgt	.L163
  53:../Common/IQMath/ti/_IQNexp.c ****         iq31Fractional <<= (31 - q_value);
 4109              		.loc 1 53 9 is_stmt 1 view .LVU1574
 4110              	.LVL600:
  54:../Common/IQMath/ti/_IQNexp.c ****         iq31Fractional |= 0x80000000;
 4111              		.loc 1 54 9 view .LVU1575
  54:../Common/IQMath/ti/_IQNexp.c ****         iq31Fractional |= 0x80000000;
 4112              		.loc 1 54 24 is_stmt 0 view .LVU1576
 4113 004c 4FEA803C 		lsl	ip, r0, #14
 4114              	.LVL601:
  55:../Common/IQMath/ti/_IQNexp.c ****     
 4115              		.loc 1 55 9 is_stmt 1 view .LVU1577
  55:../Common/IQMath/ti/_IQNexp.c ****     
 4116              		.loc 1 55 24 is_stmt 0 view .LVU1578
 4117 0050 4CF0004C 		orr	ip, ip, #-2147483648
 4118              	.LVL602:
  58:../Common/IQMath/ti/_IQNexp.c ****     
 4119              		.loc 1 58 9 is_stmt 1 view .LVU1579
  58:../Common/IQMath/ti/_IQNexp.c ****     
 4120              		.loc 1 58 46 is_stmt 0 view .LVU1580
 4121 0054 4014     		asrs	r0, r0, #17
 4122              	.LVL603:
  58:../Common/IQMath/ti/_IQNexp.c ****     
 4123              		.loc 1 58 20 view .LVU1581
 4124 0056 0130     		adds	r0, r0, #1
 4125              	.LVL604:
  61:../Common/IQMath/ti/_IQNexp.c ****         uiqNIntegerResult = iqNLookupTable[i16Integer];
 4126              		.loc 1 61 9 is_stmt 1 view .LVU1582
  61:../Common/IQMath/ti/_IQNexp.c ****         uiqNIntegerResult = iqNLookupTable[i16Integer];
 4127              		.loc 1 61 20 is_stmt 0 view .LVU1583
 4128 0058 1844     		add	r0, r0, r3
 4129              	.LVL605:
  62:../Common/IQMath/ti/_IQNexp.c ****         
 4130              		.loc 1 62 9 is_stmt 1 view .LVU1584
  62:../Common/IQMath/ti/_IQNexp.c ****         
 4131              		.loc 1 62 43 is_stmt 0 view .LVU1585
 4132 005a 1C4B     		ldr	r3, .L167+12
 4133              	.LVL606:
  62:../Common/IQMath/ti/_IQNexp.c ****         
 4134              		.loc 1 62 27 view .LVU1586
 4135 005c 53F82050 		ldr	r5, [r3, r0, lsl #2]
 4136              	.LVL607:
  65:../Common/IQMath/ti/_IQNexp.c ****             iq31Fractional += iq31_ln2;
 4137              		.loc 1 65 9 is_stmt 1 view .LVU1587
  65:../Common/IQMath/ti/_IQNexp.c ****             iq31Fractional += iq31_ln2;
 4138              		.loc 1 65 12 is_stmt 0 view .LVU1588
 4139 0060 1D4B     		ldr	r3, .L167+24
 4140 0062 9C45     		cmp	ip, r3
 4141 0064 EBDA     		bge	.L160
  66:../Common/IQMath/ti/_IQNexp.c ****             uiqNIntegerResult >>= 1;
 4142              		.loc 1 66 13 is_stmt 1 view .LVU1589
  66:../Common/IQMath/ti/_IQNexp.c ****             uiqNIntegerResult >>= 1;
 4143              		.loc 1 66 28 is_stmt 0 view .LVU1590
 4144 0066 0CF1B14C 		add	ip, ip, #1484783616
 4145              	.LVL608:
  66:../Common/IQMath/ti/_IQNexp.c ****             uiqNIntegerResult >>= 1;
ARM GAS  C:\Users\57308\AppData\Local\Temp\ccyuPR38.s 			page 108


 4146              		.loc 1 66 28 view .LVU1591
 4147 006a 0CF5641C 		add	ip, ip, #3735552
 4148              	.LVL609:
  66:../Common/IQMath/ti/_IQNexp.c ****             uiqNIntegerResult >>= 1;
 4149              		.loc 1 66 28 view .LVU1592
 4150 006e 0CF6FC3C 		addw	ip, ip, #3068
 4151              	.LVL610:
  67:../Common/IQMath/ti/_IQNexp.c ****         }
 4152              		.loc 1 67 13 is_stmt 1 view .LVU1593
  67:../Common/IQMath/ti/_IQNexp.c ****         }
 4153              		.loc 1 67 31 is_stmt 0 view .LVU1594
 4154 0072 6D08     		lsrs	r5, r5, #1
 4155              	.LVL611:
  67:../Common/IQMath/ti/_IQNexp.c ****         }
 4156              		.loc 1 67 31 view .LVU1595
 4157 0074 E3E7     		b	.L160
 4158              	.LVL612:
 4159              	.L162:
 114:../Common/IQMath/ti/_IQNexp.c ****         uiq30FractionalResult += *piq30Coeffs++;
 4160              		.loc 1 114 9 is_stmt 1 view .LVU1596
 4161              	.LBB252:
 4162              	.LBI252:
 233:../Common/IQMath/ti/./support/RTS_support.h **** {
 4163              		.loc 2 233 28 view .LVU1597
 4164              	.LBB253:
 235:../Common/IQMath/ti/./support/RTS_support.h **** }
 4165              		.loc 2 235 5 view .LVU1598
 235:../Common/IQMath/ti/./support/RTS_support.h **** }
 4166              		.loc 2 235 28 is_stmt 0 view .LVU1599
 4167 0076 4FEAEC72 		asr	r2, ip, #31
 235:../Common/IQMath/ti/./support/RTS_support.h **** }
 4168              		.loc 2 235 49 view .LVU1600
 4169 007a D917     		asrs	r1, r3, #31
 235:../Common/IQMath/ti/./support/RTS_support.h **** }
 4170              		.loc 2 235 47 view .LVU1601
 4171 007c 0CFB01F1 		mul	r1, ip, r1
 4172 0080 03FB0212 		mla	r2, r3, r2, r1
 4173 0084 ACFB0331 		umull	r3, r1, ip, r3
 4174              	.LVL613:
 235:../Common/IQMath/ti/./support/RTS_support.h **** }
 4175              		.loc 2 235 47 view .LVU1602
 4176 0088 0A44     		add	r2, r2, r1
 235:../Common/IQMath/ti/./support/RTS_support.h **** }
 4177              		.loc 2 235 69 view .LVU1603
 4178 008a DB0F     		lsrs	r3, r3, #31
 4179 008c 43EA4203 		orr	r3, r3, r2, lsl #1
 4180              	.LVL614:
 235:../Common/IQMath/ti/./support/RTS_support.h **** }
 4181              		.loc 2 235 69 view .LVU1604
 4182              	.LBE253:
 4183              	.LBE252:
 115:../Common/IQMath/ti/_IQNexp.c ****     }
 4184              		.loc 1 115 9 is_stmt 1 view .LVU1605
 115:../Common/IQMath/ti/_IQNexp.c ****     }
 4185              		.loc 1 115 46 is_stmt 0 view .LVU1606
 4186 0090 0246     		mov	r2, r0
 4187              	.LVL615:
ARM GAS  C:\Users\57308\AppData\Local\Temp\ccyuPR38.s 			page 109


 115:../Common/IQMath/ti/_IQNexp.c ****     }
 4188              		.loc 1 115 34 view .LVU1607
 4189 0092 52F8041B 		ldr	r1, [r2], #4
 4190              	.LVL616:
 115:../Common/IQMath/ti/_IQNexp.c ****     }
 4191              		.loc 1 115 31 view .LVU1608
 4192 0096 0B44     		add	r3, r3, r1
 4193              	.LVL617:
 113:../Common/IQMath/ti/_IQNexp.c ****         uiq30FractionalResult = __mpyf_l(iq31Fractional, uiq30FractionalResult);
 4194              		.loc 1 113 51 is_stmt 1 view .LVU1609
 113:../Common/IQMath/ti/_IQNexp.c ****         uiq30FractionalResult = __mpyf_l(iq31Fractional, uiq30FractionalResult);
 4195              		.loc 1 113 59 is_stmt 0 view .LVU1610
 4196 0098 013C     		subs	r4, r4, #1
 4197              	.LVL618:
 113:../Common/IQMath/ti/_IQNexp.c ****         uiq30FractionalResult = __mpyf_l(iq31Fractional, uiq30FractionalResult);
 4198              		.loc 1 113 59 view .LVU1611
 4199 009a E4B2     		uxtb	r4, r4
 4200              	.LVL619:
 115:../Common/IQMath/ti/_IQNexp.c ****     }
 4201              		.loc 1 115 46 view .LVU1612
 4202 009c 1046     		mov	r0, r2
 4203              	.LVL620:
 4204              	.L161:
 113:../Common/IQMath/ti/_IQNexp.c ****         uiq30FractionalResult = __mpyf_l(iq31Fractional, uiq30FractionalResult);
 4205              		.loc 1 113 37 is_stmt 1 view .LVU1613
 113:../Common/IQMath/ti/_IQNexp.c ****         uiq30FractionalResult = __mpyf_l(iq31Fractional, uiq30FractionalResult);
 4206              		.loc 1 113 5 is_stmt 0 view .LVU1614
 4207 009e 002C     		cmp	r4, #0
 4208 00a0 E9D1     		bne	.L162
 119:../Common/IQMath/ti/_IQNexp.c ****     
 4209              		.loc 1 119 5 is_stmt 1 view .LVU1615
 119:../Common/IQMath/ti/_IQNexp.c ****     
 4210              		.loc 1 119 27 is_stmt 0 view .LVU1616
 4211 00a2 5B00     		lsls	r3, r3, #1
 4212              	.LVL621:
 125:../Common/IQMath/ti/_IQNexp.c ****     
 4213              		.loc 1 125 5 is_stmt 1 view .LVU1617
 4214              	.LBB254:
 4215              	.LBI254:
 254:../Common/IQMath/ti/./support/RTS_support.h **** {
 4216              		.loc 2 254 29 view .LVU1618
 4217              	.LBB255:
 4218              		.loc 2 256 5 view .LVU1619
 4219              		.loc 2 256 49 is_stmt 0 view .LVU1620
 4220 00a4 A5FB0353 		umull	r5, r3, r5, r3
 4221              	.LVL622:
 4222              		.loc 2 256 72 view .LVU1621
 4223 00a8 ED0F     		lsrs	r5, r5, #31
 4224 00aa 45EA4305 		orr	r5, r5, r3, lsl #1
 4225              	.LVL623:
 4226              		.loc 2 256 72 view .LVU1622
 4227              	.LBE255:
 4228              	.LBE254:
 131:../Common/IQMath/ti/_IQNexp.c ****     
 4229              		.loc 1 131 5 is_stmt 1 view .LVU1623
 131:../Common/IQMath/ti/_IQNexp.c ****     
 4230              		.loc 1 131 5 is_stmt 0 view .LVU1624
ARM GAS  C:\Users\57308\AppData\Local\Temp\ccyuPR38.s 			page 110


 4231              	.LBE256:
 4232              	.LBE259:
  72:../Common/IQMath/ti/./support/RTS_support.h **** }
 4233              		.loc 2 72 5 is_stmt 1 view .LVU1625
 4234              	.LBB260:
 4235              	.LBB257:
 134:../Common/IQMath/ti/_IQNexp.c ****     uiqNResult >>= 1;
 4236              		.loc 1 134 5 view .LVU1626
 134:../Common/IQMath/ti/_IQNexp.c ****     uiqNResult >>= 1;
 4237              		.loc 1 134 15 is_stmt 0 view .LVU1627
 4238 00ae 0135     		adds	r5, r5, #1
 4239              	.LVL624:
 135:../Common/IQMath/ti/_IQNexp.c ****     
 4240              		.loc 1 135 5 is_stmt 1 view .LVU1628
 135:../Common/IQMath/ti/_IQNexp.c ****     
 4241              		.loc 1 135 16 is_stmt 0 view .LVU1629
 4242 00b0 6808     		lsrs	r0, r5, #1
 4243              	.LVL625:
 137:../Common/IQMath/ti/_IQNexp.c **** }
 4244              		.loc 1 137 5 is_stmt 1 view .LVU1630
 4245              	.L157:
 137:../Common/IQMath/ti/_IQNexp.c **** }
 4246              		.loc 1 137 5 is_stmt 0 view .LVU1631
 4247              	.LBE257:
 4248              	.LBE260:
 293:../Common/IQMath/ti/_IQNexp.c **** }
 4249              		.loc 1 293 1 view .LVU1632
 4250 00b2 30BC     		pop	{r4, r5}
 4251              	.LCFI40:
 4252              		.cfi_remember_state
 4253              		.cfi_restore 5
 4254              		.cfi_restore 4
 4255              		.cfi_def_cfa_offset 0
 4256 00b4 7047     		bx	lr
 4257              	.LVL626:
 4258              	.L163:
 4259              	.LCFI41:
 4260              		.cfi_restore_state
 4261              	.LBB261:
 4262              	.LBB258:
  49:../Common/IQMath/ti/_IQNexp.c ****         }
 4263              		.loc 1 49 20 view .LVU1633
 4264 00b6 0020     		movs	r0, #0
 4265              	.LVL627:
  49:../Common/IQMath/ti/_IQNexp.c ****         }
 4266              		.loc 1 49 20 view .LVU1634
 4267 00b8 FBE7     		b	.L157
 4268              	.LVL628:
 4269              	.L164:
  74:../Common/IQMath/ti/_IQNexp.c ****         }
 4270              		.loc 1 74 20 view .LVU1635
 4271 00ba 6FF00040 		mvn	r0, #-2147483648
 4272              	.LVL629:
  74:../Common/IQMath/ti/_IQNexp.c ****         }
 4273              		.loc 1 74 20 view .LVU1636
 4274              	.LBE258:
 4275              	.LBE261:
ARM GAS  C:\Users\57308\AppData\Local\Temp\ccyuPR38.s 			page 111


 292:../Common/IQMath/ti/_IQNexp.c **** }
 4276              		.loc 1 292 12 view .LVU1637
 4277 00be F8E7     		b	.L157
 4278              	.L168:
 4279              		.align	2
 4280              	.L167:
 4281 00c0 00000000 		.word	_IQNexp_offset
 4282 00c4 00000000 		.word	_IQNexp_min
 4283 00c8 00000000 		.word	_IQNexp_max
 4284 00cc 00000000 		.word	_IQNexp_lookup17
 4285 00d0 FB0BB958 		.word	1488522235
 4286 00d4 00000000 		.word	_IQ30exp_coeffs
 4287 00d8 05F446A7 		.word	-1488522235
 4288              		.cfi_endproc
 4289              	.LFE275:
 4291              		.section	.text._IQ16exp,"ax",%progbits
 4292              		.align	1
 4293              		.global	_IQ16exp
 4294              		.syntax unified
 4295              		.thumb
 4296              		.thumb_func
 4298              	_IQ16exp:
 4299              	.LVL630:
 4300              	.LFB276:
 294:../Common/IQMath/ti/_IQNexp.c **** /**
 295:../Common/IQMath/ti/_IQNexp.c ****  * @brief Computes the exponential of an IQ16 input.
 296:../Common/IQMath/ti/_IQNexp.c ****  *
 297:../Common/IQMath/ti/_IQNexp.c ****  * @param a               IQ16 type input.
 298:../Common/IQMath/ti/_IQNexp.c ****  *
 299:../Common/IQMath/ti/_IQNexp.c ****  * @return                IQ16 type result of exponential.
 300:../Common/IQMath/ti/_IQNexp.c ****  */
 301:../Common/IQMath/ti/_IQNexp.c **** int32_t _IQ16exp(int32_t a)
 302:../Common/IQMath/ti/_IQNexp.c **** {
 4301              		.loc 1 302 1 is_stmt 1 view -0
 4302              		.cfi_startproc
 4303              		@ args = 0, pretend = 0, frame = 0
 4304              		@ frame_needed = 0, uses_anonymous_args = 0
 4305              		@ link register save eliminated.
 4306              		.loc 1 302 1 is_stmt 0 view .LVU1639
 4307 0000 30B4     		push	{r4, r5}
 4308              	.LCFI42:
 4309              		.cfi_def_cfa_offset 8
 4310              		.cfi_offset 4, -8
 4311              		.cfi_offset 5, -4
 303:../Common/IQMath/ti/_IQNexp.c ****     return __IQNexp(a, _IQNexp_lookup16, _IQNexp_offset[16-1], _IQNexp_min[16-1], _IQNexp_max[16-1]
 4312              		.loc 1 303 5 is_stmt 1 view .LVU1640
 4313              		.loc 1 303 12 is_stmt 0 view .LVU1641
 4314 0002 2F4B     		ldr	r3, .L179
 4315 0004 93F83C30 		ldrb	r3, [r3, #60]	@ zero_extendqisi2
 4316              		.loc 1 303 75 view .LVU1642
 4317 0008 2E4A     		ldr	r2, .L179+4
 4318 000a D16B     		ldr	r1, [r2, #60]
 4319              		.loc 1 303 94 view .LVU1643
 4320 000c 2E4A     		ldr	r2, .L179+8
 4321 000e D26B     		ldr	r2, [r2, #60]
 4322              	.LVL631:
 4323              	.LBB268:
ARM GAS  C:\Users\57308\AppData\Local\Temp\ccyuPR38.s 			page 112


 4324              	.LBI268:
  32:../Common/IQMath/ti/_IQNexp.c **** {
 4325              		.loc 1 32 30 is_stmt 1 view .LVU1644
 4326              	.LBB269:
  34:../Common/IQMath/ti/_IQNexp.c ****     int_fast16_t i16Integer;
 4327              		.loc 1 34 5 view .LVU1645
  35:../Common/IQMath/ti/_IQNexp.c ****     uint_fast16_t ui16IntState;
 4328              		.loc 1 35 5 view .LVU1646
  36:../Common/IQMath/ti/_IQNexp.c ****     uint_fast16_t ui16MPYState;
 4329              		.loc 1 36 5 view .LVU1647
  37:../Common/IQMath/ti/_IQNexp.c ****     int_fast32_t iq31Fractional;
 4330              		.loc 1 37 5 view .LVU1648
  38:../Common/IQMath/ti/_IQNexp.c ****     uint_fast32_t uiqNResult;
 4331              		.loc 1 38 5 view .LVU1649
  39:../Common/IQMath/ti/_IQNexp.c ****     uint_fast32_t uiqNIntegerResult;
 4332              		.loc 1 39 5 view .LVU1650
  40:../Common/IQMath/ti/_IQNexp.c ****     uint_fast32_t uiq30FractionalResult;
 4333              		.loc 1 40 5 view .LVU1651
  41:../Common/IQMath/ti/_IQNexp.c ****     uint_fast32_t uiq31FractionalResult;
 4334              		.loc 1 41 5 view .LVU1652
  42:../Common/IQMath/ti/_IQNexp.c ****     const uint_fast32_t *piq30Coeffs;
 4335              		.loc 1 42 5 view .LVU1653
  43:../Common/IQMath/ti/_IQNexp.c ****     
 4336              		.loc 1 43 5 view .LVU1654
  46:../Common/IQMath/ti/_IQNexp.c ****         /* Check for the minimum value. */
 4337              		.loc 1 46 5 view .LVU1655
  46:../Common/IQMath/ti/_IQNexp.c ****         /* Check for the minimum value. */
 4338              		.loc 1 46 8 is_stmt 0 view .LVU1656
 4339 0010 0028     		cmp	r0, #0
  46:../Common/IQMath/ti/_IQNexp.c ****         /* Check for the minimum value. */
 4340              		.loc 1 46 8 view .LVU1657
 4341 0012 19DB     		blt	.L178
  73:../Common/IQMath/ti/_IQNexp.c ****             return INT32_MAX;
 4342              		.loc 1 73 9 is_stmt 1 view .LVU1658
  73:../Common/IQMath/ti/_IQNexp.c ****             return INT32_MAX;
 4343              		.loc 1 73 12 is_stmt 0 view .LVU1659
 4344 0014 8242     		cmp	r2, r0
 4345 0016 50DB     		blt	.L176
  78:../Common/IQMath/ti/_IQNexp.c ****         iq31Fractional <<= (31 - q_value);
 4346              		.loc 1 78 9 is_stmt 1 view .LVU1660
 4347              	.LVL632:
  79:../Common/IQMath/ti/_IQNexp.c ****         iq31Fractional &= 0x7fffffff;
 4348              		.loc 1 79 9 view .LVU1661
  79:../Common/IQMath/ti/_IQNexp.c ****         iq31Fractional &= 0x7fffffff;
 4349              		.loc 1 79 24 is_stmt 0 view .LVU1662
 4350 0018 4FEAC03C 		lsl	ip, r0, #15
 4351              	.LVL633:
  80:../Common/IQMath/ti/_IQNexp.c ****     
 4352              		.loc 1 80 9 is_stmt 1 view .LVU1663
  80:../Common/IQMath/ti/_IQNexp.c ****     
 4353              		.loc 1 80 24 is_stmt 0 view .LVU1664
 4354 001c 2CF0004C 		bic	ip, ip, #-2147483648
 4355              	.LVL634:
  83:../Common/IQMath/ti/_IQNexp.c ****     
 4356              		.loc 1 83 9 is_stmt 1 view .LVU1665
  86:../Common/IQMath/ti/_IQNexp.c ****         uiqNIntegerResult = iqNLookupTable[i16Integer];
 4357              		.loc 1 86 9 view .LVU1666
ARM GAS  C:\Users\57308\AppData\Local\Temp\ccyuPR38.s 			page 113


  86:../Common/IQMath/ti/_IQNexp.c ****         uiqNIntegerResult = iqNLookupTable[i16Integer];
 4358              		.loc 1 86 20 is_stmt 0 view .LVU1667
 4359 0020 03EB2040 		add	r0, r3, r0, asr #16
 4360              	.LVL635:
  87:../Common/IQMath/ti/_IQNexp.c ****         
 4361              		.loc 1 87 9 is_stmt 1 view .LVU1668
  87:../Common/IQMath/ti/_IQNexp.c ****         
 4362              		.loc 1 87 43 is_stmt 0 view .LVU1669
 4363 0024 294B     		ldr	r3, .L179+12
 4364              	.LVL636:
  87:../Common/IQMath/ti/_IQNexp.c ****         
 4365              		.loc 1 87 27 view .LVU1670
 4366 0026 53F82050 		ldr	r5, [r3, r0, lsl #2]
 4367              	.LVL637:
  90:../Common/IQMath/ti/_IQNexp.c ****             iq31Fractional -= iq31_ln2;
 4368              		.loc 1 90 9 is_stmt 1 view .LVU1671
  90:../Common/IQMath/ti/_IQNexp.c ****             iq31Fractional -= iq31_ln2;
 4369              		.loc 1 90 12 is_stmt 0 view .LVU1672
 4370 002a 294B     		ldr	r3, .L179+16
 4371 002c 9C45     		cmp	ip, r3
 4372 002e 06DD     		ble	.L172
  91:../Common/IQMath/ti/_IQNexp.c ****             uiqNIntegerResult <<= 1;
 4373              		.loc 1 91 13 is_stmt 1 view .LVU1673
  91:../Common/IQMath/ti/_IQNexp.c ****             uiqNIntegerResult <<= 1;
 4374              		.loc 1 91 28 is_stmt 0 view .LVU1674
 4375 0030 ACF1B14C 		sub	ip, ip, #1484783616
 4376              	.LVL638:
  91:../Common/IQMath/ti/_IQNexp.c ****             uiqNIntegerResult <<= 1;
 4377              		.loc 1 91 28 view .LVU1675
 4378 0034 ACF5641C 		sub	ip, ip, #3735552
 4379              	.LVL639:
  91:../Common/IQMath/ti/_IQNexp.c ****             uiqNIntegerResult <<= 1;
 4380              		.loc 1 91 28 view .LVU1676
 4381 0038 ACF6FC3C 		subw	ip, ip, #3068
 4382              	.LVL640:
  92:../Common/IQMath/ti/_IQNexp.c ****         }
 4383              		.loc 1 92 13 is_stmt 1 view .LVU1677
  92:../Common/IQMath/ti/_IQNexp.c ****         }
 4384              		.loc 1 92 31 is_stmt 0 view .LVU1678
 4385 003c 6D00     		lsls	r5, r5, #1
 4386              	.LVL641:
 4387              	.L172:
 102:../Common/IQMath/ti/_IQNexp.c ****     
 4388              		.loc 1 102 5 is_stmt 1 view .LVU1679
 102:../Common/IQMath/ti/_IQNexp.c ****     
 4389              		.loc 1 102 5 is_stmt 0 view .LVU1680
 4390              	.LBE269:
 4391              	.LBE268:
  28:../Common/IQMath/ti/./support/RTS_support.h **** }
 4392              		.loc 2 28 5 is_stmt 1 view .LVU1681
 4393              	.LBB277:
 4394              	.LBB274:
 109:../Common/IQMath/ti/_IQNexp.c ****     uiq30FractionalResult = *piq30Coeffs++;
 4395              		.loc 1 109 5 view .LVU1682
 110:../Common/IQMath/ti/_IQNexp.c ****     
 4396              		.loc 1 110 5 view .LVU1683
 110:../Common/IQMath/ti/_IQNexp.c ****     
ARM GAS  C:\Users\57308\AppData\Local\Temp\ccyuPR38.s 			page 114


 4397              		.loc 1 110 27 is_stmt 0 view .LVU1684
 4398 003e 2548     		ldr	r0, .L179+20
 4399              	.LVL642:
 110:../Common/IQMath/ti/_IQNexp.c ****     
 4400              		.loc 1 110 27 view .LVU1685
 4401 0040 50F8043B 		ldr	r3, [r0], #4
 4402              	.LVL643:
 113:../Common/IQMath/ti/_IQNexp.c ****         uiq30FractionalResult = __mpyf_l(iq31Fractional, uiq30FractionalResult);
 4403              		.loc 1 113 5 is_stmt 1 view .LVU1686
 113:../Common/IQMath/ti/_IQNexp.c ****         uiq30FractionalResult = __mpyf_l(iq31Fractional, uiq30FractionalResult);
 4404              		.loc 1 113 19 is_stmt 0 view .LVU1687
 4405 0044 0A24     		movs	r4, #10
 113:../Common/IQMath/ti/_IQNexp.c ****         uiq30FractionalResult = __mpyf_l(iq31Fractional, uiq30FractionalResult);
 4406              		.loc 1 113 5 view .LVU1688
 4407 0046 2AE0     		b	.L173
 4408              	.LVL644:
 4409              	.L178:
  48:../Common/IQMath/ti/_IQNexp.c ****             return 0;
 4410              		.loc 1 48 9 is_stmt 1 view .LVU1689
  48:../Common/IQMath/ti/_IQNexp.c ****             return 0;
 4411              		.loc 1 48 12 is_stmt 0 view .LVU1690
 4412 0048 8142     		cmp	r1, r0
 4413 004a 34DC     		bgt	.L175
  53:../Common/IQMath/ti/_IQNexp.c ****         iq31Fractional <<= (31 - q_value);
 4414              		.loc 1 53 9 is_stmt 1 view .LVU1691
 4415              	.LVL645:
  54:../Common/IQMath/ti/_IQNexp.c ****         iq31Fractional |= 0x80000000;
 4416              		.loc 1 54 9 view .LVU1692
  54:../Common/IQMath/ti/_IQNexp.c ****         iq31Fractional |= 0x80000000;
 4417              		.loc 1 54 24 is_stmt 0 view .LVU1693
 4418 004c 4FEAC03C 		lsl	ip, r0, #15
 4419              	.LVL646:
  55:../Common/IQMath/ti/_IQNexp.c ****     
 4420              		.loc 1 55 9 is_stmt 1 view .LVU1694
  55:../Common/IQMath/ti/_IQNexp.c ****     
 4421              		.loc 1 55 24 is_stmt 0 view .LVU1695
 4422 0050 4CF0004C 		orr	ip, ip, #-2147483648
 4423              	.LVL647:
  58:../Common/IQMath/ti/_IQNexp.c ****     
 4424              		.loc 1 58 9 is_stmt 1 view .LVU1696
  58:../Common/IQMath/ti/_IQNexp.c ****     
 4425              		.loc 1 58 46 is_stmt 0 view .LVU1697
 4426 0054 0014     		asrs	r0, r0, #16
 4427              	.LVL648:
  58:../Common/IQMath/ti/_IQNexp.c ****     
 4428              		.loc 1 58 20 view .LVU1698
 4429 0056 0130     		adds	r0, r0, #1
 4430              	.LVL649:
  61:../Common/IQMath/ti/_IQNexp.c ****         uiqNIntegerResult = iqNLookupTable[i16Integer];
 4431              		.loc 1 61 9 is_stmt 1 view .LVU1699
  61:../Common/IQMath/ti/_IQNexp.c ****         uiqNIntegerResult = iqNLookupTable[i16Integer];
 4432              		.loc 1 61 20 is_stmt 0 view .LVU1700
 4433 0058 1844     		add	r0, r0, r3
 4434              	.LVL650:
  62:../Common/IQMath/ti/_IQNexp.c ****         
 4435              		.loc 1 62 9 is_stmt 1 view .LVU1701
  62:../Common/IQMath/ti/_IQNexp.c ****         
ARM GAS  C:\Users\57308\AppData\Local\Temp\ccyuPR38.s 			page 115


 4436              		.loc 1 62 43 is_stmt 0 view .LVU1702
 4437 005a 1C4B     		ldr	r3, .L179+12
 4438              	.LVL651:
  62:../Common/IQMath/ti/_IQNexp.c ****         
 4439              		.loc 1 62 27 view .LVU1703
 4440 005c 53F82050 		ldr	r5, [r3, r0, lsl #2]
 4441              	.LVL652:
  65:../Common/IQMath/ti/_IQNexp.c ****             iq31Fractional += iq31_ln2;
 4442              		.loc 1 65 9 is_stmt 1 view .LVU1704
  65:../Common/IQMath/ti/_IQNexp.c ****             iq31Fractional += iq31_ln2;
 4443              		.loc 1 65 12 is_stmt 0 view .LVU1705
 4444 0060 1D4B     		ldr	r3, .L179+24
 4445 0062 9C45     		cmp	ip, r3
 4446 0064 EBDA     		bge	.L172
  66:../Common/IQMath/ti/_IQNexp.c ****             uiqNIntegerResult >>= 1;
 4447              		.loc 1 66 13 is_stmt 1 view .LVU1706
  66:../Common/IQMath/ti/_IQNexp.c ****             uiqNIntegerResult >>= 1;
 4448              		.loc 1 66 28 is_stmt 0 view .LVU1707
 4449 0066 0CF1B14C 		add	ip, ip, #1484783616
 4450              	.LVL653:
  66:../Common/IQMath/ti/_IQNexp.c ****             uiqNIntegerResult >>= 1;
 4451              		.loc 1 66 28 view .LVU1708
 4452 006a 0CF5641C 		add	ip, ip, #3735552
 4453              	.LVL654:
  66:../Common/IQMath/ti/_IQNexp.c ****             uiqNIntegerResult >>= 1;
 4454              		.loc 1 66 28 view .LVU1709
 4455 006e 0CF6FC3C 		addw	ip, ip, #3068
 4456              	.LVL655:
  67:../Common/IQMath/ti/_IQNexp.c ****         }
 4457              		.loc 1 67 13 is_stmt 1 view .LVU1710
  67:../Common/IQMath/ti/_IQNexp.c ****         }
 4458              		.loc 1 67 31 is_stmt 0 view .LVU1711
 4459 0072 6D08     		lsrs	r5, r5, #1
 4460              	.LVL656:
  67:../Common/IQMath/ti/_IQNexp.c ****         }
 4461              		.loc 1 67 31 view .LVU1712
 4462 0074 E3E7     		b	.L172
 4463              	.LVL657:
 4464              	.L174:
 114:../Common/IQMath/ti/_IQNexp.c ****         uiq30FractionalResult += *piq30Coeffs++;
 4465              		.loc 1 114 9 is_stmt 1 view .LVU1713
 4466              	.LBB270:
 4467              	.LBI270:
 233:../Common/IQMath/ti/./support/RTS_support.h **** {
 4468              		.loc 2 233 28 view .LVU1714
 4469              	.LBB271:
 235:../Common/IQMath/ti/./support/RTS_support.h **** }
 4470              		.loc 2 235 5 view .LVU1715
 235:../Common/IQMath/ti/./support/RTS_support.h **** }
 4471              		.loc 2 235 28 is_stmt 0 view .LVU1716
 4472 0076 4FEAEC72 		asr	r2, ip, #31
 235:../Common/IQMath/ti/./support/RTS_support.h **** }
 4473              		.loc 2 235 49 view .LVU1717
 4474 007a D917     		asrs	r1, r3, #31
 235:../Common/IQMath/ti/./support/RTS_support.h **** }
 4475              		.loc 2 235 47 view .LVU1718
 4476 007c 0CFB01F1 		mul	r1, ip, r1
ARM GAS  C:\Users\57308\AppData\Local\Temp\ccyuPR38.s 			page 116


 4477 0080 03FB0212 		mla	r2, r3, r2, r1
 4478 0084 ACFB0331 		umull	r3, r1, ip, r3
 4479              	.LVL658:
 235:../Common/IQMath/ti/./support/RTS_support.h **** }
 4480              		.loc 2 235 47 view .LVU1719
 4481 0088 0A44     		add	r2, r2, r1
 235:../Common/IQMath/ti/./support/RTS_support.h **** }
 4482              		.loc 2 235 69 view .LVU1720
 4483 008a DB0F     		lsrs	r3, r3, #31
 4484 008c 43EA4203 		orr	r3, r3, r2, lsl #1
 4485              	.LVL659:
 235:../Common/IQMath/ti/./support/RTS_support.h **** }
 4486              		.loc 2 235 69 view .LVU1721
 4487              	.LBE271:
 4488              	.LBE270:
 115:../Common/IQMath/ti/_IQNexp.c ****     }
 4489              		.loc 1 115 9 is_stmt 1 view .LVU1722
 115:../Common/IQMath/ti/_IQNexp.c ****     }
 4490              		.loc 1 115 46 is_stmt 0 view .LVU1723
 4491 0090 0246     		mov	r2, r0
 4492              	.LVL660:
 115:../Common/IQMath/ti/_IQNexp.c ****     }
 4493              		.loc 1 115 34 view .LVU1724
 4494 0092 52F8041B 		ldr	r1, [r2], #4
 4495              	.LVL661:
 115:../Common/IQMath/ti/_IQNexp.c ****     }
 4496              		.loc 1 115 31 view .LVU1725
 4497 0096 0B44     		add	r3, r3, r1
 4498              	.LVL662:
 113:../Common/IQMath/ti/_IQNexp.c ****         uiq30FractionalResult = __mpyf_l(iq31Fractional, uiq30FractionalResult);
 4499              		.loc 1 113 51 is_stmt 1 view .LVU1726
 113:../Common/IQMath/ti/_IQNexp.c ****         uiq30FractionalResult = __mpyf_l(iq31Fractional, uiq30FractionalResult);
 4500              		.loc 1 113 59 is_stmt 0 view .LVU1727
 4501 0098 013C     		subs	r4, r4, #1
 4502              	.LVL663:
 113:../Common/IQMath/ti/_IQNexp.c ****         uiq30FractionalResult = __mpyf_l(iq31Fractional, uiq30FractionalResult);
 4503              		.loc 1 113 59 view .LVU1728
 4504 009a E4B2     		uxtb	r4, r4
 4505              	.LVL664:
 115:../Common/IQMath/ti/_IQNexp.c ****     }
 4506              		.loc 1 115 46 view .LVU1729
 4507 009c 1046     		mov	r0, r2
 4508              	.LVL665:
 4509              	.L173:
 113:../Common/IQMath/ti/_IQNexp.c ****         uiq30FractionalResult = __mpyf_l(iq31Fractional, uiq30FractionalResult);
 4510              		.loc 1 113 37 is_stmt 1 view .LVU1730
 113:../Common/IQMath/ti/_IQNexp.c ****         uiq30FractionalResult = __mpyf_l(iq31Fractional, uiq30FractionalResult);
 4511              		.loc 1 113 5 is_stmt 0 view .LVU1731
 4512 009e 002C     		cmp	r4, #0
 4513 00a0 E9D1     		bne	.L174
 119:../Common/IQMath/ti/_IQNexp.c ****     
 4514              		.loc 1 119 5 is_stmt 1 view .LVU1732
 119:../Common/IQMath/ti/_IQNexp.c ****     
 4515              		.loc 1 119 27 is_stmt 0 view .LVU1733
 4516 00a2 5B00     		lsls	r3, r3, #1
 4517              	.LVL666:
 125:../Common/IQMath/ti/_IQNexp.c ****     
ARM GAS  C:\Users\57308\AppData\Local\Temp\ccyuPR38.s 			page 117


 4518              		.loc 1 125 5 is_stmt 1 view .LVU1734
 4519              	.LBB272:
 4520              	.LBI272:
 254:../Common/IQMath/ti/./support/RTS_support.h **** {
 4521              		.loc 2 254 29 view .LVU1735
 4522              	.LBB273:
 4523              		.loc 2 256 5 view .LVU1736
 4524              		.loc 2 256 49 is_stmt 0 view .LVU1737
 4525 00a4 A5FB0353 		umull	r5, r3, r5, r3
 4526              	.LVL667:
 4527              		.loc 2 256 72 view .LVU1738
 4528 00a8 ED0F     		lsrs	r5, r5, #31
 4529 00aa 45EA4305 		orr	r5, r5, r3, lsl #1
 4530              	.LVL668:
 4531              		.loc 2 256 72 view .LVU1739
 4532              	.LBE273:
 4533              	.LBE272:
 131:../Common/IQMath/ti/_IQNexp.c ****     
 4534              		.loc 1 131 5 is_stmt 1 view .LVU1740
 131:../Common/IQMath/ti/_IQNexp.c ****     
 4535              		.loc 1 131 5 is_stmt 0 view .LVU1741
 4536              	.LBE274:
 4537              	.LBE277:
  72:../Common/IQMath/ti/./support/RTS_support.h **** }
 4538              		.loc 2 72 5 is_stmt 1 view .LVU1742
 4539              	.LBB278:
 4540              	.LBB275:
 134:../Common/IQMath/ti/_IQNexp.c ****     uiqNResult >>= 1;
 4541              		.loc 1 134 5 view .LVU1743
 134:../Common/IQMath/ti/_IQNexp.c ****     uiqNResult >>= 1;
 4542              		.loc 1 134 15 is_stmt 0 view .LVU1744
 4543 00ae 0135     		adds	r5, r5, #1
 4544              	.LVL669:
 135:../Common/IQMath/ti/_IQNexp.c ****     
 4545              		.loc 1 135 5 is_stmt 1 view .LVU1745
 135:../Common/IQMath/ti/_IQNexp.c ****     
 4546              		.loc 1 135 16 is_stmt 0 view .LVU1746
 4547 00b0 6808     		lsrs	r0, r5, #1
 4548              	.LVL670:
 137:../Common/IQMath/ti/_IQNexp.c **** }
 4549              		.loc 1 137 5 is_stmt 1 view .LVU1747
 4550              	.L169:
 137:../Common/IQMath/ti/_IQNexp.c **** }
 4551              		.loc 1 137 5 is_stmt 0 view .LVU1748
 4552              	.LBE275:
 4553              	.LBE278:
 304:../Common/IQMath/ti/_IQNexp.c **** }
 4554              		.loc 1 304 1 view .LVU1749
 4555 00b2 30BC     		pop	{r4, r5}
 4556              	.LCFI43:
 4557              		.cfi_remember_state
 4558              		.cfi_restore 5
 4559              		.cfi_restore 4
 4560              		.cfi_def_cfa_offset 0
 4561 00b4 7047     		bx	lr
 4562              	.LVL671:
 4563              	.L175:
ARM GAS  C:\Users\57308\AppData\Local\Temp\ccyuPR38.s 			page 118


 4564              	.LCFI44:
 4565              		.cfi_restore_state
 4566              	.LBB279:
 4567              	.LBB276:
  49:../Common/IQMath/ti/_IQNexp.c ****         }
 4568              		.loc 1 49 20 view .LVU1750
 4569 00b6 0020     		movs	r0, #0
 4570              	.LVL672:
  49:../Common/IQMath/ti/_IQNexp.c ****         }
 4571              		.loc 1 49 20 view .LVU1751
 4572 00b8 FBE7     		b	.L169
 4573              	.LVL673:
 4574              	.L176:
  74:../Common/IQMath/ti/_IQNexp.c ****         }
 4575              		.loc 1 74 20 view .LVU1752
 4576 00ba 6FF00040 		mvn	r0, #-2147483648
 4577              	.LVL674:
  74:../Common/IQMath/ti/_IQNexp.c ****         }
 4578              		.loc 1 74 20 view .LVU1753
 4579              	.LBE276:
 4580              	.LBE279:
 303:../Common/IQMath/ti/_IQNexp.c **** }
 4581              		.loc 1 303 12 view .LVU1754
 4582 00be F8E7     		b	.L169
 4583              	.L180:
 4584              		.align	2
 4585              	.L179:
 4586 00c0 00000000 		.word	_IQNexp_offset
 4587 00c4 00000000 		.word	_IQNexp_min
 4588 00c8 00000000 		.word	_IQNexp_max
 4589 00cc 00000000 		.word	_IQNexp_lookup16
 4590 00d0 FB0BB958 		.word	1488522235
 4591 00d4 00000000 		.word	_IQ30exp_coeffs
 4592 00d8 05F446A7 		.word	-1488522235
 4593              		.cfi_endproc
 4594              	.LFE276:
 4596              		.section	.text._IQ15exp,"ax",%progbits
 4597              		.align	1
 4598              		.global	_IQ15exp
 4599              		.syntax unified
 4600              		.thumb
 4601              		.thumb_func
 4603              	_IQ15exp:
 4604              	.LVL675:
 4605              	.LFB277:
 305:../Common/IQMath/ti/_IQNexp.c **** /**
 306:../Common/IQMath/ti/_IQNexp.c ****  * @brief Computes the exponential of an IQ15 input.
 307:../Common/IQMath/ti/_IQNexp.c ****  *
 308:../Common/IQMath/ti/_IQNexp.c ****  * @param a               IQ15 type input.
 309:../Common/IQMath/ti/_IQNexp.c ****  *
 310:../Common/IQMath/ti/_IQNexp.c ****  * @return                IQ15 type result of exponential.
 311:../Common/IQMath/ti/_IQNexp.c ****  */
 312:../Common/IQMath/ti/_IQNexp.c **** int32_t _IQ15exp(int32_t a)
 313:../Common/IQMath/ti/_IQNexp.c **** {
 4606              		.loc 1 313 1 is_stmt 1 view -0
 4607              		.cfi_startproc
 4608              		@ args = 0, pretend = 0, frame = 0
ARM GAS  C:\Users\57308\AppData\Local\Temp\ccyuPR38.s 			page 119


 4609              		@ frame_needed = 0, uses_anonymous_args = 0
 4610              		@ link register save eliminated.
 4611              		.loc 1 313 1 is_stmt 0 view .LVU1756
 4612 0000 30B4     		push	{r4, r5}
 4613              	.LCFI45:
 4614              		.cfi_def_cfa_offset 8
 4615              		.cfi_offset 4, -8
 4616              		.cfi_offset 5, -4
 314:../Common/IQMath/ti/_IQNexp.c ****     return __IQNexp(a, _IQNexp_lookup15, _IQNexp_offset[15-1], _IQNexp_min[15-1], _IQNexp_max[15-1]
 4617              		.loc 1 314 5 is_stmt 1 view .LVU1757
 4618              		.loc 1 314 12 is_stmt 0 view .LVU1758
 4619 0002 2F4B     		ldr	r3, .L191
 4620 0004 93F83830 		ldrb	r3, [r3, #56]	@ zero_extendqisi2
 4621              		.loc 1 314 75 view .LVU1759
 4622 0008 2E4A     		ldr	r2, .L191+4
 4623 000a 916B     		ldr	r1, [r2, #56]
 4624              		.loc 1 314 94 view .LVU1760
 4625 000c 2E4A     		ldr	r2, .L191+8
 4626 000e 926B     		ldr	r2, [r2, #56]
 4627              	.LVL676:
 4628              	.LBB286:
 4629              	.LBI286:
  32:../Common/IQMath/ti/_IQNexp.c **** {
 4630              		.loc 1 32 30 is_stmt 1 view .LVU1761
 4631              	.LBB287:
  34:../Common/IQMath/ti/_IQNexp.c ****     int_fast16_t i16Integer;
 4632              		.loc 1 34 5 view .LVU1762
  35:../Common/IQMath/ti/_IQNexp.c ****     uint_fast16_t ui16IntState;
 4633              		.loc 1 35 5 view .LVU1763
  36:../Common/IQMath/ti/_IQNexp.c ****     uint_fast16_t ui16MPYState;
 4634              		.loc 1 36 5 view .LVU1764
  37:../Common/IQMath/ti/_IQNexp.c ****     int_fast32_t iq31Fractional;
 4635              		.loc 1 37 5 view .LVU1765
  38:../Common/IQMath/ti/_IQNexp.c ****     uint_fast32_t uiqNResult;
 4636              		.loc 1 38 5 view .LVU1766
  39:../Common/IQMath/ti/_IQNexp.c ****     uint_fast32_t uiqNIntegerResult;
 4637              		.loc 1 39 5 view .LVU1767
  40:../Common/IQMath/ti/_IQNexp.c ****     uint_fast32_t uiq30FractionalResult;
 4638              		.loc 1 40 5 view .LVU1768
  41:../Common/IQMath/ti/_IQNexp.c ****     uint_fast32_t uiq31FractionalResult;
 4639              		.loc 1 41 5 view .LVU1769
  42:../Common/IQMath/ti/_IQNexp.c ****     const uint_fast32_t *piq30Coeffs;
 4640              		.loc 1 42 5 view .LVU1770
  43:../Common/IQMath/ti/_IQNexp.c ****     
 4641              		.loc 1 43 5 view .LVU1771
  46:../Common/IQMath/ti/_IQNexp.c ****         /* Check for the minimum value. */
 4642              		.loc 1 46 5 view .LVU1772
  46:../Common/IQMath/ti/_IQNexp.c ****         /* Check for the minimum value. */
 4643              		.loc 1 46 8 is_stmt 0 view .LVU1773
 4644 0010 0028     		cmp	r0, #0
  46:../Common/IQMath/ti/_IQNexp.c ****         /* Check for the minimum value. */
 4645              		.loc 1 46 8 view .LVU1774
 4646 0012 19DB     		blt	.L190
  73:../Common/IQMath/ti/_IQNexp.c ****             return INT32_MAX;
 4647              		.loc 1 73 9 is_stmt 1 view .LVU1775
  73:../Common/IQMath/ti/_IQNexp.c ****             return INT32_MAX;
 4648              		.loc 1 73 12 is_stmt 0 view .LVU1776
ARM GAS  C:\Users\57308\AppData\Local\Temp\ccyuPR38.s 			page 120


 4649 0014 8242     		cmp	r2, r0
 4650 0016 50DB     		blt	.L188
  78:../Common/IQMath/ti/_IQNexp.c ****         iq31Fractional <<= (31 - q_value);
 4651              		.loc 1 78 9 is_stmt 1 view .LVU1777
 4652              	.LVL677:
  79:../Common/IQMath/ti/_IQNexp.c ****         iq31Fractional &= 0x7fffffff;
 4653              		.loc 1 79 9 view .LVU1778
  79:../Common/IQMath/ti/_IQNexp.c ****         iq31Fractional &= 0x7fffffff;
 4654              		.loc 1 79 24 is_stmt 0 view .LVU1779
 4655 0018 4FEA004C 		lsl	ip, r0, #16
 4656              	.LVL678:
  80:../Common/IQMath/ti/_IQNexp.c ****     
 4657              		.loc 1 80 9 is_stmt 1 view .LVU1780
  80:../Common/IQMath/ti/_IQNexp.c ****     
 4658              		.loc 1 80 24 is_stmt 0 view .LVU1781
 4659 001c 2CF0004C 		bic	ip, ip, #-2147483648
 4660              	.LVL679:
  83:../Common/IQMath/ti/_IQNexp.c ****     
 4661              		.loc 1 83 9 is_stmt 1 view .LVU1782
  86:../Common/IQMath/ti/_IQNexp.c ****         uiqNIntegerResult = iqNLookupTable[i16Integer];
 4662              		.loc 1 86 9 view .LVU1783
  86:../Common/IQMath/ti/_IQNexp.c ****         uiqNIntegerResult = iqNLookupTable[i16Integer];
 4663              		.loc 1 86 20 is_stmt 0 view .LVU1784
 4664 0020 03EBE030 		add	r0, r3, r0, asr #15
 4665              	.LVL680:
  87:../Common/IQMath/ti/_IQNexp.c ****         
 4666              		.loc 1 87 9 is_stmt 1 view .LVU1785
  87:../Common/IQMath/ti/_IQNexp.c ****         
 4667              		.loc 1 87 43 is_stmt 0 view .LVU1786
 4668 0024 294B     		ldr	r3, .L191+12
 4669              	.LVL681:
  87:../Common/IQMath/ti/_IQNexp.c ****         
 4670              		.loc 1 87 27 view .LVU1787
 4671 0026 53F82050 		ldr	r5, [r3, r0, lsl #2]
 4672              	.LVL682:
  90:../Common/IQMath/ti/_IQNexp.c ****             iq31Fractional -= iq31_ln2;
 4673              		.loc 1 90 9 is_stmt 1 view .LVU1788
  90:../Common/IQMath/ti/_IQNexp.c ****             iq31Fractional -= iq31_ln2;
 4674              		.loc 1 90 12 is_stmt 0 view .LVU1789
 4675 002a 294B     		ldr	r3, .L191+16
 4676 002c 9C45     		cmp	ip, r3
 4677 002e 06DD     		ble	.L184
  91:../Common/IQMath/ti/_IQNexp.c ****             uiqNIntegerResult <<= 1;
 4678              		.loc 1 91 13 is_stmt 1 view .LVU1790
  91:../Common/IQMath/ti/_IQNexp.c ****             uiqNIntegerResult <<= 1;
 4679              		.loc 1 91 28 is_stmt 0 view .LVU1791
 4680 0030 ACF1B14C 		sub	ip, ip, #1484783616
 4681              	.LVL683:
  91:../Common/IQMath/ti/_IQNexp.c ****             uiqNIntegerResult <<= 1;
 4682              		.loc 1 91 28 view .LVU1792
 4683 0034 ACF5641C 		sub	ip, ip, #3735552
 4684              	.LVL684:
  91:../Common/IQMath/ti/_IQNexp.c ****             uiqNIntegerResult <<= 1;
 4685              		.loc 1 91 28 view .LVU1793
 4686 0038 ACF6FC3C 		subw	ip, ip, #3068
 4687              	.LVL685:
  92:../Common/IQMath/ti/_IQNexp.c ****         }
ARM GAS  C:\Users\57308\AppData\Local\Temp\ccyuPR38.s 			page 121


 4688              		.loc 1 92 13 is_stmt 1 view .LVU1794
  92:../Common/IQMath/ti/_IQNexp.c ****         }
 4689              		.loc 1 92 31 is_stmt 0 view .LVU1795
 4690 003c 6D00     		lsls	r5, r5, #1
 4691              	.LVL686:
 4692              	.L184:
 102:../Common/IQMath/ti/_IQNexp.c ****     
 4693              		.loc 1 102 5 is_stmt 1 view .LVU1796
 102:../Common/IQMath/ti/_IQNexp.c ****     
 4694              		.loc 1 102 5 is_stmt 0 view .LVU1797
 4695              	.LBE287:
 4696              	.LBE286:
  28:../Common/IQMath/ti/./support/RTS_support.h **** }
 4697              		.loc 2 28 5 is_stmt 1 view .LVU1798
 4698              	.LBB295:
 4699              	.LBB292:
 109:../Common/IQMath/ti/_IQNexp.c ****     uiq30FractionalResult = *piq30Coeffs++;
 4700              		.loc 1 109 5 view .LVU1799
 110:../Common/IQMath/ti/_IQNexp.c ****     
 4701              		.loc 1 110 5 view .LVU1800
 110:../Common/IQMath/ti/_IQNexp.c ****     
 4702              		.loc 1 110 27 is_stmt 0 view .LVU1801
 4703 003e 2548     		ldr	r0, .L191+20
 4704              	.LVL687:
 110:../Common/IQMath/ti/_IQNexp.c ****     
 4705              		.loc 1 110 27 view .LVU1802
 4706 0040 50F8043B 		ldr	r3, [r0], #4
 4707              	.LVL688:
 113:../Common/IQMath/ti/_IQNexp.c ****         uiq30FractionalResult = __mpyf_l(iq31Fractional, uiq30FractionalResult);
 4708              		.loc 1 113 5 is_stmt 1 view .LVU1803
 113:../Common/IQMath/ti/_IQNexp.c ****         uiq30FractionalResult = __mpyf_l(iq31Fractional, uiq30FractionalResult);
 4709              		.loc 1 113 19 is_stmt 0 view .LVU1804
 4710 0044 0A24     		movs	r4, #10
 113:../Common/IQMath/ti/_IQNexp.c ****         uiq30FractionalResult = __mpyf_l(iq31Fractional, uiq30FractionalResult);
 4711              		.loc 1 113 5 view .LVU1805
 4712 0046 2AE0     		b	.L185
 4713              	.LVL689:
 4714              	.L190:
  48:../Common/IQMath/ti/_IQNexp.c ****             return 0;
 4715              		.loc 1 48 9 is_stmt 1 view .LVU1806
  48:../Common/IQMath/ti/_IQNexp.c ****             return 0;
 4716              		.loc 1 48 12 is_stmt 0 view .LVU1807
 4717 0048 8142     		cmp	r1, r0
 4718 004a 34DC     		bgt	.L187
  53:../Common/IQMath/ti/_IQNexp.c ****         iq31Fractional <<= (31 - q_value);
 4719              		.loc 1 53 9 is_stmt 1 view .LVU1808
 4720              	.LVL690:
  54:../Common/IQMath/ti/_IQNexp.c ****         iq31Fractional |= 0x80000000;
 4721              		.loc 1 54 9 view .LVU1809
  54:../Common/IQMath/ti/_IQNexp.c ****         iq31Fractional |= 0x80000000;
 4722              		.loc 1 54 24 is_stmt 0 view .LVU1810
 4723 004c 4FEA004C 		lsl	ip, r0, #16
 4724              	.LVL691:
  55:../Common/IQMath/ti/_IQNexp.c ****     
 4725              		.loc 1 55 9 is_stmt 1 view .LVU1811
  55:../Common/IQMath/ti/_IQNexp.c ****     
 4726              		.loc 1 55 24 is_stmt 0 view .LVU1812
ARM GAS  C:\Users\57308\AppData\Local\Temp\ccyuPR38.s 			page 122


 4727 0050 4CF0004C 		orr	ip, ip, #-2147483648
 4728              	.LVL692:
  58:../Common/IQMath/ti/_IQNexp.c ****     
 4729              		.loc 1 58 9 is_stmt 1 view .LVU1813
  58:../Common/IQMath/ti/_IQNexp.c ****     
 4730              		.loc 1 58 46 is_stmt 0 view .LVU1814
 4731 0054 C013     		asrs	r0, r0, #15
 4732              	.LVL693:
  58:../Common/IQMath/ti/_IQNexp.c ****     
 4733              		.loc 1 58 20 view .LVU1815
 4734 0056 0130     		adds	r0, r0, #1
 4735              	.LVL694:
  61:../Common/IQMath/ti/_IQNexp.c ****         uiqNIntegerResult = iqNLookupTable[i16Integer];
 4736              		.loc 1 61 9 is_stmt 1 view .LVU1816
  61:../Common/IQMath/ti/_IQNexp.c ****         uiqNIntegerResult = iqNLookupTable[i16Integer];
 4737              		.loc 1 61 20 is_stmt 0 view .LVU1817
 4738 0058 1844     		add	r0, r0, r3
 4739              	.LVL695:
  62:../Common/IQMath/ti/_IQNexp.c ****         
 4740              		.loc 1 62 9 is_stmt 1 view .LVU1818
  62:../Common/IQMath/ti/_IQNexp.c ****         
 4741              		.loc 1 62 43 is_stmt 0 view .LVU1819
 4742 005a 1C4B     		ldr	r3, .L191+12
 4743              	.LVL696:
  62:../Common/IQMath/ti/_IQNexp.c ****         
 4744              		.loc 1 62 27 view .LVU1820
 4745 005c 53F82050 		ldr	r5, [r3, r0, lsl #2]
 4746              	.LVL697:
  65:../Common/IQMath/ti/_IQNexp.c ****             iq31Fractional += iq31_ln2;
 4747              		.loc 1 65 9 is_stmt 1 view .LVU1821
  65:../Common/IQMath/ti/_IQNexp.c ****             iq31Fractional += iq31_ln2;
 4748              		.loc 1 65 12 is_stmt 0 view .LVU1822
 4749 0060 1D4B     		ldr	r3, .L191+24
 4750 0062 9C45     		cmp	ip, r3
 4751 0064 EBDA     		bge	.L184
  66:../Common/IQMath/ti/_IQNexp.c ****             uiqNIntegerResult >>= 1;
 4752              		.loc 1 66 13 is_stmt 1 view .LVU1823
  66:../Common/IQMath/ti/_IQNexp.c ****             uiqNIntegerResult >>= 1;
 4753              		.loc 1 66 28 is_stmt 0 view .LVU1824
 4754 0066 0CF1B14C 		add	ip, ip, #1484783616
 4755              	.LVL698:
  66:../Common/IQMath/ti/_IQNexp.c ****             uiqNIntegerResult >>= 1;
 4756              		.loc 1 66 28 view .LVU1825
 4757 006a 0CF5641C 		add	ip, ip, #3735552
 4758              	.LVL699:
  66:../Common/IQMath/ti/_IQNexp.c ****             uiqNIntegerResult >>= 1;
 4759              		.loc 1 66 28 view .LVU1826
 4760 006e 0CF6FC3C 		addw	ip, ip, #3068
 4761              	.LVL700:
  67:../Common/IQMath/ti/_IQNexp.c ****         }
 4762              		.loc 1 67 13 is_stmt 1 view .LVU1827
  67:../Common/IQMath/ti/_IQNexp.c ****         }
 4763              		.loc 1 67 31 is_stmt 0 view .LVU1828
 4764 0072 6D08     		lsrs	r5, r5, #1
 4765              	.LVL701:
  67:../Common/IQMath/ti/_IQNexp.c ****         }
 4766              		.loc 1 67 31 view .LVU1829
ARM GAS  C:\Users\57308\AppData\Local\Temp\ccyuPR38.s 			page 123


 4767 0074 E3E7     		b	.L184
 4768              	.LVL702:
 4769              	.L186:
 114:../Common/IQMath/ti/_IQNexp.c ****         uiq30FractionalResult += *piq30Coeffs++;
 4770              		.loc 1 114 9 is_stmt 1 view .LVU1830
 4771              	.LBB288:
 4772              	.LBI288:
 233:../Common/IQMath/ti/./support/RTS_support.h **** {
 4773              		.loc 2 233 28 view .LVU1831
 4774              	.LBB289:
 235:../Common/IQMath/ti/./support/RTS_support.h **** }
 4775              		.loc 2 235 5 view .LVU1832
 235:../Common/IQMath/ti/./support/RTS_support.h **** }
 4776              		.loc 2 235 28 is_stmt 0 view .LVU1833
 4777 0076 4FEAEC72 		asr	r2, ip, #31
 235:../Common/IQMath/ti/./support/RTS_support.h **** }
 4778              		.loc 2 235 49 view .LVU1834
 4779 007a D917     		asrs	r1, r3, #31
 235:../Common/IQMath/ti/./support/RTS_support.h **** }
 4780              		.loc 2 235 47 view .LVU1835
 4781 007c 0CFB01F1 		mul	r1, ip, r1
 4782 0080 03FB0212 		mla	r2, r3, r2, r1
 4783 0084 ACFB0331 		umull	r3, r1, ip, r3
 4784              	.LVL703:
 235:../Common/IQMath/ti/./support/RTS_support.h **** }
 4785              		.loc 2 235 47 view .LVU1836
 4786 0088 0A44     		add	r2, r2, r1
 235:../Common/IQMath/ti/./support/RTS_support.h **** }
 4787              		.loc 2 235 69 view .LVU1837
 4788 008a DB0F     		lsrs	r3, r3, #31
 4789 008c 43EA4203 		orr	r3, r3, r2, lsl #1
 4790              	.LVL704:
 235:../Common/IQMath/ti/./support/RTS_support.h **** }
 4791              		.loc 2 235 69 view .LVU1838
 4792              	.LBE289:
 4793              	.LBE288:
 115:../Common/IQMath/ti/_IQNexp.c ****     }
 4794              		.loc 1 115 9 is_stmt 1 view .LVU1839
 115:../Common/IQMath/ti/_IQNexp.c ****     }
 4795              		.loc 1 115 46 is_stmt 0 view .LVU1840
 4796 0090 0246     		mov	r2, r0
 4797              	.LVL705:
 115:../Common/IQMath/ti/_IQNexp.c ****     }
 4798              		.loc 1 115 34 view .LVU1841
 4799 0092 52F8041B 		ldr	r1, [r2], #4
 4800              	.LVL706:
 115:../Common/IQMath/ti/_IQNexp.c ****     }
 4801              		.loc 1 115 31 view .LVU1842
 4802 0096 0B44     		add	r3, r3, r1
 4803              	.LVL707:
 113:../Common/IQMath/ti/_IQNexp.c ****         uiq30FractionalResult = __mpyf_l(iq31Fractional, uiq30FractionalResult);
 4804              		.loc 1 113 51 is_stmt 1 view .LVU1843
 113:../Common/IQMath/ti/_IQNexp.c ****         uiq30FractionalResult = __mpyf_l(iq31Fractional, uiq30FractionalResult);
 4805              		.loc 1 113 59 is_stmt 0 view .LVU1844
 4806 0098 013C     		subs	r4, r4, #1
 4807              	.LVL708:
 113:../Common/IQMath/ti/_IQNexp.c ****         uiq30FractionalResult = __mpyf_l(iq31Fractional, uiq30FractionalResult);
ARM GAS  C:\Users\57308\AppData\Local\Temp\ccyuPR38.s 			page 124


 4808              		.loc 1 113 59 view .LVU1845
 4809 009a E4B2     		uxtb	r4, r4
 4810              	.LVL709:
 115:../Common/IQMath/ti/_IQNexp.c ****     }
 4811              		.loc 1 115 46 view .LVU1846
 4812 009c 1046     		mov	r0, r2
 4813              	.LVL710:
 4814              	.L185:
 113:../Common/IQMath/ti/_IQNexp.c ****         uiq30FractionalResult = __mpyf_l(iq31Fractional, uiq30FractionalResult);
 4815              		.loc 1 113 37 is_stmt 1 view .LVU1847
 113:../Common/IQMath/ti/_IQNexp.c ****         uiq30FractionalResult = __mpyf_l(iq31Fractional, uiq30FractionalResult);
 4816              		.loc 1 113 5 is_stmt 0 view .LVU1848
 4817 009e 002C     		cmp	r4, #0
 4818 00a0 E9D1     		bne	.L186
 119:../Common/IQMath/ti/_IQNexp.c ****     
 4819              		.loc 1 119 5 is_stmt 1 view .LVU1849
 119:../Common/IQMath/ti/_IQNexp.c ****     
 4820              		.loc 1 119 27 is_stmt 0 view .LVU1850
 4821 00a2 5B00     		lsls	r3, r3, #1
 4822              	.LVL711:
 125:../Common/IQMath/ti/_IQNexp.c ****     
 4823              		.loc 1 125 5 is_stmt 1 view .LVU1851
 4824              	.LBB290:
 4825              	.LBI290:
 254:../Common/IQMath/ti/./support/RTS_support.h **** {
 4826              		.loc 2 254 29 view .LVU1852
 4827              	.LBB291:
 4828              		.loc 2 256 5 view .LVU1853
 4829              		.loc 2 256 49 is_stmt 0 view .LVU1854
 4830 00a4 A5FB0353 		umull	r5, r3, r5, r3
 4831              	.LVL712:
 4832              		.loc 2 256 72 view .LVU1855
 4833 00a8 ED0F     		lsrs	r5, r5, #31
 4834 00aa 45EA4305 		orr	r5, r5, r3, lsl #1
 4835              	.LVL713:
 4836              		.loc 2 256 72 view .LVU1856
 4837              	.LBE291:
 4838              	.LBE290:
 131:../Common/IQMath/ti/_IQNexp.c ****     
 4839              		.loc 1 131 5 is_stmt 1 view .LVU1857
 131:../Common/IQMath/ti/_IQNexp.c ****     
 4840              		.loc 1 131 5 is_stmt 0 view .LVU1858
 4841              	.LBE292:
 4842              	.LBE295:
  72:../Common/IQMath/ti/./support/RTS_support.h **** }
 4843              		.loc 2 72 5 is_stmt 1 view .LVU1859
 4844              	.LBB296:
 4845              	.LBB293:
 134:../Common/IQMath/ti/_IQNexp.c ****     uiqNResult >>= 1;
 4846              		.loc 1 134 5 view .LVU1860
 134:../Common/IQMath/ti/_IQNexp.c ****     uiqNResult >>= 1;
 4847              		.loc 1 134 15 is_stmt 0 view .LVU1861
 4848 00ae 0135     		adds	r5, r5, #1
 4849              	.LVL714:
 135:../Common/IQMath/ti/_IQNexp.c ****     
 4850              		.loc 1 135 5 is_stmt 1 view .LVU1862
 135:../Common/IQMath/ti/_IQNexp.c ****     
ARM GAS  C:\Users\57308\AppData\Local\Temp\ccyuPR38.s 			page 125


 4851              		.loc 1 135 16 is_stmt 0 view .LVU1863
 4852 00b0 6808     		lsrs	r0, r5, #1
 4853              	.LVL715:
 137:../Common/IQMath/ti/_IQNexp.c **** }
 4854              		.loc 1 137 5 is_stmt 1 view .LVU1864
 4855              	.L181:
 137:../Common/IQMath/ti/_IQNexp.c **** }
 4856              		.loc 1 137 5 is_stmt 0 view .LVU1865
 4857              	.LBE293:
 4858              	.LBE296:
 315:../Common/IQMath/ti/_IQNexp.c **** }
 4859              		.loc 1 315 1 view .LVU1866
 4860 00b2 30BC     		pop	{r4, r5}
 4861              	.LCFI46:
 4862              		.cfi_remember_state
 4863              		.cfi_restore 5
 4864              		.cfi_restore 4
 4865              		.cfi_def_cfa_offset 0
 4866 00b4 7047     		bx	lr
 4867              	.LVL716:
 4868              	.L187:
 4869              	.LCFI47:
 4870              		.cfi_restore_state
 4871              	.LBB297:
 4872              	.LBB294:
  49:../Common/IQMath/ti/_IQNexp.c ****         }
 4873              		.loc 1 49 20 view .LVU1867
 4874 00b6 0020     		movs	r0, #0
 4875              	.LVL717:
  49:../Common/IQMath/ti/_IQNexp.c ****         }
 4876              		.loc 1 49 20 view .LVU1868
 4877 00b8 FBE7     		b	.L181
 4878              	.LVL718:
 4879              	.L188:
  74:../Common/IQMath/ti/_IQNexp.c ****         }
 4880              		.loc 1 74 20 view .LVU1869
 4881 00ba 6FF00040 		mvn	r0, #-2147483648
 4882              	.LVL719:
  74:../Common/IQMath/ti/_IQNexp.c ****         }
 4883              		.loc 1 74 20 view .LVU1870
 4884              	.LBE294:
 4885              	.LBE297:
 314:../Common/IQMath/ti/_IQNexp.c **** }
 4886              		.loc 1 314 12 view .LVU1871
 4887 00be F8E7     		b	.L181
 4888              	.L192:
 4889              		.align	2
 4890              	.L191:
 4891 00c0 00000000 		.word	_IQNexp_offset
 4892 00c4 00000000 		.word	_IQNexp_min
 4893 00c8 00000000 		.word	_IQNexp_max
 4894 00cc 00000000 		.word	_IQNexp_lookup15
 4895 00d0 FB0BB958 		.word	1488522235
 4896 00d4 00000000 		.word	_IQ30exp_coeffs
 4897 00d8 05F446A7 		.word	-1488522235
 4898              		.cfi_endproc
 4899              	.LFE277:
ARM GAS  C:\Users\57308\AppData\Local\Temp\ccyuPR38.s 			page 126


 4901              		.section	.text._IQ14exp,"ax",%progbits
 4902              		.align	1
 4903              		.global	_IQ14exp
 4904              		.syntax unified
 4905              		.thumb
 4906              		.thumb_func
 4908              	_IQ14exp:
 4909              	.LVL720:
 4910              	.LFB278:
 316:../Common/IQMath/ti/_IQNexp.c **** /**
 317:../Common/IQMath/ti/_IQNexp.c ****  * @brief Computes the exponential of an IQ14 input.
 318:../Common/IQMath/ti/_IQNexp.c ****  *
 319:../Common/IQMath/ti/_IQNexp.c ****  * @param a               IQ14 type input.
 320:../Common/IQMath/ti/_IQNexp.c ****  *
 321:../Common/IQMath/ti/_IQNexp.c ****  * @return                IQ14 type result of exponential.
 322:../Common/IQMath/ti/_IQNexp.c ****  */
 323:../Common/IQMath/ti/_IQNexp.c **** int32_t _IQ14exp(int32_t a)
 324:../Common/IQMath/ti/_IQNexp.c **** {
 4911              		.loc 1 324 1 is_stmt 1 view -0
 4912              		.cfi_startproc
 4913              		@ args = 0, pretend = 0, frame = 0
 4914              		@ frame_needed = 0, uses_anonymous_args = 0
 4915              		@ link register save eliminated.
 4916              		.loc 1 324 1 is_stmt 0 view .LVU1873
 4917 0000 30B4     		push	{r4, r5}
 4918              	.LCFI48:
 4919              		.cfi_def_cfa_offset 8
 4920              		.cfi_offset 4, -8
 4921              		.cfi_offset 5, -4
 325:../Common/IQMath/ti/_IQNexp.c ****     return __IQNexp(a, _IQNexp_lookup14, _IQNexp_offset[14-1], _IQNexp_min[14-1], _IQNexp_max[14-1]
 4922              		.loc 1 325 5 is_stmt 1 view .LVU1874
 4923              		.loc 1 325 12 is_stmt 0 view .LVU1875
 4924 0002 2F4B     		ldr	r3, .L203
 4925 0004 93F83430 		ldrb	r3, [r3, #52]	@ zero_extendqisi2
 4926              		.loc 1 325 75 view .LVU1876
 4927 0008 2E4A     		ldr	r2, .L203+4
 4928 000a 516B     		ldr	r1, [r2, #52]
 4929              		.loc 1 325 94 view .LVU1877
 4930 000c 2E4A     		ldr	r2, .L203+8
 4931 000e 526B     		ldr	r2, [r2, #52]
 4932              	.LVL721:
 4933              	.LBB304:
 4934              	.LBI304:
  32:../Common/IQMath/ti/_IQNexp.c **** {
 4935              		.loc 1 32 30 is_stmt 1 view .LVU1878
 4936              	.LBB305:
  34:../Common/IQMath/ti/_IQNexp.c ****     int_fast16_t i16Integer;
 4937              		.loc 1 34 5 view .LVU1879
  35:../Common/IQMath/ti/_IQNexp.c ****     uint_fast16_t ui16IntState;
 4938              		.loc 1 35 5 view .LVU1880
  36:../Common/IQMath/ti/_IQNexp.c ****     uint_fast16_t ui16MPYState;
 4939              		.loc 1 36 5 view .LVU1881
  37:../Common/IQMath/ti/_IQNexp.c ****     int_fast32_t iq31Fractional;
 4940              		.loc 1 37 5 view .LVU1882
  38:../Common/IQMath/ti/_IQNexp.c ****     uint_fast32_t uiqNResult;
 4941              		.loc 1 38 5 view .LVU1883
  39:../Common/IQMath/ti/_IQNexp.c ****     uint_fast32_t uiqNIntegerResult;
ARM GAS  C:\Users\57308\AppData\Local\Temp\ccyuPR38.s 			page 127


 4942              		.loc 1 39 5 view .LVU1884
  40:../Common/IQMath/ti/_IQNexp.c ****     uint_fast32_t uiq30FractionalResult;
 4943              		.loc 1 40 5 view .LVU1885
  41:../Common/IQMath/ti/_IQNexp.c ****     uint_fast32_t uiq31FractionalResult;
 4944              		.loc 1 41 5 view .LVU1886
  42:../Common/IQMath/ti/_IQNexp.c ****     const uint_fast32_t *piq30Coeffs;
 4945              		.loc 1 42 5 view .LVU1887
  43:../Common/IQMath/ti/_IQNexp.c ****     
 4946              		.loc 1 43 5 view .LVU1888
  46:../Common/IQMath/ti/_IQNexp.c ****         /* Check for the minimum value. */
 4947              		.loc 1 46 5 view .LVU1889
  46:../Common/IQMath/ti/_IQNexp.c ****         /* Check for the minimum value. */
 4948              		.loc 1 46 8 is_stmt 0 view .LVU1890
 4949 0010 0028     		cmp	r0, #0
  46:../Common/IQMath/ti/_IQNexp.c ****         /* Check for the minimum value. */
 4950              		.loc 1 46 8 view .LVU1891
 4951 0012 19DB     		blt	.L202
  73:../Common/IQMath/ti/_IQNexp.c ****             return INT32_MAX;
 4952              		.loc 1 73 9 is_stmt 1 view .LVU1892
  73:../Common/IQMath/ti/_IQNexp.c ****             return INT32_MAX;
 4953              		.loc 1 73 12 is_stmt 0 view .LVU1893
 4954 0014 8242     		cmp	r2, r0
 4955 0016 50DB     		blt	.L200
  78:../Common/IQMath/ti/_IQNexp.c ****         iq31Fractional <<= (31 - q_value);
 4956              		.loc 1 78 9 is_stmt 1 view .LVU1894
 4957              	.LVL722:
  79:../Common/IQMath/ti/_IQNexp.c ****         iq31Fractional &= 0x7fffffff;
 4958              		.loc 1 79 9 view .LVU1895
  79:../Common/IQMath/ti/_IQNexp.c ****         iq31Fractional &= 0x7fffffff;
 4959              		.loc 1 79 24 is_stmt 0 view .LVU1896
 4960 0018 4FEA404C 		lsl	ip, r0, #17
 4961              	.LVL723:
  80:../Common/IQMath/ti/_IQNexp.c ****     
 4962              		.loc 1 80 9 is_stmt 1 view .LVU1897
  80:../Common/IQMath/ti/_IQNexp.c ****     
 4963              		.loc 1 80 24 is_stmt 0 view .LVU1898
 4964 001c 2CF0004C 		bic	ip, ip, #-2147483648
 4965              	.LVL724:
  83:../Common/IQMath/ti/_IQNexp.c ****     
 4966              		.loc 1 83 9 is_stmt 1 view .LVU1899
  86:../Common/IQMath/ti/_IQNexp.c ****         uiqNIntegerResult = iqNLookupTable[i16Integer];
 4967              		.loc 1 86 9 view .LVU1900
  86:../Common/IQMath/ti/_IQNexp.c ****         uiqNIntegerResult = iqNLookupTable[i16Integer];
 4968              		.loc 1 86 20 is_stmt 0 view .LVU1901
 4969 0020 03EBA030 		add	r0, r3, r0, asr #14
 4970              	.LVL725:
  87:../Common/IQMath/ti/_IQNexp.c ****         
 4971              		.loc 1 87 9 is_stmt 1 view .LVU1902
  87:../Common/IQMath/ti/_IQNexp.c ****         
 4972              		.loc 1 87 43 is_stmt 0 view .LVU1903
 4973 0024 294B     		ldr	r3, .L203+12
 4974              	.LVL726:
  87:../Common/IQMath/ti/_IQNexp.c ****         
 4975              		.loc 1 87 27 view .LVU1904
 4976 0026 53F82050 		ldr	r5, [r3, r0, lsl #2]
 4977              	.LVL727:
  90:../Common/IQMath/ti/_IQNexp.c ****             iq31Fractional -= iq31_ln2;
ARM GAS  C:\Users\57308\AppData\Local\Temp\ccyuPR38.s 			page 128


 4978              		.loc 1 90 9 is_stmt 1 view .LVU1905
  90:../Common/IQMath/ti/_IQNexp.c ****             iq31Fractional -= iq31_ln2;
 4979              		.loc 1 90 12 is_stmt 0 view .LVU1906
 4980 002a 294B     		ldr	r3, .L203+16
 4981 002c 9C45     		cmp	ip, r3
 4982 002e 06DD     		ble	.L196
  91:../Common/IQMath/ti/_IQNexp.c ****             uiqNIntegerResult <<= 1;
 4983              		.loc 1 91 13 is_stmt 1 view .LVU1907
  91:../Common/IQMath/ti/_IQNexp.c ****             uiqNIntegerResult <<= 1;
 4984              		.loc 1 91 28 is_stmt 0 view .LVU1908
 4985 0030 ACF1B14C 		sub	ip, ip, #1484783616
 4986              	.LVL728:
  91:../Common/IQMath/ti/_IQNexp.c ****             uiqNIntegerResult <<= 1;
 4987              		.loc 1 91 28 view .LVU1909
 4988 0034 ACF5641C 		sub	ip, ip, #3735552
 4989              	.LVL729:
  91:../Common/IQMath/ti/_IQNexp.c ****             uiqNIntegerResult <<= 1;
 4990              		.loc 1 91 28 view .LVU1910
 4991 0038 ACF6FC3C 		subw	ip, ip, #3068
 4992              	.LVL730:
  92:../Common/IQMath/ti/_IQNexp.c ****         }
 4993              		.loc 1 92 13 is_stmt 1 view .LVU1911
  92:../Common/IQMath/ti/_IQNexp.c ****         }
 4994              		.loc 1 92 31 is_stmt 0 view .LVU1912
 4995 003c 6D00     		lsls	r5, r5, #1
 4996              	.LVL731:
 4997              	.L196:
 102:../Common/IQMath/ti/_IQNexp.c ****     
 4998              		.loc 1 102 5 is_stmt 1 view .LVU1913
 102:../Common/IQMath/ti/_IQNexp.c ****     
 4999              		.loc 1 102 5 is_stmt 0 view .LVU1914
 5000              	.LBE305:
 5001              	.LBE304:
  28:../Common/IQMath/ti/./support/RTS_support.h **** }
 5002              		.loc 2 28 5 is_stmt 1 view .LVU1915
 5003              	.LBB313:
 5004              	.LBB310:
 109:../Common/IQMath/ti/_IQNexp.c ****     uiq30FractionalResult = *piq30Coeffs++;
 5005              		.loc 1 109 5 view .LVU1916
 110:../Common/IQMath/ti/_IQNexp.c ****     
 5006              		.loc 1 110 5 view .LVU1917
 110:../Common/IQMath/ti/_IQNexp.c ****     
 5007              		.loc 1 110 27 is_stmt 0 view .LVU1918
 5008 003e 2548     		ldr	r0, .L203+20
 5009              	.LVL732:
 110:../Common/IQMath/ti/_IQNexp.c ****     
 5010              		.loc 1 110 27 view .LVU1919
 5011 0040 50F8043B 		ldr	r3, [r0], #4
 5012              	.LVL733:
 113:../Common/IQMath/ti/_IQNexp.c ****         uiq30FractionalResult = __mpyf_l(iq31Fractional, uiq30FractionalResult);
 5013              		.loc 1 113 5 is_stmt 1 view .LVU1920
 113:../Common/IQMath/ti/_IQNexp.c ****         uiq30FractionalResult = __mpyf_l(iq31Fractional, uiq30FractionalResult);
 5014              		.loc 1 113 19 is_stmt 0 view .LVU1921
 5015 0044 0A24     		movs	r4, #10
 113:../Common/IQMath/ti/_IQNexp.c ****         uiq30FractionalResult = __mpyf_l(iq31Fractional, uiq30FractionalResult);
 5016              		.loc 1 113 5 view .LVU1922
 5017 0046 2AE0     		b	.L197
ARM GAS  C:\Users\57308\AppData\Local\Temp\ccyuPR38.s 			page 129


 5018              	.LVL734:
 5019              	.L202:
  48:../Common/IQMath/ti/_IQNexp.c ****             return 0;
 5020              		.loc 1 48 9 is_stmt 1 view .LVU1923
  48:../Common/IQMath/ti/_IQNexp.c ****             return 0;
 5021              		.loc 1 48 12 is_stmt 0 view .LVU1924
 5022 0048 8142     		cmp	r1, r0
 5023 004a 34DC     		bgt	.L199
  53:../Common/IQMath/ti/_IQNexp.c ****         iq31Fractional <<= (31 - q_value);
 5024              		.loc 1 53 9 is_stmt 1 view .LVU1925
 5025              	.LVL735:
  54:../Common/IQMath/ti/_IQNexp.c ****         iq31Fractional |= 0x80000000;
 5026              		.loc 1 54 9 view .LVU1926
  54:../Common/IQMath/ti/_IQNexp.c ****         iq31Fractional |= 0x80000000;
 5027              		.loc 1 54 24 is_stmt 0 view .LVU1927
 5028 004c 4FEA404C 		lsl	ip, r0, #17
 5029              	.LVL736:
  55:../Common/IQMath/ti/_IQNexp.c ****     
 5030              		.loc 1 55 9 is_stmt 1 view .LVU1928
  55:../Common/IQMath/ti/_IQNexp.c ****     
 5031              		.loc 1 55 24 is_stmt 0 view .LVU1929
 5032 0050 4CF0004C 		orr	ip, ip, #-2147483648
 5033              	.LVL737:
  58:../Common/IQMath/ti/_IQNexp.c ****     
 5034              		.loc 1 58 9 is_stmt 1 view .LVU1930
  58:../Common/IQMath/ti/_IQNexp.c ****     
 5035              		.loc 1 58 46 is_stmt 0 view .LVU1931
 5036 0054 8013     		asrs	r0, r0, #14
 5037              	.LVL738:
  58:../Common/IQMath/ti/_IQNexp.c ****     
 5038              		.loc 1 58 20 view .LVU1932
 5039 0056 0130     		adds	r0, r0, #1
 5040              	.LVL739:
  61:../Common/IQMath/ti/_IQNexp.c ****         uiqNIntegerResult = iqNLookupTable[i16Integer];
 5041              		.loc 1 61 9 is_stmt 1 view .LVU1933
  61:../Common/IQMath/ti/_IQNexp.c ****         uiqNIntegerResult = iqNLookupTable[i16Integer];
 5042              		.loc 1 61 20 is_stmt 0 view .LVU1934
 5043 0058 1844     		add	r0, r0, r3
 5044              	.LVL740:
  62:../Common/IQMath/ti/_IQNexp.c ****         
 5045              		.loc 1 62 9 is_stmt 1 view .LVU1935
  62:../Common/IQMath/ti/_IQNexp.c ****         
 5046              		.loc 1 62 43 is_stmt 0 view .LVU1936
 5047 005a 1C4B     		ldr	r3, .L203+12
 5048              	.LVL741:
  62:../Common/IQMath/ti/_IQNexp.c ****         
 5049              		.loc 1 62 27 view .LVU1937
 5050 005c 53F82050 		ldr	r5, [r3, r0, lsl #2]
 5051              	.LVL742:
  65:../Common/IQMath/ti/_IQNexp.c ****             iq31Fractional += iq31_ln2;
 5052              		.loc 1 65 9 is_stmt 1 view .LVU1938
  65:../Common/IQMath/ti/_IQNexp.c ****             iq31Fractional += iq31_ln2;
 5053              		.loc 1 65 12 is_stmt 0 view .LVU1939
 5054 0060 1D4B     		ldr	r3, .L203+24
 5055 0062 9C45     		cmp	ip, r3
 5056 0064 EBDA     		bge	.L196
  66:../Common/IQMath/ti/_IQNexp.c ****             uiqNIntegerResult >>= 1;
ARM GAS  C:\Users\57308\AppData\Local\Temp\ccyuPR38.s 			page 130


 5057              		.loc 1 66 13 is_stmt 1 view .LVU1940
  66:../Common/IQMath/ti/_IQNexp.c ****             uiqNIntegerResult >>= 1;
 5058              		.loc 1 66 28 is_stmt 0 view .LVU1941
 5059 0066 0CF1B14C 		add	ip, ip, #1484783616
 5060              	.LVL743:
  66:../Common/IQMath/ti/_IQNexp.c ****             uiqNIntegerResult >>= 1;
 5061              		.loc 1 66 28 view .LVU1942
 5062 006a 0CF5641C 		add	ip, ip, #3735552
 5063              	.LVL744:
  66:../Common/IQMath/ti/_IQNexp.c ****             uiqNIntegerResult >>= 1;
 5064              		.loc 1 66 28 view .LVU1943
 5065 006e 0CF6FC3C 		addw	ip, ip, #3068
 5066              	.LVL745:
  67:../Common/IQMath/ti/_IQNexp.c ****         }
 5067              		.loc 1 67 13 is_stmt 1 view .LVU1944
  67:../Common/IQMath/ti/_IQNexp.c ****         }
 5068              		.loc 1 67 31 is_stmt 0 view .LVU1945
 5069 0072 6D08     		lsrs	r5, r5, #1
 5070              	.LVL746:
  67:../Common/IQMath/ti/_IQNexp.c ****         }
 5071              		.loc 1 67 31 view .LVU1946
 5072 0074 E3E7     		b	.L196
 5073              	.LVL747:
 5074              	.L198:
 114:../Common/IQMath/ti/_IQNexp.c ****         uiq30FractionalResult += *piq30Coeffs++;
 5075              		.loc 1 114 9 is_stmt 1 view .LVU1947
 5076              	.LBB306:
 5077              	.LBI306:
 233:../Common/IQMath/ti/./support/RTS_support.h **** {
 5078              		.loc 2 233 28 view .LVU1948
 5079              	.LBB307:
 235:../Common/IQMath/ti/./support/RTS_support.h **** }
 5080              		.loc 2 235 5 view .LVU1949
 235:../Common/IQMath/ti/./support/RTS_support.h **** }
 5081              		.loc 2 235 28 is_stmt 0 view .LVU1950
 5082 0076 4FEAEC72 		asr	r2, ip, #31
 235:../Common/IQMath/ti/./support/RTS_support.h **** }
 5083              		.loc 2 235 49 view .LVU1951
 5084 007a D917     		asrs	r1, r3, #31
 235:../Common/IQMath/ti/./support/RTS_support.h **** }
 5085              		.loc 2 235 47 view .LVU1952
 5086 007c 0CFB01F1 		mul	r1, ip, r1
 5087 0080 03FB0212 		mla	r2, r3, r2, r1
 5088 0084 ACFB0331 		umull	r3, r1, ip, r3
 5089              	.LVL748:
 235:../Common/IQMath/ti/./support/RTS_support.h **** }
 5090              		.loc 2 235 47 view .LVU1953
 5091 0088 0A44     		add	r2, r2, r1
 235:../Common/IQMath/ti/./support/RTS_support.h **** }
 5092              		.loc 2 235 69 view .LVU1954
 5093 008a DB0F     		lsrs	r3, r3, #31
 5094 008c 43EA4203 		orr	r3, r3, r2, lsl #1
 5095              	.LVL749:
 235:../Common/IQMath/ti/./support/RTS_support.h **** }
 5096              		.loc 2 235 69 view .LVU1955
 5097              	.LBE307:
 5098              	.LBE306:
ARM GAS  C:\Users\57308\AppData\Local\Temp\ccyuPR38.s 			page 131


 115:../Common/IQMath/ti/_IQNexp.c ****     }
 5099              		.loc 1 115 9 is_stmt 1 view .LVU1956
 115:../Common/IQMath/ti/_IQNexp.c ****     }
 5100              		.loc 1 115 46 is_stmt 0 view .LVU1957
 5101 0090 0246     		mov	r2, r0
 5102              	.LVL750:
 115:../Common/IQMath/ti/_IQNexp.c ****     }
 5103              		.loc 1 115 34 view .LVU1958
 5104 0092 52F8041B 		ldr	r1, [r2], #4
 5105              	.LVL751:
 115:../Common/IQMath/ti/_IQNexp.c ****     }
 5106              		.loc 1 115 31 view .LVU1959
 5107 0096 0B44     		add	r3, r3, r1
 5108              	.LVL752:
 113:../Common/IQMath/ti/_IQNexp.c ****         uiq30FractionalResult = __mpyf_l(iq31Fractional, uiq30FractionalResult);
 5109              		.loc 1 113 51 is_stmt 1 view .LVU1960
 113:../Common/IQMath/ti/_IQNexp.c ****         uiq30FractionalResult = __mpyf_l(iq31Fractional, uiq30FractionalResult);
 5110              		.loc 1 113 59 is_stmt 0 view .LVU1961
 5111 0098 013C     		subs	r4, r4, #1
 5112              	.LVL753:
 113:../Common/IQMath/ti/_IQNexp.c ****         uiq30FractionalResult = __mpyf_l(iq31Fractional, uiq30FractionalResult);
 5113              		.loc 1 113 59 view .LVU1962
 5114 009a E4B2     		uxtb	r4, r4
 5115              	.LVL754:
 115:../Common/IQMath/ti/_IQNexp.c ****     }
 5116              		.loc 1 115 46 view .LVU1963
 5117 009c 1046     		mov	r0, r2
 5118              	.LVL755:
 5119              	.L197:
 113:../Common/IQMath/ti/_IQNexp.c ****         uiq30FractionalResult = __mpyf_l(iq31Fractional, uiq30FractionalResult);
 5120              		.loc 1 113 37 is_stmt 1 view .LVU1964
 113:../Common/IQMath/ti/_IQNexp.c ****         uiq30FractionalResult = __mpyf_l(iq31Fractional, uiq30FractionalResult);
 5121              		.loc 1 113 5 is_stmt 0 view .LVU1965
 5122 009e 002C     		cmp	r4, #0
 5123 00a0 E9D1     		bne	.L198
 119:../Common/IQMath/ti/_IQNexp.c ****     
 5124              		.loc 1 119 5 is_stmt 1 view .LVU1966
 119:../Common/IQMath/ti/_IQNexp.c ****     
 5125              		.loc 1 119 27 is_stmt 0 view .LVU1967
 5126 00a2 5B00     		lsls	r3, r3, #1
 5127              	.LVL756:
 125:../Common/IQMath/ti/_IQNexp.c ****     
 5128              		.loc 1 125 5 is_stmt 1 view .LVU1968
 5129              	.LBB308:
 5130              	.LBI308:
 254:../Common/IQMath/ti/./support/RTS_support.h **** {
 5131              		.loc 2 254 29 view .LVU1969
 5132              	.LBB309:
 5133              		.loc 2 256 5 view .LVU1970
 5134              		.loc 2 256 49 is_stmt 0 view .LVU1971
 5135 00a4 A5FB0353 		umull	r5, r3, r5, r3
 5136              	.LVL757:
 5137              		.loc 2 256 72 view .LVU1972
 5138 00a8 ED0F     		lsrs	r5, r5, #31
 5139 00aa 45EA4305 		orr	r5, r5, r3, lsl #1
 5140              	.LVL758:
 5141              		.loc 2 256 72 view .LVU1973
ARM GAS  C:\Users\57308\AppData\Local\Temp\ccyuPR38.s 			page 132


 5142              	.LBE309:
 5143              	.LBE308:
 131:../Common/IQMath/ti/_IQNexp.c ****     
 5144              		.loc 1 131 5 is_stmt 1 view .LVU1974
 131:../Common/IQMath/ti/_IQNexp.c ****     
 5145              		.loc 1 131 5 is_stmt 0 view .LVU1975
 5146              	.LBE310:
 5147              	.LBE313:
  72:../Common/IQMath/ti/./support/RTS_support.h **** }
 5148              		.loc 2 72 5 is_stmt 1 view .LVU1976
 5149              	.LBB314:
 5150              	.LBB311:
 134:../Common/IQMath/ti/_IQNexp.c ****     uiqNResult >>= 1;
 5151              		.loc 1 134 5 view .LVU1977
 134:../Common/IQMath/ti/_IQNexp.c ****     uiqNResult >>= 1;
 5152              		.loc 1 134 15 is_stmt 0 view .LVU1978
 5153 00ae 0135     		adds	r5, r5, #1
 5154              	.LVL759:
 135:../Common/IQMath/ti/_IQNexp.c ****     
 5155              		.loc 1 135 5 is_stmt 1 view .LVU1979
 135:../Common/IQMath/ti/_IQNexp.c ****     
 5156              		.loc 1 135 16 is_stmt 0 view .LVU1980
 5157 00b0 6808     		lsrs	r0, r5, #1
 5158              	.LVL760:
 137:../Common/IQMath/ti/_IQNexp.c **** }
 5159              		.loc 1 137 5 is_stmt 1 view .LVU1981
 5160              	.L193:
 137:../Common/IQMath/ti/_IQNexp.c **** }
 5161              		.loc 1 137 5 is_stmt 0 view .LVU1982
 5162              	.LBE311:
 5163              	.LBE314:
 326:../Common/IQMath/ti/_IQNexp.c **** }
 5164              		.loc 1 326 1 view .LVU1983
 5165 00b2 30BC     		pop	{r4, r5}
 5166              	.LCFI49:
 5167              		.cfi_remember_state
 5168              		.cfi_restore 5
 5169              		.cfi_restore 4
 5170              		.cfi_def_cfa_offset 0
 5171 00b4 7047     		bx	lr
 5172              	.LVL761:
 5173              	.L199:
 5174              	.LCFI50:
 5175              		.cfi_restore_state
 5176              	.LBB315:
 5177              	.LBB312:
  49:../Common/IQMath/ti/_IQNexp.c ****         }
 5178              		.loc 1 49 20 view .LVU1984
 5179 00b6 0020     		movs	r0, #0
 5180              	.LVL762:
  49:../Common/IQMath/ti/_IQNexp.c ****         }
 5181              		.loc 1 49 20 view .LVU1985
 5182 00b8 FBE7     		b	.L193
 5183              	.LVL763:
 5184              	.L200:
  74:../Common/IQMath/ti/_IQNexp.c ****         }
 5185              		.loc 1 74 20 view .LVU1986
ARM GAS  C:\Users\57308\AppData\Local\Temp\ccyuPR38.s 			page 133


 5186 00ba 6FF00040 		mvn	r0, #-2147483648
 5187              	.LVL764:
  74:../Common/IQMath/ti/_IQNexp.c ****         }
 5188              		.loc 1 74 20 view .LVU1987
 5189              	.LBE312:
 5190              	.LBE315:
 325:../Common/IQMath/ti/_IQNexp.c **** }
 5191              		.loc 1 325 12 view .LVU1988
 5192 00be F8E7     		b	.L193
 5193              	.L204:
 5194              		.align	2
 5195              	.L203:
 5196 00c0 00000000 		.word	_IQNexp_offset
 5197 00c4 00000000 		.word	_IQNexp_min
 5198 00c8 00000000 		.word	_IQNexp_max
 5199 00cc 00000000 		.word	_IQNexp_lookup14
 5200 00d0 FB0BB958 		.word	1488522235
 5201 00d4 00000000 		.word	_IQ30exp_coeffs
 5202 00d8 05F446A7 		.word	-1488522235
 5203              		.cfi_endproc
 5204              	.LFE278:
 5206              		.section	.text._IQ13exp,"ax",%progbits
 5207              		.align	1
 5208              		.global	_IQ13exp
 5209              		.syntax unified
 5210              		.thumb
 5211              		.thumb_func
 5213              	_IQ13exp:
 5214              	.LVL765:
 5215              	.LFB279:
 327:../Common/IQMath/ti/_IQNexp.c **** /**
 328:../Common/IQMath/ti/_IQNexp.c ****  * @brief Computes the exponential of an IQ13 input.
 329:../Common/IQMath/ti/_IQNexp.c ****  *
 330:../Common/IQMath/ti/_IQNexp.c ****  * @param a               IQ13 type input.
 331:../Common/IQMath/ti/_IQNexp.c ****  *
 332:../Common/IQMath/ti/_IQNexp.c ****  * @return                IQ13 type result of exponential.
 333:../Common/IQMath/ti/_IQNexp.c ****  */
 334:../Common/IQMath/ti/_IQNexp.c **** int32_t _IQ13exp(int32_t a)
 335:../Common/IQMath/ti/_IQNexp.c **** {
 5216              		.loc 1 335 1 is_stmt 1 view -0
 5217              		.cfi_startproc
 5218              		@ args = 0, pretend = 0, frame = 0
 5219              		@ frame_needed = 0, uses_anonymous_args = 0
 5220              		@ link register save eliminated.
 5221              		.loc 1 335 1 is_stmt 0 view .LVU1990
 5222 0000 30B4     		push	{r4, r5}
 5223              	.LCFI51:
 5224              		.cfi_def_cfa_offset 8
 5225              		.cfi_offset 4, -8
 5226              		.cfi_offset 5, -4
 336:../Common/IQMath/ti/_IQNexp.c ****     return __IQNexp(a, _IQNexp_lookup13, _IQNexp_offset[13-1], _IQNexp_min[13-1], _IQNexp_max[13-1]
 5227              		.loc 1 336 5 is_stmt 1 view .LVU1991
 5228              		.loc 1 336 12 is_stmt 0 view .LVU1992
 5229 0002 2F4B     		ldr	r3, .L215
 5230 0004 93F83030 		ldrb	r3, [r3, #48]	@ zero_extendqisi2
 5231              		.loc 1 336 75 view .LVU1993
 5232 0008 2E4A     		ldr	r2, .L215+4
ARM GAS  C:\Users\57308\AppData\Local\Temp\ccyuPR38.s 			page 134


 5233 000a 116B     		ldr	r1, [r2, #48]
 5234              		.loc 1 336 94 view .LVU1994
 5235 000c 2E4A     		ldr	r2, .L215+8
 5236 000e 126B     		ldr	r2, [r2, #48]
 5237              	.LVL766:
 5238              	.LBB322:
 5239              	.LBI322:
  32:../Common/IQMath/ti/_IQNexp.c **** {
 5240              		.loc 1 32 30 is_stmt 1 view .LVU1995
 5241              	.LBB323:
  34:../Common/IQMath/ti/_IQNexp.c ****     int_fast16_t i16Integer;
 5242              		.loc 1 34 5 view .LVU1996
  35:../Common/IQMath/ti/_IQNexp.c ****     uint_fast16_t ui16IntState;
 5243              		.loc 1 35 5 view .LVU1997
  36:../Common/IQMath/ti/_IQNexp.c ****     uint_fast16_t ui16MPYState;
 5244              		.loc 1 36 5 view .LVU1998
  37:../Common/IQMath/ti/_IQNexp.c ****     int_fast32_t iq31Fractional;
 5245              		.loc 1 37 5 view .LVU1999
  38:../Common/IQMath/ti/_IQNexp.c ****     uint_fast32_t uiqNResult;
 5246              		.loc 1 38 5 view .LVU2000
  39:../Common/IQMath/ti/_IQNexp.c ****     uint_fast32_t uiqNIntegerResult;
 5247              		.loc 1 39 5 view .LVU2001
  40:../Common/IQMath/ti/_IQNexp.c ****     uint_fast32_t uiq30FractionalResult;
 5248              		.loc 1 40 5 view .LVU2002
  41:../Common/IQMath/ti/_IQNexp.c ****     uint_fast32_t uiq31FractionalResult;
 5249              		.loc 1 41 5 view .LVU2003
  42:../Common/IQMath/ti/_IQNexp.c ****     const uint_fast32_t *piq30Coeffs;
 5250              		.loc 1 42 5 view .LVU2004
  43:../Common/IQMath/ti/_IQNexp.c ****     
 5251              		.loc 1 43 5 view .LVU2005
  46:../Common/IQMath/ti/_IQNexp.c ****         /* Check for the minimum value. */
 5252              		.loc 1 46 5 view .LVU2006
  46:../Common/IQMath/ti/_IQNexp.c ****         /* Check for the minimum value. */
 5253              		.loc 1 46 8 is_stmt 0 view .LVU2007
 5254 0010 0028     		cmp	r0, #0
  46:../Common/IQMath/ti/_IQNexp.c ****         /* Check for the minimum value. */
 5255              		.loc 1 46 8 view .LVU2008
 5256 0012 19DB     		blt	.L214
  73:../Common/IQMath/ti/_IQNexp.c ****             return INT32_MAX;
 5257              		.loc 1 73 9 is_stmt 1 view .LVU2009
  73:../Common/IQMath/ti/_IQNexp.c ****             return INT32_MAX;
 5258              		.loc 1 73 12 is_stmt 0 view .LVU2010
 5259 0014 8242     		cmp	r2, r0
 5260 0016 50DB     		blt	.L212
  78:../Common/IQMath/ti/_IQNexp.c ****         iq31Fractional <<= (31 - q_value);
 5261              		.loc 1 78 9 is_stmt 1 view .LVU2011
 5262              	.LVL767:
  79:../Common/IQMath/ti/_IQNexp.c ****         iq31Fractional &= 0x7fffffff;
 5263              		.loc 1 79 9 view .LVU2012
  79:../Common/IQMath/ti/_IQNexp.c ****         iq31Fractional &= 0x7fffffff;
 5264              		.loc 1 79 24 is_stmt 0 view .LVU2013
 5265 0018 4FEA804C 		lsl	ip, r0, #18
 5266              	.LVL768:
  80:../Common/IQMath/ti/_IQNexp.c ****     
 5267              		.loc 1 80 9 is_stmt 1 view .LVU2014
  80:../Common/IQMath/ti/_IQNexp.c ****     
 5268              		.loc 1 80 24 is_stmt 0 view .LVU2015
ARM GAS  C:\Users\57308\AppData\Local\Temp\ccyuPR38.s 			page 135


 5269 001c 2CF0004C 		bic	ip, ip, #-2147483648
 5270              	.LVL769:
  83:../Common/IQMath/ti/_IQNexp.c ****     
 5271              		.loc 1 83 9 is_stmt 1 view .LVU2016
  86:../Common/IQMath/ti/_IQNexp.c ****         uiqNIntegerResult = iqNLookupTable[i16Integer];
 5272              		.loc 1 86 9 view .LVU2017
  86:../Common/IQMath/ti/_IQNexp.c ****         uiqNIntegerResult = iqNLookupTable[i16Integer];
 5273              		.loc 1 86 20 is_stmt 0 view .LVU2018
 5274 0020 03EB6030 		add	r0, r3, r0, asr #13
 5275              	.LVL770:
  87:../Common/IQMath/ti/_IQNexp.c ****         
 5276              		.loc 1 87 9 is_stmt 1 view .LVU2019
  87:../Common/IQMath/ti/_IQNexp.c ****         
 5277              		.loc 1 87 43 is_stmt 0 view .LVU2020
 5278 0024 294B     		ldr	r3, .L215+12
 5279              	.LVL771:
  87:../Common/IQMath/ti/_IQNexp.c ****         
 5280              		.loc 1 87 27 view .LVU2021
 5281 0026 53F82050 		ldr	r5, [r3, r0, lsl #2]
 5282              	.LVL772:
  90:../Common/IQMath/ti/_IQNexp.c ****             iq31Fractional -= iq31_ln2;
 5283              		.loc 1 90 9 is_stmt 1 view .LVU2022
  90:../Common/IQMath/ti/_IQNexp.c ****             iq31Fractional -= iq31_ln2;
 5284              		.loc 1 90 12 is_stmt 0 view .LVU2023
 5285 002a 294B     		ldr	r3, .L215+16
 5286 002c 9C45     		cmp	ip, r3
 5287 002e 06DD     		ble	.L208
  91:../Common/IQMath/ti/_IQNexp.c ****             uiqNIntegerResult <<= 1;
 5288              		.loc 1 91 13 is_stmt 1 view .LVU2024
  91:../Common/IQMath/ti/_IQNexp.c ****             uiqNIntegerResult <<= 1;
 5289              		.loc 1 91 28 is_stmt 0 view .LVU2025
 5290 0030 ACF1B14C 		sub	ip, ip, #1484783616
 5291              	.LVL773:
  91:../Common/IQMath/ti/_IQNexp.c ****             uiqNIntegerResult <<= 1;
 5292              		.loc 1 91 28 view .LVU2026
 5293 0034 ACF5641C 		sub	ip, ip, #3735552
 5294              	.LVL774:
  91:../Common/IQMath/ti/_IQNexp.c ****             uiqNIntegerResult <<= 1;
 5295              		.loc 1 91 28 view .LVU2027
 5296 0038 ACF6FC3C 		subw	ip, ip, #3068
 5297              	.LVL775:
  92:../Common/IQMath/ti/_IQNexp.c ****         }
 5298              		.loc 1 92 13 is_stmt 1 view .LVU2028
  92:../Common/IQMath/ti/_IQNexp.c ****         }
 5299              		.loc 1 92 31 is_stmt 0 view .LVU2029
 5300 003c 6D00     		lsls	r5, r5, #1
 5301              	.LVL776:
 5302              	.L208:
 102:../Common/IQMath/ti/_IQNexp.c ****     
 5303              		.loc 1 102 5 is_stmt 1 view .LVU2030
 102:../Common/IQMath/ti/_IQNexp.c ****     
 5304              		.loc 1 102 5 is_stmt 0 view .LVU2031
 5305              	.LBE323:
 5306              	.LBE322:
  28:../Common/IQMath/ti/./support/RTS_support.h **** }
 5307              		.loc 2 28 5 is_stmt 1 view .LVU2032
 5308              	.LBB331:
ARM GAS  C:\Users\57308\AppData\Local\Temp\ccyuPR38.s 			page 136


 5309              	.LBB328:
 109:../Common/IQMath/ti/_IQNexp.c ****     uiq30FractionalResult = *piq30Coeffs++;
 5310              		.loc 1 109 5 view .LVU2033
 110:../Common/IQMath/ti/_IQNexp.c ****     
 5311              		.loc 1 110 5 view .LVU2034
 110:../Common/IQMath/ti/_IQNexp.c ****     
 5312              		.loc 1 110 27 is_stmt 0 view .LVU2035
 5313 003e 2548     		ldr	r0, .L215+20
 5314              	.LVL777:
 110:../Common/IQMath/ti/_IQNexp.c ****     
 5315              		.loc 1 110 27 view .LVU2036
 5316 0040 50F8043B 		ldr	r3, [r0], #4
 5317              	.LVL778:
 113:../Common/IQMath/ti/_IQNexp.c ****         uiq30FractionalResult = __mpyf_l(iq31Fractional, uiq30FractionalResult);
 5318              		.loc 1 113 5 is_stmt 1 view .LVU2037
 113:../Common/IQMath/ti/_IQNexp.c ****         uiq30FractionalResult = __mpyf_l(iq31Fractional, uiq30FractionalResult);
 5319              		.loc 1 113 19 is_stmt 0 view .LVU2038
 5320 0044 0A24     		movs	r4, #10
 113:../Common/IQMath/ti/_IQNexp.c ****         uiq30FractionalResult = __mpyf_l(iq31Fractional, uiq30FractionalResult);
 5321              		.loc 1 113 5 view .LVU2039
 5322 0046 2AE0     		b	.L209
 5323              	.LVL779:
 5324              	.L214:
  48:../Common/IQMath/ti/_IQNexp.c ****             return 0;
 5325              		.loc 1 48 9 is_stmt 1 view .LVU2040
  48:../Common/IQMath/ti/_IQNexp.c ****             return 0;
 5326              		.loc 1 48 12 is_stmt 0 view .LVU2041
 5327 0048 8142     		cmp	r1, r0
 5328 004a 34DC     		bgt	.L211
  53:../Common/IQMath/ti/_IQNexp.c ****         iq31Fractional <<= (31 - q_value);
 5329              		.loc 1 53 9 is_stmt 1 view .LVU2042
 5330              	.LVL780:
  54:../Common/IQMath/ti/_IQNexp.c ****         iq31Fractional |= 0x80000000;
 5331              		.loc 1 54 9 view .LVU2043
  54:../Common/IQMath/ti/_IQNexp.c ****         iq31Fractional |= 0x80000000;
 5332              		.loc 1 54 24 is_stmt 0 view .LVU2044
 5333 004c 4FEA804C 		lsl	ip, r0, #18
 5334              	.LVL781:
  55:../Common/IQMath/ti/_IQNexp.c ****     
 5335              		.loc 1 55 9 is_stmt 1 view .LVU2045
  55:../Common/IQMath/ti/_IQNexp.c ****     
 5336              		.loc 1 55 24 is_stmt 0 view .LVU2046
 5337 0050 4CF0004C 		orr	ip, ip, #-2147483648
 5338              	.LVL782:
  58:../Common/IQMath/ti/_IQNexp.c ****     
 5339              		.loc 1 58 9 is_stmt 1 view .LVU2047
  58:../Common/IQMath/ti/_IQNexp.c ****     
 5340              		.loc 1 58 46 is_stmt 0 view .LVU2048
 5341 0054 4013     		asrs	r0, r0, #13
 5342              	.LVL783:
  58:../Common/IQMath/ti/_IQNexp.c ****     
 5343              		.loc 1 58 20 view .LVU2049
 5344 0056 0130     		adds	r0, r0, #1
 5345              	.LVL784:
  61:../Common/IQMath/ti/_IQNexp.c ****         uiqNIntegerResult = iqNLookupTable[i16Integer];
 5346              		.loc 1 61 9 is_stmt 1 view .LVU2050
  61:../Common/IQMath/ti/_IQNexp.c ****         uiqNIntegerResult = iqNLookupTable[i16Integer];
ARM GAS  C:\Users\57308\AppData\Local\Temp\ccyuPR38.s 			page 137


 5347              		.loc 1 61 20 is_stmt 0 view .LVU2051
 5348 0058 1844     		add	r0, r0, r3
 5349              	.LVL785:
  62:../Common/IQMath/ti/_IQNexp.c ****         
 5350              		.loc 1 62 9 is_stmt 1 view .LVU2052
  62:../Common/IQMath/ti/_IQNexp.c ****         
 5351              		.loc 1 62 43 is_stmt 0 view .LVU2053
 5352 005a 1C4B     		ldr	r3, .L215+12
 5353              	.LVL786:
  62:../Common/IQMath/ti/_IQNexp.c ****         
 5354              		.loc 1 62 27 view .LVU2054
 5355 005c 53F82050 		ldr	r5, [r3, r0, lsl #2]
 5356              	.LVL787:
  65:../Common/IQMath/ti/_IQNexp.c ****             iq31Fractional += iq31_ln2;
 5357              		.loc 1 65 9 is_stmt 1 view .LVU2055
  65:../Common/IQMath/ti/_IQNexp.c ****             iq31Fractional += iq31_ln2;
 5358              		.loc 1 65 12 is_stmt 0 view .LVU2056
 5359 0060 1D4B     		ldr	r3, .L215+24
 5360 0062 9C45     		cmp	ip, r3
 5361 0064 EBDA     		bge	.L208
  66:../Common/IQMath/ti/_IQNexp.c ****             uiqNIntegerResult >>= 1;
 5362              		.loc 1 66 13 is_stmt 1 view .LVU2057
  66:../Common/IQMath/ti/_IQNexp.c ****             uiqNIntegerResult >>= 1;
 5363              		.loc 1 66 28 is_stmt 0 view .LVU2058
 5364 0066 0CF1B14C 		add	ip, ip, #1484783616
 5365              	.LVL788:
  66:../Common/IQMath/ti/_IQNexp.c ****             uiqNIntegerResult >>= 1;
 5366              		.loc 1 66 28 view .LVU2059
 5367 006a 0CF5641C 		add	ip, ip, #3735552
 5368              	.LVL789:
  66:../Common/IQMath/ti/_IQNexp.c ****             uiqNIntegerResult >>= 1;
 5369              		.loc 1 66 28 view .LVU2060
 5370 006e 0CF6FC3C 		addw	ip, ip, #3068
 5371              	.LVL790:
  67:../Common/IQMath/ti/_IQNexp.c ****         }
 5372              		.loc 1 67 13 is_stmt 1 view .LVU2061
  67:../Common/IQMath/ti/_IQNexp.c ****         }
 5373              		.loc 1 67 31 is_stmt 0 view .LVU2062
 5374 0072 6D08     		lsrs	r5, r5, #1
 5375              	.LVL791:
  67:../Common/IQMath/ti/_IQNexp.c ****         }
 5376              		.loc 1 67 31 view .LVU2063
 5377 0074 E3E7     		b	.L208
 5378              	.LVL792:
 5379              	.L210:
 114:../Common/IQMath/ti/_IQNexp.c ****         uiq30FractionalResult += *piq30Coeffs++;
 5380              		.loc 1 114 9 is_stmt 1 view .LVU2064
 5381              	.LBB324:
 5382              	.LBI324:
 233:../Common/IQMath/ti/./support/RTS_support.h **** {
 5383              		.loc 2 233 28 view .LVU2065
 5384              	.LBB325:
 235:../Common/IQMath/ti/./support/RTS_support.h **** }
 5385              		.loc 2 235 5 view .LVU2066
 235:../Common/IQMath/ti/./support/RTS_support.h **** }
 5386              		.loc 2 235 28 is_stmt 0 view .LVU2067
 5387 0076 4FEAEC72 		asr	r2, ip, #31
ARM GAS  C:\Users\57308\AppData\Local\Temp\ccyuPR38.s 			page 138


 235:../Common/IQMath/ti/./support/RTS_support.h **** }
 5388              		.loc 2 235 49 view .LVU2068
 5389 007a D917     		asrs	r1, r3, #31
 235:../Common/IQMath/ti/./support/RTS_support.h **** }
 5390              		.loc 2 235 47 view .LVU2069
 5391 007c 0CFB01F1 		mul	r1, ip, r1
 5392 0080 03FB0212 		mla	r2, r3, r2, r1
 5393 0084 ACFB0331 		umull	r3, r1, ip, r3
 5394              	.LVL793:
 235:../Common/IQMath/ti/./support/RTS_support.h **** }
 5395              		.loc 2 235 47 view .LVU2070
 5396 0088 0A44     		add	r2, r2, r1
 235:../Common/IQMath/ti/./support/RTS_support.h **** }
 5397              		.loc 2 235 69 view .LVU2071
 5398 008a DB0F     		lsrs	r3, r3, #31
 5399 008c 43EA4203 		orr	r3, r3, r2, lsl #1
 5400              	.LVL794:
 235:../Common/IQMath/ti/./support/RTS_support.h **** }
 5401              		.loc 2 235 69 view .LVU2072
 5402              	.LBE325:
 5403              	.LBE324:
 115:../Common/IQMath/ti/_IQNexp.c ****     }
 5404              		.loc 1 115 9 is_stmt 1 view .LVU2073
 115:../Common/IQMath/ti/_IQNexp.c ****     }
 5405              		.loc 1 115 46 is_stmt 0 view .LVU2074
 5406 0090 0246     		mov	r2, r0
 5407              	.LVL795:
 115:../Common/IQMath/ti/_IQNexp.c ****     }
 5408              		.loc 1 115 34 view .LVU2075
 5409 0092 52F8041B 		ldr	r1, [r2], #4
 5410              	.LVL796:
 115:../Common/IQMath/ti/_IQNexp.c ****     }
 5411              		.loc 1 115 31 view .LVU2076
 5412 0096 0B44     		add	r3, r3, r1
 5413              	.LVL797:
 113:../Common/IQMath/ti/_IQNexp.c ****         uiq30FractionalResult = __mpyf_l(iq31Fractional, uiq30FractionalResult);
 5414              		.loc 1 113 51 is_stmt 1 view .LVU2077
 113:../Common/IQMath/ti/_IQNexp.c ****         uiq30FractionalResult = __mpyf_l(iq31Fractional, uiq30FractionalResult);
 5415              		.loc 1 113 59 is_stmt 0 view .LVU2078
 5416 0098 013C     		subs	r4, r4, #1
 5417              	.LVL798:
 113:../Common/IQMath/ti/_IQNexp.c ****         uiq30FractionalResult = __mpyf_l(iq31Fractional, uiq30FractionalResult);
 5418              		.loc 1 113 59 view .LVU2079
 5419 009a E4B2     		uxtb	r4, r4
 5420              	.LVL799:
 115:../Common/IQMath/ti/_IQNexp.c ****     }
 5421              		.loc 1 115 46 view .LVU2080
 5422 009c 1046     		mov	r0, r2
 5423              	.LVL800:
 5424              	.L209:
 113:../Common/IQMath/ti/_IQNexp.c ****         uiq30FractionalResult = __mpyf_l(iq31Fractional, uiq30FractionalResult);
 5425              		.loc 1 113 37 is_stmt 1 view .LVU2081
 113:../Common/IQMath/ti/_IQNexp.c ****         uiq30FractionalResult = __mpyf_l(iq31Fractional, uiq30FractionalResult);
 5426              		.loc 1 113 5 is_stmt 0 view .LVU2082
 5427 009e 002C     		cmp	r4, #0
 5428 00a0 E9D1     		bne	.L210
 119:../Common/IQMath/ti/_IQNexp.c ****     
ARM GAS  C:\Users\57308\AppData\Local\Temp\ccyuPR38.s 			page 139


 5429              		.loc 1 119 5 is_stmt 1 view .LVU2083
 119:../Common/IQMath/ti/_IQNexp.c ****     
 5430              		.loc 1 119 27 is_stmt 0 view .LVU2084
 5431 00a2 5B00     		lsls	r3, r3, #1
 5432              	.LVL801:
 125:../Common/IQMath/ti/_IQNexp.c ****     
 5433              		.loc 1 125 5 is_stmt 1 view .LVU2085
 5434              	.LBB326:
 5435              	.LBI326:
 254:../Common/IQMath/ti/./support/RTS_support.h **** {
 5436              		.loc 2 254 29 view .LVU2086
 5437              	.LBB327:
 5438              		.loc 2 256 5 view .LVU2087
 5439              		.loc 2 256 49 is_stmt 0 view .LVU2088
 5440 00a4 A5FB0353 		umull	r5, r3, r5, r3
 5441              	.LVL802:
 5442              		.loc 2 256 72 view .LVU2089
 5443 00a8 ED0F     		lsrs	r5, r5, #31
 5444 00aa 45EA4305 		orr	r5, r5, r3, lsl #1
 5445              	.LVL803:
 5446              		.loc 2 256 72 view .LVU2090
 5447              	.LBE327:
 5448              	.LBE326:
 131:../Common/IQMath/ti/_IQNexp.c ****     
 5449              		.loc 1 131 5 is_stmt 1 view .LVU2091
 131:../Common/IQMath/ti/_IQNexp.c ****     
 5450              		.loc 1 131 5 is_stmt 0 view .LVU2092
 5451              	.LBE328:
 5452              	.LBE331:
  72:../Common/IQMath/ti/./support/RTS_support.h **** }
 5453              		.loc 2 72 5 is_stmt 1 view .LVU2093
 5454              	.LBB332:
 5455              	.LBB329:
 134:../Common/IQMath/ti/_IQNexp.c ****     uiqNResult >>= 1;
 5456              		.loc 1 134 5 view .LVU2094
 134:../Common/IQMath/ti/_IQNexp.c ****     uiqNResult >>= 1;
 5457              		.loc 1 134 15 is_stmt 0 view .LVU2095
 5458 00ae 0135     		adds	r5, r5, #1
 5459              	.LVL804:
 135:../Common/IQMath/ti/_IQNexp.c ****     
 5460              		.loc 1 135 5 is_stmt 1 view .LVU2096
 135:../Common/IQMath/ti/_IQNexp.c ****     
 5461              		.loc 1 135 16 is_stmt 0 view .LVU2097
 5462 00b0 6808     		lsrs	r0, r5, #1
 5463              	.LVL805:
 137:../Common/IQMath/ti/_IQNexp.c **** }
 5464              		.loc 1 137 5 is_stmt 1 view .LVU2098
 5465              	.L205:
 137:../Common/IQMath/ti/_IQNexp.c **** }
 5466              		.loc 1 137 5 is_stmt 0 view .LVU2099
 5467              	.LBE329:
 5468              	.LBE332:
 337:../Common/IQMath/ti/_IQNexp.c **** }
 5469              		.loc 1 337 1 view .LVU2100
 5470 00b2 30BC     		pop	{r4, r5}
 5471              	.LCFI52:
 5472              		.cfi_remember_state
ARM GAS  C:\Users\57308\AppData\Local\Temp\ccyuPR38.s 			page 140


 5473              		.cfi_restore 5
 5474              		.cfi_restore 4
 5475              		.cfi_def_cfa_offset 0
 5476 00b4 7047     		bx	lr
 5477              	.LVL806:
 5478              	.L211:
 5479              	.LCFI53:
 5480              		.cfi_restore_state
 5481              	.LBB333:
 5482              	.LBB330:
  49:../Common/IQMath/ti/_IQNexp.c ****         }
 5483              		.loc 1 49 20 view .LVU2101
 5484 00b6 0020     		movs	r0, #0
 5485              	.LVL807:
  49:../Common/IQMath/ti/_IQNexp.c ****         }
 5486              		.loc 1 49 20 view .LVU2102
 5487 00b8 FBE7     		b	.L205
 5488              	.LVL808:
 5489              	.L212:
  74:../Common/IQMath/ti/_IQNexp.c ****         }
 5490              		.loc 1 74 20 view .LVU2103
 5491 00ba 6FF00040 		mvn	r0, #-2147483648
 5492              	.LVL809:
  74:../Common/IQMath/ti/_IQNexp.c ****         }
 5493              		.loc 1 74 20 view .LVU2104
 5494              	.LBE330:
 5495              	.LBE333:
 336:../Common/IQMath/ti/_IQNexp.c **** }
 5496              		.loc 1 336 12 view .LVU2105
 5497 00be F8E7     		b	.L205
 5498              	.L216:
 5499              		.align	2
 5500              	.L215:
 5501 00c0 00000000 		.word	_IQNexp_offset
 5502 00c4 00000000 		.word	_IQNexp_min
 5503 00c8 00000000 		.word	_IQNexp_max
 5504 00cc 00000000 		.word	_IQNexp_lookup13
 5505 00d0 FB0BB958 		.word	1488522235
 5506 00d4 00000000 		.word	_IQ30exp_coeffs
 5507 00d8 05F446A7 		.word	-1488522235
 5508              		.cfi_endproc
 5509              	.LFE279:
 5511              		.section	.text._IQ12exp,"ax",%progbits
 5512              		.align	1
 5513              		.global	_IQ12exp
 5514              		.syntax unified
 5515              		.thumb
 5516              		.thumb_func
 5518              	_IQ12exp:
 5519              	.LVL810:
 5520              	.LFB280:
 338:../Common/IQMath/ti/_IQNexp.c **** /**
 339:../Common/IQMath/ti/_IQNexp.c ****  * @brief Computes the exponential of an IQ12 input.
 340:../Common/IQMath/ti/_IQNexp.c ****  *
 341:../Common/IQMath/ti/_IQNexp.c ****  * @param a               IQ12 type input.
 342:../Common/IQMath/ti/_IQNexp.c ****  *
 343:../Common/IQMath/ti/_IQNexp.c ****  * @return                IQ12 type result of exponential.
ARM GAS  C:\Users\57308\AppData\Local\Temp\ccyuPR38.s 			page 141


 344:../Common/IQMath/ti/_IQNexp.c ****  */
 345:../Common/IQMath/ti/_IQNexp.c **** int32_t _IQ12exp(int32_t a)
 346:../Common/IQMath/ti/_IQNexp.c **** {
 5521              		.loc 1 346 1 is_stmt 1 view -0
 5522              		.cfi_startproc
 5523              		@ args = 0, pretend = 0, frame = 0
 5524              		@ frame_needed = 0, uses_anonymous_args = 0
 5525              		@ link register save eliminated.
 5526              		.loc 1 346 1 is_stmt 0 view .LVU2107
 5527 0000 30B4     		push	{r4, r5}
 5528              	.LCFI54:
 5529              		.cfi_def_cfa_offset 8
 5530              		.cfi_offset 4, -8
 5531              		.cfi_offset 5, -4
 347:../Common/IQMath/ti/_IQNexp.c ****     return __IQNexp(a, _IQNexp_lookup12, _IQNexp_offset[12-1], _IQNexp_min[12-1], _IQNexp_max[12-1]
 5532              		.loc 1 347 5 is_stmt 1 view .LVU2108
 5533              		.loc 1 347 12 is_stmt 0 view .LVU2109
 5534 0002 2F4B     		ldr	r3, .L227
 5535 0004 93F82C30 		ldrb	r3, [r3, #44]	@ zero_extendqisi2
 5536              		.loc 1 347 75 view .LVU2110
 5537 0008 2E4A     		ldr	r2, .L227+4
 5538 000a D16A     		ldr	r1, [r2, #44]
 5539              		.loc 1 347 94 view .LVU2111
 5540 000c 2E4A     		ldr	r2, .L227+8
 5541 000e D26A     		ldr	r2, [r2, #44]
 5542              	.LVL811:
 5543              	.LBB340:
 5544              	.LBI340:
  32:../Common/IQMath/ti/_IQNexp.c **** {
 5545              		.loc 1 32 30 is_stmt 1 view .LVU2112
 5546              	.LBB341:
  34:../Common/IQMath/ti/_IQNexp.c ****     int_fast16_t i16Integer;
 5547              		.loc 1 34 5 view .LVU2113
  35:../Common/IQMath/ti/_IQNexp.c ****     uint_fast16_t ui16IntState;
 5548              		.loc 1 35 5 view .LVU2114
  36:../Common/IQMath/ti/_IQNexp.c ****     uint_fast16_t ui16MPYState;
 5549              		.loc 1 36 5 view .LVU2115
  37:../Common/IQMath/ti/_IQNexp.c ****     int_fast32_t iq31Fractional;
 5550              		.loc 1 37 5 view .LVU2116
  38:../Common/IQMath/ti/_IQNexp.c ****     uint_fast32_t uiqNResult;
 5551              		.loc 1 38 5 view .LVU2117
  39:../Common/IQMath/ti/_IQNexp.c ****     uint_fast32_t uiqNIntegerResult;
 5552              		.loc 1 39 5 view .LVU2118
  40:../Common/IQMath/ti/_IQNexp.c ****     uint_fast32_t uiq30FractionalResult;
 5553              		.loc 1 40 5 view .LVU2119
  41:../Common/IQMath/ti/_IQNexp.c ****     uint_fast32_t uiq31FractionalResult;
 5554              		.loc 1 41 5 view .LVU2120
  42:../Common/IQMath/ti/_IQNexp.c ****     const uint_fast32_t *piq30Coeffs;
 5555              		.loc 1 42 5 view .LVU2121
  43:../Common/IQMath/ti/_IQNexp.c ****     
 5556              		.loc 1 43 5 view .LVU2122
  46:../Common/IQMath/ti/_IQNexp.c ****         /* Check for the minimum value. */
 5557              		.loc 1 46 5 view .LVU2123
  46:../Common/IQMath/ti/_IQNexp.c ****         /* Check for the minimum value. */
 5558              		.loc 1 46 8 is_stmt 0 view .LVU2124
 5559 0010 0028     		cmp	r0, #0
  46:../Common/IQMath/ti/_IQNexp.c ****         /* Check for the minimum value. */
ARM GAS  C:\Users\57308\AppData\Local\Temp\ccyuPR38.s 			page 142


 5560              		.loc 1 46 8 view .LVU2125
 5561 0012 19DB     		blt	.L226
  73:../Common/IQMath/ti/_IQNexp.c ****             return INT32_MAX;
 5562              		.loc 1 73 9 is_stmt 1 view .LVU2126
  73:../Common/IQMath/ti/_IQNexp.c ****             return INT32_MAX;
 5563              		.loc 1 73 12 is_stmt 0 view .LVU2127
 5564 0014 8242     		cmp	r2, r0
 5565 0016 50DB     		blt	.L224
  78:../Common/IQMath/ti/_IQNexp.c ****         iq31Fractional <<= (31 - q_value);
 5566              		.loc 1 78 9 is_stmt 1 view .LVU2128
 5567              	.LVL812:
  79:../Common/IQMath/ti/_IQNexp.c ****         iq31Fractional &= 0x7fffffff;
 5568              		.loc 1 79 9 view .LVU2129
  79:../Common/IQMath/ti/_IQNexp.c ****         iq31Fractional &= 0x7fffffff;
 5569              		.loc 1 79 24 is_stmt 0 view .LVU2130
 5570 0018 4FEAC04C 		lsl	ip, r0, #19
 5571              	.LVL813:
  80:../Common/IQMath/ti/_IQNexp.c ****     
 5572              		.loc 1 80 9 is_stmt 1 view .LVU2131
  80:../Common/IQMath/ti/_IQNexp.c ****     
 5573              		.loc 1 80 24 is_stmt 0 view .LVU2132
 5574 001c 2CF0004C 		bic	ip, ip, #-2147483648
 5575              	.LVL814:
  83:../Common/IQMath/ti/_IQNexp.c ****     
 5576              		.loc 1 83 9 is_stmt 1 view .LVU2133
  86:../Common/IQMath/ti/_IQNexp.c ****         uiqNIntegerResult = iqNLookupTable[i16Integer];
 5577              		.loc 1 86 9 view .LVU2134
  86:../Common/IQMath/ti/_IQNexp.c ****         uiqNIntegerResult = iqNLookupTable[i16Integer];
 5578              		.loc 1 86 20 is_stmt 0 view .LVU2135
 5579 0020 03EB2030 		add	r0, r3, r0, asr #12
 5580              	.LVL815:
  87:../Common/IQMath/ti/_IQNexp.c ****         
 5581              		.loc 1 87 9 is_stmt 1 view .LVU2136
  87:../Common/IQMath/ti/_IQNexp.c ****         
 5582              		.loc 1 87 43 is_stmt 0 view .LVU2137
 5583 0024 294B     		ldr	r3, .L227+12
 5584              	.LVL816:
  87:../Common/IQMath/ti/_IQNexp.c ****         
 5585              		.loc 1 87 27 view .LVU2138
 5586 0026 53F82050 		ldr	r5, [r3, r0, lsl #2]
 5587              	.LVL817:
  90:../Common/IQMath/ti/_IQNexp.c ****             iq31Fractional -= iq31_ln2;
 5588              		.loc 1 90 9 is_stmt 1 view .LVU2139
  90:../Common/IQMath/ti/_IQNexp.c ****             iq31Fractional -= iq31_ln2;
 5589              		.loc 1 90 12 is_stmt 0 view .LVU2140
 5590 002a 294B     		ldr	r3, .L227+16
 5591 002c 9C45     		cmp	ip, r3
 5592 002e 06DD     		ble	.L220
  91:../Common/IQMath/ti/_IQNexp.c ****             uiqNIntegerResult <<= 1;
 5593              		.loc 1 91 13 is_stmt 1 view .LVU2141
  91:../Common/IQMath/ti/_IQNexp.c ****             uiqNIntegerResult <<= 1;
 5594              		.loc 1 91 28 is_stmt 0 view .LVU2142
 5595 0030 ACF1B14C 		sub	ip, ip, #1484783616
 5596              	.LVL818:
  91:../Common/IQMath/ti/_IQNexp.c ****             uiqNIntegerResult <<= 1;
 5597              		.loc 1 91 28 view .LVU2143
 5598 0034 ACF5641C 		sub	ip, ip, #3735552
ARM GAS  C:\Users\57308\AppData\Local\Temp\ccyuPR38.s 			page 143


 5599              	.LVL819:
  91:../Common/IQMath/ti/_IQNexp.c ****             uiqNIntegerResult <<= 1;
 5600              		.loc 1 91 28 view .LVU2144
 5601 0038 ACF6FC3C 		subw	ip, ip, #3068
 5602              	.LVL820:
  92:../Common/IQMath/ti/_IQNexp.c ****         }
 5603              		.loc 1 92 13 is_stmt 1 view .LVU2145
  92:../Common/IQMath/ti/_IQNexp.c ****         }
 5604              		.loc 1 92 31 is_stmt 0 view .LVU2146
 5605 003c 6D00     		lsls	r5, r5, #1
 5606              	.LVL821:
 5607              	.L220:
 102:../Common/IQMath/ti/_IQNexp.c ****     
 5608              		.loc 1 102 5 is_stmt 1 view .LVU2147
 102:../Common/IQMath/ti/_IQNexp.c ****     
 5609              		.loc 1 102 5 is_stmt 0 view .LVU2148
 5610              	.LBE341:
 5611              	.LBE340:
  28:../Common/IQMath/ti/./support/RTS_support.h **** }
 5612              		.loc 2 28 5 is_stmt 1 view .LVU2149
 5613              	.LBB349:
 5614              	.LBB346:
 109:../Common/IQMath/ti/_IQNexp.c ****     uiq30FractionalResult = *piq30Coeffs++;
 5615              		.loc 1 109 5 view .LVU2150
 110:../Common/IQMath/ti/_IQNexp.c ****     
 5616              		.loc 1 110 5 view .LVU2151
 110:../Common/IQMath/ti/_IQNexp.c ****     
 5617              		.loc 1 110 27 is_stmt 0 view .LVU2152
 5618 003e 2548     		ldr	r0, .L227+20
 5619              	.LVL822:
 110:../Common/IQMath/ti/_IQNexp.c ****     
 5620              		.loc 1 110 27 view .LVU2153
 5621 0040 50F8043B 		ldr	r3, [r0], #4
 5622              	.LVL823:
 113:../Common/IQMath/ti/_IQNexp.c ****         uiq30FractionalResult = __mpyf_l(iq31Fractional, uiq30FractionalResult);
 5623              		.loc 1 113 5 is_stmt 1 view .LVU2154
 113:../Common/IQMath/ti/_IQNexp.c ****         uiq30FractionalResult = __mpyf_l(iq31Fractional, uiq30FractionalResult);
 5624              		.loc 1 113 19 is_stmt 0 view .LVU2155
 5625 0044 0A24     		movs	r4, #10
 113:../Common/IQMath/ti/_IQNexp.c ****         uiq30FractionalResult = __mpyf_l(iq31Fractional, uiq30FractionalResult);
 5626              		.loc 1 113 5 view .LVU2156
 5627 0046 2AE0     		b	.L221
 5628              	.LVL824:
 5629              	.L226:
  48:../Common/IQMath/ti/_IQNexp.c ****             return 0;
 5630              		.loc 1 48 9 is_stmt 1 view .LVU2157
  48:../Common/IQMath/ti/_IQNexp.c ****             return 0;
 5631              		.loc 1 48 12 is_stmt 0 view .LVU2158
 5632 0048 8142     		cmp	r1, r0
 5633 004a 34DC     		bgt	.L223
  53:../Common/IQMath/ti/_IQNexp.c ****         iq31Fractional <<= (31 - q_value);
 5634              		.loc 1 53 9 is_stmt 1 view .LVU2159
 5635              	.LVL825:
  54:../Common/IQMath/ti/_IQNexp.c ****         iq31Fractional |= 0x80000000;
 5636              		.loc 1 54 9 view .LVU2160
  54:../Common/IQMath/ti/_IQNexp.c ****         iq31Fractional |= 0x80000000;
 5637              		.loc 1 54 24 is_stmt 0 view .LVU2161
ARM GAS  C:\Users\57308\AppData\Local\Temp\ccyuPR38.s 			page 144


 5638 004c 4FEAC04C 		lsl	ip, r0, #19
 5639              	.LVL826:
  55:../Common/IQMath/ti/_IQNexp.c ****     
 5640              		.loc 1 55 9 is_stmt 1 view .LVU2162
  55:../Common/IQMath/ti/_IQNexp.c ****     
 5641              		.loc 1 55 24 is_stmt 0 view .LVU2163
 5642 0050 4CF0004C 		orr	ip, ip, #-2147483648
 5643              	.LVL827:
  58:../Common/IQMath/ti/_IQNexp.c ****     
 5644              		.loc 1 58 9 is_stmt 1 view .LVU2164
  58:../Common/IQMath/ti/_IQNexp.c ****     
 5645              		.loc 1 58 46 is_stmt 0 view .LVU2165
 5646 0054 0013     		asrs	r0, r0, #12
 5647              	.LVL828:
  58:../Common/IQMath/ti/_IQNexp.c ****     
 5648              		.loc 1 58 20 view .LVU2166
 5649 0056 0130     		adds	r0, r0, #1
 5650              	.LVL829:
  61:../Common/IQMath/ti/_IQNexp.c ****         uiqNIntegerResult = iqNLookupTable[i16Integer];
 5651              		.loc 1 61 9 is_stmt 1 view .LVU2167
  61:../Common/IQMath/ti/_IQNexp.c ****         uiqNIntegerResult = iqNLookupTable[i16Integer];
 5652              		.loc 1 61 20 is_stmt 0 view .LVU2168
 5653 0058 1844     		add	r0, r0, r3
 5654              	.LVL830:
  62:../Common/IQMath/ti/_IQNexp.c ****         
 5655              		.loc 1 62 9 is_stmt 1 view .LVU2169
  62:../Common/IQMath/ti/_IQNexp.c ****         
 5656              		.loc 1 62 43 is_stmt 0 view .LVU2170
 5657 005a 1C4B     		ldr	r3, .L227+12
 5658              	.LVL831:
  62:../Common/IQMath/ti/_IQNexp.c ****         
 5659              		.loc 1 62 27 view .LVU2171
 5660 005c 53F82050 		ldr	r5, [r3, r0, lsl #2]
 5661              	.LVL832:
  65:../Common/IQMath/ti/_IQNexp.c ****             iq31Fractional += iq31_ln2;
 5662              		.loc 1 65 9 is_stmt 1 view .LVU2172
  65:../Common/IQMath/ti/_IQNexp.c ****             iq31Fractional += iq31_ln2;
 5663              		.loc 1 65 12 is_stmt 0 view .LVU2173
 5664 0060 1D4B     		ldr	r3, .L227+24
 5665 0062 9C45     		cmp	ip, r3
 5666 0064 EBDA     		bge	.L220
  66:../Common/IQMath/ti/_IQNexp.c ****             uiqNIntegerResult >>= 1;
 5667              		.loc 1 66 13 is_stmt 1 view .LVU2174
  66:../Common/IQMath/ti/_IQNexp.c ****             uiqNIntegerResult >>= 1;
 5668              		.loc 1 66 28 is_stmt 0 view .LVU2175
 5669 0066 0CF1B14C 		add	ip, ip, #1484783616
 5670              	.LVL833:
  66:../Common/IQMath/ti/_IQNexp.c ****             uiqNIntegerResult >>= 1;
 5671              		.loc 1 66 28 view .LVU2176
 5672 006a 0CF5641C 		add	ip, ip, #3735552
 5673              	.LVL834:
  66:../Common/IQMath/ti/_IQNexp.c ****             uiqNIntegerResult >>= 1;
 5674              		.loc 1 66 28 view .LVU2177
 5675 006e 0CF6FC3C 		addw	ip, ip, #3068
 5676              	.LVL835:
  67:../Common/IQMath/ti/_IQNexp.c ****         }
 5677              		.loc 1 67 13 is_stmt 1 view .LVU2178
ARM GAS  C:\Users\57308\AppData\Local\Temp\ccyuPR38.s 			page 145


  67:../Common/IQMath/ti/_IQNexp.c ****         }
 5678              		.loc 1 67 31 is_stmt 0 view .LVU2179
 5679 0072 6D08     		lsrs	r5, r5, #1
 5680              	.LVL836:
  67:../Common/IQMath/ti/_IQNexp.c ****         }
 5681              		.loc 1 67 31 view .LVU2180
 5682 0074 E3E7     		b	.L220
 5683              	.LVL837:
 5684              	.L222:
 114:../Common/IQMath/ti/_IQNexp.c ****         uiq30FractionalResult += *piq30Coeffs++;
 5685              		.loc 1 114 9 is_stmt 1 view .LVU2181
 5686              	.LBB342:
 5687              	.LBI342:
 233:../Common/IQMath/ti/./support/RTS_support.h **** {
 5688              		.loc 2 233 28 view .LVU2182
 5689              	.LBB343:
 235:../Common/IQMath/ti/./support/RTS_support.h **** }
 5690              		.loc 2 235 5 view .LVU2183
 235:../Common/IQMath/ti/./support/RTS_support.h **** }
 5691              		.loc 2 235 28 is_stmt 0 view .LVU2184
 5692 0076 4FEAEC72 		asr	r2, ip, #31
 235:../Common/IQMath/ti/./support/RTS_support.h **** }
 5693              		.loc 2 235 49 view .LVU2185
 5694 007a D917     		asrs	r1, r3, #31
 235:../Common/IQMath/ti/./support/RTS_support.h **** }
 5695              		.loc 2 235 47 view .LVU2186
 5696 007c 0CFB01F1 		mul	r1, ip, r1
 5697 0080 03FB0212 		mla	r2, r3, r2, r1
 5698 0084 ACFB0331 		umull	r3, r1, ip, r3
 5699              	.LVL838:
 235:../Common/IQMath/ti/./support/RTS_support.h **** }
 5700              		.loc 2 235 47 view .LVU2187
 5701 0088 0A44     		add	r2, r2, r1
 235:../Common/IQMath/ti/./support/RTS_support.h **** }
 5702              		.loc 2 235 69 view .LVU2188
 5703 008a DB0F     		lsrs	r3, r3, #31
 5704 008c 43EA4203 		orr	r3, r3, r2, lsl #1
 5705              	.LVL839:
 235:../Common/IQMath/ti/./support/RTS_support.h **** }
 5706              		.loc 2 235 69 view .LVU2189
 5707              	.LBE343:
 5708              	.LBE342:
 115:../Common/IQMath/ti/_IQNexp.c ****     }
 5709              		.loc 1 115 9 is_stmt 1 view .LVU2190
 115:../Common/IQMath/ti/_IQNexp.c ****     }
 5710              		.loc 1 115 46 is_stmt 0 view .LVU2191
 5711 0090 0246     		mov	r2, r0
 5712              	.LVL840:
 115:../Common/IQMath/ti/_IQNexp.c ****     }
 5713              		.loc 1 115 34 view .LVU2192
 5714 0092 52F8041B 		ldr	r1, [r2], #4
 5715              	.LVL841:
 115:../Common/IQMath/ti/_IQNexp.c ****     }
 5716              		.loc 1 115 31 view .LVU2193
 5717 0096 0B44     		add	r3, r3, r1
 5718              	.LVL842:
 113:../Common/IQMath/ti/_IQNexp.c ****         uiq30FractionalResult = __mpyf_l(iq31Fractional, uiq30FractionalResult);
ARM GAS  C:\Users\57308\AppData\Local\Temp\ccyuPR38.s 			page 146


 5719              		.loc 1 113 51 is_stmt 1 view .LVU2194
 113:../Common/IQMath/ti/_IQNexp.c ****         uiq30FractionalResult = __mpyf_l(iq31Fractional, uiq30FractionalResult);
 5720              		.loc 1 113 59 is_stmt 0 view .LVU2195
 5721 0098 013C     		subs	r4, r4, #1
 5722              	.LVL843:
 113:../Common/IQMath/ti/_IQNexp.c ****         uiq30FractionalResult = __mpyf_l(iq31Fractional, uiq30FractionalResult);
 5723              		.loc 1 113 59 view .LVU2196
 5724 009a E4B2     		uxtb	r4, r4
 5725              	.LVL844:
 115:../Common/IQMath/ti/_IQNexp.c ****     }
 5726              		.loc 1 115 46 view .LVU2197
 5727 009c 1046     		mov	r0, r2
 5728              	.LVL845:
 5729              	.L221:
 113:../Common/IQMath/ti/_IQNexp.c ****         uiq30FractionalResult = __mpyf_l(iq31Fractional, uiq30FractionalResult);
 5730              		.loc 1 113 37 is_stmt 1 view .LVU2198
 113:../Common/IQMath/ti/_IQNexp.c ****         uiq30FractionalResult = __mpyf_l(iq31Fractional, uiq30FractionalResult);
 5731              		.loc 1 113 5 is_stmt 0 view .LVU2199
 5732 009e 002C     		cmp	r4, #0
 5733 00a0 E9D1     		bne	.L222
 119:../Common/IQMath/ti/_IQNexp.c ****     
 5734              		.loc 1 119 5 is_stmt 1 view .LVU2200
 119:../Common/IQMath/ti/_IQNexp.c ****     
 5735              		.loc 1 119 27 is_stmt 0 view .LVU2201
 5736 00a2 5B00     		lsls	r3, r3, #1
 5737              	.LVL846:
 125:../Common/IQMath/ti/_IQNexp.c ****     
 5738              		.loc 1 125 5 is_stmt 1 view .LVU2202
 5739              	.LBB344:
 5740              	.LBI344:
 254:../Common/IQMath/ti/./support/RTS_support.h **** {
 5741              		.loc 2 254 29 view .LVU2203
 5742              	.LBB345:
 5743              		.loc 2 256 5 view .LVU2204
 5744              		.loc 2 256 49 is_stmt 0 view .LVU2205
 5745 00a4 A5FB0353 		umull	r5, r3, r5, r3
 5746              	.LVL847:
 5747              		.loc 2 256 72 view .LVU2206
 5748 00a8 ED0F     		lsrs	r5, r5, #31
 5749 00aa 45EA4305 		orr	r5, r5, r3, lsl #1
 5750              	.LVL848:
 5751              		.loc 2 256 72 view .LVU2207
 5752              	.LBE345:
 5753              	.LBE344:
 131:../Common/IQMath/ti/_IQNexp.c ****     
 5754              		.loc 1 131 5 is_stmt 1 view .LVU2208
 131:../Common/IQMath/ti/_IQNexp.c ****     
 5755              		.loc 1 131 5 is_stmt 0 view .LVU2209
 5756              	.LBE346:
 5757              	.LBE349:
  72:../Common/IQMath/ti/./support/RTS_support.h **** }
 5758              		.loc 2 72 5 is_stmt 1 view .LVU2210
 5759              	.LBB350:
 5760              	.LBB347:
 134:../Common/IQMath/ti/_IQNexp.c ****     uiqNResult >>= 1;
 5761              		.loc 1 134 5 view .LVU2211
 134:../Common/IQMath/ti/_IQNexp.c ****     uiqNResult >>= 1;
ARM GAS  C:\Users\57308\AppData\Local\Temp\ccyuPR38.s 			page 147


 5762              		.loc 1 134 15 is_stmt 0 view .LVU2212
 5763 00ae 0135     		adds	r5, r5, #1
 5764              	.LVL849:
 135:../Common/IQMath/ti/_IQNexp.c ****     
 5765              		.loc 1 135 5 is_stmt 1 view .LVU2213
 135:../Common/IQMath/ti/_IQNexp.c ****     
 5766              		.loc 1 135 16 is_stmt 0 view .LVU2214
 5767 00b0 6808     		lsrs	r0, r5, #1
 5768              	.LVL850:
 137:../Common/IQMath/ti/_IQNexp.c **** }
 5769              		.loc 1 137 5 is_stmt 1 view .LVU2215
 5770              	.L217:
 137:../Common/IQMath/ti/_IQNexp.c **** }
 5771              		.loc 1 137 5 is_stmt 0 view .LVU2216
 5772              	.LBE347:
 5773              	.LBE350:
 348:../Common/IQMath/ti/_IQNexp.c **** }
 5774              		.loc 1 348 1 view .LVU2217
 5775 00b2 30BC     		pop	{r4, r5}
 5776              	.LCFI55:
 5777              		.cfi_remember_state
 5778              		.cfi_restore 5
 5779              		.cfi_restore 4
 5780              		.cfi_def_cfa_offset 0
 5781 00b4 7047     		bx	lr
 5782              	.LVL851:
 5783              	.L223:
 5784              	.LCFI56:
 5785              		.cfi_restore_state
 5786              	.LBB351:
 5787              	.LBB348:
  49:../Common/IQMath/ti/_IQNexp.c ****         }
 5788              		.loc 1 49 20 view .LVU2218
 5789 00b6 0020     		movs	r0, #0
 5790              	.LVL852:
  49:../Common/IQMath/ti/_IQNexp.c ****         }
 5791              		.loc 1 49 20 view .LVU2219
 5792 00b8 FBE7     		b	.L217
 5793              	.LVL853:
 5794              	.L224:
  74:../Common/IQMath/ti/_IQNexp.c ****         }
 5795              		.loc 1 74 20 view .LVU2220
 5796 00ba 6FF00040 		mvn	r0, #-2147483648
 5797              	.LVL854:
  74:../Common/IQMath/ti/_IQNexp.c ****         }
 5798              		.loc 1 74 20 view .LVU2221
 5799              	.LBE348:
 5800              	.LBE351:
 347:../Common/IQMath/ti/_IQNexp.c **** }
 5801              		.loc 1 347 12 view .LVU2222
 5802 00be F8E7     		b	.L217
 5803              	.L228:
 5804              		.align	2
 5805              	.L227:
 5806 00c0 00000000 		.word	_IQNexp_offset
 5807 00c4 00000000 		.word	_IQNexp_min
 5808 00c8 00000000 		.word	_IQNexp_max
ARM GAS  C:\Users\57308\AppData\Local\Temp\ccyuPR38.s 			page 148


 5809 00cc 00000000 		.word	_IQNexp_lookup12
 5810 00d0 FB0BB958 		.word	1488522235
 5811 00d4 00000000 		.word	_IQ30exp_coeffs
 5812 00d8 05F446A7 		.word	-1488522235
 5813              		.cfi_endproc
 5814              	.LFE280:
 5816              		.section	.text._IQ11exp,"ax",%progbits
 5817              		.align	1
 5818              		.global	_IQ11exp
 5819              		.syntax unified
 5820              		.thumb
 5821              		.thumb_func
 5823              	_IQ11exp:
 5824              	.LVL855:
 5825              	.LFB281:
 349:../Common/IQMath/ti/_IQNexp.c **** /**
 350:../Common/IQMath/ti/_IQNexp.c ****  * @brief Computes the exponential of an IQ11 input.
 351:../Common/IQMath/ti/_IQNexp.c ****  *
 352:../Common/IQMath/ti/_IQNexp.c ****  * @param a               IQ11 type input.
 353:../Common/IQMath/ti/_IQNexp.c ****  *
 354:../Common/IQMath/ti/_IQNexp.c ****  * @return                IQ11 type result of exponential.
 355:../Common/IQMath/ti/_IQNexp.c ****  */
 356:../Common/IQMath/ti/_IQNexp.c **** int32_t _IQ11exp(int32_t a)
 357:../Common/IQMath/ti/_IQNexp.c **** {
 5826              		.loc 1 357 1 is_stmt 1 view -0
 5827              		.cfi_startproc
 5828              		@ args = 0, pretend = 0, frame = 0
 5829              		@ frame_needed = 0, uses_anonymous_args = 0
 5830              		@ link register save eliminated.
 5831              		.loc 1 357 1 is_stmt 0 view .LVU2224
 5832 0000 30B4     		push	{r4, r5}
 5833              	.LCFI57:
 5834              		.cfi_def_cfa_offset 8
 5835              		.cfi_offset 4, -8
 5836              		.cfi_offset 5, -4
 358:../Common/IQMath/ti/_IQNexp.c ****     return __IQNexp(a, _IQNexp_lookup11, _IQNexp_offset[11-1], _IQNexp_min[11-1], _IQNexp_max[11-1]
 5837              		.loc 1 358 5 is_stmt 1 view .LVU2225
 5838              		.loc 1 358 12 is_stmt 0 view .LVU2226
 5839 0002 2F4B     		ldr	r3, .L239
 5840 0004 93F82830 		ldrb	r3, [r3, #40]	@ zero_extendqisi2
 5841              		.loc 1 358 75 view .LVU2227
 5842 0008 2E4A     		ldr	r2, .L239+4
 5843 000a 916A     		ldr	r1, [r2, #40]
 5844              		.loc 1 358 94 view .LVU2228
 5845 000c 2E4A     		ldr	r2, .L239+8
 5846 000e 926A     		ldr	r2, [r2, #40]
 5847              	.LVL856:
 5848              	.LBB358:
 5849              	.LBI358:
  32:../Common/IQMath/ti/_IQNexp.c **** {
 5850              		.loc 1 32 30 is_stmt 1 view .LVU2229
 5851              	.LBB359:
  34:../Common/IQMath/ti/_IQNexp.c ****     int_fast16_t i16Integer;
 5852              		.loc 1 34 5 view .LVU2230
  35:../Common/IQMath/ti/_IQNexp.c ****     uint_fast16_t ui16IntState;
 5853              		.loc 1 35 5 view .LVU2231
  36:../Common/IQMath/ti/_IQNexp.c ****     uint_fast16_t ui16MPYState;
ARM GAS  C:\Users\57308\AppData\Local\Temp\ccyuPR38.s 			page 149


 5854              		.loc 1 36 5 view .LVU2232
  37:../Common/IQMath/ti/_IQNexp.c ****     int_fast32_t iq31Fractional;
 5855              		.loc 1 37 5 view .LVU2233
  38:../Common/IQMath/ti/_IQNexp.c ****     uint_fast32_t uiqNResult;
 5856              		.loc 1 38 5 view .LVU2234
  39:../Common/IQMath/ti/_IQNexp.c ****     uint_fast32_t uiqNIntegerResult;
 5857              		.loc 1 39 5 view .LVU2235
  40:../Common/IQMath/ti/_IQNexp.c ****     uint_fast32_t uiq30FractionalResult;
 5858              		.loc 1 40 5 view .LVU2236
  41:../Common/IQMath/ti/_IQNexp.c ****     uint_fast32_t uiq31FractionalResult;
 5859              		.loc 1 41 5 view .LVU2237
  42:../Common/IQMath/ti/_IQNexp.c ****     const uint_fast32_t *piq30Coeffs;
 5860              		.loc 1 42 5 view .LVU2238
  43:../Common/IQMath/ti/_IQNexp.c ****     
 5861              		.loc 1 43 5 view .LVU2239
  46:../Common/IQMath/ti/_IQNexp.c ****         /* Check for the minimum value. */
 5862              		.loc 1 46 5 view .LVU2240
  46:../Common/IQMath/ti/_IQNexp.c ****         /* Check for the minimum value. */
 5863              		.loc 1 46 8 is_stmt 0 view .LVU2241
 5864 0010 0028     		cmp	r0, #0
  46:../Common/IQMath/ti/_IQNexp.c ****         /* Check for the minimum value. */
 5865              		.loc 1 46 8 view .LVU2242
 5866 0012 19DB     		blt	.L238
  73:../Common/IQMath/ti/_IQNexp.c ****             return INT32_MAX;
 5867              		.loc 1 73 9 is_stmt 1 view .LVU2243
  73:../Common/IQMath/ti/_IQNexp.c ****             return INT32_MAX;
 5868              		.loc 1 73 12 is_stmt 0 view .LVU2244
 5869 0014 8242     		cmp	r2, r0
 5870 0016 50DB     		blt	.L236
  78:../Common/IQMath/ti/_IQNexp.c ****         iq31Fractional <<= (31 - q_value);
 5871              		.loc 1 78 9 is_stmt 1 view .LVU2245
 5872              	.LVL857:
  79:../Common/IQMath/ti/_IQNexp.c ****         iq31Fractional &= 0x7fffffff;
 5873              		.loc 1 79 9 view .LVU2246
  79:../Common/IQMath/ti/_IQNexp.c ****         iq31Fractional &= 0x7fffffff;
 5874              		.loc 1 79 24 is_stmt 0 view .LVU2247
 5875 0018 4FEA005C 		lsl	ip, r0, #20
 5876              	.LVL858:
  80:../Common/IQMath/ti/_IQNexp.c ****     
 5877              		.loc 1 80 9 is_stmt 1 view .LVU2248
  80:../Common/IQMath/ti/_IQNexp.c ****     
 5878              		.loc 1 80 24 is_stmt 0 view .LVU2249
 5879 001c 2CF0004C 		bic	ip, ip, #-2147483648
 5880              	.LVL859:
  83:../Common/IQMath/ti/_IQNexp.c ****     
 5881              		.loc 1 83 9 is_stmt 1 view .LVU2250
  86:../Common/IQMath/ti/_IQNexp.c ****         uiqNIntegerResult = iqNLookupTable[i16Integer];
 5882              		.loc 1 86 9 view .LVU2251
  86:../Common/IQMath/ti/_IQNexp.c ****         uiqNIntegerResult = iqNLookupTable[i16Integer];
 5883              		.loc 1 86 20 is_stmt 0 view .LVU2252
 5884 0020 03EBE020 		add	r0, r3, r0, asr #11
 5885              	.LVL860:
  87:../Common/IQMath/ti/_IQNexp.c ****         
 5886              		.loc 1 87 9 is_stmt 1 view .LVU2253
  87:../Common/IQMath/ti/_IQNexp.c ****         
 5887              		.loc 1 87 43 is_stmt 0 view .LVU2254
 5888 0024 294B     		ldr	r3, .L239+12
ARM GAS  C:\Users\57308\AppData\Local\Temp\ccyuPR38.s 			page 150


 5889              	.LVL861:
  87:../Common/IQMath/ti/_IQNexp.c ****         
 5890              		.loc 1 87 27 view .LVU2255
 5891 0026 53F82050 		ldr	r5, [r3, r0, lsl #2]
 5892              	.LVL862:
  90:../Common/IQMath/ti/_IQNexp.c ****             iq31Fractional -= iq31_ln2;
 5893              		.loc 1 90 9 is_stmt 1 view .LVU2256
  90:../Common/IQMath/ti/_IQNexp.c ****             iq31Fractional -= iq31_ln2;
 5894              		.loc 1 90 12 is_stmt 0 view .LVU2257
 5895 002a 294B     		ldr	r3, .L239+16
 5896 002c 9C45     		cmp	ip, r3
 5897 002e 06DD     		ble	.L232
  91:../Common/IQMath/ti/_IQNexp.c ****             uiqNIntegerResult <<= 1;
 5898              		.loc 1 91 13 is_stmt 1 view .LVU2258
  91:../Common/IQMath/ti/_IQNexp.c ****             uiqNIntegerResult <<= 1;
 5899              		.loc 1 91 28 is_stmt 0 view .LVU2259
 5900 0030 ACF1B14C 		sub	ip, ip, #1484783616
 5901              	.LVL863:
  91:../Common/IQMath/ti/_IQNexp.c ****             uiqNIntegerResult <<= 1;
 5902              		.loc 1 91 28 view .LVU2260
 5903 0034 ACF5641C 		sub	ip, ip, #3735552
 5904              	.LVL864:
  91:../Common/IQMath/ti/_IQNexp.c ****             uiqNIntegerResult <<= 1;
 5905              		.loc 1 91 28 view .LVU2261
 5906 0038 ACF6FC3C 		subw	ip, ip, #3068
 5907              	.LVL865:
  92:../Common/IQMath/ti/_IQNexp.c ****         }
 5908              		.loc 1 92 13 is_stmt 1 view .LVU2262
  92:../Common/IQMath/ti/_IQNexp.c ****         }
 5909              		.loc 1 92 31 is_stmt 0 view .LVU2263
 5910 003c 6D00     		lsls	r5, r5, #1
 5911              	.LVL866:
 5912              	.L232:
 102:../Common/IQMath/ti/_IQNexp.c ****     
 5913              		.loc 1 102 5 is_stmt 1 view .LVU2264
 102:../Common/IQMath/ti/_IQNexp.c ****     
 5914              		.loc 1 102 5 is_stmt 0 view .LVU2265
 5915              	.LBE359:
 5916              	.LBE358:
  28:../Common/IQMath/ti/./support/RTS_support.h **** }
 5917              		.loc 2 28 5 is_stmt 1 view .LVU2266
 5918              	.LBB367:
 5919              	.LBB364:
 109:../Common/IQMath/ti/_IQNexp.c ****     uiq30FractionalResult = *piq30Coeffs++;
 5920              		.loc 1 109 5 view .LVU2267
 110:../Common/IQMath/ti/_IQNexp.c ****     
 5921              		.loc 1 110 5 view .LVU2268
 110:../Common/IQMath/ti/_IQNexp.c ****     
 5922              		.loc 1 110 27 is_stmt 0 view .LVU2269
 5923 003e 2548     		ldr	r0, .L239+20
 5924              	.LVL867:
 110:../Common/IQMath/ti/_IQNexp.c ****     
 5925              		.loc 1 110 27 view .LVU2270
 5926 0040 50F8043B 		ldr	r3, [r0], #4
 5927              	.LVL868:
 113:../Common/IQMath/ti/_IQNexp.c ****         uiq30FractionalResult = __mpyf_l(iq31Fractional, uiq30FractionalResult);
 5928              		.loc 1 113 5 is_stmt 1 view .LVU2271
ARM GAS  C:\Users\57308\AppData\Local\Temp\ccyuPR38.s 			page 151


 113:../Common/IQMath/ti/_IQNexp.c ****         uiq30FractionalResult = __mpyf_l(iq31Fractional, uiq30FractionalResult);
 5929              		.loc 1 113 19 is_stmt 0 view .LVU2272
 5930 0044 0A24     		movs	r4, #10
 113:../Common/IQMath/ti/_IQNexp.c ****         uiq30FractionalResult = __mpyf_l(iq31Fractional, uiq30FractionalResult);
 5931              		.loc 1 113 5 view .LVU2273
 5932 0046 2AE0     		b	.L233
 5933              	.LVL869:
 5934              	.L238:
  48:../Common/IQMath/ti/_IQNexp.c ****             return 0;
 5935              		.loc 1 48 9 is_stmt 1 view .LVU2274
  48:../Common/IQMath/ti/_IQNexp.c ****             return 0;
 5936              		.loc 1 48 12 is_stmt 0 view .LVU2275
 5937 0048 8142     		cmp	r1, r0
 5938 004a 34DC     		bgt	.L235
  53:../Common/IQMath/ti/_IQNexp.c ****         iq31Fractional <<= (31 - q_value);
 5939              		.loc 1 53 9 is_stmt 1 view .LVU2276
 5940              	.LVL870:
  54:../Common/IQMath/ti/_IQNexp.c ****         iq31Fractional |= 0x80000000;
 5941              		.loc 1 54 9 view .LVU2277
  54:../Common/IQMath/ti/_IQNexp.c ****         iq31Fractional |= 0x80000000;
 5942              		.loc 1 54 24 is_stmt 0 view .LVU2278
 5943 004c 4FEA005C 		lsl	ip, r0, #20
 5944              	.LVL871:
  55:../Common/IQMath/ti/_IQNexp.c ****     
 5945              		.loc 1 55 9 is_stmt 1 view .LVU2279
  55:../Common/IQMath/ti/_IQNexp.c ****     
 5946              		.loc 1 55 24 is_stmt 0 view .LVU2280
 5947 0050 4CF0004C 		orr	ip, ip, #-2147483648
 5948              	.LVL872:
  58:../Common/IQMath/ti/_IQNexp.c ****     
 5949              		.loc 1 58 9 is_stmt 1 view .LVU2281
  58:../Common/IQMath/ti/_IQNexp.c ****     
 5950              		.loc 1 58 46 is_stmt 0 view .LVU2282
 5951 0054 C012     		asrs	r0, r0, #11
 5952              	.LVL873:
  58:../Common/IQMath/ti/_IQNexp.c ****     
 5953              		.loc 1 58 20 view .LVU2283
 5954 0056 0130     		adds	r0, r0, #1
 5955              	.LVL874:
  61:../Common/IQMath/ti/_IQNexp.c ****         uiqNIntegerResult = iqNLookupTable[i16Integer];
 5956              		.loc 1 61 9 is_stmt 1 view .LVU2284
  61:../Common/IQMath/ti/_IQNexp.c ****         uiqNIntegerResult = iqNLookupTable[i16Integer];
 5957              		.loc 1 61 20 is_stmt 0 view .LVU2285
 5958 0058 1844     		add	r0, r0, r3
 5959              	.LVL875:
  62:../Common/IQMath/ti/_IQNexp.c ****         
 5960              		.loc 1 62 9 is_stmt 1 view .LVU2286
  62:../Common/IQMath/ti/_IQNexp.c ****         
 5961              		.loc 1 62 43 is_stmt 0 view .LVU2287
 5962 005a 1C4B     		ldr	r3, .L239+12
 5963              	.LVL876:
  62:../Common/IQMath/ti/_IQNexp.c ****         
 5964              		.loc 1 62 27 view .LVU2288
 5965 005c 53F82050 		ldr	r5, [r3, r0, lsl #2]
 5966              	.LVL877:
  65:../Common/IQMath/ti/_IQNexp.c ****             iq31Fractional += iq31_ln2;
 5967              		.loc 1 65 9 is_stmt 1 view .LVU2289
ARM GAS  C:\Users\57308\AppData\Local\Temp\ccyuPR38.s 			page 152


  65:../Common/IQMath/ti/_IQNexp.c ****             iq31Fractional += iq31_ln2;
 5968              		.loc 1 65 12 is_stmt 0 view .LVU2290
 5969 0060 1D4B     		ldr	r3, .L239+24
 5970 0062 9C45     		cmp	ip, r3
 5971 0064 EBDA     		bge	.L232
  66:../Common/IQMath/ti/_IQNexp.c ****             uiqNIntegerResult >>= 1;
 5972              		.loc 1 66 13 is_stmt 1 view .LVU2291
  66:../Common/IQMath/ti/_IQNexp.c ****             uiqNIntegerResult >>= 1;
 5973              		.loc 1 66 28 is_stmt 0 view .LVU2292
 5974 0066 0CF1B14C 		add	ip, ip, #1484783616
 5975              	.LVL878:
  66:../Common/IQMath/ti/_IQNexp.c ****             uiqNIntegerResult >>= 1;
 5976              		.loc 1 66 28 view .LVU2293
 5977 006a 0CF5641C 		add	ip, ip, #3735552
 5978              	.LVL879:
  66:../Common/IQMath/ti/_IQNexp.c ****             uiqNIntegerResult >>= 1;
 5979              		.loc 1 66 28 view .LVU2294
 5980 006e 0CF6FC3C 		addw	ip, ip, #3068
 5981              	.LVL880:
  67:../Common/IQMath/ti/_IQNexp.c ****         }
 5982              		.loc 1 67 13 is_stmt 1 view .LVU2295
  67:../Common/IQMath/ti/_IQNexp.c ****         }
 5983              		.loc 1 67 31 is_stmt 0 view .LVU2296
 5984 0072 6D08     		lsrs	r5, r5, #1
 5985              	.LVL881:
  67:../Common/IQMath/ti/_IQNexp.c ****         }
 5986              		.loc 1 67 31 view .LVU2297
 5987 0074 E3E7     		b	.L232
 5988              	.LVL882:
 5989              	.L234:
 114:../Common/IQMath/ti/_IQNexp.c ****         uiq30FractionalResult += *piq30Coeffs++;
 5990              		.loc 1 114 9 is_stmt 1 view .LVU2298
 5991              	.LBB360:
 5992              	.LBI360:
 233:../Common/IQMath/ti/./support/RTS_support.h **** {
 5993              		.loc 2 233 28 view .LVU2299
 5994              	.LBB361:
 235:../Common/IQMath/ti/./support/RTS_support.h **** }
 5995              		.loc 2 235 5 view .LVU2300
 235:../Common/IQMath/ti/./support/RTS_support.h **** }
 5996              		.loc 2 235 28 is_stmt 0 view .LVU2301
 5997 0076 4FEAEC72 		asr	r2, ip, #31
 235:../Common/IQMath/ti/./support/RTS_support.h **** }
 5998              		.loc 2 235 49 view .LVU2302
 5999 007a D917     		asrs	r1, r3, #31
 235:../Common/IQMath/ti/./support/RTS_support.h **** }
 6000              		.loc 2 235 47 view .LVU2303
 6001 007c 0CFB01F1 		mul	r1, ip, r1
 6002 0080 03FB0212 		mla	r2, r3, r2, r1
 6003 0084 ACFB0331 		umull	r3, r1, ip, r3
 6004              	.LVL883:
 235:../Common/IQMath/ti/./support/RTS_support.h **** }
 6005              		.loc 2 235 47 view .LVU2304
 6006 0088 0A44     		add	r2, r2, r1
 235:../Common/IQMath/ti/./support/RTS_support.h **** }
 6007              		.loc 2 235 69 view .LVU2305
 6008 008a DB0F     		lsrs	r3, r3, #31
ARM GAS  C:\Users\57308\AppData\Local\Temp\ccyuPR38.s 			page 153


 6009 008c 43EA4203 		orr	r3, r3, r2, lsl #1
 6010              	.LVL884:
 235:../Common/IQMath/ti/./support/RTS_support.h **** }
 6011              		.loc 2 235 69 view .LVU2306
 6012              	.LBE361:
 6013              	.LBE360:
 115:../Common/IQMath/ti/_IQNexp.c ****     }
 6014              		.loc 1 115 9 is_stmt 1 view .LVU2307
 115:../Common/IQMath/ti/_IQNexp.c ****     }
 6015              		.loc 1 115 46 is_stmt 0 view .LVU2308
 6016 0090 0246     		mov	r2, r0
 6017              	.LVL885:
 115:../Common/IQMath/ti/_IQNexp.c ****     }
 6018              		.loc 1 115 34 view .LVU2309
 6019 0092 52F8041B 		ldr	r1, [r2], #4
 6020              	.LVL886:
 115:../Common/IQMath/ti/_IQNexp.c ****     }
 6021              		.loc 1 115 31 view .LVU2310
 6022 0096 0B44     		add	r3, r3, r1
 6023              	.LVL887:
 113:../Common/IQMath/ti/_IQNexp.c ****         uiq30FractionalResult = __mpyf_l(iq31Fractional, uiq30FractionalResult);
 6024              		.loc 1 113 51 is_stmt 1 view .LVU2311
 113:../Common/IQMath/ti/_IQNexp.c ****         uiq30FractionalResult = __mpyf_l(iq31Fractional, uiq30FractionalResult);
 6025              		.loc 1 113 59 is_stmt 0 view .LVU2312
 6026 0098 013C     		subs	r4, r4, #1
 6027              	.LVL888:
 113:../Common/IQMath/ti/_IQNexp.c ****         uiq30FractionalResult = __mpyf_l(iq31Fractional, uiq30FractionalResult);
 6028              		.loc 1 113 59 view .LVU2313
 6029 009a E4B2     		uxtb	r4, r4
 6030              	.LVL889:
 115:../Common/IQMath/ti/_IQNexp.c ****     }
 6031              		.loc 1 115 46 view .LVU2314
 6032 009c 1046     		mov	r0, r2
 6033              	.LVL890:
 6034              	.L233:
 113:../Common/IQMath/ti/_IQNexp.c ****         uiq30FractionalResult = __mpyf_l(iq31Fractional, uiq30FractionalResult);
 6035              		.loc 1 113 37 is_stmt 1 view .LVU2315
 113:../Common/IQMath/ti/_IQNexp.c ****         uiq30FractionalResult = __mpyf_l(iq31Fractional, uiq30FractionalResult);
 6036              		.loc 1 113 5 is_stmt 0 view .LVU2316
 6037 009e 002C     		cmp	r4, #0
 6038 00a0 E9D1     		bne	.L234
 119:../Common/IQMath/ti/_IQNexp.c ****     
 6039              		.loc 1 119 5 is_stmt 1 view .LVU2317
 119:../Common/IQMath/ti/_IQNexp.c ****     
 6040              		.loc 1 119 27 is_stmt 0 view .LVU2318
 6041 00a2 5B00     		lsls	r3, r3, #1
 6042              	.LVL891:
 125:../Common/IQMath/ti/_IQNexp.c ****     
 6043              		.loc 1 125 5 is_stmt 1 view .LVU2319
 6044              	.LBB362:
 6045              	.LBI362:
 254:../Common/IQMath/ti/./support/RTS_support.h **** {
 6046              		.loc 2 254 29 view .LVU2320
 6047              	.LBB363:
 6048              		.loc 2 256 5 view .LVU2321
 6049              		.loc 2 256 49 is_stmt 0 view .LVU2322
 6050 00a4 A5FB0353 		umull	r5, r3, r5, r3
ARM GAS  C:\Users\57308\AppData\Local\Temp\ccyuPR38.s 			page 154


 6051              	.LVL892:
 6052              		.loc 2 256 72 view .LVU2323
 6053 00a8 ED0F     		lsrs	r5, r5, #31
 6054 00aa 45EA4305 		orr	r5, r5, r3, lsl #1
 6055              	.LVL893:
 6056              		.loc 2 256 72 view .LVU2324
 6057              	.LBE363:
 6058              	.LBE362:
 131:../Common/IQMath/ti/_IQNexp.c ****     
 6059              		.loc 1 131 5 is_stmt 1 view .LVU2325
 131:../Common/IQMath/ti/_IQNexp.c ****     
 6060              		.loc 1 131 5 is_stmt 0 view .LVU2326
 6061              	.LBE364:
 6062              	.LBE367:
  72:../Common/IQMath/ti/./support/RTS_support.h **** }
 6063              		.loc 2 72 5 is_stmt 1 view .LVU2327
 6064              	.LBB368:
 6065              	.LBB365:
 134:../Common/IQMath/ti/_IQNexp.c ****     uiqNResult >>= 1;
 6066              		.loc 1 134 5 view .LVU2328
 134:../Common/IQMath/ti/_IQNexp.c ****     uiqNResult >>= 1;
 6067              		.loc 1 134 15 is_stmt 0 view .LVU2329
 6068 00ae 0135     		adds	r5, r5, #1
 6069              	.LVL894:
 135:../Common/IQMath/ti/_IQNexp.c ****     
 6070              		.loc 1 135 5 is_stmt 1 view .LVU2330
 135:../Common/IQMath/ti/_IQNexp.c ****     
 6071              		.loc 1 135 16 is_stmt 0 view .LVU2331
 6072 00b0 6808     		lsrs	r0, r5, #1
 6073              	.LVL895:
 137:../Common/IQMath/ti/_IQNexp.c **** }
 6074              		.loc 1 137 5 is_stmt 1 view .LVU2332
 6075              	.L229:
 137:../Common/IQMath/ti/_IQNexp.c **** }
 6076              		.loc 1 137 5 is_stmt 0 view .LVU2333
 6077              	.LBE365:
 6078              	.LBE368:
 359:../Common/IQMath/ti/_IQNexp.c **** }
 6079              		.loc 1 359 1 view .LVU2334
 6080 00b2 30BC     		pop	{r4, r5}
 6081              	.LCFI58:
 6082              		.cfi_remember_state
 6083              		.cfi_restore 5
 6084              		.cfi_restore 4
 6085              		.cfi_def_cfa_offset 0
 6086 00b4 7047     		bx	lr
 6087              	.LVL896:
 6088              	.L235:
 6089              	.LCFI59:
 6090              		.cfi_restore_state
 6091              	.LBB369:
 6092              	.LBB366:
  49:../Common/IQMath/ti/_IQNexp.c ****         }
 6093              		.loc 1 49 20 view .LVU2335
 6094 00b6 0020     		movs	r0, #0
 6095              	.LVL897:
  49:../Common/IQMath/ti/_IQNexp.c ****         }
ARM GAS  C:\Users\57308\AppData\Local\Temp\ccyuPR38.s 			page 155


 6096              		.loc 1 49 20 view .LVU2336
 6097 00b8 FBE7     		b	.L229
 6098              	.LVL898:
 6099              	.L236:
  74:../Common/IQMath/ti/_IQNexp.c ****         }
 6100              		.loc 1 74 20 view .LVU2337
 6101 00ba 6FF00040 		mvn	r0, #-2147483648
 6102              	.LVL899:
  74:../Common/IQMath/ti/_IQNexp.c ****         }
 6103              		.loc 1 74 20 view .LVU2338
 6104              	.LBE366:
 6105              	.LBE369:
 358:../Common/IQMath/ti/_IQNexp.c **** }
 6106              		.loc 1 358 12 view .LVU2339
 6107 00be F8E7     		b	.L229
 6108              	.L240:
 6109              		.align	2
 6110              	.L239:
 6111 00c0 00000000 		.word	_IQNexp_offset
 6112 00c4 00000000 		.word	_IQNexp_min
 6113 00c8 00000000 		.word	_IQNexp_max
 6114 00cc 00000000 		.word	_IQNexp_lookup11
 6115 00d0 FB0BB958 		.word	1488522235
 6116 00d4 00000000 		.word	_IQ30exp_coeffs
 6117 00d8 05F446A7 		.word	-1488522235
 6118              		.cfi_endproc
 6119              	.LFE281:
 6121              		.section	.text._IQ10exp,"ax",%progbits
 6122              		.align	1
 6123              		.global	_IQ10exp
 6124              		.syntax unified
 6125              		.thumb
 6126              		.thumb_func
 6128              	_IQ10exp:
 6129              	.LVL900:
 6130              	.LFB282:
 360:../Common/IQMath/ti/_IQNexp.c **** /**
 361:../Common/IQMath/ti/_IQNexp.c ****  * @brief Computes the exponential of an IQ10 input.
 362:../Common/IQMath/ti/_IQNexp.c ****  *
 363:../Common/IQMath/ti/_IQNexp.c ****  * @param a               IQ10 type input.
 364:../Common/IQMath/ti/_IQNexp.c ****  *
 365:../Common/IQMath/ti/_IQNexp.c ****  * @return                IQ10 type result of exponential.
 366:../Common/IQMath/ti/_IQNexp.c ****  */
 367:../Common/IQMath/ti/_IQNexp.c **** int32_t _IQ10exp(int32_t a)
 368:../Common/IQMath/ti/_IQNexp.c **** {
 6131              		.loc 1 368 1 is_stmt 1 view -0
 6132              		.cfi_startproc
 6133              		@ args = 0, pretend = 0, frame = 0
 6134              		@ frame_needed = 0, uses_anonymous_args = 0
 6135              		@ link register save eliminated.
 6136              		.loc 1 368 1 is_stmt 0 view .LVU2341
 6137 0000 30B4     		push	{r4, r5}
 6138              	.LCFI60:
 6139              		.cfi_def_cfa_offset 8
 6140              		.cfi_offset 4, -8
 6141              		.cfi_offset 5, -4
 369:../Common/IQMath/ti/_IQNexp.c ****     return __IQNexp(a, _IQNexp_lookup10, _IQNexp_offset[10-1], _IQNexp_min[10-1], _IQNexp_max[10-1]
ARM GAS  C:\Users\57308\AppData\Local\Temp\ccyuPR38.s 			page 156


 6142              		.loc 1 369 5 is_stmt 1 view .LVU2342
 6143              		.loc 1 369 12 is_stmt 0 view .LVU2343
 6144 0002 2F4B     		ldr	r3, .L251
 6145 0004 93F82430 		ldrb	r3, [r3, #36]	@ zero_extendqisi2
 6146              		.loc 1 369 75 view .LVU2344
 6147 0008 2E4A     		ldr	r2, .L251+4
 6148 000a 516A     		ldr	r1, [r2, #36]
 6149              		.loc 1 369 94 view .LVU2345
 6150 000c 2E4A     		ldr	r2, .L251+8
 6151 000e 526A     		ldr	r2, [r2, #36]
 6152              	.LVL901:
 6153              	.LBB376:
 6154              	.LBI376:
  32:../Common/IQMath/ti/_IQNexp.c **** {
 6155              		.loc 1 32 30 is_stmt 1 view .LVU2346
 6156              	.LBB377:
  34:../Common/IQMath/ti/_IQNexp.c ****     int_fast16_t i16Integer;
 6157              		.loc 1 34 5 view .LVU2347
  35:../Common/IQMath/ti/_IQNexp.c ****     uint_fast16_t ui16IntState;
 6158              		.loc 1 35 5 view .LVU2348
  36:../Common/IQMath/ti/_IQNexp.c ****     uint_fast16_t ui16MPYState;
 6159              		.loc 1 36 5 view .LVU2349
  37:../Common/IQMath/ti/_IQNexp.c ****     int_fast32_t iq31Fractional;
 6160              		.loc 1 37 5 view .LVU2350
  38:../Common/IQMath/ti/_IQNexp.c ****     uint_fast32_t uiqNResult;
 6161              		.loc 1 38 5 view .LVU2351
  39:../Common/IQMath/ti/_IQNexp.c ****     uint_fast32_t uiqNIntegerResult;
 6162              		.loc 1 39 5 view .LVU2352
  40:../Common/IQMath/ti/_IQNexp.c ****     uint_fast32_t uiq30FractionalResult;
 6163              		.loc 1 40 5 view .LVU2353
  41:../Common/IQMath/ti/_IQNexp.c ****     uint_fast32_t uiq31FractionalResult;
 6164              		.loc 1 41 5 view .LVU2354
  42:../Common/IQMath/ti/_IQNexp.c ****     const uint_fast32_t *piq30Coeffs;
 6165              		.loc 1 42 5 view .LVU2355
  43:../Common/IQMath/ti/_IQNexp.c ****     
 6166              		.loc 1 43 5 view .LVU2356
  46:../Common/IQMath/ti/_IQNexp.c ****         /* Check for the minimum value. */
 6167              		.loc 1 46 5 view .LVU2357
  46:../Common/IQMath/ti/_IQNexp.c ****         /* Check for the minimum value. */
 6168              		.loc 1 46 8 is_stmt 0 view .LVU2358
 6169 0010 0028     		cmp	r0, #0
  46:../Common/IQMath/ti/_IQNexp.c ****         /* Check for the minimum value. */
 6170              		.loc 1 46 8 view .LVU2359
 6171 0012 19DB     		blt	.L250
  73:../Common/IQMath/ti/_IQNexp.c ****             return INT32_MAX;
 6172              		.loc 1 73 9 is_stmt 1 view .LVU2360
  73:../Common/IQMath/ti/_IQNexp.c ****             return INT32_MAX;
 6173              		.loc 1 73 12 is_stmt 0 view .LVU2361
 6174 0014 8242     		cmp	r2, r0
 6175 0016 50DB     		blt	.L248
  78:../Common/IQMath/ti/_IQNexp.c ****         iq31Fractional <<= (31 - q_value);
 6176              		.loc 1 78 9 is_stmt 1 view .LVU2362
 6177              	.LVL902:
  79:../Common/IQMath/ti/_IQNexp.c ****         iq31Fractional &= 0x7fffffff;
 6178              		.loc 1 79 9 view .LVU2363
  79:../Common/IQMath/ti/_IQNexp.c ****         iq31Fractional &= 0x7fffffff;
 6179              		.loc 1 79 24 is_stmt 0 view .LVU2364
ARM GAS  C:\Users\57308\AppData\Local\Temp\ccyuPR38.s 			page 157


 6180 0018 4FEA405C 		lsl	ip, r0, #21
 6181              	.LVL903:
  80:../Common/IQMath/ti/_IQNexp.c ****     
 6182              		.loc 1 80 9 is_stmt 1 view .LVU2365
  80:../Common/IQMath/ti/_IQNexp.c ****     
 6183              		.loc 1 80 24 is_stmt 0 view .LVU2366
 6184 001c 2CF0004C 		bic	ip, ip, #-2147483648
 6185              	.LVL904:
  83:../Common/IQMath/ti/_IQNexp.c ****     
 6186              		.loc 1 83 9 is_stmt 1 view .LVU2367
  86:../Common/IQMath/ti/_IQNexp.c ****         uiqNIntegerResult = iqNLookupTable[i16Integer];
 6187              		.loc 1 86 9 view .LVU2368
  86:../Common/IQMath/ti/_IQNexp.c ****         uiqNIntegerResult = iqNLookupTable[i16Integer];
 6188              		.loc 1 86 20 is_stmt 0 view .LVU2369
 6189 0020 03EBA020 		add	r0, r3, r0, asr #10
 6190              	.LVL905:
  87:../Common/IQMath/ti/_IQNexp.c ****         
 6191              		.loc 1 87 9 is_stmt 1 view .LVU2370
  87:../Common/IQMath/ti/_IQNexp.c ****         
 6192              		.loc 1 87 43 is_stmt 0 view .LVU2371
 6193 0024 294B     		ldr	r3, .L251+12
 6194              	.LVL906:
  87:../Common/IQMath/ti/_IQNexp.c ****         
 6195              		.loc 1 87 27 view .LVU2372
 6196 0026 53F82050 		ldr	r5, [r3, r0, lsl #2]
 6197              	.LVL907:
  90:../Common/IQMath/ti/_IQNexp.c ****             iq31Fractional -= iq31_ln2;
 6198              		.loc 1 90 9 is_stmt 1 view .LVU2373
  90:../Common/IQMath/ti/_IQNexp.c ****             iq31Fractional -= iq31_ln2;
 6199              		.loc 1 90 12 is_stmt 0 view .LVU2374
 6200 002a 294B     		ldr	r3, .L251+16
 6201 002c 9C45     		cmp	ip, r3
 6202 002e 06DD     		ble	.L244
  91:../Common/IQMath/ti/_IQNexp.c ****             uiqNIntegerResult <<= 1;
 6203              		.loc 1 91 13 is_stmt 1 view .LVU2375
  91:../Common/IQMath/ti/_IQNexp.c ****             uiqNIntegerResult <<= 1;
 6204              		.loc 1 91 28 is_stmt 0 view .LVU2376
 6205 0030 ACF1B14C 		sub	ip, ip, #1484783616
 6206              	.LVL908:
  91:../Common/IQMath/ti/_IQNexp.c ****             uiqNIntegerResult <<= 1;
 6207              		.loc 1 91 28 view .LVU2377
 6208 0034 ACF5641C 		sub	ip, ip, #3735552
 6209              	.LVL909:
  91:../Common/IQMath/ti/_IQNexp.c ****             uiqNIntegerResult <<= 1;
 6210              		.loc 1 91 28 view .LVU2378
 6211 0038 ACF6FC3C 		subw	ip, ip, #3068
 6212              	.LVL910:
  92:../Common/IQMath/ti/_IQNexp.c ****         }
 6213              		.loc 1 92 13 is_stmt 1 view .LVU2379
  92:../Common/IQMath/ti/_IQNexp.c ****         }
 6214              		.loc 1 92 31 is_stmt 0 view .LVU2380
 6215 003c 6D00     		lsls	r5, r5, #1
 6216              	.LVL911:
 6217              	.L244:
 102:../Common/IQMath/ti/_IQNexp.c ****     
 6218              		.loc 1 102 5 is_stmt 1 view .LVU2381
 102:../Common/IQMath/ti/_IQNexp.c ****     
ARM GAS  C:\Users\57308\AppData\Local\Temp\ccyuPR38.s 			page 158


 6219              		.loc 1 102 5 is_stmt 0 view .LVU2382
 6220              	.LBE377:
 6221              	.LBE376:
  28:../Common/IQMath/ti/./support/RTS_support.h **** }
 6222              		.loc 2 28 5 is_stmt 1 view .LVU2383
 6223              	.LBB385:
 6224              	.LBB382:
 109:../Common/IQMath/ti/_IQNexp.c ****     uiq30FractionalResult = *piq30Coeffs++;
 6225              		.loc 1 109 5 view .LVU2384
 110:../Common/IQMath/ti/_IQNexp.c ****     
 6226              		.loc 1 110 5 view .LVU2385
 110:../Common/IQMath/ti/_IQNexp.c ****     
 6227              		.loc 1 110 27 is_stmt 0 view .LVU2386
 6228 003e 2548     		ldr	r0, .L251+20
 6229              	.LVL912:
 110:../Common/IQMath/ti/_IQNexp.c ****     
 6230              		.loc 1 110 27 view .LVU2387
 6231 0040 50F8043B 		ldr	r3, [r0], #4
 6232              	.LVL913:
 113:../Common/IQMath/ti/_IQNexp.c ****         uiq30FractionalResult = __mpyf_l(iq31Fractional, uiq30FractionalResult);
 6233              		.loc 1 113 5 is_stmt 1 view .LVU2388
 113:../Common/IQMath/ti/_IQNexp.c ****         uiq30FractionalResult = __mpyf_l(iq31Fractional, uiq30FractionalResult);
 6234              		.loc 1 113 19 is_stmt 0 view .LVU2389
 6235 0044 0A24     		movs	r4, #10
 113:../Common/IQMath/ti/_IQNexp.c ****         uiq30FractionalResult = __mpyf_l(iq31Fractional, uiq30FractionalResult);
 6236              		.loc 1 113 5 view .LVU2390
 6237 0046 2AE0     		b	.L245
 6238              	.LVL914:
 6239              	.L250:
  48:../Common/IQMath/ti/_IQNexp.c ****             return 0;
 6240              		.loc 1 48 9 is_stmt 1 view .LVU2391
  48:../Common/IQMath/ti/_IQNexp.c ****             return 0;
 6241              		.loc 1 48 12 is_stmt 0 view .LVU2392
 6242 0048 8142     		cmp	r1, r0
 6243 004a 34DC     		bgt	.L247
  53:../Common/IQMath/ti/_IQNexp.c ****         iq31Fractional <<= (31 - q_value);
 6244              		.loc 1 53 9 is_stmt 1 view .LVU2393
 6245              	.LVL915:
  54:../Common/IQMath/ti/_IQNexp.c ****         iq31Fractional |= 0x80000000;
 6246              		.loc 1 54 9 view .LVU2394
  54:../Common/IQMath/ti/_IQNexp.c ****         iq31Fractional |= 0x80000000;
 6247              		.loc 1 54 24 is_stmt 0 view .LVU2395
 6248 004c 4FEA405C 		lsl	ip, r0, #21
 6249              	.LVL916:
  55:../Common/IQMath/ti/_IQNexp.c ****     
 6250              		.loc 1 55 9 is_stmt 1 view .LVU2396
  55:../Common/IQMath/ti/_IQNexp.c ****     
 6251              		.loc 1 55 24 is_stmt 0 view .LVU2397
 6252 0050 4CF0004C 		orr	ip, ip, #-2147483648
 6253              	.LVL917:
  58:../Common/IQMath/ti/_IQNexp.c ****     
 6254              		.loc 1 58 9 is_stmt 1 view .LVU2398
  58:../Common/IQMath/ti/_IQNexp.c ****     
 6255              		.loc 1 58 46 is_stmt 0 view .LVU2399
 6256 0054 8012     		asrs	r0, r0, #10
 6257              	.LVL918:
  58:../Common/IQMath/ti/_IQNexp.c ****     
ARM GAS  C:\Users\57308\AppData\Local\Temp\ccyuPR38.s 			page 159


 6258              		.loc 1 58 20 view .LVU2400
 6259 0056 0130     		adds	r0, r0, #1
 6260              	.LVL919:
  61:../Common/IQMath/ti/_IQNexp.c ****         uiqNIntegerResult = iqNLookupTable[i16Integer];
 6261              		.loc 1 61 9 is_stmt 1 view .LVU2401
  61:../Common/IQMath/ti/_IQNexp.c ****         uiqNIntegerResult = iqNLookupTable[i16Integer];
 6262              		.loc 1 61 20 is_stmt 0 view .LVU2402
 6263 0058 1844     		add	r0, r0, r3
 6264              	.LVL920:
  62:../Common/IQMath/ti/_IQNexp.c ****         
 6265              		.loc 1 62 9 is_stmt 1 view .LVU2403
  62:../Common/IQMath/ti/_IQNexp.c ****         
 6266              		.loc 1 62 43 is_stmt 0 view .LVU2404
 6267 005a 1C4B     		ldr	r3, .L251+12
 6268              	.LVL921:
  62:../Common/IQMath/ti/_IQNexp.c ****         
 6269              		.loc 1 62 27 view .LVU2405
 6270 005c 53F82050 		ldr	r5, [r3, r0, lsl #2]
 6271              	.LVL922:
  65:../Common/IQMath/ti/_IQNexp.c ****             iq31Fractional += iq31_ln2;
 6272              		.loc 1 65 9 is_stmt 1 view .LVU2406
  65:../Common/IQMath/ti/_IQNexp.c ****             iq31Fractional += iq31_ln2;
 6273              		.loc 1 65 12 is_stmt 0 view .LVU2407
 6274 0060 1D4B     		ldr	r3, .L251+24
 6275 0062 9C45     		cmp	ip, r3
 6276 0064 EBDA     		bge	.L244
  66:../Common/IQMath/ti/_IQNexp.c ****             uiqNIntegerResult >>= 1;
 6277              		.loc 1 66 13 is_stmt 1 view .LVU2408
  66:../Common/IQMath/ti/_IQNexp.c ****             uiqNIntegerResult >>= 1;
 6278              		.loc 1 66 28 is_stmt 0 view .LVU2409
 6279 0066 0CF1B14C 		add	ip, ip, #1484783616
 6280              	.LVL923:
  66:../Common/IQMath/ti/_IQNexp.c ****             uiqNIntegerResult >>= 1;
 6281              		.loc 1 66 28 view .LVU2410
 6282 006a 0CF5641C 		add	ip, ip, #3735552
 6283              	.LVL924:
  66:../Common/IQMath/ti/_IQNexp.c ****             uiqNIntegerResult >>= 1;
 6284              		.loc 1 66 28 view .LVU2411
 6285 006e 0CF6FC3C 		addw	ip, ip, #3068
 6286              	.LVL925:
  67:../Common/IQMath/ti/_IQNexp.c ****         }
 6287              		.loc 1 67 13 is_stmt 1 view .LVU2412
  67:../Common/IQMath/ti/_IQNexp.c ****         }
 6288              		.loc 1 67 31 is_stmt 0 view .LVU2413
 6289 0072 6D08     		lsrs	r5, r5, #1
 6290              	.LVL926:
  67:../Common/IQMath/ti/_IQNexp.c ****         }
 6291              		.loc 1 67 31 view .LVU2414
 6292 0074 E3E7     		b	.L244
 6293              	.LVL927:
 6294              	.L246:
 114:../Common/IQMath/ti/_IQNexp.c ****         uiq30FractionalResult += *piq30Coeffs++;
 6295              		.loc 1 114 9 is_stmt 1 view .LVU2415
 6296              	.LBB378:
 6297              	.LBI378:
 233:../Common/IQMath/ti/./support/RTS_support.h **** {
 6298              		.loc 2 233 28 view .LVU2416
ARM GAS  C:\Users\57308\AppData\Local\Temp\ccyuPR38.s 			page 160


 6299              	.LBB379:
 235:../Common/IQMath/ti/./support/RTS_support.h **** }
 6300              		.loc 2 235 5 view .LVU2417
 235:../Common/IQMath/ti/./support/RTS_support.h **** }
 6301              		.loc 2 235 28 is_stmt 0 view .LVU2418
 6302 0076 4FEAEC72 		asr	r2, ip, #31
 235:../Common/IQMath/ti/./support/RTS_support.h **** }
 6303              		.loc 2 235 49 view .LVU2419
 6304 007a D917     		asrs	r1, r3, #31
 235:../Common/IQMath/ti/./support/RTS_support.h **** }
 6305              		.loc 2 235 47 view .LVU2420
 6306 007c 0CFB01F1 		mul	r1, ip, r1
 6307 0080 03FB0212 		mla	r2, r3, r2, r1
 6308 0084 ACFB0331 		umull	r3, r1, ip, r3
 6309              	.LVL928:
 235:../Common/IQMath/ti/./support/RTS_support.h **** }
 6310              		.loc 2 235 47 view .LVU2421
 6311 0088 0A44     		add	r2, r2, r1
 235:../Common/IQMath/ti/./support/RTS_support.h **** }
 6312              		.loc 2 235 69 view .LVU2422
 6313 008a DB0F     		lsrs	r3, r3, #31
 6314 008c 43EA4203 		orr	r3, r3, r2, lsl #1
 6315              	.LVL929:
 235:../Common/IQMath/ti/./support/RTS_support.h **** }
 6316              		.loc 2 235 69 view .LVU2423
 6317              	.LBE379:
 6318              	.LBE378:
 115:../Common/IQMath/ti/_IQNexp.c ****     }
 6319              		.loc 1 115 9 is_stmt 1 view .LVU2424
 115:../Common/IQMath/ti/_IQNexp.c ****     }
 6320              		.loc 1 115 46 is_stmt 0 view .LVU2425
 6321 0090 0246     		mov	r2, r0
 6322              	.LVL930:
 115:../Common/IQMath/ti/_IQNexp.c ****     }
 6323              		.loc 1 115 34 view .LVU2426
 6324 0092 52F8041B 		ldr	r1, [r2], #4
 6325              	.LVL931:
 115:../Common/IQMath/ti/_IQNexp.c ****     }
 6326              		.loc 1 115 31 view .LVU2427
 6327 0096 0B44     		add	r3, r3, r1
 6328              	.LVL932:
 113:../Common/IQMath/ti/_IQNexp.c ****         uiq30FractionalResult = __mpyf_l(iq31Fractional, uiq30FractionalResult);
 6329              		.loc 1 113 51 is_stmt 1 view .LVU2428
 113:../Common/IQMath/ti/_IQNexp.c ****         uiq30FractionalResult = __mpyf_l(iq31Fractional, uiq30FractionalResult);
 6330              		.loc 1 113 59 is_stmt 0 view .LVU2429
 6331 0098 013C     		subs	r4, r4, #1
 6332              	.LVL933:
 113:../Common/IQMath/ti/_IQNexp.c ****         uiq30FractionalResult = __mpyf_l(iq31Fractional, uiq30FractionalResult);
 6333              		.loc 1 113 59 view .LVU2430
 6334 009a E4B2     		uxtb	r4, r4
 6335              	.LVL934:
 115:../Common/IQMath/ti/_IQNexp.c ****     }
 6336              		.loc 1 115 46 view .LVU2431
 6337 009c 1046     		mov	r0, r2
 6338              	.LVL935:
 6339              	.L245:
 113:../Common/IQMath/ti/_IQNexp.c ****         uiq30FractionalResult = __mpyf_l(iq31Fractional, uiq30FractionalResult);
ARM GAS  C:\Users\57308\AppData\Local\Temp\ccyuPR38.s 			page 161


 6340              		.loc 1 113 37 is_stmt 1 view .LVU2432
 113:../Common/IQMath/ti/_IQNexp.c ****         uiq30FractionalResult = __mpyf_l(iq31Fractional, uiq30FractionalResult);
 6341              		.loc 1 113 5 is_stmt 0 view .LVU2433
 6342 009e 002C     		cmp	r4, #0
 6343 00a0 E9D1     		bne	.L246
 119:../Common/IQMath/ti/_IQNexp.c ****     
 6344              		.loc 1 119 5 is_stmt 1 view .LVU2434
 119:../Common/IQMath/ti/_IQNexp.c ****     
 6345              		.loc 1 119 27 is_stmt 0 view .LVU2435
 6346 00a2 5B00     		lsls	r3, r3, #1
 6347              	.LVL936:
 125:../Common/IQMath/ti/_IQNexp.c ****     
 6348              		.loc 1 125 5 is_stmt 1 view .LVU2436
 6349              	.LBB380:
 6350              	.LBI380:
 254:../Common/IQMath/ti/./support/RTS_support.h **** {
 6351              		.loc 2 254 29 view .LVU2437
 6352              	.LBB381:
 6353              		.loc 2 256 5 view .LVU2438
 6354              		.loc 2 256 49 is_stmt 0 view .LVU2439
 6355 00a4 A5FB0353 		umull	r5, r3, r5, r3
 6356              	.LVL937:
 6357              		.loc 2 256 72 view .LVU2440
 6358 00a8 ED0F     		lsrs	r5, r5, #31
 6359 00aa 45EA4305 		orr	r5, r5, r3, lsl #1
 6360              	.LVL938:
 6361              		.loc 2 256 72 view .LVU2441
 6362              	.LBE381:
 6363              	.LBE380:
 131:../Common/IQMath/ti/_IQNexp.c ****     
 6364              		.loc 1 131 5 is_stmt 1 view .LVU2442
 131:../Common/IQMath/ti/_IQNexp.c ****     
 6365              		.loc 1 131 5 is_stmt 0 view .LVU2443
 6366              	.LBE382:
 6367              	.LBE385:
  72:../Common/IQMath/ti/./support/RTS_support.h **** }
 6368              		.loc 2 72 5 is_stmt 1 view .LVU2444
 6369              	.LBB386:
 6370              	.LBB383:
 134:../Common/IQMath/ti/_IQNexp.c ****     uiqNResult >>= 1;
 6371              		.loc 1 134 5 view .LVU2445
 134:../Common/IQMath/ti/_IQNexp.c ****     uiqNResult >>= 1;
 6372              		.loc 1 134 15 is_stmt 0 view .LVU2446
 6373 00ae 0135     		adds	r5, r5, #1
 6374              	.LVL939:
 135:../Common/IQMath/ti/_IQNexp.c ****     
 6375              		.loc 1 135 5 is_stmt 1 view .LVU2447
 135:../Common/IQMath/ti/_IQNexp.c ****     
 6376              		.loc 1 135 16 is_stmt 0 view .LVU2448
 6377 00b0 6808     		lsrs	r0, r5, #1
 6378              	.LVL940:
 137:../Common/IQMath/ti/_IQNexp.c **** }
 6379              		.loc 1 137 5 is_stmt 1 view .LVU2449
 6380              	.L241:
 137:../Common/IQMath/ti/_IQNexp.c **** }
 6381              		.loc 1 137 5 is_stmt 0 view .LVU2450
 6382              	.LBE383:
ARM GAS  C:\Users\57308\AppData\Local\Temp\ccyuPR38.s 			page 162


 6383              	.LBE386:
 370:../Common/IQMath/ti/_IQNexp.c **** }
 6384              		.loc 1 370 1 view .LVU2451
 6385 00b2 30BC     		pop	{r4, r5}
 6386              	.LCFI61:
 6387              		.cfi_remember_state
 6388              		.cfi_restore 5
 6389              		.cfi_restore 4
 6390              		.cfi_def_cfa_offset 0
 6391 00b4 7047     		bx	lr
 6392              	.LVL941:
 6393              	.L247:
 6394              	.LCFI62:
 6395              		.cfi_restore_state
 6396              	.LBB387:
 6397              	.LBB384:
  49:../Common/IQMath/ti/_IQNexp.c ****         }
 6398              		.loc 1 49 20 view .LVU2452
 6399 00b6 0020     		movs	r0, #0
 6400              	.LVL942:
  49:../Common/IQMath/ti/_IQNexp.c ****         }
 6401              		.loc 1 49 20 view .LVU2453
 6402 00b8 FBE7     		b	.L241
 6403              	.LVL943:
 6404              	.L248:
  74:../Common/IQMath/ti/_IQNexp.c ****         }
 6405              		.loc 1 74 20 view .LVU2454
 6406 00ba 6FF00040 		mvn	r0, #-2147483648
 6407              	.LVL944:
  74:../Common/IQMath/ti/_IQNexp.c ****         }
 6408              		.loc 1 74 20 view .LVU2455
 6409              	.LBE384:
 6410              	.LBE387:
 369:../Common/IQMath/ti/_IQNexp.c **** }
 6411              		.loc 1 369 12 view .LVU2456
 6412 00be F8E7     		b	.L241
 6413              	.L252:
 6414              		.align	2
 6415              	.L251:
 6416 00c0 00000000 		.word	_IQNexp_offset
 6417 00c4 00000000 		.word	_IQNexp_min
 6418 00c8 00000000 		.word	_IQNexp_max
 6419 00cc 00000000 		.word	_IQNexp_lookup10
 6420 00d0 FB0BB958 		.word	1488522235
 6421 00d4 00000000 		.word	_IQ30exp_coeffs
 6422 00d8 05F446A7 		.word	-1488522235
 6423              		.cfi_endproc
 6424              	.LFE282:
 6426              		.section	.text._IQ9exp,"ax",%progbits
 6427              		.align	1
 6428              		.global	_IQ9exp
 6429              		.syntax unified
 6430              		.thumb
 6431              		.thumb_func
 6433              	_IQ9exp:
 6434              	.LVL945:
 6435              	.LFB283:
ARM GAS  C:\Users\57308\AppData\Local\Temp\ccyuPR38.s 			page 163


 371:../Common/IQMath/ti/_IQNexp.c **** /**
 372:../Common/IQMath/ti/_IQNexp.c ****  * @brief Computes the exponential of an IQ9 input.
 373:../Common/IQMath/ti/_IQNexp.c ****  *
 374:../Common/IQMath/ti/_IQNexp.c ****  * @param a               IQ9 type input.
 375:../Common/IQMath/ti/_IQNexp.c ****  *
 376:../Common/IQMath/ti/_IQNexp.c ****  * @return                IQ9 type result of exponential.
 377:../Common/IQMath/ti/_IQNexp.c ****  */
 378:../Common/IQMath/ti/_IQNexp.c **** int32_t _IQ9exp(int32_t a)
 379:../Common/IQMath/ti/_IQNexp.c **** {
 6436              		.loc 1 379 1 is_stmt 1 view -0
 6437              		.cfi_startproc
 6438              		@ args = 0, pretend = 0, frame = 0
 6439              		@ frame_needed = 0, uses_anonymous_args = 0
 6440              		@ link register save eliminated.
 6441              		.loc 1 379 1 is_stmt 0 view .LVU2458
 6442 0000 30B4     		push	{r4, r5}
 6443              	.LCFI63:
 6444              		.cfi_def_cfa_offset 8
 6445              		.cfi_offset 4, -8
 6446              		.cfi_offset 5, -4
 380:../Common/IQMath/ti/_IQNexp.c ****     return __IQNexp(a, _IQNexp_lookup9, _IQNexp_offset[9-1], _IQNexp_min[9-1], _IQNexp_max[9-1], 9)
 6447              		.loc 1 380 5 is_stmt 1 view .LVU2459
 6448              		.loc 1 380 12 is_stmt 0 view .LVU2460
 6449 0002 2F4B     		ldr	r3, .L263
 6450 0004 93F82030 		ldrb	r3, [r3, #32]	@ zero_extendqisi2
 6451              		.loc 1 380 73 view .LVU2461
 6452 0008 2E4A     		ldr	r2, .L263+4
 6453 000a 116A     		ldr	r1, [r2, #32]
 6454              		.loc 1 380 91 view .LVU2462
 6455 000c 2E4A     		ldr	r2, .L263+8
 6456 000e 126A     		ldr	r2, [r2, #32]
 6457              	.LVL946:
 6458              	.LBB394:
 6459              	.LBI394:
  32:../Common/IQMath/ti/_IQNexp.c **** {
 6460              		.loc 1 32 30 is_stmt 1 view .LVU2463
 6461              	.LBB395:
  34:../Common/IQMath/ti/_IQNexp.c ****     int_fast16_t i16Integer;
 6462              		.loc 1 34 5 view .LVU2464
  35:../Common/IQMath/ti/_IQNexp.c ****     uint_fast16_t ui16IntState;
 6463              		.loc 1 35 5 view .LVU2465
  36:../Common/IQMath/ti/_IQNexp.c ****     uint_fast16_t ui16MPYState;
 6464              		.loc 1 36 5 view .LVU2466
  37:../Common/IQMath/ti/_IQNexp.c ****     int_fast32_t iq31Fractional;
 6465              		.loc 1 37 5 view .LVU2467
  38:../Common/IQMath/ti/_IQNexp.c ****     uint_fast32_t uiqNResult;
 6466              		.loc 1 38 5 view .LVU2468
  39:../Common/IQMath/ti/_IQNexp.c ****     uint_fast32_t uiqNIntegerResult;
 6467              		.loc 1 39 5 view .LVU2469
  40:../Common/IQMath/ti/_IQNexp.c ****     uint_fast32_t uiq30FractionalResult;
 6468              		.loc 1 40 5 view .LVU2470
  41:../Common/IQMath/ti/_IQNexp.c ****     uint_fast32_t uiq31FractionalResult;
 6469              		.loc 1 41 5 view .LVU2471
  42:../Common/IQMath/ti/_IQNexp.c ****     const uint_fast32_t *piq30Coeffs;
 6470              		.loc 1 42 5 view .LVU2472
  43:../Common/IQMath/ti/_IQNexp.c ****     
 6471              		.loc 1 43 5 view .LVU2473
ARM GAS  C:\Users\57308\AppData\Local\Temp\ccyuPR38.s 			page 164


  46:../Common/IQMath/ti/_IQNexp.c ****         /* Check for the minimum value. */
 6472              		.loc 1 46 5 view .LVU2474
  46:../Common/IQMath/ti/_IQNexp.c ****         /* Check for the minimum value. */
 6473              		.loc 1 46 8 is_stmt 0 view .LVU2475
 6474 0010 0028     		cmp	r0, #0
  46:../Common/IQMath/ti/_IQNexp.c ****         /* Check for the minimum value. */
 6475              		.loc 1 46 8 view .LVU2476
 6476 0012 19DB     		blt	.L262
  73:../Common/IQMath/ti/_IQNexp.c ****             return INT32_MAX;
 6477              		.loc 1 73 9 is_stmt 1 view .LVU2477
  73:../Common/IQMath/ti/_IQNexp.c ****             return INT32_MAX;
 6478              		.loc 1 73 12 is_stmt 0 view .LVU2478
 6479 0014 8242     		cmp	r2, r0
 6480 0016 50DB     		blt	.L260
  78:../Common/IQMath/ti/_IQNexp.c ****         iq31Fractional <<= (31 - q_value);
 6481              		.loc 1 78 9 is_stmt 1 view .LVU2479
 6482              	.LVL947:
  79:../Common/IQMath/ti/_IQNexp.c ****         iq31Fractional &= 0x7fffffff;
 6483              		.loc 1 79 9 view .LVU2480
  79:../Common/IQMath/ti/_IQNexp.c ****         iq31Fractional &= 0x7fffffff;
 6484              		.loc 1 79 24 is_stmt 0 view .LVU2481
 6485 0018 4FEA805C 		lsl	ip, r0, #22
 6486              	.LVL948:
  80:../Common/IQMath/ti/_IQNexp.c ****     
 6487              		.loc 1 80 9 is_stmt 1 view .LVU2482
  80:../Common/IQMath/ti/_IQNexp.c ****     
 6488              		.loc 1 80 24 is_stmt 0 view .LVU2483
 6489 001c 2CF0004C 		bic	ip, ip, #-2147483648
 6490              	.LVL949:
  83:../Common/IQMath/ti/_IQNexp.c ****     
 6491              		.loc 1 83 9 is_stmt 1 view .LVU2484
  86:../Common/IQMath/ti/_IQNexp.c ****         uiqNIntegerResult = iqNLookupTable[i16Integer];
 6492              		.loc 1 86 9 view .LVU2485
  86:../Common/IQMath/ti/_IQNexp.c ****         uiqNIntegerResult = iqNLookupTable[i16Integer];
 6493              		.loc 1 86 20 is_stmt 0 view .LVU2486
 6494 0020 03EB6020 		add	r0, r3, r0, asr #9
 6495              	.LVL950:
  87:../Common/IQMath/ti/_IQNexp.c ****         
 6496              		.loc 1 87 9 is_stmt 1 view .LVU2487
  87:../Common/IQMath/ti/_IQNexp.c ****         
 6497              		.loc 1 87 43 is_stmt 0 view .LVU2488
 6498 0024 294B     		ldr	r3, .L263+12
 6499              	.LVL951:
  87:../Common/IQMath/ti/_IQNexp.c ****         
 6500              		.loc 1 87 27 view .LVU2489
 6501 0026 53F82050 		ldr	r5, [r3, r0, lsl #2]
 6502              	.LVL952:
  90:../Common/IQMath/ti/_IQNexp.c ****             iq31Fractional -= iq31_ln2;
 6503              		.loc 1 90 9 is_stmt 1 view .LVU2490
  90:../Common/IQMath/ti/_IQNexp.c ****             iq31Fractional -= iq31_ln2;
 6504              		.loc 1 90 12 is_stmt 0 view .LVU2491
 6505 002a 294B     		ldr	r3, .L263+16
 6506 002c 9C45     		cmp	ip, r3
 6507 002e 06DD     		ble	.L256
  91:../Common/IQMath/ti/_IQNexp.c ****             uiqNIntegerResult <<= 1;
 6508              		.loc 1 91 13 is_stmt 1 view .LVU2492
  91:../Common/IQMath/ti/_IQNexp.c ****             uiqNIntegerResult <<= 1;
ARM GAS  C:\Users\57308\AppData\Local\Temp\ccyuPR38.s 			page 165


 6509              		.loc 1 91 28 is_stmt 0 view .LVU2493
 6510 0030 ACF1B14C 		sub	ip, ip, #1484783616
 6511              	.LVL953:
  91:../Common/IQMath/ti/_IQNexp.c ****             uiqNIntegerResult <<= 1;
 6512              		.loc 1 91 28 view .LVU2494
 6513 0034 ACF5641C 		sub	ip, ip, #3735552
 6514              	.LVL954:
  91:../Common/IQMath/ti/_IQNexp.c ****             uiqNIntegerResult <<= 1;
 6515              		.loc 1 91 28 view .LVU2495
 6516 0038 ACF6FC3C 		subw	ip, ip, #3068
 6517              	.LVL955:
  92:../Common/IQMath/ti/_IQNexp.c ****         }
 6518              		.loc 1 92 13 is_stmt 1 view .LVU2496
  92:../Common/IQMath/ti/_IQNexp.c ****         }
 6519              		.loc 1 92 31 is_stmt 0 view .LVU2497
 6520 003c 6D00     		lsls	r5, r5, #1
 6521              	.LVL956:
 6522              	.L256:
 102:../Common/IQMath/ti/_IQNexp.c ****     
 6523              		.loc 1 102 5 is_stmt 1 view .LVU2498
 102:../Common/IQMath/ti/_IQNexp.c ****     
 6524              		.loc 1 102 5 is_stmt 0 view .LVU2499
 6525              	.LBE395:
 6526              	.LBE394:
  28:../Common/IQMath/ti/./support/RTS_support.h **** }
 6527              		.loc 2 28 5 is_stmt 1 view .LVU2500
 6528              	.LBB403:
 6529              	.LBB400:
 109:../Common/IQMath/ti/_IQNexp.c ****     uiq30FractionalResult = *piq30Coeffs++;
 6530              		.loc 1 109 5 view .LVU2501
 110:../Common/IQMath/ti/_IQNexp.c ****     
 6531              		.loc 1 110 5 view .LVU2502
 110:../Common/IQMath/ti/_IQNexp.c ****     
 6532              		.loc 1 110 27 is_stmt 0 view .LVU2503
 6533 003e 2548     		ldr	r0, .L263+20
 6534              	.LVL957:
 110:../Common/IQMath/ti/_IQNexp.c ****     
 6535              		.loc 1 110 27 view .LVU2504
 6536 0040 50F8043B 		ldr	r3, [r0], #4
 6537              	.LVL958:
 113:../Common/IQMath/ti/_IQNexp.c ****         uiq30FractionalResult = __mpyf_l(iq31Fractional, uiq30FractionalResult);
 6538              		.loc 1 113 5 is_stmt 1 view .LVU2505
 113:../Common/IQMath/ti/_IQNexp.c ****         uiq30FractionalResult = __mpyf_l(iq31Fractional, uiq30FractionalResult);
 6539              		.loc 1 113 19 is_stmt 0 view .LVU2506
 6540 0044 0A24     		movs	r4, #10
 113:../Common/IQMath/ti/_IQNexp.c ****         uiq30FractionalResult = __mpyf_l(iq31Fractional, uiq30FractionalResult);
 6541              		.loc 1 113 5 view .LVU2507
 6542 0046 2AE0     		b	.L257
 6543              	.LVL959:
 6544              	.L262:
  48:../Common/IQMath/ti/_IQNexp.c ****             return 0;
 6545              		.loc 1 48 9 is_stmt 1 view .LVU2508
  48:../Common/IQMath/ti/_IQNexp.c ****             return 0;
 6546              		.loc 1 48 12 is_stmt 0 view .LVU2509
 6547 0048 8142     		cmp	r1, r0
 6548 004a 34DC     		bgt	.L259
  53:../Common/IQMath/ti/_IQNexp.c ****         iq31Fractional <<= (31 - q_value);
ARM GAS  C:\Users\57308\AppData\Local\Temp\ccyuPR38.s 			page 166


 6549              		.loc 1 53 9 is_stmt 1 view .LVU2510
 6550              	.LVL960:
  54:../Common/IQMath/ti/_IQNexp.c ****         iq31Fractional |= 0x80000000;
 6551              		.loc 1 54 9 view .LVU2511
  54:../Common/IQMath/ti/_IQNexp.c ****         iq31Fractional |= 0x80000000;
 6552              		.loc 1 54 24 is_stmt 0 view .LVU2512
 6553 004c 4FEA805C 		lsl	ip, r0, #22
 6554              	.LVL961:
  55:../Common/IQMath/ti/_IQNexp.c ****     
 6555              		.loc 1 55 9 is_stmt 1 view .LVU2513
  55:../Common/IQMath/ti/_IQNexp.c ****     
 6556              		.loc 1 55 24 is_stmt 0 view .LVU2514
 6557 0050 4CF0004C 		orr	ip, ip, #-2147483648
 6558              	.LVL962:
  58:../Common/IQMath/ti/_IQNexp.c ****     
 6559              		.loc 1 58 9 is_stmt 1 view .LVU2515
  58:../Common/IQMath/ti/_IQNexp.c ****     
 6560              		.loc 1 58 46 is_stmt 0 view .LVU2516
 6561 0054 4012     		asrs	r0, r0, #9
 6562              	.LVL963:
  58:../Common/IQMath/ti/_IQNexp.c ****     
 6563              		.loc 1 58 20 view .LVU2517
 6564 0056 0130     		adds	r0, r0, #1
 6565              	.LVL964:
  61:../Common/IQMath/ti/_IQNexp.c ****         uiqNIntegerResult = iqNLookupTable[i16Integer];
 6566              		.loc 1 61 9 is_stmt 1 view .LVU2518
  61:../Common/IQMath/ti/_IQNexp.c ****         uiqNIntegerResult = iqNLookupTable[i16Integer];
 6567              		.loc 1 61 20 is_stmt 0 view .LVU2519
 6568 0058 1844     		add	r0, r0, r3
 6569              	.LVL965:
  62:../Common/IQMath/ti/_IQNexp.c ****         
 6570              		.loc 1 62 9 is_stmt 1 view .LVU2520
  62:../Common/IQMath/ti/_IQNexp.c ****         
 6571              		.loc 1 62 43 is_stmt 0 view .LVU2521
 6572 005a 1C4B     		ldr	r3, .L263+12
 6573              	.LVL966:
  62:../Common/IQMath/ti/_IQNexp.c ****         
 6574              		.loc 1 62 27 view .LVU2522
 6575 005c 53F82050 		ldr	r5, [r3, r0, lsl #2]
 6576              	.LVL967:
  65:../Common/IQMath/ti/_IQNexp.c ****             iq31Fractional += iq31_ln2;
 6577              		.loc 1 65 9 is_stmt 1 view .LVU2523
  65:../Common/IQMath/ti/_IQNexp.c ****             iq31Fractional += iq31_ln2;
 6578              		.loc 1 65 12 is_stmt 0 view .LVU2524
 6579 0060 1D4B     		ldr	r3, .L263+24
 6580 0062 9C45     		cmp	ip, r3
 6581 0064 EBDA     		bge	.L256
  66:../Common/IQMath/ti/_IQNexp.c ****             uiqNIntegerResult >>= 1;
 6582              		.loc 1 66 13 is_stmt 1 view .LVU2525
  66:../Common/IQMath/ti/_IQNexp.c ****             uiqNIntegerResult >>= 1;
 6583              		.loc 1 66 28 is_stmt 0 view .LVU2526
 6584 0066 0CF1B14C 		add	ip, ip, #1484783616
 6585              	.LVL968:
  66:../Common/IQMath/ti/_IQNexp.c ****             uiqNIntegerResult >>= 1;
 6586              		.loc 1 66 28 view .LVU2527
 6587 006a 0CF5641C 		add	ip, ip, #3735552
 6588              	.LVL969:
ARM GAS  C:\Users\57308\AppData\Local\Temp\ccyuPR38.s 			page 167


  66:../Common/IQMath/ti/_IQNexp.c ****             uiqNIntegerResult >>= 1;
 6589              		.loc 1 66 28 view .LVU2528
 6590 006e 0CF6FC3C 		addw	ip, ip, #3068
 6591              	.LVL970:
  67:../Common/IQMath/ti/_IQNexp.c ****         }
 6592              		.loc 1 67 13 is_stmt 1 view .LVU2529
  67:../Common/IQMath/ti/_IQNexp.c ****         }
 6593              		.loc 1 67 31 is_stmt 0 view .LVU2530
 6594 0072 6D08     		lsrs	r5, r5, #1
 6595              	.LVL971:
  67:../Common/IQMath/ti/_IQNexp.c ****         }
 6596              		.loc 1 67 31 view .LVU2531
 6597 0074 E3E7     		b	.L256
 6598              	.LVL972:
 6599              	.L258:
 114:../Common/IQMath/ti/_IQNexp.c ****         uiq30FractionalResult += *piq30Coeffs++;
 6600              		.loc 1 114 9 is_stmt 1 view .LVU2532
 6601              	.LBB396:
 6602              	.LBI396:
 233:../Common/IQMath/ti/./support/RTS_support.h **** {
 6603              		.loc 2 233 28 view .LVU2533
 6604              	.LBB397:
 235:../Common/IQMath/ti/./support/RTS_support.h **** }
 6605              		.loc 2 235 5 view .LVU2534
 235:../Common/IQMath/ti/./support/RTS_support.h **** }
 6606              		.loc 2 235 28 is_stmt 0 view .LVU2535
 6607 0076 4FEAEC72 		asr	r2, ip, #31
 235:../Common/IQMath/ti/./support/RTS_support.h **** }
 6608              		.loc 2 235 49 view .LVU2536
 6609 007a D917     		asrs	r1, r3, #31
 235:../Common/IQMath/ti/./support/RTS_support.h **** }
 6610              		.loc 2 235 47 view .LVU2537
 6611 007c 0CFB01F1 		mul	r1, ip, r1
 6612 0080 03FB0212 		mla	r2, r3, r2, r1
 6613 0084 ACFB0331 		umull	r3, r1, ip, r3
 6614              	.LVL973:
 235:../Common/IQMath/ti/./support/RTS_support.h **** }
 6615              		.loc 2 235 47 view .LVU2538
 6616 0088 0A44     		add	r2, r2, r1
 235:../Common/IQMath/ti/./support/RTS_support.h **** }
 6617              		.loc 2 235 69 view .LVU2539
 6618 008a DB0F     		lsrs	r3, r3, #31
 6619 008c 43EA4203 		orr	r3, r3, r2, lsl #1
 6620              	.LVL974:
 235:../Common/IQMath/ti/./support/RTS_support.h **** }
 6621              		.loc 2 235 69 view .LVU2540
 6622              	.LBE397:
 6623              	.LBE396:
 115:../Common/IQMath/ti/_IQNexp.c ****     }
 6624              		.loc 1 115 9 is_stmt 1 view .LVU2541
 115:../Common/IQMath/ti/_IQNexp.c ****     }
 6625              		.loc 1 115 46 is_stmt 0 view .LVU2542
 6626 0090 0246     		mov	r2, r0
 6627              	.LVL975:
 115:../Common/IQMath/ti/_IQNexp.c ****     }
 6628              		.loc 1 115 34 view .LVU2543
 6629 0092 52F8041B 		ldr	r1, [r2], #4
ARM GAS  C:\Users\57308\AppData\Local\Temp\ccyuPR38.s 			page 168


 6630              	.LVL976:
 115:../Common/IQMath/ti/_IQNexp.c ****     }
 6631              		.loc 1 115 31 view .LVU2544
 6632 0096 0B44     		add	r3, r3, r1
 6633              	.LVL977:
 113:../Common/IQMath/ti/_IQNexp.c ****         uiq30FractionalResult = __mpyf_l(iq31Fractional, uiq30FractionalResult);
 6634              		.loc 1 113 51 is_stmt 1 view .LVU2545
 113:../Common/IQMath/ti/_IQNexp.c ****         uiq30FractionalResult = __mpyf_l(iq31Fractional, uiq30FractionalResult);
 6635              		.loc 1 113 59 is_stmt 0 view .LVU2546
 6636 0098 013C     		subs	r4, r4, #1
 6637              	.LVL978:
 113:../Common/IQMath/ti/_IQNexp.c ****         uiq30FractionalResult = __mpyf_l(iq31Fractional, uiq30FractionalResult);
 6638              		.loc 1 113 59 view .LVU2547
 6639 009a E4B2     		uxtb	r4, r4
 6640              	.LVL979:
 115:../Common/IQMath/ti/_IQNexp.c ****     }
 6641              		.loc 1 115 46 view .LVU2548
 6642 009c 1046     		mov	r0, r2
 6643              	.LVL980:
 6644              	.L257:
 113:../Common/IQMath/ti/_IQNexp.c ****         uiq30FractionalResult = __mpyf_l(iq31Fractional, uiq30FractionalResult);
 6645              		.loc 1 113 37 is_stmt 1 view .LVU2549
 113:../Common/IQMath/ti/_IQNexp.c ****         uiq30FractionalResult = __mpyf_l(iq31Fractional, uiq30FractionalResult);
 6646              		.loc 1 113 5 is_stmt 0 view .LVU2550
 6647 009e 002C     		cmp	r4, #0
 6648 00a0 E9D1     		bne	.L258
 119:../Common/IQMath/ti/_IQNexp.c ****     
 6649              		.loc 1 119 5 is_stmt 1 view .LVU2551
 119:../Common/IQMath/ti/_IQNexp.c ****     
 6650              		.loc 1 119 27 is_stmt 0 view .LVU2552
 6651 00a2 5B00     		lsls	r3, r3, #1
 6652              	.LVL981:
 125:../Common/IQMath/ti/_IQNexp.c ****     
 6653              		.loc 1 125 5 is_stmt 1 view .LVU2553
 6654              	.LBB398:
 6655              	.LBI398:
 254:../Common/IQMath/ti/./support/RTS_support.h **** {
 6656              		.loc 2 254 29 view .LVU2554
 6657              	.LBB399:
 6658              		.loc 2 256 5 view .LVU2555
 6659              		.loc 2 256 49 is_stmt 0 view .LVU2556
 6660 00a4 A5FB0353 		umull	r5, r3, r5, r3
 6661              	.LVL982:
 6662              		.loc 2 256 72 view .LVU2557
 6663 00a8 ED0F     		lsrs	r5, r5, #31
 6664 00aa 45EA4305 		orr	r5, r5, r3, lsl #1
 6665              	.LVL983:
 6666              		.loc 2 256 72 view .LVU2558
 6667              	.LBE399:
 6668              	.LBE398:
 131:../Common/IQMath/ti/_IQNexp.c ****     
 6669              		.loc 1 131 5 is_stmt 1 view .LVU2559
 131:../Common/IQMath/ti/_IQNexp.c ****     
 6670              		.loc 1 131 5 is_stmt 0 view .LVU2560
 6671              	.LBE400:
 6672              	.LBE403:
  72:../Common/IQMath/ti/./support/RTS_support.h **** }
ARM GAS  C:\Users\57308\AppData\Local\Temp\ccyuPR38.s 			page 169


 6673              		.loc 2 72 5 is_stmt 1 view .LVU2561
 6674              	.LBB404:
 6675              	.LBB401:
 134:../Common/IQMath/ti/_IQNexp.c ****     uiqNResult >>= 1;
 6676              		.loc 1 134 5 view .LVU2562
 134:../Common/IQMath/ti/_IQNexp.c ****     uiqNResult >>= 1;
 6677              		.loc 1 134 15 is_stmt 0 view .LVU2563
 6678 00ae 0135     		adds	r5, r5, #1
 6679              	.LVL984:
 135:../Common/IQMath/ti/_IQNexp.c ****     
 6680              		.loc 1 135 5 is_stmt 1 view .LVU2564
 135:../Common/IQMath/ti/_IQNexp.c ****     
 6681              		.loc 1 135 16 is_stmt 0 view .LVU2565
 6682 00b0 6808     		lsrs	r0, r5, #1
 6683              	.LVL985:
 137:../Common/IQMath/ti/_IQNexp.c **** }
 6684              		.loc 1 137 5 is_stmt 1 view .LVU2566
 6685              	.L253:
 137:../Common/IQMath/ti/_IQNexp.c **** }
 6686              		.loc 1 137 5 is_stmt 0 view .LVU2567
 6687              	.LBE401:
 6688              	.LBE404:
 381:../Common/IQMath/ti/_IQNexp.c **** }
 6689              		.loc 1 381 1 view .LVU2568
 6690 00b2 30BC     		pop	{r4, r5}
 6691              	.LCFI64:
 6692              		.cfi_remember_state
 6693              		.cfi_restore 5
 6694              		.cfi_restore 4
 6695              		.cfi_def_cfa_offset 0
 6696 00b4 7047     		bx	lr
 6697              	.LVL986:
 6698              	.L259:
 6699              	.LCFI65:
 6700              		.cfi_restore_state
 6701              	.LBB405:
 6702              	.LBB402:
  49:../Common/IQMath/ti/_IQNexp.c ****         }
 6703              		.loc 1 49 20 view .LVU2569
 6704 00b6 0020     		movs	r0, #0
 6705              	.LVL987:
  49:../Common/IQMath/ti/_IQNexp.c ****         }
 6706              		.loc 1 49 20 view .LVU2570
 6707 00b8 FBE7     		b	.L253
 6708              	.LVL988:
 6709              	.L260:
  74:../Common/IQMath/ti/_IQNexp.c ****         }
 6710              		.loc 1 74 20 view .LVU2571
 6711 00ba 6FF00040 		mvn	r0, #-2147483648
 6712              	.LVL989:
  74:../Common/IQMath/ti/_IQNexp.c ****         }
 6713              		.loc 1 74 20 view .LVU2572
 6714              	.LBE402:
 6715              	.LBE405:
 380:../Common/IQMath/ti/_IQNexp.c **** }
 6716              		.loc 1 380 12 view .LVU2573
 6717 00be F8E7     		b	.L253
ARM GAS  C:\Users\57308\AppData\Local\Temp\ccyuPR38.s 			page 170


 6718              	.L264:
 6719              		.align	2
 6720              	.L263:
 6721 00c0 00000000 		.word	_IQNexp_offset
 6722 00c4 00000000 		.word	_IQNexp_min
 6723 00c8 00000000 		.word	_IQNexp_max
 6724 00cc 00000000 		.word	_IQNexp_lookup9
 6725 00d0 FB0BB958 		.word	1488522235
 6726 00d4 00000000 		.word	_IQ30exp_coeffs
 6727 00d8 05F446A7 		.word	-1488522235
 6728              		.cfi_endproc
 6729              	.LFE283:
 6731              		.section	.text._IQ8exp,"ax",%progbits
 6732              		.align	1
 6733              		.global	_IQ8exp
 6734              		.syntax unified
 6735              		.thumb
 6736              		.thumb_func
 6738              	_IQ8exp:
 6739              	.LVL990:
 6740              	.LFB284:
 382:../Common/IQMath/ti/_IQNexp.c **** /**
 383:../Common/IQMath/ti/_IQNexp.c ****  * @brief Computes the exponential of an IQ8 input.
 384:../Common/IQMath/ti/_IQNexp.c ****  *
 385:../Common/IQMath/ti/_IQNexp.c ****  * @param a               IQ8 type input.
 386:../Common/IQMath/ti/_IQNexp.c ****  *
 387:../Common/IQMath/ti/_IQNexp.c ****  * @return                IQ8 type result of exponential.
 388:../Common/IQMath/ti/_IQNexp.c ****  */
 389:../Common/IQMath/ti/_IQNexp.c **** int32_t _IQ8exp(int32_t a)
 390:../Common/IQMath/ti/_IQNexp.c **** {
 6741              		.loc 1 390 1 is_stmt 1 view -0
 6742              		.cfi_startproc
 6743              		@ args = 0, pretend = 0, frame = 0
 6744              		@ frame_needed = 0, uses_anonymous_args = 0
 6745              		@ link register save eliminated.
 6746              		.loc 1 390 1 is_stmt 0 view .LVU2575
 6747 0000 30B4     		push	{r4, r5}
 6748              	.LCFI66:
 6749              		.cfi_def_cfa_offset 8
 6750              		.cfi_offset 4, -8
 6751              		.cfi_offset 5, -4
 391:../Common/IQMath/ti/_IQNexp.c ****     return __IQNexp(a, _IQNexp_lookup8, _IQNexp_offset[8-1], _IQNexp_min[8-1], _IQNexp_max[8-1], 8)
 6752              		.loc 1 391 5 is_stmt 1 view .LVU2576
 6753              		.loc 1 391 12 is_stmt 0 view .LVU2577
 6754 0002 2F4B     		ldr	r3, .L275
 6755 0004 1B7F     		ldrb	r3, [r3, #28]	@ zero_extendqisi2
 6756              		.loc 1 391 73 view .LVU2578
 6757 0006 2F4A     		ldr	r2, .L275+4
 6758 0008 D169     		ldr	r1, [r2, #28]
 6759              		.loc 1 391 91 view .LVU2579
 6760 000a 2F4A     		ldr	r2, .L275+8
 6761 000c D269     		ldr	r2, [r2, #28]
 6762              	.LVL991:
 6763              	.LBB412:
 6764              	.LBI412:
  32:../Common/IQMath/ti/_IQNexp.c **** {
 6765              		.loc 1 32 30 is_stmt 1 view .LVU2580
ARM GAS  C:\Users\57308\AppData\Local\Temp\ccyuPR38.s 			page 171


 6766              	.LBB413:
  34:../Common/IQMath/ti/_IQNexp.c ****     int_fast16_t i16Integer;
 6767              		.loc 1 34 5 view .LVU2581
  35:../Common/IQMath/ti/_IQNexp.c ****     uint_fast16_t ui16IntState;
 6768              		.loc 1 35 5 view .LVU2582
  36:../Common/IQMath/ti/_IQNexp.c ****     uint_fast16_t ui16MPYState;
 6769              		.loc 1 36 5 view .LVU2583
  37:../Common/IQMath/ti/_IQNexp.c ****     int_fast32_t iq31Fractional;
 6770              		.loc 1 37 5 view .LVU2584
  38:../Common/IQMath/ti/_IQNexp.c ****     uint_fast32_t uiqNResult;
 6771              		.loc 1 38 5 view .LVU2585
  39:../Common/IQMath/ti/_IQNexp.c ****     uint_fast32_t uiqNIntegerResult;
 6772              		.loc 1 39 5 view .LVU2586
  40:../Common/IQMath/ti/_IQNexp.c ****     uint_fast32_t uiq30FractionalResult;
 6773              		.loc 1 40 5 view .LVU2587
  41:../Common/IQMath/ti/_IQNexp.c ****     uint_fast32_t uiq31FractionalResult;
 6774              		.loc 1 41 5 view .LVU2588
  42:../Common/IQMath/ti/_IQNexp.c ****     const uint_fast32_t *piq30Coeffs;
 6775              		.loc 1 42 5 view .LVU2589
  43:../Common/IQMath/ti/_IQNexp.c ****     
 6776              		.loc 1 43 5 view .LVU2590
  46:../Common/IQMath/ti/_IQNexp.c ****         /* Check for the minimum value. */
 6777              		.loc 1 46 5 view .LVU2591
  46:../Common/IQMath/ti/_IQNexp.c ****         /* Check for the minimum value. */
 6778              		.loc 1 46 8 is_stmt 0 view .LVU2592
 6779 000e 0028     		cmp	r0, #0
  46:../Common/IQMath/ti/_IQNexp.c ****         /* Check for the minimum value. */
 6780              		.loc 1 46 8 view .LVU2593
 6781 0010 19DB     		blt	.L274
  73:../Common/IQMath/ti/_IQNexp.c ****             return INT32_MAX;
 6782              		.loc 1 73 9 is_stmt 1 view .LVU2594
  73:../Common/IQMath/ti/_IQNexp.c ****             return INT32_MAX;
 6783              		.loc 1 73 12 is_stmt 0 view .LVU2595
 6784 0012 8242     		cmp	r2, r0
 6785 0014 50DB     		blt	.L272
  78:../Common/IQMath/ti/_IQNexp.c ****         iq31Fractional <<= (31 - q_value);
 6786              		.loc 1 78 9 is_stmt 1 view .LVU2596
 6787              	.LVL992:
  79:../Common/IQMath/ti/_IQNexp.c ****         iq31Fractional &= 0x7fffffff;
 6788              		.loc 1 79 9 view .LVU2597
  79:../Common/IQMath/ti/_IQNexp.c ****         iq31Fractional &= 0x7fffffff;
 6789              		.loc 1 79 24 is_stmt 0 view .LVU2598
 6790 0016 4FEAC05C 		lsl	ip, r0, #23
 6791              	.LVL993:
  80:../Common/IQMath/ti/_IQNexp.c ****     
 6792              		.loc 1 80 9 is_stmt 1 view .LVU2599
  80:../Common/IQMath/ti/_IQNexp.c ****     
 6793              		.loc 1 80 24 is_stmt 0 view .LVU2600
 6794 001a 2CF0004C 		bic	ip, ip, #-2147483648
 6795              	.LVL994:
  83:../Common/IQMath/ti/_IQNexp.c ****     
 6796              		.loc 1 83 9 is_stmt 1 view .LVU2601
  86:../Common/IQMath/ti/_IQNexp.c ****         uiqNIntegerResult = iqNLookupTable[i16Integer];
 6797              		.loc 1 86 9 view .LVU2602
  86:../Common/IQMath/ti/_IQNexp.c ****         uiqNIntegerResult = iqNLookupTable[i16Integer];
 6798              		.loc 1 86 20 is_stmt 0 view .LVU2603
 6799 001e 03EB2020 		add	r0, r3, r0, asr #8
ARM GAS  C:\Users\57308\AppData\Local\Temp\ccyuPR38.s 			page 172


 6800              	.LVL995:
  87:../Common/IQMath/ti/_IQNexp.c ****         
 6801              		.loc 1 87 9 is_stmt 1 view .LVU2604
  87:../Common/IQMath/ti/_IQNexp.c ****         
 6802              		.loc 1 87 43 is_stmt 0 view .LVU2605
 6803 0022 2A4B     		ldr	r3, .L275+12
 6804              	.LVL996:
  87:../Common/IQMath/ti/_IQNexp.c ****         
 6805              		.loc 1 87 27 view .LVU2606
 6806 0024 53F82050 		ldr	r5, [r3, r0, lsl #2]
 6807              	.LVL997:
  90:../Common/IQMath/ti/_IQNexp.c ****             iq31Fractional -= iq31_ln2;
 6808              		.loc 1 90 9 is_stmt 1 view .LVU2607
  90:../Common/IQMath/ti/_IQNexp.c ****             iq31Fractional -= iq31_ln2;
 6809              		.loc 1 90 12 is_stmt 0 view .LVU2608
 6810 0028 294B     		ldr	r3, .L275+16
 6811 002a 9C45     		cmp	ip, r3
 6812 002c 06DD     		ble	.L268
  91:../Common/IQMath/ti/_IQNexp.c ****             uiqNIntegerResult <<= 1;
 6813              		.loc 1 91 13 is_stmt 1 view .LVU2609
  91:../Common/IQMath/ti/_IQNexp.c ****             uiqNIntegerResult <<= 1;
 6814              		.loc 1 91 28 is_stmt 0 view .LVU2610
 6815 002e ACF1B14C 		sub	ip, ip, #1484783616
 6816              	.LVL998:
  91:../Common/IQMath/ti/_IQNexp.c ****             uiqNIntegerResult <<= 1;
 6817              		.loc 1 91 28 view .LVU2611
 6818 0032 ACF5641C 		sub	ip, ip, #3735552
 6819              	.LVL999:
  91:../Common/IQMath/ti/_IQNexp.c ****             uiqNIntegerResult <<= 1;
 6820              		.loc 1 91 28 view .LVU2612
 6821 0036 ACF6FC3C 		subw	ip, ip, #3068
 6822              	.LVL1000:
  92:../Common/IQMath/ti/_IQNexp.c ****         }
 6823              		.loc 1 92 13 is_stmt 1 view .LVU2613
  92:../Common/IQMath/ti/_IQNexp.c ****         }
 6824              		.loc 1 92 31 is_stmt 0 view .LVU2614
 6825 003a 6D00     		lsls	r5, r5, #1
 6826              	.LVL1001:
 6827              	.L268:
 102:../Common/IQMath/ti/_IQNexp.c ****     
 6828              		.loc 1 102 5 is_stmt 1 view .LVU2615
 102:../Common/IQMath/ti/_IQNexp.c ****     
 6829              		.loc 1 102 5 is_stmt 0 view .LVU2616
 6830              	.LBE413:
 6831              	.LBE412:
  28:../Common/IQMath/ti/./support/RTS_support.h **** }
 6832              		.loc 2 28 5 is_stmt 1 view .LVU2617
 6833              	.LBB421:
 6834              	.LBB418:
 109:../Common/IQMath/ti/_IQNexp.c ****     uiq30FractionalResult = *piq30Coeffs++;
 6835              		.loc 1 109 5 view .LVU2618
 110:../Common/IQMath/ti/_IQNexp.c ****     
 6836              		.loc 1 110 5 view .LVU2619
 110:../Common/IQMath/ti/_IQNexp.c ****     
 6837              		.loc 1 110 27 is_stmt 0 view .LVU2620
 6838 003c 2548     		ldr	r0, .L275+20
 6839              	.LVL1002:
ARM GAS  C:\Users\57308\AppData\Local\Temp\ccyuPR38.s 			page 173


 110:../Common/IQMath/ti/_IQNexp.c ****     
 6840              		.loc 1 110 27 view .LVU2621
 6841 003e 50F8043B 		ldr	r3, [r0], #4
 6842              	.LVL1003:
 113:../Common/IQMath/ti/_IQNexp.c ****         uiq30FractionalResult = __mpyf_l(iq31Fractional, uiq30FractionalResult);
 6843              		.loc 1 113 5 is_stmt 1 view .LVU2622
 113:../Common/IQMath/ti/_IQNexp.c ****         uiq30FractionalResult = __mpyf_l(iq31Fractional, uiq30FractionalResult);
 6844              		.loc 1 113 19 is_stmt 0 view .LVU2623
 6845 0042 0A24     		movs	r4, #10
 113:../Common/IQMath/ti/_IQNexp.c ****         uiq30FractionalResult = __mpyf_l(iq31Fractional, uiq30FractionalResult);
 6846              		.loc 1 113 5 view .LVU2624
 6847 0044 2AE0     		b	.L269
 6848              	.LVL1004:
 6849              	.L274:
  48:../Common/IQMath/ti/_IQNexp.c ****             return 0;
 6850              		.loc 1 48 9 is_stmt 1 view .LVU2625
  48:../Common/IQMath/ti/_IQNexp.c ****             return 0;
 6851              		.loc 1 48 12 is_stmt 0 view .LVU2626
 6852 0046 8142     		cmp	r1, r0
 6853 0048 34DC     		bgt	.L271
  53:../Common/IQMath/ti/_IQNexp.c ****         iq31Fractional <<= (31 - q_value);
 6854              		.loc 1 53 9 is_stmt 1 view .LVU2627
 6855              	.LVL1005:
  54:../Common/IQMath/ti/_IQNexp.c ****         iq31Fractional |= 0x80000000;
 6856              		.loc 1 54 9 view .LVU2628
  54:../Common/IQMath/ti/_IQNexp.c ****         iq31Fractional |= 0x80000000;
 6857              		.loc 1 54 24 is_stmt 0 view .LVU2629
 6858 004a 4FEAC05C 		lsl	ip, r0, #23
 6859              	.LVL1006:
  55:../Common/IQMath/ti/_IQNexp.c ****     
 6860              		.loc 1 55 9 is_stmt 1 view .LVU2630
  55:../Common/IQMath/ti/_IQNexp.c ****     
 6861              		.loc 1 55 24 is_stmt 0 view .LVU2631
 6862 004e 4CF0004C 		orr	ip, ip, #-2147483648
 6863              	.LVL1007:
  58:../Common/IQMath/ti/_IQNexp.c ****     
 6864              		.loc 1 58 9 is_stmt 1 view .LVU2632
  58:../Common/IQMath/ti/_IQNexp.c ****     
 6865              		.loc 1 58 46 is_stmt 0 view .LVU2633
 6866 0052 0012     		asrs	r0, r0, #8
 6867              	.LVL1008:
  58:../Common/IQMath/ti/_IQNexp.c ****     
 6868              		.loc 1 58 20 view .LVU2634
 6869 0054 0130     		adds	r0, r0, #1
 6870              	.LVL1009:
  61:../Common/IQMath/ti/_IQNexp.c ****         uiqNIntegerResult = iqNLookupTable[i16Integer];
 6871              		.loc 1 61 9 is_stmt 1 view .LVU2635
  61:../Common/IQMath/ti/_IQNexp.c ****         uiqNIntegerResult = iqNLookupTable[i16Integer];
 6872              		.loc 1 61 20 is_stmt 0 view .LVU2636
 6873 0056 1844     		add	r0, r0, r3
 6874              	.LVL1010:
  62:../Common/IQMath/ti/_IQNexp.c ****         
 6875              		.loc 1 62 9 is_stmt 1 view .LVU2637
  62:../Common/IQMath/ti/_IQNexp.c ****         
 6876              		.loc 1 62 43 is_stmt 0 view .LVU2638
 6877 0058 1C4B     		ldr	r3, .L275+12
 6878              	.LVL1011:
ARM GAS  C:\Users\57308\AppData\Local\Temp\ccyuPR38.s 			page 174


  62:../Common/IQMath/ti/_IQNexp.c ****         
 6879              		.loc 1 62 27 view .LVU2639
 6880 005a 53F82050 		ldr	r5, [r3, r0, lsl #2]
 6881              	.LVL1012:
  65:../Common/IQMath/ti/_IQNexp.c ****             iq31Fractional += iq31_ln2;
 6882              		.loc 1 65 9 is_stmt 1 view .LVU2640
  65:../Common/IQMath/ti/_IQNexp.c ****             iq31Fractional += iq31_ln2;
 6883              		.loc 1 65 12 is_stmt 0 view .LVU2641
 6884 005e 1E4B     		ldr	r3, .L275+24
 6885 0060 9C45     		cmp	ip, r3
 6886 0062 EBDA     		bge	.L268
  66:../Common/IQMath/ti/_IQNexp.c ****             uiqNIntegerResult >>= 1;
 6887              		.loc 1 66 13 is_stmt 1 view .LVU2642
  66:../Common/IQMath/ti/_IQNexp.c ****             uiqNIntegerResult >>= 1;
 6888              		.loc 1 66 28 is_stmt 0 view .LVU2643
 6889 0064 0CF1B14C 		add	ip, ip, #1484783616
 6890              	.LVL1013:
  66:../Common/IQMath/ti/_IQNexp.c ****             uiqNIntegerResult >>= 1;
 6891              		.loc 1 66 28 view .LVU2644
 6892 0068 0CF5641C 		add	ip, ip, #3735552
 6893              	.LVL1014:
  66:../Common/IQMath/ti/_IQNexp.c ****             uiqNIntegerResult >>= 1;
 6894              		.loc 1 66 28 view .LVU2645
 6895 006c 0CF6FC3C 		addw	ip, ip, #3068
 6896              	.LVL1015:
  67:../Common/IQMath/ti/_IQNexp.c ****         }
 6897              		.loc 1 67 13 is_stmt 1 view .LVU2646
  67:../Common/IQMath/ti/_IQNexp.c ****         }
 6898              		.loc 1 67 31 is_stmt 0 view .LVU2647
 6899 0070 6D08     		lsrs	r5, r5, #1
 6900              	.LVL1016:
  67:../Common/IQMath/ti/_IQNexp.c ****         }
 6901              		.loc 1 67 31 view .LVU2648
 6902 0072 E3E7     		b	.L268
 6903              	.LVL1017:
 6904              	.L270:
 114:../Common/IQMath/ti/_IQNexp.c ****         uiq30FractionalResult += *piq30Coeffs++;
 6905              		.loc 1 114 9 is_stmt 1 view .LVU2649
 6906              	.LBB414:
 6907              	.LBI414:
 233:../Common/IQMath/ti/./support/RTS_support.h **** {
 6908              		.loc 2 233 28 view .LVU2650
 6909              	.LBB415:
 235:../Common/IQMath/ti/./support/RTS_support.h **** }
 6910              		.loc 2 235 5 view .LVU2651
 235:../Common/IQMath/ti/./support/RTS_support.h **** }
 6911              		.loc 2 235 28 is_stmt 0 view .LVU2652
 6912 0074 4FEAEC72 		asr	r2, ip, #31
 235:../Common/IQMath/ti/./support/RTS_support.h **** }
 6913              		.loc 2 235 49 view .LVU2653
 6914 0078 D917     		asrs	r1, r3, #31
 235:../Common/IQMath/ti/./support/RTS_support.h **** }
 6915              		.loc 2 235 47 view .LVU2654
 6916 007a 0CFB01F1 		mul	r1, ip, r1
 6917 007e 03FB0212 		mla	r2, r3, r2, r1
 6918 0082 ACFB0331 		umull	r3, r1, ip, r3
 6919              	.LVL1018:
ARM GAS  C:\Users\57308\AppData\Local\Temp\ccyuPR38.s 			page 175


 235:../Common/IQMath/ti/./support/RTS_support.h **** }
 6920              		.loc 2 235 47 view .LVU2655
 6921 0086 0A44     		add	r2, r2, r1
 235:../Common/IQMath/ti/./support/RTS_support.h **** }
 6922              		.loc 2 235 69 view .LVU2656
 6923 0088 DB0F     		lsrs	r3, r3, #31
 6924 008a 43EA4203 		orr	r3, r3, r2, lsl #1
 6925              	.LVL1019:
 235:../Common/IQMath/ti/./support/RTS_support.h **** }
 6926              		.loc 2 235 69 view .LVU2657
 6927              	.LBE415:
 6928              	.LBE414:
 115:../Common/IQMath/ti/_IQNexp.c ****     }
 6929              		.loc 1 115 9 is_stmt 1 view .LVU2658
 115:../Common/IQMath/ti/_IQNexp.c ****     }
 6930              		.loc 1 115 46 is_stmt 0 view .LVU2659
 6931 008e 0246     		mov	r2, r0
 6932              	.LVL1020:
 115:../Common/IQMath/ti/_IQNexp.c ****     }
 6933              		.loc 1 115 34 view .LVU2660
 6934 0090 52F8041B 		ldr	r1, [r2], #4
 6935              	.LVL1021:
 115:../Common/IQMath/ti/_IQNexp.c ****     }
 6936              		.loc 1 115 31 view .LVU2661
 6937 0094 0B44     		add	r3, r3, r1
 6938              	.LVL1022:
 113:../Common/IQMath/ti/_IQNexp.c ****         uiq30FractionalResult = __mpyf_l(iq31Fractional, uiq30FractionalResult);
 6939              		.loc 1 113 51 is_stmt 1 view .LVU2662
 113:../Common/IQMath/ti/_IQNexp.c ****         uiq30FractionalResult = __mpyf_l(iq31Fractional, uiq30FractionalResult);
 6940              		.loc 1 113 59 is_stmt 0 view .LVU2663
 6941 0096 013C     		subs	r4, r4, #1
 6942              	.LVL1023:
 113:../Common/IQMath/ti/_IQNexp.c ****         uiq30FractionalResult = __mpyf_l(iq31Fractional, uiq30FractionalResult);
 6943              		.loc 1 113 59 view .LVU2664
 6944 0098 E4B2     		uxtb	r4, r4
 6945              	.LVL1024:
 115:../Common/IQMath/ti/_IQNexp.c ****     }
 6946              		.loc 1 115 46 view .LVU2665
 6947 009a 1046     		mov	r0, r2
 6948              	.LVL1025:
 6949              	.L269:
 113:../Common/IQMath/ti/_IQNexp.c ****         uiq30FractionalResult = __mpyf_l(iq31Fractional, uiq30FractionalResult);
 6950              		.loc 1 113 37 is_stmt 1 view .LVU2666
 113:../Common/IQMath/ti/_IQNexp.c ****         uiq30FractionalResult = __mpyf_l(iq31Fractional, uiq30FractionalResult);
 6951              		.loc 1 113 5 is_stmt 0 view .LVU2667
 6952 009c 002C     		cmp	r4, #0
 6953 009e E9D1     		bne	.L270
 119:../Common/IQMath/ti/_IQNexp.c ****     
 6954              		.loc 1 119 5 is_stmt 1 view .LVU2668
 119:../Common/IQMath/ti/_IQNexp.c ****     
 6955              		.loc 1 119 27 is_stmt 0 view .LVU2669
 6956 00a0 5B00     		lsls	r3, r3, #1
 6957              	.LVL1026:
 125:../Common/IQMath/ti/_IQNexp.c ****     
 6958              		.loc 1 125 5 is_stmt 1 view .LVU2670
 6959              	.LBB416:
 6960              	.LBI416:
ARM GAS  C:\Users\57308\AppData\Local\Temp\ccyuPR38.s 			page 176


 254:../Common/IQMath/ti/./support/RTS_support.h **** {
 6961              		.loc 2 254 29 view .LVU2671
 6962              	.LBB417:
 6963              		.loc 2 256 5 view .LVU2672
 6964              		.loc 2 256 49 is_stmt 0 view .LVU2673
 6965 00a2 A5FB0353 		umull	r5, r3, r5, r3
 6966              	.LVL1027:
 6967              		.loc 2 256 72 view .LVU2674
 6968 00a6 ED0F     		lsrs	r5, r5, #31
 6969 00a8 45EA4305 		orr	r5, r5, r3, lsl #1
 6970              	.LVL1028:
 6971              		.loc 2 256 72 view .LVU2675
 6972              	.LBE417:
 6973              	.LBE416:
 131:../Common/IQMath/ti/_IQNexp.c ****     
 6974              		.loc 1 131 5 is_stmt 1 view .LVU2676
 131:../Common/IQMath/ti/_IQNexp.c ****     
 6975              		.loc 1 131 5 is_stmt 0 view .LVU2677
 6976              	.LBE418:
 6977              	.LBE421:
  72:../Common/IQMath/ti/./support/RTS_support.h **** }
 6978              		.loc 2 72 5 is_stmt 1 view .LVU2678
 6979              	.LBB422:
 6980              	.LBB419:
 134:../Common/IQMath/ti/_IQNexp.c ****     uiqNResult >>= 1;
 6981              		.loc 1 134 5 view .LVU2679
 134:../Common/IQMath/ti/_IQNexp.c ****     uiqNResult >>= 1;
 6982              		.loc 1 134 15 is_stmt 0 view .LVU2680
 6983 00ac 0135     		adds	r5, r5, #1
 6984              	.LVL1029:
 135:../Common/IQMath/ti/_IQNexp.c ****     
 6985              		.loc 1 135 5 is_stmt 1 view .LVU2681
 135:../Common/IQMath/ti/_IQNexp.c ****     
 6986              		.loc 1 135 16 is_stmt 0 view .LVU2682
 6987 00ae 6808     		lsrs	r0, r5, #1
 6988              	.LVL1030:
 137:../Common/IQMath/ti/_IQNexp.c **** }
 6989              		.loc 1 137 5 is_stmt 1 view .LVU2683
 6990              	.L265:
 137:../Common/IQMath/ti/_IQNexp.c **** }
 6991              		.loc 1 137 5 is_stmt 0 view .LVU2684
 6992              	.LBE419:
 6993              	.LBE422:
 392:../Common/IQMath/ti/_IQNexp.c **** }
 6994              		.loc 1 392 1 view .LVU2685
 6995 00b0 30BC     		pop	{r4, r5}
 6996              	.LCFI67:
 6997              		.cfi_remember_state
 6998              		.cfi_restore 5
 6999              		.cfi_restore 4
 7000              		.cfi_def_cfa_offset 0
 7001 00b2 7047     		bx	lr
 7002              	.LVL1031:
 7003              	.L271:
 7004              	.LCFI68:
 7005              		.cfi_restore_state
 7006              	.LBB423:
ARM GAS  C:\Users\57308\AppData\Local\Temp\ccyuPR38.s 			page 177


 7007              	.LBB420:
  49:../Common/IQMath/ti/_IQNexp.c ****         }
 7008              		.loc 1 49 20 view .LVU2686
 7009 00b4 0020     		movs	r0, #0
 7010              	.LVL1032:
  49:../Common/IQMath/ti/_IQNexp.c ****         }
 7011              		.loc 1 49 20 view .LVU2687
 7012 00b6 FBE7     		b	.L265
 7013              	.LVL1033:
 7014              	.L272:
  74:../Common/IQMath/ti/_IQNexp.c ****         }
 7015              		.loc 1 74 20 view .LVU2688
 7016 00b8 6FF00040 		mvn	r0, #-2147483648
 7017              	.LVL1034:
  74:../Common/IQMath/ti/_IQNexp.c ****         }
 7018              		.loc 1 74 20 view .LVU2689
 7019              	.LBE420:
 7020              	.LBE423:
 391:../Common/IQMath/ti/_IQNexp.c **** }
 7021              		.loc 1 391 12 view .LVU2690
 7022 00bc F8E7     		b	.L265
 7023              	.L276:
 7024 00be 00BF     		.align	2
 7025              	.L275:
 7026 00c0 00000000 		.word	_IQNexp_offset
 7027 00c4 00000000 		.word	_IQNexp_min
 7028 00c8 00000000 		.word	_IQNexp_max
 7029 00cc 00000000 		.word	_IQNexp_lookup8
 7030 00d0 FB0BB958 		.word	1488522235
 7031 00d4 00000000 		.word	_IQ30exp_coeffs
 7032 00d8 05F446A7 		.word	-1488522235
 7033              		.cfi_endproc
 7034              	.LFE284:
 7036              		.section	.text._IQ7exp,"ax",%progbits
 7037              		.align	1
 7038              		.global	_IQ7exp
 7039              		.syntax unified
 7040              		.thumb
 7041              		.thumb_func
 7043              	_IQ7exp:
 7044              	.LVL1035:
 7045              	.LFB285:
 393:../Common/IQMath/ti/_IQNexp.c **** /**
 394:../Common/IQMath/ti/_IQNexp.c ****  * @brief Computes the exponential of an IQ7 input.
 395:../Common/IQMath/ti/_IQNexp.c ****  *
 396:../Common/IQMath/ti/_IQNexp.c ****  * @param a               IQ7 type input.
 397:../Common/IQMath/ti/_IQNexp.c ****  *
 398:../Common/IQMath/ti/_IQNexp.c ****  * @return                IQ7 type result of exponential.
 399:../Common/IQMath/ti/_IQNexp.c ****  */
 400:../Common/IQMath/ti/_IQNexp.c **** int32_t _IQ7exp(int32_t a)
 401:../Common/IQMath/ti/_IQNexp.c **** {
 7046              		.loc 1 401 1 is_stmt 1 view -0
 7047              		.cfi_startproc
 7048              		@ args = 0, pretend = 0, frame = 0
 7049              		@ frame_needed = 0, uses_anonymous_args = 0
 7050              		@ link register save eliminated.
 7051              		.loc 1 401 1 is_stmt 0 view .LVU2692
ARM GAS  C:\Users\57308\AppData\Local\Temp\ccyuPR38.s 			page 178


 7052 0000 30B4     		push	{r4, r5}
 7053              	.LCFI69:
 7054              		.cfi_def_cfa_offset 8
 7055              		.cfi_offset 4, -8
 7056              		.cfi_offset 5, -4
 402:../Common/IQMath/ti/_IQNexp.c ****     return __IQNexp(a, _IQNexp_lookup7, _IQNexp_offset[7-1], _IQNexp_min[7-1], _IQNexp_max[7-1], 7)
 7057              		.loc 1 402 5 is_stmt 1 view .LVU2693
 7058              		.loc 1 402 12 is_stmt 0 view .LVU2694
 7059 0002 2F4B     		ldr	r3, .L287
 7060 0004 1B7E     		ldrb	r3, [r3, #24]	@ zero_extendqisi2
 7061              		.loc 1 402 73 view .LVU2695
 7062 0006 2F4A     		ldr	r2, .L287+4
 7063 0008 9169     		ldr	r1, [r2, #24]
 7064              		.loc 1 402 91 view .LVU2696
 7065 000a 2F4A     		ldr	r2, .L287+8
 7066 000c 9269     		ldr	r2, [r2, #24]
 7067              	.LVL1036:
 7068              	.LBB430:
 7069              	.LBI430:
  32:../Common/IQMath/ti/_IQNexp.c **** {
 7070              		.loc 1 32 30 is_stmt 1 view .LVU2697
 7071              	.LBB431:
  34:../Common/IQMath/ti/_IQNexp.c ****     int_fast16_t i16Integer;
 7072              		.loc 1 34 5 view .LVU2698
  35:../Common/IQMath/ti/_IQNexp.c ****     uint_fast16_t ui16IntState;
 7073              		.loc 1 35 5 view .LVU2699
  36:../Common/IQMath/ti/_IQNexp.c ****     uint_fast16_t ui16MPYState;
 7074              		.loc 1 36 5 view .LVU2700
  37:../Common/IQMath/ti/_IQNexp.c ****     int_fast32_t iq31Fractional;
 7075              		.loc 1 37 5 view .LVU2701
  38:../Common/IQMath/ti/_IQNexp.c ****     uint_fast32_t uiqNResult;
 7076              		.loc 1 38 5 view .LVU2702
  39:../Common/IQMath/ti/_IQNexp.c ****     uint_fast32_t uiqNIntegerResult;
 7077              		.loc 1 39 5 view .LVU2703
  40:../Common/IQMath/ti/_IQNexp.c ****     uint_fast32_t uiq30FractionalResult;
 7078              		.loc 1 40 5 view .LVU2704
  41:../Common/IQMath/ti/_IQNexp.c ****     uint_fast32_t uiq31FractionalResult;
 7079              		.loc 1 41 5 view .LVU2705
  42:../Common/IQMath/ti/_IQNexp.c ****     const uint_fast32_t *piq30Coeffs;
 7080              		.loc 1 42 5 view .LVU2706
  43:../Common/IQMath/ti/_IQNexp.c ****     
 7081              		.loc 1 43 5 view .LVU2707
  46:../Common/IQMath/ti/_IQNexp.c ****         /* Check for the minimum value. */
 7082              		.loc 1 46 5 view .LVU2708
  46:../Common/IQMath/ti/_IQNexp.c ****         /* Check for the minimum value. */
 7083              		.loc 1 46 8 is_stmt 0 view .LVU2709
 7084 000e 0028     		cmp	r0, #0
  46:../Common/IQMath/ti/_IQNexp.c ****         /* Check for the minimum value. */
 7085              		.loc 1 46 8 view .LVU2710
 7086 0010 19DB     		blt	.L286
  73:../Common/IQMath/ti/_IQNexp.c ****             return INT32_MAX;
 7087              		.loc 1 73 9 is_stmt 1 view .LVU2711
  73:../Common/IQMath/ti/_IQNexp.c ****             return INT32_MAX;
 7088              		.loc 1 73 12 is_stmt 0 view .LVU2712
 7089 0012 8242     		cmp	r2, r0
 7090 0014 50DB     		blt	.L284
  78:../Common/IQMath/ti/_IQNexp.c ****         iq31Fractional <<= (31 - q_value);
ARM GAS  C:\Users\57308\AppData\Local\Temp\ccyuPR38.s 			page 179


 7091              		.loc 1 78 9 is_stmt 1 view .LVU2713
 7092              	.LVL1037:
  79:../Common/IQMath/ti/_IQNexp.c ****         iq31Fractional &= 0x7fffffff;
 7093              		.loc 1 79 9 view .LVU2714
  79:../Common/IQMath/ti/_IQNexp.c ****         iq31Fractional &= 0x7fffffff;
 7094              		.loc 1 79 24 is_stmt 0 view .LVU2715
 7095 0016 4FEA006C 		lsl	ip, r0, #24
 7096              	.LVL1038:
  80:../Common/IQMath/ti/_IQNexp.c ****     
 7097              		.loc 1 80 9 is_stmt 1 view .LVU2716
  80:../Common/IQMath/ti/_IQNexp.c ****     
 7098              		.loc 1 80 24 is_stmt 0 view .LVU2717
 7099 001a 2CF0004C 		bic	ip, ip, #-2147483648
 7100              	.LVL1039:
  83:../Common/IQMath/ti/_IQNexp.c ****     
 7101              		.loc 1 83 9 is_stmt 1 view .LVU2718
  86:../Common/IQMath/ti/_IQNexp.c ****         uiqNIntegerResult = iqNLookupTable[i16Integer];
 7102              		.loc 1 86 9 view .LVU2719
  86:../Common/IQMath/ti/_IQNexp.c ****         uiqNIntegerResult = iqNLookupTable[i16Integer];
 7103              		.loc 1 86 20 is_stmt 0 view .LVU2720
 7104 001e 03EBE010 		add	r0, r3, r0, asr #7
 7105              	.LVL1040:
  87:../Common/IQMath/ti/_IQNexp.c ****         
 7106              		.loc 1 87 9 is_stmt 1 view .LVU2721
  87:../Common/IQMath/ti/_IQNexp.c ****         
 7107              		.loc 1 87 43 is_stmt 0 view .LVU2722
 7108 0022 2A4B     		ldr	r3, .L287+12
 7109              	.LVL1041:
  87:../Common/IQMath/ti/_IQNexp.c ****         
 7110              		.loc 1 87 27 view .LVU2723
 7111 0024 53F82050 		ldr	r5, [r3, r0, lsl #2]
 7112              	.LVL1042:
  90:../Common/IQMath/ti/_IQNexp.c ****             iq31Fractional -= iq31_ln2;
 7113              		.loc 1 90 9 is_stmt 1 view .LVU2724
  90:../Common/IQMath/ti/_IQNexp.c ****             iq31Fractional -= iq31_ln2;
 7114              		.loc 1 90 12 is_stmt 0 view .LVU2725
 7115 0028 294B     		ldr	r3, .L287+16
 7116 002a 9C45     		cmp	ip, r3
 7117 002c 06DD     		ble	.L280
  91:../Common/IQMath/ti/_IQNexp.c ****             uiqNIntegerResult <<= 1;
 7118              		.loc 1 91 13 is_stmt 1 view .LVU2726
  91:../Common/IQMath/ti/_IQNexp.c ****             uiqNIntegerResult <<= 1;
 7119              		.loc 1 91 28 is_stmt 0 view .LVU2727
 7120 002e ACF1B14C 		sub	ip, ip, #1484783616
 7121              	.LVL1043:
  91:../Common/IQMath/ti/_IQNexp.c ****             uiqNIntegerResult <<= 1;
 7122              		.loc 1 91 28 view .LVU2728
 7123 0032 ACF5641C 		sub	ip, ip, #3735552
 7124              	.LVL1044:
  91:../Common/IQMath/ti/_IQNexp.c ****             uiqNIntegerResult <<= 1;
 7125              		.loc 1 91 28 view .LVU2729
 7126 0036 ACF6FC3C 		subw	ip, ip, #3068
 7127              	.LVL1045:
  92:../Common/IQMath/ti/_IQNexp.c ****         }
 7128              		.loc 1 92 13 is_stmt 1 view .LVU2730
  92:../Common/IQMath/ti/_IQNexp.c ****         }
 7129              		.loc 1 92 31 is_stmt 0 view .LVU2731
ARM GAS  C:\Users\57308\AppData\Local\Temp\ccyuPR38.s 			page 180


 7130 003a 6D00     		lsls	r5, r5, #1
 7131              	.LVL1046:
 7132              	.L280:
 102:../Common/IQMath/ti/_IQNexp.c ****     
 7133              		.loc 1 102 5 is_stmt 1 view .LVU2732
 102:../Common/IQMath/ti/_IQNexp.c ****     
 7134              		.loc 1 102 5 is_stmt 0 view .LVU2733
 7135              	.LBE431:
 7136              	.LBE430:
  28:../Common/IQMath/ti/./support/RTS_support.h **** }
 7137              		.loc 2 28 5 is_stmt 1 view .LVU2734
 7138              	.LBB439:
 7139              	.LBB436:
 109:../Common/IQMath/ti/_IQNexp.c ****     uiq30FractionalResult = *piq30Coeffs++;
 7140              		.loc 1 109 5 view .LVU2735
 110:../Common/IQMath/ti/_IQNexp.c ****     
 7141              		.loc 1 110 5 view .LVU2736
 110:../Common/IQMath/ti/_IQNexp.c ****     
 7142              		.loc 1 110 27 is_stmt 0 view .LVU2737
 7143 003c 2548     		ldr	r0, .L287+20
 7144              	.LVL1047:
 110:../Common/IQMath/ti/_IQNexp.c ****     
 7145              		.loc 1 110 27 view .LVU2738
 7146 003e 50F8043B 		ldr	r3, [r0], #4
 7147              	.LVL1048:
 113:../Common/IQMath/ti/_IQNexp.c ****         uiq30FractionalResult = __mpyf_l(iq31Fractional, uiq30FractionalResult);
 7148              		.loc 1 113 5 is_stmt 1 view .LVU2739
 113:../Common/IQMath/ti/_IQNexp.c ****         uiq30FractionalResult = __mpyf_l(iq31Fractional, uiq30FractionalResult);
 7149              		.loc 1 113 19 is_stmt 0 view .LVU2740
 7150 0042 0A24     		movs	r4, #10
 113:../Common/IQMath/ti/_IQNexp.c ****         uiq30FractionalResult = __mpyf_l(iq31Fractional, uiq30FractionalResult);
 7151              		.loc 1 113 5 view .LVU2741
 7152 0044 2AE0     		b	.L281
 7153              	.LVL1049:
 7154              	.L286:
  48:../Common/IQMath/ti/_IQNexp.c ****             return 0;
 7155              		.loc 1 48 9 is_stmt 1 view .LVU2742
  48:../Common/IQMath/ti/_IQNexp.c ****             return 0;
 7156              		.loc 1 48 12 is_stmt 0 view .LVU2743
 7157 0046 8142     		cmp	r1, r0
 7158 0048 34DC     		bgt	.L283
  53:../Common/IQMath/ti/_IQNexp.c ****         iq31Fractional <<= (31 - q_value);
 7159              		.loc 1 53 9 is_stmt 1 view .LVU2744
 7160              	.LVL1050:
  54:../Common/IQMath/ti/_IQNexp.c ****         iq31Fractional |= 0x80000000;
 7161              		.loc 1 54 9 view .LVU2745
  54:../Common/IQMath/ti/_IQNexp.c ****         iq31Fractional |= 0x80000000;
 7162              		.loc 1 54 24 is_stmt 0 view .LVU2746
 7163 004a 4FEA006C 		lsl	ip, r0, #24
 7164              	.LVL1051:
  55:../Common/IQMath/ti/_IQNexp.c ****     
 7165              		.loc 1 55 9 is_stmt 1 view .LVU2747
  55:../Common/IQMath/ti/_IQNexp.c ****     
 7166              		.loc 1 55 24 is_stmt 0 view .LVU2748
 7167 004e 4CF0004C 		orr	ip, ip, #-2147483648
 7168              	.LVL1052:
  58:../Common/IQMath/ti/_IQNexp.c ****     
ARM GAS  C:\Users\57308\AppData\Local\Temp\ccyuPR38.s 			page 181


 7169              		.loc 1 58 9 is_stmt 1 view .LVU2749
  58:../Common/IQMath/ti/_IQNexp.c ****     
 7170              		.loc 1 58 46 is_stmt 0 view .LVU2750
 7171 0052 C011     		asrs	r0, r0, #7
 7172              	.LVL1053:
  58:../Common/IQMath/ti/_IQNexp.c ****     
 7173              		.loc 1 58 20 view .LVU2751
 7174 0054 0130     		adds	r0, r0, #1
 7175              	.LVL1054:
  61:../Common/IQMath/ti/_IQNexp.c ****         uiqNIntegerResult = iqNLookupTable[i16Integer];
 7176              		.loc 1 61 9 is_stmt 1 view .LVU2752
  61:../Common/IQMath/ti/_IQNexp.c ****         uiqNIntegerResult = iqNLookupTable[i16Integer];
 7177              		.loc 1 61 20 is_stmt 0 view .LVU2753
 7178 0056 1844     		add	r0, r0, r3
 7179              	.LVL1055:
  62:../Common/IQMath/ti/_IQNexp.c ****         
 7180              		.loc 1 62 9 is_stmt 1 view .LVU2754
  62:../Common/IQMath/ti/_IQNexp.c ****         
 7181              		.loc 1 62 43 is_stmt 0 view .LVU2755
 7182 0058 1C4B     		ldr	r3, .L287+12
 7183              	.LVL1056:
  62:../Common/IQMath/ti/_IQNexp.c ****         
 7184              		.loc 1 62 27 view .LVU2756
 7185 005a 53F82050 		ldr	r5, [r3, r0, lsl #2]
 7186              	.LVL1057:
  65:../Common/IQMath/ti/_IQNexp.c ****             iq31Fractional += iq31_ln2;
 7187              		.loc 1 65 9 is_stmt 1 view .LVU2757
  65:../Common/IQMath/ti/_IQNexp.c ****             iq31Fractional += iq31_ln2;
 7188              		.loc 1 65 12 is_stmt 0 view .LVU2758
 7189 005e 1E4B     		ldr	r3, .L287+24
 7190 0060 9C45     		cmp	ip, r3
 7191 0062 EBDA     		bge	.L280
  66:../Common/IQMath/ti/_IQNexp.c ****             uiqNIntegerResult >>= 1;
 7192              		.loc 1 66 13 is_stmt 1 view .LVU2759
  66:../Common/IQMath/ti/_IQNexp.c ****             uiqNIntegerResult >>= 1;
 7193              		.loc 1 66 28 is_stmt 0 view .LVU2760
 7194 0064 0CF1B14C 		add	ip, ip, #1484783616
 7195              	.LVL1058:
  66:../Common/IQMath/ti/_IQNexp.c ****             uiqNIntegerResult >>= 1;
 7196              		.loc 1 66 28 view .LVU2761
 7197 0068 0CF5641C 		add	ip, ip, #3735552
 7198              	.LVL1059:
  66:../Common/IQMath/ti/_IQNexp.c ****             uiqNIntegerResult >>= 1;
 7199              		.loc 1 66 28 view .LVU2762
 7200 006c 0CF6FC3C 		addw	ip, ip, #3068
 7201              	.LVL1060:
  67:../Common/IQMath/ti/_IQNexp.c ****         }
 7202              		.loc 1 67 13 is_stmt 1 view .LVU2763
  67:../Common/IQMath/ti/_IQNexp.c ****         }
 7203              		.loc 1 67 31 is_stmt 0 view .LVU2764
 7204 0070 6D08     		lsrs	r5, r5, #1
 7205              	.LVL1061:
  67:../Common/IQMath/ti/_IQNexp.c ****         }
 7206              		.loc 1 67 31 view .LVU2765
 7207 0072 E3E7     		b	.L280
 7208              	.LVL1062:
 7209              	.L282:
ARM GAS  C:\Users\57308\AppData\Local\Temp\ccyuPR38.s 			page 182


 114:../Common/IQMath/ti/_IQNexp.c ****         uiq30FractionalResult += *piq30Coeffs++;
 7210              		.loc 1 114 9 is_stmt 1 view .LVU2766
 7211              	.LBB432:
 7212              	.LBI432:
 233:../Common/IQMath/ti/./support/RTS_support.h **** {
 7213              		.loc 2 233 28 view .LVU2767
 7214              	.LBB433:
 235:../Common/IQMath/ti/./support/RTS_support.h **** }
 7215              		.loc 2 235 5 view .LVU2768
 235:../Common/IQMath/ti/./support/RTS_support.h **** }
 7216              		.loc 2 235 28 is_stmt 0 view .LVU2769
 7217 0074 4FEAEC72 		asr	r2, ip, #31
 235:../Common/IQMath/ti/./support/RTS_support.h **** }
 7218              		.loc 2 235 49 view .LVU2770
 7219 0078 D917     		asrs	r1, r3, #31
 235:../Common/IQMath/ti/./support/RTS_support.h **** }
 7220              		.loc 2 235 47 view .LVU2771
 7221 007a 0CFB01F1 		mul	r1, ip, r1
 7222 007e 03FB0212 		mla	r2, r3, r2, r1
 7223 0082 ACFB0331 		umull	r3, r1, ip, r3
 7224              	.LVL1063:
 235:../Common/IQMath/ti/./support/RTS_support.h **** }
 7225              		.loc 2 235 47 view .LVU2772
 7226 0086 0A44     		add	r2, r2, r1
 235:../Common/IQMath/ti/./support/RTS_support.h **** }
 7227              		.loc 2 235 69 view .LVU2773
 7228 0088 DB0F     		lsrs	r3, r3, #31
 7229 008a 43EA4203 		orr	r3, r3, r2, lsl #1
 7230              	.LVL1064:
 235:../Common/IQMath/ti/./support/RTS_support.h **** }
 7231              		.loc 2 235 69 view .LVU2774
 7232              	.LBE433:
 7233              	.LBE432:
 115:../Common/IQMath/ti/_IQNexp.c ****     }
 7234              		.loc 1 115 9 is_stmt 1 view .LVU2775
 115:../Common/IQMath/ti/_IQNexp.c ****     }
 7235              		.loc 1 115 46 is_stmt 0 view .LVU2776
 7236 008e 0246     		mov	r2, r0
 7237              	.LVL1065:
 115:../Common/IQMath/ti/_IQNexp.c ****     }
 7238              		.loc 1 115 34 view .LVU2777
 7239 0090 52F8041B 		ldr	r1, [r2], #4
 7240              	.LVL1066:
 115:../Common/IQMath/ti/_IQNexp.c ****     }
 7241              		.loc 1 115 31 view .LVU2778
 7242 0094 0B44     		add	r3, r3, r1
 7243              	.LVL1067:
 113:../Common/IQMath/ti/_IQNexp.c ****         uiq30FractionalResult = __mpyf_l(iq31Fractional, uiq30FractionalResult);
 7244              		.loc 1 113 51 is_stmt 1 view .LVU2779
 113:../Common/IQMath/ti/_IQNexp.c ****         uiq30FractionalResult = __mpyf_l(iq31Fractional, uiq30FractionalResult);
 7245              		.loc 1 113 59 is_stmt 0 view .LVU2780
 7246 0096 013C     		subs	r4, r4, #1
 7247              	.LVL1068:
 113:../Common/IQMath/ti/_IQNexp.c ****         uiq30FractionalResult = __mpyf_l(iq31Fractional, uiq30FractionalResult);
 7248              		.loc 1 113 59 view .LVU2781
 7249 0098 E4B2     		uxtb	r4, r4
 7250              	.LVL1069:
ARM GAS  C:\Users\57308\AppData\Local\Temp\ccyuPR38.s 			page 183


 115:../Common/IQMath/ti/_IQNexp.c ****     }
 7251              		.loc 1 115 46 view .LVU2782
 7252 009a 1046     		mov	r0, r2
 7253              	.LVL1070:
 7254              	.L281:
 113:../Common/IQMath/ti/_IQNexp.c ****         uiq30FractionalResult = __mpyf_l(iq31Fractional, uiq30FractionalResult);
 7255              		.loc 1 113 37 is_stmt 1 view .LVU2783
 113:../Common/IQMath/ti/_IQNexp.c ****         uiq30FractionalResult = __mpyf_l(iq31Fractional, uiq30FractionalResult);
 7256              		.loc 1 113 5 is_stmt 0 view .LVU2784
 7257 009c 002C     		cmp	r4, #0
 7258 009e E9D1     		bne	.L282
 119:../Common/IQMath/ti/_IQNexp.c ****     
 7259              		.loc 1 119 5 is_stmt 1 view .LVU2785
 119:../Common/IQMath/ti/_IQNexp.c ****     
 7260              		.loc 1 119 27 is_stmt 0 view .LVU2786
 7261 00a0 5B00     		lsls	r3, r3, #1
 7262              	.LVL1071:
 125:../Common/IQMath/ti/_IQNexp.c ****     
 7263              		.loc 1 125 5 is_stmt 1 view .LVU2787
 7264              	.LBB434:
 7265              	.LBI434:
 254:../Common/IQMath/ti/./support/RTS_support.h **** {
 7266              		.loc 2 254 29 view .LVU2788
 7267              	.LBB435:
 7268              		.loc 2 256 5 view .LVU2789
 7269              		.loc 2 256 49 is_stmt 0 view .LVU2790
 7270 00a2 A5FB0353 		umull	r5, r3, r5, r3
 7271              	.LVL1072:
 7272              		.loc 2 256 72 view .LVU2791
 7273 00a6 ED0F     		lsrs	r5, r5, #31
 7274 00a8 45EA4305 		orr	r5, r5, r3, lsl #1
 7275              	.LVL1073:
 7276              		.loc 2 256 72 view .LVU2792
 7277              	.LBE435:
 7278              	.LBE434:
 131:../Common/IQMath/ti/_IQNexp.c ****     
 7279              		.loc 1 131 5 is_stmt 1 view .LVU2793
 131:../Common/IQMath/ti/_IQNexp.c ****     
 7280              		.loc 1 131 5 is_stmt 0 view .LVU2794
 7281              	.LBE436:
 7282              	.LBE439:
  72:../Common/IQMath/ti/./support/RTS_support.h **** }
 7283              		.loc 2 72 5 is_stmt 1 view .LVU2795
 7284              	.LBB440:
 7285              	.LBB437:
 134:../Common/IQMath/ti/_IQNexp.c ****     uiqNResult >>= 1;
 7286              		.loc 1 134 5 view .LVU2796
 134:../Common/IQMath/ti/_IQNexp.c ****     uiqNResult >>= 1;
 7287              		.loc 1 134 15 is_stmt 0 view .LVU2797
 7288 00ac 0135     		adds	r5, r5, #1
 7289              	.LVL1074:
 135:../Common/IQMath/ti/_IQNexp.c ****     
 7290              		.loc 1 135 5 is_stmt 1 view .LVU2798
 135:../Common/IQMath/ti/_IQNexp.c ****     
 7291              		.loc 1 135 16 is_stmt 0 view .LVU2799
 7292 00ae 6808     		lsrs	r0, r5, #1
 7293              	.LVL1075:
ARM GAS  C:\Users\57308\AppData\Local\Temp\ccyuPR38.s 			page 184


 137:../Common/IQMath/ti/_IQNexp.c **** }
 7294              		.loc 1 137 5 is_stmt 1 view .LVU2800
 7295              	.L277:
 137:../Common/IQMath/ti/_IQNexp.c **** }
 7296              		.loc 1 137 5 is_stmt 0 view .LVU2801
 7297              	.LBE437:
 7298              	.LBE440:
 403:../Common/IQMath/ti/_IQNexp.c **** }
 7299              		.loc 1 403 1 view .LVU2802
 7300 00b0 30BC     		pop	{r4, r5}
 7301              	.LCFI70:
 7302              		.cfi_remember_state
 7303              		.cfi_restore 5
 7304              		.cfi_restore 4
 7305              		.cfi_def_cfa_offset 0
 7306 00b2 7047     		bx	lr
 7307              	.LVL1076:
 7308              	.L283:
 7309              	.LCFI71:
 7310              		.cfi_restore_state
 7311              	.LBB441:
 7312              	.LBB438:
  49:../Common/IQMath/ti/_IQNexp.c ****         }
 7313              		.loc 1 49 20 view .LVU2803
 7314 00b4 0020     		movs	r0, #0
 7315              	.LVL1077:
  49:../Common/IQMath/ti/_IQNexp.c ****         }
 7316              		.loc 1 49 20 view .LVU2804
 7317 00b6 FBE7     		b	.L277
 7318              	.LVL1078:
 7319              	.L284:
  74:../Common/IQMath/ti/_IQNexp.c ****         }
 7320              		.loc 1 74 20 view .LVU2805
 7321 00b8 6FF00040 		mvn	r0, #-2147483648
 7322              	.LVL1079:
  74:../Common/IQMath/ti/_IQNexp.c ****         }
 7323              		.loc 1 74 20 view .LVU2806
 7324              	.LBE438:
 7325              	.LBE441:
 402:../Common/IQMath/ti/_IQNexp.c **** }
 7326              		.loc 1 402 12 view .LVU2807
 7327 00bc F8E7     		b	.L277
 7328              	.L288:
 7329 00be 00BF     		.align	2
 7330              	.L287:
 7331 00c0 00000000 		.word	_IQNexp_offset
 7332 00c4 00000000 		.word	_IQNexp_min
 7333 00c8 00000000 		.word	_IQNexp_max
 7334 00cc 00000000 		.word	_IQNexp_lookup7
 7335 00d0 FB0BB958 		.word	1488522235
 7336 00d4 00000000 		.word	_IQ30exp_coeffs
 7337 00d8 05F446A7 		.word	-1488522235
 7338              		.cfi_endproc
 7339              	.LFE285:
 7341              		.section	.text._IQ6exp,"ax",%progbits
 7342              		.align	1
 7343              		.global	_IQ6exp
ARM GAS  C:\Users\57308\AppData\Local\Temp\ccyuPR38.s 			page 185


 7344              		.syntax unified
 7345              		.thumb
 7346              		.thumb_func
 7348              	_IQ6exp:
 7349              	.LVL1080:
 7350              	.LFB286:
 404:../Common/IQMath/ti/_IQNexp.c **** /**
 405:../Common/IQMath/ti/_IQNexp.c ****  * @brief Computes the exponential of an IQ6 input.
 406:../Common/IQMath/ti/_IQNexp.c ****  *
 407:../Common/IQMath/ti/_IQNexp.c ****  * @param a               IQ6 type input.
 408:../Common/IQMath/ti/_IQNexp.c ****  *
 409:../Common/IQMath/ti/_IQNexp.c ****  * @return                IQ6 type result of exponential.
 410:../Common/IQMath/ti/_IQNexp.c ****  */
 411:../Common/IQMath/ti/_IQNexp.c **** int32_t _IQ6exp(int32_t a)
 412:../Common/IQMath/ti/_IQNexp.c **** {
 7351              		.loc 1 412 1 is_stmt 1 view -0
 7352              		.cfi_startproc
 7353              		@ args = 0, pretend = 0, frame = 0
 7354              		@ frame_needed = 0, uses_anonymous_args = 0
 7355              		@ link register save eliminated.
 7356              		.loc 1 412 1 is_stmt 0 view .LVU2809
 7357 0000 30B4     		push	{r4, r5}
 7358              	.LCFI72:
 7359              		.cfi_def_cfa_offset 8
 7360              		.cfi_offset 4, -8
 7361              		.cfi_offset 5, -4
 413:../Common/IQMath/ti/_IQNexp.c ****     return __IQNexp(a, _IQNexp_lookup6, _IQNexp_offset[6-1], _IQNexp_min[6-1], _IQNexp_max[6-1], 6)
 7362              		.loc 1 413 5 is_stmt 1 view .LVU2810
 7363              		.loc 1 413 12 is_stmt 0 view .LVU2811
 7364 0002 2F4B     		ldr	r3, .L299
 7365 0004 1B7D     		ldrb	r3, [r3, #20]	@ zero_extendqisi2
 7366              		.loc 1 413 73 view .LVU2812
 7367 0006 2F4A     		ldr	r2, .L299+4
 7368 0008 5169     		ldr	r1, [r2, #20]
 7369              		.loc 1 413 91 view .LVU2813
 7370 000a 2F4A     		ldr	r2, .L299+8
 7371 000c 5269     		ldr	r2, [r2, #20]
 7372              	.LVL1081:
 7373              	.LBB448:
 7374              	.LBI448:
  32:../Common/IQMath/ti/_IQNexp.c **** {
 7375              		.loc 1 32 30 is_stmt 1 view .LVU2814
 7376              	.LBB449:
  34:../Common/IQMath/ti/_IQNexp.c ****     int_fast16_t i16Integer;
 7377              		.loc 1 34 5 view .LVU2815
  35:../Common/IQMath/ti/_IQNexp.c ****     uint_fast16_t ui16IntState;
 7378              		.loc 1 35 5 view .LVU2816
  36:../Common/IQMath/ti/_IQNexp.c ****     uint_fast16_t ui16MPYState;
 7379              		.loc 1 36 5 view .LVU2817
  37:../Common/IQMath/ti/_IQNexp.c ****     int_fast32_t iq31Fractional;
 7380              		.loc 1 37 5 view .LVU2818
  38:../Common/IQMath/ti/_IQNexp.c ****     uint_fast32_t uiqNResult;
 7381              		.loc 1 38 5 view .LVU2819
  39:../Common/IQMath/ti/_IQNexp.c ****     uint_fast32_t uiqNIntegerResult;
 7382              		.loc 1 39 5 view .LVU2820
  40:../Common/IQMath/ti/_IQNexp.c ****     uint_fast32_t uiq30FractionalResult;
 7383              		.loc 1 40 5 view .LVU2821
ARM GAS  C:\Users\57308\AppData\Local\Temp\ccyuPR38.s 			page 186


  41:../Common/IQMath/ti/_IQNexp.c ****     uint_fast32_t uiq31FractionalResult;
 7384              		.loc 1 41 5 view .LVU2822
  42:../Common/IQMath/ti/_IQNexp.c ****     const uint_fast32_t *piq30Coeffs;
 7385              		.loc 1 42 5 view .LVU2823
  43:../Common/IQMath/ti/_IQNexp.c ****     
 7386              		.loc 1 43 5 view .LVU2824
  46:../Common/IQMath/ti/_IQNexp.c ****         /* Check for the minimum value. */
 7387              		.loc 1 46 5 view .LVU2825
  46:../Common/IQMath/ti/_IQNexp.c ****         /* Check for the minimum value. */
 7388              		.loc 1 46 8 is_stmt 0 view .LVU2826
 7389 000e 0028     		cmp	r0, #0
  46:../Common/IQMath/ti/_IQNexp.c ****         /* Check for the minimum value. */
 7390              		.loc 1 46 8 view .LVU2827
 7391 0010 19DB     		blt	.L298
  73:../Common/IQMath/ti/_IQNexp.c ****             return INT32_MAX;
 7392              		.loc 1 73 9 is_stmt 1 view .LVU2828
  73:../Common/IQMath/ti/_IQNexp.c ****             return INT32_MAX;
 7393              		.loc 1 73 12 is_stmt 0 view .LVU2829
 7394 0012 8242     		cmp	r2, r0
 7395 0014 50DB     		blt	.L296
  78:../Common/IQMath/ti/_IQNexp.c ****         iq31Fractional <<= (31 - q_value);
 7396              		.loc 1 78 9 is_stmt 1 view .LVU2830
 7397              	.LVL1082:
  79:../Common/IQMath/ti/_IQNexp.c ****         iq31Fractional &= 0x7fffffff;
 7398              		.loc 1 79 9 view .LVU2831
  79:../Common/IQMath/ti/_IQNexp.c ****         iq31Fractional &= 0x7fffffff;
 7399              		.loc 1 79 24 is_stmt 0 view .LVU2832
 7400 0016 4FEA406C 		lsl	ip, r0, #25
 7401              	.LVL1083:
  80:../Common/IQMath/ti/_IQNexp.c ****     
 7402              		.loc 1 80 9 is_stmt 1 view .LVU2833
  80:../Common/IQMath/ti/_IQNexp.c ****     
 7403              		.loc 1 80 24 is_stmt 0 view .LVU2834
 7404 001a 2CF0004C 		bic	ip, ip, #-2147483648
 7405              	.LVL1084:
  83:../Common/IQMath/ti/_IQNexp.c ****     
 7406              		.loc 1 83 9 is_stmt 1 view .LVU2835
  86:../Common/IQMath/ti/_IQNexp.c ****         uiqNIntegerResult = iqNLookupTable[i16Integer];
 7407              		.loc 1 86 9 view .LVU2836
  86:../Common/IQMath/ti/_IQNexp.c ****         uiqNIntegerResult = iqNLookupTable[i16Integer];
 7408              		.loc 1 86 20 is_stmt 0 view .LVU2837
 7409 001e 03EBA010 		add	r0, r3, r0, asr #6
 7410              	.LVL1085:
  87:../Common/IQMath/ti/_IQNexp.c ****         
 7411              		.loc 1 87 9 is_stmt 1 view .LVU2838
  87:../Common/IQMath/ti/_IQNexp.c ****         
 7412              		.loc 1 87 43 is_stmt 0 view .LVU2839
 7413 0022 2A4B     		ldr	r3, .L299+12
 7414              	.LVL1086:
  87:../Common/IQMath/ti/_IQNexp.c ****         
 7415              		.loc 1 87 27 view .LVU2840
 7416 0024 53F82050 		ldr	r5, [r3, r0, lsl #2]
 7417              	.LVL1087:
  90:../Common/IQMath/ti/_IQNexp.c ****             iq31Fractional -= iq31_ln2;
 7418              		.loc 1 90 9 is_stmt 1 view .LVU2841
  90:../Common/IQMath/ti/_IQNexp.c ****             iq31Fractional -= iq31_ln2;
 7419              		.loc 1 90 12 is_stmt 0 view .LVU2842
ARM GAS  C:\Users\57308\AppData\Local\Temp\ccyuPR38.s 			page 187


 7420 0028 294B     		ldr	r3, .L299+16
 7421 002a 9C45     		cmp	ip, r3
 7422 002c 06DD     		ble	.L292
  91:../Common/IQMath/ti/_IQNexp.c ****             uiqNIntegerResult <<= 1;
 7423              		.loc 1 91 13 is_stmt 1 view .LVU2843
  91:../Common/IQMath/ti/_IQNexp.c ****             uiqNIntegerResult <<= 1;
 7424              		.loc 1 91 28 is_stmt 0 view .LVU2844
 7425 002e ACF1B14C 		sub	ip, ip, #1484783616
 7426              	.LVL1088:
  91:../Common/IQMath/ti/_IQNexp.c ****             uiqNIntegerResult <<= 1;
 7427              		.loc 1 91 28 view .LVU2845
 7428 0032 ACF5641C 		sub	ip, ip, #3735552
 7429              	.LVL1089:
  91:../Common/IQMath/ti/_IQNexp.c ****             uiqNIntegerResult <<= 1;
 7430              		.loc 1 91 28 view .LVU2846
 7431 0036 ACF6FC3C 		subw	ip, ip, #3068
 7432              	.LVL1090:
  92:../Common/IQMath/ti/_IQNexp.c ****         }
 7433              		.loc 1 92 13 is_stmt 1 view .LVU2847
  92:../Common/IQMath/ti/_IQNexp.c ****         }
 7434              		.loc 1 92 31 is_stmt 0 view .LVU2848
 7435 003a 6D00     		lsls	r5, r5, #1
 7436              	.LVL1091:
 7437              	.L292:
 102:../Common/IQMath/ti/_IQNexp.c ****     
 7438              		.loc 1 102 5 is_stmt 1 view .LVU2849
 102:../Common/IQMath/ti/_IQNexp.c ****     
 7439              		.loc 1 102 5 is_stmt 0 view .LVU2850
 7440              	.LBE449:
 7441              	.LBE448:
  28:../Common/IQMath/ti/./support/RTS_support.h **** }
 7442              		.loc 2 28 5 is_stmt 1 view .LVU2851
 7443              	.LBB457:
 7444              	.LBB454:
 109:../Common/IQMath/ti/_IQNexp.c ****     uiq30FractionalResult = *piq30Coeffs++;
 7445              		.loc 1 109 5 view .LVU2852
 110:../Common/IQMath/ti/_IQNexp.c ****     
 7446              		.loc 1 110 5 view .LVU2853
 110:../Common/IQMath/ti/_IQNexp.c ****     
 7447              		.loc 1 110 27 is_stmt 0 view .LVU2854
 7448 003c 2548     		ldr	r0, .L299+20
 7449              	.LVL1092:
 110:../Common/IQMath/ti/_IQNexp.c ****     
 7450              		.loc 1 110 27 view .LVU2855
 7451 003e 50F8043B 		ldr	r3, [r0], #4
 7452              	.LVL1093:
 113:../Common/IQMath/ti/_IQNexp.c ****         uiq30FractionalResult = __mpyf_l(iq31Fractional, uiq30FractionalResult);
 7453              		.loc 1 113 5 is_stmt 1 view .LVU2856
 113:../Common/IQMath/ti/_IQNexp.c ****         uiq30FractionalResult = __mpyf_l(iq31Fractional, uiq30FractionalResult);
 7454              		.loc 1 113 19 is_stmt 0 view .LVU2857
 7455 0042 0A24     		movs	r4, #10
 113:../Common/IQMath/ti/_IQNexp.c ****         uiq30FractionalResult = __mpyf_l(iq31Fractional, uiq30FractionalResult);
 7456              		.loc 1 113 5 view .LVU2858
 7457 0044 2AE0     		b	.L293
 7458              	.LVL1094:
 7459              	.L298:
  48:../Common/IQMath/ti/_IQNexp.c ****             return 0;
ARM GAS  C:\Users\57308\AppData\Local\Temp\ccyuPR38.s 			page 188


 7460              		.loc 1 48 9 is_stmt 1 view .LVU2859
  48:../Common/IQMath/ti/_IQNexp.c ****             return 0;
 7461              		.loc 1 48 12 is_stmt 0 view .LVU2860
 7462 0046 8142     		cmp	r1, r0
 7463 0048 34DC     		bgt	.L295
  53:../Common/IQMath/ti/_IQNexp.c ****         iq31Fractional <<= (31 - q_value);
 7464              		.loc 1 53 9 is_stmt 1 view .LVU2861
 7465              	.LVL1095:
  54:../Common/IQMath/ti/_IQNexp.c ****         iq31Fractional |= 0x80000000;
 7466              		.loc 1 54 9 view .LVU2862
  54:../Common/IQMath/ti/_IQNexp.c ****         iq31Fractional |= 0x80000000;
 7467              		.loc 1 54 24 is_stmt 0 view .LVU2863
 7468 004a 4FEA406C 		lsl	ip, r0, #25
 7469              	.LVL1096:
  55:../Common/IQMath/ti/_IQNexp.c ****     
 7470              		.loc 1 55 9 is_stmt 1 view .LVU2864
  55:../Common/IQMath/ti/_IQNexp.c ****     
 7471              		.loc 1 55 24 is_stmt 0 view .LVU2865
 7472 004e 4CF0004C 		orr	ip, ip, #-2147483648
 7473              	.LVL1097:
  58:../Common/IQMath/ti/_IQNexp.c ****     
 7474              		.loc 1 58 9 is_stmt 1 view .LVU2866
  58:../Common/IQMath/ti/_IQNexp.c ****     
 7475              		.loc 1 58 46 is_stmt 0 view .LVU2867
 7476 0052 8011     		asrs	r0, r0, #6
 7477              	.LVL1098:
  58:../Common/IQMath/ti/_IQNexp.c ****     
 7478              		.loc 1 58 20 view .LVU2868
 7479 0054 0130     		adds	r0, r0, #1
 7480              	.LVL1099:
  61:../Common/IQMath/ti/_IQNexp.c ****         uiqNIntegerResult = iqNLookupTable[i16Integer];
 7481              		.loc 1 61 9 is_stmt 1 view .LVU2869
  61:../Common/IQMath/ti/_IQNexp.c ****         uiqNIntegerResult = iqNLookupTable[i16Integer];
 7482              		.loc 1 61 20 is_stmt 0 view .LVU2870
 7483 0056 1844     		add	r0, r0, r3
 7484              	.LVL1100:
  62:../Common/IQMath/ti/_IQNexp.c ****         
 7485              		.loc 1 62 9 is_stmt 1 view .LVU2871
  62:../Common/IQMath/ti/_IQNexp.c ****         
 7486              		.loc 1 62 43 is_stmt 0 view .LVU2872
 7487 0058 1C4B     		ldr	r3, .L299+12
 7488              	.LVL1101:
  62:../Common/IQMath/ti/_IQNexp.c ****         
 7489              		.loc 1 62 27 view .LVU2873
 7490 005a 53F82050 		ldr	r5, [r3, r0, lsl #2]
 7491              	.LVL1102:
  65:../Common/IQMath/ti/_IQNexp.c ****             iq31Fractional += iq31_ln2;
 7492              		.loc 1 65 9 is_stmt 1 view .LVU2874
  65:../Common/IQMath/ti/_IQNexp.c ****             iq31Fractional += iq31_ln2;
 7493              		.loc 1 65 12 is_stmt 0 view .LVU2875
 7494 005e 1E4B     		ldr	r3, .L299+24
 7495 0060 9C45     		cmp	ip, r3
 7496 0062 EBDA     		bge	.L292
  66:../Common/IQMath/ti/_IQNexp.c ****             uiqNIntegerResult >>= 1;
 7497              		.loc 1 66 13 is_stmt 1 view .LVU2876
  66:../Common/IQMath/ti/_IQNexp.c ****             uiqNIntegerResult >>= 1;
 7498              		.loc 1 66 28 is_stmt 0 view .LVU2877
ARM GAS  C:\Users\57308\AppData\Local\Temp\ccyuPR38.s 			page 189


 7499 0064 0CF1B14C 		add	ip, ip, #1484783616
 7500              	.LVL1103:
  66:../Common/IQMath/ti/_IQNexp.c ****             uiqNIntegerResult >>= 1;
 7501              		.loc 1 66 28 view .LVU2878
 7502 0068 0CF5641C 		add	ip, ip, #3735552
 7503              	.LVL1104:
  66:../Common/IQMath/ti/_IQNexp.c ****             uiqNIntegerResult >>= 1;
 7504              		.loc 1 66 28 view .LVU2879
 7505 006c 0CF6FC3C 		addw	ip, ip, #3068
 7506              	.LVL1105:
  67:../Common/IQMath/ti/_IQNexp.c ****         }
 7507              		.loc 1 67 13 is_stmt 1 view .LVU2880
  67:../Common/IQMath/ti/_IQNexp.c ****         }
 7508              		.loc 1 67 31 is_stmt 0 view .LVU2881
 7509 0070 6D08     		lsrs	r5, r5, #1
 7510              	.LVL1106:
  67:../Common/IQMath/ti/_IQNexp.c ****         }
 7511              		.loc 1 67 31 view .LVU2882
 7512 0072 E3E7     		b	.L292
 7513              	.LVL1107:
 7514              	.L294:
 114:../Common/IQMath/ti/_IQNexp.c ****         uiq30FractionalResult += *piq30Coeffs++;
 7515              		.loc 1 114 9 is_stmt 1 view .LVU2883
 7516              	.LBB450:
 7517              	.LBI450:
 233:../Common/IQMath/ti/./support/RTS_support.h **** {
 7518              		.loc 2 233 28 view .LVU2884
 7519              	.LBB451:
 235:../Common/IQMath/ti/./support/RTS_support.h **** }
 7520              		.loc 2 235 5 view .LVU2885
 235:../Common/IQMath/ti/./support/RTS_support.h **** }
 7521              		.loc 2 235 28 is_stmt 0 view .LVU2886
 7522 0074 4FEAEC72 		asr	r2, ip, #31
 235:../Common/IQMath/ti/./support/RTS_support.h **** }
 7523              		.loc 2 235 49 view .LVU2887
 7524 0078 D917     		asrs	r1, r3, #31
 235:../Common/IQMath/ti/./support/RTS_support.h **** }
 7525              		.loc 2 235 47 view .LVU2888
 7526 007a 0CFB01F1 		mul	r1, ip, r1
 7527 007e 03FB0212 		mla	r2, r3, r2, r1
 7528 0082 ACFB0331 		umull	r3, r1, ip, r3
 7529              	.LVL1108:
 235:../Common/IQMath/ti/./support/RTS_support.h **** }
 7530              		.loc 2 235 47 view .LVU2889
 7531 0086 0A44     		add	r2, r2, r1
 235:../Common/IQMath/ti/./support/RTS_support.h **** }
 7532              		.loc 2 235 69 view .LVU2890
 7533 0088 DB0F     		lsrs	r3, r3, #31
 7534 008a 43EA4203 		orr	r3, r3, r2, lsl #1
 7535              	.LVL1109:
 235:../Common/IQMath/ti/./support/RTS_support.h **** }
 7536              		.loc 2 235 69 view .LVU2891
 7537              	.LBE451:
 7538              	.LBE450:
 115:../Common/IQMath/ti/_IQNexp.c ****     }
 7539              		.loc 1 115 9 is_stmt 1 view .LVU2892
 115:../Common/IQMath/ti/_IQNexp.c ****     }
ARM GAS  C:\Users\57308\AppData\Local\Temp\ccyuPR38.s 			page 190


 7540              		.loc 1 115 46 is_stmt 0 view .LVU2893
 7541 008e 0246     		mov	r2, r0
 7542              	.LVL1110:
 115:../Common/IQMath/ti/_IQNexp.c ****     }
 7543              		.loc 1 115 34 view .LVU2894
 7544 0090 52F8041B 		ldr	r1, [r2], #4
 7545              	.LVL1111:
 115:../Common/IQMath/ti/_IQNexp.c ****     }
 7546              		.loc 1 115 31 view .LVU2895
 7547 0094 0B44     		add	r3, r3, r1
 7548              	.LVL1112:
 113:../Common/IQMath/ti/_IQNexp.c ****         uiq30FractionalResult = __mpyf_l(iq31Fractional, uiq30FractionalResult);
 7549              		.loc 1 113 51 is_stmt 1 view .LVU2896
 113:../Common/IQMath/ti/_IQNexp.c ****         uiq30FractionalResult = __mpyf_l(iq31Fractional, uiq30FractionalResult);
 7550              		.loc 1 113 59 is_stmt 0 view .LVU2897
 7551 0096 013C     		subs	r4, r4, #1
 7552              	.LVL1113:
 113:../Common/IQMath/ti/_IQNexp.c ****         uiq30FractionalResult = __mpyf_l(iq31Fractional, uiq30FractionalResult);
 7553              		.loc 1 113 59 view .LVU2898
 7554 0098 E4B2     		uxtb	r4, r4
 7555              	.LVL1114:
 115:../Common/IQMath/ti/_IQNexp.c ****     }
 7556              		.loc 1 115 46 view .LVU2899
 7557 009a 1046     		mov	r0, r2
 7558              	.LVL1115:
 7559              	.L293:
 113:../Common/IQMath/ti/_IQNexp.c ****         uiq30FractionalResult = __mpyf_l(iq31Fractional, uiq30FractionalResult);
 7560              		.loc 1 113 37 is_stmt 1 view .LVU2900
 113:../Common/IQMath/ti/_IQNexp.c ****         uiq30FractionalResult = __mpyf_l(iq31Fractional, uiq30FractionalResult);
 7561              		.loc 1 113 5 is_stmt 0 view .LVU2901
 7562 009c 002C     		cmp	r4, #0
 7563 009e E9D1     		bne	.L294
 119:../Common/IQMath/ti/_IQNexp.c ****     
 7564              		.loc 1 119 5 is_stmt 1 view .LVU2902
 119:../Common/IQMath/ti/_IQNexp.c ****     
 7565              		.loc 1 119 27 is_stmt 0 view .LVU2903
 7566 00a0 5B00     		lsls	r3, r3, #1
 7567              	.LVL1116:
 125:../Common/IQMath/ti/_IQNexp.c ****     
 7568              		.loc 1 125 5 is_stmt 1 view .LVU2904
 7569              	.LBB452:
 7570              	.LBI452:
 254:../Common/IQMath/ti/./support/RTS_support.h **** {
 7571              		.loc 2 254 29 view .LVU2905
 7572              	.LBB453:
 7573              		.loc 2 256 5 view .LVU2906
 7574              		.loc 2 256 49 is_stmt 0 view .LVU2907
 7575 00a2 A5FB0353 		umull	r5, r3, r5, r3
 7576              	.LVL1117:
 7577              		.loc 2 256 72 view .LVU2908
 7578 00a6 ED0F     		lsrs	r5, r5, #31
 7579 00a8 45EA4305 		orr	r5, r5, r3, lsl #1
 7580              	.LVL1118:
 7581              		.loc 2 256 72 view .LVU2909
 7582              	.LBE453:
 7583              	.LBE452:
 131:../Common/IQMath/ti/_IQNexp.c ****     
ARM GAS  C:\Users\57308\AppData\Local\Temp\ccyuPR38.s 			page 191


 7584              		.loc 1 131 5 is_stmt 1 view .LVU2910
 131:../Common/IQMath/ti/_IQNexp.c ****     
 7585              		.loc 1 131 5 is_stmt 0 view .LVU2911
 7586              	.LBE454:
 7587              	.LBE457:
  72:../Common/IQMath/ti/./support/RTS_support.h **** }
 7588              		.loc 2 72 5 is_stmt 1 view .LVU2912
 7589              	.LBB458:
 7590              	.LBB455:
 134:../Common/IQMath/ti/_IQNexp.c ****     uiqNResult >>= 1;
 7591              		.loc 1 134 5 view .LVU2913
 134:../Common/IQMath/ti/_IQNexp.c ****     uiqNResult >>= 1;
 7592              		.loc 1 134 15 is_stmt 0 view .LVU2914
 7593 00ac 0135     		adds	r5, r5, #1
 7594              	.LVL1119:
 135:../Common/IQMath/ti/_IQNexp.c ****     
 7595              		.loc 1 135 5 is_stmt 1 view .LVU2915
 135:../Common/IQMath/ti/_IQNexp.c ****     
 7596              		.loc 1 135 16 is_stmt 0 view .LVU2916
 7597 00ae 6808     		lsrs	r0, r5, #1
 7598              	.LVL1120:
 137:../Common/IQMath/ti/_IQNexp.c **** }
 7599              		.loc 1 137 5 is_stmt 1 view .LVU2917
 7600              	.L289:
 137:../Common/IQMath/ti/_IQNexp.c **** }
 7601              		.loc 1 137 5 is_stmt 0 view .LVU2918
 7602              	.LBE455:
 7603              	.LBE458:
 414:../Common/IQMath/ti/_IQNexp.c **** }
 7604              		.loc 1 414 1 view .LVU2919
 7605 00b0 30BC     		pop	{r4, r5}
 7606              	.LCFI73:
 7607              		.cfi_remember_state
 7608              		.cfi_restore 5
 7609              		.cfi_restore 4
 7610              		.cfi_def_cfa_offset 0
 7611 00b2 7047     		bx	lr
 7612              	.LVL1121:
 7613              	.L295:
 7614              	.LCFI74:
 7615              		.cfi_restore_state
 7616              	.LBB459:
 7617              	.LBB456:
  49:../Common/IQMath/ti/_IQNexp.c ****         }
 7618              		.loc 1 49 20 view .LVU2920
 7619 00b4 0020     		movs	r0, #0
 7620              	.LVL1122:
  49:../Common/IQMath/ti/_IQNexp.c ****         }
 7621              		.loc 1 49 20 view .LVU2921
 7622 00b6 FBE7     		b	.L289
 7623              	.LVL1123:
 7624              	.L296:
  74:../Common/IQMath/ti/_IQNexp.c ****         }
 7625              		.loc 1 74 20 view .LVU2922
 7626 00b8 6FF00040 		mvn	r0, #-2147483648
 7627              	.LVL1124:
  74:../Common/IQMath/ti/_IQNexp.c ****         }
ARM GAS  C:\Users\57308\AppData\Local\Temp\ccyuPR38.s 			page 192


 7628              		.loc 1 74 20 view .LVU2923
 7629              	.LBE456:
 7630              	.LBE459:
 413:../Common/IQMath/ti/_IQNexp.c **** }
 7631              		.loc 1 413 12 view .LVU2924
 7632 00bc F8E7     		b	.L289
 7633              	.L300:
 7634 00be 00BF     		.align	2
 7635              	.L299:
 7636 00c0 00000000 		.word	_IQNexp_offset
 7637 00c4 00000000 		.word	_IQNexp_min
 7638 00c8 00000000 		.word	_IQNexp_max
 7639 00cc 00000000 		.word	_IQNexp_lookup6
 7640 00d0 FB0BB958 		.word	1488522235
 7641 00d4 00000000 		.word	_IQ30exp_coeffs
 7642 00d8 05F446A7 		.word	-1488522235
 7643              		.cfi_endproc
 7644              	.LFE286:
 7646              		.section	.text._IQ5exp,"ax",%progbits
 7647              		.align	1
 7648              		.global	_IQ5exp
 7649              		.syntax unified
 7650              		.thumb
 7651              		.thumb_func
 7653              	_IQ5exp:
 7654              	.LVL1125:
 7655              	.LFB287:
 415:../Common/IQMath/ti/_IQNexp.c **** /**
 416:../Common/IQMath/ti/_IQNexp.c ****  * @brief Computes the exponential of an IQ5 input.
 417:../Common/IQMath/ti/_IQNexp.c ****  *
 418:../Common/IQMath/ti/_IQNexp.c ****  * @param a               IQ5 type input.
 419:../Common/IQMath/ti/_IQNexp.c ****  *
 420:../Common/IQMath/ti/_IQNexp.c ****  * @return                IQ5 type result of exponential.
 421:../Common/IQMath/ti/_IQNexp.c ****  */
 422:../Common/IQMath/ti/_IQNexp.c **** int32_t _IQ5exp(int32_t a)
 423:../Common/IQMath/ti/_IQNexp.c **** {
 7656              		.loc 1 423 1 is_stmt 1 view -0
 7657              		.cfi_startproc
 7658              		@ args = 0, pretend = 0, frame = 0
 7659              		@ frame_needed = 0, uses_anonymous_args = 0
 7660              		@ link register save eliminated.
 7661              		.loc 1 423 1 is_stmt 0 view .LVU2926
 7662 0000 30B4     		push	{r4, r5}
 7663              	.LCFI75:
 7664              		.cfi_def_cfa_offset 8
 7665              		.cfi_offset 4, -8
 7666              		.cfi_offset 5, -4
 424:../Common/IQMath/ti/_IQNexp.c ****     return __IQNexp(a, _IQNexp_lookup5, _IQNexp_offset[5-1], _IQNexp_min[5-1], _IQNexp_max[5-1], 5)
 7667              		.loc 1 424 5 is_stmt 1 view .LVU2927
 7668              		.loc 1 424 12 is_stmt 0 view .LVU2928
 7669 0002 2F4B     		ldr	r3, .L311
 7670 0004 1B7C     		ldrb	r3, [r3, #16]	@ zero_extendqisi2
 7671              		.loc 1 424 73 view .LVU2929
 7672 0006 2F4A     		ldr	r2, .L311+4
 7673 0008 1169     		ldr	r1, [r2, #16]
 7674              		.loc 1 424 91 view .LVU2930
 7675 000a 2F4A     		ldr	r2, .L311+8
ARM GAS  C:\Users\57308\AppData\Local\Temp\ccyuPR38.s 			page 193


 7676 000c 1269     		ldr	r2, [r2, #16]
 7677              	.LVL1126:
 7678              	.LBB466:
 7679              	.LBI466:
  32:../Common/IQMath/ti/_IQNexp.c **** {
 7680              		.loc 1 32 30 is_stmt 1 view .LVU2931
 7681              	.LBB467:
  34:../Common/IQMath/ti/_IQNexp.c ****     int_fast16_t i16Integer;
 7682              		.loc 1 34 5 view .LVU2932
  35:../Common/IQMath/ti/_IQNexp.c ****     uint_fast16_t ui16IntState;
 7683              		.loc 1 35 5 view .LVU2933
  36:../Common/IQMath/ti/_IQNexp.c ****     uint_fast16_t ui16MPYState;
 7684              		.loc 1 36 5 view .LVU2934
  37:../Common/IQMath/ti/_IQNexp.c ****     int_fast32_t iq31Fractional;
 7685              		.loc 1 37 5 view .LVU2935
  38:../Common/IQMath/ti/_IQNexp.c ****     uint_fast32_t uiqNResult;
 7686              		.loc 1 38 5 view .LVU2936
  39:../Common/IQMath/ti/_IQNexp.c ****     uint_fast32_t uiqNIntegerResult;
 7687              		.loc 1 39 5 view .LVU2937
  40:../Common/IQMath/ti/_IQNexp.c ****     uint_fast32_t uiq30FractionalResult;
 7688              		.loc 1 40 5 view .LVU2938
  41:../Common/IQMath/ti/_IQNexp.c ****     uint_fast32_t uiq31FractionalResult;
 7689              		.loc 1 41 5 view .LVU2939
  42:../Common/IQMath/ti/_IQNexp.c ****     const uint_fast32_t *piq30Coeffs;
 7690              		.loc 1 42 5 view .LVU2940
  43:../Common/IQMath/ti/_IQNexp.c ****     
 7691              		.loc 1 43 5 view .LVU2941
  46:../Common/IQMath/ti/_IQNexp.c ****         /* Check for the minimum value. */
 7692              		.loc 1 46 5 view .LVU2942
  46:../Common/IQMath/ti/_IQNexp.c ****         /* Check for the minimum value. */
 7693              		.loc 1 46 8 is_stmt 0 view .LVU2943
 7694 000e 0028     		cmp	r0, #0
  46:../Common/IQMath/ti/_IQNexp.c ****         /* Check for the minimum value. */
 7695              		.loc 1 46 8 view .LVU2944
 7696 0010 19DB     		blt	.L310
  73:../Common/IQMath/ti/_IQNexp.c ****             return INT32_MAX;
 7697              		.loc 1 73 9 is_stmt 1 view .LVU2945
  73:../Common/IQMath/ti/_IQNexp.c ****             return INT32_MAX;
 7698              		.loc 1 73 12 is_stmt 0 view .LVU2946
 7699 0012 8242     		cmp	r2, r0
 7700 0014 50DB     		blt	.L308
  78:../Common/IQMath/ti/_IQNexp.c ****         iq31Fractional <<= (31 - q_value);
 7701              		.loc 1 78 9 is_stmt 1 view .LVU2947
 7702              	.LVL1127:
  79:../Common/IQMath/ti/_IQNexp.c ****         iq31Fractional &= 0x7fffffff;
 7703              		.loc 1 79 9 view .LVU2948
  79:../Common/IQMath/ti/_IQNexp.c ****         iq31Fractional &= 0x7fffffff;
 7704              		.loc 1 79 24 is_stmt 0 view .LVU2949
 7705 0016 4FEA806C 		lsl	ip, r0, #26
 7706              	.LVL1128:
  80:../Common/IQMath/ti/_IQNexp.c ****     
 7707              		.loc 1 80 9 is_stmt 1 view .LVU2950
  80:../Common/IQMath/ti/_IQNexp.c ****     
 7708              		.loc 1 80 24 is_stmt 0 view .LVU2951
 7709 001a 2CF0004C 		bic	ip, ip, #-2147483648
 7710              	.LVL1129:
  83:../Common/IQMath/ti/_IQNexp.c ****     
ARM GAS  C:\Users\57308\AppData\Local\Temp\ccyuPR38.s 			page 194


 7711              		.loc 1 83 9 is_stmt 1 view .LVU2952
  86:../Common/IQMath/ti/_IQNexp.c ****         uiqNIntegerResult = iqNLookupTable[i16Integer];
 7712              		.loc 1 86 9 view .LVU2953
  86:../Common/IQMath/ti/_IQNexp.c ****         uiqNIntegerResult = iqNLookupTable[i16Integer];
 7713              		.loc 1 86 20 is_stmt 0 view .LVU2954
 7714 001e 03EB6010 		add	r0, r3, r0, asr #5
 7715              	.LVL1130:
  87:../Common/IQMath/ti/_IQNexp.c ****         
 7716              		.loc 1 87 9 is_stmt 1 view .LVU2955
  87:../Common/IQMath/ti/_IQNexp.c ****         
 7717              		.loc 1 87 43 is_stmt 0 view .LVU2956
 7718 0022 2A4B     		ldr	r3, .L311+12
 7719              	.LVL1131:
  87:../Common/IQMath/ti/_IQNexp.c ****         
 7720              		.loc 1 87 27 view .LVU2957
 7721 0024 53F82050 		ldr	r5, [r3, r0, lsl #2]
 7722              	.LVL1132:
  90:../Common/IQMath/ti/_IQNexp.c ****             iq31Fractional -= iq31_ln2;
 7723              		.loc 1 90 9 is_stmt 1 view .LVU2958
  90:../Common/IQMath/ti/_IQNexp.c ****             iq31Fractional -= iq31_ln2;
 7724              		.loc 1 90 12 is_stmt 0 view .LVU2959
 7725 0028 294B     		ldr	r3, .L311+16
 7726 002a 9C45     		cmp	ip, r3
 7727 002c 06DD     		ble	.L304
  91:../Common/IQMath/ti/_IQNexp.c ****             uiqNIntegerResult <<= 1;
 7728              		.loc 1 91 13 is_stmt 1 view .LVU2960
  91:../Common/IQMath/ti/_IQNexp.c ****             uiqNIntegerResult <<= 1;
 7729              		.loc 1 91 28 is_stmt 0 view .LVU2961
 7730 002e ACF1B14C 		sub	ip, ip, #1484783616
 7731              	.LVL1133:
  91:../Common/IQMath/ti/_IQNexp.c ****             uiqNIntegerResult <<= 1;
 7732              		.loc 1 91 28 view .LVU2962
 7733 0032 ACF5641C 		sub	ip, ip, #3735552
 7734              	.LVL1134:
  91:../Common/IQMath/ti/_IQNexp.c ****             uiqNIntegerResult <<= 1;
 7735              		.loc 1 91 28 view .LVU2963
 7736 0036 ACF6FC3C 		subw	ip, ip, #3068
 7737              	.LVL1135:
  92:../Common/IQMath/ti/_IQNexp.c ****         }
 7738              		.loc 1 92 13 is_stmt 1 view .LVU2964
  92:../Common/IQMath/ti/_IQNexp.c ****         }
 7739              		.loc 1 92 31 is_stmt 0 view .LVU2965
 7740 003a 6D00     		lsls	r5, r5, #1
 7741              	.LVL1136:
 7742              	.L304:
 102:../Common/IQMath/ti/_IQNexp.c ****     
 7743              		.loc 1 102 5 is_stmt 1 view .LVU2966
 102:../Common/IQMath/ti/_IQNexp.c ****     
 7744              		.loc 1 102 5 is_stmt 0 view .LVU2967
 7745              	.LBE467:
 7746              	.LBE466:
  28:../Common/IQMath/ti/./support/RTS_support.h **** }
 7747              		.loc 2 28 5 is_stmt 1 view .LVU2968
 7748              	.LBB475:
 7749              	.LBB472:
 109:../Common/IQMath/ti/_IQNexp.c ****     uiq30FractionalResult = *piq30Coeffs++;
 7750              		.loc 1 109 5 view .LVU2969
ARM GAS  C:\Users\57308\AppData\Local\Temp\ccyuPR38.s 			page 195


 110:../Common/IQMath/ti/_IQNexp.c ****     
 7751              		.loc 1 110 5 view .LVU2970
 110:../Common/IQMath/ti/_IQNexp.c ****     
 7752              		.loc 1 110 27 is_stmt 0 view .LVU2971
 7753 003c 2548     		ldr	r0, .L311+20
 7754              	.LVL1137:
 110:../Common/IQMath/ti/_IQNexp.c ****     
 7755              		.loc 1 110 27 view .LVU2972
 7756 003e 50F8043B 		ldr	r3, [r0], #4
 7757              	.LVL1138:
 113:../Common/IQMath/ti/_IQNexp.c ****         uiq30FractionalResult = __mpyf_l(iq31Fractional, uiq30FractionalResult);
 7758              		.loc 1 113 5 is_stmt 1 view .LVU2973
 113:../Common/IQMath/ti/_IQNexp.c ****         uiq30FractionalResult = __mpyf_l(iq31Fractional, uiq30FractionalResult);
 7759              		.loc 1 113 19 is_stmt 0 view .LVU2974
 7760 0042 0A24     		movs	r4, #10
 113:../Common/IQMath/ti/_IQNexp.c ****         uiq30FractionalResult = __mpyf_l(iq31Fractional, uiq30FractionalResult);
 7761              		.loc 1 113 5 view .LVU2975
 7762 0044 2AE0     		b	.L305
 7763              	.LVL1139:
 7764              	.L310:
  48:../Common/IQMath/ti/_IQNexp.c ****             return 0;
 7765              		.loc 1 48 9 is_stmt 1 view .LVU2976
  48:../Common/IQMath/ti/_IQNexp.c ****             return 0;
 7766              		.loc 1 48 12 is_stmt 0 view .LVU2977
 7767 0046 8142     		cmp	r1, r0
 7768 0048 34DC     		bgt	.L307
  53:../Common/IQMath/ti/_IQNexp.c ****         iq31Fractional <<= (31 - q_value);
 7769              		.loc 1 53 9 is_stmt 1 view .LVU2978
 7770              	.LVL1140:
  54:../Common/IQMath/ti/_IQNexp.c ****         iq31Fractional |= 0x80000000;
 7771              		.loc 1 54 9 view .LVU2979
  54:../Common/IQMath/ti/_IQNexp.c ****         iq31Fractional |= 0x80000000;
 7772              		.loc 1 54 24 is_stmt 0 view .LVU2980
 7773 004a 4FEA806C 		lsl	ip, r0, #26
 7774              	.LVL1141:
  55:../Common/IQMath/ti/_IQNexp.c ****     
 7775              		.loc 1 55 9 is_stmt 1 view .LVU2981
  55:../Common/IQMath/ti/_IQNexp.c ****     
 7776              		.loc 1 55 24 is_stmt 0 view .LVU2982
 7777 004e 4CF0004C 		orr	ip, ip, #-2147483648
 7778              	.LVL1142:
  58:../Common/IQMath/ti/_IQNexp.c ****     
 7779              		.loc 1 58 9 is_stmt 1 view .LVU2983
  58:../Common/IQMath/ti/_IQNexp.c ****     
 7780              		.loc 1 58 46 is_stmt 0 view .LVU2984
 7781 0052 4011     		asrs	r0, r0, #5
 7782              	.LVL1143:
  58:../Common/IQMath/ti/_IQNexp.c ****     
 7783              		.loc 1 58 20 view .LVU2985
 7784 0054 0130     		adds	r0, r0, #1
 7785              	.LVL1144:
  61:../Common/IQMath/ti/_IQNexp.c ****         uiqNIntegerResult = iqNLookupTable[i16Integer];
 7786              		.loc 1 61 9 is_stmt 1 view .LVU2986
  61:../Common/IQMath/ti/_IQNexp.c ****         uiqNIntegerResult = iqNLookupTable[i16Integer];
 7787              		.loc 1 61 20 is_stmt 0 view .LVU2987
 7788 0056 1844     		add	r0, r0, r3
 7789              	.LVL1145:
ARM GAS  C:\Users\57308\AppData\Local\Temp\ccyuPR38.s 			page 196


  62:../Common/IQMath/ti/_IQNexp.c ****         
 7790              		.loc 1 62 9 is_stmt 1 view .LVU2988
  62:../Common/IQMath/ti/_IQNexp.c ****         
 7791              		.loc 1 62 43 is_stmt 0 view .LVU2989
 7792 0058 1C4B     		ldr	r3, .L311+12
 7793              	.LVL1146:
  62:../Common/IQMath/ti/_IQNexp.c ****         
 7794              		.loc 1 62 27 view .LVU2990
 7795 005a 53F82050 		ldr	r5, [r3, r0, lsl #2]
 7796              	.LVL1147:
  65:../Common/IQMath/ti/_IQNexp.c ****             iq31Fractional += iq31_ln2;
 7797              		.loc 1 65 9 is_stmt 1 view .LVU2991
  65:../Common/IQMath/ti/_IQNexp.c ****             iq31Fractional += iq31_ln2;
 7798              		.loc 1 65 12 is_stmt 0 view .LVU2992
 7799 005e 1E4B     		ldr	r3, .L311+24
 7800 0060 9C45     		cmp	ip, r3
 7801 0062 EBDA     		bge	.L304
  66:../Common/IQMath/ti/_IQNexp.c ****             uiqNIntegerResult >>= 1;
 7802              		.loc 1 66 13 is_stmt 1 view .LVU2993
  66:../Common/IQMath/ti/_IQNexp.c ****             uiqNIntegerResult >>= 1;
 7803              		.loc 1 66 28 is_stmt 0 view .LVU2994
 7804 0064 0CF1B14C 		add	ip, ip, #1484783616
 7805              	.LVL1148:
  66:../Common/IQMath/ti/_IQNexp.c ****             uiqNIntegerResult >>= 1;
 7806              		.loc 1 66 28 view .LVU2995
 7807 0068 0CF5641C 		add	ip, ip, #3735552
 7808              	.LVL1149:
  66:../Common/IQMath/ti/_IQNexp.c ****             uiqNIntegerResult >>= 1;
 7809              		.loc 1 66 28 view .LVU2996
 7810 006c 0CF6FC3C 		addw	ip, ip, #3068
 7811              	.LVL1150:
  67:../Common/IQMath/ti/_IQNexp.c ****         }
 7812              		.loc 1 67 13 is_stmt 1 view .LVU2997
  67:../Common/IQMath/ti/_IQNexp.c ****         }
 7813              		.loc 1 67 31 is_stmt 0 view .LVU2998
 7814 0070 6D08     		lsrs	r5, r5, #1
 7815              	.LVL1151:
  67:../Common/IQMath/ti/_IQNexp.c ****         }
 7816              		.loc 1 67 31 view .LVU2999
 7817 0072 E3E7     		b	.L304
 7818              	.LVL1152:
 7819              	.L306:
 114:../Common/IQMath/ti/_IQNexp.c ****         uiq30FractionalResult += *piq30Coeffs++;
 7820              		.loc 1 114 9 is_stmt 1 view .LVU3000
 7821              	.LBB468:
 7822              	.LBI468:
 233:../Common/IQMath/ti/./support/RTS_support.h **** {
 7823              		.loc 2 233 28 view .LVU3001
 7824              	.LBB469:
 235:../Common/IQMath/ti/./support/RTS_support.h **** }
 7825              		.loc 2 235 5 view .LVU3002
 235:../Common/IQMath/ti/./support/RTS_support.h **** }
 7826              		.loc 2 235 28 is_stmt 0 view .LVU3003
 7827 0074 4FEAEC72 		asr	r2, ip, #31
 235:../Common/IQMath/ti/./support/RTS_support.h **** }
 7828              		.loc 2 235 49 view .LVU3004
 7829 0078 D917     		asrs	r1, r3, #31
ARM GAS  C:\Users\57308\AppData\Local\Temp\ccyuPR38.s 			page 197


 235:../Common/IQMath/ti/./support/RTS_support.h **** }
 7830              		.loc 2 235 47 view .LVU3005
 7831 007a 0CFB01F1 		mul	r1, ip, r1
 7832 007e 03FB0212 		mla	r2, r3, r2, r1
 7833 0082 ACFB0331 		umull	r3, r1, ip, r3
 7834              	.LVL1153:
 235:../Common/IQMath/ti/./support/RTS_support.h **** }
 7835              		.loc 2 235 47 view .LVU3006
 7836 0086 0A44     		add	r2, r2, r1
 235:../Common/IQMath/ti/./support/RTS_support.h **** }
 7837              		.loc 2 235 69 view .LVU3007
 7838 0088 DB0F     		lsrs	r3, r3, #31
 7839 008a 43EA4203 		orr	r3, r3, r2, lsl #1
 7840              	.LVL1154:
 235:../Common/IQMath/ti/./support/RTS_support.h **** }
 7841              		.loc 2 235 69 view .LVU3008
 7842              	.LBE469:
 7843              	.LBE468:
 115:../Common/IQMath/ti/_IQNexp.c ****     }
 7844              		.loc 1 115 9 is_stmt 1 view .LVU3009
 115:../Common/IQMath/ti/_IQNexp.c ****     }
 7845              		.loc 1 115 46 is_stmt 0 view .LVU3010
 7846 008e 0246     		mov	r2, r0
 7847              	.LVL1155:
 115:../Common/IQMath/ti/_IQNexp.c ****     }
 7848              		.loc 1 115 34 view .LVU3011
 7849 0090 52F8041B 		ldr	r1, [r2], #4
 7850              	.LVL1156:
 115:../Common/IQMath/ti/_IQNexp.c ****     }
 7851              		.loc 1 115 31 view .LVU3012
 7852 0094 0B44     		add	r3, r3, r1
 7853              	.LVL1157:
 113:../Common/IQMath/ti/_IQNexp.c ****         uiq30FractionalResult = __mpyf_l(iq31Fractional, uiq30FractionalResult);
 7854              		.loc 1 113 51 is_stmt 1 view .LVU3013
 113:../Common/IQMath/ti/_IQNexp.c ****         uiq30FractionalResult = __mpyf_l(iq31Fractional, uiq30FractionalResult);
 7855              		.loc 1 113 59 is_stmt 0 view .LVU3014
 7856 0096 013C     		subs	r4, r4, #1
 7857              	.LVL1158:
 113:../Common/IQMath/ti/_IQNexp.c ****         uiq30FractionalResult = __mpyf_l(iq31Fractional, uiq30FractionalResult);
 7858              		.loc 1 113 59 view .LVU3015
 7859 0098 E4B2     		uxtb	r4, r4
 7860              	.LVL1159:
 115:../Common/IQMath/ti/_IQNexp.c ****     }
 7861              		.loc 1 115 46 view .LVU3016
 7862 009a 1046     		mov	r0, r2
 7863              	.LVL1160:
 7864              	.L305:
 113:../Common/IQMath/ti/_IQNexp.c ****         uiq30FractionalResult = __mpyf_l(iq31Fractional, uiq30FractionalResult);
 7865              		.loc 1 113 37 is_stmt 1 view .LVU3017
 113:../Common/IQMath/ti/_IQNexp.c ****         uiq30FractionalResult = __mpyf_l(iq31Fractional, uiq30FractionalResult);
 7866              		.loc 1 113 5 is_stmt 0 view .LVU3018
 7867 009c 002C     		cmp	r4, #0
 7868 009e E9D1     		bne	.L306
 119:../Common/IQMath/ti/_IQNexp.c ****     
 7869              		.loc 1 119 5 is_stmt 1 view .LVU3019
 119:../Common/IQMath/ti/_IQNexp.c ****     
 7870              		.loc 1 119 27 is_stmt 0 view .LVU3020
ARM GAS  C:\Users\57308\AppData\Local\Temp\ccyuPR38.s 			page 198


 7871 00a0 5B00     		lsls	r3, r3, #1
 7872              	.LVL1161:
 125:../Common/IQMath/ti/_IQNexp.c ****     
 7873              		.loc 1 125 5 is_stmt 1 view .LVU3021
 7874              	.LBB470:
 7875              	.LBI470:
 254:../Common/IQMath/ti/./support/RTS_support.h **** {
 7876              		.loc 2 254 29 view .LVU3022
 7877              	.LBB471:
 7878              		.loc 2 256 5 view .LVU3023
 7879              		.loc 2 256 49 is_stmt 0 view .LVU3024
 7880 00a2 A5FB0353 		umull	r5, r3, r5, r3
 7881              	.LVL1162:
 7882              		.loc 2 256 72 view .LVU3025
 7883 00a6 ED0F     		lsrs	r5, r5, #31
 7884 00a8 45EA4305 		orr	r5, r5, r3, lsl #1
 7885              	.LVL1163:
 7886              		.loc 2 256 72 view .LVU3026
 7887              	.LBE471:
 7888              	.LBE470:
 131:../Common/IQMath/ti/_IQNexp.c ****     
 7889              		.loc 1 131 5 is_stmt 1 view .LVU3027
 131:../Common/IQMath/ti/_IQNexp.c ****     
 7890              		.loc 1 131 5 is_stmt 0 view .LVU3028
 7891              	.LBE472:
 7892              	.LBE475:
  72:../Common/IQMath/ti/./support/RTS_support.h **** }
 7893              		.loc 2 72 5 is_stmt 1 view .LVU3029
 7894              	.LBB476:
 7895              	.LBB473:
 134:../Common/IQMath/ti/_IQNexp.c ****     uiqNResult >>= 1;
 7896              		.loc 1 134 5 view .LVU3030
 134:../Common/IQMath/ti/_IQNexp.c ****     uiqNResult >>= 1;
 7897              		.loc 1 134 15 is_stmt 0 view .LVU3031
 7898 00ac 0135     		adds	r5, r5, #1
 7899              	.LVL1164:
 135:../Common/IQMath/ti/_IQNexp.c ****     
 7900              		.loc 1 135 5 is_stmt 1 view .LVU3032
 135:../Common/IQMath/ti/_IQNexp.c ****     
 7901              		.loc 1 135 16 is_stmt 0 view .LVU3033
 7902 00ae 6808     		lsrs	r0, r5, #1
 7903              	.LVL1165:
 137:../Common/IQMath/ti/_IQNexp.c **** }
 7904              		.loc 1 137 5 is_stmt 1 view .LVU3034
 7905              	.L301:
 137:../Common/IQMath/ti/_IQNexp.c **** }
 7906              		.loc 1 137 5 is_stmt 0 view .LVU3035
 7907              	.LBE473:
 7908              	.LBE476:
 425:../Common/IQMath/ti/_IQNexp.c **** }
 7909              		.loc 1 425 1 view .LVU3036
 7910 00b0 30BC     		pop	{r4, r5}
 7911              	.LCFI76:
 7912              		.cfi_remember_state
 7913              		.cfi_restore 5
 7914              		.cfi_restore 4
 7915              		.cfi_def_cfa_offset 0
ARM GAS  C:\Users\57308\AppData\Local\Temp\ccyuPR38.s 			page 199


 7916 00b2 7047     		bx	lr
 7917              	.LVL1166:
 7918              	.L307:
 7919              	.LCFI77:
 7920              		.cfi_restore_state
 7921              	.LBB477:
 7922              	.LBB474:
  49:../Common/IQMath/ti/_IQNexp.c ****         }
 7923              		.loc 1 49 20 view .LVU3037
 7924 00b4 0020     		movs	r0, #0
 7925              	.LVL1167:
  49:../Common/IQMath/ti/_IQNexp.c ****         }
 7926              		.loc 1 49 20 view .LVU3038
 7927 00b6 FBE7     		b	.L301
 7928              	.LVL1168:
 7929              	.L308:
  74:../Common/IQMath/ti/_IQNexp.c ****         }
 7930              		.loc 1 74 20 view .LVU3039
 7931 00b8 6FF00040 		mvn	r0, #-2147483648
 7932              	.LVL1169:
  74:../Common/IQMath/ti/_IQNexp.c ****         }
 7933              		.loc 1 74 20 view .LVU3040
 7934              	.LBE474:
 7935              	.LBE477:
 424:../Common/IQMath/ti/_IQNexp.c **** }
 7936              		.loc 1 424 12 view .LVU3041
 7937 00bc F8E7     		b	.L301
 7938              	.L312:
 7939 00be 00BF     		.align	2
 7940              	.L311:
 7941 00c0 00000000 		.word	_IQNexp_offset
 7942 00c4 00000000 		.word	_IQNexp_min
 7943 00c8 00000000 		.word	_IQNexp_max
 7944 00cc 00000000 		.word	_IQNexp_lookup5
 7945 00d0 FB0BB958 		.word	1488522235
 7946 00d4 00000000 		.word	_IQ30exp_coeffs
 7947 00d8 05F446A7 		.word	-1488522235
 7948              		.cfi_endproc
 7949              	.LFE287:
 7951              		.section	.text._IQ4exp,"ax",%progbits
 7952              		.align	1
 7953              		.global	_IQ4exp
 7954              		.syntax unified
 7955              		.thumb
 7956              		.thumb_func
 7958              	_IQ4exp:
 7959              	.LVL1170:
 7960              	.LFB288:
 426:../Common/IQMath/ti/_IQNexp.c **** /**
 427:../Common/IQMath/ti/_IQNexp.c ****  * @brief Computes the exponential of an IQ4 input.
 428:../Common/IQMath/ti/_IQNexp.c ****  *
 429:../Common/IQMath/ti/_IQNexp.c ****  * @param a               IQ4 type input.
 430:../Common/IQMath/ti/_IQNexp.c ****  *
 431:../Common/IQMath/ti/_IQNexp.c ****  * @return                IQ4 type result of exponential.
 432:../Common/IQMath/ti/_IQNexp.c ****  */
 433:../Common/IQMath/ti/_IQNexp.c **** int32_t _IQ4exp(int32_t a)
 434:../Common/IQMath/ti/_IQNexp.c **** {
ARM GAS  C:\Users\57308\AppData\Local\Temp\ccyuPR38.s 			page 200


 7961              		.loc 1 434 1 is_stmt 1 view -0
 7962              		.cfi_startproc
 7963              		@ args = 0, pretend = 0, frame = 0
 7964              		@ frame_needed = 0, uses_anonymous_args = 0
 7965              		@ link register save eliminated.
 7966              		.loc 1 434 1 is_stmt 0 view .LVU3043
 7967 0000 30B4     		push	{r4, r5}
 7968              	.LCFI78:
 7969              		.cfi_def_cfa_offset 8
 7970              		.cfi_offset 4, -8
 7971              		.cfi_offset 5, -4
 435:../Common/IQMath/ti/_IQNexp.c ****     return __IQNexp(a, _IQNexp_lookup4, _IQNexp_offset[4-1], _IQNexp_min[4-1], _IQNexp_max[4-1], 4)
 7972              		.loc 1 435 5 is_stmt 1 view .LVU3044
 7973              		.loc 1 435 12 is_stmt 0 view .LVU3045
 7974 0002 2F4B     		ldr	r3, .L323
 7975 0004 1B7B     		ldrb	r3, [r3, #12]	@ zero_extendqisi2
 7976              		.loc 1 435 73 view .LVU3046
 7977 0006 2F4A     		ldr	r2, .L323+4
 7978 0008 D168     		ldr	r1, [r2, #12]
 7979              		.loc 1 435 91 view .LVU3047
 7980 000a 2F4A     		ldr	r2, .L323+8
 7981 000c D268     		ldr	r2, [r2, #12]
 7982              	.LVL1171:
 7983              	.LBB484:
 7984              	.LBI484:
  32:../Common/IQMath/ti/_IQNexp.c **** {
 7985              		.loc 1 32 30 is_stmt 1 view .LVU3048
 7986              	.LBB485:
  34:../Common/IQMath/ti/_IQNexp.c ****     int_fast16_t i16Integer;
 7987              		.loc 1 34 5 view .LVU3049
  35:../Common/IQMath/ti/_IQNexp.c ****     uint_fast16_t ui16IntState;
 7988              		.loc 1 35 5 view .LVU3050
  36:../Common/IQMath/ti/_IQNexp.c ****     uint_fast16_t ui16MPYState;
 7989              		.loc 1 36 5 view .LVU3051
  37:../Common/IQMath/ti/_IQNexp.c ****     int_fast32_t iq31Fractional;
 7990              		.loc 1 37 5 view .LVU3052
  38:../Common/IQMath/ti/_IQNexp.c ****     uint_fast32_t uiqNResult;
 7991              		.loc 1 38 5 view .LVU3053
  39:../Common/IQMath/ti/_IQNexp.c ****     uint_fast32_t uiqNIntegerResult;
 7992              		.loc 1 39 5 view .LVU3054
  40:../Common/IQMath/ti/_IQNexp.c ****     uint_fast32_t uiq30FractionalResult;
 7993              		.loc 1 40 5 view .LVU3055
  41:../Common/IQMath/ti/_IQNexp.c ****     uint_fast32_t uiq31FractionalResult;
 7994              		.loc 1 41 5 view .LVU3056
  42:../Common/IQMath/ti/_IQNexp.c ****     const uint_fast32_t *piq30Coeffs;
 7995              		.loc 1 42 5 view .LVU3057
  43:../Common/IQMath/ti/_IQNexp.c ****     
 7996              		.loc 1 43 5 view .LVU3058
  46:../Common/IQMath/ti/_IQNexp.c ****         /* Check for the minimum value. */
 7997              		.loc 1 46 5 view .LVU3059
  46:../Common/IQMath/ti/_IQNexp.c ****         /* Check for the minimum value. */
 7998              		.loc 1 46 8 is_stmt 0 view .LVU3060
 7999 000e 0028     		cmp	r0, #0
  46:../Common/IQMath/ti/_IQNexp.c ****         /* Check for the minimum value. */
 8000              		.loc 1 46 8 view .LVU3061
 8001 0010 19DB     		blt	.L322
  73:../Common/IQMath/ti/_IQNexp.c ****             return INT32_MAX;
ARM GAS  C:\Users\57308\AppData\Local\Temp\ccyuPR38.s 			page 201


 8002              		.loc 1 73 9 is_stmt 1 view .LVU3062
  73:../Common/IQMath/ti/_IQNexp.c ****             return INT32_MAX;
 8003              		.loc 1 73 12 is_stmt 0 view .LVU3063
 8004 0012 8242     		cmp	r2, r0
 8005 0014 50DB     		blt	.L320
  78:../Common/IQMath/ti/_IQNexp.c ****         iq31Fractional <<= (31 - q_value);
 8006              		.loc 1 78 9 is_stmt 1 view .LVU3064
 8007              	.LVL1172:
  79:../Common/IQMath/ti/_IQNexp.c ****         iq31Fractional &= 0x7fffffff;
 8008              		.loc 1 79 9 view .LVU3065
  79:../Common/IQMath/ti/_IQNexp.c ****         iq31Fractional &= 0x7fffffff;
 8009              		.loc 1 79 24 is_stmt 0 view .LVU3066
 8010 0016 4FEAC06C 		lsl	ip, r0, #27
 8011              	.LVL1173:
  80:../Common/IQMath/ti/_IQNexp.c ****     
 8012              		.loc 1 80 9 is_stmt 1 view .LVU3067
  80:../Common/IQMath/ti/_IQNexp.c ****     
 8013              		.loc 1 80 24 is_stmt 0 view .LVU3068
 8014 001a 2CF0004C 		bic	ip, ip, #-2147483648
 8015              	.LVL1174:
  83:../Common/IQMath/ti/_IQNexp.c ****     
 8016              		.loc 1 83 9 is_stmt 1 view .LVU3069
  86:../Common/IQMath/ti/_IQNexp.c ****         uiqNIntegerResult = iqNLookupTable[i16Integer];
 8017              		.loc 1 86 9 view .LVU3070
  86:../Common/IQMath/ti/_IQNexp.c ****         uiqNIntegerResult = iqNLookupTable[i16Integer];
 8018              		.loc 1 86 20 is_stmt 0 view .LVU3071
 8019 001e 03EB2010 		add	r0, r3, r0, asr #4
 8020              	.LVL1175:
  87:../Common/IQMath/ti/_IQNexp.c ****         
 8021              		.loc 1 87 9 is_stmt 1 view .LVU3072
  87:../Common/IQMath/ti/_IQNexp.c ****         
 8022              		.loc 1 87 43 is_stmt 0 view .LVU3073
 8023 0022 2A4B     		ldr	r3, .L323+12
 8024              	.LVL1176:
  87:../Common/IQMath/ti/_IQNexp.c ****         
 8025              		.loc 1 87 27 view .LVU3074
 8026 0024 53F82050 		ldr	r5, [r3, r0, lsl #2]
 8027              	.LVL1177:
  90:../Common/IQMath/ti/_IQNexp.c ****             iq31Fractional -= iq31_ln2;
 8028              		.loc 1 90 9 is_stmt 1 view .LVU3075
  90:../Common/IQMath/ti/_IQNexp.c ****             iq31Fractional -= iq31_ln2;
 8029              		.loc 1 90 12 is_stmt 0 view .LVU3076
 8030 0028 294B     		ldr	r3, .L323+16
 8031 002a 9C45     		cmp	ip, r3
 8032 002c 06DD     		ble	.L316
  91:../Common/IQMath/ti/_IQNexp.c ****             uiqNIntegerResult <<= 1;
 8033              		.loc 1 91 13 is_stmt 1 view .LVU3077
  91:../Common/IQMath/ti/_IQNexp.c ****             uiqNIntegerResult <<= 1;
 8034              		.loc 1 91 28 is_stmt 0 view .LVU3078
 8035 002e ACF1B14C 		sub	ip, ip, #1484783616
 8036              	.LVL1178:
  91:../Common/IQMath/ti/_IQNexp.c ****             uiqNIntegerResult <<= 1;
 8037              		.loc 1 91 28 view .LVU3079
 8038 0032 ACF5641C 		sub	ip, ip, #3735552
 8039              	.LVL1179:
  91:../Common/IQMath/ti/_IQNexp.c ****             uiqNIntegerResult <<= 1;
 8040              		.loc 1 91 28 view .LVU3080
ARM GAS  C:\Users\57308\AppData\Local\Temp\ccyuPR38.s 			page 202


 8041 0036 ACF6FC3C 		subw	ip, ip, #3068
 8042              	.LVL1180:
  92:../Common/IQMath/ti/_IQNexp.c ****         }
 8043              		.loc 1 92 13 is_stmt 1 view .LVU3081
  92:../Common/IQMath/ti/_IQNexp.c ****         }
 8044              		.loc 1 92 31 is_stmt 0 view .LVU3082
 8045 003a 6D00     		lsls	r5, r5, #1
 8046              	.LVL1181:
 8047              	.L316:
 102:../Common/IQMath/ti/_IQNexp.c ****     
 8048              		.loc 1 102 5 is_stmt 1 view .LVU3083
 102:../Common/IQMath/ti/_IQNexp.c ****     
 8049              		.loc 1 102 5 is_stmt 0 view .LVU3084
 8050              	.LBE485:
 8051              	.LBE484:
  28:../Common/IQMath/ti/./support/RTS_support.h **** }
 8052              		.loc 2 28 5 is_stmt 1 view .LVU3085
 8053              	.LBB493:
 8054              	.LBB490:
 109:../Common/IQMath/ti/_IQNexp.c ****     uiq30FractionalResult = *piq30Coeffs++;
 8055              		.loc 1 109 5 view .LVU3086
 110:../Common/IQMath/ti/_IQNexp.c ****     
 8056              		.loc 1 110 5 view .LVU3087
 110:../Common/IQMath/ti/_IQNexp.c ****     
 8057              		.loc 1 110 27 is_stmt 0 view .LVU3088
 8058 003c 2548     		ldr	r0, .L323+20
 8059              	.LVL1182:
 110:../Common/IQMath/ti/_IQNexp.c ****     
 8060              		.loc 1 110 27 view .LVU3089
 8061 003e 50F8043B 		ldr	r3, [r0], #4
 8062              	.LVL1183:
 113:../Common/IQMath/ti/_IQNexp.c ****         uiq30FractionalResult = __mpyf_l(iq31Fractional, uiq30FractionalResult);
 8063              		.loc 1 113 5 is_stmt 1 view .LVU3090
 113:../Common/IQMath/ti/_IQNexp.c ****         uiq30FractionalResult = __mpyf_l(iq31Fractional, uiq30FractionalResult);
 8064              		.loc 1 113 19 is_stmt 0 view .LVU3091
 8065 0042 0A24     		movs	r4, #10
 113:../Common/IQMath/ti/_IQNexp.c ****         uiq30FractionalResult = __mpyf_l(iq31Fractional, uiq30FractionalResult);
 8066              		.loc 1 113 5 view .LVU3092
 8067 0044 2AE0     		b	.L317
 8068              	.LVL1184:
 8069              	.L322:
  48:../Common/IQMath/ti/_IQNexp.c ****             return 0;
 8070              		.loc 1 48 9 is_stmt 1 view .LVU3093
  48:../Common/IQMath/ti/_IQNexp.c ****             return 0;
 8071              		.loc 1 48 12 is_stmt 0 view .LVU3094
 8072 0046 8142     		cmp	r1, r0
 8073 0048 34DC     		bgt	.L319
  53:../Common/IQMath/ti/_IQNexp.c ****         iq31Fractional <<= (31 - q_value);
 8074              		.loc 1 53 9 is_stmt 1 view .LVU3095
 8075              	.LVL1185:
  54:../Common/IQMath/ti/_IQNexp.c ****         iq31Fractional |= 0x80000000;
 8076              		.loc 1 54 9 view .LVU3096
  54:../Common/IQMath/ti/_IQNexp.c ****         iq31Fractional |= 0x80000000;
 8077              		.loc 1 54 24 is_stmt 0 view .LVU3097
 8078 004a 4FEAC06C 		lsl	ip, r0, #27
 8079              	.LVL1186:
  55:../Common/IQMath/ti/_IQNexp.c ****     
ARM GAS  C:\Users\57308\AppData\Local\Temp\ccyuPR38.s 			page 203


 8080              		.loc 1 55 9 is_stmt 1 view .LVU3098
  55:../Common/IQMath/ti/_IQNexp.c ****     
 8081              		.loc 1 55 24 is_stmt 0 view .LVU3099
 8082 004e 4CF0004C 		orr	ip, ip, #-2147483648
 8083              	.LVL1187:
  58:../Common/IQMath/ti/_IQNexp.c ****     
 8084              		.loc 1 58 9 is_stmt 1 view .LVU3100
  58:../Common/IQMath/ti/_IQNexp.c ****     
 8085              		.loc 1 58 46 is_stmt 0 view .LVU3101
 8086 0052 0011     		asrs	r0, r0, #4
 8087              	.LVL1188:
  58:../Common/IQMath/ti/_IQNexp.c ****     
 8088              		.loc 1 58 20 view .LVU3102
 8089 0054 0130     		adds	r0, r0, #1
 8090              	.LVL1189:
  61:../Common/IQMath/ti/_IQNexp.c ****         uiqNIntegerResult = iqNLookupTable[i16Integer];
 8091              		.loc 1 61 9 is_stmt 1 view .LVU3103
  61:../Common/IQMath/ti/_IQNexp.c ****         uiqNIntegerResult = iqNLookupTable[i16Integer];
 8092              		.loc 1 61 20 is_stmt 0 view .LVU3104
 8093 0056 1844     		add	r0, r0, r3
 8094              	.LVL1190:
  62:../Common/IQMath/ti/_IQNexp.c ****         
 8095              		.loc 1 62 9 is_stmt 1 view .LVU3105
  62:../Common/IQMath/ti/_IQNexp.c ****         
 8096              		.loc 1 62 43 is_stmt 0 view .LVU3106
 8097 0058 1C4B     		ldr	r3, .L323+12
 8098              	.LVL1191:
  62:../Common/IQMath/ti/_IQNexp.c ****         
 8099              		.loc 1 62 27 view .LVU3107
 8100 005a 53F82050 		ldr	r5, [r3, r0, lsl #2]
 8101              	.LVL1192:
  65:../Common/IQMath/ti/_IQNexp.c ****             iq31Fractional += iq31_ln2;
 8102              		.loc 1 65 9 is_stmt 1 view .LVU3108
  65:../Common/IQMath/ti/_IQNexp.c ****             iq31Fractional += iq31_ln2;
 8103              		.loc 1 65 12 is_stmt 0 view .LVU3109
 8104 005e 1E4B     		ldr	r3, .L323+24
 8105 0060 9C45     		cmp	ip, r3
 8106 0062 EBDA     		bge	.L316
  66:../Common/IQMath/ti/_IQNexp.c ****             uiqNIntegerResult >>= 1;
 8107              		.loc 1 66 13 is_stmt 1 view .LVU3110
  66:../Common/IQMath/ti/_IQNexp.c ****             uiqNIntegerResult >>= 1;
 8108              		.loc 1 66 28 is_stmt 0 view .LVU3111
 8109 0064 0CF1B14C 		add	ip, ip, #1484783616
 8110              	.LVL1193:
  66:../Common/IQMath/ti/_IQNexp.c ****             uiqNIntegerResult >>= 1;
 8111              		.loc 1 66 28 view .LVU3112
 8112 0068 0CF5641C 		add	ip, ip, #3735552
 8113              	.LVL1194:
  66:../Common/IQMath/ti/_IQNexp.c ****             uiqNIntegerResult >>= 1;
 8114              		.loc 1 66 28 view .LVU3113
 8115 006c 0CF6FC3C 		addw	ip, ip, #3068
 8116              	.LVL1195:
  67:../Common/IQMath/ti/_IQNexp.c ****         }
 8117              		.loc 1 67 13 is_stmt 1 view .LVU3114
  67:../Common/IQMath/ti/_IQNexp.c ****         }
 8118              		.loc 1 67 31 is_stmt 0 view .LVU3115
 8119 0070 6D08     		lsrs	r5, r5, #1
ARM GAS  C:\Users\57308\AppData\Local\Temp\ccyuPR38.s 			page 204


 8120              	.LVL1196:
  67:../Common/IQMath/ti/_IQNexp.c ****         }
 8121              		.loc 1 67 31 view .LVU3116
 8122 0072 E3E7     		b	.L316
 8123              	.LVL1197:
 8124              	.L318:
 114:../Common/IQMath/ti/_IQNexp.c ****         uiq30FractionalResult += *piq30Coeffs++;
 8125              		.loc 1 114 9 is_stmt 1 view .LVU3117
 8126              	.LBB486:
 8127              	.LBI486:
 233:../Common/IQMath/ti/./support/RTS_support.h **** {
 8128              		.loc 2 233 28 view .LVU3118
 8129              	.LBB487:
 235:../Common/IQMath/ti/./support/RTS_support.h **** }
 8130              		.loc 2 235 5 view .LVU3119
 235:../Common/IQMath/ti/./support/RTS_support.h **** }
 8131              		.loc 2 235 28 is_stmt 0 view .LVU3120
 8132 0074 4FEAEC72 		asr	r2, ip, #31
 235:../Common/IQMath/ti/./support/RTS_support.h **** }
 8133              		.loc 2 235 49 view .LVU3121
 8134 0078 D917     		asrs	r1, r3, #31
 235:../Common/IQMath/ti/./support/RTS_support.h **** }
 8135              		.loc 2 235 47 view .LVU3122
 8136 007a 0CFB01F1 		mul	r1, ip, r1
 8137 007e 03FB0212 		mla	r2, r3, r2, r1
 8138 0082 ACFB0331 		umull	r3, r1, ip, r3
 8139              	.LVL1198:
 235:../Common/IQMath/ti/./support/RTS_support.h **** }
 8140              		.loc 2 235 47 view .LVU3123
 8141 0086 0A44     		add	r2, r2, r1
 235:../Common/IQMath/ti/./support/RTS_support.h **** }
 8142              		.loc 2 235 69 view .LVU3124
 8143 0088 DB0F     		lsrs	r3, r3, #31
 8144 008a 43EA4203 		orr	r3, r3, r2, lsl #1
 8145              	.LVL1199:
 235:../Common/IQMath/ti/./support/RTS_support.h **** }
 8146              		.loc 2 235 69 view .LVU3125
 8147              	.LBE487:
 8148              	.LBE486:
 115:../Common/IQMath/ti/_IQNexp.c ****     }
 8149              		.loc 1 115 9 is_stmt 1 view .LVU3126
 115:../Common/IQMath/ti/_IQNexp.c ****     }
 8150              		.loc 1 115 46 is_stmt 0 view .LVU3127
 8151 008e 0246     		mov	r2, r0
 8152              	.LVL1200:
 115:../Common/IQMath/ti/_IQNexp.c ****     }
 8153              		.loc 1 115 34 view .LVU3128
 8154 0090 52F8041B 		ldr	r1, [r2], #4
 8155              	.LVL1201:
 115:../Common/IQMath/ti/_IQNexp.c ****     }
 8156              		.loc 1 115 31 view .LVU3129
 8157 0094 0B44     		add	r3, r3, r1
 8158              	.LVL1202:
 113:../Common/IQMath/ti/_IQNexp.c ****         uiq30FractionalResult = __mpyf_l(iq31Fractional, uiq30FractionalResult);
 8159              		.loc 1 113 51 is_stmt 1 view .LVU3130
 113:../Common/IQMath/ti/_IQNexp.c ****         uiq30FractionalResult = __mpyf_l(iq31Fractional, uiq30FractionalResult);
 8160              		.loc 1 113 59 is_stmt 0 view .LVU3131
ARM GAS  C:\Users\57308\AppData\Local\Temp\ccyuPR38.s 			page 205


 8161 0096 013C     		subs	r4, r4, #1
 8162              	.LVL1203:
 113:../Common/IQMath/ti/_IQNexp.c ****         uiq30FractionalResult = __mpyf_l(iq31Fractional, uiq30FractionalResult);
 8163              		.loc 1 113 59 view .LVU3132
 8164 0098 E4B2     		uxtb	r4, r4
 8165              	.LVL1204:
 115:../Common/IQMath/ti/_IQNexp.c ****     }
 8166              		.loc 1 115 46 view .LVU3133
 8167 009a 1046     		mov	r0, r2
 8168              	.LVL1205:
 8169              	.L317:
 113:../Common/IQMath/ti/_IQNexp.c ****         uiq30FractionalResult = __mpyf_l(iq31Fractional, uiq30FractionalResult);
 8170              		.loc 1 113 37 is_stmt 1 view .LVU3134
 113:../Common/IQMath/ti/_IQNexp.c ****         uiq30FractionalResult = __mpyf_l(iq31Fractional, uiq30FractionalResult);
 8171              		.loc 1 113 5 is_stmt 0 view .LVU3135
 8172 009c 002C     		cmp	r4, #0
 8173 009e E9D1     		bne	.L318
 119:../Common/IQMath/ti/_IQNexp.c ****     
 8174              		.loc 1 119 5 is_stmt 1 view .LVU3136
 119:../Common/IQMath/ti/_IQNexp.c ****     
 8175              		.loc 1 119 27 is_stmt 0 view .LVU3137
 8176 00a0 5B00     		lsls	r3, r3, #1
 8177              	.LVL1206:
 125:../Common/IQMath/ti/_IQNexp.c ****     
 8178              		.loc 1 125 5 is_stmt 1 view .LVU3138
 8179              	.LBB488:
 8180              	.LBI488:
 254:../Common/IQMath/ti/./support/RTS_support.h **** {
 8181              		.loc 2 254 29 view .LVU3139
 8182              	.LBB489:
 8183              		.loc 2 256 5 view .LVU3140
 8184              		.loc 2 256 49 is_stmt 0 view .LVU3141
 8185 00a2 A5FB0353 		umull	r5, r3, r5, r3
 8186              	.LVL1207:
 8187              		.loc 2 256 72 view .LVU3142
 8188 00a6 ED0F     		lsrs	r5, r5, #31
 8189 00a8 45EA4305 		orr	r5, r5, r3, lsl #1
 8190              	.LVL1208:
 8191              		.loc 2 256 72 view .LVU3143
 8192              	.LBE489:
 8193              	.LBE488:
 131:../Common/IQMath/ti/_IQNexp.c ****     
 8194              		.loc 1 131 5 is_stmt 1 view .LVU3144
 131:../Common/IQMath/ti/_IQNexp.c ****     
 8195              		.loc 1 131 5 is_stmt 0 view .LVU3145
 8196              	.LBE490:
 8197              	.LBE493:
  72:../Common/IQMath/ti/./support/RTS_support.h **** }
 8198              		.loc 2 72 5 is_stmt 1 view .LVU3146
 8199              	.LBB494:
 8200              	.LBB491:
 134:../Common/IQMath/ti/_IQNexp.c ****     uiqNResult >>= 1;
 8201              		.loc 1 134 5 view .LVU3147
 134:../Common/IQMath/ti/_IQNexp.c ****     uiqNResult >>= 1;
 8202              		.loc 1 134 15 is_stmt 0 view .LVU3148
 8203 00ac 0135     		adds	r5, r5, #1
 8204              	.LVL1209:
ARM GAS  C:\Users\57308\AppData\Local\Temp\ccyuPR38.s 			page 206


 135:../Common/IQMath/ti/_IQNexp.c ****     
 8205              		.loc 1 135 5 is_stmt 1 view .LVU3149
 135:../Common/IQMath/ti/_IQNexp.c ****     
 8206              		.loc 1 135 16 is_stmt 0 view .LVU3150
 8207 00ae 6808     		lsrs	r0, r5, #1
 8208              	.LVL1210:
 137:../Common/IQMath/ti/_IQNexp.c **** }
 8209              		.loc 1 137 5 is_stmt 1 view .LVU3151
 8210              	.L313:
 137:../Common/IQMath/ti/_IQNexp.c **** }
 8211              		.loc 1 137 5 is_stmt 0 view .LVU3152
 8212              	.LBE491:
 8213              	.LBE494:
 436:../Common/IQMath/ti/_IQNexp.c **** }
 8214              		.loc 1 436 1 view .LVU3153
 8215 00b0 30BC     		pop	{r4, r5}
 8216              	.LCFI79:
 8217              		.cfi_remember_state
 8218              		.cfi_restore 5
 8219              		.cfi_restore 4
 8220              		.cfi_def_cfa_offset 0
 8221 00b2 7047     		bx	lr
 8222              	.LVL1211:
 8223              	.L319:
 8224              	.LCFI80:
 8225              		.cfi_restore_state
 8226              	.LBB495:
 8227              	.LBB492:
  49:../Common/IQMath/ti/_IQNexp.c ****         }
 8228              		.loc 1 49 20 view .LVU3154
 8229 00b4 0020     		movs	r0, #0
 8230              	.LVL1212:
  49:../Common/IQMath/ti/_IQNexp.c ****         }
 8231              		.loc 1 49 20 view .LVU3155
 8232 00b6 FBE7     		b	.L313
 8233              	.LVL1213:
 8234              	.L320:
  74:../Common/IQMath/ti/_IQNexp.c ****         }
 8235              		.loc 1 74 20 view .LVU3156
 8236 00b8 6FF00040 		mvn	r0, #-2147483648
 8237              	.LVL1214:
  74:../Common/IQMath/ti/_IQNexp.c ****         }
 8238              		.loc 1 74 20 view .LVU3157
 8239              	.LBE492:
 8240              	.LBE495:
 435:../Common/IQMath/ti/_IQNexp.c **** }
 8241              		.loc 1 435 12 view .LVU3158
 8242 00bc F8E7     		b	.L313
 8243              	.L324:
 8244 00be 00BF     		.align	2
 8245              	.L323:
 8246 00c0 00000000 		.word	_IQNexp_offset
 8247 00c4 00000000 		.word	_IQNexp_min
 8248 00c8 00000000 		.word	_IQNexp_max
 8249 00cc 00000000 		.word	_IQNexp_lookup4
 8250 00d0 FB0BB958 		.word	1488522235
 8251 00d4 00000000 		.word	_IQ30exp_coeffs
ARM GAS  C:\Users\57308\AppData\Local\Temp\ccyuPR38.s 			page 207


 8252 00d8 05F446A7 		.word	-1488522235
 8253              		.cfi_endproc
 8254              	.LFE288:
 8256              		.section	.text._IQ3exp,"ax",%progbits
 8257              		.align	1
 8258              		.global	_IQ3exp
 8259              		.syntax unified
 8260              		.thumb
 8261              		.thumb_func
 8263              	_IQ3exp:
 8264              	.LVL1215:
 8265              	.LFB289:
 437:../Common/IQMath/ti/_IQNexp.c **** /**
 438:../Common/IQMath/ti/_IQNexp.c ****  * @brief Computes the exponential of an IQ3 input.
 439:../Common/IQMath/ti/_IQNexp.c ****  *
 440:../Common/IQMath/ti/_IQNexp.c ****  * @param a               IQ3 type input.
 441:../Common/IQMath/ti/_IQNexp.c ****  *
 442:../Common/IQMath/ti/_IQNexp.c ****  * @return                IQ3 type result of exponential.
 443:../Common/IQMath/ti/_IQNexp.c ****  */
 444:../Common/IQMath/ti/_IQNexp.c **** int32_t _IQ3exp(int32_t a)
 445:../Common/IQMath/ti/_IQNexp.c **** {
 8266              		.loc 1 445 1 is_stmt 1 view -0
 8267              		.cfi_startproc
 8268              		@ args = 0, pretend = 0, frame = 0
 8269              		@ frame_needed = 0, uses_anonymous_args = 0
 8270              		@ link register save eliminated.
 8271              		.loc 1 445 1 is_stmt 0 view .LVU3160
 8272 0000 30B4     		push	{r4, r5}
 8273              	.LCFI81:
 8274              		.cfi_def_cfa_offset 8
 8275              		.cfi_offset 4, -8
 8276              		.cfi_offset 5, -4
 446:../Common/IQMath/ti/_IQNexp.c ****     return __IQNexp(a, _IQNexp_lookup3, _IQNexp_offset[3-1], _IQNexp_min[3-1], _IQNexp_max[3-1], 3)
 8277              		.loc 1 446 5 is_stmt 1 view .LVU3161
 8278              		.loc 1 446 12 is_stmt 0 view .LVU3162
 8279 0002 2F4B     		ldr	r3, .L335
 8280 0004 1B7A     		ldrb	r3, [r3, #8]	@ zero_extendqisi2
 8281              		.loc 1 446 73 view .LVU3163
 8282 0006 2F4A     		ldr	r2, .L335+4
 8283 0008 9168     		ldr	r1, [r2, #8]
 8284              		.loc 1 446 91 view .LVU3164
 8285 000a 2F4A     		ldr	r2, .L335+8
 8286 000c 9268     		ldr	r2, [r2, #8]
 8287              	.LVL1216:
 8288              	.LBB502:
 8289              	.LBI502:
  32:../Common/IQMath/ti/_IQNexp.c **** {
 8290              		.loc 1 32 30 is_stmt 1 view .LVU3165
 8291              	.LBB503:
  34:../Common/IQMath/ti/_IQNexp.c ****     int_fast16_t i16Integer;
 8292              		.loc 1 34 5 view .LVU3166
  35:../Common/IQMath/ti/_IQNexp.c ****     uint_fast16_t ui16IntState;
 8293              		.loc 1 35 5 view .LVU3167
  36:../Common/IQMath/ti/_IQNexp.c ****     uint_fast16_t ui16MPYState;
 8294              		.loc 1 36 5 view .LVU3168
  37:../Common/IQMath/ti/_IQNexp.c ****     int_fast32_t iq31Fractional;
 8295              		.loc 1 37 5 view .LVU3169
ARM GAS  C:\Users\57308\AppData\Local\Temp\ccyuPR38.s 			page 208


  38:../Common/IQMath/ti/_IQNexp.c ****     uint_fast32_t uiqNResult;
 8296              		.loc 1 38 5 view .LVU3170
  39:../Common/IQMath/ti/_IQNexp.c ****     uint_fast32_t uiqNIntegerResult;
 8297              		.loc 1 39 5 view .LVU3171
  40:../Common/IQMath/ti/_IQNexp.c ****     uint_fast32_t uiq30FractionalResult;
 8298              		.loc 1 40 5 view .LVU3172
  41:../Common/IQMath/ti/_IQNexp.c ****     uint_fast32_t uiq31FractionalResult;
 8299              		.loc 1 41 5 view .LVU3173
  42:../Common/IQMath/ti/_IQNexp.c ****     const uint_fast32_t *piq30Coeffs;
 8300              		.loc 1 42 5 view .LVU3174
  43:../Common/IQMath/ti/_IQNexp.c ****     
 8301              		.loc 1 43 5 view .LVU3175
  46:../Common/IQMath/ti/_IQNexp.c ****         /* Check for the minimum value. */
 8302              		.loc 1 46 5 view .LVU3176
  46:../Common/IQMath/ti/_IQNexp.c ****         /* Check for the minimum value. */
 8303              		.loc 1 46 8 is_stmt 0 view .LVU3177
 8304 000e 0028     		cmp	r0, #0
  46:../Common/IQMath/ti/_IQNexp.c ****         /* Check for the minimum value. */
 8305              		.loc 1 46 8 view .LVU3178
 8306 0010 19DB     		blt	.L334
  73:../Common/IQMath/ti/_IQNexp.c ****             return INT32_MAX;
 8307              		.loc 1 73 9 is_stmt 1 view .LVU3179
  73:../Common/IQMath/ti/_IQNexp.c ****             return INT32_MAX;
 8308              		.loc 1 73 12 is_stmt 0 view .LVU3180
 8309 0012 8242     		cmp	r2, r0
 8310 0014 50DB     		blt	.L332
  78:../Common/IQMath/ti/_IQNexp.c ****         iq31Fractional <<= (31 - q_value);
 8311              		.loc 1 78 9 is_stmt 1 view .LVU3181
 8312              	.LVL1217:
  79:../Common/IQMath/ti/_IQNexp.c ****         iq31Fractional &= 0x7fffffff;
 8313              		.loc 1 79 9 view .LVU3182
  79:../Common/IQMath/ti/_IQNexp.c ****         iq31Fractional &= 0x7fffffff;
 8314              		.loc 1 79 24 is_stmt 0 view .LVU3183
 8315 0016 4FEA007C 		lsl	ip, r0, #28
 8316              	.LVL1218:
  80:../Common/IQMath/ti/_IQNexp.c ****     
 8317              		.loc 1 80 9 is_stmt 1 view .LVU3184
  80:../Common/IQMath/ti/_IQNexp.c ****     
 8318              		.loc 1 80 24 is_stmt 0 view .LVU3185
 8319 001a 2CF0004C 		bic	ip, ip, #-2147483648
 8320              	.LVL1219:
  83:../Common/IQMath/ti/_IQNexp.c ****     
 8321              		.loc 1 83 9 is_stmt 1 view .LVU3186
  86:../Common/IQMath/ti/_IQNexp.c ****         uiqNIntegerResult = iqNLookupTable[i16Integer];
 8322              		.loc 1 86 9 view .LVU3187
  86:../Common/IQMath/ti/_IQNexp.c ****         uiqNIntegerResult = iqNLookupTable[i16Integer];
 8323              		.loc 1 86 20 is_stmt 0 view .LVU3188
 8324 001e 03EBE000 		add	r0, r3, r0, asr #3
 8325              	.LVL1220:
  87:../Common/IQMath/ti/_IQNexp.c ****         
 8326              		.loc 1 87 9 is_stmt 1 view .LVU3189
  87:../Common/IQMath/ti/_IQNexp.c ****         
 8327              		.loc 1 87 43 is_stmt 0 view .LVU3190
 8328 0022 2A4B     		ldr	r3, .L335+12
 8329              	.LVL1221:
  87:../Common/IQMath/ti/_IQNexp.c ****         
 8330              		.loc 1 87 27 view .LVU3191
ARM GAS  C:\Users\57308\AppData\Local\Temp\ccyuPR38.s 			page 209


 8331 0024 53F82050 		ldr	r5, [r3, r0, lsl #2]
 8332              	.LVL1222:
  90:../Common/IQMath/ti/_IQNexp.c ****             iq31Fractional -= iq31_ln2;
 8333              		.loc 1 90 9 is_stmt 1 view .LVU3192
  90:../Common/IQMath/ti/_IQNexp.c ****             iq31Fractional -= iq31_ln2;
 8334              		.loc 1 90 12 is_stmt 0 view .LVU3193
 8335 0028 294B     		ldr	r3, .L335+16
 8336 002a 9C45     		cmp	ip, r3
 8337 002c 06DD     		ble	.L328
  91:../Common/IQMath/ti/_IQNexp.c ****             uiqNIntegerResult <<= 1;
 8338              		.loc 1 91 13 is_stmt 1 view .LVU3194
  91:../Common/IQMath/ti/_IQNexp.c ****             uiqNIntegerResult <<= 1;
 8339              		.loc 1 91 28 is_stmt 0 view .LVU3195
 8340 002e ACF1B14C 		sub	ip, ip, #1484783616
 8341              	.LVL1223:
  91:../Common/IQMath/ti/_IQNexp.c ****             uiqNIntegerResult <<= 1;
 8342              		.loc 1 91 28 view .LVU3196
 8343 0032 ACF5641C 		sub	ip, ip, #3735552
 8344              	.LVL1224:
  91:../Common/IQMath/ti/_IQNexp.c ****             uiqNIntegerResult <<= 1;
 8345              		.loc 1 91 28 view .LVU3197
 8346 0036 ACF6FC3C 		subw	ip, ip, #3068
 8347              	.LVL1225:
  92:../Common/IQMath/ti/_IQNexp.c ****         }
 8348              		.loc 1 92 13 is_stmt 1 view .LVU3198
  92:../Common/IQMath/ti/_IQNexp.c ****         }
 8349              		.loc 1 92 31 is_stmt 0 view .LVU3199
 8350 003a 6D00     		lsls	r5, r5, #1
 8351              	.LVL1226:
 8352              	.L328:
 102:../Common/IQMath/ti/_IQNexp.c ****     
 8353              		.loc 1 102 5 is_stmt 1 view .LVU3200
 102:../Common/IQMath/ti/_IQNexp.c ****     
 8354              		.loc 1 102 5 is_stmt 0 view .LVU3201
 8355              	.LBE503:
 8356              	.LBE502:
  28:../Common/IQMath/ti/./support/RTS_support.h **** }
 8357              		.loc 2 28 5 is_stmt 1 view .LVU3202
 8358              	.LBB511:
 8359              	.LBB508:
 109:../Common/IQMath/ti/_IQNexp.c ****     uiq30FractionalResult = *piq30Coeffs++;
 8360              		.loc 1 109 5 view .LVU3203
 110:../Common/IQMath/ti/_IQNexp.c ****     
 8361              		.loc 1 110 5 view .LVU3204
 110:../Common/IQMath/ti/_IQNexp.c ****     
 8362              		.loc 1 110 27 is_stmt 0 view .LVU3205
 8363 003c 2548     		ldr	r0, .L335+20
 8364              	.LVL1227:
 110:../Common/IQMath/ti/_IQNexp.c ****     
 8365              		.loc 1 110 27 view .LVU3206
 8366 003e 50F8043B 		ldr	r3, [r0], #4
 8367              	.LVL1228:
 113:../Common/IQMath/ti/_IQNexp.c ****         uiq30FractionalResult = __mpyf_l(iq31Fractional, uiq30FractionalResult);
 8368              		.loc 1 113 5 is_stmt 1 view .LVU3207
 113:../Common/IQMath/ti/_IQNexp.c ****         uiq30FractionalResult = __mpyf_l(iq31Fractional, uiq30FractionalResult);
 8369              		.loc 1 113 19 is_stmt 0 view .LVU3208
 8370 0042 0A24     		movs	r4, #10
ARM GAS  C:\Users\57308\AppData\Local\Temp\ccyuPR38.s 			page 210


 113:../Common/IQMath/ti/_IQNexp.c ****         uiq30FractionalResult = __mpyf_l(iq31Fractional, uiq30FractionalResult);
 8371              		.loc 1 113 5 view .LVU3209
 8372 0044 2AE0     		b	.L329
 8373              	.LVL1229:
 8374              	.L334:
  48:../Common/IQMath/ti/_IQNexp.c ****             return 0;
 8375              		.loc 1 48 9 is_stmt 1 view .LVU3210
  48:../Common/IQMath/ti/_IQNexp.c ****             return 0;
 8376              		.loc 1 48 12 is_stmt 0 view .LVU3211
 8377 0046 8142     		cmp	r1, r0
 8378 0048 34DC     		bgt	.L331
  53:../Common/IQMath/ti/_IQNexp.c ****         iq31Fractional <<= (31 - q_value);
 8379              		.loc 1 53 9 is_stmt 1 view .LVU3212
 8380              	.LVL1230:
  54:../Common/IQMath/ti/_IQNexp.c ****         iq31Fractional |= 0x80000000;
 8381              		.loc 1 54 9 view .LVU3213
  54:../Common/IQMath/ti/_IQNexp.c ****         iq31Fractional |= 0x80000000;
 8382              		.loc 1 54 24 is_stmt 0 view .LVU3214
 8383 004a 4FEA007C 		lsl	ip, r0, #28
 8384              	.LVL1231:
  55:../Common/IQMath/ti/_IQNexp.c ****     
 8385              		.loc 1 55 9 is_stmt 1 view .LVU3215
  55:../Common/IQMath/ti/_IQNexp.c ****     
 8386              		.loc 1 55 24 is_stmt 0 view .LVU3216
 8387 004e 4CF0004C 		orr	ip, ip, #-2147483648
 8388              	.LVL1232:
  58:../Common/IQMath/ti/_IQNexp.c ****     
 8389              		.loc 1 58 9 is_stmt 1 view .LVU3217
  58:../Common/IQMath/ti/_IQNexp.c ****     
 8390              		.loc 1 58 46 is_stmt 0 view .LVU3218
 8391 0052 C010     		asrs	r0, r0, #3
 8392              	.LVL1233:
  58:../Common/IQMath/ti/_IQNexp.c ****     
 8393              		.loc 1 58 20 view .LVU3219
 8394 0054 0130     		adds	r0, r0, #1
 8395              	.LVL1234:
  61:../Common/IQMath/ti/_IQNexp.c ****         uiqNIntegerResult = iqNLookupTable[i16Integer];
 8396              		.loc 1 61 9 is_stmt 1 view .LVU3220
  61:../Common/IQMath/ti/_IQNexp.c ****         uiqNIntegerResult = iqNLookupTable[i16Integer];
 8397              		.loc 1 61 20 is_stmt 0 view .LVU3221
 8398 0056 1844     		add	r0, r0, r3
 8399              	.LVL1235:
  62:../Common/IQMath/ti/_IQNexp.c ****         
 8400              		.loc 1 62 9 is_stmt 1 view .LVU3222
  62:../Common/IQMath/ti/_IQNexp.c ****         
 8401              		.loc 1 62 43 is_stmt 0 view .LVU3223
 8402 0058 1C4B     		ldr	r3, .L335+12
 8403              	.LVL1236:
  62:../Common/IQMath/ti/_IQNexp.c ****         
 8404              		.loc 1 62 27 view .LVU3224
 8405 005a 53F82050 		ldr	r5, [r3, r0, lsl #2]
 8406              	.LVL1237:
  65:../Common/IQMath/ti/_IQNexp.c ****             iq31Fractional += iq31_ln2;
 8407              		.loc 1 65 9 is_stmt 1 view .LVU3225
  65:../Common/IQMath/ti/_IQNexp.c ****             iq31Fractional += iq31_ln2;
 8408              		.loc 1 65 12 is_stmt 0 view .LVU3226
 8409 005e 1E4B     		ldr	r3, .L335+24
ARM GAS  C:\Users\57308\AppData\Local\Temp\ccyuPR38.s 			page 211


 8410 0060 9C45     		cmp	ip, r3
 8411 0062 EBDA     		bge	.L328
  66:../Common/IQMath/ti/_IQNexp.c ****             uiqNIntegerResult >>= 1;
 8412              		.loc 1 66 13 is_stmt 1 view .LVU3227
  66:../Common/IQMath/ti/_IQNexp.c ****             uiqNIntegerResult >>= 1;
 8413              		.loc 1 66 28 is_stmt 0 view .LVU3228
 8414 0064 0CF1B14C 		add	ip, ip, #1484783616
 8415              	.LVL1238:
  66:../Common/IQMath/ti/_IQNexp.c ****             uiqNIntegerResult >>= 1;
 8416              		.loc 1 66 28 view .LVU3229
 8417 0068 0CF5641C 		add	ip, ip, #3735552
 8418              	.LVL1239:
  66:../Common/IQMath/ti/_IQNexp.c ****             uiqNIntegerResult >>= 1;
 8419              		.loc 1 66 28 view .LVU3230
 8420 006c 0CF6FC3C 		addw	ip, ip, #3068
 8421              	.LVL1240:
  67:../Common/IQMath/ti/_IQNexp.c ****         }
 8422              		.loc 1 67 13 is_stmt 1 view .LVU3231
  67:../Common/IQMath/ti/_IQNexp.c ****         }
 8423              		.loc 1 67 31 is_stmt 0 view .LVU3232
 8424 0070 6D08     		lsrs	r5, r5, #1
 8425              	.LVL1241:
  67:../Common/IQMath/ti/_IQNexp.c ****         }
 8426              		.loc 1 67 31 view .LVU3233
 8427 0072 E3E7     		b	.L328
 8428              	.LVL1242:
 8429              	.L330:
 114:../Common/IQMath/ti/_IQNexp.c ****         uiq30FractionalResult += *piq30Coeffs++;
 8430              		.loc 1 114 9 is_stmt 1 view .LVU3234
 8431              	.LBB504:
 8432              	.LBI504:
 233:../Common/IQMath/ti/./support/RTS_support.h **** {
 8433              		.loc 2 233 28 view .LVU3235
 8434              	.LBB505:
 235:../Common/IQMath/ti/./support/RTS_support.h **** }
 8435              		.loc 2 235 5 view .LVU3236
 235:../Common/IQMath/ti/./support/RTS_support.h **** }
 8436              		.loc 2 235 28 is_stmt 0 view .LVU3237
 8437 0074 4FEAEC72 		asr	r2, ip, #31
 235:../Common/IQMath/ti/./support/RTS_support.h **** }
 8438              		.loc 2 235 49 view .LVU3238
 8439 0078 D917     		asrs	r1, r3, #31
 235:../Common/IQMath/ti/./support/RTS_support.h **** }
 8440              		.loc 2 235 47 view .LVU3239
 8441 007a 0CFB01F1 		mul	r1, ip, r1
 8442 007e 03FB0212 		mla	r2, r3, r2, r1
 8443 0082 ACFB0331 		umull	r3, r1, ip, r3
 8444              	.LVL1243:
 235:../Common/IQMath/ti/./support/RTS_support.h **** }
 8445              		.loc 2 235 47 view .LVU3240
 8446 0086 0A44     		add	r2, r2, r1
 235:../Common/IQMath/ti/./support/RTS_support.h **** }
 8447              		.loc 2 235 69 view .LVU3241
 8448 0088 DB0F     		lsrs	r3, r3, #31
 8449 008a 43EA4203 		orr	r3, r3, r2, lsl #1
 8450              	.LVL1244:
 235:../Common/IQMath/ti/./support/RTS_support.h **** }
ARM GAS  C:\Users\57308\AppData\Local\Temp\ccyuPR38.s 			page 212


 8451              		.loc 2 235 69 view .LVU3242
 8452              	.LBE505:
 8453              	.LBE504:
 115:../Common/IQMath/ti/_IQNexp.c ****     }
 8454              		.loc 1 115 9 is_stmt 1 view .LVU3243
 115:../Common/IQMath/ti/_IQNexp.c ****     }
 8455              		.loc 1 115 46 is_stmt 0 view .LVU3244
 8456 008e 0246     		mov	r2, r0
 8457              	.LVL1245:
 115:../Common/IQMath/ti/_IQNexp.c ****     }
 8458              		.loc 1 115 34 view .LVU3245
 8459 0090 52F8041B 		ldr	r1, [r2], #4
 8460              	.LVL1246:
 115:../Common/IQMath/ti/_IQNexp.c ****     }
 8461              		.loc 1 115 31 view .LVU3246
 8462 0094 0B44     		add	r3, r3, r1
 8463              	.LVL1247:
 113:../Common/IQMath/ti/_IQNexp.c ****         uiq30FractionalResult = __mpyf_l(iq31Fractional, uiq30FractionalResult);
 8464              		.loc 1 113 51 is_stmt 1 view .LVU3247
 113:../Common/IQMath/ti/_IQNexp.c ****         uiq30FractionalResult = __mpyf_l(iq31Fractional, uiq30FractionalResult);
 8465              		.loc 1 113 59 is_stmt 0 view .LVU3248
 8466 0096 013C     		subs	r4, r4, #1
 8467              	.LVL1248:
 113:../Common/IQMath/ti/_IQNexp.c ****         uiq30FractionalResult = __mpyf_l(iq31Fractional, uiq30FractionalResult);
 8468              		.loc 1 113 59 view .LVU3249
 8469 0098 E4B2     		uxtb	r4, r4
 8470              	.LVL1249:
 115:../Common/IQMath/ti/_IQNexp.c ****     }
 8471              		.loc 1 115 46 view .LVU3250
 8472 009a 1046     		mov	r0, r2
 8473              	.LVL1250:
 8474              	.L329:
 113:../Common/IQMath/ti/_IQNexp.c ****         uiq30FractionalResult = __mpyf_l(iq31Fractional, uiq30FractionalResult);
 8475              		.loc 1 113 37 is_stmt 1 view .LVU3251
 113:../Common/IQMath/ti/_IQNexp.c ****         uiq30FractionalResult = __mpyf_l(iq31Fractional, uiq30FractionalResult);
 8476              		.loc 1 113 5 is_stmt 0 view .LVU3252
 8477 009c 002C     		cmp	r4, #0
 8478 009e E9D1     		bne	.L330
 119:../Common/IQMath/ti/_IQNexp.c ****     
 8479              		.loc 1 119 5 is_stmt 1 view .LVU3253
 119:../Common/IQMath/ti/_IQNexp.c ****     
 8480              		.loc 1 119 27 is_stmt 0 view .LVU3254
 8481 00a0 5B00     		lsls	r3, r3, #1
 8482              	.LVL1251:
 125:../Common/IQMath/ti/_IQNexp.c ****     
 8483              		.loc 1 125 5 is_stmt 1 view .LVU3255
 8484              	.LBB506:
 8485              	.LBI506:
 254:../Common/IQMath/ti/./support/RTS_support.h **** {
 8486              		.loc 2 254 29 view .LVU3256
 8487              	.LBB507:
 8488              		.loc 2 256 5 view .LVU3257
 8489              		.loc 2 256 49 is_stmt 0 view .LVU3258
 8490 00a2 A5FB0353 		umull	r5, r3, r5, r3
 8491              	.LVL1252:
 8492              		.loc 2 256 72 view .LVU3259
 8493 00a6 ED0F     		lsrs	r5, r5, #31
ARM GAS  C:\Users\57308\AppData\Local\Temp\ccyuPR38.s 			page 213


 8494 00a8 45EA4305 		orr	r5, r5, r3, lsl #1
 8495              	.LVL1253:
 8496              		.loc 2 256 72 view .LVU3260
 8497              	.LBE507:
 8498              	.LBE506:
 131:../Common/IQMath/ti/_IQNexp.c ****     
 8499              		.loc 1 131 5 is_stmt 1 view .LVU3261
 131:../Common/IQMath/ti/_IQNexp.c ****     
 8500              		.loc 1 131 5 is_stmt 0 view .LVU3262
 8501              	.LBE508:
 8502              	.LBE511:
  72:../Common/IQMath/ti/./support/RTS_support.h **** }
 8503              		.loc 2 72 5 is_stmt 1 view .LVU3263
 8504              	.LBB512:
 8505              	.LBB509:
 134:../Common/IQMath/ti/_IQNexp.c ****     uiqNResult >>= 1;
 8506              		.loc 1 134 5 view .LVU3264
 134:../Common/IQMath/ti/_IQNexp.c ****     uiqNResult >>= 1;
 8507              		.loc 1 134 15 is_stmt 0 view .LVU3265
 8508 00ac 0135     		adds	r5, r5, #1
 8509              	.LVL1254:
 135:../Common/IQMath/ti/_IQNexp.c ****     
 8510              		.loc 1 135 5 is_stmt 1 view .LVU3266
 135:../Common/IQMath/ti/_IQNexp.c ****     
 8511              		.loc 1 135 16 is_stmt 0 view .LVU3267
 8512 00ae 6808     		lsrs	r0, r5, #1
 8513              	.LVL1255:
 137:../Common/IQMath/ti/_IQNexp.c **** }
 8514              		.loc 1 137 5 is_stmt 1 view .LVU3268
 8515              	.L325:
 137:../Common/IQMath/ti/_IQNexp.c **** }
 8516              		.loc 1 137 5 is_stmt 0 view .LVU3269
 8517              	.LBE509:
 8518              	.LBE512:
 447:../Common/IQMath/ti/_IQNexp.c **** }
 8519              		.loc 1 447 1 view .LVU3270
 8520 00b0 30BC     		pop	{r4, r5}
 8521              	.LCFI82:
 8522              		.cfi_remember_state
 8523              		.cfi_restore 5
 8524              		.cfi_restore 4
 8525              		.cfi_def_cfa_offset 0
 8526 00b2 7047     		bx	lr
 8527              	.LVL1256:
 8528              	.L331:
 8529              	.LCFI83:
 8530              		.cfi_restore_state
 8531              	.LBB513:
 8532              	.LBB510:
  49:../Common/IQMath/ti/_IQNexp.c ****         }
 8533              		.loc 1 49 20 view .LVU3271
 8534 00b4 0020     		movs	r0, #0
 8535              	.LVL1257:
  49:../Common/IQMath/ti/_IQNexp.c ****         }
 8536              		.loc 1 49 20 view .LVU3272
 8537 00b6 FBE7     		b	.L325
 8538              	.LVL1258:
ARM GAS  C:\Users\57308\AppData\Local\Temp\ccyuPR38.s 			page 214


 8539              	.L332:
  74:../Common/IQMath/ti/_IQNexp.c ****         }
 8540              		.loc 1 74 20 view .LVU3273
 8541 00b8 6FF00040 		mvn	r0, #-2147483648
 8542              	.LVL1259:
  74:../Common/IQMath/ti/_IQNexp.c ****         }
 8543              		.loc 1 74 20 view .LVU3274
 8544              	.LBE510:
 8545              	.LBE513:
 446:../Common/IQMath/ti/_IQNexp.c **** }
 8546              		.loc 1 446 12 view .LVU3275
 8547 00bc F8E7     		b	.L325
 8548              	.L336:
 8549 00be 00BF     		.align	2
 8550              	.L335:
 8551 00c0 00000000 		.word	_IQNexp_offset
 8552 00c4 00000000 		.word	_IQNexp_min
 8553 00c8 00000000 		.word	_IQNexp_max
 8554 00cc 00000000 		.word	_IQNexp_lookup3
 8555 00d0 FB0BB958 		.word	1488522235
 8556 00d4 00000000 		.word	_IQ30exp_coeffs
 8557 00d8 05F446A7 		.word	-1488522235
 8558              		.cfi_endproc
 8559              	.LFE289:
 8561              		.section	.text._IQ2exp,"ax",%progbits
 8562              		.align	1
 8563              		.global	_IQ2exp
 8564              		.syntax unified
 8565              		.thumb
 8566              		.thumb_func
 8568              	_IQ2exp:
 8569              	.LVL1260:
 8570              	.LFB290:
 448:../Common/IQMath/ti/_IQNexp.c **** /**
 449:../Common/IQMath/ti/_IQNexp.c ****  * @brief Computes the exponential of an IQ2 input.
 450:../Common/IQMath/ti/_IQNexp.c ****  *
 451:../Common/IQMath/ti/_IQNexp.c ****  * @param a               IQ2 type input.
 452:../Common/IQMath/ti/_IQNexp.c ****  *
 453:../Common/IQMath/ti/_IQNexp.c ****  * @return                IQ2 type result of exponential.
 454:../Common/IQMath/ti/_IQNexp.c ****  */
 455:../Common/IQMath/ti/_IQNexp.c **** int32_t _IQ2exp(int32_t a)
 456:../Common/IQMath/ti/_IQNexp.c **** {
 8571              		.loc 1 456 1 is_stmt 1 view -0
 8572              		.cfi_startproc
 8573              		@ args = 0, pretend = 0, frame = 0
 8574              		@ frame_needed = 0, uses_anonymous_args = 0
 8575              		@ link register save eliminated.
 8576              		.loc 1 456 1 is_stmt 0 view .LVU3277
 8577 0000 30B4     		push	{r4, r5}
 8578              	.LCFI84:
 8579              		.cfi_def_cfa_offset 8
 8580              		.cfi_offset 4, -8
 8581              		.cfi_offset 5, -4
 457:../Common/IQMath/ti/_IQNexp.c ****     return __IQNexp(a, _IQNexp_lookup2, _IQNexp_offset[2-1], _IQNexp_min[2-1], _IQNexp_max[2-1], 2)
 8582              		.loc 1 457 5 is_stmt 1 view .LVU3278
 8583              		.loc 1 457 12 is_stmt 0 view .LVU3279
 8584 0002 2F4B     		ldr	r3, .L347
ARM GAS  C:\Users\57308\AppData\Local\Temp\ccyuPR38.s 			page 215


 8585 0004 1B79     		ldrb	r3, [r3, #4]	@ zero_extendqisi2
 8586              		.loc 1 457 73 view .LVU3280
 8587 0006 2F4A     		ldr	r2, .L347+4
 8588 0008 5168     		ldr	r1, [r2, #4]
 8589              		.loc 1 457 91 view .LVU3281
 8590 000a 2F4A     		ldr	r2, .L347+8
 8591 000c 5268     		ldr	r2, [r2, #4]
 8592              	.LVL1261:
 8593              	.LBB520:
 8594              	.LBI520:
  32:../Common/IQMath/ti/_IQNexp.c **** {
 8595              		.loc 1 32 30 is_stmt 1 view .LVU3282
 8596              	.LBB521:
  34:../Common/IQMath/ti/_IQNexp.c ****     int_fast16_t i16Integer;
 8597              		.loc 1 34 5 view .LVU3283
  35:../Common/IQMath/ti/_IQNexp.c ****     uint_fast16_t ui16IntState;
 8598              		.loc 1 35 5 view .LVU3284
  36:../Common/IQMath/ti/_IQNexp.c ****     uint_fast16_t ui16MPYState;
 8599              		.loc 1 36 5 view .LVU3285
  37:../Common/IQMath/ti/_IQNexp.c ****     int_fast32_t iq31Fractional;
 8600              		.loc 1 37 5 view .LVU3286
  38:../Common/IQMath/ti/_IQNexp.c ****     uint_fast32_t uiqNResult;
 8601              		.loc 1 38 5 view .LVU3287
  39:../Common/IQMath/ti/_IQNexp.c ****     uint_fast32_t uiqNIntegerResult;
 8602              		.loc 1 39 5 view .LVU3288
  40:../Common/IQMath/ti/_IQNexp.c ****     uint_fast32_t uiq30FractionalResult;
 8603              		.loc 1 40 5 view .LVU3289
  41:../Common/IQMath/ti/_IQNexp.c ****     uint_fast32_t uiq31FractionalResult;
 8604              		.loc 1 41 5 view .LVU3290
  42:../Common/IQMath/ti/_IQNexp.c ****     const uint_fast32_t *piq30Coeffs;
 8605              		.loc 1 42 5 view .LVU3291
  43:../Common/IQMath/ti/_IQNexp.c ****     
 8606              		.loc 1 43 5 view .LVU3292
  46:../Common/IQMath/ti/_IQNexp.c ****         /* Check for the minimum value. */
 8607              		.loc 1 46 5 view .LVU3293
  46:../Common/IQMath/ti/_IQNexp.c ****         /* Check for the minimum value. */
 8608              		.loc 1 46 8 is_stmt 0 view .LVU3294
 8609 000e 0028     		cmp	r0, #0
  46:../Common/IQMath/ti/_IQNexp.c ****         /* Check for the minimum value. */
 8610              		.loc 1 46 8 view .LVU3295
 8611 0010 19DB     		blt	.L346
  73:../Common/IQMath/ti/_IQNexp.c ****             return INT32_MAX;
 8612              		.loc 1 73 9 is_stmt 1 view .LVU3296
  73:../Common/IQMath/ti/_IQNexp.c ****             return INT32_MAX;
 8613              		.loc 1 73 12 is_stmt 0 view .LVU3297
 8614 0012 8242     		cmp	r2, r0
 8615 0014 50DB     		blt	.L344
  78:../Common/IQMath/ti/_IQNexp.c ****         iq31Fractional <<= (31 - q_value);
 8616              		.loc 1 78 9 is_stmt 1 view .LVU3298
 8617              	.LVL1262:
  79:../Common/IQMath/ti/_IQNexp.c ****         iq31Fractional &= 0x7fffffff;
 8618              		.loc 1 79 9 view .LVU3299
  79:../Common/IQMath/ti/_IQNexp.c ****         iq31Fractional &= 0x7fffffff;
 8619              		.loc 1 79 24 is_stmt 0 view .LVU3300
 8620 0016 4FEA407C 		lsl	ip, r0, #29
 8621              	.LVL1263:
  80:../Common/IQMath/ti/_IQNexp.c ****     
ARM GAS  C:\Users\57308\AppData\Local\Temp\ccyuPR38.s 			page 216


 8622              		.loc 1 80 9 is_stmt 1 view .LVU3301
  80:../Common/IQMath/ti/_IQNexp.c ****     
 8623              		.loc 1 80 24 is_stmt 0 view .LVU3302
 8624 001a 2CF0004C 		bic	ip, ip, #-2147483648
 8625              	.LVL1264:
  83:../Common/IQMath/ti/_IQNexp.c ****     
 8626              		.loc 1 83 9 is_stmt 1 view .LVU3303
  86:../Common/IQMath/ti/_IQNexp.c ****         uiqNIntegerResult = iqNLookupTable[i16Integer];
 8627              		.loc 1 86 9 view .LVU3304
  86:../Common/IQMath/ti/_IQNexp.c ****         uiqNIntegerResult = iqNLookupTable[i16Integer];
 8628              		.loc 1 86 20 is_stmt 0 view .LVU3305
 8629 001e 03EBA000 		add	r0, r3, r0, asr #2
 8630              	.LVL1265:
  87:../Common/IQMath/ti/_IQNexp.c ****         
 8631              		.loc 1 87 9 is_stmt 1 view .LVU3306
  87:../Common/IQMath/ti/_IQNexp.c ****         
 8632              		.loc 1 87 43 is_stmt 0 view .LVU3307
 8633 0022 2A4B     		ldr	r3, .L347+12
 8634              	.LVL1266:
  87:../Common/IQMath/ti/_IQNexp.c ****         
 8635              		.loc 1 87 27 view .LVU3308
 8636 0024 53F82050 		ldr	r5, [r3, r0, lsl #2]
 8637              	.LVL1267:
  90:../Common/IQMath/ti/_IQNexp.c ****             iq31Fractional -= iq31_ln2;
 8638              		.loc 1 90 9 is_stmt 1 view .LVU3309
  90:../Common/IQMath/ti/_IQNexp.c ****             iq31Fractional -= iq31_ln2;
 8639              		.loc 1 90 12 is_stmt 0 view .LVU3310
 8640 0028 294B     		ldr	r3, .L347+16
 8641 002a 9C45     		cmp	ip, r3
 8642 002c 06DD     		ble	.L340
  91:../Common/IQMath/ti/_IQNexp.c ****             uiqNIntegerResult <<= 1;
 8643              		.loc 1 91 13 is_stmt 1 view .LVU3311
  91:../Common/IQMath/ti/_IQNexp.c ****             uiqNIntegerResult <<= 1;
 8644              		.loc 1 91 28 is_stmt 0 view .LVU3312
 8645 002e ACF1B14C 		sub	ip, ip, #1484783616
 8646              	.LVL1268:
  91:../Common/IQMath/ti/_IQNexp.c ****             uiqNIntegerResult <<= 1;
 8647              		.loc 1 91 28 view .LVU3313
 8648 0032 ACF5641C 		sub	ip, ip, #3735552
 8649              	.LVL1269:
  91:../Common/IQMath/ti/_IQNexp.c ****             uiqNIntegerResult <<= 1;
 8650              		.loc 1 91 28 view .LVU3314
 8651 0036 ACF6FC3C 		subw	ip, ip, #3068
 8652              	.LVL1270:
  92:../Common/IQMath/ti/_IQNexp.c ****         }
 8653              		.loc 1 92 13 is_stmt 1 view .LVU3315
  92:../Common/IQMath/ti/_IQNexp.c ****         }
 8654              		.loc 1 92 31 is_stmt 0 view .LVU3316
 8655 003a 6D00     		lsls	r5, r5, #1
 8656              	.LVL1271:
 8657              	.L340:
 102:../Common/IQMath/ti/_IQNexp.c ****     
 8658              		.loc 1 102 5 is_stmt 1 view .LVU3317
 102:../Common/IQMath/ti/_IQNexp.c ****     
 8659              		.loc 1 102 5 is_stmt 0 view .LVU3318
 8660              	.LBE521:
 8661              	.LBE520:
ARM GAS  C:\Users\57308\AppData\Local\Temp\ccyuPR38.s 			page 217


  28:../Common/IQMath/ti/./support/RTS_support.h **** }
 8662              		.loc 2 28 5 is_stmt 1 view .LVU3319
 8663              	.LBB529:
 8664              	.LBB526:
 109:../Common/IQMath/ti/_IQNexp.c ****     uiq30FractionalResult = *piq30Coeffs++;
 8665              		.loc 1 109 5 view .LVU3320
 110:../Common/IQMath/ti/_IQNexp.c ****     
 8666              		.loc 1 110 5 view .LVU3321
 110:../Common/IQMath/ti/_IQNexp.c ****     
 8667              		.loc 1 110 27 is_stmt 0 view .LVU3322
 8668 003c 2548     		ldr	r0, .L347+20
 8669              	.LVL1272:
 110:../Common/IQMath/ti/_IQNexp.c ****     
 8670              		.loc 1 110 27 view .LVU3323
 8671 003e 50F8043B 		ldr	r3, [r0], #4
 8672              	.LVL1273:
 113:../Common/IQMath/ti/_IQNexp.c ****         uiq30FractionalResult = __mpyf_l(iq31Fractional, uiq30FractionalResult);
 8673              		.loc 1 113 5 is_stmt 1 view .LVU3324
 113:../Common/IQMath/ti/_IQNexp.c ****         uiq30FractionalResult = __mpyf_l(iq31Fractional, uiq30FractionalResult);
 8674              		.loc 1 113 19 is_stmt 0 view .LVU3325
 8675 0042 0A24     		movs	r4, #10
 113:../Common/IQMath/ti/_IQNexp.c ****         uiq30FractionalResult = __mpyf_l(iq31Fractional, uiq30FractionalResult);
 8676              		.loc 1 113 5 view .LVU3326
 8677 0044 2AE0     		b	.L341
 8678              	.LVL1274:
 8679              	.L346:
  48:../Common/IQMath/ti/_IQNexp.c ****             return 0;
 8680              		.loc 1 48 9 is_stmt 1 view .LVU3327
  48:../Common/IQMath/ti/_IQNexp.c ****             return 0;
 8681              		.loc 1 48 12 is_stmt 0 view .LVU3328
 8682 0046 8142     		cmp	r1, r0
 8683 0048 34DC     		bgt	.L343
  53:../Common/IQMath/ti/_IQNexp.c ****         iq31Fractional <<= (31 - q_value);
 8684              		.loc 1 53 9 is_stmt 1 view .LVU3329
 8685              	.LVL1275:
  54:../Common/IQMath/ti/_IQNexp.c ****         iq31Fractional |= 0x80000000;
 8686              		.loc 1 54 9 view .LVU3330
  54:../Common/IQMath/ti/_IQNexp.c ****         iq31Fractional |= 0x80000000;
 8687              		.loc 1 54 24 is_stmt 0 view .LVU3331
 8688 004a 4FEA407C 		lsl	ip, r0, #29
 8689              	.LVL1276:
  55:../Common/IQMath/ti/_IQNexp.c ****     
 8690              		.loc 1 55 9 is_stmt 1 view .LVU3332
  55:../Common/IQMath/ti/_IQNexp.c ****     
 8691              		.loc 1 55 24 is_stmt 0 view .LVU3333
 8692 004e 4CF0004C 		orr	ip, ip, #-2147483648
 8693              	.LVL1277:
  58:../Common/IQMath/ti/_IQNexp.c ****     
 8694              		.loc 1 58 9 is_stmt 1 view .LVU3334
  58:../Common/IQMath/ti/_IQNexp.c ****     
 8695              		.loc 1 58 46 is_stmt 0 view .LVU3335
 8696 0052 8010     		asrs	r0, r0, #2
 8697              	.LVL1278:
  58:../Common/IQMath/ti/_IQNexp.c ****     
 8698              		.loc 1 58 20 view .LVU3336
 8699 0054 0130     		adds	r0, r0, #1
 8700              	.LVL1279:
ARM GAS  C:\Users\57308\AppData\Local\Temp\ccyuPR38.s 			page 218


  61:../Common/IQMath/ti/_IQNexp.c ****         uiqNIntegerResult = iqNLookupTable[i16Integer];
 8701              		.loc 1 61 9 is_stmt 1 view .LVU3337
  61:../Common/IQMath/ti/_IQNexp.c ****         uiqNIntegerResult = iqNLookupTable[i16Integer];
 8702              		.loc 1 61 20 is_stmt 0 view .LVU3338
 8703 0056 1844     		add	r0, r0, r3
 8704              	.LVL1280:
  62:../Common/IQMath/ti/_IQNexp.c ****         
 8705              		.loc 1 62 9 is_stmt 1 view .LVU3339
  62:../Common/IQMath/ti/_IQNexp.c ****         
 8706              		.loc 1 62 43 is_stmt 0 view .LVU3340
 8707 0058 1C4B     		ldr	r3, .L347+12
 8708              	.LVL1281:
  62:../Common/IQMath/ti/_IQNexp.c ****         
 8709              		.loc 1 62 27 view .LVU3341
 8710 005a 53F82050 		ldr	r5, [r3, r0, lsl #2]
 8711              	.LVL1282:
  65:../Common/IQMath/ti/_IQNexp.c ****             iq31Fractional += iq31_ln2;
 8712              		.loc 1 65 9 is_stmt 1 view .LVU3342
  65:../Common/IQMath/ti/_IQNexp.c ****             iq31Fractional += iq31_ln2;
 8713              		.loc 1 65 12 is_stmt 0 view .LVU3343
 8714 005e 1E4B     		ldr	r3, .L347+24
 8715 0060 9C45     		cmp	ip, r3
 8716 0062 EBDA     		bge	.L340
  66:../Common/IQMath/ti/_IQNexp.c ****             uiqNIntegerResult >>= 1;
 8717              		.loc 1 66 13 is_stmt 1 view .LVU3344
  66:../Common/IQMath/ti/_IQNexp.c ****             uiqNIntegerResult >>= 1;
 8718              		.loc 1 66 28 is_stmt 0 view .LVU3345
 8719 0064 0CF1B14C 		add	ip, ip, #1484783616
 8720              	.LVL1283:
  66:../Common/IQMath/ti/_IQNexp.c ****             uiqNIntegerResult >>= 1;
 8721              		.loc 1 66 28 view .LVU3346
 8722 0068 0CF5641C 		add	ip, ip, #3735552
 8723              	.LVL1284:
  66:../Common/IQMath/ti/_IQNexp.c ****             uiqNIntegerResult >>= 1;
 8724              		.loc 1 66 28 view .LVU3347
 8725 006c 0CF6FC3C 		addw	ip, ip, #3068
 8726              	.LVL1285:
  67:../Common/IQMath/ti/_IQNexp.c ****         }
 8727              		.loc 1 67 13 is_stmt 1 view .LVU3348
  67:../Common/IQMath/ti/_IQNexp.c ****         }
 8728              		.loc 1 67 31 is_stmt 0 view .LVU3349
 8729 0070 6D08     		lsrs	r5, r5, #1
 8730              	.LVL1286:
  67:../Common/IQMath/ti/_IQNexp.c ****         }
 8731              		.loc 1 67 31 view .LVU3350
 8732 0072 E3E7     		b	.L340
 8733              	.LVL1287:
 8734              	.L342:
 114:../Common/IQMath/ti/_IQNexp.c ****         uiq30FractionalResult += *piq30Coeffs++;
 8735              		.loc 1 114 9 is_stmt 1 view .LVU3351
 8736              	.LBB522:
 8737              	.LBI522:
 233:../Common/IQMath/ti/./support/RTS_support.h **** {
 8738              		.loc 2 233 28 view .LVU3352
 8739              	.LBB523:
 235:../Common/IQMath/ti/./support/RTS_support.h **** }
 8740              		.loc 2 235 5 view .LVU3353
ARM GAS  C:\Users\57308\AppData\Local\Temp\ccyuPR38.s 			page 219


 235:../Common/IQMath/ti/./support/RTS_support.h **** }
 8741              		.loc 2 235 28 is_stmt 0 view .LVU3354
 8742 0074 4FEAEC72 		asr	r2, ip, #31
 235:../Common/IQMath/ti/./support/RTS_support.h **** }
 8743              		.loc 2 235 49 view .LVU3355
 8744 0078 D917     		asrs	r1, r3, #31
 235:../Common/IQMath/ti/./support/RTS_support.h **** }
 8745              		.loc 2 235 47 view .LVU3356
 8746 007a 0CFB01F1 		mul	r1, ip, r1
 8747 007e 03FB0212 		mla	r2, r3, r2, r1
 8748 0082 ACFB0331 		umull	r3, r1, ip, r3
 8749              	.LVL1288:
 235:../Common/IQMath/ti/./support/RTS_support.h **** }
 8750              		.loc 2 235 47 view .LVU3357
 8751 0086 0A44     		add	r2, r2, r1
 235:../Common/IQMath/ti/./support/RTS_support.h **** }
 8752              		.loc 2 235 69 view .LVU3358
 8753 0088 DB0F     		lsrs	r3, r3, #31
 8754 008a 43EA4203 		orr	r3, r3, r2, lsl #1
 8755              	.LVL1289:
 235:../Common/IQMath/ti/./support/RTS_support.h **** }
 8756              		.loc 2 235 69 view .LVU3359
 8757              	.LBE523:
 8758              	.LBE522:
 115:../Common/IQMath/ti/_IQNexp.c ****     }
 8759              		.loc 1 115 9 is_stmt 1 view .LVU3360
 115:../Common/IQMath/ti/_IQNexp.c ****     }
 8760              		.loc 1 115 46 is_stmt 0 view .LVU3361
 8761 008e 0246     		mov	r2, r0
 8762              	.LVL1290:
 115:../Common/IQMath/ti/_IQNexp.c ****     }
 8763              		.loc 1 115 34 view .LVU3362
 8764 0090 52F8041B 		ldr	r1, [r2], #4
 8765              	.LVL1291:
 115:../Common/IQMath/ti/_IQNexp.c ****     }
 8766              		.loc 1 115 31 view .LVU3363
 8767 0094 0B44     		add	r3, r3, r1
 8768              	.LVL1292:
 113:../Common/IQMath/ti/_IQNexp.c ****         uiq30FractionalResult = __mpyf_l(iq31Fractional, uiq30FractionalResult);
 8769              		.loc 1 113 51 is_stmt 1 view .LVU3364
 113:../Common/IQMath/ti/_IQNexp.c ****         uiq30FractionalResult = __mpyf_l(iq31Fractional, uiq30FractionalResult);
 8770              		.loc 1 113 59 is_stmt 0 view .LVU3365
 8771 0096 013C     		subs	r4, r4, #1
 8772              	.LVL1293:
 113:../Common/IQMath/ti/_IQNexp.c ****         uiq30FractionalResult = __mpyf_l(iq31Fractional, uiq30FractionalResult);
 8773              		.loc 1 113 59 view .LVU3366
 8774 0098 E4B2     		uxtb	r4, r4
 8775              	.LVL1294:
 115:../Common/IQMath/ti/_IQNexp.c ****     }
 8776              		.loc 1 115 46 view .LVU3367
 8777 009a 1046     		mov	r0, r2
 8778              	.LVL1295:
 8779              	.L341:
 113:../Common/IQMath/ti/_IQNexp.c ****         uiq30FractionalResult = __mpyf_l(iq31Fractional, uiq30FractionalResult);
 8780              		.loc 1 113 37 is_stmt 1 view .LVU3368
 113:../Common/IQMath/ti/_IQNexp.c ****         uiq30FractionalResult = __mpyf_l(iq31Fractional, uiq30FractionalResult);
 8781              		.loc 1 113 5 is_stmt 0 view .LVU3369
ARM GAS  C:\Users\57308\AppData\Local\Temp\ccyuPR38.s 			page 220


 8782 009c 002C     		cmp	r4, #0
 8783 009e E9D1     		bne	.L342
 119:../Common/IQMath/ti/_IQNexp.c ****     
 8784              		.loc 1 119 5 is_stmt 1 view .LVU3370
 119:../Common/IQMath/ti/_IQNexp.c ****     
 8785              		.loc 1 119 27 is_stmt 0 view .LVU3371
 8786 00a0 5B00     		lsls	r3, r3, #1
 8787              	.LVL1296:
 125:../Common/IQMath/ti/_IQNexp.c ****     
 8788              		.loc 1 125 5 is_stmt 1 view .LVU3372
 8789              	.LBB524:
 8790              	.LBI524:
 254:../Common/IQMath/ti/./support/RTS_support.h **** {
 8791              		.loc 2 254 29 view .LVU3373
 8792              	.LBB525:
 8793              		.loc 2 256 5 view .LVU3374
 8794              		.loc 2 256 49 is_stmt 0 view .LVU3375
 8795 00a2 A5FB0353 		umull	r5, r3, r5, r3
 8796              	.LVL1297:
 8797              		.loc 2 256 72 view .LVU3376
 8798 00a6 ED0F     		lsrs	r5, r5, #31
 8799 00a8 45EA4305 		orr	r5, r5, r3, lsl #1
 8800              	.LVL1298:
 8801              		.loc 2 256 72 view .LVU3377
 8802              	.LBE525:
 8803              	.LBE524:
 131:../Common/IQMath/ti/_IQNexp.c ****     
 8804              		.loc 1 131 5 is_stmt 1 view .LVU3378
 131:../Common/IQMath/ti/_IQNexp.c ****     
 8805              		.loc 1 131 5 is_stmt 0 view .LVU3379
 8806              	.LBE526:
 8807              	.LBE529:
  72:../Common/IQMath/ti/./support/RTS_support.h **** }
 8808              		.loc 2 72 5 is_stmt 1 view .LVU3380
 8809              	.LBB530:
 8810              	.LBB527:
 134:../Common/IQMath/ti/_IQNexp.c ****     uiqNResult >>= 1;
 8811              		.loc 1 134 5 view .LVU3381
 134:../Common/IQMath/ti/_IQNexp.c ****     uiqNResult >>= 1;
 8812              		.loc 1 134 15 is_stmt 0 view .LVU3382
 8813 00ac 0135     		adds	r5, r5, #1
 8814              	.LVL1299:
 135:../Common/IQMath/ti/_IQNexp.c ****     
 8815              		.loc 1 135 5 is_stmt 1 view .LVU3383
 135:../Common/IQMath/ti/_IQNexp.c ****     
 8816              		.loc 1 135 16 is_stmt 0 view .LVU3384
 8817 00ae 6808     		lsrs	r0, r5, #1
 8818              	.LVL1300:
 137:../Common/IQMath/ti/_IQNexp.c **** }
 8819              		.loc 1 137 5 is_stmt 1 view .LVU3385
 8820              	.L337:
 137:../Common/IQMath/ti/_IQNexp.c **** }
 8821              		.loc 1 137 5 is_stmt 0 view .LVU3386
 8822              	.LBE527:
 8823              	.LBE530:
 458:../Common/IQMath/ti/_IQNexp.c **** }
 8824              		.loc 1 458 1 view .LVU3387
ARM GAS  C:\Users\57308\AppData\Local\Temp\ccyuPR38.s 			page 221


 8825 00b0 30BC     		pop	{r4, r5}
 8826              	.LCFI85:
 8827              		.cfi_remember_state
 8828              		.cfi_restore 5
 8829              		.cfi_restore 4
 8830              		.cfi_def_cfa_offset 0
 8831 00b2 7047     		bx	lr
 8832              	.LVL1301:
 8833              	.L343:
 8834              	.LCFI86:
 8835              		.cfi_restore_state
 8836              	.LBB531:
 8837              	.LBB528:
  49:../Common/IQMath/ti/_IQNexp.c ****         }
 8838              		.loc 1 49 20 view .LVU3388
 8839 00b4 0020     		movs	r0, #0
 8840              	.LVL1302:
  49:../Common/IQMath/ti/_IQNexp.c ****         }
 8841              		.loc 1 49 20 view .LVU3389
 8842 00b6 FBE7     		b	.L337
 8843              	.LVL1303:
 8844              	.L344:
  74:../Common/IQMath/ti/_IQNexp.c ****         }
 8845              		.loc 1 74 20 view .LVU3390
 8846 00b8 6FF00040 		mvn	r0, #-2147483648
 8847              	.LVL1304:
  74:../Common/IQMath/ti/_IQNexp.c ****         }
 8848              		.loc 1 74 20 view .LVU3391
 8849              	.LBE528:
 8850              	.LBE531:
 457:../Common/IQMath/ti/_IQNexp.c **** }
 8851              		.loc 1 457 12 view .LVU3392
 8852 00bc F8E7     		b	.L337
 8853              	.L348:
 8854 00be 00BF     		.align	2
 8855              	.L347:
 8856 00c0 00000000 		.word	_IQNexp_offset
 8857 00c4 00000000 		.word	_IQNexp_min
 8858 00c8 00000000 		.word	_IQNexp_max
 8859 00cc 00000000 		.word	_IQNexp_lookup2
 8860 00d0 FB0BB958 		.word	1488522235
 8861 00d4 00000000 		.word	_IQ30exp_coeffs
 8862 00d8 05F446A7 		.word	-1488522235
 8863              		.cfi_endproc
 8864              	.LFE290:
 8866              		.section	.text._IQ1exp,"ax",%progbits
 8867              		.align	1
 8868              		.global	_IQ1exp
 8869              		.syntax unified
 8870              		.thumb
 8871              		.thumb_func
 8873              	_IQ1exp:
 8874              	.LVL1305:
 8875              	.LFB291:
 459:../Common/IQMath/ti/_IQNexp.c **** /**
 460:../Common/IQMath/ti/_IQNexp.c ****  * @brief Computes the exponential of an IQ1 input.
 461:../Common/IQMath/ti/_IQNexp.c ****  *
ARM GAS  C:\Users\57308\AppData\Local\Temp\ccyuPR38.s 			page 222


 462:../Common/IQMath/ti/_IQNexp.c ****  * @param a               IQ1 type input.
 463:../Common/IQMath/ti/_IQNexp.c ****  *
 464:../Common/IQMath/ti/_IQNexp.c ****  * @return                IQ1 type result of exponential.
 465:../Common/IQMath/ti/_IQNexp.c ****  */
 466:../Common/IQMath/ti/_IQNexp.c **** int32_t _IQ1exp(int32_t a)
 467:../Common/IQMath/ti/_IQNexp.c **** {
 8876              		.loc 1 467 1 is_stmt 1 view -0
 8877              		.cfi_startproc
 8878              		@ args = 0, pretend = 0, frame = 0
 8879              		@ frame_needed = 0, uses_anonymous_args = 0
 8880              		@ link register save eliminated.
 8881              		.loc 1 467 1 is_stmt 0 view .LVU3394
 8882 0000 30B4     		push	{r4, r5}
 8883              	.LCFI87:
 8884              		.cfi_def_cfa_offset 8
 8885              		.cfi_offset 4, -8
 8886              		.cfi_offset 5, -4
 468:../Common/IQMath/ti/_IQNexp.c ****     return __IQNexp(a, _IQNexp_lookup1, _IQNexp_offset[1-1], _IQNexp_min[1-1], _IQNexp_max[1-1], 1)
 8887              		.loc 1 468 5 is_stmt 1 view .LVU3395
 8888              		.loc 1 468 12 is_stmt 0 view .LVU3396
 8889 0002 2A4B     		ldr	r3, .L359
 8890 0004 1B78     		ldrb	r3, [r3]	@ zero_extendqisi2
 8891              		.loc 1 468 73 view .LVU3397
 8892 0006 2A4A     		ldr	r2, .L359+4
 8893 0008 1168     		ldr	r1, [r2]
 8894              		.loc 1 468 91 view .LVU3398
 8895 000a 2A4A     		ldr	r2, .L359+8
 8896 000c 1268     		ldr	r2, [r2]
 8897              	.LVL1306:
 8898              	.LBB538:
 8899              	.LBI538:
  32:../Common/IQMath/ti/_IQNexp.c **** {
 8900              		.loc 1 32 30 is_stmt 1 view .LVU3399
 8901              	.LBB539:
  34:../Common/IQMath/ti/_IQNexp.c ****     int_fast16_t i16Integer;
 8902              		.loc 1 34 5 view .LVU3400
  35:../Common/IQMath/ti/_IQNexp.c ****     uint_fast16_t ui16IntState;
 8903              		.loc 1 35 5 view .LVU3401
  36:../Common/IQMath/ti/_IQNexp.c ****     uint_fast16_t ui16MPYState;
 8904              		.loc 1 36 5 view .LVU3402
  37:../Common/IQMath/ti/_IQNexp.c ****     int_fast32_t iq31Fractional;
 8905              		.loc 1 37 5 view .LVU3403
  38:../Common/IQMath/ti/_IQNexp.c ****     uint_fast32_t uiqNResult;
 8906              		.loc 1 38 5 view .LVU3404
  39:../Common/IQMath/ti/_IQNexp.c ****     uint_fast32_t uiqNIntegerResult;
 8907              		.loc 1 39 5 view .LVU3405
  40:../Common/IQMath/ti/_IQNexp.c ****     uint_fast32_t uiq30FractionalResult;
 8908              		.loc 1 40 5 view .LVU3406
  41:../Common/IQMath/ti/_IQNexp.c ****     uint_fast32_t uiq31FractionalResult;
 8909              		.loc 1 41 5 view .LVU3407
  42:../Common/IQMath/ti/_IQNexp.c ****     const uint_fast32_t *piq30Coeffs;
 8910              		.loc 1 42 5 view .LVU3408
  43:../Common/IQMath/ti/_IQNexp.c ****     
 8911              		.loc 1 43 5 view .LVU3409
  46:../Common/IQMath/ti/_IQNexp.c ****         /* Check for the minimum value. */
 8912              		.loc 1 46 5 view .LVU3410
  46:../Common/IQMath/ti/_IQNexp.c ****         /* Check for the minimum value. */
ARM GAS  C:\Users\57308\AppData\Local\Temp\ccyuPR38.s 			page 223


 8913              		.loc 1 46 8 is_stmt 0 view .LVU3411
 8914 000e 0028     		cmp	r0, #0
  46:../Common/IQMath/ti/_IQNexp.c ****         /* Check for the minimum value. */
 8915              		.loc 1 46 8 view .LVU3412
 8916 0010 0FDB     		blt	.L358
  73:../Common/IQMath/ti/_IQNexp.c ****             return INT32_MAX;
 8917              		.loc 1 73 9 is_stmt 1 view .LVU3413
  73:../Common/IQMath/ti/_IQNexp.c ****             return INT32_MAX;
 8918              		.loc 1 73 12 is_stmt 0 view .LVU3414
 8919 0012 8242     		cmp	r2, r0
 8920 0014 46DB     		blt	.L356
  78:../Common/IQMath/ti/_IQNexp.c ****         iq31Fractional <<= (31 - q_value);
 8921              		.loc 1 78 9 is_stmt 1 view .LVU3415
 8922              	.LVL1307:
  79:../Common/IQMath/ti/_IQNexp.c ****         iq31Fractional &= 0x7fffffff;
 8923              		.loc 1 79 9 view .LVU3416
  79:../Common/IQMath/ti/_IQNexp.c ****         iq31Fractional &= 0x7fffffff;
 8924              		.loc 1 79 24 is_stmt 0 view .LVU3417
 8925 0016 4FEA807C 		lsl	ip, r0, #30
 8926              	.LVL1308:
  80:../Common/IQMath/ti/_IQNexp.c ****     
 8927              		.loc 1 80 9 is_stmt 1 view .LVU3418
  80:../Common/IQMath/ti/_IQNexp.c ****     
 8928              		.loc 1 80 24 is_stmt 0 view .LVU3419
 8929 001a 2CF0004C 		bic	ip, ip, #-2147483648
 8930              	.LVL1309:
  83:../Common/IQMath/ti/_IQNexp.c ****     
 8931              		.loc 1 83 9 is_stmt 1 view .LVU3420
  86:../Common/IQMath/ti/_IQNexp.c ****         uiqNIntegerResult = iqNLookupTable[i16Integer];
 8932              		.loc 1 86 9 view .LVU3421
  86:../Common/IQMath/ti/_IQNexp.c ****         uiqNIntegerResult = iqNLookupTable[i16Integer];
 8933              		.loc 1 86 20 is_stmt 0 view .LVU3422
 8934 001e 03EB6000 		add	r0, r3, r0, asr #1
 8935              	.LVL1310:
  87:../Common/IQMath/ti/_IQNexp.c ****         
 8936              		.loc 1 87 9 is_stmt 1 view .LVU3423
  87:../Common/IQMath/ti/_IQNexp.c ****         
 8937              		.loc 1 87 43 is_stmt 0 view .LVU3424
 8938 0022 254B     		ldr	r3, .L359+12
 8939              	.LVL1311:
  87:../Common/IQMath/ti/_IQNexp.c ****         
 8940              		.loc 1 87 27 view .LVU3425
 8941 0024 53F82050 		ldr	r5, [r3, r0, lsl #2]
 8942              	.LVL1312:
  90:../Common/IQMath/ti/_IQNexp.c ****             iq31Fractional -= iq31_ln2;
 8943              		.loc 1 90 9 is_stmt 1 view .LVU3426
 8944              	.L352:
 102:../Common/IQMath/ti/_IQNexp.c ****     
 8945              		.loc 1 102 5 view .LVU3427
 102:../Common/IQMath/ti/_IQNexp.c ****     
 8946              		.loc 1 102 5 is_stmt 0 view .LVU3428
 8947              	.LBE539:
 8948              	.LBE538:
  28:../Common/IQMath/ti/./support/RTS_support.h **** }
 8949              		.loc 2 28 5 is_stmt 1 view .LVU3429
 8950              	.LBB547:
 8951              	.LBB544:
ARM GAS  C:\Users\57308\AppData\Local\Temp\ccyuPR38.s 			page 224


 109:../Common/IQMath/ti/_IQNexp.c ****     uiq30FractionalResult = *piq30Coeffs++;
 8952              		.loc 1 109 5 view .LVU3430
 110:../Common/IQMath/ti/_IQNexp.c ****     
 8953              		.loc 1 110 5 view .LVU3431
 110:../Common/IQMath/ti/_IQNexp.c ****     
 8954              		.loc 1 110 27 is_stmt 0 view .LVU3432
 8955 0028 2448     		ldr	r0, .L359+16
 8956              	.LVL1313:
 110:../Common/IQMath/ti/_IQNexp.c ****     
 8957              		.loc 1 110 27 view .LVU3433
 8958 002a 50F8043B 		ldr	r3, [r0], #4
 8959              	.LVL1314:
 113:../Common/IQMath/ti/_IQNexp.c ****         uiq30FractionalResult = __mpyf_l(iq31Fractional, uiq30FractionalResult);
 8960              		.loc 1 113 5 is_stmt 1 view .LVU3434
 113:../Common/IQMath/ti/_IQNexp.c ****         uiq30FractionalResult = __mpyf_l(iq31Fractional, uiq30FractionalResult);
 8961              		.loc 1 113 19 is_stmt 0 view .LVU3435
 8962 002e 0A24     		movs	r4, #10
 113:../Common/IQMath/ti/_IQNexp.c ****         uiq30FractionalResult = __mpyf_l(iq31Fractional, uiq30FractionalResult);
 8963              		.loc 1 113 5 view .LVU3436
 8964 0030 2AE0     		b	.L353
 8965              	.LVL1315:
 8966              	.L358:
  48:../Common/IQMath/ti/_IQNexp.c ****             return 0;
 8967              		.loc 1 48 9 is_stmt 1 view .LVU3437
  48:../Common/IQMath/ti/_IQNexp.c ****             return 0;
 8968              		.loc 1 48 12 is_stmt 0 view .LVU3438
 8969 0032 8142     		cmp	r1, r0
 8970 0034 34DC     		bgt	.L355
  53:../Common/IQMath/ti/_IQNexp.c ****         iq31Fractional <<= (31 - q_value);
 8971              		.loc 1 53 9 is_stmt 1 view .LVU3439
 8972              	.LVL1316:
  54:../Common/IQMath/ti/_IQNexp.c ****         iq31Fractional |= 0x80000000;
 8973              		.loc 1 54 9 view .LVU3440
  54:../Common/IQMath/ti/_IQNexp.c ****         iq31Fractional |= 0x80000000;
 8974              		.loc 1 54 24 is_stmt 0 view .LVU3441
 8975 0036 4FEA807C 		lsl	ip, r0, #30
 8976              	.LVL1317:
  55:../Common/IQMath/ti/_IQNexp.c ****     
 8977              		.loc 1 55 9 is_stmt 1 view .LVU3442
  55:../Common/IQMath/ti/_IQNexp.c ****     
 8978              		.loc 1 55 24 is_stmt 0 view .LVU3443
 8979 003a 4CF0004C 		orr	ip, ip, #-2147483648
 8980              	.LVL1318:
  58:../Common/IQMath/ti/_IQNexp.c ****     
 8981              		.loc 1 58 9 is_stmt 1 view .LVU3444
  58:../Common/IQMath/ti/_IQNexp.c ****     
 8982              		.loc 1 58 46 is_stmt 0 view .LVU3445
 8983 003e 4010     		asrs	r0, r0, #1
 8984              	.LVL1319:
  58:../Common/IQMath/ti/_IQNexp.c ****     
 8985              		.loc 1 58 20 view .LVU3446
 8986 0040 0130     		adds	r0, r0, #1
 8987              	.LVL1320:
  61:../Common/IQMath/ti/_IQNexp.c ****         uiqNIntegerResult = iqNLookupTable[i16Integer];
 8988              		.loc 1 61 9 is_stmt 1 view .LVU3447
  61:../Common/IQMath/ti/_IQNexp.c ****         uiqNIntegerResult = iqNLookupTable[i16Integer];
 8989              		.loc 1 61 20 is_stmt 0 view .LVU3448
ARM GAS  C:\Users\57308\AppData\Local\Temp\ccyuPR38.s 			page 225


 8990 0042 1844     		add	r0, r0, r3
 8991              	.LVL1321:
  62:../Common/IQMath/ti/_IQNexp.c ****         
 8992              		.loc 1 62 9 is_stmt 1 view .LVU3449
  62:../Common/IQMath/ti/_IQNexp.c ****         
 8993              		.loc 1 62 43 is_stmt 0 view .LVU3450
 8994 0044 1C4B     		ldr	r3, .L359+12
 8995              	.LVL1322:
  62:../Common/IQMath/ti/_IQNexp.c ****         
 8996              		.loc 1 62 27 view .LVU3451
 8997 0046 53F82050 		ldr	r5, [r3, r0, lsl #2]
 8998              	.LVL1323:
  65:../Common/IQMath/ti/_IQNexp.c ****             iq31Fractional += iq31_ln2;
 8999              		.loc 1 65 9 is_stmt 1 view .LVU3452
  65:../Common/IQMath/ti/_IQNexp.c ****             iq31Fractional += iq31_ln2;
 9000              		.loc 1 65 12 is_stmt 0 view .LVU3453
 9001 004a 1D4B     		ldr	r3, .L359+20
 9002 004c 9C45     		cmp	ip, r3
 9003 004e EBDA     		bge	.L352
  66:../Common/IQMath/ti/_IQNexp.c ****             uiqNIntegerResult >>= 1;
 9004              		.loc 1 66 13 is_stmt 1 view .LVU3454
  66:../Common/IQMath/ti/_IQNexp.c ****             uiqNIntegerResult >>= 1;
 9005              		.loc 1 66 28 is_stmt 0 view .LVU3455
 9006 0050 0CF1B14C 		add	ip, ip, #1484783616
 9007              	.LVL1324:
  66:../Common/IQMath/ti/_IQNexp.c ****             uiqNIntegerResult >>= 1;
 9008              		.loc 1 66 28 view .LVU3456
 9009 0054 0CF5641C 		add	ip, ip, #3735552
 9010              	.LVL1325:
  66:../Common/IQMath/ti/_IQNexp.c ****             uiqNIntegerResult >>= 1;
 9011              		.loc 1 66 28 view .LVU3457
 9012 0058 0CF6FC3C 		addw	ip, ip, #3068
 9013              	.LVL1326:
  67:../Common/IQMath/ti/_IQNexp.c ****         }
 9014              		.loc 1 67 13 is_stmt 1 view .LVU3458
  67:../Common/IQMath/ti/_IQNexp.c ****         }
 9015              		.loc 1 67 31 is_stmt 0 view .LVU3459
 9016 005c 6D08     		lsrs	r5, r5, #1
 9017              	.LVL1327:
  67:../Common/IQMath/ti/_IQNexp.c ****         }
 9018              		.loc 1 67 31 view .LVU3460
 9019 005e E3E7     		b	.L352
 9020              	.LVL1328:
 9021              	.L354:
 114:../Common/IQMath/ti/_IQNexp.c ****         uiq30FractionalResult += *piq30Coeffs++;
 9022              		.loc 1 114 9 is_stmt 1 view .LVU3461
 9023              	.LBB540:
 9024              	.LBI540:
 233:../Common/IQMath/ti/./support/RTS_support.h **** {
 9025              		.loc 2 233 28 view .LVU3462
 9026              	.LBB541:
 235:../Common/IQMath/ti/./support/RTS_support.h **** }
 9027              		.loc 2 235 5 view .LVU3463
 235:../Common/IQMath/ti/./support/RTS_support.h **** }
 9028              		.loc 2 235 28 is_stmt 0 view .LVU3464
 9029 0060 4FEAEC72 		asr	r2, ip, #31
 235:../Common/IQMath/ti/./support/RTS_support.h **** }
ARM GAS  C:\Users\57308\AppData\Local\Temp\ccyuPR38.s 			page 226


 9030              		.loc 2 235 49 view .LVU3465
 9031 0064 D917     		asrs	r1, r3, #31
 235:../Common/IQMath/ti/./support/RTS_support.h **** }
 9032              		.loc 2 235 47 view .LVU3466
 9033 0066 0CFB01F1 		mul	r1, ip, r1
 9034 006a 03FB0212 		mla	r2, r3, r2, r1
 9035 006e ACFB0331 		umull	r3, r1, ip, r3
 9036              	.LVL1329:
 235:../Common/IQMath/ti/./support/RTS_support.h **** }
 9037              		.loc 2 235 47 view .LVU3467
 9038 0072 0A44     		add	r2, r2, r1
 235:../Common/IQMath/ti/./support/RTS_support.h **** }
 9039              		.loc 2 235 69 view .LVU3468
 9040 0074 DB0F     		lsrs	r3, r3, #31
 9041 0076 43EA4203 		orr	r3, r3, r2, lsl #1
 9042              	.LVL1330:
 235:../Common/IQMath/ti/./support/RTS_support.h **** }
 9043              		.loc 2 235 69 view .LVU3469
 9044              	.LBE541:
 9045              	.LBE540:
 115:../Common/IQMath/ti/_IQNexp.c ****     }
 9046              		.loc 1 115 9 is_stmt 1 view .LVU3470
 115:../Common/IQMath/ti/_IQNexp.c ****     }
 9047              		.loc 1 115 46 is_stmt 0 view .LVU3471
 9048 007a 0246     		mov	r2, r0
 9049              	.LVL1331:
 115:../Common/IQMath/ti/_IQNexp.c ****     }
 9050              		.loc 1 115 34 view .LVU3472
 9051 007c 52F8041B 		ldr	r1, [r2], #4
 9052              	.LVL1332:
 115:../Common/IQMath/ti/_IQNexp.c ****     }
 9053              		.loc 1 115 31 view .LVU3473
 9054 0080 0B44     		add	r3, r3, r1
 9055              	.LVL1333:
 113:../Common/IQMath/ti/_IQNexp.c ****         uiq30FractionalResult = __mpyf_l(iq31Fractional, uiq30FractionalResult);
 9056              		.loc 1 113 51 is_stmt 1 view .LVU3474
 113:../Common/IQMath/ti/_IQNexp.c ****         uiq30FractionalResult = __mpyf_l(iq31Fractional, uiq30FractionalResult);
 9057              		.loc 1 113 59 is_stmt 0 view .LVU3475
 9058 0082 013C     		subs	r4, r4, #1
 9059              	.LVL1334:
 113:../Common/IQMath/ti/_IQNexp.c ****         uiq30FractionalResult = __mpyf_l(iq31Fractional, uiq30FractionalResult);
 9060              		.loc 1 113 59 view .LVU3476
 9061 0084 E4B2     		uxtb	r4, r4
 9062              	.LVL1335:
 115:../Common/IQMath/ti/_IQNexp.c ****     }
 9063              		.loc 1 115 46 view .LVU3477
 9064 0086 1046     		mov	r0, r2
 9065              	.LVL1336:
 9066              	.L353:
 113:../Common/IQMath/ti/_IQNexp.c ****         uiq30FractionalResult = __mpyf_l(iq31Fractional, uiq30FractionalResult);
 9067              		.loc 1 113 37 is_stmt 1 view .LVU3478
 113:../Common/IQMath/ti/_IQNexp.c ****         uiq30FractionalResult = __mpyf_l(iq31Fractional, uiq30FractionalResult);
 9068              		.loc 1 113 5 is_stmt 0 view .LVU3479
 9069 0088 002C     		cmp	r4, #0
 9070 008a E9D1     		bne	.L354
 119:../Common/IQMath/ti/_IQNexp.c ****     
 9071              		.loc 1 119 5 is_stmt 1 view .LVU3480
ARM GAS  C:\Users\57308\AppData\Local\Temp\ccyuPR38.s 			page 227


 119:../Common/IQMath/ti/_IQNexp.c ****     
 9072              		.loc 1 119 27 is_stmt 0 view .LVU3481
 9073 008c 5B00     		lsls	r3, r3, #1
 9074              	.LVL1337:
 125:../Common/IQMath/ti/_IQNexp.c ****     
 9075              		.loc 1 125 5 is_stmt 1 view .LVU3482
 9076              	.LBB542:
 9077              	.LBI542:
 254:../Common/IQMath/ti/./support/RTS_support.h **** {
 9078              		.loc 2 254 29 view .LVU3483
 9079              	.LBB543:
 9080              		.loc 2 256 5 view .LVU3484
 9081              		.loc 2 256 49 is_stmt 0 view .LVU3485
 9082 008e A5FB0353 		umull	r5, r3, r5, r3
 9083              	.LVL1338:
 9084              		.loc 2 256 72 view .LVU3486
 9085 0092 ED0F     		lsrs	r5, r5, #31
 9086 0094 45EA4305 		orr	r5, r5, r3, lsl #1
 9087              	.LVL1339:
 9088              		.loc 2 256 72 view .LVU3487
 9089              	.LBE543:
 9090              	.LBE542:
 131:../Common/IQMath/ti/_IQNexp.c ****     
 9091              		.loc 1 131 5 is_stmt 1 view .LVU3488
 131:../Common/IQMath/ti/_IQNexp.c ****     
 9092              		.loc 1 131 5 is_stmt 0 view .LVU3489
 9093              	.LBE544:
 9094              	.LBE547:
  72:../Common/IQMath/ti/./support/RTS_support.h **** }
 9095              		.loc 2 72 5 is_stmt 1 view .LVU3490
 9096              	.LBB548:
 9097              	.LBB545:
 134:../Common/IQMath/ti/_IQNexp.c ****     uiqNResult >>= 1;
 9098              		.loc 1 134 5 view .LVU3491
 134:../Common/IQMath/ti/_IQNexp.c ****     uiqNResult >>= 1;
 9099              		.loc 1 134 15 is_stmt 0 view .LVU3492
 9100 0098 0135     		adds	r5, r5, #1
 9101              	.LVL1340:
 135:../Common/IQMath/ti/_IQNexp.c ****     
 9102              		.loc 1 135 5 is_stmt 1 view .LVU3493
 135:../Common/IQMath/ti/_IQNexp.c ****     
 9103              		.loc 1 135 16 is_stmt 0 view .LVU3494
 9104 009a 6808     		lsrs	r0, r5, #1
 9105              	.LVL1341:
 137:../Common/IQMath/ti/_IQNexp.c **** }
 9106              		.loc 1 137 5 is_stmt 1 view .LVU3495
 9107              	.L349:
 137:../Common/IQMath/ti/_IQNexp.c **** }
 9108              		.loc 1 137 5 is_stmt 0 view .LVU3496
 9109              	.LBE545:
 9110              	.LBE548:
 469:../Common/IQMath/ti/_IQNexp.c **** }
 9111              		.loc 1 469 1 view .LVU3497
 9112 009c 30BC     		pop	{r4, r5}
 9113              	.LCFI88:
 9114              		.cfi_remember_state
 9115              		.cfi_restore 5
ARM GAS  C:\Users\57308\AppData\Local\Temp\ccyuPR38.s 			page 228


 9116              		.cfi_restore 4
 9117              		.cfi_def_cfa_offset 0
 9118 009e 7047     		bx	lr
 9119              	.LVL1342:
 9120              	.L355:
 9121              	.LCFI89:
 9122              		.cfi_restore_state
 9123              	.LBB549:
 9124              	.LBB546:
  49:../Common/IQMath/ti/_IQNexp.c ****         }
 9125              		.loc 1 49 20 view .LVU3498
 9126 00a0 0020     		movs	r0, #0
 9127              	.LVL1343:
  49:../Common/IQMath/ti/_IQNexp.c ****         }
 9128              		.loc 1 49 20 view .LVU3499
 9129 00a2 FBE7     		b	.L349
 9130              	.LVL1344:
 9131              	.L356:
  74:../Common/IQMath/ti/_IQNexp.c ****         }
 9132              		.loc 1 74 20 view .LVU3500
 9133 00a4 6FF00040 		mvn	r0, #-2147483648
 9134              	.LVL1345:
  74:../Common/IQMath/ti/_IQNexp.c ****         }
 9135              		.loc 1 74 20 view .LVU3501
 9136              	.LBE546:
 9137              	.LBE549:
 468:../Common/IQMath/ti/_IQNexp.c **** }
 9138              		.loc 1 468 12 view .LVU3502
 9139 00a8 F8E7     		b	.L349
 9140              	.L360:
 9141 00aa 00BF     		.align	2
 9142              	.L359:
 9143 00ac 00000000 		.word	_IQNexp_offset
 9144 00b0 00000000 		.word	_IQNexp_min
 9145 00b4 00000000 		.word	_IQNexp_max
 9146 00b8 00000000 		.word	_IQNexp_lookup1
 9147 00bc 00000000 		.word	_IQ30exp_coeffs
 9148 00c0 05F446A7 		.word	-1488522235
 9149              		.cfi_endproc
 9150              	.LFE291:
 9152              		.text
 9153              	.Letext0:
 9154              		.file 3 "d:\\program files\\gcc-arm-none-eabi-10.3-2021.10\\arm-none-eabi\\include\\machine\\_defa
 9155              		.file 4 "d:\\program files\\gcc-arm-none-eabi-10.3-2021.10\\arm-none-eabi\\include\\sys\\_stdint.h
 9156              		.file 5 "d:\\program files\\gcc-arm-none-eabi-10.3-2021.10\\arm-none-eabi\\include\\stdint.h"
 9157              		.file 6 "../Common/IQMath/ti/_IQNtables.h"
ARM GAS  C:\Users\57308\AppData\Local\Temp\ccyuPR38.s 			page 229


DEFINED SYMBOLS
                            *ABS*:00000000 _IQNexp.c
C:\Users\57308\AppData\Local\Temp\ccyuPR38.s:20     .text._IQ30exp:00000000 $t
C:\Users\57308\AppData\Local\Temp\ccyuPR38.s:26     .text._IQ30exp:00000000 _IQ30exp
C:\Users\57308\AppData\Local\Temp\ccyuPR38.s:316    .text._IQ30exp:000000c0 $d
C:\Users\57308\AppData\Local\Temp\ccyuPR38.s:327    .text._IQ29exp:00000000 $t
C:\Users\57308\AppData\Local\Temp\ccyuPR38.s:333    .text._IQ29exp:00000000 _IQ29exp
C:\Users\57308\AppData\Local\Temp\ccyuPR38.s:621    .text._IQ29exp:000000c0 $d
C:\Users\57308\AppData\Local\Temp\ccyuPR38.s:632    .text._IQ28exp:00000000 $t
C:\Users\57308\AppData\Local\Temp\ccyuPR38.s:638    .text._IQ28exp:00000000 _IQ28exp
C:\Users\57308\AppData\Local\Temp\ccyuPR38.s:926    .text._IQ28exp:000000c0 $d
C:\Users\57308\AppData\Local\Temp\ccyuPR38.s:937    .text._IQ27exp:00000000 $t
C:\Users\57308\AppData\Local\Temp\ccyuPR38.s:943    .text._IQ27exp:00000000 _IQ27exp
C:\Users\57308\AppData\Local\Temp\ccyuPR38.s:1231   .text._IQ27exp:000000c0 $d
C:\Users\57308\AppData\Local\Temp\ccyuPR38.s:1242   .text._IQ26exp:00000000 $t
C:\Users\57308\AppData\Local\Temp\ccyuPR38.s:1248   .text._IQ26exp:00000000 _IQ26exp
C:\Users\57308\AppData\Local\Temp\ccyuPR38.s:1536   .text._IQ26exp:000000c0 $d
C:\Users\57308\AppData\Local\Temp\ccyuPR38.s:1547   .text._IQ25exp:00000000 $t
C:\Users\57308\AppData\Local\Temp\ccyuPR38.s:1553   .text._IQ25exp:00000000 _IQ25exp
C:\Users\57308\AppData\Local\Temp\ccyuPR38.s:1841   .text._IQ25exp:000000c0 $d
C:\Users\57308\AppData\Local\Temp\ccyuPR38.s:1852   .text._IQ24exp:00000000 $t
C:\Users\57308\AppData\Local\Temp\ccyuPR38.s:1858   .text._IQ24exp:00000000 _IQ24exp
C:\Users\57308\AppData\Local\Temp\ccyuPR38.s:2146   .text._IQ24exp:000000c0 $d
C:\Users\57308\AppData\Local\Temp\ccyuPR38.s:2157   .text._IQ23exp:00000000 $t
C:\Users\57308\AppData\Local\Temp\ccyuPR38.s:2163   .text._IQ23exp:00000000 _IQ23exp
C:\Users\57308\AppData\Local\Temp\ccyuPR38.s:2451   .text._IQ23exp:000000c0 $d
C:\Users\57308\AppData\Local\Temp\ccyuPR38.s:2462   .text._IQ22exp:00000000 $t
C:\Users\57308\AppData\Local\Temp\ccyuPR38.s:2468   .text._IQ22exp:00000000 _IQ22exp
C:\Users\57308\AppData\Local\Temp\ccyuPR38.s:2756   .text._IQ22exp:000000c0 $d
C:\Users\57308\AppData\Local\Temp\ccyuPR38.s:2767   .text._IQ21exp:00000000 $t
C:\Users\57308\AppData\Local\Temp\ccyuPR38.s:2773   .text._IQ21exp:00000000 _IQ21exp
C:\Users\57308\AppData\Local\Temp\ccyuPR38.s:3061   .text._IQ21exp:000000c0 $d
C:\Users\57308\AppData\Local\Temp\ccyuPR38.s:3072   .text._IQ20exp:00000000 $t
C:\Users\57308\AppData\Local\Temp\ccyuPR38.s:3078   .text._IQ20exp:00000000 _IQ20exp
C:\Users\57308\AppData\Local\Temp\ccyuPR38.s:3366   .text._IQ20exp:000000c0 $d
C:\Users\57308\AppData\Local\Temp\ccyuPR38.s:3377   .text._IQ19exp:00000000 $t
C:\Users\57308\AppData\Local\Temp\ccyuPR38.s:3383   .text._IQ19exp:00000000 _IQ19exp
C:\Users\57308\AppData\Local\Temp\ccyuPR38.s:3671   .text._IQ19exp:000000c0 $d
C:\Users\57308\AppData\Local\Temp\ccyuPR38.s:3682   .text._IQ18exp:00000000 $t
C:\Users\57308\AppData\Local\Temp\ccyuPR38.s:3688   .text._IQ18exp:00000000 _IQ18exp
C:\Users\57308\AppData\Local\Temp\ccyuPR38.s:3976   .text._IQ18exp:000000c0 $d
C:\Users\57308\AppData\Local\Temp\ccyuPR38.s:3987   .text._IQ17exp:00000000 $t
C:\Users\57308\AppData\Local\Temp\ccyuPR38.s:3993   .text._IQ17exp:00000000 _IQ17exp
C:\Users\57308\AppData\Local\Temp\ccyuPR38.s:4281   .text._IQ17exp:000000c0 $d
C:\Users\57308\AppData\Local\Temp\ccyuPR38.s:4292   .text._IQ16exp:00000000 $t
C:\Users\57308\AppData\Local\Temp\ccyuPR38.s:4298   .text._IQ16exp:00000000 _IQ16exp
C:\Users\57308\AppData\Local\Temp\ccyuPR38.s:4586   .text._IQ16exp:000000c0 $d
C:\Users\57308\AppData\Local\Temp\ccyuPR38.s:4597   .text._IQ15exp:00000000 $t
C:\Users\57308\AppData\Local\Temp\ccyuPR38.s:4603   .text._IQ15exp:00000000 _IQ15exp
C:\Users\57308\AppData\Local\Temp\ccyuPR38.s:4891   .text._IQ15exp:000000c0 $d
C:\Users\57308\AppData\Local\Temp\ccyuPR38.s:4902   .text._IQ14exp:00000000 $t
C:\Users\57308\AppData\Local\Temp\ccyuPR38.s:4908   .text._IQ14exp:00000000 _IQ14exp
C:\Users\57308\AppData\Local\Temp\ccyuPR38.s:5196   .text._IQ14exp:000000c0 $d
C:\Users\57308\AppData\Local\Temp\ccyuPR38.s:5207   .text._IQ13exp:00000000 $t
C:\Users\57308\AppData\Local\Temp\ccyuPR38.s:5213   .text._IQ13exp:00000000 _IQ13exp
C:\Users\57308\AppData\Local\Temp\ccyuPR38.s:5501   .text._IQ13exp:000000c0 $d
C:\Users\57308\AppData\Local\Temp\ccyuPR38.s:5512   .text._IQ12exp:00000000 $t
ARM GAS  C:\Users\57308\AppData\Local\Temp\ccyuPR38.s 			page 230


C:\Users\57308\AppData\Local\Temp\ccyuPR38.s:5518   .text._IQ12exp:00000000 _IQ12exp
C:\Users\57308\AppData\Local\Temp\ccyuPR38.s:5806   .text._IQ12exp:000000c0 $d
C:\Users\57308\AppData\Local\Temp\ccyuPR38.s:5817   .text._IQ11exp:00000000 $t
C:\Users\57308\AppData\Local\Temp\ccyuPR38.s:5823   .text._IQ11exp:00000000 _IQ11exp
C:\Users\57308\AppData\Local\Temp\ccyuPR38.s:6111   .text._IQ11exp:000000c0 $d
C:\Users\57308\AppData\Local\Temp\ccyuPR38.s:6122   .text._IQ10exp:00000000 $t
C:\Users\57308\AppData\Local\Temp\ccyuPR38.s:6128   .text._IQ10exp:00000000 _IQ10exp
C:\Users\57308\AppData\Local\Temp\ccyuPR38.s:6416   .text._IQ10exp:000000c0 $d
C:\Users\57308\AppData\Local\Temp\ccyuPR38.s:6427   .text._IQ9exp:00000000 $t
C:\Users\57308\AppData\Local\Temp\ccyuPR38.s:6433   .text._IQ9exp:00000000 _IQ9exp
C:\Users\57308\AppData\Local\Temp\ccyuPR38.s:6721   .text._IQ9exp:000000c0 $d
C:\Users\57308\AppData\Local\Temp\ccyuPR38.s:6732   .text._IQ8exp:00000000 $t
C:\Users\57308\AppData\Local\Temp\ccyuPR38.s:6738   .text._IQ8exp:00000000 _IQ8exp
C:\Users\57308\AppData\Local\Temp\ccyuPR38.s:7026   .text._IQ8exp:000000c0 $d
C:\Users\57308\AppData\Local\Temp\ccyuPR38.s:7037   .text._IQ7exp:00000000 $t
C:\Users\57308\AppData\Local\Temp\ccyuPR38.s:7043   .text._IQ7exp:00000000 _IQ7exp
C:\Users\57308\AppData\Local\Temp\ccyuPR38.s:7331   .text._IQ7exp:000000c0 $d
C:\Users\57308\AppData\Local\Temp\ccyuPR38.s:7342   .text._IQ6exp:00000000 $t
C:\Users\57308\AppData\Local\Temp\ccyuPR38.s:7348   .text._IQ6exp:00000000 _IQ6exp
C:\Users\57308\AppData\Local\Temp\ccyuPR38.s:7636   .text._IQ6exp:000000c0 $d
C:\Users\57308\AppData\Local\Temp\ccyuPR38.s:7647   .text._IQ5exp:00000000 $t
C:\Users\57308\AppData\Local\Temp\ccyuPR38.s:7653   .text._IQ5exp:00000000 _IQ5exp
C:\Users\57308\AppData\Local\Temp\ccyuPR38.s:7941   .text._IQ5exp:000000c0 $d
C:\Users\57308\AppData\Local\Temp\ccyuPR38.s:7952   .text._IQ4exp:00000000 $t
C:\Users\57308\AppData\Local\Temp\ccyuPR38.s:7958   .text._IQ4exp:00000000 _IQ4exp
C:\Users\57308\AppData\Local\Temp\ccyuPR38.s:8246   .text._IQ4exp:000000c0 $d
C:\Users\57308\AppData\Local\Temp\ccyuPR38.s:8257   .text._IQ3exp:00000000 $t
C:\Users\57308\AppData\Local\Temp\ccyuPR38.s:8263   .text._IQ3exp:00000000 _IQ3exp
C:\Users\57308\AppData\Local\Temp\ccyuPR38.s:8551   .text._IQ3exp:000000c0 $d
C:\Users\57308\AppData\Local\Temp\ccyuPR38.s:8562   .text._IQ2exp:00000000 $t
C:\Users\57308\AppData\Local\Temp\ccyuPR38.s:8568   .text._IQ2exp:00000000 _IQ2exp
C:\Users\57308\AppData\Local\Temp\ccyuPR38.s:8856   .text._IQ2exp:000000c0 $d
C:\Users\57308\AppData\Local\Temp\ccyuPR38.s:8867   .text._IQ1exp:00000000 $t
C:\Users\57308\AppData\Local\Temp\ccyuPR38.s:8873   .text._IQ1exp:00000000 _IQ1exp
C:\Users\57308\AppData\Local\Temp\ccyuPR38.s:9143   .text._IQ1exp:000000ac $d

UNDEFINED SYMBOLS
_IQNexp_offset
_IQNexp_min
_IQNexp_max
_IQNexp_lookup30
_IQ30exp_coeffs
_IQNexp_lookup29
_IQNexp_lookup28
_IQNexp_lookup27
_IQNexp_lookup26
_IQNexp_lookup25
_IQNexp_lookup24
_IQNexp_lookup23
_IQNexp_lookup22
_IQNexp_lookup21
_IQNexp_lookup20
_IQNexp_lookup19
_IQNexp_lookup18
_IQNexp_lookup17
_IQNexp_lookup16
_IQNexp_lookup15
ARM GAS  C:\Users\57308\AppData\Local\Temp\ccyuPR38.s 			page 231


_IQNexp_lookup14
_IQNexp_lookup13
_IQNexp_lookup12
_IQNexp_lookup11
_IQNexp_lookup10
_IQNexp_lookup9
_IQNexp_lookup8
_IQNexp_lookup7
_IQNexp_lookup6
_IQNexp_lookup5
_IQNexp_lookup4
_IQNexp_lookup3
_IQNexp_lookup2
_IQNexp_lookup1
