ARM GAS  C:\Users\57308\AppData\Local\Temp\ccxDvd6L.s 			page 1


   1              		.cpu cortex-m4
   2              		.arch armv7e-m
   3              		.fpu fpv4-sp-d16
   4              		.eabi_attribute 27, 1
   5              		.eabi_attribute 28, 1
   6              		.eabi_attribute 20, 1
   7              		.eabi_attribute 21, 1
   8              		.eabi_attribute 23, 3
   9              		.eabi_attribute 24, 1
  10              		.eabi_attribute 25, 1
  11              		.eabi_attribute 26, 1
  12              		.eabi_attribute 30, 1
  13              		.eabi_attribute 34, 1
  14              		.eabi_attribute 18, 4
  15              		.file	"_IQNlog.c"
  16              		.text
  17              	.Ltext0:
  18              		.cfi_sections	.debug_frame
  19              		.section	.text._IQ30log,"ax",%progbits
  20              		.align	1
  21              		.global	_IQ30log
  22              		.syntax unified
  23              		.thumb
  24              		.thumb_func
  26              	_IQ30log:
  27              	.LVL0:
  28              	.LFB262:
  29              		.file 1 "../Common/IQMath/ti/_IQNlog.c"
   1:../Common/IQMath/ti/_IQNlog.c **** /*!****************************************************************************
   2:../Common/IQMath/ti/_IQNlog.c ****  *  @file       _IQNlog.c
   3:../Common/IQMath/ti/_IQNlog.c ****  *  @brief      Functions to compute the base-e logarithm of an IQN number.
   4:../Common/IQMath/ti/_IQNlog.c ****  *
   5:../Common/IQMath/ti/_IQNlog.c ****  *  <hr>
   6:../Common/IQMath/ti/_IQNlog.c ****  ******************************************************************************/
   7:../Common/IQMath/ti/_IQNlog.c **** 
   8:../Common/IQMath/ti/_IQNlog.c **** 
   9:../Common/IQMath/ti/_IQNlog.c **** #include <stdint.h>
  10:../Common/IQMath/ti/_IQNlog.c **** 
  11:../Common/IQMath/ti/_IQNlog.c **** #include "./support/support.h"
  12:../Common/IQMath/ti/_IQNlog.c **** #include "_IQNtables.h"
  13:../Common/IQMath/ti/_IQNlog.c **** 
  14:../Common/IQMath/ti/_IQNlog.c **** /**
  15:../Common/IQMath/ti/_IQNlog.c ****  * @brief Computes the base-e logarithm of an IQN input.
  16:../Common/IQMath/ti/_IQNlog.c ****  *
  17:../Common/IQMath/ti/_IQNlog.c ****  * @param iqNInput          IQN type input.
  18:../Common/IQMath/ti/_IQNlog.c ****  * @param iqNMin            Minimum parameter value.
  19:../Common/IQMath/ti/_IQNlog.c ****  * @param q_value           IQ format.
  20:../Common/IQMath/ti/_IQNlog.c ****  *
  21:../Common/IQMath/ti/_IQNlog.c ****  * @return                  IQN type result of exponential.
  22:../Common/IQMath/ti/_IQNlog.c ****  */
  23:../Common/IQMath/ti/_IQNlog.c **** #if defined (__TI_COMPILER_VERSION__)
  24:../Common/IQMath/ti/_IQNlog.c ****     #pragma FUNC_ALWAYS_INLINE(__IQNlog)
  25:../Common/IQMath/ti/_IQNlog.c **** #elif defined(__IAR_SYSTEMS_ICC__)
  26:../Common/IQMath/ti/_IQNlog.c ****     #pragma inline=forced
  27:../Common/IQMath/ti/_IQNlog.c **** #endif
  28:../Common/IQMath/ti/_IQNlog.c **** __STATIC_INLINE int_fast32_t __IQNlog(int_fast32_t iqNInput, const int_fast32_t iqNMin, const int8_
  29:../Common/IQMath/ti/_IQNlog.c **** {
ARM GAS  C:\Users\57308\AppData\Local\Temp\ccxDvd6L.s 			page 2


  30:../Common/IQMath/ti/_IQNlog.c ****     uint8_t ui8Counter;
  31:../Common/IQMath/ti/_IQNlog.c ****     int_fast16_t i16Exp;
  32:../Common/IQMath/ti/_IQNlog.c ****     uint_fast16_t ui16IntState;
  33:../Common/IQMath/ti/_IQNlog.c ****     uint_fast16_t ui16MPYState;
  34:../Common/IQMath/ti/_IQNlog.c ****     int_fast32_t iqNResult;
  35:../Common/IQMath/ti/_IQNlog.c ****     int_fast32_t iq30Result;
  36:../Common/IQMath/ti/_IQNlog.c ****     uint_fast32_t uiq31Input;
  37:../Common/IQMath/ti/_IQNlog.c ****     const uint_fast32_t *piq30Coeffs;
  38:../Common/IQMath/ti/_IQNlog.c ****     
  39:../Common/IQMath/ti/_IQNlog.c ****     /*
  40:../Common/IQMath/ti/_IQNlog.c ****      * Check the sign of the input and for negative saturation for q_values
  41:../Common/IQMath/ti/_IQNlog.c ****      * larger than iq26.
  42:../Common/IQMath/ti/_IQNlog.c ****      */
  43:../Common/IQMath/ti/_IQNlog.c ****     if (q_value > 26) {
  44:../Common/IQMath/ti/_IQNlog.c ****         if (iqNInput <= 0) {
  45:../Common/IQMath/ti/_IQNlog.c ****             return 0;
  46:../Common/IQMath/ti/_IQNlog.c ****         }
  47:../Common/IQMath/ti/_IQNlog.c ****         else if (iqNInput <= iqNMin) {
  48:../Common/IQMath/ti/_IQNlog.c ****             return INT32_MIN;
  49:../Common/IQMath/ti/_IQNlog.c ****         }        
  50:../Common/IQMath/ti/_IQNlog.c ****     }
  51:../Common/IQMath/ti/_IQNlog.c ****     /*
  52:../Common/IQMath/ti/_IQNlog.c ****      * Only check the sign of the input and that it is not equal to zero for
  53:../Common/IQMath/ti/_IQNlog.c ****      * q_values less than or equal to iq26.
  54:../Common/IQMath/ti/_IQNlog.c ****      */
  55:../Common/IQMath/ti/_IQNlog.c ****     else {
  56:../Common/IQMath/ti/_IQNlog.c ****         if (iqNInput <= 0) {
  57:../Common/IQMath/ti/_IQNlog.c ****             return 0;
  58:../Common/IQMath/ti/_IQNlog.c ****         }
  59:../Common/IQMath/ti/_IQNlog.c ****     }
  60:../Common/IQMath/ti/_IQNlog.c ****     
  61:../Common/IQMath/ti/_IQNlog.c ****     /* Initialize the exponent value. */
  62:../Common/IQMath/ti/_IQNlog.c ****     i16Exp = (31 - q_value);
  63:../Common/IQMath/ti/_IQNlog.c ****     
  64:../Common/IQMath/ti/_IQNlog.c ****     /*
  65:../Common/IQMath/ti/_IQNlog.c ****      * Scale the input so it is within the following range in iq31:
  66:../Common/IQMath/ti/_IQNlog.c ****      *
  67:../Common/IQMath/ti/_IQNlog.c ****      *     0.666666 < uiq31Input < 1.333333.
  68:../Common/IQMath/ti/_IQNlog.c ****      */
  69:../Common/IQMath/ti/_IQNlog.c ****     uiq31Input = (uint_fast32_t)iqNInput;
  70:../Common/IQMath/ti/_IQNlog.c ****     while (uiq31Input < iq31_twoThird) {
  71:../Common/IQMath/ti/_IQNlog.c ****         uiq31Input <<= 1;
  72:../Common/IQMath/ti/_IQNlog.c ****         i16Exp--;
  73:../Common/IQMath/ti/_IQNlog.c ****     }
  74:../Common/IQMath/ti/_IQNlog.c ****     
  75:../Common/IQMath/ti/_IQNlog.c ****     /*
  76:../Common/IQMath/ti/_IQNlog.c ****      * Mark the start of any multiplies. This will disable interrupts and set
  77:../Common/IQMath/ti/_IQNlog.c ****      * the multiplier to fractional mode. This is designed to reduce overhead
  78:../Common/IQMath/ti/_IQNlog.c ****      * of constantly switching states when using repeated multiplies (MSP430
  79:../Common/IQMath/ti/_IQNlog.c ****      * only).
  80:../Common/IQMath/ti/_IQNlog.c ****      */
  81:../Common/IQMath/ti/_IQNlog.c ****     __mpyf_start(&ui16IntState, &ui16MPYState);
  82:../Common/IQMath/ti/_IQNlog.c ****     
  83:../Common/IQMath/ti/_IQNlog.c ****     /*
  84:../Common/IQMath/ti/_IQNlog.c ****      * Initialize the coefficient pointer to the Taylor Series iq30 coefficients
  85:../Common/IQMath/ti/_IQNlog.c ****      * for the logarithm functions. Set the iq30 result to the first
  86:../Common/IQMath/ti/_IQNlog.c ****      * coefficient in the table. Subtract one from the iq31 input.
ARM GAS  C:\Users\57308\AppData\Local\Temp\ccxDvd6L.s 			page 3


  87:../Common/IQMath/ti/_IQNlog.c ****      */
  88:../Common/IQMath/ti/_IQNlog.c ****     piq30Coeffs = _IQ30log_coeffs;
  89:../Common/IQMath/ti/_IQNlog.c ****     iq30Result = *piq30Coeffs++;
  90:../Common/IQMath/ti/_IQNlog.c ****     uiq31Input -= iq31_one;
  91:../Common/IQMath/ti/_IQNlog.c ****     
  92:../Common/IQMath/ti/_IQNlog.c ****     /* Calculate log(uiq31Input) using the iq30 Taylor Series coefficients. */
  93:../Common/IQMath/ti/_IQNlog.c ****     for (ui8Counter = _IQ30log_order; ui8Counter > 0; ui8Counter--) {
  94:../Common/IQMath/ti/_IQNlog.c ****         iq30Result = __mpyf_l(uiq31Input, iq30Result);
  95:../Common/IQMath/ti/_IQNlog.c ****         iq30Result += *piq30Coeffs++;
  96:../Common/IQMath/ti/_IQNlog.c ****     }
  97:../Common/IQMath/ti/_IQNlog.c ****     
  98:../Common/IQMath/ti/_IQNlog.c ****     /* Scale the iq30 result to match the function iq type. */
  99:../Common/IQMath/ti/_IQNlog.c ****     iqNResult = iq30Result >> (30 - q_value);
 100:../Common/IQMath/ti/_IQNlog.c ****     
 101:../Common/IQMath/ti/_IQNlog.c ****     /*
 102:../Common/IQMath/ti/_IQNlog.c ****      * Add i16Exp * ln(2) to the iqN result. This will never saturate since we
 103:../Common/IQMath/ti/_IQNlog.c ****      * check for the minimum value at the start of the function. Negative
 104:../Common/IQMath/ti/_IQNlog.c ****      * exponents require seperate handling to allow for an extra bit with the
 105:../Common/IQMath/ti/_IQNlog.c ****      * unsigned data type.
 106:../Common/IQMath/ti/_IQNlog.c ****      */
 107:../Common/IQMath/ti/_IQNlog.c ****     if (i16Exp > 0) {
 108:../Common/IQMath/ti/_IQNlog.c ****         iqNResult += __mpyf_ul(iq31_ln2, ((int_fast32_t)i16Exp << q_value));
 109:../Common/IQMath/ti/_IQNlog.c ****     }
 110:../Common/IQMath/ti/_IQNlog.c ****     else {
 111:../Common/IQMath/ti/_IQNlog.c ****         iqNResult -= __mpyf_ul(iq31_ln2, (((uint_fast32_t)-i16Exp) << q_value));
 112:../Common/IQMath/ti/_IQNlog.c ****     }
 113:../Common/IQMath/ti/_IQNlog.c ****     
 114:../Common/IQMath/ti/_IQNlog.c ****     /* 
 115:../Common/IQMath/ti/_IQNlog.c ****      * Mark the end of all multiplies. This restores MPY and interrupt states
 116:../Common/IQMath/ti/_IQNlog.c ****      * (MSP430 only).
 117:../Common/IQMath/ti/_IQNlog.c ****      */
 118:../Common/IQMath/ti/_IQNlog.c ****     __mpy_stop(&ui16IntState, &ui16MPYState);
 119:../Common/IQMath/ti/_IQNlog.c ****     
 120:../Common/IQMath/ti/_IQNlog.c ****     return iqNResult;
 121:../Common/IQMath/ti/_IQNlog.c **** }
 122:../Common/IQMath/ti/_IQNlog.c **** 
 123:../Common/IQMath/ti/_IQNlog.c **** /**
 124:../Common/IQMath/ti/_IQNlog.c ****  * @brief Computes the base-e logarithm of an IQ30 input.
 125:../Common/IQMath/ti/_IQNlog.c ****  *
 126:../Common/IQMath/ti/_IQNlog.c ****  * @param a                 IQ30 type input.
 127:../Common/IQMath/ti/_IQNlog.c ****  *
 128:../Common/IQMath/ti/_IQNlog.c ****  * @return                  IQ30 type result of exponential.
 129:../Common/IQMath/ti/_IQNlog.c ****  */
 130:../Common/IQMath/ti/_IQNlog.c **** int32_t _IQ30log(int32_t a)
 131:../Common/IQMath/ti/_IQNlog.c **** {
  30              		.loc 1 131 1 view -0
  31              		.cfi_startproc
  32              		@ args = 0, pretend = 0, frame = 0
  33              		@ frame_needed = 0, uses_anonymous_args = 0
  34              		@ link register save eliminated.
 132:../Common/IQMath/ti/_IQNlog.c ****     return __IQNlog(a, _IQNlog_min[30-27], 30);
  35              		.loc 1 132 5 view .LVU1
  36              		.loc 1 132 35 is_stmt 0 view .LVU2
  37 0000 234B     		ldr	r3, .L14
  38 0002 DB68     		ldr	r3, [r3, #12]
  39              	.LVL1:
  40              	.LBB20:
ARM GAS  C:\Users\57308\AppData\Local\Temp\ccxDvd6L.s 			page 4


  41              	.LBI20:
  28:../Common/IQMath/ti/_IQNlog.c **** {
  42              		.loc 1 28 30 is_stmt 1 view .LVU3
  43              	.LBB21:
  30:../Common/IQMath/ti/_IQNlog.c ****     int_fast16_t i16Exp;
  44              		.loc 1 30 5 view .LVU4
  31:../Common/IQMath/ti/_IQNlog.c ****     uint_fast16_t ui16IntState;
  45              		.loc 1 31 5 view .LVU5
  32:../Common/IQMath/ti/_IQNlog.c ****     uint_fast16_t ui16MPYState;
  46              		.loc 1 32 5 view .LVU6
  33:../Common/IQMath/ti/_IQNlog.c ****     int_fast32_t iqNResult;
  47              		.loc 1 33 5 view .LVU7
  34:../Common/IQMath/ti/_IQNlog.c ****     int_fast32_t iq30Result;
  48              		.loc 1 34 5 view .LVU8
  35:../Common/IQMath/ti/_IQNlog.c ****     uint_fast32_t uiq31Input;
  49              		.loc 1 35 5 view .LVU9
  36:../Common/IQMath/ti/_IQNlog.c ****     const uint_fast32_t *piq30Coeffs;
  50              		.loc 1 36 5 view .LVU10
  37:../Common/IQMath/ti/_IQNlog.c ****     
  51              		.loc 1 37 5 view .LVU11
  43:../Common/IQMath/ti/_IQNlog.c ****         if (iqNInput <= 0) {
  52              		.loc 1 43 5 view .LVU12
  44:../Common/IQMath/ti/_IQNlog.c ****             return 0;
  53              		.loc 1 44 9 view .LVU13
  44:../Common/IQMath/ti/_IQNlog.c ****             return 0;
  54              		.loc 1 44 12 is_stmt 0 view .LVU14
  55 0004 011E     		subs	r1, r0, #0
  56 0006 3EDD     		ble	.L8
  47:../Common/IQMath/ti/_IQNlog.c ****             return INT32_MIN;
  57              		.loc 1 47 14 is_stmt 1 view .LVU15
  47:../Common/IQMath/ti/_IQNlog.c ****             return INT32_MIN;
  58              		.loc 1 47 17 is_stmt 0 view .LVU16
  59 0008 8B42     		cmp	r3, r1
  60 000a 3EDA     		bge	.L9
  61              	.LBE21:
  62              	.LBE20:
 131:../Common/IQMath/ti/_IQNlog.c ****     return __IQNlog(a, _IQNlog_min[30-27], 30);
  63              		.loc 1 131 1 view .LVU17
  64 000c 30B4     		push	{r4, r5}
  65              	.LCFI0:
  66              		.cfi_def_cfa_offset 8
  67              		.cfi_offset 4, -8
  68              		.cfi_offset 5, -4
  69              	.LBB31:
  70              	.LBB28:
  62:../Common/IQMath/ti/_IQNlog.c ****     
  71              		.loc 1 62 5 is_stmt 1 view .LVU18
  72              	.LVL2:
  69:../Common/IQMath/ti/_IQNlog.c ****     while (uiq31Input < iq31_twoThird) {
  73              		.loc 1 69 5 view .LVU19
  70:../Common/IQMath/ti/_IQNlog.c ****         uiq31Input <<= 1;
  74              		.loc 1 70 5 view .LVU20
  62:../Common/IQMath/ti/_IQNlog.c ****     
  75              		.loc 1 62 12 is_stmt 0 view .LVU21
  76 000e 4FF0010C 		mov	ip, #1
  70:../Common/IQMath/ti/_IQNlog.c ****         uiq31Input <<= 1;
  77              		.loc 1 70 11 view .LVU22
ARM GAS  C:\Users\57308\AppData\Local\Temp\ccxDvd6L.s 			page 5


  78 0012 02E0     		b	.L3
  79              	.LVL3:
  80              	.L4:
  71:../Common/IQMath/ti/_IQNlog.c ****         i16Exp--;
  81              		.loc 1 71 9 is_stmt 1 view .LVU23
  71:../Common/IQMath/ti/_IQNlog.c ****         i16Exp--;
  82              		.loc 1 71 20 is_stmt 0 view .LVU24
  83 0014 4900     		lsls	r1, r1, #1
  84              	.LVL4:
  72:../Common/IQMath/ti/_IQNlog.c ****     }
  85              		.loc 1 72 9 is_stmt 1 view .LVU25
  72:../Common/IQMath/ti/_IQNlog.c ****     }
  86              		.loc 1 72 15 is_stmt 0 view .LVU26
  87 0016 0CF1FF3C 		add	ip, ip, #-1
  88              	.LVL5:
  89              	.L3:
  70:../Common/IQMath/ti/_IQNlog.c ****         uiq31Input <<= 1;
  90              		.loc 1 70 11 is_stmt 1 view .LVU27
  91 001a B1F1553F 		cmp	r1, #1431655765
  92 001e F9D3     		bcc	.L4
  81:../Common/IQMath/ti/_IQNlog.c ****     
  93              		.loc 1 81 5 view .LVU28
  94              	.LVL6:
  81:../Common/IQMath/ti/_IQNlog.c ****     
  95              		.loc 1 81 5 is_stmt 0 view .LVU29
  96              	.LBE28:
  97              	.LBE31:
  98              		.file 2 "../Common/IQMath/ti/./support/RTS_support.h"
   1:../Common/IQMath/ti/./support/RTS_support.h **** #ifndef __RTS_SUPPORTH__
   2:../Common/IQMath/ti/./support/RTS_support.h **** #define __RTS_SUPPORTH__
   3:../Common/IQMath/ti/./support/RTS_support.h **** 
   4:../Common/IQMath/ti/./support/RTS_support.h **** ////////////////////////////////////////////////////////////
   5:../Common/IQMath/ti/./support/RTS_support.h **** //                                                        //
   6:../Common/IQMath/ti/./support/RTS_support.h **** //              MPY32 control functions.                  //
   7:../Common/IQMath/ti/./support/RTS_support.h **** //                                                        //
   8:../Common/IQMath/ti/./support/RTS_support.h **** ////////////////////////////////////////////////////////////
   9:../Common/IQMath/ti/./support/RTS_support.h **** #if defined (__TI_COMPILER_VERSION__)
  10:../Common/IQMath/ti/./support/RTS_support.h ****     #pragma FUNC_ALWAYS_INLINE(__mpy_start)
  11:../Common/IQMath/ti/./support/RTS_support.h **** #elif defined(__IAR_SYSTEMS_ICC__)
  12:../Common/IQMath/ti/./support/RTS_support.h ****     #pragma inline=forced
  13:../Common/IQMath/ti/./support/RTS_support.h **** #endif
  14:../Common/IQMath/ti/./support/RTS_support.h **** static inline void __mpy_start(uint_fast16_t *ui16IntState, uint_fast16_t *ui16MPYState)
  15:../Common/IQMath/ti/./support/RTS_support.h **** {
  16:../Common/IQMath/ti/./support/RTS_support.h ****     /* Do nothing. */
  17:../Common/IQMath/ti/./support/RTS_support.h ****     return;
  18:../Common/IQMath/ti/./support/RTS_support.h **** }
  19:../Common/IQMath/ti/./support/RTS_support.h **** 
  20:../Common/IQMath/ti/./support/RTS_support.h **** #if defined (__TI_COMPILER_VERSION__)
  21:../Common/IQMath/ti/./support/RTS_support.h ****     #pragma FUNC_ALWAYS_INLINE(__mpyf_start)
  22:../Common/IQMath/ti/./support/RTS_support.h **** #elif defined(__IAR_SYSTEMS_ICC__)
  23:../Common/IQMath/ti/./support/RTS_support.h ****     #pragma inline=forced
  24:../Common/IQMath/ti/./support/RTS_support.h **** #endif
  25:../Common/IQMath/ti/./support/RTS_support.h **** static inline void __mpyf_start(uint_fast16_t *ui16IntState, uint_fast16_t *ui16MPYState)
  26:../Common/IQMath/ti/./support/RTS_support.h **** {
  27:../Common/IQMath/ti/./support/RTS_support.h ****     /* Do nothing. */
  28:../Common/IQMath/ti/./support/RTS_support.h ****     return;
  99              		.loc 2 28 5 is_stmt 1 view .LVU30
ARM GAS  C:\Users\57308\AppData\Local\Temp\ccxDvd6L.s 			page 6


 100              	.LBB32:
 101              	.LBB29:
  88:../Common/IQMath/ti/_IQNlog.c ****     iq30Result = *piq30Coeffs++;
 102              		.loc 1 88 5 view .LVU31
  89:../Common/IQMath/ti/_IQNlog.c ****     uiq31Input -= iq31_one;
 103              		.loc 1 89 5 view .LVU32
  89:../Common/IQMath/ti/_IQNlog.c ****     uiq31Input -= iq31_one;
 104              		.loc 1 89 18 is_stmt 0 view .LVU33
 105 0020 1C4C     		ldr	r4, .L14+4
 106 0022 54F8040B 		ldr	r0, [r4], #4
 107              	.LVL7:
  90:../Common/IQMath/ti/_IQNlog.c ****     
 108              		.loc 1 90 5 is_stmt 1 view .LVU34
  90:../Common/IQMath/ti/_IQNlog.c ****     
 109              		.loc 1 90 16 is_stmt 0 view .LVU35
 110 0026 01F10041 		add	r1, r1, #-2147483648
 111              	.LVL8:
  90:../Common/IQMath/ti/_IQNlog.c ****     
 112              		.loc 1 90 16 view .LVU36
 113 002a 0131     		adds	r1, r1, #1
 114              	.LVL9:
  93:../Common/IQMath/ti/_IQNlog.c ****         iq30Result = __mpyf_l(uiq31Input, iq30Result);
 115              		.loc 1 93 5 is_stmt 1 view .LVU37
  93:../Common/IQMath/ti/_IQNlog.c ****         iq30Result = __mpyf_l(uiq31Input, iq30Result);
 116              		.loc 1 93 21 is_stmt 0 view .LVU38
 117 002c 0E25     		movs	r5, #14
  93:../Common/IQMath/ti/_IQNlog.c ****         iq30Result = __mpyf_l(uiq31Input, iq30Result);
 118              		.loc 1 93 5 view .LVU39
 119 002e 12E0     		b	.L5
 120              	.LVL10:
 121              	.L6:
  94:../Common/IQMath/ti/_IQNlog.c ****         iq30Result += *piq30Coeffs++;
 122              		.loc 1 94 9 is_stmt 1 view .LVU40
 123              	.LBB22:
 124              	.LBI22:
  29:../Common/IQMath/ti/./support/RTS_support.h **** }
  30:../Common/IQMath/ti/./support/RTS_support.h **** 
  31:../Common/IQMath/ti/./support/RTS_support.h **** #if defined (__TI_COMPILER_VERSION__)
  32:../Common/IQMath/ti/./support/RTS_support.h ****     #pragma FUNC_ALWAYS_INLINE(__mpyfs_start)
  33:../Common/IQMath/ti/./support/RTS_support.h **** #elif defined(__IAR_SYSTEMS_ICC__)
  34:../Common/IQMath/ti/./support/RTS_support.h ****     #pragma inline=forced
  35:../Common/IQMath/ti/./support/RTS_support.h **** #endif
  36:../Common/IQMath/ti/./support/RTS_support.h **** static inline void __mpyfs_start(uint_fast16_t *ui16IntState, uint_fast16_t *ui16MPYState)
  37:../Common/IQMath/ti/./support/RTS_support.h **** {
  38:../Common/IQMath/ti/./support/RTS_support.h ****     /* Do nothing. */
  39:../Common/IQMath/ti/./support/RTS_support.h ****     return;
  40:../Common/IQMath/ti/./support/RTS_support.h **** }
  41:../Common/IQMath/ti/./support/RTS_support.h **** 
  42:../Common/IQMath/ti/./support/RTS_support.h **** #if defined (__TI_COMPILER_VERSION__)
  43:../Common/IQMath/ti/./support/RTS_support.h ****     #pragma FUNC_ALWAYS_INLINE(__mpy_clear_ctl0)
  44:../Common/IQMath/ti/./support/RTS_support.h **** #elif defined(__IAR_SYSTEMS_ICC__)
  45:../Common/IQMath/ti/./support/RTS_support.h ****     #pragma inline=forced
  46:../Common/IQMath/ti/./support/RTS_support.h **** #endif
  47:../Common/IQMath/ti/./support/RTS_support.h **** static inline void __mpy_clear_ctl0(void)
  48:../Common/IQMath/ti/./support/RTS_support.h **** {
  49:../Common/IQMath/ti/./support/RTS_support.h ****     /* Do nothing. */
  50:../Common/IQMath/ti/./support/RTS_support.h ****     return;
ARM GAS  C:\Users\57308\AppData\Local\Temp\ccxDvd6L.s 			page 7


  51:../Common/IQMath/ti/./support/RTS_support.h **** }
  52:../Common/IQMath/ti/./support/RTS_support.h **** 
  53:../Common/IQMath/ti/./support/RTS_support.h **** #if defined (__TI_COMPILER_VERSION__)
  54:../Common/IQMath/ti/./support/RTS_support.h ****     #pragma FUNC_ALWAYS_INLINE(__mpy_set_frac)
  55:../Common/IQMath/ti/./support/RTS_support.h **** #elif defined(__IAR_SYSTEMS_ICC__)
  56:../Common/IQMath/ti/./support/RTS_support.h ****     #pragma inline=forced
  57:../Common/IQMath/ti/./support/RTS_support.h **** #endif
  58:../Common/IQMath/ti/./support/RTS_support.h **** static inline void __mpy_set_frac(void)
  59:../Common/IQMath/ti/./support/RTS_support.h **** {
  60:../Common/IQMath/ti/./support/RTS_support.h ****     /* Do nothing. */
  61:../Common/IQMath/ti/./support/RTS_support.h ****     return;
  62:../Common/IQMath/ti/./support/RTS_support.h **** }
  63:../Common/IQMath/ti/./support/RTS_support.h **** 
  64:../Common/IQMath/ti/./support/RTS_support.h **** #if defined (__TI_COMPILER_VERSION__)
  65:../Common/IQMath/ti/./support/RTS_support.h ****     #pragma FUNC_ALWAYS_INLINE(__mpy_stop)
  66:../Common/IQMath/ti/./support/RTS_support.h **** #elif defined(__IAR_SYSTEMS_ICC__)
  67:../Common/IQMath/ti/./support/RTS_support.h ****     #pragma inline=forced
  68:../Common/IQMath/ti/./support/RTS_support.h **** #endif
  69:../Common/IQMath/ti/./support/RTS_support.h **** static inline void __mpy_stop(uint_fast16_t *ui16IntState, uint_fast16_t *ui16MPYState)
  70:../Common/IQMath/ti/./support/RTS_support.h **** {
  71:../Common/IQMath/ti/./support/RTS_support.h ****     /* Do nothing. */
  72:../Common/IQMath/ti/./support/RTS_support.h ****     return;
  73:../Common/IQMath/ti/./support/RTS_support.h **** }
  74:../Common/IQMath/ti/./support/RTS_support.h **** 
  75:../Common/IQMath/ti/./support/RTS_support.h **** ////////////////////////////////////////////////////////////
  76:../Common/IQMath/ti/./support/RTS_support.h **** //                                                        //
  77:../Common/IQMath/ti/./support/RTS_support.h **** //                16-bit functions                        //
  78:../Common/IQMath/ti/./support/RTS_support.h **** //                                                        //
  79:../Common/IQMath/ti/./support/RTS_support.h **** ////////////////////////////////////////////////////////////
  80:../Common/IQMath/ti/./support/RTS_support.h **** #if defined (__TI_COMPILER_VERSION__)
  81:../Common/IQMath/ti/./support/RTS_support.h ****     #pragma FUNC_ALWAYS_INLINE(__mpy_w)
  82:../Common/IQMath/ti/./support/RTS_support.h **** #elif defined(__IAR_SYSTEMS_ICC__)
  83:../Common/IQMath/ti/./support/RTS_support.h ****     #pragma inline=forced
  84:../Common/IQMath/ti/./support/RTS_support.h **** #endif
  85:../Common/IQMath/ti/./support/RTS_support.h **** static inline int_fast16_t __mpy_w(int_fast16_t arg1, int_fast16_t arg2)
  86:../Common/IQMath/ti/./support/RTS_support.h **** {
  87:../Common/IQMath/ti/./support/RTS_support.h ****     return (arg1 * arg2);
  88:../Common/IQMath/ti/./support/RTS_support.h **** }
  89:../Common/IQMath/ti/./support/RTS_support.h **** 
  90:../Common/IQMath/ti/./support/RTS_support.h **** #if defined (__TI_COMPILER_VERSION__)
  91:../Common/IQMath/ti/./support/RTS_support.h ****     #pragma FUNC_ALWAYS_INLINE(__mpy_uw)
  92:../Common/IQMath/ti/./support/RTS_support.h **** #elif defined(__IAR_SYSTEMS_ICC__)
  93:../Common/IQMath/ti/./support/RTS_support.h ****     #pragma inline=forced
  94:../Common/IQMath/ti/./support/RTS_support.h **** #endif
  95:../Common/IQMath/ti/./support/RTS_support.h **** static inline uint_fast16_t __mpy_uw(uint_fast16_t arg1, uint_fast16_t arg2)
  96:../Common/IQMath/ti/./support/RTS_support.h **** {
  97:../Common/IQMath/ti/./support/RTS_support.h ****     return (arg1 * arg2);
  98:../Common/IQMath/ti/./support/RTS_support.h **** }
  99:../Common/IQMath/ti/./support/RTS_support.h **** 
 100:../Common/IQMath/ti/./support/RTS_support.h **** #if defined (__TI_COMPILER_VERSION__)
 101:../Common/IQMath/ti/./support/RTS_support.h ****     #pragma FUNC_ALWAYS_INLINE(__mpyx_w)
 102:../Common/IQMath/ti/./support/RTS_support.h **** #elif defined(__IAR_SYSTEMS_ICC__)
 103:../Common/IQMath/ti/./support/RTS_support.h ****     #pragma inline=forced
 104:../Common/IQMath/ti/./support/RTS_support.h **** #endif
 105:../Common/IQMath/ti/./support/RTS_support.h **** static inline int_fast32_t __mpyx_w(int_fast16_t arg1, int_fast16_t arg2)
 106:../Common/IQMath/ti/./support/RTS_support.h **** {
 107:../Common/IQMath/ti/./support/RTS_support.h ****     return ((int_fast32_t)arg1 * (int_fast32_t)arg2);
ARM GAS  C:\Users\57308\AppData\Local\Temp\ccxDvd6L.s 			page 8


 108:../Common/IQMath/ti/./support/RTS_support.h **** }
 109:../Common/IQMath/ti/./support/RTS_support.h **** 
 110:../Common/IQMath/ti/./support/RTS_support.h **** #if defined (__TI_COMPILER_VERSION__)
 111:../Common/IQMath/ti/./support/RTS_support.h ****     #pragma FUNC_ALWAYS_INLINE(__mpyx_uw)
 112:../Common/IQMath/ti/./support/RTS_support.h **** #elif defined(__IAR_SYSTEMS_ICC__)
 113:../Common/IQMath/ti/./support/RTS_support.h ****     #pragma inline=forced
 114:../Common/IQMath/ti/./support/RTS_support.h **** #endif
 115:../Common/IQMath/ti/./support/RTS_support.h **** static inline uint_fast32_t __mpyx_uw(uint_fast16_t arg1, uint_fast16_t arg2)
 116:../Common/IQMath/ti/./support/RTS_support.h **** {
 117:../Common/IQMath/ti/./support/RTS_support.h ****     return ((uint_fast32_t)arg1 * (uint_fast32_t)arg2);
 118:../Common/IQMath/ti/./support/RTS_support.h **** }
 119:../Common/IQMath/ti/./support/RTS_support.h **** 
 120:../Common/IQMath/ti/./support/RTS_support.h **** #if defined (__TI_COMPILER_VERSION__)
 121:../Common/IQMath/ti/./support/RTS_support.h ****     #pragma FUNC_ALWAYS_INLINE(__mpyf_w)
 122:../Common/IQMath/ti/./support/RTS_support.h **** #elif defined(__IAR_SYSTEMS_ICC__)
 123:../Common/IQMath/ti/./support/RTS_support.h ****     #pragma inline=forced
 124:../Common/IQMath/ti/./support/RTS_support.h **** #endif
 125:../Common/IQMath/ti/./support/RTS_support.h **** static inline int_fast16_t __mpyf_w(int_fast16_t arg1, int_fast16_t arg2)
 126:../Common/IQMath/ti/./support/RTS_support.h **** {
 127:../Common/IQMath/ti/./support/RTS_support.h ****     return (int_fast16_t)(((int_fast32_t)arg1 * (int_fast32_t)arg2) >> 15);
 128:../Common/IQMath/ti/./support/RTS_support.h **** }
 129:../Common/IQMath/ti/./support/RTS_support.h **** 
 130:../Common/IQMath/ti/./support/RTS_support.h **** #if defined (__TI_COMPILER_VERSION__)
 131:../Common/IQMath/ti/./support/RTS_support.h ****     #pragma FUNC_ALWAYS_INLINE(__mpyf_w_reuse_arg1)
 132:../Common/IQMath/ti/./support/RTS_support.h **** #elif defined(__IAR_SYSTEMS_ICC__)
 133:../Common/IQMath/ti/./support/RTS_support.h ****     #pragma inline=forced
 134:../Common/IQMath/ti/./support/RTS_support.h **** #endif
 135:../Common/IQMath/ti/./support/RTS_support.h **** static inline int_fast16_t __mpyf_w_reuse_arg1(int_fast16_t arg1, int_fast16_t arg2)
 136:../Common/IQMath/ti/./support/RTS_support.h **** {
 137:../Common/IQMath/ti/./support/RTS_support.h ****     /* This is identical to __mpyf_w */
 138:../Common/IQMath/ti/./support/RTS_support.h ****     return (int_fast16_t)(((int_fast32_t)arg1 * (int_fast32_t)arg2) >> 15);
 139:../Common/IQMath/ti/./support/RTS_support.h **** }
 140:../Common/IQMath/ti/./support/RTS_support.h **** 
 141:../Common/IQMath/ti/./support/RTS_support.h **** #if defined (__TI_COMPILER_VERSION__)
 142:../Common/IQMath/ti/./support/RTS_support.h ****     #pragma FUNC_ALWAYS_INLINE(__mpyf_uw)
 143:../Common/IQMath/ti/./support/RTS_support.h **** #elif defined(__IAR_SYSTEMS_ICC__)
 144:../Common/IQMath/ti/./support/RTS_support.h ****     #pragma inline=forced
 145:../Common/IQMath/ti/./support/RTS_support.h **** #endif
 146:../Common/IQMath/ti/./support/RTS_support.h **** static inline uint_fast16_t __mpyf_uw(uint_fast16_t arg1, uint_fast16_t arg2)
 147:../Common/IQMath/ti/./support/RTS_support.h **** {
 148:../Common/IQMath/ti/./support/RTS_support.h ****     return (uint_fast16_t)(((uint_fast32_t)arg1 * (uint_fast32_t)arg2) >> 15);
 149:../Common/IQMath/ti/./support/RTS_support.h **** }
 150:../Common/IQMath/ti/./support/RTS_support.h **** 
 151:../Common/IQMath/ti/./support/RTS_support.h **** #if defined (__TI_COMPILER_VERSION__)
 152:../Common/IQMath/ti/./support/RTS_support.h ****     #pragma FUNC_ALWAYS_INLINE(__mpyf_uw_reuse_arg1)
 153:../Common/IQMath/ti/./support/RTS_support.h **** #elif defined(__IAR_SYSTEMS_ICC__)
 154:../Common/IQMath/ti/./support/RTS_support.h ****     #pragma inline=forced
 155:../Common/IQMath/ti/./support/RTS_support.h **** #endif
 156:../Common/IQMath/ti/./support/RTS_support.h **** static inline uint_fast16_t __mpyf_uw_reuse_arg1(uint_fast16_t arg1, uint_fast16_t arg2)
 157:../Common/IQMath/ti/./support/RTS_support.h **** {
 158:../Common/IQMath/ti/./support/RTS_support.h ****     /* This is identical to __mpyf_uw */
 159:../Common/IQMath/ti/./support/RTS_support.h ****     return (uint_fast16_t)(((uint_fast32_t)arg1 * (uint_fast32_t)arg2) >> 15);
 160:../Common/IQMath/ti/./support/RTS_support.h **** }
 161:../Common/IQMath/ti/./support/RTS_support.h **** 
 162:../Common/IQMath/ti/./support/RTS_support.h **** #if defined (__TI_COMPILER_VERSION__)
 163:../Common/IQMath/ti/./support/RTS_support.h ****     #pragma FUNC_ALWAYS_INLINE(__mpyfx_w)
 164:../Common/IQMath/ti/./support/RTS_support.h **** #elif defined(__IAR_SYSTEMS_ICC__)
ARM GAS  C:\Users\57308\AppData\Local\Temp\ccxDvd6L.s 			page 9


 165:../Common/IQMath/ti/./support/RTS_support.h ****     #pragma inline=forced
 166:../Common/IQMath/ti/./support/RTS_support.h **** #endif
 167:../Common/IQMath/ti/./support/RTS_support.h **** static inline int_fast32_t __mpyfx_w(int_fast16_t arg1, int_fast16_t arg2)
 168:../Common/IQMath/ti/./support/RTS_support.h **** {
 169:../Common/IQMath/ti/./support/RTS_support.h ****     return (((int_fast32_t)arg1 * (int_fast32_t)arg2) << 1);
 170:../Common/IQMath/ti/./support/RTS_support.h **** }
 171:../Common/IQMath/ti/./support/RTS_support.h **** 
 172:../Common/IQMath/ti/./support/RTS_support.h **** #if defined (__TI_COMPILER_VERSION__)
 173:../Common/IQMath/ti/./support/RTS_support.h ****     #pragma FUNC_ALWAYS_INLINE(__mpyfx_uw)
 174:../Common/IQMath/ti/./support/RTS_support.h **** #elif defined(__IAR_SYSTEMS_ICC__)
 175:../Common/IQMath/ti/./support/RTS_support.h ****     #pragma inline=forced
 176:../Common/IQMath/ti/./support/RTS_support.h **** #endif
 177:../Common/IQMath/ti/./support/RTS_support.h **** static inline int_fast32_t __mpyfx_uw(uint_fast16_t arg1, uint_fast16_t arg2)
 178:../Common/IQMath/ti/./support/RTS_support.h **** {
 179:../Common/IQMath/ti/./support/RTS_support.h ****     return (((uint_fast32_t)arg1 * (uint_fast32_t)arg2) << 1);
 180:../Common/IQMath/ti/./support/RTS_support.h **** }
 181:../Common/IQMath/ti/./support/RTS_support.h **** 
 182:../Common/IQMath/ti/./support/RTS_support.h **** 
 183:../Common/IQMath/ti/./support/RTS_support.h **** ////////////////////////////////////////////////////////////
 184:../Common/IQMath/ti/./support/RTS_support.h **** //                                                        //
 185:../Common/IQMath/ti/./support/RTS_support.h **** //                 32-bit functions                       //
 186:../Common/IQMath/ti/./support/RTS_support.h **** //                                                        //
 187:../Common/IQMath/ti/./support/RTS_support.h **** ////////////////////////////////////////////////////////////
 188:../Common/IQMath/ti/./support/RTS_support.h **** #if defined (__TI_COMPILER_VERSION__)
 189:../Common/IQMath/ti/./support/RTS_support.h ****     #pragma FUNC_ALWAYS_INLINE(__mpy_l)
 190:../Common/IQMath/ti/./support/RTS_support.h **** #elif defined(__IAR_SYSTEMS_ICC__)
 191:../Common/IQMath/ti/./support/RTS_support.h ****     #pragma inline=forced
 192:../Common/IQMath/ti/./support/RTS_support.h **** #endif
 193:../Common/IQMath/ti/./support/RTS_support.h **** static inline int_fast32_t __mpy_l(int_fast32_t arg1, int_fast32_t arg2)
 194:../Common/IQMath/ti/./support/RTS_support.h **** {
 195:../Common/IQMath/ti/./support/RTS_support.h ****     return (arg1 * arg2);
 196:../Common/IQMath/ti/./support/RTS_support.h **** }
 197:../Common/IQMath/ti/./support/RTS_support.h **** 
 198:../Common/IQMath/ti/./support/RTS_support.h **** #if defined (__TI_COMPILER_VERSION__)
 199:../Common/IQMath/ti/./support/RTS_support.h ****     #pragma FUNC_ALWAYS_INLINE(__mpy_ul)
 200:../Common/IQMath/ti/./support/RTS_support.h **** #elif defined(__IAR_SYSTEMS_ICC__)
 201:../Common/IQMath/ti/./support/RTS_support.h ****     #pragma inline=forced
 202:../Common/IQMath/ti/./support/RTS_support.h **** #endif
 203:../Common/IQMath/ti/./support/RTS_support.h **** static inline uint_fast32_t __mpy_ul(uint_fast32_t arg1, uint_fast32_t arg2)
 204:../Common/IQMath/ti/./support/RTS_support.h **** {
 205:../Common/IQMath/ti/./support/RTS_support.h ****     return (arg1 * arg2);
 206:../Common/IQMath/ti/./support/RTS_support.h **** }
 207:../Common/IQMath/ti/./support/RTS_support.h **** 
 208:../Common/IQMath/ti/./support/RTS_support.h **** #if defined (__TI_COMPILER_VERSION__)
 209:../Common/IQMath/ti/./support/RTS_support.h ****     #pragma FUNC_ALWAYS_INLINE(__mpyx)
 210:../Common/IQMath/ti/./support/RTS_support.h **** #elif defined(__IAR_SYSTEMS_ICC__)
 211:../Common/IQMath/ti/./support/RTS_support.h ****     #pragma inline=forced
 212:../Common/IQMath/ti/./support/RTS_support.h **** #endif
 213:../Common/IQMath/ti/./support/RTS_support.h **** static inline int_fast64_t __mpyx(int_fast32_t arg1, int_fast32_t arg2)
 214:../Common/IQMath/ti/./support/RTS_support.h **** {
 215:../Common/IQMath/ti/./support/RTS_support.h ****     return ((int_fast64_t)arg1 * (int_fast64_t)arg2);
 216:../Common/IQMath/ti/./support/RTS_support.h **** }
 217:../Common/IQMath/ti/./support/RTS_support.h **** 
 218:../Common/IQMath/ti/./support/RTS_support.h **** #if defined (__TI_COMPILER_VERSION__)
 219:../Common/IQMath/ti/./support/RTS_support.h ****     #pragma FUNC_ALWAYS_INLINE(__mpyx_u)
 220:../Common/IQMath/ti/./support/RTS_support.h **** #elif defined(__IAR_SYSTEMS_ICC__)
 221:../Common/IQMath/ti/./support/RTS_support.h ****     #pragma inline=forced
ARM GAS  C:\Users\57308\AppData\Local\Temp\ccxDvd6L.s 			page 10


 222:../Common/IQMath/ti/./support/RTS_support.h **** #endif
 223:../Common/IQMath/ti/./support/RTS_support.h **** static inline uint_fast64_t __mpyx_u(uint_fast32_t arg1, uint_fast32_t arg2)
 224:../Common/IQMath/ti/./support/RTS_support.h **** {
 225:../Common/IQMath/ti/./support/RTS_support.h ****     return ((uint_fast64_t)arg1 * (uint_fast64_t)arg2);
 226:../Common/IQMath/ti/./support/RTS_support.h **** }
 227:../Common/IQMath/ti/./support/RTS_support.h **** 
 228:../Common/IQMath/ti/./support/RTS_support.h **** #if defined (__TI_COMPILER_VERSION__)
 229:../Common/IQMath/ti/./support/RTS_support.h ****     #pragma FUNC_ALWAYS_INLINE(__mpyf_l)
 230:../Common/IQMath/ti/./support/RTS_support.h **** #elif defined(__IAR_SYSTEMS_ICC__)
 231:../Common/IQMath/ti/./support/RTS_support.h ****     #pragma inline=forced
 232:../Common/IQMath/ti/./support/RTS_support.h **** #endif
 233:../Common/IQMath/ti/./support/RTS_support.h **** static inline int_fast32_t __mpyf_l(int_fast32_t arg1, int_fast32_t arg2)
 125              		.loc 2 233 28 view .LVU41
 126              	.LBB23:
 234:../Common/IQMath/ti/./support/RTS_support.h **** {
 235:../Common/IQMath/ti/./support/RTS_support.h ****     return (int_fast32_t)(((int_fast64_t)arg1 * (int_fast64_t)arg2) >> 31);
 127              		.loc 2 235 5 view .LVU42
 128              		.loc 2 235 28 is_stmt 0 view .LVU43
 129 0030 CB17     		asrs	r3, r1, #31
 130              		.loc 2 235 49 view .LVU44
 131 0032 C217     		asrs	r2, r0, #31
 132              		.loc 2 235 47 view .LVU45
 133 0034 01FB02F2 		mul	r2, r1, r2
 134 0038 00FB0323 		mla	r3, r0, r3, r2
 135 003c A1FB0002 		umull	r0, r2, r1, r0
 136              	.LVL11:
 137              		.loc 2 235 47 view .LVU46
 138 0040 1344     		add	r3, r3, r2
 139              		.loc 2 235 69 view .LVU47
 140 0042 C00F     		lsrs	r0, r0, #31
 141 0044 40EA4300 		orr	r0, r0, r3, lsl #1
 142              	.LVL12:
 143              		.loc 2 235 69 view .LVU48
 144              	.LBE23:
 145              	.LBE22:
  95:../Common/IQMath/ti/_IQNlog.c ****     }
 146              		.loc 1 95 9 is_stmt 1 view .LVU49
  95:../Common/IQMath/ti/_IQNlog.c ****     }
 147              		.loc 1 95 35 is_stmt 0 view .LVU50
 148 0048 2346     		mov	r3, r4
 149              	.LVL13:
  95:../Common/IQMath/ti/_IQNlog.c ****     }
 150              		.loc 1 95 23 view .LVU51
 151 004a 53F8042B 		ldr	r2, [r3], #4
 152              	.LVL14:
  95:../Common/IQMath/ti/_IQNlog.c ****     }
 153              		.loc 1 95 20 view .LVU52
 154 004e 1044     		add	r0, r0, r2
 155              	.LVL15:
  93:../Common/IQMath/ti/_IQNlog.c ****         iq30Result = __mpyf_l(uiq31Input, iq30Result);
 156              		.loc 1 93 55 is_stmt 1 view .LVU53
  93:../Common/IQMath/ti/_IQNlog.c ****         iq30Result = __mpyf_l(uiq31Input, iq30Result);
 157              		.loc 1 93 65 is_stmt 0 view .LVU54
 158 0050 013D     		subs	r5, r5, #1
 159              	.LVL16:
  93:../Common/IQMath/ti/_IQNlog.c ****         iq30Result = __mpyf_l(uiq31Input, iq30Result);
 160              		.loc 1 93 65 view .LVU55
ARM GAS  C:\Users\57308\AppData\Local\Temp\ccxDvd6L.s 			page 11


 161 0052 EDB2     		uxtb	r5, r5
 162              	.LVL17:
  95:../Common/IQMath/ti/_IQNlog.c ****     }
 163              		.loc 1 95 35 view .LVU56
 164 0054 1C46     		mov	r4, r3
 165              	.LVL18:
 166              	.L5:
  93:../Common/IQMath/ti/_IQNlog.c ****         iq30Result = __mpyf_l(uiq31Input, iq30Result);
 167              		.loc 1 93 39 is_stmt 1 view .LVU57
  93:../Common/IQMath/ti/_IQNlog.c ****         iq30Result = __mpyf_l(uiq31Input, iq30Result);
 168              		.loc 1 93 5 is_stmt 0 view .LVU58
 169 0056 002D     		cmp	r5, #0
 170 0058 EAD1     		bne	.L6
  99:../Common/IQMath/ti/_IQNlog.c ****     
 171              		.loc 1 99 5 is_stmt 1 view .LVU59
 172              	.LVL19:
 107:../Common/IQMath/ti/_IQNlog.c ****         iqNResult += __mpyf_ul(iq31_ln2, ((int_fast32_t)i16Exp << q_value));
 173              		.loc 1 107 5 view .LVU60
 107:../Common/IQMath/ti/_IQNlog.c ****         iqNResult += __mpyf_ul(iq31_ln2, ((int_fast32_t)i16Exp << q_value));
 174              		.loc 1 107 8 is_stmt 0 view .LVU61
 175 005a BCF1000F 		cmp	ip, #0
 176 005e 08DD     		ble	.L7
 108:../Common/IQMath/ti/_IQNlog.c ****     }
 177              		.loc 1 108 9 is_stmt 1 view .LVU62
 108:../Common/IQMath/ti/_IQNlog.c ****     }
 178              		.loc 1 108 64 is_stmt 0 view .LVU63
 179 0060 4FEA8C7C 		lsl	ip, ip, #30
 180              	.LVL20:
 181              	.LBB24:
 182              	.LBI24:
 236:../Common/IQMath/ti/./support/RTS_support.h **** }
 237:../Common/IQMath/ti/./support/RTS_support.h **** 
 238:../Common/IQMath/ti/./support/RTS_support.h **** #if defined (__TI_COMPILER_VERSION__)
 239:../Common/IQMath/ti/./support/RTS_support.h ****     #pragma FUNC_ALWAYS_INLINE(__mpyf_l_reuse_arg1)
 240:../Common/IQMath/ti/./support/RTS_support.h **** #elif defined(__IAR_SYSTEMS_ICC__)
 241:../Common/IQMath/ti/./support/RTS_support.h ****     #pragma inline=forced
 242:../Common/IQMath/ti/./support/RTS_support.h **** #endif
 243:../Common/IQMath/ti/./support/RTS_support.h **** static inline int_fast32_t __mpyf_l_reuse_arg1(int_fast32_t arg1, int_fast32_t arg2)
 244:../Common/IQMath/ti/./support/RTS_support.h **** {
 245:../Common/IQMath/ti/./support/RTS_support.h ****     /* This is identical to __mpyf_l */
 246:../Common/IQMath/ti/./support/RTS_support.h ****     return (int_fast32_t)(((int_fast64_t)arg1 * (int_fast64_t)arg2) >> 31);
 247:../Common/IQMath/ti/./support/RTS_support.h **** }
 248:../Common/IQMath/ti/./support/RTS_support.h **** 
 249:../Common/IQMath/ti/./support/RTS_support.h **** #if defined (__TI_COMPILER_VERSION__)
 250:../Common/IQMath/ti/./support/RTS_support.h ****     #pragma FUNC_ALWAYS_INLINE(__mpyf_ul)
 251:../Common/IQMath/ti/./support/RTS_support.h **** #elif defined(__IAR_SYSTEMS_ICC__)
 252:../Common/IQMath/ti/./support/RTS_support.h ****     #pragma inline=forced
 253:../Common/IQMath/ti/./support/RTS_support.h **** #endif
 254:../Common/IQMath/ti/./support/RTS_support.h **** static inline uint_fast32_t __mpyf_ul(uint_fast32_t arg1, uint_fast32_t arg2)
 183              		.loc 2 254 29 is_stmt 1 view .LVU64
 184              	.LBB25:
 255:../Common/IQMath/ti/./support/RTS_support.h **** {
 256:../Common/IQMath/ti/./support/RTS_support.h ****     return (uint_fast32_t)(((uint_fast64_t)arg1 * (uint_fast64_t)arg2) >> 31);
 185              		.loc 2 256 5 view .LVU65
 186              		.loc 2 256 49 is_stmt 0 view .LVU66
 187 0064 0C4B     		ldr	r3, .L14+8
 188 0066 ACFB03C3 		umull	ip, r3, ip, r3
ARM GAS  C:\Users\57308\AppData\Local\Temp\ccxDvd6L.s 			page 12


 189              	.LVL21:
 190              		.loc 2 256 49 view .LVU67
 191              	.LBE25:
 192              	.LBE24:
 108:../Common/IQMath/ti/_IQNlog.c ****     }
 193              		.loc 1 108 19 view .LVU68
 194 006a 00EB4300 		add	r0, r0, r3, lsl #1
 195              	.LVL22:
 196              	.L1:
 108:../Common/IQMath/ti/_IQNlog.c ****     }
 197              		.loc 1 108 19 view .LVU69
 198              	.LBE29:
 199              	.LBE32:
 133:../Common/IQMath/ti/_IQNlog.c **** }
 200              		.loc 1 133 1 view .LVU70
 201 006e 30BC     		pop	{r4, r5}
 202              	.LCFI1:
 203              		.cfi_remember_state
 204              		.cfi_restore 5
 205              		.cfi_restore 4
 206              		.cfi_def_cfa_offset 0
 207              	.LVL23:
 208              		.loc 1 133 1 view .LVU71
 209 0070 7047     		bx	lr
 210              	.LVL24:
 211              	.L7:
 212              	.LCFI2:
 213              		.cfi_restore_state
 214              	.LBB33:
 215              	.LBB30:
 111:../Common/IQMath/ti/_IQNlog.c ****     }
 216              		.loc 1 111 9 is_stmt 1 view .LVU72
 111:../Common/IQMath/ti/_IQNlog.c ****     }
 217              		.loc 1 111 59 is_stmt 0 view .LVU73
 218 0072 CCF1000C 		rsb	ip, ip, #0
 219              	.LVL25:
 111:../Common/IQMath/ti/_IQNlog.c ****     }
 220              		.loc 1 111 22 view .LVU74
 221 0076 4FEA8C7C 		lsl	ip, ip, #30
 222              	.LVL26:
 223              	.LBB26:
 224              	.LBI26:
 254:../Common/IQMath/ti/./support/RTS_support.h **** {
 225              		.loc 2 254 29 is_stmt 1 view .LVU75
 226              	.LBB27:
 227              		.loc 2 256 5 view .LVU76
 228              		.loc 2 256 49 is_stmt 0 view .LVU77
 229 007a 074B     		ldr	r3, .L14+8
 230 007c ACFB03C3 		umull	ip, r3, ip, r3
 231              	.LVL27:
 232              		.loc 2 256 49 view .LVU78
 233              	.LBE27:
 234              	.LBE26:
 111:../Common/IQMath/ti/_IQNlog.c ****     }
 235              		.loc 1 111 19 view .LVU79
 236 0080 A0EB4300 		sub	r0, r0, r3, lsl #1
 237              	.LVL28:
ARM GAS  C:\Users\57308\AppData\Local\Temp\ccxDvd6L.s 			page 13


 111:../Common/IQMath/ti/_IQNlog.c ****     }
 238              		.loc 1 111 19 view .LVU80
 239 0084 F3E7     		b	.L1
 240              	.LVL29:
 241              	.L8:
 242              	.LCFI3:
 243              		.cfi_def_cfa_offset 0
 244              		.cfi_restore 4
 245              		.cfi_restore 5
  45:../Common/IQMath/ti/_IQNlog.c ****         }
 246              		.loc 1 45 20 view .LVU81
 247 0086 0020     		movs	r0, #0
 248              	.LVL30:
  45:../Common/IQMath/ti/_IQNlog.c ****         }
 249              		.loc 1 45 20 view .LVU82
 250 0088 7047     		bx	lr
 251              	.LVL31:
 252              	.L9:
  48:../Common/IQMath/ti/_IQNlog.c ****         }        
 253              		.loc 1 48 20 view .LVU83
 254 008a 4FF00040 		mov	r0, #-2147483648
 255              	.LVL32:
  48:../Common/IQMath/ti/_IQNlog.c ****         }        
 256              		.loc 1 48 20 view .LVU84
 257              	.LBE30:
 258              	.LBE33:
 259              		.loc 1 133 1 view .LVU85
 260 008e 7047     		bx	lr
 261              	.L15:
 262              		.align	2
 263              	.L14:
 264 0090 00000000 		.word	_IQNlog_min
 265 0094 00000000 		.word	_IQ30log_coeffs
 266 0098 FC0BB958 		.word	1488522236
 267              		.cfi_endproc
 268              	.LFE262:
 270              		.section	.text._IQ29log,"ax",%progbits
 271              		.align	1
 272              		.global	_IQ29log
 273              		.syntax unified
 274              		.thumb
 275              		.thumb_func
 277              	_IQ29log:
 278              	.LVL33:
 279              	.LFB263:
 134:../Common/IQMath/ti/_IQNlog.c **** /**
 135:../Common/IQMath/ti/_IQNlog.c ****  * @brief Computes the base-e logarithm of an IQ29 input.
 136:../Common/IQMath/ti/_IQNlog.c ****  *
 137:../Common/IQMath/ti/_IQNlog.c ****  * @param a                 IQ29 type input.
 138:../Common/IQMath/ti/_IQNlog.c ****  *
 139:../Common/IQMath/ti/_IQNlog.c ****  * @return                  IQ29 type result of exponential.
 140:../Common/IQMath/ti/_IQNlog.c ****  */
 141:../Common/IQMath/ti/_IQNlog.c **** int32_t _IQ29log(int32_t a)
 142:../Common/IQMath/ti/_IQNlog.c **** {
 280              		.loc 1 142 1 is_stmt 1 view -0
 281              		.cfi_startproc
 282              		@ args = 0, pretend = 0, frame = 0
ARM GAS  C:\Users\57308\AppData\Local\Temp\ccxDvd6L.s 			page 14


 283              		@ frame_needed = 0, uses_anonymous_args = 0
 284              		@ link register save eliminated.
 143:../Common/IQMath/ti/_IQNlog.c ****     return __IQNlog(a, _IQNlog_min[29-27], 29);
 285              		.loc 1 143 5 view .LVU87
 286              		.loc 1 143 35 is_stmt 0 view .LVU88
 287 0000 264B     		ldr	r3, .L29
 288 0002 9B68     		ldr	r3, [r3, #8]
 289              	.LVL34:
 290              	.LBB42:
 291              	.LBI42:
  28:../Common/IQMath/ti/_IQNlog.c **** {
 292              		.loc 1 28 30 is_stmt 1 view .LVU89
 293              	.LBB43:
  30:../Common/IQMath/ti/_IQNlog.c ****     int_fast16_t i16Exp;
 294              		.loc 1 30 5 view .LVU90
  31:../Common/IQMath/ti/_IQNlog.c ****     uint_fast16_t ui16IntState;
 295              		.loc 1 31 5 view .LVU91
  32:../Common/IQMath/ti/_IQNlog.c ****     uint_fast16_t ui16MPYState;
 296              		.loc 1 32 5 view .LVU92
  33:../Common/IQMath/ti/_IQNlog.c ****     int_fast32_t iqNResult;
 297              		.loc 1 33 5 view .LVU93
  34:../Common/IQMath/ti/_IQNlog.c ****     int_fast32_t iq30Result;
 298              		.loc 1 34 5 view .LVU94
  35:../Common/IQMath/ti/_IQNlog.c ****     uint_fast32_t uiq31Input;
 299              		.loc 1 35 5 view .LVU95
  36:../Common/IQMath/ti/_IQNlog.c ****     const uint_fast32_t *piq30Coeffs;
 300              		.loc 1 36 5 view .LVU96
  37:../Common/IQMath/ti/_IQNlog.c ****     
 301              		.loc 1 37 5 view .LVU97
  43:../Common/IQMath/ti/_IQNlog.c ****         if (iqNInput <= 0) {
 302              		.loc 1 43 5 view .LVU98
  44:../Common/IQMath/ti/_IQNlog.c ****             return 0;
 303              		.loc 1 44 9 view .LVU99
  44:../Common/IQMath/ti/_IQNlog.c ****             return 0;
 304              		.loc 1 44 12 is_stmt 0 view .LVU100
 305 0004 011E     		subs	r1, r0, #0
 306 0006 43DD     		ble	.L23
  47:../Common/IQMath/ti/_IQNlog.c ****             return INT32_MIN;
 307              		.loc 1 47 14 is_stmt 1 view .LVU101
  47:../Common/IQMath/ti/_IQNlog.c ****             return INT32_MIN;
 308              		.loc 1 47 17 is_stmt 0 view .LVU102
 309 0008 8B42     		cmp	r3, r1
 310 000a 43DA     		bge	.L24
 311              	.LBE43:
 312              	.LBE42:
 142:../Common/IQMath/ti/_IQNlog.c ****     return __IQNlog(a, _IQNlog_min[29-27], 29);
 313              		.loc 1 142 1 view .LVU103
 314 000c 30B4     		push	{r4, r5}
 315              	.LCFI4:
 316              		.cfi_def_cfa_offset 8
 317              		.cfi_offset 4, -8
 318              		.cfi_offset 5, -4
 319              	.LBB53:
 320              	.LBB50:
  62:../Common/IQMath/ti/_IQNlog.c ****     
 321              		.loc 1 62 5 is_stmt 1 view .LVU104
 322              	.LVL35:
ARM GAS  C:\Users\57308\AppData\Local\Temp\ccxDvd6L.s 			page 15


  69:../Common/IQMath/ti/_IQNlog.c ****     while (uiq31Input < iq31_twoThird) {
 323              		.loc 1 69 5 view .LVU105
  70:../Common/IQMath/ti/_IQNlog.c ****         uiq31Input <<= 1;
 324              		.loc 1 70 5 view .LVU106
  62:../Common/IQMath/ti/_IQNlog.c ****     
 325              		.loc 1 62 12 is_stmt 0 view .LVU107
 326 000e 4FF0020C 		mov	ip, #2
  70:../Common/IQMath/ti/_IQNlog.c ****         uiq31Input <<= 1;
 327              		.loc 1 70 11 view .LVU108
 328 0012 02E0     		b	.L18
 329              	.LVL36:
 330              	.L19:
  71:../Common/IQMath/ti/_IQNlog.c ****         i16Exp--;
 331              		.loc 1 71 9 is_stmt 1 view .LVU109
  71:../Common/IQMath/ti/_IQNlog.c ****         i16Exp--;
 332              		.loc 1 71 20 is_stmt 0 view .LVU110
 333 0014 4900     		lsls	r1, r1, #1
 334              	.LVL37:
  72:../Common/IQMath/ti/_IQNlog.c ****     }
 335              		.loc 1 72 9 is_stmt 1 view .LVU111
  72:../Common/IQMath/ti/_IQNlog.c ****     }
 336              		.loc 1 72 15 is_stmt 0 view .LVU112
 337 0016 0CF1FF3C 		add	ip, ip, #-1
 338              	.LVL38:
 339              	.L18:
  70:../Common/IQMath/ti/_IQNlog.c ****         uiq31Input <<= 1;
 340              		.loc 1 70 11 is_stmt 1 view .LVU113
 341 001a B1F1553F 		cmp	r1, #1431655765
 342 001e F9D3     		bcc	.L19
  81:../Common/IQMath/ti/_IQNlog.c ****     
 343              		.loc 1 81 5 view .LVU114
 344              	.LVL39:
  81:../Common/IQMath/ti/_IQNlog.c ****     
 345              		.loc 1 81 5 is_stmt 0 view .LVU115
 346              	.LBE50:
 347              	.LBE53:
  28:../Common/IQMath/ti/./support/RTS_support.h **** }
 348              		.loc 2 28 5 is_stmt 1 view .LVU116
 349              	.LBB54:
 350              	.LBB51:
  88:../Common/IQMath/ti/_IQNlog.c ****     iq30Result = *piq30Coeffs++;
 351              		.loc 1 88 5 view .LVU117
  89:../Common/IQMath/ti/_IQNlog.c ****     uiq31Input -= iq31_one;
 352              		.loc 1 89 5 view .LVU118
  89:../Common/IQMath/ti/_IQNlog.c ****     uiq31Input -= iq31_one;
 353              		.loc 1 89 18 is_stmt 0 view .LVU119
 354 0020 1F4C     		ldr	r4, .L29+4
 355 0022 54F8040B 		ldr	r0, [r4], #4
 356              	.LVL40:
  90:../Common/IQMath/ti/_IQNlog.c ****     
 357              		.loc 1 90 5 is_stmt 1 view .LVU120
  90:../Common/IQMath/ti/_IQNlog.c ****     
 358              		.loc 1 90 16 is_stmt 0 view .LVU121
 359 0026 01F10041 		add	r1, r1, #-2147483648
 360              	.LVL41:
  90:../Common/IQMath/ti/_IQNlog.c ****     
 361              		.loc 1 90 16 view .LVU122
ARM GAS  C:\Users\57308\AppData\Local\Temp\ccxDvd6L.s 			page 16


 362 002a 0131     		adds	r1, r1, #1
 363              	.LVL42:
  93:../Common/IQMath/ti/_IQNlog.c ****         iq30Result = __mpyf_l(uiq31Input, iq30Result);
 364              		.loc 1 93 5 is_stmt 1 view .LVU123
  93:../Common/IQMath/ti/_IQNlog.c ****         iq30Result = __mpyf_l(uiq31Input, iq30Result);
 365              		.loc 1 93 21 is_stmt 0 view .LVU124
 366 002c 0E25     		movs	r5, #14
  93:../Common/IQMath/ti/_IQNlog.c ****         iq30Result = __mpyf_l(uiq31Input, iq30Result);
 367              		.loc 1 93 5 view .LVU125
 368 002e 12E0     		b	.L20
 369              	.LVL43:
 370              	.L21:
  94:../Common/IQMath/ti/_IQNlog.c ****         iq30Result += *piq30Coeffs++;
 371              		.loc 1 94 9 is_stmt 1 view .LVU126
 372              	.LBB44:
 373              	.LBI44:
 233:../Common/IQMath/ti/./support/RTS_support.h **** {
 374              		.loc 2 233 28 view .LVU127
 375              	.LBB45:
 235:../Common/IQMath/ti/./support/RTS_support.h **** }
 376              		.loc 2 235 5 view .LVU128
 235:../Common/IQMath/ti/./support/RTS_support.h **** }
 377              		.loc 2 235 28 is_stmt 0 view .LVU129
 378 0030 CB17     		asrs	r3, r1, #31
 235:../Common/IQMath/ti/./support/RTS_support.h **** }
 379              		.loc 2 235 49 view .LVU130
 380 0032 C217     		asrs	r2, r0, #31
 235:../Common/IQMath/ti/./support/RTS_support.h **** }
 381              		.loc 2 235 47 view .LVU131
 382 0034 01FB02F2 		mul	r2, r1, r2
 383 0038 00FB0323 		mla	r3, r0, r3, r2
 384 003c A1FB0002 		umull	r0, r2, r1, r0
 385              	.LVL44:
 235:../Common/IQMath/ti/./support/RTS_support.h **** }
 386              		.loc 2 235 47 view .LVU132
 387 0040 1344     		add	r3, r3, r2
 235:../Common/IQMath/ti/./support/RTS_support.h **** }
 388              		.loc 2 235 69 view .LVU133
 389 0042 C00F     		lsrs	r0, r0, #31
 390 0044 40EA4300 		orr	r0, r0, r3, lsl #1
 391              	.LVL45:
 235:../Common/IQMath/ti/./support/RTS_support.h **** }
 392              		.loc 2 235 69 view .LVU134
 393              	.LBE45:
 394              	.LBE44:
  95:../Common/IQMath/ti/_IQNlog.c ****     }
 395              		.loc 1 95 9 is_stmt 1 view .LVU135
  95:../Common/IQMath/ti/_IQNlog.c ****     }
 396              		.loc 1 95 35 is_stmt 0 view .LVU136
 397 0048 2346     		mov	r3, r4
 398              	.LVL46:
  95:../Common/IQMath/ti/_IQNlog.c ****     }
 399              		.loc 1 95 23 view .LVU137
 400 004a 53F8042B 		ldr	r2, [r3], #4
 401              	.LVL47:
  95:../Common/IQMath/ti/_IQNlog.c ****     }
 402              		.loc 1 95 20 view .LVU138
ARM GAS  C:\Users\57308\AppData\Local\Temp\ccxDvd6L.s 			page 17


 403 004e 1044     		add	r0, r0, r2
 404              	.LVL48:
  93:../Common/IQMath/ti/_IQNlog.c ****         iq30Result = __mpyf_l(uiq31Input, iq30Result);
 405              		.loc 1 93 55 is_stmt 1 view .LVU139
  93:../Common/IQMath/ti/_IQNlog.c ****         iq30Result = __mpyf_l(uiq31Input, iq30Result);
 406              		.loc 1 93 65 is_stmt 0 view .LVU140
 407 0050 013D     		subs	r5, r5, #1
 408              	.LVL49:
  93:../Common/IQMath/ti/_IQNlog.c ****         iq30Result = __mpyf_l(uiq31Input, iq30Result);
 409              		.loc 1 93 65 view .LVU141
 410 0052 EDB2     		uxtb	r5, r5
 411              	.LVL50:
  95:../Common/IQMath/ti/_IQNlog.c ****     }
 412              		.loc 1 95 35 view .LVU142
 413 0054 1C46     		mov	r4, r3
 414              	.LVL51:
 415              	.L20:
  93:../Common/IQMath/ti/_IQNlog.c ****         iq30Result = __mpyf_l(uiq31Input, iq30Result);
 416              		.loc 1 93 39 is_stmt 1 view .LVU143
  93:../Common/IQMath/ti/_IQNlog.c ****         iq30Result = __mpyf_l(uiq31Input, iq30Result);
 417              		.loc 1 93 5 is_stmt 0 view .LVU144
 418 0056 002D     		cmp	r5, #0
 419 0058 EAD1     		bne	.L21
  99:../Common/IQMath/ti/_IQNlog.c ****     
 420              		.loc 1 99 5 is_stmt 1 view .LVU145
  99:../Common/IQMath/ti/_IQNlog.c ****     
 421              		.loc 1 99 15 is_stmt 0 view .LVU146
 422 005a 4010     		asrs	r0, r0, #1
 423              	.LVL52:
 107:../Common/IQMath/ti/_IQNlog.c ****         iqNResult += __mpyf_ul(iq31_ln2, ((int_fast32_t)i16Exp << q_value));
 424              		.loc 1 107 5 is_stmt 1 view .LVU147
 107:../Common/IQMath/ti/_IQNlog.c ****         iqNResult += __mpyf_ul(iq31_ln2, ((int_fast32_t)i16Exp << q_value));
 425              		.loc 1 107 8 is_stmt 0 view .LVU148
 426 005c BCF1000F 		cmp	ip, #0
 427 0060 0BDD     		ble	.L22
 108:../Common/IQMath/ti/_IQNlog.c ****     }
 428              		.loc 1 108 9 is_stmt 1 view .LVU149
 108:../Common/IQMath/ti/_IQNlog.c ****     }
 429              		.loc 1 108 64 is_stmt 0 view .LVU150
 430 0062 4FEA4C7C 		lsl	ip, ip, #29
 431              	.LVL53:
 432              	.LBB46:
 433              	.LBI46:
 254:../Common/IQMath/ti/./support/RTS_support.h **** {
 434              		.loc 2 254 29 is_stmt 1 view .LVU151
 435              	.LBB47:
 436              		.loc 2 256 5 view .LVU152
 437              		.loc 2 256 49 is_stmt 0 view .LVU153
 438 0066 0F4A     		ldr	r2, .L29+8
 439 0068 ACFB02C2 		umull	ip, r2, ip, r2
 440              	.LVL54:
 441              		.loc 2 256 72 view .LVU154
 442 006c 4FEADC73 		lsr	r3, ip, #31
 443 0070 43EA4203 		orr	r3, r3, r2, lsl #1
 444              	.LVL55:
 445              		.loc 2 256 72 view .LVU155
 446              	.LBE47:
ARM GAS  C:\Users\57308\AppData\Local\Temp\ccxDvd6L.s 			page 18


 447              	.LBE46:
 108:../Common/IQMath/ti/_IQNlog.c ****     }
 448              		.loc 1 108 19 view .LVU156
 449 0074 1844     		add	r0, r0, r3
 450              	.LVL56:
 451              	.L16:
 108:../Common/IQMath/ti/_IQNlog.c ****     }
 452              		.loc 1 108 19 view .LVU157
 453              	.LBE51:
 454              	.LBE54:
 144:../Common/IQMath/ti/_IQNlog.c **** }
 455              		.loc 1 144 1 view .LVU158
 456 0076 30BC     		pop	{r4, r5}
 457              	.LCFI5:
 458              		.cfi_remember_state
 459              		.cfi_restore 5
 460              		.cfi_restore 4
 461              		.cfi_def_cfa_offset 0
 462              	.LVL57:
 463              		.loc 1 144 1 view .LVU159
 464 0078 7047     		bx	lr
 465              	.LVL58:
 466              	.L22:
 467              	.LCFI6:
 468              		.cfi_restore_state
 469              	.LBB55:
 470              	.LBB52:
 111:../Common/IQMath/ti/_IQNlog.c ****     }
 471              		.loc 1 111 9 is_stmt 1 view .LVU160
 111:../Common/IQMath/ti/_IQNlog.c ****     }
 472              		.loc 1 111 59 is_stmt 0 view .LVU161
 473 007a CCF10003 		rsb	r3, ip, #0
 111:../Common/IQMath/ti/_IQNlog.c ****     }
 474              		.loc 1 111 22 view .LVU162
 475 007e 5B07     		lsls	r3, r3, #29
 476              	.LVL59:
 477              	.LBB48:
 478              	.LBI48:
 254:../Common/IQMath/ti/./support/RTS_support.h **** {
 479              		.loc 2 254 29 is_stmt 1 view .LVU163
 480              	.LBB49:
 481              		.loc 2 256 5 view .LVU164
 482              		.loc 2 256 49 is_stmt 0 view .LVU165
 483 0080 084A     		ldr	r2, .L29+8
 484 0082 A3FB0232 		umull	r3, r2, r3, r2
 485              	.LVL60:
 486              		.loc 2 256 72 view .LVU166
 487 0086 DB0F     		lsrs	r3, r3, #31
 488 0088 43EA4203 		orr	r3, r3, r2, lsl #1
 489              	.LVL61:
 490              		.loc 2 256 72 view .LVU167
 491              	.LBE49:
 492              	.LBE48:
 111:../Common/IQMath/ti/_IQNlog.c ****     }
 493              		.loc 1 111 19 view .LVU168
 494 008c C01A     		subs	r0, r0, r3
 495              	.LVL62:
ARM GAS  C:\Users\57308\AppData\Local\Temp\ccxDvd6L.s 			page 19


 111:../Common/IQMath/ti/_IQNlog.c ****     }
 496              		.loc 1 111 19 view .LVU169
 497 008e F2E7     		b	.L16
 498              	.LVL63:
 499              	.L23:
 500              	.LCFI7:
 501              		.cfi_def_cfa_offset 0
 502              		.cfi_restore 4
 503              		.cfi_restore 5
  45:../Common/IQMath/ti/_IQNlog.c ****         }
 504              		.loc 1 45 20 view .LVU170
 505 0090 0020     		movs	r0, #0
 506              	.LVL64:
  45:../Common/IQMath/ti/_IQNlog.c ****         }
 507              		.loc 1 45 20 view .LVU171
 508 0092 7047     		bx	lr
 509              	.LVL65:
 510              	.L24:
  48:../Common/IQMath/ti/_IQNlog.c ****         }        
 511              		.loc 1 48 20 view .LVU172
 512 0094 4FF00040 		mov	r0, #-2147483648
 513              	.LVL66:
  48:../Common/IQMath/ti/_IQNlog.c ****         }        
 514              		.loc 1 48 20 view .LVU173
 515              	.LBE52:
 516              	.LBE55:
 517              		.loc 1 144 1 view .LVU174
 518 0098 7047     		bx	lr
 519              	.L30:
 520 009a 00BF     		.align	2
 521              	.L29:
 522 009c 00000000 		.word	_IQNlog_min
 523 00a0 00000000 		.word	_IQ30log_coeffs
 524 00a4 FC0BB958 		.word	1488522236
 525              		.cfi_endproc
 526              	.LFE263:
 528              		.section	.text._IQ28log,"ax",%progbits
 529              		.align	1
 530              		.global	_IQ28log
 531              		.syntax unified
 532              		.thumb
 533              		.thumb_func
 535              	_IQ28log:
 536              	.LVL67:
 537              	.LFB264:
 145:../Common/IQMath/ti/_IQNlog.c **** /**
 146:../Common/IQMath/ti/_IQNlog.c ****  * @brief Computes the base-e logarithm of an IQ28 input.
 147:../Common/IQMath/ti/_IQNlog.c ****  *
 148:../Common/IQMath/ti/_IQNlog.c ****  * @param a                 IQ28 type input.
 149:../Common/IQMath/ti/_IQNlog.c ****  *
 150:../Common/IQMath/ti/_IQNlog.c ****  * @return                  IQ28 type result of exponential.
 151:../Common/IQMath/ti/_IQNlog.c ****  */
 152:../Common/IQMath/ti/_IQNlog.c **** int32_t _IQ28log(int32_t a)
 153:../Common/IQMath/ti/_IQNlog.c **** {
 538              		.loc 1 153 1 is_stmt 1 view -0
 539              		.cfi_startproc
 540              		@ args = 0, pretend = 0, frame = 0
ARM GAS  C:\Users\57308\AppData\Local\Temp\ccxDvd6L.s 			page 20


 541              		@ frame_needed = 0, uses_anonymous_args = 0
 542              		@ link register save eliminated.
 154:../Common/IQMath/ti/_IQNlog.c ****     return __IQNlog(a, _IQNlog_min[28-27], 28);
 543              		.loc 1 154 5 view .LVU176
 544              		.loc 1 154 35 is_stmt 0 view .LVU177
 545 0000 264B     		ldr	r3, .L44
 546 0002 5B68     		ldr	r3, [r3, #4]
 547              	.LVL68:
 548              	.LBB64:
 549              	.LBI64:
  28:../Common/IQMath/ti/_IQNlog.c **** {
 550              		.loc 1 28 30 is_stmt 1 view .LVU178
 551              	.LBB65:
  30:../Common/IQMath/ti/_IQNlog.c ****     int_fast16_t i16Exp;
 552              		.loc 1 30 5 view .LVU179
  31:../Common/IQMath/ti/_IQNlog.c ****     uint_fast16_t ui16IntState;
 553              		.loc 1 31 5 view .LVU180
  32:../Common/IQMath/ti/_IQNlog.c ****     uint_fast16_t ui16MPYState;
 554              		.loc 1 32 5 view .LVU181
  33:../Common/IQMath/ti/_IQNlog.c ****     int_fast32_t iqNResult;
 555              		.loc 1 33 5 view .LVU182
  34:../Common/IQMath/ti/_IQNlog.c ****     int_fast32_t iq30Result;
 556              		.loc 1 34 5 view .LVU183
  35:../Common/IQMath/ti/_IQNlog.c ****     uint_fast32_t uiq31Input;
 557              		.loc 1 35 5 view .LVU184
  36:../Common/IQMath/ti/_IQNlog.c ****     const uint_fast32_t *piq30Coeffs;
 558              		.loc 1 36 5 view .LVU185
  37:../Common/IQMath/ti/_IQNlog.c ****     
 559              		.loc 1 37 5 view .LVU186
  43:../Common/IQMath/ti/_IQNlog.c ****         if (iqNInput <= 0) {
 560              		.loc 1 43 5 view .LVU187
  44:../Common/IQMath/ti/_IQNlog.c ****             return 0;
 561              		.loc 1 44 9 view .LVU188
  44:../Common/IQMath/ti/_IQNlog.c ****             return 0;
 562              		.loc 1 44 12 is_stmt 0 view .LVU189
 563 0004 011E     		subs	r1, r0, #0
 564 0006 43DD     		ble	.L38
  47:../Common/IQMath/ti/_IQNlog.c ****             return INT32_MIN;
 565              		.loc 1 47 14 is_stmt 1 view .LVU190
  47:../Common/IQMath/ti/_IQNlog.c ****             return INT32_MIN;
 566              		.loc 1 47 17 is_stmt 0 view .LVU191
 567 0008 8B42     		cmp	r3, r1
 568 000a 43DA     		bge	.L39
 569              	.LBE65:
 570              	.LBE64:
 153:../Common/IQMath/ti/_IQNlog.c ****     return __IQNlog(a, _IQNlog_min[28-27], 28);
 571              		.loc 1 153 1 view .LVU192
 572 000c 30B4     		push	{r4, r5}
 573              	.LCFI8:
 574              		.cfi_def_cfa_offset 8
 575              		.cfi_offset 4, -8
 576              		.cfi_offset 5, -4
 577              	.LBB75:
 578              	.LBB72:
  62:../Common/IQMath/ti/_IQNlog.c ****     
 579              		.loc 1 62 5 is_stmt 1 view .LVU193
 580              	.LVL69:
ARM GAS  C:\Users\57308\AppData\Local\Temp\ccxDvd6L.s 			page 21


  69:../Common/IQMath/ti/_IQNlog.c ****     while (uiq31Input < iq31_twoThird) {
 581              		.loc 1 69 5 view .LVU194
  70:../Common/IQMath/ti/_IQNlog.c ****         uiq31Input <<= 1;
 582              		.loc 1 70 5 view .LVU195
  62:../Common/IQMath/ti/_IQNlog.c ****     
 583              		.loc 1 62 12 is_stmt 0 view .LVU196
 584 000e 4FF0030C 		mov	ip, #3
  70:../Common/IQMath/ti/_IQNlog.c ****         uiq31Input <<= 1;
 585              		.loc 1 70 11 view .LVU197
 586 0012 02E0     		b	.L33
 587              	.LVL70:
 588              	.L34:
  71:../Common/IQMath/ti/_IQNlog.c ****         i16Exp--;
 589              		.loc 1 71 9 is_stmt 1 view .LVU198
  71:../Common/IQMath/ti/_IQNlog.c ****         i16Exp--;
 590              		.loc 1 71 20 is_stmt 0 view .LVU199
 591 0014 4900     		lsls	r1, r1, #1
 592              	.LVL71:
  72:../Common/IQMath/ti/_IQNlog.c ****     }
 593              		.loc 1 72 9 is_stmt 1 view .LVU200
  72:../Common/IQMath/ti/_IQNlog.c ****     }
 594              		.loc 1 72 15 is_stmt 0 view .LVU201
 595 0016 0CF1FF3C 		add	ip, ip, #-1
 596              	.LVL72:
 597              	.L33:
  70:../Common/IQMath/ti/_IQNlog.c ****         uiq31Input <<= 1;
 598              		.loc 1 70 11 is_stmt 1 view .LVU202
 599 001a B1F1553F 		cmp	r1, #1431655765
 600 001e F9D3     		bcc	.L34
  81:../Common/IQMath/ti/_IQNlog.c ****     
 601              		.loc 1 81 5 view .LVU203
 602              	.LVL73:
  81:../Common/IQMath/ti/_IQNlog.c ****     
 603              		.loc 1 81 5 is_stmt 0 view .LVU204
 604              	.LBE72:
 605              	.LBE75:
  28:../Common/IQMath/ti/./support/RTS_support.h **** }
 606              		.loc 2 28 5 is_stmt 1 view .LVU205
 607              	.LBB76:
 608              	.LBB73:
  88:../Common/IQMath/ti/_IQNlog.c ****     iq30Result = *piq30Coeffs++;
 609              		.loc 1 88 5 view .LVU206
  89:../Common/IQMath/ti/_IQNlog.c ****     uiq31Input -= iq31_one;
 610              		.loc 1 89 5 view .LVU207
  89:../Common/IQMath/ti/_IQNlog.c ****     uiq31Input -= iq31_one;
 611              		.loc 1 89 18 is_stmt 0 view .LVU208
 612 0020 1F4C     		ldr	r4, .L44+4
 613 0022 54F8040B 		ldr	r0, [r4], #4
 614              	.LVL74:
  90:../Common/IQMath/ti/_IQNlog.c ****     
 615              		.loc 1 90 5 is_stmt 1 view .LVU209
  90:../Common/IQMath/ti/_IQNlog.c ****     
 616              		.loc 1 90 16 is_stmt 0 view .LVU210
 617 0026 01F10041 		add	r1, r1, #-2147483648
 618              	.LVL75:
  90:../Common/IQMath/ti/_IQNlog.c ****     
 619              		.loc 1 90 16 view .LVU211
ARM GAS  C:\Users\57308\AppData\Local\Temp\ccxDvd6L.s 			page 22


 620 002a 0131     		adds	r1, r1, #1
 621              	.LVL76:
  93:../Common/IQMath/ti/_IQNlog.c ****         iq30Result = __mpyf_l(uiq31Input, iq30Result);
 622              		.loc 1 93 5 is_stmt 1 view .LVU212
  93:../Common/IQMath/ti/_IQNlog.c ****         iq30Result = __mpyf_l(uiq31Input, iq30Result);
 623              		.loc 1 93 21 is_stmt 0 view .LVU213
 624 002c 0E25     		movs	r5, #14
  93:../Common/IQMath/ti/_IQNlog.c ****         iq30Result = __mpyf_l(uiq31Input, iq30Result);
 625              		.loc 1 93 5 view .LVU214
 626 002e 12E0     		b	.L35
 627              	.LVL77:
 628              	.L36:
  94:../Common/IQMath/ti/_IQNlog.c ****         iq30Result += *piq30Coeffs++;
 629              		.loc 1 94 9 is_stmt 1 view .LVU215
 630              	.LBB66:
 631              	.LBI66:
 233:../Common/IQMath/ti/./support/RTS_support.h **** {
 632              		.loc 2 233 28 view .LVU216
 633              	.LBB67:
 235:../Common/IQMath/ti/./support/RTS_support.h **** }
 634              		.loc 2 235 5 view .LVU217
 235:../Common/IQMath/ti/./support/RTS_support.h **** }
 635              		.loc 2 235 28 is_stmt 0 view .LVU218
 636 0030 CB17     		asrs	r3, r1, #31
 235:../Common/IQMath/ti/./support/RTS_support.h **** }
 637              		.loc 2 235 49 view .LVU219
 638 0032 C217     		asrs	r2, r0, #31
 235:../Common/IQMath/ti/./support/RTS_support.h **** }
 639              		.loc 2 235 47 view .LVU220
 640 0034 01FB02F2 		mul	r2, r1, r2
 641 0038 00FB0323 		mla	r3, r0, r3, r2
 642 003c A1FB0002 		umull	r0, r2, r1, r0
 643              	.LVL78:
 235:../Common/IQMath/ti/./support/RTS_support.h **** }
 644              		.loc 2 235 47 view .LVU221
 645 0040 1344     		add	r3, r3, r2
 235:../Common/IQMath/ti/./support/RTS_support.h **** }
 646              		.loc 2 235 69 view .LVU222
 647 0042 C00F     		lsrs	r0, r0, #31
 648 0044 40EA4300 		orr	r0, r0, r3, lsl #1
 649              	.LVL79:
 235:../Common/IQMath/ti/./support/RTS_support.h **** }
 650              		.loc 2 235 69 view .LVU223
 651              	.LBE67:
 652              	.LBE66:
  95:../Common/IQMath/ti/_IQNlog.c ****     }
 653              		.loc 1 95 9 is_stmt 1 view .LVU224
  95:../Common/IQMath/ti/_IQNlog.c ****     }
 654              		.loc 1 95 35 is_stmt 0 view .LVU225
 655 0048 2346     		mov	r3, r4
 656              	.LVL80:
  95:../Common/IQMath/ti/_IQNlog.c ****     }
 657              		.loc 1 95 23 view .LVU226
 658 004a 53F8042B 		ldr	r2, [r3], #4
 659              	.LVL81:
  95:../Common/IQMath/ti/_IQNlog.c ****     }
 660              		.loc 1 95 20 view .LVU227
ARM GAS  C:\Users\57308\AppData\Local\Temp\ccxDvd6L.s 			page 23


 661 004e 1044     		add	r0, r0, r2
 662              	.LVL82:
  93:../Common/IQMath/ti/_IQNlog.c ****         iq30Result = __mpyf_l(uiq31Input, iq30Result);
 663              		.loc 1 93 55 is_stmt 1 view .LVU228
  93:../Common/IQMath/ti/_IQNlog.c ****         iq30Result = __mpyf_l(uiq31Input, iq30Result);
 664              		.loc 1 93 65 is_stmt 0 view .LVU229
 665 0050 013D     		subs	r5, r5, #1
 666              	.LVL83:
  93:../Common/IQMath/ti/_IQNlog.c ****         iq30Result = __mpyf_l(uiq31Input, iq30Result);
 667              		.loc 1 93 65 view .LVU230
 668 0052 EDB2     		uxtb	r5, r5
 669              	.LVL84:
  95:../Common/IQMath/ti/_IQNlog.c ****     }
 670              		.loc 1 95 35 view .LVU231
 671 0054 1C46     		mov	r4, r3
 672              	.LVL85:
 673              	.L35:
  93:../Common/IQMath/ti/_IQNlog.c ****         iq30Result = __mpyf_l(uiq31Input, iq30Result);
 674              		.loc 1 93 39 is_stmt 1 view .LVU232
  93:../Common/IQMath/ti/_IQNlog.c ****         iq30Result = __mpyf_l(uiq31Input, iq30Result);
 675              		.loc 1 93 5 is_stmt 0 view .LVU233
 676 0056 002D     		cmp	r5, #0
 677 0058 EAD1     		bne	.L36
  99:../Common/IQMath/ti/_IQNlog.c ****     
 678              		.loc 1 99 5 is_stmt 1 view .LVU234
  99:../Common/IQMath/ti/_IQNlog.c ****     
 679              		.loc 1 99 15 is_stmt 0 view .LVU235
 680 005a 8010     		asrs	r0, r0, #2
 681              	.LVL86:
 107:../Common/IQMath/ti/_IQNlog.c ****         iqNResult += __mpyf_ul(iq31_ln2, ((int_fast32_t)i16Exp << q_value));
 682              		.loc 1 107 5 is_stmt 1 view .LVU236
 107:../Common/IQMath/ti/_IQNlog.c ****         iqNResult += __mpyf_ul(iq31_ln2, ((int_fast32_t)i16Exp << q_value));
 683              		.loc 1 107 8 is_stmt 0 view .LVU237
 684 005c BCF1000F 		cmp	ip, #0
 685 0060 0BDD     		ble	.L37
 108:../Common/IQMath/ti/_IQNlog.c ****     }
 686              		.loc 1 108 9 is_stmt 1 view .LVU238
 108:../Common/IQMath/ti/_IQNlog.c ****     }
 687              		.loc 1 108 64 is_stmt 0 view .LVU239
 688 0062 4FEA0C7C 		lsl	ip, ip, #28
 689              	.LVL87:
 690              	.LBB68:
 691              	.LBI68:
 254:../Common/IQMath/ti/./support/RTS_support.h **** {
 692              		.loc 2 254 29 is_stmt 1 view .LVU240
 693              	.LBB69:
 694              		.loc 2 256 5 view .LVU241
 695              		.loc 2 256 49 is_stmt 0 view .LVU242
 696 0066 0F4A     		ldr	r2, .L44+8
 697 0068 ACFB02C2 		umull	ip, r2, ip, r2
 698              	.LVL88:
 699              		.loc 2 256 72 view .LVU243
 700 006c 4FEADC73 		lsr	r3, ip, #31
 701 0070 43EA4203 		orr	r3, r3, r2, lsl #1
 702              	.LVL89:
 703              		.loc 2 256 72 view .LVU244
 704              	.LBE69:
ARM GAS  C:\Users\57308\AppData\Local\Temp\ccxDvd6L.s 			page 24


 705              	.LBE68:
 108:../Common/IQMath/ti/_IQNlog.c ****     }
 706              		.loc 1 108 19 view .LVU245
 707 0074 1844     		add	r0, r0, r3
 708              	.LVL90:
 709              	.L31:
 108:../Common/IQMath/ti/_IQNlog.c ****     }
 710              		.loc 1 108 19 view .LVU246
 711              	.LBE73:
 712              	.LBE76:
 155:../Common/IQMath/ti/_IQNlog.c **** }
 713              		.loc 1 155 1 view .LVU247
 714 0076 30BC     		pop	{r4, r5}
 715              	.LCFI9:
 716              		.cfi_remember_state
 717              		.cfi_restore 5
 718              		.cfi_restore 4
 719              		.cfi_def_cfa_offset 0
 720              	.LVL91:
 721              		.loc 1 155 1 view .LVU248
 722 0078 7047     		bx	lr
 723              	.LVL92:
 724              	.L37:
 725              	.LCFI10:
 726              		.cfi_restore_state
 727              	.LBB77:
 728              	.LBB74:
 111:../Common/IQMath/ti/_IQNlog.c ****     }
 729              		.loc 1 111 9 is_stmt 1 view .LVU249
 111:../Common/IQMath/ti/_IQNlog.c ****     }
 730              		.loc 1 111 59 is_stmt 0 view .LVU250
 731 007a CCF10003 		rsb	r3, ip, #0
 111:../Common/IQMath/ti/_IQNlog.c ****     }
 732              		.loc 1 111 22 view .LVU251
 733 007e 1B07     		lsls	r3, r3, #28
 734              	.LVL93:
 735              	.LBB70:
 736              	.LBI70:
 254:../Common/IQMath/ti/./support/RTS_support.h **** {
 737              		.loc 2 254 29 is_stmt 1 view .LVU252
 738              	.LBB71:
 739              		.loc 2 256 5 view .LVU253
 740              		.loc 2 256 49 is_stmt 0 view .LVU254
 741 0080 084A     		ldr	r2, .L44+8
 742 0082 A3FB0232 		umull	r3, r2, r3, r2
 743              	.LVL94:
 744              		.loc 2 256 72 view .LVU255
 745 0086 DB0F     		lsrs	r3, r3, #31
 746 0088 43EA4203 		orr	r3, r3, r2, lsl #1
 747              	.LVL95:
 748              		.loc 2 256 72 view .LVU256
 749              	.LBE71:
 750              	.LBE70:
 111:../Common/IQMath/ti/_IQNlog.c ****     }
 751              		.loc 1 111 19 view .LVU257
 752 008c C01A     		subs	r0, r0, r3
 753              	.LVL96:
ARM GAS  C:\Users\57308\AppData\Local\Temp\ccxDvd6L.s 			page 25


 111:../Common/IQMath/ti/_IQNlog.c ****     }
 754              		.loc 1 111 19 view .LVU258
 755 008e F2E7     		b	.L31
 756              	.LVL97:
 757              	.L38:
 758              	.LCFI11:
 759              		.cfi_def_cfa_offset 0
 760              		.cfi_restore 4
 761              		.cfi_restore 5
  45:../Common/IQMath/ti/_IQNlog.c ****         }
 762              		.loc 1 45 20 view .LVU259
 763 0090 0020     		movs	r0, #0
 764              	.LVL98:
  45:../Common/IQMath/ti/_IQNlog.c ****         }
 765              		.loc 1 45 20 view .LVU260
 766 0092 7047     		bx	lr
 767              	.LVL99:
 768              	.L39:
  48:../Common/IQMath/ti/_IQNlog.c ****         }        
 769              		.loc 1 48 20 view .LVU261
 770 0094 4FF00040 		mov	r0, #-2147483648
 771              	.LVL100:
  48:../Common/IQMath/ti/_IQNlog.c ****         }        
 772              		.loc 1 48 20 view .LVU262
 773              	.LBE74:
 774              	.LBE77:
 775              		.loc 1 155 1 view .LVU263
 776 0098 7047     		bx	lr
 777              	.L45:
 778 009a 00BF     		.align	2
 779              	.L44:
 780 009c 00000000 		.word	_IQNlog_min
 781 00a0 00000000 		.word	_IQ30log_coeffs
 782 00a4 FC0BB958 		.word	1488522236
 783              		.cfi_endproc
 784              	.LFE264:
 786              		.section	.text._IQ27log,"ax",%progbits
 787              		.align	1
 788              		.global	_IQ27log
 789              		.syntax unified
 790              		.thumb
 791              		.thumb_func
 793              	_IQ27log:
 794              	.LVL101:
 795              	.LFB265:
 156:../Common/IQMath/ti/_IQNlog.c **** /**
 157:../Common/IQMath/ti/_IQNlog.c ****  * @brief Computes the base-e logarithm of an IQ27 input.
 158:../Common/IQMath/ti/_IQNlog.c ****  *
 159:../Common/IQMath/ti/_IQNlog.c ****  * @param a                 IQ27 type input.
 160:../Common/IQMath/ti/_IQNlog.c ****  *
 161:../Common/IQMath/ti/_IQNlog.c ****  * @return                  IQ27 type result of exponential.
 162:../Common/IQMath/ti/_IQNlog.c ****  */
 163:../Common/IQMath/ti/_IQNlog.c **** int32_t _IQ27log(int32_t a)
 164:../Common/IQMath/ti/_IQNlog.c **** {
 796              		.loc 1 164 1 is_stmt 1 view -0
 797              		.cfi_startproc
 798              		@ args = 0, pretend = 0, frame = 0
ARM GAS  C:\Users\57308\AppData\Local\Temp\ccxDvd6L.s 			page 26


 799              		@ frame_needed = 0, uses_anonymous_args = 0
 800              		@ link register save eliminated.
 165:../Common/IQMath/ti/_IQNlog.c ****     return __IQNlog(a, _IQNlog_min[27-27], 27);
 801              		.loc 1 165 5 view .LVU265
 802              		.loc 1 165 35 is_stmt 0 view .LVU266
 803 0000 264B     		ldr	r3, .L59
 804 0002 1B68     		ldr	r3, [r3]
 805              	.LVL102:
 806              	.LBB86:
 807              	.LBI86:
  28:../Common/IQMath/ti/_IQNlog.c **** {
 808              		.loc 1 28 30 is_stmt 1 view .LVU267
 809              	.LBB87:
  30:../Common/IQMath/ti/_IQNlog.c ****     int_fast16_t i16Exp;
 810              		.loc 1 30 5 view .LVU268
  31:../Common/IQMath/ti/_IQNlog.c ****     uint_fast16_t ui16IntState;
 811              		.loc 1 31 5 view .LVU269
  32:../Common/IQMath/ti/_IQNlog.c ****     uint_fast16_t ui16MPYState;
 812              		.loc 1 32 5 view .LVU270
  33:../Common/IQMath/ti/_IQNlog.c ****     int_fast32_t iqNResult;
 813              		.loc 1 33 5 view .LVU271
  34:../Common/IQMath/ti/_IQNlog.c ****     int_fast32_t iq30Result;
 814              		.loc 1 34 5 view .LVU272
  35:../Common/IQMath/ti/_IQNlog.c ****     uint_fast32_t uiq31Input;
 815              		.loc 1 35 5 view .LVU273
  36:../Common/IQMath/ti/_IQNlog.c ****     const uint_fast32_t *piq30Coeffs;
 816              		.loc 1 36 5 view .LVU274
  37:../Common/IQMath/ti/_IQNlog.c ****     
 817              		.loc 1 37 5 view .LVU275
  43:../Common/IQMath/ti/_IQNlog.c ****         if (iqNInput <= 0) {
 818              		.loc 1 43 5 view .LVU276
  44:../Common/IQMath/ti/_IQNlog.c ****             return 0;
 819              		.loc 1 44 9 view .LVU277
  44:../Common/IQMath/ti/_IQNlog.c ****             return 0;
 820              		.loc 1 44 12 is_stmt 0 view .LVU278
 821 0004 011E     		subs	r1, r0, #0
 822 0006 43DD     		ble	.L53
  47:../Common/IQMath/ti/_IQNlog.c ****             return INT32_MIN;
 823              		.loc 1 47 14 is_stmt 1 view .LVU279
  47:../Common/IQMath/ti/_IQNlog.c ****             return INT32_MIN;
 824              		.loc 1 47 17 is_stmt 0 view .LVU280
 825 0008 8B42     		cmp	r3, r1
 826 000a 43DA     		bge	.L54
 827              	.LBE87:
 828              	.LBE86:
 164:../Common/IQMath/ti/_IQNlog.c ****     return __IQNlog(a, _IQNlog_min[27-27], 27);
 829              		.loc 1 164 1 view .LVU281
 830 000c 30B4     		push	{r4, r5}
 831              	.LCFI12:
 832              		.cfi_def_cfa_offset 8
 833              		.cfi_offset 4, -8
 834              		.cfi_offset 5, -4
 835              	.LBB97:
 836              	.LBB94:
  62:../Common/IQMath/ti/_IQNlog.c ****     
 837              		.loc 1 62 5 is_stmt 1 view .LVU282
 838              	.LVL103:
ARM GAS  C:\Users\57308\AppData\Local\Temp\ccxDvd6L.s 			page 27


  69:../Common/IQMath/ti/_IQNlog.c ****     while (uiq31Input < iq31_twoThird) {
 839              		.loc 1 69 5 view .LVU283
  70:../Common/IQMath/ti/_IQNlog.c ****         uiq31Input <<= 1;
 840              		.loc 1 70 5 view .LVU284
  62:../Common/IQMath/ti/_IQNlog.c ****     
 841              		.loc 1 62 12 is_stmt 0 view .LVU285
 842 000e 4FF0040C 		mov	ip, #4
  70:../Common/IQMath/ti/_IQNlog.c ****         uiq31Input <<= 1;
 843              		.loc 1 70 11 view .LVU286
 844 0012 02E0     		b	.L48
 845              	.LVL104:
 846              	.L49:
  71:../Common/IQMath/ti/_IQNlog.c ****         i16Exp--;
 847              		.loc 1 71 9 is_stmt 1 view .LVU287
  71:../Common/IQMath/ti/_IQNlog.c ****         i16Exp--;
 848              		.loc 1 71 20 is_stmt 0 view .LVU288
 849 0014 4900     		lsls	r1, r1, #1
 850              	.LVL105:
  72:../Common/IQMath/ti/_IQNlog.c ****     }
 851              		.loc 1 72 9 is_stmt 1 view .LVU289
  72:../Common/IQMath/ti/_IQNlog.c ****     }
 852              		.loc 1 72 15 is_stmt 0 view .LVU290
 853 0016 0CF1FF3C 		add	ip, ip, #-1
 854              	.LVL106:
 855              	.L48:
  70:../Common/IQMath/ti/_IQNlog.c ****         uiq31Input <<= 1;
 856              		.loc 1 70 11 is_stmt 1 view .LVU291
 857 001a B1F1553F 		cmp	r1, #1431655765
 858 001e F9D3     		bcc	.L49
  81:../Common/IQMath/ti/_IQNlog.c ****     
 859              		.loc 1 81 5 view .LVU292
 860              	.LVL107:
  81:../Common/IQMath/ti/_IQNlog.c ****     
 861              		.loc 1 81 5 is_stmt 0 view .LVU293
 862              	.LBE94:
 863              	.LBE97:
  28:../Common/IQMath/ti/./support/RTS_support.h **** }
 864              		.loc 2 28 5 is_stmt 1 view .LVU294
 865              	.LBB98:
 866              	.LBB95:
  88:../Common/IQMath/ti/_IQNlog.c ****     iq30Result = *piq30Coeffs++;
 867              		.loc 1 88 5 view .LVU295
  89:../Common/IQMath/ti/_IQNlog.c ****     uiq31Input -= iq31_one;
 868              		.loc 1 89 5 view .LVU296
  89:../Common/IQMath/ti/_IQNlog.c ****     uiq31Input -= iq31_one;
 869              		.loc 1 89 18 is_stmt 0 view .LVU297
 870 0020 1F4C     		ldr	r4, .L59+4
 871 0022 54F8040B 		ldr	r0, [r4], #4
 872              	.LVL108:
  90:../Common/IQMath/ti/_IQNlog.c ****     
 873              		.loc 1 90 5 is_stmt 1 view .LVU298
  90:../Common/IQMath/ti/_IQNlog.c ****     
 874              		.loc 1 90 16 is_stmt 0 view .LVU299
 875 0026 01F10041 		add	r1, r1, #-2147483648
 876              	.LVL109:
  90:../Common/IQMath/ti/_IQNlog.c ****     
 877              		.loc 1 90 16 view .LVU300
ARM GAS  C:\Users\57308\AppData\Local\Temp\ccxDvd6L.s 			page 28


 878 002a 0131     		adds	r1, r1, #1
 879              	.LVL110:
  93:../Common/IQMath/ti/_IQNlog.c ****         iq30Result = __mpyf_l(uiq31Input, iq30Result);
 880              		.loc 1 93 5 is_stmt 1 view .LVU301
  93:../Common/IQMath/ti/_IQNlog.c ****         iq30Result = __mpyf_l(uiq31Input, iq30Result);
 881              		.loc 1 93 21 is_stmt 0 view .LVU302
 882 002c 0E25     		movs	r5, #14
  93:../Common/IQMath/ti/_IQNlog.c ****         iq30Result = __mpyf_l(uiq31Input, iq30Result);
 883              		.loc 1 93 5 view .LVU303
 884 002e 12E0     		b	.L50
 885              	.LVL111:
 886              	.L51:
  94:../Common/IQMath/ti/_IQNlog.c ****         iq30Result += *piq30Coeffs++;
 887              		.loc 1 94 9 is_stmt 1 view .LVU304
 888              	.LBB88:
 889              	.LBI88:
 233:../Common/IQMath/ti/./support/RTS_support.h **** {
 890              		.loc 2 233 28 view .LVU305
 891              	.LBB89:
 235:../Common/IQMath/ti/./support/RTS_support.h **** }
 892              		.loc 2 235 5 view .LVU306
 235:../Common/IQMath/ti/./support/RTS_support.h **** }
 893              		.loc 2 235 28 is_stmt 0 view .LVU307
 894 0030 CB17     		asrs	r3, r1, #31
 235:../Common/IQMath/ti/./support/RTS_support.h **** }
 895              		.loc 2 235 49 view .LVU308
 896 0032 C217     		asrs	r2, r0, #31
 235:../Common/IQMath/ti/./support/RTS_support.h **** }
 897              		.loc 2 235 47 view .LVU309
 898 0034 01FB02F2 		mul	r2, r1, r2
 899 0038 00FB0323 		mla	r3, r0, r3, r2
 900 003c A1FB0002 		umull	r0, r2, r1, r0
 901              	.LVL112:
 235:../Common/IQMath/ti/./support/RTS_support.h **** }
 902              		.loc 2 235 47 view .LVU310
 903 0040 1344     		add	r3, r3, r2
 235:../Common/IQMath/ti/./support/RTS_support.h **** }
 904              		.loc 2 235 69 view .LVU311
 905 0042 C00F     		lsrs	r0, r0, #31
 906 0044 40EA4300 		orr	r0, r0, r3, lsl #1
 907              	.LVL113:
 235:../Common/IQMath/ti/./support/RTS_support.h **** }
 908              		.loc 2 235 69 view .LVU312
 909              	.LBE89:
 910              	.LBE88:
  95:../Common/IQMath/ti/_IQNlog.c ****     }
 911              		.loc 1 95 9 is_stmt 1 view .LVU313
  95:../Common/IQMath/ti/_IQNlog.c ****     }
 912              		.loc 1 95 35 is_stmt 0 view .LVU314
 913 0048 2346     		mov	r3, r4
 914              	.LVL114:
  95:../Common/IQMath/ti/_IQNlog.c ****     }
 915              		.loc 1 95 23 view .LVU315
 916 004a 53F8042B 		ldr	r2, [r3], #4
 917              	.LVL115:
  95:../Common/IQMath/ti/_IQNlog.c ****     }
 918              		.loc 1 95 20 view .LVU316
ARM GAS  C:\Users\57308\AppData\Local\Temp\ccxDvd6L.s 			page 29


 919 004e 1044     		add	r0, r0, r2
 920              	.LVL116:
  93:../Common/IQMath/ti/_IQNlog.c ****         iq30Result = __mpyf_l(uiq31Input, iq30Result);
 921              		.loc 1 93 55 is_stmt 1 view .LVU317
  93:../Common/IQMath/ti/_IQNlog.c ****         iq30Result = __mpyf_l(uiq31Input, iq30Result);
 922              		.loc 1 93 65 is_stmt 0 view .LVU318
 923 0050 013D     		subs	r5, r5, #1
 924              	.LVL117:
  93:../Common/IQMath/ti/_IQNlog.c ****         iq30Result = __mpyf_l(uiq31Input, iq30Result);
 925              		.loc 1 93 65 view .LVU319
 926 0052 EDB2     		uxtb	r5, r5
 927              	.LVL118:
  95:../Common/IQMath/ti/_IQNlog.c ****     }
 928              		.loc 1 95 35 view .LVU320
 929 0054 1C46     		mov	r4, r3
 930              	.LVL119:
 931              	.L50:
  93:../Common/IQMath/ti/_IQNlog.c ****         iq30Result = __mpyf_l(uiq31Input, iq30Result);
 932              		.loc 1 93 39 is_stmt 1 view .LVU321
  93:../Common/IQMath/ti/_IQNlog.c ****         iq30Result = __mpyf_l(uiq31Input, iq30Result);
 933              		.loc 1 93 5 is_stmt 0 view .LVU322
 934 0056 002D     		cmp	r5, #0
 935 0058 EAD1     		bne	.L51
  99:../Common/IQMath/ti/_IQNlog.c ****     
 936              		.loc 1 99 5 is_stmt 1 view .LVU323
  99:../Common/IQMath/ti/_IQNlog.c ****     
 937              		.loc 1 99 15 is_stmt 0 view .LVU324
 938 005a C010     		asrs	r0, r0, #3
 939              	.LVL120:
 107:../Common/IQMath/ti/_IQNlog.c ****         iqNResult += __mpyf_ul(iq31_ln2, ((int_fast32_t)i16Exp << q_value));
 940              		.loc 1 107 5 is_stmt 1 view .LVU325
 107:../Common/IQMath/ti/_IQNlog.c ****         iqNResult += __mpyf_ul(iq31_ln2, ((int_fast32_t)i16Exp << q_value));
 941              		.loc 1 107 8 is_stmt 0 view .LVU326
 942 005c BCF1000F 		cmp	ip, #0
 943 0060 0BDD     		ble	.L52
 108:../Common/IQMath/ti/_IQNlog.c ****     }
 944              		.loc 1 108 9 is_stmt 1 view .LVU327
 108:../Common/IQMath/ti/_IQNlog.c ****     }
 945              		.loc 1 108 64 is_stmt 0 view .LVU328
 946 0062 4FEACC6C 		lsl	ip, ip, #27
 947              	.LVL121:
 948              	.LBB90:
 949              	.LBI90:
 254:../Common/IQMath/ti/./support/RTS_support.h **** {
 950              		.loc 2 254 29 is_stmt 1 view .LVU329
 951              	.LBB91:
 952              		.loc 2 256 5 view .LVU330
 953              		.loc 2 256 49 is_stmt 0 view .LVU331
 954 0066 0F4A     		ldr	r2, .L59+8
 955 0068 ACFB02C2 		umull	ip, r2, ip, r2
 956              	.LVL122:
 957              		.loc 2 256 72 view .LVU332
 958 006c 4FEADC73 		lsr	r3, ip, #31
 959 0070 43EA4203 		orr	r3, r3, r2, lsl #1
 960              	.LVL123:
 961              		.loc 2 256 72 view .LVU333
 962              	.LBE91:
ARM GAS  C:\Users\57308\AppData\Local\Temp\ccxDvd6L.s 			page 30


 963              	.LBE90:
 108:../Common/IQMath/ti/_IQNlog.c ****     }
 964              		.loc 1 108 19 view .LVU334
 965 0074 1844     		add	r0, r0, r3
 966              	.LVL124:
 967              	.L46:
 108:../Common/IQMath/ti/_IQNlog.c ****     }
 968              		.loc 1 108 19 view .LVU335
 969              	.LBE95:
 970              	.LBE98:
 166:../Common/IQMath/ti/_IQNlog.c **** }
 971              		.loc 1 166 1 view .LVU336
 972 0076 30BC     		pop	{r4, r5}
 973              	.LCFI13:
 974              		.cfi_remember_state
 975              		.cfi_restore 5
 976              		.cfi_restore 4
 977              		.cfi_def_cfa_offset 0
 978              	.LVL125:
 979              		.loc 1 166 1 view .LVU337
 980 0078 7047     		bx	lr
 981              	.LVL126:
 982              	.L52:
 983              	.LCFI14:
 984              		.cfi_restore_state
 985              	.LBB99:
 986              	.LBB96:
 111:../Common/IQMath/ti/_IQNlog.c ****     }
 987              		.loc 1 111 9 is_stmt 1 view .LVU338
 111:../Common/IQMath/ti/_IQNlog.c ****     }
 988              		.loc 1 111 59 is_stmt 0 view .LVU339
 989 007a CCF10003 		rsb	r3, ip, #0
 111:../Common/IQMath/ti/_IQNlog.c ****     }
 990              		.loc 1 111 22 view .LVU340
 991 007e DB06     		lsls	r3, r3, #27
 992              	.LVL127:
 993              	.LBB92:
 994              	.LBI92:
 254:../Common/IQMath/ti/./support/RTS_support.h **** {
 995              		.loc 2 254 29 is_stmt 1 view .LVU341
 996              	.LBB93:
 997              		.loc 2 256 5 view .LVU342
 998              		.loc 2 256 49 is_stmt 0 view .LVU343
 999 0080 084A     		ldr	r2, .L59+8
 1000 0082 A3FB0232 		umull	r3, r2, r3, r2
 1001              	.LVL128:
 1002              		.loc 2 256 72 view .LVU344
 1003 0086 DB0F     		lsrs	r3, r3, #31
 1004 0088 43EA4203 		orr	r3, r3, r2, lsl #1
 1005              	.LVL129:
 1006              		.loc 2 256 72 view .LVU345
 1007              	.LBE93:
 1008              	.LBE92:
 111:../Common/IQMath/ti/_IQNlog.c ****     }
 1009              		.loc 1 111 19 view .LVU346
 1010 008c C01A     		subs	r0, r0, r3
 1011              	.LVL130:
ARM GAS  C:\Users\57308\AppData\Local\Temp\ccxDvd6L.s 			page 31


 111:../Common/IQMath/ti/_IQNlog.c ****     }
 1012              		.loc 1 111 19 view .LVU347
 1013 008e F2E7     		b	.L46
 1014              	.LVL131:
 1015              	.L53:
 1016              	.LCFI15:
 1017              		.cfi_def_cfa_offset 0
 1018              		.cfi_restore 4
 1019              		.cfi_restore 5
  45:../Common/IQMath/ti/_IQNlog.c ****         }
 1020              		.loc 1 45 20 view .LVU348
 1021 0090 0020     		movs	r0, #0
 1022              	.LVL132:
  45:../Common/IQMath/ti/_IQNlog.c ****         }
 1023              		.loc 1 45 20 view .LVU349
 1024 0092 7047     		bx	lr
 1025              	.LVL133:
 1026              	.L54:
  48:../Common/IQMath/ti/_IQNlog.c ****         }        
 1027              		.loc 1 48 20 view .LVU350
 1028 0094 4FF00040 		mov	r0, #-2147483648
 1029              	.LVL134:
  48:../Common/IQMath/ti/_IQNlog.c ****         }        
 1030              		.loc 1 48 20 view .LVU351
 1031              	.LBE96:
 1032              	.LBE99:
 1033              		.loc 1 166 1 view .LVU352
 1034 0098 7047     		bx	lr
 1035              	.L60:
 1036 009a 00BF     		.align	2
 1037              	.L59:
 1038 009c 00000000 		.word	_IQNlog_min
 1039 00a0 00000000 		.word	_IQ30log_coeffs
 1040 00a4 FC0BB958 		.word	1488522236
 1041              		.cfi_endproc
 1042              	.LFE265:
 1044              		.section	.text._IQ26log,"ax",%progbits
 1045              		.align	1
 1046              		.global	_IQ26log
 1047              		.syntax unified
 1048              		.thumb
 1049              		.thumb_func
 1051              	_IQ26log:
 1052              	.LVL135:
 1053              	.LFB266:
 167:../Common/IQMath/ti/_IQNlog.c **** /**
 168:../Common/IQMath/ti/_IQNlog.c ****  * @brief Computes the base-e logarithm of an IQ26 input.
 169:../Common/IQMath/ti/_IQNlog.c ****  *
 170:../Common/IQMath/ti/_IQNlog.c ****  * @param a                 IQ26 type input.
 171:../Common/IQMath/ti/_IQNlog.c ****  *
 172:../Common/IQMath/ti/_IQNlog.c ****  * @return                  IQ26 type result of exponential.
 173:../Common/IQMath/ti/_IQNlog.c ****  */
 174:../Common/IQMath/ti/_IQNlog.c **** int32_t _IQ26log(int32_t a)
 175:../Common/IQMath/ti/_IQNlog.c **** {
 1054              		.loc 1 175 1 is_stmt 1 view -0
 1055              		.cfi_startproc
 1056              		@ args = 0, pretend = 0, frame = 0
ARM GAS  C:\Users\57308\AppData\Local\Temp\ccxDvd6L.s 			page 32


 1057              		@ frame_needed = 0, uses_anonymous_args = 0
 1058              		@ link register save eliminated.
 176:../Common/IQMath/ti/_IQNlog.c ****     return __IQNlog(a, 1, 26);
 1059              		.loc 1 176 5 view .LVU354
 1060              	.LBB108:
 1061              	.LBI108:
  28:../Common/IQMath/ti/_IQNlog.c **** {
 1062              		.loc 1 28 30 view .LVU355
 1063              	.LBB109:
  30:../Common/IQMath/ti/_IQNlog.c ****     int_fast16_t i16Exp;
 1064              		.loc 1 30 5 view .LVU356
  31:../Common/IQMath/ti/_IQNlog.c ****     uint_fast16_t ui16IntState;
 1065              		.loc 1 31 5 view .LVU357
  32:../Common/IQMath/ti/_IQNlog.c ****     uint_fast16_t ui16MPYState;
 1066              		.loc 1 32 5 view .LVU358
  33:../Common/IQMath/ti/_IQNlog.c ****     int_fast32_t iqNResult;
 1067              		.loc 1 33 5 view .LVU359
  34:../Common/IQMath/ti/_IQNlog.c ****     int_fast32_t iq30Result;
 1068              		.loc 1 34 5 view .LVU360
  35:../Common/IQMath/ti/_IQNlog.c ****     uint_fast32_t uiq31Input;
 1069              		.loc 1 35 5 view .LVU361
  36:../Common/IQMath/ti/_IQNlog.c ****     const uint_fast32_t *piq30Coeffs;
 1070              		.loc 1 36 5 view .LVU362
  37:../Common/IQMath/ti/_IQNlog.c ****     
 1071              		.loc 1 37 5 view .LVU363
  43:../Common/IQMath/ti/_IQNlog.c ****         if (iqNInput <= 0) {
 1072              		.loc 1 43 5 view .LVU364
  56:../Common/IQMath/ti/_IQNlog.c ****             return 0;
 1073              		.loc 1 56 9 view .LVU365
  56:../Common/IQMath/ti/_IQNlog.c ****             return 0;
 1074              		.loc 1 56 12 is_stmt 0 view .LVU366
 1075 0000 011E     		subs	r1, r0, #0
 1076 0002 41DD     		ble	.L68
 1077              	.LBE109:
 1078              	.LBE108:
 175:../Common/IQMath/ti/_IQNlog.c ****     return __IQNlog(a, 1, 26);
 1079              		.loc 1 175 1 view .LVU367
 1080 0004 30B4     		push	{r4, r5}
 1081              	.LCFI16:
 1082              		.cfi_def_cfa_offset 8
 1083              		.cfi_offset 4, -8
 1084              		.cfi_offset 5, -4
 1085              	.LBB119:
 1086              	.LBB116:
  62:../Common/IQMath/ti/_IQNlog.c ****     
 1087              		.loc 1 62 5 is_stmt 1 view .LVU368
 1088              	.LVL136:
  69:../Common/IQMath/ti/_IQNlog.c ****     while (uiq31Input < iq31_twoThird) {
 1089              		.loc 1 69 5 view .LVU369
  70:../Common/IQMath/ti/_IQNlog.c ****         uiq31Input <<= 1;
 1090              		.loc 1 70 5 view .LVU370
  62:../Common/IQMath/ti/_IQNlog.c ****     
 1091              		.loc 1 62 12 is_stmt 0 view .LVU371
 1092 0006 4FF0050C 		mov	ip, #5
  70:../Common/IQMath/ti/_IQNlog.c ****         uiq31Input <<= 1;
 1093              		.loc 1 70 11 view .LVU372
 1094 000a 02E0     		b	.L63
ARM GAS  C:\Users\57308\AppData\Local\Temp\ccxDvd6L.s 			page 33


 1095              	.LVL137:
 1096              	.L64:
  71:../Common/IQMath/ti/_IQNlog.c ****         i16Exp--;
 1097              		.loc 1 71 9 is_stmt 1 view .LVU373
  71:../Common/IQMath/ti/_IQNlog.c ****         i16Exp--;
 1098              		.loc 1 71 20 is_stmt 0 view .LVU374
 1099 000c 4900     		lsls	r1, r1, #1
 1100              	.LVL138:
  72:../Common/IQMath/ti/_IQNlog.c ****     }
 1101              		.loc 1 72 9 is_stmt 1 view .LVU375
  72:../Common/IQMath/ti/_IQNlog.c ****     }
 1102              		.loc 1 72 15 is_stmt 0 view .LVU376
 1103 000e 0CF1FF3C 		add	ip, ip, #-1
 1104              	.LVL139:
 1105              	.L63:
  70:../Common/IQMath/ti/_IQNlog.c ****         uiq31Input <<= 1;
 1106              		.loc 1 70 11 is_stmt 1 view .LVU377
 1107 0012 B1F1553F 		cmp	r1, #1431655765
 1108 0016 F9D3     		bcc	.L64
  81:../Common/IQMath/ti/_IQNlog.c ****     
 1109              		.loc 1 81 5 view .LVU378
 1110              	.LVL140:
  81:../Common/IQMath/ti/_IQNlog.c ****     
 1111              		.loc 1 81 5 is_stmt 0 view .LVU379
 1112              	.LBE116:
 1113              	.LBE119:
  28:../Common/IQMath/ti/./support/RTS_support.h **** }
 1114              		.loc 2 28 5 is_stmt 1 view .LVU380
 1115              	.LBB120:
 1116              	.LBB117:
  88:../Common/IQMath/ti/_IQNlog.c ****     iq30Result = *piq30Coeffs++;
 1117              		.loc 1 88 5 view .LVU381
  89:../Common/IQMath/ti/_IQNlog.c ****     uiq31Input -= iq31_one;
 1118              		.loc 1 89 5 view .LVU382
  89:../Common/IQMath/ti/_IQNlog.c ****     uiq31Input -= iq31_one;
 1119              		.loc 1 89 18 is_stmt 0 view .LVU383
 1120 0018 1C4C     		ldr	r4, .L73
 1121 001a 54F8040B 		ldr	r0, [r4], #4
 1122              	.LVL141:
  90:../Common/IQMath/ti/_IQNlog.c ****     
 1123              		.loc 1 90 5 is_stmt 1 view .LVU384
  90:../Common/IQMath/ti/_IQNlog.c ****     
 1124              		.loc 1 90 16 is_stmt 0 view .LVU385
 1125 001e 01F10041 		add	r1, r1, #-2147483648
 1126              	.LVL142:
  90:../Common/IQMath/ti/_IQNlog.c ****     
 1127              		.loc 1 90 16 view .LVU386
 1128 0022 0131     		adds	r1, r1, #1
 1129              	.LVL143:
  93:../Common/IQMath/ti/_IQNlog.c ****         iq30Result = __mpyf_l(uiq31Input, iq30Result);
 1130              		.loc 1 93 5 is_stmt 1 view .LVU387
  93:../Common/IQMath/ti/_IQNlog.c ****         iq30Result = __mpyf_l(uiq31Input, iq30Result);
 1131              		.loc 1 93 21 is_stmt 0 view .LVU388
 1132 0024 0E25     		movs	r5, #14
  93:../Common/IQMath/ti/_IQNlog.c ****         iq30Result = __mpyf_l(uiq31Input, iq30Result);
 1133              		.loc 1 93 5 view .LVU389
 1134 0026 12E0     		b	.L65
ARM GAS  C:\Users\57308\AppData\Local\Temp\ccxDvd6L.s 			page 34


 1135              	.LVL144:
 1136              	.L66:
  94:../Common/IQMath/ti/_IQNlog.c ****         iq30Result += *piq30Coeffs++;
 1137              		.loc 1 94 9 is_stmt 1 view .LVU390
 1138              	.LBB110:
 1139              	.LBI110:
 233:../Common/IQMath/ti/./support/RTS_support.h **** {
 1140              		.loc 2 233 28 view .LVU391
 1141              	.LBB111:
 235:../Common/IQMath/ti/./support/RTS_support.h **** }
 1142              		.loc 2 235 5 view .LVU392
 235:../Common/IQMath/ti/./support/RTS_support.h **** }
 1143              		.loc 2 235 28 is_stmt 0 view .LVU393
 1144 0028 CB17     		asrs	r3, r1, #31
 235:../Common/IQMath/ti/./support/RTS_support.h **** }
 1145              		.loc 2 235 49 view .LVU394
 1146 002a C217     		asrs	r2, r0, #31
 235:../Common/IQMath/ti/./support/RTS_support.h **** }
 1147              		.loc 2 235 47 view .LVU395
 1148 002c 01FB02F2 		mul	r2, r1, r2
 1149 0030 00FB0323 		mla	r3, r0, r3, r2
 1150 0034 A1FB0002 		umull	r0, r2, r1, r0
 1151              	.LVL145:
 235:../Common/IQMath/ti/./support/RTS_support.h **** }
 1152              		.loc 2 235 47 view .LVU396
 1153 0038 1344     		add	r3, r3, r2
 235:../Common/IQMath/ti/./support/RTS_support.h **** }
 1154              		.loc 2 235 69 view .LVU397
 1155 003a C00F     		lsrs	r0, r0, #31
 1156 003c 40EA4300 		orr	r0, r0, r3, lsl #1
 1157              	.LVL146:
 235:../Common/IQMath/ti/./support/RTS_support.h **** }
 1158              		.loc 2 235 69 view .LVU398
 1159              	.LBE111:
 1160              	.LBE110:
  95:../Common/IQMath/ti/_IQNlog.c ****     }
 1161              		.loc 1 95 9 is_stmt 1 view .LVU399
  95:../Common/IQMath/ti/_IQNlog.c ****     }
 1162              		.loc 1 95 35 is_stmt 0 view .LVU400
 1163 0040 2346     		mov	r3, r4
 1164              	.LVL147:
  95:../Common/IQMath/ti/_IQNlog.c ****     }
 1165              		.loc 1 95 23 view .LVU401
 1166 0042 53F8042B 		ldr	r2, [r3], #4
 1167              	.LVL148:
  95:../Common/IQMath/ti/_IQNlog.c ****     }
 1168              		.loc 1 95 20 view .LVU402
 1169 0046 1044     		add	r0, r0, r2
 1170              	.LVL149:
  93:../Common/IQMath/ti/_IQNlog.c ****         iq30Result = __mpyf_l(uiq31Input, iq30Result);
 1171              		.loc 1 93 55 is_stmt 1 view .LVU403
  93:../Common/IQMath/ti/_IQNlog.c ****         iq30Result = __mpyf_l(uiq31Input, iq30Result);
 1172              		.loc 1 93 65 is_stmt 0 view .LVU404
 1173 0048 013D     		subs	r5, r5, #1
 1174              	.LVL150:
  93:../Common/IQMath/ti/_IQNlog.c ****         iq30Result = __mpyf_l(uiq31Input, iq30Result);
 1175              		.loc 1 93 65 view .LVU405
ARM GAS  C:\Users\57308\AppData\Local\Temp\ccxDvd6L.s 			page 35


 1176 004a EDB2     		uxtb	r5, r5
 1177              	.LVL151:
  95:../Common/IQMath/ti/_IQNlog.c ****     }
 1178              		.loc 1 95 35 view .LVU406
 1179 004c 1C46     		mov	r4, r3
 1180              	.LVL152:
 1181              	.L65:
  93:../Common/IQMath/ti/_IQNlog.c ****         iq30Result = __mpyf_l(uiq31Input, iq30Result);
 1182              		.loc 1 93 39 is_stmt 1 view .LVU407
  93:../Common/IQMath/ti/_IQNlog.c ****         iq30Result = __mpyf_l(uiq31Input, iq30Result);
 1183              		.loc 1 93 5 is_stmt 0 view .LVU408
 1184 004e 002D     		cmp	r5, #0
 1185 0050 EAD1     		bne	.L66
  99:../Common/IQMath/ti/_IQNlog.c ****     
 1186              		.loc 1 99 5 is_stmt 1 view .LVU409
  99:../Common/IQMath/ti/_IQNlog.c ****     
 1187              		.loc 1 99 15 is_stmt 0 view .LVU410
 1188 0052 0011     		asrs	r0, r0, #4
 1189              	.LVL153:
 107:../Common/IQMath/ti/_IQNlog.c ****         iqNResult += __mpyf_ul(iq31_ln2, ((int_fast32_t)i16Exp << q_value));
 1190              		.loc 1 107 5 is_stmt 1 view .LVU411
 107:../Common/IQMath/ti/_IQNlog.c ****         iqNResult += __mpyf_ul(iq31_ln2, ((int_fast32_t)i16Exp << q_value));
 1191              		.loc 1 107 8 is_stmt 0 view .LVU412
 1192 0054 BCF1000F 		cmp	ip, #0
 1193 0058 0BDD     		ble	.L67
 108:../Common/IQMath/ti/_IQNlog.c ****     }
 1194              		.loc 1 108 9 is_stmt 1 view .LVU413
 108:../Common/IQMath/ti/_IQNlog.c ****     }
 1195              		.loc 1 108 64 is_stmt 0 view .LVU414
 1196 005a 4FEA8C6C 		lsl	ip, ip, #26
 1197              	.LVL154:
 1198              	.LBB112:
 1199              	.LBI112:
 254:../Common/IQMath/ti/./support/RTS_support.h **** {
 1200              		.loc 2 254 29 is_stmt 1 view .LVU415
 1201              	.LBB113:
 1202              		.loc 2 256 5 view .LVU416
 1203              		.loc 2 256 49 is_stmt 0 view .LVU417
 1204 005e 0C4A     		ldr	r2, .L73+4
 1205 0060 ACFB02C2 		umull	ip, r2, ip, r2
 1206              	.LVL155:
 1207              		.loc 2 256 72 view .LVU418
 1208 0064 4FEADC73 		lsr	r3, ip, #31
 1209 0068 43EA4203 		orr	r3, r3, r2, lsl #1
 1210              	.LVL156:
 1211              		.loc 2 256 72 view .LVU419
 1212              	.LBE113:
 1213              	.LBE112:
 108:../Common/IQMath/ti/_IQNlog.c ****     }
 1214              		.loc 1 108 19 view .LVU420
 1215 006c 1844     		add	r0, r0, r3
 1216              	.LVL157:
 1217              	.L61:
 108:../Common/IQMath/ti/_IQNlog.c ****     }
 1218              		.loc 1 108 19 view .LVU421
 1219              	.LBE117:
 1220              	.LBE120:
ARM GAS  C:\Users\57308\AppData\Local\Temp\ccxDvd6L.s 			page 36


 177:../Common/IQMath/ti/_IQNlog.c **** }
 1221              		.loc 1 177 1 view .LVU422
 1222 006e 30BC     		pop	{r4, r5}
 1223              	.LCFI17:
 1224              		.cfi_remember_state
 1225              		.cfi_restore 5
 1226              		.cfi_restore 4
 1227              		.cfi_def_cfa_offset 0
 1228              	.LVL158:
 1229              		.loc 1 177 1 view .LVU423
 1230 0070 7047     		bx	lr
 1231              	.LVL159:
 1232              	.L67:
 1233              	.LCFI18:
 1234              		.cfi_restore_state
 1235              	.LBB121:
 1236              	.LBB118:
 111:../Common/IQMath/ti/_IQNlog.c ****     }
 1237              		.loc 1 111 9 is_stmt 1 view .LVU424
 111:../Common/IQMath/ti/_IQNlog.c ****     }
 1238              		.loc 1 111 59 is_stmt 0 view .LVU425
 1239 0072 CCF10003 		rsb	r3, ip, #0
 111:../Common/IQMath/ti/_IQNlog.c ****     }
 1240              		.loc 1 111 22 view .LVU426
 1241 0076 9B06     		lsls	r3, r3, #26
 1242              	.LVL160:
 1243              	.LBB114:
 1244              	.LBI114:
 254:../Common/IQMath/ti/./support/RTS_support.h **** {
 1245              		.loc 2 254 29 is_stmt 1 view .LVU427
 1246              	.LBB115:
 1247              		.loc 2 256 5 view .LVU428
 1248              		.loc 2 256 49 is_stmt 0 view .LVU429
 1249 0078 054A     		ldr	r2, .L73+4
 1250 007a A3FB0232 		umull	r3, r2, r3, r2
 1251              	.LVL161:
 1252              		.loc 2 256 72 view .LVU430
 1253 007e DB0F     		lsrs	r3, r3, #31
 1254 0080 43EA4203 		orr	r3, r3, r2, lsl #1
 1255              	.LVL162:
 1256              		.loc 2 256 72 view .LVU431
 1257              	.LBE115:
 1258              	.LBE114:
 111:../Common/IQMath/ti/_IQNlog.c ****     }
 1259              		.loc 1 111 19 view .LVU432
 1260 0084 C01A     		subs	r0, r0, r3
 1261              	.LVL163:
 111:../Common/IQMath/ti/_IQNlog.c ****     }
 1262              		.loc 1 111 19 view .LVU433
 1263 0086 F2E7     		b	.L61
 1264              	.LVL164:
 1265              	.L68:
 1266              	.LCFI19:
 1267              		.cfi_def_cfa_offset 0
 1268              		.cfi_restore 4
 1269              		.cfi_restore 5
  57:../Common/IQMath/ti/_IQNlog.c ****         }
ARM GAS  C:\Users\57308\AppData\Local\Temp\ccxDvd6L.s 			page 37


 1270              		.loc 1 57 20 view .LVU434
 1271 0088 0020     		movs	r0, #0
 1272              	.LVL165:
  57:../Common/IQMath/ti/_IQNlog.c ****         }
 1273              		.loc 1 57 20 view .LVU435
 1274              	.LBE118:
 1275              	.LBE121:
 1276              		.loc 1 177 1 view .LVU436
 1277 008a 7047     		bx	lr
 1278              	.L74:
 1279              		.align	2
 1280              	.L73:
 1281 008c 00000000 		.word	_IQ30log_coeffs
 1282 0090 FC0BB958 		.word	1488522236
 1283              		.cfi_endproc
 1284              	.LFE266:
 1286              		.section	.text._IQ25log,"ax",%progbits
 1287              		.align	1
 1288              		.global	_IQ25log
 1289              		.syntax unified
 1290              		.thumb
 1291              		.thumb_func
 1293              	_IQ25log:
 1294              	.LVL166:
 1295              	.LFB267:
 178:../Common/IQMath/ti/_IQNlog.c **** /**
 179:../Common/IQMath/ti/_IQNlog.c ****  * @brief Computes the base-e logarithm of an IQ25 input.
 180:../Common/IQMath/ti/_IQNlog.c ****  *
 181:../Common/IQMath/ti/_IQNlog.c ****  * @param a                 IQ25 type input.
 182:../Common/IQMath/ti/_IQNlog.c ****  *
 183:../Common/IQMath/ti/_IQNlog.c ****  * @return                  IQ25 type result of exponential.
 184:../Common/IQMath/ti/_IQNlog.c ****  */
 185:../Common/IQMath/ti/_IQNlog.c **** int32_t _IQ25log(int32_t a)
 186:../Common/IQMath/ti/_IQNlog.c **** {
 1296              		.loc 1 186 1 is_stmt 1 view -0
 1297              		.cfi_startproc
 1298              		@ args = 0, pretend = 0, frame = 0
 1299              		@ frame_needed = 0, uses_anonymous_args = 0
 1300              		@ link register save eliminated.
 187:../Common/IQMath/ti/_IQNlog.c ****     return __IQNlog(a, 1, 25);
 1301              		.loc 1 187 5 view .LVU438
 1302              	.LBB130:
 1303              	.LBI130:
  28:../Common/IQMath/ti/_IQNlog.c **** {
 1304              		.loc 1 28 30 view .LVU439
 1305              	.LBB131:
  30:../Common/IQMath/ti/_IQNlog.c ****     int_fast16_t i16Exp;
 1306              		.loc 1 30 5 view .LVU440
  31:../Common/IQMath/ti/_IQNlog.c ****     uint_fast16_t ui16IntState;
 1307              		.loc 1 31 5 view .LVU441
  32:../Common/IQMath/ti/_IQNlog.c ****     uint_fast16_t ui16MPYState;
 1308              		.loc 1 32 5 view .LVU442
  33:../Common/IQMath/ti/_IQNlog.c ****     int_fast32_t iqNResult;
 1309              		.loc 1 33 5 view .LVU443
  34:../Common/IQMath/ti/_IQNlog.c ****     int_fast32_t iq30Result;
 1310              		.loc 1 34 5 view .LVU444
  35:../Common/IQMath/ti/_IQNlog.c ****     uint_fast32_t uiq31Input;
ARM GAS  C:\Users\57308\AppData\Local\Temp\ccxDvd6L.s 			page 38


 1311              		.loc 1 35 5 view .LVU445
  36:../Common/IQMath/ti/_IQNlog.c ****     const uint_fast32_t *piq30Coeffs;
 1312              		.loc 1 36 5 view .LVU446
  37:../Common/IQMath/ti/_IQNlog.c ****     
 1313              		.loc 1 37 5 view .LVU447
  43:../Common/IQMath/ti/_IQNlog.c ****         if (iqNInput <= 0) {
 1314              		.loc 1 43 5 view .LVU448
  56:../Common/IQMath/ti/_IQNlog.c ****             return 0;
 1315              		.loc 1 56 9 view .LVU449
  56:../Common/IQMath/ti/_IQNlog.c ****             return 0;
 1316              		.loc 1 56 12 is_stmt 0 view .LVU450
 1317 0000 011E     		subs	r1, r0, #0
 1318 0002 41DD     		ble	.L82
 1319              	.LBE131:
 1320              	.LBE130:
 186:../Common/IQMath/ti/_IQNlog.c ****     return __IQNlog(a, 1, 25);
 1321              		.loc 1 186 1 view .LVU451
 1322 0004 30B4     		push	{r4, r5}
 1323              	.LCFI20:
 1324              		.cfi_def_cfa_offset 8
 1325              		.cfi_offset 4, -8
 1326              		.cfi_offset 5, -4
 1327              	.LBB141:
 1328              	.LBB138:
  62:../Common/IQMath/ti/_IQNlog.c ****     
 1329              		.loc 1 62 5 is_stmt 1 view .LVU452
 1330              	.LVL167:
  69:../Common/IQMath/ti/_IQNlog.c ****     while (uiq31Input < iq31_twoThird) {
 1331              		.loc 1 69 5 view .LVU453
  70:../Common/IQMath/ti/_IQNlog.c ****         uiq31Input <<= 1;
 1332              		.loc 1 70 5 view .LVU454
  62:../Common/IQMath/ti/_IQNlog.c ****     
 1333              		.loc 1 62 12 is_stmt 0 view .LVU455
 1334 0006 4FF0060C 		mov	ip, #6
  70:../Common/IQMath/ti/_IQNlog.c ****         uiq31Input <<= 1;
 1335              		.loc 1 70 11 view .LVU456
 1336 000a 02E0     		b	.L77
 1337              	.LVL168:
 1338              	.L78:
  71:../Common/IQMath/ti/_IQNlog.c ****         i16Exp--;
 1339              		.loc 1 71 9 is_stmt 1 view .LVU457
  71:../Common/IQMath/ti/_IQNlog.c ****         i16Exp--;
 1340              		.loc 1 71 20 is_stmt 0 view .LVU458
 1341 000c 4900     		lsls	r1, r1, #1
 1342              	.LVL169:
  72:../Common/IQMath/ti/_IQNlog.c ****     }
 1343              		.loc 1 72 9 is_stmt 1 view .LVU459
  72:../Common/IQMath/ti/_IQNlog.c ****     }
 1344              		.loc 1 72 15 is_stmt 0 view .LVU460
 1345 000e 0CF1FF3C 		add	ip, ip, #-1
 1346              	.LVL170:
 1347              	.L77:
  70:../Common/IQMath/ti/_IQNlog.c ****         uiq31Input <<= 1;
 1348              		.loc 1 70 11 is_stmt 1 view .LVU461
 1349 0012 B1F1553F 		cmp	r1, #1431655765
 1350 0016 F9D3     		bcc	.L78
  81:../Common/IQMath/ti/_IQNlog.c ****     
ARM GAS  C:\Users\57308\AppData\Local\Temp\ccxDvd6L.s 			page 39


 1351              		.loc 1 81 5 view .LVU462
 1352              	.LVL171:
  81:../Common/IQMath/ti/_IQNlog.c ****     
 1353              		.loc 1 81 5 is_stmt 0 view .LVU463
 1354              	.LBE138:
 1355              	.LBE141:
  28:../Common/IQMath/ti/./support/RTS_support.h **** }
 1356              		.loc 2 28 5 is_stmt 1 view .LVU464
 1357              	.LBB142:
 1358              	.LBB139:
  88:../Common/IQMath/ti/_IQNlog.c ****     iq30Result = *piq30Coeffs++;
 1359              		.loc 1 88 5 view .LVU465
  89:../Common/IQMath/ti/_IQNlog.c ****     uiq31Input -= iq31_one;
 1360              		.loc 1 89 5 view .LVU466
  89:../Common/IQMath/ti/_IQNlog.c ****     uiq31Input -= iq31_one;
 1361              		.loc 1 89 18 is_stmt 0 view .LVU467
 1362 0018 1C4C     		ldr	r4, .L87
 1363 001a 54F8040B 		ldr	r0, [r4], #4
 1364              	.LVL172:
  90:../Common/IQMath/ti/_IQNlog.c ****     
 1365              		.loc 1 90 5 is_stmt 1 view .LVU468
  90:../Common/IQMath/ti/_IQNlog.c ****     
 1366              		.loc 1 90 16 is_stmt 0 view .LVU469
 1367 001e 01F10041 		add	r1, r1, #-2147483648
 1368              	.LVL173:
  90:../Common/IQMath/ti/_IQNlog.c ****     
 1369              		.loc 1 90 16 view .LVU470
 1370 0022 0131     		adds	r1, r1, #1
 1371              	.LVL174:
  93:../Common/IQMath/ti/_IQNlog.c ****         iq30Result = __mpyf_l(uiq31Input, iq30Result);
 1372              		.loc 1 93 5 is_stmt 1 view .LVU471
  93:../Common/IQMath/ti/_IQNlog.c ****         iq30Result = __mpyf_l(uiq31Input, iq30Result);
 1373              		.loc 1 93 21 is_stmt 0 view .LVU472
 1374 0024 0E25     		movs	r5, #14
  93:../Common/IQMath/ti/_IQNlog.c ****         iq30Result = __mpyf_l(uiq31Input, iq30Result);
 1375              		.loc 1 93 5 view .LVU473
 1376 0026 12E0     		b	.L79
 1377              	.LVL175:
 1378              	.L80:
  94:../Common/IQMath/ti/_IQNlog.c ****         iq30Result += *piq30Coeffs++;
 1379              		.loc 1 94 9 is_stmt 1 view .LVU474
 1380              	.LBB132:
 1381              	.LBI132:
 233:../Common/IQMath/ti/./support/RTS_support.h **** {
 1382              		.loc 2 233 28 view .LVU475
 1383              	.LBB133:
 235:../Common/IQMath/ti/./support/RTS_support.h **** }
 1384              		.loc 2 235 5 view .LVU476
 235:../Common/IQMath/ti/./support/RTS_support.h **** }
 1385              		.loc 2 235 28 is_stmt 0 view .LVU477
 1386 0028 CB17     		asrs	r3, r1, #31
 235:../Common/IQMath/ti/./support/RTS_support.h **** }
 1387              		.loc 2 235 49 view .LVU478
 1388 002a C217     		asrs	r2, r0, #31
 235:../Common/IQMath/ti/./support/RTS_support.h **** }
 1389              		.loc 2 235 47 view .LVU479
 1390 002c 01FB02F2 		mul	r2, r1, r2
ARM GAS  C:\Users\57308\AppData\Local\Temp\ccxDvd6L.s 			page 40


 1391 0030 00FB0323 		mla	r3, r0, r3, r2
 1392 0034 A1FB0002 		umull	r0, r2, r1, r0
 1393              	.LVL176:
 235:../Common/IQMath/ti/./support/RTS_support.h **** }
 1394              		.loc 2 235 47 view .LVU480
 1395 0038 1344     		add	r3, r3, r2
 235:../Common/IQMath/ti/./support/RTS_support.h **** }
 1396              		.loc 2 235 69 view .LVU481
 1397 003a C00F     		lsrs	r0, r0, #31
 1398 003c 40EA4300 		orr	r0, r0, r3, lsl #1
 1399              	.LVL177:
 235:../Common/IQMath/ti/./support/RTS_support.h **** }
 1400              		.loc 2 235 69 view .LVU482
 1401              	.LBE133:
 1402              	.LBE132:
  95:../Common/IQMath/ti/_IQNlog.c ****     }
 1403              		.loc 1 95 9 is_stmt 1 view .LVU483
  95:../Common/IQMath/ti/_IQNlog.c ****     }
 1404              		.loc 1 95 35 is_stmt 0 view .LVU484
 1405 0040 2346     		mov	r3, r4
 1406              	.LVL178:
  95:../Common/IQMath/ti/_IQNlog.c ****     }
 1407              		.loc 1 95 23 view .LVU485
 1408 0042 53F8042B 		ldr	r2, [r3], #4
 1409              	.LVL179:
  95:../Common/IQMath/ti/_IQNlog.c ****     }
 1410              		.loc 1 95 20 view .LVU486
 1411 0046 1044     		add	r0, r0, r2
 1412              	.LVL180:
  93:../Common/IQMath/ti/_IQNlog.c ****         iq30Result = __mpyf_l(uiq31Input, iq30Result);
 1413              		.loc 1 93 55 is_stmt 1 view .LVU487
  93:../Common/IQMath/ti/_IQNlog.c ****         iq30Result = __mpyf_l(uiq31Input, iq30Result);
 1414              		.loc 1 93 65 is_stmt 0 view .LVU488
 1415 0048 013D     		subs	r5, r5, #1
 1416              	.LVL181:
  93:../Common/IQMath/ti/_IQNlog.c ****         iq30Result = __mpyf_l(uiq31Input, iq30Result);
 1417              		.loc 1 93 65 view .LVU489
 1418 004a EDB2     		uxtb	r5, r5
 1419              	.LVL182:
  95:../Common/IQMath/ti/_IQNlog.c ****     }
 1420              		.loc 1 95 35 view .LVU490
 1421 004c 1C46     		mov	r4, r3
 1422              	.LVL183:
 1423              	.L79:
  93:../Common/IQMath/ti/_IQNlog.c ****         iq30Result = __mpyf_l(uiq31Input, iq30Result);
 1424              		.loc 1 93 39 is_stmt 1 view .LVU491
  93:../Common/IQMath/ti/_IQNlog.c ****         iq30Result = __mpyf_l(uiq31Input, iq30Result);
 1425              		.loc 1 93 5 is_stmt 0 view .LVU492
 1426 004e 002D     		cmp	r5, #0
 1427 0050 EAD1     		bne	.L80
  99:../Common/IQMath/ti/_IQNlog.c ****     
 1428              		.loc 1 99 5 is_stmt 1 view .LVU493
  99:../Common/IQMath/ti/_IQNlog.c ****     
 1429              		.loc 1 99 15 is_stmt 0 view .LVU494
 1430 0052 4011     		asrs	r0, r0, #5
 1431              	.LVL184:
 107:../Common/IQMath/ti/_IQNlog.c ****         iqNResult += __mpyf_ul(iq31_ln2, ((int_fast32_t)i16Exp << q_value));
ARM GAS  C:\Users\57308\AppData\Local\Temp\ccxDvd6L.s 			page 41


 1432              		.loc 1 107 5 is_stmt 1 view .LVU495
 107:../Common/IQMath/ti/_IQNlog.c ****         iqNResult += __mpyf_ul(iq31_ln2, ((int_fast32_t)i16Exp << q_value));
 1433              		.loc 1 107 8 is_stmt 0 view .LVU496
 1434 0054 BCF1000F 		cmp	ip, #0
 1435 0058 0BDD     		ble	.L81
 108:../Common/IQMath/ti/_IQNlog.c ****     }
 1436              		.loc 1 108 9 is_stmt 1 view .LVU497
 108:../Common/IQMath/ti/_IQNlog.c ****     }
 1437              		.loc 1 108 64 is_stmt 0 view .LVU498
 1438 005a 4FEA4C6C 		lsl	ip, ip, #25
 1439              	.LVL185:
 1440              	.LBB134:
 1441              	.LBI134:
 254:../Common/IQMath/ti/./support/RTS_support.h **** {
 1442              		.loc 2 254 29 is_stmt 1 view .LVU499
 1443              	.LBB135:
 1444              		.loc 2 256 5 view .LVU500
 1445              		.loc 2 256 49 is_stmt 0 view .LVU501
 1446 005e 0C4A     		ldr	r2, .L87+4
 1447 0060 ACFB02C2 		umull	ip, r2, ip, r2
 1448              	.LVL186:
 1449              		.loc 2 256 72 view .LVU502
 1450 0064 4FEADC73 		lsr	r3, ip, #31
 1451 0068 43EA4203 		orr	r3, r3, r2, lsl #1
 1452              	.LVL187:
 1453              		.loc 2 256 72 view .LVU503
 1454              	.LBE135:
 1455              	.LBE134:
 108:../Common/IQMath/ti/_IQNlog.c ****     }
 1456              		.loc 1 108 19 view .LVU504
 1457 006c 1844     		add	r0, r0, r3
 1458              	.LVL188:
 1459              	.L75:
 108:../Common/IQMath/ti/_IQNlog.c ****     }
 1460              		.loc 1 108 19 view .LVU505
 1461              	.LBE139:
 1462              	.LBE142:
 188:../Common/IQMath/ti/_IQNlog.c **** }
 1463              		.loc 1 188 1 view .LVU506
 1464 006e 30BC     		pop	{r4, r5}
 1465              	.LCFI21:
 1466              		.cfi_remember_state
 1467              		.cfi_restore 5
 1468              		.cfi_restore 4
 1469              		.cfi_def_cfa_offset 0
 1470              	.LVL189:
 1471              		.loc 1 188 1 view .LVU507
 1472 0070 7047     		bx	lr
 1473              	.LVL190:
 1474              	.L81:
 1475              	.LCFI22:
 1476              		.cfi_restore_state
 1477              	.LBB143:
 1478              	.LBB140:
 111:../Common/IQMath/ti/_IQNlog.c ****     }
 1479              		.loc 1 111 9 is_stmt 1 view .LVU508
 111:../Common/IQMath/ti/_IQNlog.c ****     }
ARM GAS  C:\Users\57308\AppData\Local\Temp\ccxDvd6L.s 			page 42


 1480              		.loc 1 111 59 is_stmt 0 view .LVU509
 1481 0072 CCF10003 		rsb	r3, ip, #0
 111:../Common/IQMath/ti/_IQNlog.c ****     }
 1482              		.loc 1 111 22 view .LVU510
 1483 0076 5B06     		lsls	r3, r3, #25
 1484              	.LVL191:
 1485              	.LBB136:
 1486              	.LBI136:
 254:../Common/IQMath/ti/./support/RTS_support.h **** {
 1487              		.loc 2 254 29 is_stmt 1 view .LVU511
 1488              	.LBB137:
 1489              		.loc 2 256 5 view .LVU512
 1490              		.loc 2 256 49 is_stmt 0 view .LVU513
 1491 0078 054A     		ldr	r2, .L87+4
 1492 007a A3FB0232 		umull	r3, r2, r3, r2
 1493              	.LVL192:
 1494              		.loc 2 256 72 view .LVU514
 1495 007e DB0F     		lsrs	r3, r3, #31
 1496 0080 43EA4203 		orr	r3, r3, r2, lsl #1
 1497              	.LVL193:
 1498              		.loc 2 256 72 view .LVU515
 1499              	.LBE137:
 1500              	.LBE136:
 111:../Common/IQMath/ti/_IQNlog.c ****     }
 1501              		.loc 1 111 19 view .LVU516
 1502 0084 C01A     		subs	r0, r0, r3
 1503              	.LVL194:
 111:../Common/IQMath/ti/_IQNlog.c ****     }
 1504              		.loc 1 111 19 view .LVU517
 1505 0086 F2E7     		b	.L75
 1506              	.LVL195:
 1507              	.L82:
 1508              	.LCFI23:
 1509              		.cfi_def_cfa_offset 0
 1510              		.cfi_restore 4
 1511              		.cfi_restore 5
  57:../Common/IQMath/ti/_IQNlog.c ****         }
 1512              		.loc 1 57 20 view .LVU518
 1513 0088 0020     		movs	r0, #0
 1514              	.LVL196:
  57:../Common/IQMath/ti/_IQNlog.c ****         }
 1515              		.loc 1 57 20 view .LVU519
 1516              	.LBE140:
 1517              	.LBE143:
 1518              		.loc 1 188 1 view .LVU520
 1519 008a 7047     		bx	lr
 1520              	.L88:
 1521              		.align	2
 1522              	.L87:
 1523 008c 00000000 		.word	_IQ30log_coeffs
 1524 0090 FC0BB958 		.word	1488522236
 1525              		.cfi_endproc
 1526              	.LFE267:
 1528              		.section	.text._IQ24log,"ax",%progbits
 1529              		.align	1
 1530              		.global	_IQ24log
 1531              		.syntax unified
ARM GAS  C:\Users\57308\AppData\Local\Temp\ccxDvd6L.s 			page 43


 1532              		.thumb
 1533              		.thumb_func
 1535              	_IQ24log:
 1536              	.LVL197:
 1537              	.LFB268:
 189:../Common/IQMath/ti/_IQNlog.c **** /**
 190:../Common/IQMath/ti/_IQNlog.c ****  * @brief Computes the base-e logarithm of an IQ24 input.
 191:../Common/IQMath/ti/_IQNlog.c ****  *
 192:../Common/IQMath/ti/_IQNlog.c ****  * @param a                 IQ24 type input.
 193:../Common/IQMath/ti/_IQNlog.c ****  *
 194:../Common/IQMath/ti/_IQNlog.c ****  * @return                  IQ24 type result of exponential.
 195:../Common/IQMath/ti/_IQNlog.c ****  */
 196:../Common/IQMath/ti/_IQNlog.c **** int32_t _IQ24log(int32_t a)
 197:../Common/IQMath/ti/_IQNlog.c **** {
 1538              		.loc 1 197 1 is_stmt 1 view -0
 1539              		.cfi_startproc
 1540              		@ args = 0, pretend = 0, frame = 0
 1541              		@ frame_needed = 0, uses_anonymous_args = 0
 1542              		@ link register save eliminated.
 198:../Common/IQMath/ti/_IQNlog.c ****     return __IQNlog(a, 1, 24);
 1543              		.loc 1 198 5 view .LVU522
 1544              	.LBB152:
 1545              	.LBI152:
  28:../Common/IQMath/ti/_IQNlog.c **** {
 1546              		.loc 1 28 30 view .LVU523
 1547              	.LBB153:
  30:../Common/IQMath/ti/_IQNlog.c ****     int_fast16_t i16Exp;
 1548              		.loc 1 30 5 view .LVU524
  31:../Common/IQMath/ti/_IQNlog.c ****     uint_fast16_t ui16IntState;
 1549              		.loc 1 31 5 view .LVU525
  32:../Common/IQMath/ti/_IQNlog.c ****     uint_fast16_t ui16MPYState;
 1550              		.loc 1 32 5 view .LVU526
  33:../Common/IQMath/ti/_IQNlog.c ****     int_fast32_t iqNResult;
 1551              		.loc 1 33 5 view .LVU527
  34:../Common/IQMath/ti/_IQNlog.c ****     int_fast32_t iq30Result;
 1552              		.loc 1 34 5 view .LVU528
  35:../Common/IQMath/ti/_IQNlog.c ****     uint_fast32_t uiq31Input;
 1553              		.loc 1 35 5 view .LVU529
  36:../Common/IQMath/ti/_IQNlog.c ****     const uint_fast32_t *piq30Coeffs;
 1554              		.loc 1 36 5 view .LVU530
  37:../Common/IQMath/ti/_IQNlog.c ****     
 1555              		.loc 1 37 5 view .LVU531
  43:../Common/IQMath/ti/_IQNlog.c ****         if (iqNInput <= 0) {
 1556              		.loc 1 43 5 view .LVU532
  56:../Common/IQMath/ti/_IQNlog.c ****             return 0;
 1557              		.loc 1 56 9 view .LVU533
  56:../Common/IQMath/ti/_IQNlog.c ****             return 0;
 1558              		.loc 1 56 12 is_stmt 0 view .LVU534
 1559 0000 011E     		subs	r1, r0, #0
 1560 0002 41DD     		ble	.L96
 1561              	.LBE153:
 1562              	.LBE152:
 197:../Common/IQMath/ti/_IQNlog.c ****     return __IQNlog(a, 1, 24);
 1563              		.loc 1 197 1 view .LVU535
 1564 0004 30B4     		push	{r4, r5}
 1565              	.LCFI24:
 1566              		.cfi_def_cfa_offset 8
ARM GAS  C:\Users\57308\AppData\Local\Temp\ccxDvd6L.s 			page 44


 1567              		.cfi_offset 4, -8
 1568              		.cfi_offset 5, -4
 1569              	.LBB163:
 1570              	.LBB160:
  62:../Common/IQMath/ti/_IQNlog.c ****     
 1571              		.loc 1 62 5 is_stmt 1 view .LVU536
 1572              	.LVL198:
  69:../Common/IQMath/ti/_IQNlog.c ****     while (uiq31Input < iq31_twoThird) {
 1573              		.loc 1 69 5 view .LVU537
  70:../Common/IQMath/ti/_IQNlog.c ****         uiq31Input <<= 1;
 1574              		.loc 1 70 5 view .LVU538
  62:../Common/IQMath/ti/_IQNlog.c ****     
 1575              		.loc 1 62 12 is_stmt 0 view .LVU539
 1576 0006 4FF0070C 		mov	ip, #7
  70:../Common/IQMath/ti/_IQNlog.c ****         uiq31Input <<= 1;
 1577              		.loc 1 70 11 view .LVU540
 1578 000a 02E0     		b	.L91
 1579              	.LVL199:
 1580              	.L92:
  71:../Common/IQMath/ti/_IQNlog.c ****         i16Exp--;
 1581              		.loc 1 71 9 is_stmt 1 view .LVU541
  71:../Common/IQMath/ti/_IQNlog.c ****         i16Exp--;
 1582              		.loc 1 71 20 is_stmt 0 view .LVU542
 1583 000c 4900     		lsls	r1, r1, #1
 1584              	.LVL200:
  72:../Common/IQMath/ti/_IQNlog.c ****     }
 1585              		.loc 1 72 9 is_stmt 1 view .LVU543
  72:../Common/IQMath/ti/_IQNlog.c ****     }
 1586              		.loc 1 72 15 is_stmt 0 view .LVU544
 1587 000e 0CF1FF3C 		add	ip, ip, #-1
 1588              	.LVL201:
 1589              	.L91:
  70:../Common/IQMath/ti/_IQNlog.c ****         uiq31Input <<= 1;
 1590              		.loc 1 70 11 is_stmt 1 view .LVU545
 1591 0012 B1F1553F 		cmp	r1, #1431655765
 1592 0016 F9D3     		bcc	.L92
  81:../Common/IQMath/ti/_IQNlog.c ****     
 1593              		.loc 1 81 5 view .LVU546
 1594              	.LVL202:
  81:../Common/IQMath/ti/_IQNlog.c ****     
 1595              		.loc 1 81 5 is_stmt 0 view .LVU547
 1596              	.LBE160:
 1597              	.LBE163:
  28:../Common/IQMath/ti/./support/RTS_support.h **** }
 1598              		.loc 2 28 5 is_stmt 1 view .LVU548
 1599              	.LBB164:
 1600              	.LBB161:
  88:../Common/IQMath/ti/_IQNlog.c ****     iq30Result = *piq30Coeffs++;
 1601              		.loc 1 88 5 view .LVU549
  89:../Common/IQMath/ti/_IQNlog.c ****     uiq31Input -= iq31_one;
 1602              		.loc 1 89 5 view .LVU550
  89:../Common/IQMath/ti/_IQNlog.c ****     uiq31Input -= iq31_one;
 1603              		.loc 1 89 18 is_stmt 0 view .LVU551
 1604 0018 1C4C     		ldr	r4, .L101
 1605 001a 54F8040B 		ldr	r0, [r4], #4
 1606              	.LVL203:
  90:../Common/IQMath/ti/_IQNlog.c ****     
ARM GAS  C:\Users\57308\AppData\Local\Temp\ccxDvd6L.s 			page 45


 1607              		.loc 1 90 5 is_stmt 1 view .LVU552
  90:../Common/IQMath/ti/_IQNlog.c ****     
 1608              		.loc 1 90 16 is_stmt 0 view .LVU553
 1609 001e 01F10041 		add	r1, r1, #-2147483648
 1610              	.LVL204:
  90:../Common/IQMath/ti/_IQNlog.c ****     
 1611              		.loc 1 90 16 view .LVU554
 1612 0022 0131     		adds	r1, r1, #1
 1613              	.LVL205:
  93:../Common/IQMath/ti/_IQNlog.c ****         iq30Result = __mpyf_l(uiq31Input, iq30Result);
 1614              		.loc 1 93 5 is_stmt 1 view .LVU555
  93:../Common/IQMath/ti/_IQNlog.c ****         iq30Result = __mpyf_l(uiq31Input, iq30Result);
 1615              		.loc 1 93 21 is_stmt 0 view .LVU556
 1616 0024 0E25     		movs	r5, #14
  93:../Common/IQMath/ti/_IQNlog.c ****         iq30Result = __mpyf_l(uiq31Input, iq30Result);
 1617              		.loc 1 93 5 view .LVU557
 1618 0026 12E0     		b	.L93
 1619              	.LVL206:
 1620              	.L94:
  94:../Common/IQMath/ti/_IQNlog.c ****         iq30Result += *piq30Coeffs++;
 1621              		.loc 1 94 9 is_stmt 1 view .LVU558
 1622              	.LBB154:
 1623              	.LBI154:
 233:../Common/IQMath/ti/./support/RTS_support.h **** {
 1624              		.loc 2 233 28 view .LVU559
 1625              	.LBB155:
 235:../Common/IQMath/ti/./support/RTS_support.h **** }
 1626              		.loc 2 235 5 view .LVU560
 235:../Common/IQMath/ti/./support/RTS_support.h **** }
 1627              		.loc 2 235 28 is_stmt 0 view .LVU561
 1628 0028 CB17     		asrs	r3, r1, #31
 235:../Common/IQMath/ti/./support/RTS_support.h **** }
 1629              		.loc 2 235 49 view .LVU562
 1630 002a C217     		asrs	r2, r0, #31
 235:../Common/IQMath/ti/./support/RTS_support.h **** }
 1631              		.loc 2 235 47 view .LVU563
 1632 002c 01FB02F2 		mul	r2, r1, r2
 1633 0030 00FB0323 		mla	r3, r0, r3, r2
 1634 0034 A1FB0002 		umull	r0, r2, r1, r0
 1635              	.LVL207:
 235:../Common/IQMath/ti/./support/RTS_support.h **** }
 1636              		.loc 2 235 47 view .LVU564
 1637 0038 1344     		add	r3, r3, r2
 235:../Common/IQMath/ti/./support/RTS_support.h **** }
 1638              		.loc 2 235 69 view .LVU565
 1639 003a C00F     		lsrs	r0, r0, #31
 1640 003c 40EA4300 		orr	r0, r0, r3, lsl #1
 1641              	.LVL208:
 235:../Common/IQMath/ti/./support/RTS_support.h **** }
 1642              		.loc 2 235 69 view .LVU566
 1643              	.LBE155:
 1644              	.LBE154:
  95:../Common/IQMath/ti/_IQNlog.c ****     }
 1645              		.loc 1 95 9 is_stmt 1 view .LVU567
  95:../Common/IQMath/ti/_IQNlog.c ****     }
 1646              		.loc 1 95 35 is_stmt 0 view .LVU568
 1647 0040 2346     		mov	r3, r4
ARM GAS  C:\Users\57308\AppData\Local\Temp\ccxDvd6L.s 			page 46


 1648              	.LVL209:
  95:../Common/IQMath/ti/_IQNlog.c ****     }
 1649              		.loc 1 95 23 view .LVU569
 1650 0042 53F8042B 		ldr	r2, [r3], #4
 1651              	.LVL210:
  95:../Common/IQMath/ti/_IQNlog.c ****     }
 1652              		.loc 1 95 20 view .LVU570
 1653 0046 1044     		add	r0, r0, r2
 1654              	.LVL211:
  93:../Common/IQMath/ti/_IQNlog.c ****         iq30Result = __mpyf_l(uiq31Input, iq30Result);
 1655              		.loc 1 93 55 is_stmt 1 view .LVU571
  93:../Common/IQMath/ti/_IQNlog.c ****         iq30Result = __mpyf_l(uiq31Input, iq30Result);
 1656              		.loc 1 93 65 is_stmt 0 view .LVU572
 1657 0048 013D     		subs	r5, r5, #1
 1658              	.LVL212:
  93:../Common/IQMath/ti/_IQNlog.c ****         iq30Result = __mpyf_l(uiq31Input, iq30Result);
 1659              		.loc 1 93 65 view .LVU573
 1660 004a EDB2     		uxtb	r5, r5
 1661              	.LVL213:
  95:../Common/IQMath/ti/_IQNlog.c ****     }
 1662              		.loc 1 95 35 view .LVU574
 1663 004c 1C46     		mov	r4, r3
 1664              	.LVL214:
 1665              	.L93:
  93:../Common/IQMath/ti/_IQNlog.c ****         iq30Result = __mpyf_l(uiq31Input, iq30Result);
 1666              		.loc 1 93 39 is_stmt 1 view .LVU575
  93:../Common/IQMath/ti/_IQNlog.c ****         iq30Result = __mpyf_l(uiq31Input, iq30Result);
 1667              		.loc 1 93 5 is_stmt 0 view .LVU576
 1668 004e 002D     		cmp	r5, #0
 1669 0050 EAD1     		bne	.L94
  99:../Common/IQMath/ti/_IQNlog.c ****     
 1670              		.loc 1 99 5 is_stmt 1 view .LVU577
  99:../Common/IQMath/ti/_IQNlog.c ****     
 1671              		.loc 1 99 15 is_stmt 0 view .LVU578
 1672 0052 8011     		asrs	r0, r0, #6
 1673              	.LVL215:
 107:../Common/IQMath/ti/_IQNlog.c ****         iqNResult += __mpyf_ul(iq31_ln2, ((int_fast32_t)i16Exp << q_value));
 1674              		.loc 1 107 5 is_stmt 1 view .LVU579
 107:../Common/IQMath/ti/_IQNlog.c ****         iqNResult += __mpyf_ul(iq31_ln2, ((int_fast32_t)i16Exp << q_value));
 1675              		.loc 1 107 8 is_stmt 0 view .LVU580
 1676 0054 BCF1000F 		cmp	ip, #0
 1677 0058 0BDD     		ble	.L95
 108:../Common/IQMath/ti/_IQNlog.c ****     }
 1678              		.loc 1 108 9 is_stmt 1 view .LVU581
 108:../Common/IQMath/ti/_IQNlog.c ****     }
 1679              		.loc 1 108 64 is_stmt 0 view .LVU582
 1680 005a 4FEA0C6C 		lsl	ip, ip, #24
 1681              	.LVL216:
 1682              	.LBB156:
 1683              	.LBI156:
 254:../Common/IQMath/ti/./support/RTS_support.h **** {
 1684              		.loc 2 254 29 is_stmt 1 view .LVU583
 1685              	.LBB157:
 1686              		.loc 2 256 5 view .LVU584
 1687              		.loc 2 256 49 is_stmt 0 view .LVU585
 1688 005e 0C4A     		ldr	r2, .L101+4
 1689 0060 ACFB02C2 		umull	ip, r2, ip, r2
ARM GAS  C:\Users\57308\AppData\Local\Temp\ccxDvd6L.s 			page 47


 1690              	.LVL217:
 1691              		.loc 2 256 72 view .LVU586
 1692 0064 4FEADC73 		lsr	r3, ip, #31
 1693 0068 43EA4203 		orr	r3, r3, r2, lsl #1
 1694              	.LVL218:
 1695              		.loc 2 256 72 view .LVU587
 1696              	.LBE157:
 1697              	.LBE156:
 108:../Common/IQMath/ti/_IQNlog.c ****     }
 1698              		.loc 1 108 19 view .LVU588
 1699 006c 1844     		add	r0, r0, r3
 1700              	.LVL219:
 1701              	.L89:
 108:../Common/IQMath/ti/_IQNlog.c ****     }
 1702              		.loc 1 108 19 view .LVU589
 1703              	.LBE161:
 1704              	.LBE164:
 199:../Common/IQMath/ti/_IQNlog.c **** }
 1705              		.loc 1 199 1 view .LVU590
 1706 006e 30BC     		pop	{r4, r5}
 1707              	.LCFI25:
 1708              		.cfi_remember_state
 1709              		.cfi_restore 5
 1710              		.cfi_restore 4
 1711              		.cfi_def_cfa_offset 0
 1712              	.LVL220:
 1713              		.loc 1 199 1 view .LVU591
 1714 0070 7047     		bx	lr
 1715              	.LVL221:
 1716              	.L95:
 1717              	.LCFI26:
 1718              		.cfi_restore_state
 1719              	.LBB165:
 1720              	.LBB162:
 111:../Common/IQMath/ti/_IQNlog.c ****     }
 1721              		.loc 1 111 9 is_stmt 1 view .LVU592
 111:../Common/IQMath/ti/_IQNlog.c ****     }
 1722              		.loc 1 111 59 is_stmt 0 view .LVU593
 1723 0072 CCF10003 		rsb	r3, ip, #0
 111:../Common/IQMath/ti/_IQNlog.c ****     }
 1724              		.loc 1 111 22 view .LVU594
 1725 0076 1B06     		lsls	r3, r3, #24
 1726              	.LVL222:
 1727              	.LBB158:
 1728              	.LBI158:
 254:../Common/IQMath/ti/./support/RTS_support.h **** {
 1729              		.loc 2 254 29 is_stmt 1 view .LVU595
 1730              	.LBB159:
 1731              		.loc 2 256 5 view .LVU596
 1732              		.loc 2 256 49 is_stmt 0 view .LVU597
 1733 0078 054A     		ldr	r2, .L101+4
 1734 007a A3FB0232 		umull	r3, r2, r3, r2
 1735              	.LVL223:
 1736              		.loc 2 256 72 view .LVU598
 1737 007e DB0F     		lsrs	r3, r3, #31
 1738 0080 43EA4203 		orr	r3, r3, r2, lsl #1
 1739              	.LVL224:
ARM GAS  C:\Users\57308\AppData\Local\Temp\ccxDvd6L.s 			page 48


 1740              		.loc 2 256 72 view .LVU599
 1741              	.LBE159:
 1742              	.LBE158:
 111:../Common/IQMath/ti/_IQNlog.c ****     }
 1743              		.loc 1 111 19 view .LVU600
 1744 0084 C01A     		subs	r0, r0, r3
 1745              	.LVL225:
 111:../Common/IQMath/ti/_IQNlog.c ****     }
 1746              		.loc 1 111 19 view .LVU601
 1747 0086 F2E7     		b	.L89
 1748              	.LVL226:
 1749              	.L96:
 1750              	.LCFI27:
 1751              		.cfi_def_cfa_offset 0
 1752              		.cfi_restore 4
 1753              		.cfi_restore 5
  57:../Common/IQMath/ti/_IQNlog.c ****         }
 1754              		.loc 1 57 20 view .LVU602
 1755 0088 0020     		movs	r0, #0
 1756              	.LVL227:
  57:../Common/IQMath/ti/_IQNlog.c ****         }
 1757              		.loc 1 57 20 view .LVU603
 1758              	.LBE162:
 1759              	.LBE165:
 1760              		.loc 1 199 1 view .LVU604
 1761 008a 7047     		bx	lr
 1762              	.L102:
 1763              		.align	2
 1764              	.L101:
 1765 008c 00000000 		.word	_IQ30log_coeffs
 1766 0090 FC0BB958 		.word	1488522236
 1767              		.cfi_endproc
 1768              	.LFE268:
 1770              		.section	.text._IQ23log,"ax",%progbits
 1771              		.align	1
 1772              		.global	_IQ23log
 1773              		.syntax unified
 1774              		.thumb
 1775              		.thumb_func
 1777              	_IQ23log:
 1778              	.LVL228:
 1779              	.LFB269:
 200:../Common/IQMath/ti/_IQNlog.c **** /**
 201:../Common/IQMath/ti/_IQNlog.c ****  * @brief Computes the base-e logarithm of an IQ23 input.
 202:../Common/IQMath/ti/_IQNlog.c ****  *
 203:../Common/IQMath/ti/_IQNlog.c ****  * @param a                 IQ23 type input.
 204:../Common/IQMath/ti/_IQNlog.c ****  *
 205:../Common/IQMath/ti/_IQNlog.c ****  * @return                  IQ23 type result of exponential.
 206:../Common/IQMath/ti/_IQNlog.c ****  */
 207:../Common/IQMath/ti/_IQNlog.c **** int32_t _IQ23log(int32_t a)
 208:../Common/IQMath/ti/_IQNlog.c **** {
 1780              		.loc 1 208 1 is_stmt 1 view -0
 1781              		.cfi_startproc
 1782              		@ args = 0, pretend = 0, frame = 0
 1783              		@ frame_needed = 0, uses_anonymous_args = 0
 1784              		@ link register save eliminated.
 209:../Common/IQMath/ti/_IQNlog.c ****     return __IQNlog(a, 1, 23);
ARM GAS  C:\Users\57308\AppData\Local\Temp\ccxDvd6L.s 			page 49


 1785              		.loc 1 209 5 view .LVU606
 1786              	.LBB174:
 1787              	.LBI174:
  28:../Common/IQMath/ti/_IQNlog.c **** {
 1788              		.loc 1 28 30 view .LVU607
 1789              	.LBB175:
  30:../Common/IQMath/ti/_IQNlog.c ****     int_fast16_t i16Exp;
 1790              		.loc 1 30 5 view .LVU608
  31:../Common/IQMath/ti/_IQNlog.c ****     uint_fast16_t ui16IntState;
 1791              		.loc 1 31 5 view .LVU609
  32:../Common/IQMath/ti/_IQNlog.c ****     uint_fast16_t ui16MPYState;
 1792              		.loc 1 32 5 view .LVU610
  33:../Common/IQMath/ti/_IQNlog.c ****     int_fast32_t iqNResult;
 1793              		.loc 1 33 5 view .LVU611
  34:../Common/IQMath/ti/_IQNlog.c ****     int_fast32_t iq30Result;
 1794              		.loc 1 34 5 view .LVU612
  35:../Common/IQMath/ti/_IQNlog.c ****     uint_fast32_t uiq31Input;
 1795              		.loc 1 35 5 view .LVU613
  36:../Common/IQMath/ti/_IQNlog.c ****     const uint_fast32_t *piq30Coeffs;
 1796              		.loc 1 36 5 view .LVU614
  37:../Common/IQMath/ti/_IQNlog.c ****     
 1797              		.loc 1 37 5 view .LVU615
  43:../Common/IQMath/ti/_IQNlog.c ****         if (iqNInput <= 0) {
 1798              		.loc 1 43 5 view .LVU616
  56:../Common/IQMath/ti/_IQNlog.c ****             return 0;
 1799              		.loc 1 56 9 view .LVU617
  56:../Common/IQMath/ti/_IQNlog.c ****             return 0;
 1800              		.loc 1 56 12 is_stmt 0 view .LVU618
 1801 0000 011E     		subs	r1, r0, #0
 1802 0002 41DD     		ble	.L110
 1803              	.LBE175:
 1804              	.LBE174:
 208:../Common/IQMath/ti/_IQNlog.c ****     return __IQNlog(a, 1, 23);
 1805              		.loc 1 208 1 view .LVU619
 1806 0004 30B4     		push	{r4, r5}
 1807              	.LCFI28:
 1808              		.cfi_def_cfa_offset 8
 1809              		.cfi_offset 4, -8
 1810              		.cfi_offset 5, -4
 1811              	.LBB185:
 1812              	.LBB182:
  62:../Common/IQMath/ti/_IQNlog.c ****     
 1813              		.loc 1 62 5 is_stmt 1 view .LVU620
 1814              	.LVL229:
  69:../Common/IQMath/ti/_IQNlog.c ****     while (uiq31Input < iq31_twoThird) {
 1815              		.loc 1 69 5 view .LVU621
  70:../Common/IQMath/ti/_IQNlog.c ****         uiq31Input <<= 1;
 1816              		.loc 1 70 5 view .LVU622
  62:../Common/IQMath/ti/_IQNlog.c ****     
 1817              		.loc 1 62 12 is_stmt 0 view .LVU623
 1818 0006 4FF0080C 		mov	ip, #8
  70:../Common/IQMath/ti/_IQNlog.c ****         uiq31Input <<= 1;
 1819              		.loc 1 70 11 view .LVU624
 1820 000a 02E0     		b	.L105
 1821              	.LVL230:
 1822              	.L106:
  71:../Common/IQMath/ti/_IQNlog.c ****         i16Exp--;
ARM GAS  C:\Users\57308\AppData\Local\Temp\ccxDvd6L.s 			page 50


 1823              		.loc 1 71 9 is_stmt 1 view .LVU625
  71:../Common/IQMath/ti/_IQNlog.c ****         i16Exp--;
 1824              		.loc 1 71 20 is_stmt 0 view .LVU626
 1825 000c 4900     		lsls	r1, r1, #1
 1826              	.LVL231:
  72:../Common/IQMath/ti/_IQNlog.c ****     }
 1827              		.loc 1 72 9 is_stmt 1 view .LVU627
  72:../Common/IQMath/ti/_IQNlog.c ****     }
 1828              		.loc 1 72 15 is_stmt 0 view .LVU628
 1829 000e 0CF1FF3C 		add	ip, ip, #-1
 1830              	.LVL232:
 1831              	.L105:
  70:../Common/IQMath/ti/_IQNlog.c ****         uiq31Input <<= 1;
 1832              		.loc 1 70 11 is_stmt 1 view .LVU629
 1833 0012 B1F1553F 		cmp	r1, #1431655765
 1834 0016 F9D3     		bcc	.L106
  81:../Common/IQMath/ti/_IQNlog.c ****     
 1835              		.loc 1 81 5 view .LVU630
 1836              	.LVL233:
  81:../Common/IQMath/ti/_IQNlog.c ****     
 1837              		.loc 1 81 5 is_stmt 0 view .LVU631
 1838              	.LBE182:
 1839              	.LBE185:
  28:../Common/IQMath/ti/./support/RTS_support.h **** }
 1840              		.loc 2 28 5 is_stmt 1 view .LVU632
 1841              	.LBB186:
 1842              	.LBB183:
  88:../Common/IQMath/ti/_IQNlog.c ****     iq30Result = *piq30Coeffs++;
 1843              		.loc 1 88 5 view .LVU633
  89:../Common/IQMath/ti/_IQNlog.c ****     uiq31Input -= iq31_one;
 1844              		.loc 1 89 5 view .LVU634
  89:../Common/IQMath/ti/_IQNlog.c ****     uiq31Input -= iq31_one;
 1845              		.loc 1 89 18 is_stmt 0 view .LVU635
 1846 0018 1C4C     		ldr	r4, .L115
 1847 001a 54F8040B 		ldr	r0, [r4], #4
 1848              	.LVL234:
  90:../Common/IQMath/ti/_IQNlog.c ****     
 1849              		.loc 1 90 5 is_stmt 1 view .LVU636
  90:../Common/IQMath/ti/_IQNlog.c ****     
 1850              		.loc 1 90 16 is_stmt 0 view .LVU637
 1851 001e 01F10041 		add	r1, r1, #-2147483648
 1852              	.LVL235:
  90:../Common/IQMath/ti/_IQNlog.c ****     
 1853              		.loc 1 90 16 view .LVU638
 1854 0022 0131     		adds	r1, r1, #1
 1855              	.LVL236:
  93:../Common/IQMath/ti/_IQNlog.c ****         iq30Result = __mpyf_l(uiq31Input, iq30Result);
 1856              		.loc 1 93 5 is_stmt 1 view .LVU639
  93:../Common/IQMath/ti/_IQNlog.c ****         iq30Result = __mpyf_l(uiq31Input, iq30Result);
 1857              		.loc 1 93 21 is_stmt 0 view .LVU640
 1858 0024 0E25     		movs	r5, #14
  93:../Common/IQMath/ti/_IQNlog.c ****         iq30Result = __mpyf_l(uiq31Input, iq30Result);
 1859              		.loc 1 93 5 view .LVU641
 1860 0026 12E0     		b	.L107
 1861              	.LVL237:
 1862              	.L108:
  94:../Common/IQMath/ti/_IQNlog.c ****         iq30Result += *piq30Coeffs++;
ARM GAS  C:\Users\57308\AppData\Local\Temp\ccxDvd6L.s 			page 51


 1863              		.loc 1 94 9 is_stmt 1 view .LVU642
 1864              	.LBB176:
 1865              	.LBI176:
 233:../Common/IQMath/ti/./support/RTS_support.h **** {
 1866              		.loc 2 233 28 view .LVU643
 1867              	.LBB177:
 235:../Common/IQMath/ti/./support/RTS_support.h **** }
 1868              		.loc 2 235 5 view .LVU644
 235:../Common/IQMath/ti/./support/RTS_support.h **** }
 1869              		.loc 2 235 28 is_stmt 0 view .LVU645
 1870 0028 CB17     		asrs	r3, r1, #31
 235:../Common/IQMath/ti/./support/RTS_support.h **** }
 1871              		.loc 2 235 49 view .LVU646
 1872 002a C217     		asrs	r2, r0, #31
 235:../Common/IQMath/ti/./support/RTS_support.h **** }
 1873              		.loc 2 235 47 view .LVU647
 1874 002c 01FB02F2 		mul	r2, r1, r2
 1875 0030 00FB0323 		mla	r3, r0, r3, r2
 1876 0034 A1FB0002 		umull	r0, r2, r1, r0
 1877              	.LVL238:
 235:../Common/IQMath/ti/./support/RTS_support.h **** }
 1878              		.loc 2 235 47 view .LVU648
 1879 0038 1344     		add	r3, r3, r2
 235:../Common/IQMath/ti/./support/RTS_support.h **** }
 1880              		.loc 2 235 69 view .LVU649
 1881 003a C00F     		lsrs	r0, r0, #31
 1882 003c 40EA4300 		orr	r0, r0, r3, lsl #1
 1883              	.LVL239:
 235:../Common/IQMath/ti/./support/RTS_support.h **** }
 1884              		.loc 2 235 69 view .LVU650
 1885              	.LBE177:
 1886              	.LBE176:
  95:../Common/IQMath/ti/_IQNlog.c ****     }
 1887              		.loc 1 95 9 is_stmt 1 view .LVU651
  95:../Common/IQMath/ti/_IQNlog.c ****     }
 1888              		.loc 1 95 35 is_stmt 0 view .LVU652
 1889 0040 2346     		mov	r3, r4
 1890              	.LVL240:
  95:../Common/IQMath/ti/_IQNlog.c ****     }
 1891              		.loc 1 95 23 view .LVU653
 1892 0042 53F8042B 		ldr	r2, [r3], #4
 1893              	.LVL241:
  95:../Common/IQMath/ti/_IQNlog.c ****     }
 1894              		.loc 1 95 20 view .LVU654
 1895 0046 1044     		add	r0, r0, r2
 1896              	.LVL242:
  93:../Common/IQMath/ti/_IQNlog.c ****         iq30Result = __mpyf_l(uiq31Input, iq30Result);
 1897              		.loc 1 93 55 is_stmt 1 view .LVU655
  93:../Common/IQMath/ti/_IQNlog.c ****         iq30Result = __mpyf_l(uiq31Input, iq30Result);
 1898              		.loc 1 93 65 is_stmt 0 view .LVU656
 1899 0048 013D     		subs	r5, r5, #1
 1900              	.LVL243:
  93:../Common/IQMath/ti/_IQNlog.c ****         iq30Result = __mpyf_l(uiq31Input, iq30Result);
 1901              		.loc 1 93 65 view .LVU657
 1902 004a EDB2     		uxtb	r5, r5
 1903              	.LVL244:
  95:../Common/IQMath/ti/_IQNlog.c ****     }
ARM GAS  C:\Users\57308\AppData\Local\Temp\ccxDvd6L.s 			page 52


 1904              		.loc 1 95 35 view .LVU658
 1905 004c 1C46     		mov	r4, r3
 1906              	.LVL245:
 1907              	.L107:
  93:../Common/IQMath/ti/_IQNlog.c ****         iq30Result = __mpyf_l(uiq31Input, iq30Result);
 1908              		.loc 1 93 39 is_stmt 1 view .LVU659
  93:../Common/IQMath/ti/_IQNlog.c ****         iq30Result = __mpyf_l(uiq31Input, iq30Result);
 1909              		.loc 1 93 5 is_stmt 0 view .LVU660
 1910 004e 002D     		cmp	r5, #0
 1911 0050 EAD1     		bne	.L108
  99:../Common/IQMath/ti/_IQNlog.c ****     
 1912              		.loc 1 99 5 is_stmt 1 view .LVU661
  99:../Common/IQMath/ti/_IQNlog.c ****     
 1913              		.loc 1 99 15 is_stmt 0 view .LVU662
 1914 0052 C011     		asrs	r0, r0, #7
 1915              	.LVL246:
 107:../Common/IQMath/ti/_IQNlog.c ****         iqNResult += __mpyf_ul(iq31_ln2, ((int_fast32_t)i16Exp << q_value));
 1916              		.loc 1 107 5 is_stmt 1 view .LVU663
 107:../Common/IQMath/ti/_IQNlog.c ****         iqNResult += __mpyf_ul(iq31_ln2, ((int_fast32_t)i16Exp << q_value));
 1917              		.loc 1 107 8 is_stmt 0 view .LVU664
 1918 0054 BCF1000F 		cmp	ip, #0
 1919 0058 0BDD     		ble	.L109
 108:../Common/IQMath/ti/_IQNlog.c ****     }
 1920              		.loc 1 108 9 is_stmt 1 view .LVU665
 108:../Common/IQMath/ti/_IQNlog.c ****     }
 1921              		.loc 1 108 64 is_stmt 0 view .LVU666
 1922 005a 4FEACC5C 		lsl	ip, ip, #23
 1923              	.LVL247:
 1924              	.LBB178:
 1925              	.LBI178:
 254:../Common/IQMath/ti/./support/RTS_support.h **** {
 1926              		.loc 2 254 29 is_stmt 1 view .LVU667
 1927              	.LBB179:
 1928              		.loc 2 256 5 view .LVU668
 1929              		.loc 2 256 49 is_stmt 0 view .LVU669
 1930 005e 0C4A     		ldr	r2, .L115+4
 1931 0060 ACFB02C2 		umull	ip, r2, ip, r2
 1932              	.LVL248:
 1933              		.loc 2 256 72 view .LVU670
 1934 0064 4FEADC73 		lsr	r3, ip, #31
 1935 0068 43EA4203 		orr	r3, r3, r2, lsl #1
 1936              	.LVL249:
 1937              		.loc 2 256 72 view .LVU671
 1938              	.LBE179:
 1939              	.LBE178:
 108:../Common/IQMath/ti/_IQNlog.c ****     }
 1940              		.loc 1 108 19 view .LVU672
 1941 006c 1844     		add	r0, r0, r3
 1942              	.LVL250:
 1943              	.L103:
 108:../Common/IQMath/ti/_IQNlog.c ****     }
 1944              		.loc 1 108 19 view .LVU673
 1945              	.LBE183:
 1946              	.LBE186:
 210:../Common/IQMath/ti/_IQNlog.c **** }
 1947              		.loc 1 210 1 view .LVU674
 1948 006e 30BC     		pop	{r4, r5}
ARM GAS  C:\Users\57308\AppData\Local\Temp\ccxDvd6L.s 			page 53


 1949              	.LCFI29:
 1950              		.cfi_remember_state
 1951              		.cfi_restore 5
 1952              		.cfi_restore 4
 1953              		.cfi_def_cfa_offset 0
 1954              	.LVL251:
 1955              		.loc 1 210 1 view .LVU675
 1956 0070 7047     		bx	lr
 1957              	.LVL252:
 1958              	.L109:
 1959              	.LCFI30:
 1960              		.cfi_restore_state
 1961              	.LBB187:
 1962              	.LBB184:
 111:../Common/IQMath/ti/_IQNlog.c ****     }
 1963              		.loc 1 111 9 is_stmt 1 view .LVU676
 111:../Common/IQMath/ti/_IQNlog.c ****     }
 1964              		.loc 1 111 59 is_stmt 0 view .LVU677
 1965 0072 CCF10003 		rsb	r3, ip, #0
 111:../Common/IQMath/ti/_IQNlog.c ****     }
 1966              		.loc 1 111 22 view .LVU678
 1967 0076 DB05     		lsls	r3, r3, #23
 1968              	.LVL253:
 1969              	.LBB180:
 1970              	.LBI180:
 254:../Common/IQMath/ti/./support/RTS_support.h **** {
 1971              		.loc 2 254 29 is_stmt 1 view .LVU679
 1972              	.LBB181:
 1973              		.loc 2 256 5 view .LVU680
 1974              		.loc 2 256 49 is_stmt 0 view .LVU681
 1975 0078 054A     		ldr	r2, .L115+4
 1976 007a A3FB0232 		umull	r3, r2, r3, r2
 1977              	.LVL254:
 1978              		.loc 2 256 72 view .LVU682
 1979 007e DB0F     		lsrs	r3, r3, #31
 1980 0080 43EA4203 		orr	r3, r3, r2, lsl #1
 1981              	.LVL255:
 1982              		.loc 2 256 72 view .LVU683
 1983              	.LBE181:
 1984              	.LBE180:
 111:../Common/IQMath/ti/_IQNlog.c ****     }
 1985              		.loc 1 111 19 view .LVU684
 1986 0084 C01A     		subs	r0, r0, r3
 1987              	.LVL256:
 111:../Common/IQMath/ti/_IQNlog.c ****     }
 1988              		.loc 1 111 19 view .LVU685
 1989 0086 F2E7     		b	.L103
 1990              	.LVL257:
 1991              	.L110:
 1992              	.LCFI31:
 1993              		.cfi_def_cfa_offset 0
 1994              		.cfi_restore 4
 1995              		.cfi_restore 5
  57:../Common/IQMath/ti/_IQNlog.c ****         }
 1996              		.loc 1 57 20 view .LVU686
 1997 0088 0020     		movs	r0, #0
 1998              	.LVL258:
ARM GAS  C:\Users\57308\AppData\Local\Temp\ccxDvd6L.s 			page 54


  57:../Common/IQMath/ti/_IQNlog.c ****         }
 1999              		.loc 1 57 20 view .LVU687
 2000              	.LBE184:
 2001              	.LBE187:
 2002              		.loc 1 210 1 view .LVU688
 2003 008a 7047     		bx	lr
 2004              	.L116:
 2005              		.align	2
 2006              	.L115:
 2007 008c 00000000 		.word	_IQ30log_coeffs
 2008 0090 FC0BB958 		.word	1488522236
 2009              		.cfi_endproc
 2010              	.LFE269:
 2012              		.section	.text._IQ22log,"ax",%progbits
 2013              		.align	1
 2014              		.global	_IQ22log
 2015              		.syntax unified
 2016              		.thumb
 2017              		.thumb_func
 2019              	_IQ22log:
 2020              	.LVL259:
 2021              	.LFB270:
 211:../Common/IQMath/ti/_IQNlog.c **** /**
 212:../Common/IQMath/ti/_IQNlog.c ****  * @brief Computes the base-e logarithm of an IQ22 input.
 213:../Common/IQMath/ti/_IQNlog.c ****  *
 214:../Common/IQMath/ti/_IQNlog.c ****  * @param a                 IQ22 type input.
 215:../Common/IQMath/ti/_IQNlog.c ****  *
 216:../Common/IQMath/ti/_IQNlog.c ****  * @return                  IQ22 type result of exponential.
 217:../Common/IQMath/ti/_IQNlog.c ****  */
 218:../Common/IQMath/ti/_IQNlog.c **** int32_t _IQ22log(int32_t a)
 219:../Common/IQMath/ti/_IQNlog.c **** {
 2022              		.loc 1 219 1 is_stmt 1 view -0
 2023              		.cfi_startproc
 2024              		@ args = 0, pretend = 0, frame = 0
 2025              		@ frame_needed = 0, uses_anonymous_args = 0
 2026              		@ link register save eliminated.
 220:../Common/IQMath/ti/_IQNlog.c ****     return __IQNlog(a, 1, 22);
 2027              		.loc 1 220 5 view .LVU690
 2028              	.LBB196:
 2029              	.LBI196:
  28:../Common/IQMath/ti/_IQNlog.c **** {
 2030              		.loc 1 28 30 view .LVU691
 2031              	.LBB197:
  30:../Common/IQMath/ti/_IQNlog.c ****     int_fast16_t i16Exp;
 2032              		.loc 1 30 5 view .LVU692
  31:../Common/IQMath/ti/_IQNlog.c ****     uint_fast16_t ui16IntState;
 2033              		.loc 1 31 5 view .LVU693
  32:../Common/IQMath/ti/_IQNlog.c ****     uint_fast16_t ui16MPYState;
 2034              		.loc 1 32 5 view .LVU694
  33:../Common/IQMath/ti/_IQNlog.c ****     int_fast32_t iqNResult;
 2035              		.loc 1 33 5 view .LVU695
  34:../Common/IQMath/ti/_IQNlog.c ****     int_fast32_t iq30Result;
 2036              		.loc 1 34 5 view .LVU696
  35:../Common/IQMath/ti/_IQNlog.c ****     uint_fast32_t uiq31Input;
 2037              		.loc 1 35 5 view .LVU697
  36:../Common/IQMath/ti/_IQNlog.c ****     const uint_fast32_t *piq30Coeffs;
 2038              		.loc 1 36 5 view .LVU698
ARM GAS  C:\Users\57308\AppData\Local\Temp\ccxDvd6L.s 			page 55


  37:../Common/IQMath/ti/_IQNlog.c ****     
 2039              		.loc 1 37 5 view .LVU699
  43:../Common/IQMath/ti/_IQNlog.c ****         if (iqNInput <= 0) {
 2040              		.loc 1 43 5 view .LVU700
  56:../Common/IQMath/ti/_IQNlog.c ****             return 0;
 2041              		.loc 1 56 9 view .LVU701
  56:../Common/IQMath/ti/_IQNlog.c ****             return 0;
 2042              		.loc 1 56 12 is_stmt 0 view .LVU702
 2043 0000 011E     		subs	r1, r0, #0
 2044 0002 41DD     		ble	.L124
 2045              	.LBE197:
 2046              	.LBE196:
 219:../Common/IQMath/ti/_IQNlog.c ****     return __IQNlog(a, 1, 22);
 2047              		.loc 1 219 1 view .LVU703
 2048 0004 30B4     		push	{r4, r5}
 2049              	.LCFI32:
 2050              		.cfi_def_cfa_offset 8
 2051              		.cfi_offset 4, -8
 2052              		.cfi_offset 5, -4
 2053              	.LBB207:
 2054              	.LBB204:
  62:../Common/IQMath/ti/_IQNlog.c ****     
 2055              		.loc 1 62 5 is_stmt 1 view .LVU704
 2056              	.LVL260:
  69:../Common/IQMath/ti/_IQNlog.c ****     while (uiq31Input < iq31_twoThird) {
 2057              		.loc 1 69 5 view .LVU705
  70:../Common/IQMath/ti/_IQNlog.c ****         uiq31Input <<= 1;
 2058              		.loc 1 70 5 view .LVU706
  62:../Common/IQMath/ti/_IQNlog.c ****     
 2059              		.loc 1 62 12 is_stmt 0 view .LVU707
 2060 0006 4FF0090C 		mov	ip, #9
  70:../Common/IQMath/ti/_IQNlog.c ****         uiq31Input <<= 1;
 2061              		.loc 1 70 11 view .LVU708
 2062 000a 02E0     		b	.L119
 2063              	.LVL261:
 2064              	.L120:
  71:../Common/IQMath/ti/_IQNlog.c ****         i16Exp--;
 2065              		.loc 1 71 9 is_stmt 1 view .LVU709
  71:../Common/IQMath/ti/_IQNlog.c ****         i16Exp--;
 2066              		.loc 1 71 20 is_stmt 0 view .LVU710
 2067 000c 4900     		lsls	r1, r1, #1
 2068              	.LVL262:
  72:../Common/IQMath/ti/_IQNlog.c ****     }
 2069              		.loc 1 72 9 is_stmt 1 view .LVU711
  72:../Common/IQMath/ti/_IQNlog.c ****     }
 2070              		.loc 1 72 15 is_stmt 0 view .LVU712
 2071 000e 0CF1FF3C 		add	ip, ip, #-1
 2072              	.LVL263:
 2073              	.L119:
  70:../Common/IQMath/ti/_IQNlog.c ****         uiq31Input <<= 1;
 2074              		.loc 1 70 11 is_stmt 1 view .LVU713
 2075 0012 B1F1553F 		cmp	r1, #1431655765
 2076 0016 F9D3     		bcc	.L120
  81:../Common/IQMath/ti/_IQNlog.c ****     
 2077              		.loc 1 81 5 view .LVU714
 2078              	.LVL264:
  81:../Common/IQMath/ti/_IQNlog.c ****     
ARM GAS  C:\Users\57308\AppData\Local\Temp\ccxDvd6L.s 			page 56


 2079              		.loc 1 81 5 is_stmt 0 view .LVU715
 2080              	.LBE204:
 2081              	.LBE207:
  28:../Common/IQMath/ti/./support/RTS_support.h **** }
 2082              		.loc 2 28 5 is_stmt 1 view .LVU716
 2083              	.LBB208:
 2084              	.LBB205:
  88:../Common/IQMath/ti/_IQNlog.c ****     iq30Result = *piq30Coeffs++;
 2085              		.loc 1 88 5 view .LVU717
  89:../Common/IQMath/ti/_IQNlog.c ****     uiq31Input -= iq31_one;
 2086              		.loc 1 89 5 view .LVU718
  89:../Common/IQMath/ti/_IQNlog.c ****     uiq31Input -= iq31_one;
 2087              		.loc 1 89 18 is_stmt 0 view .LVU719
 2088 0018 1C4C     		ldr	r4, .L129
 2089 001a 54F8040B 		ldr	r0, [r4], #4
 2090              	.LVL265:
  90:../Common/IQMath/ti/_IQNlog.c ****     
 2091              		.loc 1 90 5 is_stmt 1 view .LVU720
  90:../Common/IQMath/ti/_IQNlog.c ****     
 2092              		.loc 1 90 16 is_stmt 0 view .LVU721
 2093 001e 01F10041 		add	r1, r1, #-2147483648
 2094              	.LVL266:
  90:../Common/IQMath/ti/_IQNlog.c ****     
 2095              		.loc 1 90 16 view .LVU722
 2096 0022 0131     		adds	r1, r1, #1
 2097              	.LVL267:
  93:../Common/IQMath/ti/_IQNlog.c ****         iq30Result = __mpyf_l(uiq31Input, iq30Result);
 2098              		.loc 1 93 5 is_stmt 1 view .LVU723
  93:../Common/IQMath/ti/_IQNlog.c ****         iq30Result = __mpyf_l(uiq31Input, iq30Result);
 2099              		.loc 1 93 21 is_stmt 0 view .LVU724
 2100 0024 0E25     		movs	r5, #14
  93:../Common/IQMath/ti/_IQNlog.c ****         iq30Result = __mpyf_l(uiq31Input, iq30Result);
 2101              		.loc 1 93 5 view .LVU725
 2102 0026 12E0     		b	.L121
 2103              	.LVL268:
 2104              	.L122:
  94:../Common/IQMath/ti/_IQNlog.c ****         iq30Result += *piq30Coeffs++;
 2105              		.loc 1 94 9 is_stmt 1 view .LVU726
 2106              	.LBB198:
 2107              	.LBI198:
 233:../Common/IQMath/ti/./support/RTS_support.h **** {
 2108              		.loc 2 233 28 view .LVU727
 2109              	.LBB199:
 235:../Common/IQMath/ti/./support/RTS_support.h **** }
 2110              		.loc 2 235 5 view .LVU728
 235:../Common/IQMath/ti/./support/RTS_support.h **** }
 2111              		.loc 2 235 28 is_stmt 0 view .LVU729
 2112 0028 CB17     		asrs	r3, r1, #31
 235:../Common/IQMath/ti/./support/RTS_support.h **** }
 2113              		.loc 2 235 49 view .LVU730
 2114 002a C217     		asrs	r2, r0, #31
 235:../Common/IQMath/ti/./support/RTS_support.h **** }
 2115              		.loc 2 235 47 view .LVU731
 2116 002c 01FB02F2 		mul	r2, r1, r2
 2117 0030 00FB0323 		mla	r3, r0, r3, r2
 2118 0034 A1FB0002 		umull	r0, r2, r1, r0
 2119              	.LVL269:
ARM GAS  C:\Users\57308\AppData\Local\Temp\ccxDvd6L.s 			page 57


 235:../Common/IQMath/ti/./support/RTS_support.h **** }
 2120              		.loc 2 235 47 view .LVU732
 2121 0038 1344     		add	r3, r3, r2
 235:../Common/IQMath/ti/./support/RTS_support.h **** }
 2122              		.loc 2 235 69 view .LVU733
 2123 003a C00F     		lsrs	r0, r0, #31
 2124 003c 40EA4300 		orr	r0, r0, r3, lsl #1
 2125              	.LVL270:
 235:../Common/IQMath/ti/./support/RTS_support.h **** }
 2126              		.loc 2 235 69 view .LVU734
 2127              	.LBE199:
 2128              	.LBE198:
  95:../Common/IQMath/ti/_IQNlog.c ****     }
 2129              		.loc 1 95 9 is_stmt 1 view .LVU735
  95:../Common/IQMath/ti/_IQNlog.c ****     }
 2130              		.loc 1 95 35 is_stmt 0 view .LVU736
 2131 0040 2346     		mov	r3, r4
 2132              	.LVL271:
  95:../Common/IQMath/ti/_IQNlog.c ****     }
 2133              		.loc 1 95 23 view .LVU737
 2134 0042 53F8042B 		ldr	r2, [r3], #4
 2135              	.LVL272:
  95:../Common/IQMath/ti/_IQNlog.c ****     }
 2136              		.loc 1 95 20 view .LVU738
 2137 0046 1044     		add	r0, r0, r2
 2138              	.LVL273:
  93:../Common/IQMath/ti/_IQNlog.c ****         iq30Result = __mpyf_l(uiq31Input, iq30Result);
 2139              		.loc 1 93 55 is_stmt 1 view .LVU739
  93:../Common/IQMath/ti/_IQNlog.c ****         iq30Result = __mpyf_l(uiq31Input, iq30Result);
 2140              		.loc 1 93 65 is_stmt 0 view .LVU740
 2141 0048 013D     		subs	r5, r5, #1
 2142              	.LVL274:
  93:../Common/IQMath/ti/_IQNlog.c ****         iq30Result = __mpyf_l(uiq31Input, iq30Result);
 2143              		.loc 1 93 65 view .LVU741
 2144 004a EDB2     		uxtb	r5, r5
 2145              	.LVL275:
  95:../Common/IQMath/ti/_IQNlog.c ****     }
 2146              		.loc 1 95 35 view .LVU742
 2147 004c 1C46     		mov	r4, r3
 2148              	.LVL276:
 2149              	.L121:
  93:../Common/IQMath/ti/_IQNlog.c ****         iq30Result = __mpyf_l(uiq31Input, iq30Result);
 2150              		.loc 1 93 39 is_stmt 1 view .LVU743
  93:../Common/IQMath/ti/_IQNlog.c ****         iq30Result = __mpyf_l(uiq31Input, iq30Result);
 2151              		.loc 1 93 5 is_stmt 0 view .LVU744
 2152 004e 002D     		cmp	r5, #0
 2153 0050 EAD1     		bne	.L122
  99:../Common/IQMath/ti/_IQNlog.c ****     
 2154              		.loc 1 99 5 is_stmt 1 view .LVU745
  99:../Common/IQMath/ti/_IQNlog.c ****     
 2155              		.loc 1 99 15 is_stmt 0 view .LVU746
 2156 0052 0012     		asrs	r0, r0, #8
 2157              	.LVL277:
 107:../Common/IQMath/ti/_IQNlog.c ****         iqNResult += __mpyf_ul(iq31_ln2, ((int_fast32_t)i16Exp << q_value));
 2158              		.loc 1 107 5 is_stmt 1 view .LVU747
 107:../Common/IQMath/ti/_IQNlog.c ****         iqNResult += __mpyf_ul(iq31_ln2, ((int_fast32_t)i16Exp << q_value));
 2159              		.loc 1 107 8 is_stmt 0 view .LVU748
ARM GAS  C:\Users\57308\AppData\Local\Temp\ccxDvd6L.s 			page 58


 2160 0054 BCF1000F 		cmp	ip, #0
 2161 0058 0BDD     		ble	.L123
 108:../Common/IQMath/ti/_IQNlog.c ****     }
 2162              		.loc 1 108 9 is_stmt 1 view .LVU749
 108:../Common/IQMath/ti/_IQNlog.c ****     }
 2163              		.loc 1 108 64 is_stmt 0 view .LVU750
 2164 005a 4FEA8C5C 		lsl	ip, ip, #22
 2165              	.LVL278:
 2166              	.LBB200:
 2167              	.LBI200:
 254:../Common/IQMath/ti/./support/RTS_support.h **** {
 2168              		.loc 2 254 29 is_stmt 1 view .LVU751
 2169              	.LBB201:
 2170              		.loc 2 256 5 view .LVU752
 2171              		.loc 2 256 49 is_stmt 0 view .LVU753
 2172 005e 0C4A     		ldr	r2, .L129+4
 2173 0060 ACFB02C2 		umull	ip, r2, ip, r2
 2174              	.LVL279:
 2175              		.loc 2 256 72 view .LVU754
 2176 0064 4FEADC73 		lsr	r3, ip, #31
 2177 0068 43EA4203 		orr	r3, r3, r2, lsl #1
 2178              	.LVL280:
 2179              		.loc 2 256 72 view .LVU755
 2180              	.LBE201:
 2181              	.LBE200:
 108:../Common/IQMath/ti/_IQNlog.c ****     }
 2182              		.loc 1 108 19 view .LVU756
 2183 006c 1844     		add	r0, r0, r3
 2184              	.LVL281:
 2185              	.L117:
 108:../Common/IQMath/ti/_IQNlog.c ****     }
 2186              		.loc 1 108 19 view .LVU757
 2187              	.LBE205:
 2188              	.LBE208:
 221:../Common/IQMath/ti/_IQNlog.c **** }
 2189              		.loc 1 221 1 view .LVU758
 2190 006e 30BC     		pop	{r4, r5}
 2191              	.LCFI33:
 2192              		.cfi_remember_state
 2193              		.cfi_restore 5
 2194              		.cfi_restore 4
 2195              		.cfi_def_cfa_offset 0
 2196              	.LVL282:
 2197              		.loc 1 221 1 view .LVU759
 2198 0070 7047     		bx	lr
 2199              	.LVL283:
 2200              	.L123:
 2201              	.LCFI34:
 2202              		.cfi_restore_state
 2203              	.LBB209:
 2204              	.LBB206:
 111:../Common/IQMath/ti/_IQNlog.c ****     }
 2205              		.loc 1 111 9 is_stmt 1 view .LVU760
 111:../Common/IQMath/ti/_IQNlog.c ****     }
 2206              		.loc 1 111 59 is_stmt 0 view .LVU761
 2207 0072 CCF10003 		rsb	r3, ip, #0
 111:../Common/IQMath/ti/_IQNlog.c ****     }
ARM GAS  C:\Users\57308\AppData\Local\Temp\ccxDvd6L.s 			page 59


 2208              		.loc 1 111 22 view .LVU762
 2209 0076 9B05     		lsls	r3, r3, #22
 2210              	.LVL284:
 2211              	.LBB202:
 2212              	.LBI202:
 254:../Common/IQMath/ti/./support/RTS_support.h **** {
 2213              		.loc 2 254 29 is_stmt 1 view .LVU763
 2214              	.LBB203:
 2215              		.loc 2 256 5 view .LVU764
 2216              		.loc 2 256 49 is_stmt 0 view .LVU765
 2217 0078 054A     		ldr	r2, .L129+4
 2218 007a A3FB0232 		umull	r3, r2, r3, r2
 2219              	.LVL285:
 2220              		.loc 2 256 72 view .LVU766
 2221 007e DB0F     		lsrs	r3, r3, #31
 2222 0080 43EA4203 		orr	r3, r3, r2, lsl #1
 2223              	.LVL286:
 2224              		.loc 2 256 72 view .LVU767
 2225              	.LBE203:
 2226              	.LBE202:
 111:../Common/IQMath/ti/_IQNlog.c ****     }
 2227              		.loc 1 111 19 view .LVU768
 2228 0084 C01A     		subs	r0, r0, r3
 2229              	.LVL287:
 111:../Common/IQMath/ti/_IQNlog.c ****     }
 2230              		.loc 1 111 19 view .LVU769
 2231 0086 F2E7     		b	.L117
 2232              	.LVL288:
 2233              	.L124:
 2234              	.LCFI35:
 2235              		.cfi_def_cfa_offset 0
 2236              		.cfi_restore 4
 2237              		.cfi_restore 5
  57:../Common/IQMath/ti/_IQNlog.c ****         }
 2238              		.loc 1 57 20 view .LVU770
 2239 0088 0020     		movs	r0, #0
 2240              	.LVL289:
  57:../Common/IQMath/ti/_IQNlog.c ****         }
 2241              		.loc 1 57 20 view .LVU771
 2242              	.LBE206:
 2243              	.LBE209:
 2244              		.loc 1 221 1 view .LVU772
 2245 008a 7047     		bx	lr
 2246              	.L130:
 2247              		.align	2
 2248              	.L129:
 2249 008c 00000000 		.word	_IQ30log_coeffs
 2250 0090 FC0BB958 		.word	1488522236
 2251              		.cfi_endproc
 2252              	.LFE270:
 2254              		.section	.text._IQ21log,"ax",%progbits
 2255              		.align	1
 2256              		.global	_IQ21log
 2257              		.syntax unified
 2258              		.thumb
 2259              		.thumb_func
 2261              	_IQ21log:
ARM GAS  C:\Users\57308\AppData\Local\Temp\ccxDvd6L.s 			page 60


 2262              	.LVL290:
 2263              	.LFB271:
 222:../Common/IQMath/ti/_IQNlog.c **** /**
 223:../Common/IQMath/ti/_IQNlog.c ****  * @brief Computes the base-e logarithm of an IQ21 input.
 224:../Common/IQMath/ti/_IQNlog.c ****  *
 225:../Common/IQMath/ti/_IQNlog.c ****  * @param a                 IQ21 type input.
 226:../Common/IQMath/ti/_IQNlog.c ****  *
 227:../Common/IQMath/ti/_IQNlog.c ****  * @return                  IQ21 type result of exponential.
 228:../Common/IQMath/ti/_IQNlog.c ****  */
 229:../Common/IQMath/ti/_IQNlog.c **** int32_t _IQ21log(int32_t a)
 230:../Common/IQMath/ti/_IQNlog.c **** {
 2264              		.loc 1 230 1 is_stmt 1 view -0
 2265              		.cfi_startproc
 2266              		@ args = 0, pretend = 0, frame = 0
 2267              		@ frame_needed = 0, uses_anonymous_args = 0
 2268              		@ link register save eliminated.
 231:../Common/IQMath/ti/_IQNlog.c ****     return __IQNlog(a, 1, 21);
 2269              		.loc 1 231 5 view .LVU774
 2270              	.LBB218:
 2271              	.LBI218:
  28:../Common/IQMath/ti/_IQNlog.c **** {
 2272              		.loc 1 28 30 view .LVU775
 2273              	.LBB219:
  30:../Common/IQMath/ti/_IQNlog.c ****     int_fast16_t i16Exp;
 2274              		.loc 1 30 5 view .LVU776
  31:../Common/IQMath/ti/_IQNlog.c ****     uint_fast16_t ui16IntState;
 2275              		.loc 1 31 5 view .LVU777
  32:../Common/IQMath/ti/_IQNlog.c ****     uint_fast16_t ui16MPYState;
 2276              		.loc 1 32 5 view .LVU778
  33:../Common/IQMath/ti/_IQNlog.c ****     int_fast32_t iqNResult;
 2277              		.loc 1 33 5 view .LVU779
  34:../Common/IQMath/ti/_IQNlog.c ****     int_fast32_t iq30Result;
 2278              		.loc 1 34 5 view .LVU780
  35:../Common/IQMath/ti/_IQNlog.c ****     uint_fast32_t uiq31Input;
 2279              		.loc 1 35 5 view .LVU781
  36:../Common/IQMath/ti/_IQNlog.c ****     const uint_fast32_t *piq30Coeffs;
 2280              		.loc 1 36 5 view .LVU782
  37:../Common/IQMath/ti/_IQNlog.c ****     
 2281              		.loc 1 37 5 view .LVU783
  43:../Common/IQMath/ti/_IQNlog.c ****         if (iqNInput <= 0) {
 2282              		.loc 1 43 5 view .LVU784
  56:../Common/IQMath/ti/_IQNlog.c ****             return 0;
 2283              		.loc 1 56 9 view .LVU785
  56:../Common/IQMath/ti/_IQNlog.c ****             return 0;
 2284              		.loc 1 56 12 is_stmt 0 view .LVU786
 2285 0000 011E     		subs	r1, r0, #0
 2286 0002 41DD     		ble	.L138
 2287              	.LBE219:
 2288              	.LBE218:
 230:../Common/IQMath/ti/_IQNlog.c ****     return __IQNlog(a, 1, 21);
 2289              		.loc 1 230 1 view .LVU787
 2290 0004 30B4     		push	{r4, r5}
 2291              	.LCFI36:
 2292              		.cfi_def_cfa_offset 8
 2293              		.cfi_offset 4, -8
 2294              		.cfi_offset 5, -4
 2295              	.LBB229:
ARM GAS  C:\Users\57308\AppData\Local\Temp\ccxDvd6L.s 			page 61


 2296              	.LBB226:
  62:../Common/IQMath/ti/_IQNlog.c ****     
 2297              		.loc 1 62 5 is_stmt 1 view .LVU788
 2298              	.LVL291:
  69:../Common/IQMath/ti/_IQNlog.c ****     while (uiq31Input < iq31_twoThird) {
 2299              		.loc 1 69 5 view .LVU789
  70:../Common/IQMath/ti/_IQNlog.c ****         uiq31Input <<= 1;
 2300              		.loc 1 70 5 view .LVU790
  62:../Common/IQMath/ti/_IQNlog.c ****     
 2301              		.loc 1 62 12 is_stmt 0 view .LVU791
 2302 0006 4FF00A0C 		mov	ip, #10
  70:../Common/IQMath/ti/_IQNlog.c ****         uiq31Input <<= 1;
 2303              		.loc 1 70 11 view .LVU792
 2304 000a 02E0     		b	.L133
 2305              	.LVL292:
 2306              	.L134:
  71:../Common/IQMath/ti/_IQNlog.c ****         i16Exp--;
 2307              		.loc 1 71 9 is_stmt 1 view .LVU793
  71:../Common/IQMath/ti/_IQNlog.c ****         i16Exp--;
 2308              		.loc 1 71 20 is_stmt 0 view .LVU794
 2309 000c 4900     		lsls	r1, r1, #1
 2310              	.LVL293:
  72:../Common/IQMath/ti/_IQNlog.c ****     }
 2311              		.loc 1 72 9 is_stmt 1 view .LVU795
  72:../Common/IQMath/ti/_IQNlog.c ****     }
 2312              		.loc 1 72 15 is_stmt 0 view .LVU796
 2313 000e 0CF1FF3C 		add	ip, ip, #-1
 2314              	.LVL294:
 2315              	.L133:
  70:../Common/IQMath/ti/_IQNlog.c ****         uiq31Input <<= 1;
 2316              		.loc 1 70 11 is_stmt 1 view .LVU797
 2317 0012 B1F1553F 		cmp	r1, #1431655765
 2318 0016 F9D3     		bcc	.L134
  81:../Common/IQMath/ti/_IQNlog.c ****     
 2319              		.loc 1 81 5 view .LVU798
 2320              	.LVL295:
  81:../Common/IQMath/ti/_IQNlog.c ****     
 2321              		.loc 1 81 5 is_stmt 0 view .LVU799
 2322              	.LBE226:
 2323              	.LBE229:
  28:../Common/IQMath/ti/./support/RTS_support.h **** }
 2324              		.loc 2 28 5 is_stmt 1 view .LVU800
 2325              	.LBB230:
 2326              	.LBB227:
  88:../Common/IQMath/ti/_IQNlog.c ****     iq30Result = *piq30Coeffs++;
 2327              		.loc 1 88 5 view .LVU801
  89:../Common/IQMath/ti/_IQNlog.c ****     uiq31Input -= iq31_one;
 2328              		.loc 1 89 5 view .LVU802
  89:../Common/IQMath/ti/_IQNlog.c ****     uiq31Input -= iq31_one;
 2329              		.loc 1 89 18 is_stmt 0 view .LVU803
 2330 0018 1C4C     		ldr	r4, .L143
 2331 001a 54F8040B 		ldr	r0, [r4], #4
 2332              	.LVL296:
  90:../Common/IQMath/ti/_IQNlog.c ****     
 2333              		.loc 1 90 5 is_stmt 1 view .LVU804
  90:../Common/IQMath/ti/_IQNlog.c ****     
 2334              		.loc 1 90 16 is_stmt 0 view .LVU805
ARM GAS  C:\Users\57308\AppData\Local\Temp\ccxDvd6L.s 			page 62


 2335 001e 01F10041 		add	r1, r1, #-2147483648
 2336              	.LVL297:
  90:../Common/IQMath/ti/_IQNlog.c ****     
 2337              		.loc 1 90 16 view .LVU806
 2338 0022 0131     		adds	r1, r1, #1
 2339              	.LVL298:
  93:../Common/IQMath/ti/_IQNlog.c ****         iq30Result = __mpyf_l(uiq31Input, iq30Result);
 2340              		.loc 1 93 5 is_stmt 1 view .LVU807
  93:../Common/IQMath/ti/_IQNlog.c ****         iq30Result = __mpyf_l(uiq31Input, iq30Result);
 2341              		.loc 1 93 21 is_stmt 0 view .LVU808
 2342 0024 0E25     		movs	r5, #14
  93:../Common/IQMath/ti/_IQNlog.c ****         iq30Result = __mpyf_l(uiq31Input, iq30Result);
 2343              		.loc 1 93 5 view .LVU809
 2344 0026 12E0     		b	.L135
 2345              	.LVL299:
 2346              	.L136:
  94:../Common/IQMath/ti/_IQNlog.c ****         iq30Result += *piq30Coeffs++;
 2347              		.loc 1 94 9 is_stmt 1 view .LVU810
 2348              	.LBB220:
 2349              	.LBI220:
 233:../Common/IQMath/ti/./support/RTS_support.h **** {
 2350              		.loc 2 233 28 view .LVU811
 2351              	.LBB221:
 235:../Common/IQMath/ti/./support/RTS_support.h **** }
 2352              		.loc 2 235 5 view .LVU812
 235:../Common/IQMath/ti/./support/RTS_support.h **** }
 2353              		.loc 2 235 28 is_stmt 0 view .LVU813
 2354 0028 CB17     		asrs	r3, r1, #31
 235:../Common/IQMath/ti/./support/RTS_support.h **** }
 2355              		.loc 2 235 49 view .LVU814
 2356 002a C217     		asrs	r2, r0, #31
 235:../Common/IQMath/ti/./support/RTS_support.h **** }
 2357              		.loc 2 235 47 view .LVU815
 2358 002c 01FB02F2 		mul	r2, r1, r2
 2359 0030 00FB0323 		mla	r3, r0, r3, r2
 2360 0034 A1FB0002 		umull	r0, r2, r1, r0
 2361              	.LVL300:
 235:../Common/IQMath/ti/./support/RTS_support.h **** }
 2362              		.loc 2 235 47 view .LVU816
 2363 0038 1344     		add	r3, r3, r2
 235:../Common/IQMath/ti/./support/RTS_support.h **** }
 2364              		.loc 2 235 69 view .LVU817
 2365 003a C00F     		lsrs	r0, r0, #31
 2366 003c 40EA4300 		orr	r0, r0, r3, lsl #1
 2367              	.LVL301:
 235:../Common/IQMath/ti/./support/RTS_support.h **** }
 2368              		.loc 2 235 69 view .LVU818
 2369              	.LBE221:
 2370              	.LBE220:
  95:../Common/IQMath/ti/_IQNlog.c ****     }
 2371              		.loc 1 95 9 is_stmt 1 view .LVU819
  95:../Common/IQMath/ti/_IQNlog.c ****     }
 2372              		.loc 1 95 35 is_stmt 0 view .LVU820
 2373 0040 2346     		mov	r3, r4
 2374              	.LVL302:
  95:../Common/IQMath/ti/_IQNlog.c ****     }
 2375              		.loc 1 95 23 view .LVU821
ARM GAS  C:\Users\57308\AppData\Local\Temp\ccxDvd6L.s 			page 63


 2376 0042 53F8042B 		ldr	r2, [r3], #4
 2377              	.LVL303:
  95:../Common/IQMath/ti/_IQNlog.c ****     }
 2378              		.loc 1 95 20 view .LVU822
 2379 0046 1044     		add	r0, r0, r2
 2380              	.LVL304:
  93:../Common/IQMath/ti/_IQNlog.c ****         iq30Result = __mpyf_l(uiq31Input, iq30Result);
 2381              		.loc 1 93 55 is_stmt 1 view .LVU823
  93:../Common/IQMath/ti/_IQNlog.c ****         iq30Result = __mpyf_l(uiq31Input, iq30Result);
 2382              		.loc 1 93 65 is_stmt 0 view .LVU824
 2383 0048 013D     		subs	r5, r5, #1
 2384              	.LVL305:
  93:../Common/IQMath/ti/_IQNlog.c ****         iq30Result = __mpyf_l(uiq31Input, iq30Result);
 2385              		.loc 1 93 65 view .LVU825
 2386 004a EDB2     		uxtb	r5, r5
 2387              	.LVL306:
  95:../Common/IQMath/ti/_IQNlog.c ****     }
 2388              		.loc 1 95 35 view .LVU826
 2389 004c 1C46     		mov	r4, r3
 2390              	.LVL307:
 2391              	.L135:
  93:../Common/IQMath/ti/_IQNlog.c ****         iq30Result = __mpyf_l(uiq31Input, iq30Result);
 2392              		.loc 1 93 39 is_stmt 1 view .LVU827
  93:../Common/IQMath/ti/_IQNlog.c ****         iq30Result = __mpyf_l(uiq31Input, iq30Result);
 2393              		.loc 1 93 5 is_stmt 0 view .LVU828
 2394 004e 002D     		cmp	r5, #0
 2395 0050 EAD1     		bne	.L136
  99:../Common/IQMath/ti/_IQNlog.c ****     
 2396              		.loc 1 99 5 is_stmt 1 view .LVU829
  99:../Common/IQMath/ti/_IQNlog.c ****     
 2397              		.loc 1 99 15 is_stmt 0 view .LVU830
 2398 0052 4012     		asrs	r0, r0, #9
 2399              	.LVL308:
 107:../Common/IQMath/ti/_IQNlog.c ****         iqNResult += __mpyf_ul(iq31_ln2, ((int_fast32_t)i16Exp << q_value));
 2400              		.loc 1 107 5 is_stmt 1 view .LVU831
 107:../Common/IQMath/ti/_IQNlog.c ****         iqNResult += __mpyf_ul(iq31_ln2, ((int_fast32_t)i16Exp << q_value));
 2401              		.loc 1 107 8 is_stmt 0 view .LVU832
 2402 0054 BCF1000F 		cmp	ip, #0
 2403 0058 0BDD     		ble	.L137
 108:../Common/IQMath/ti/_IQNlog.c ****     }
 2404              		.loc 1 108 9 is_stmt 1 view .LVU833
 108:../Common/IQMath/ti/_IQNlog.c ****     }
 2405              		.loc 1 108 64 is_stmt 0 view .LVU834
 2406 005a 4FEA4C5C 		lsl	ip, ip, #21
 2407              	.LVL309:
 2408              	.LBB222:
 2409              	.LBI222:
 254:../Common/IQMath/ti/./support/RTS_support.h **** {
 2410              		.loc 2 254 29 is_stmt 1 view .LVU835
 2411              	.LBB223:
 2412              		.loc 2 256 5 view .LVU836
 2413              		.loc 2 256 49 is_stmt 0 view .LVU837
 2414 005e 0C4A     		ldr	r2, .L143+4
 2415 0060 ACFB02C2 		umull	ip, r2, ip, r2
 2416              	.LVL310:
 2417              		.loc 2 256 72 view .LVU838
 2418 0064 4FEADC73 		lsr	r3, ip, #31
ARM GAS  C:\Users\57308\AppData\Local\Temp\ccxDvd6L.s 			page 64


 2419 0068 43EA4203 		orr	r3, r3, r2, lsl #1
 2420              	.LVL311:
 2421              		.loc 2 256 72 view .LVU839
 2422              	.LBE223:
 2423              	.LBE222:
 108:../Common/IQMath/ti/_IQNlog.c ****     }
 2424              		.loc 1 108 19 view .LVU840
 2425 006c 1844     		add	r0, r0, r3
 2426              	.LVL312:
 2427              	.L131:
 108:../Common/IQMath/ti/_IQNlog.c ****     }
 2428              		.loc 1 108 19 view .LVU841
 2429              	.LBE227:
 2430              	.LBE230:
 232:../Common/IQMath/ti/_IQNlog.c **** }
 2431              		.loc 1 232 1 view .LVU842
 2432 006e 30BC     		pop	{r4, r5}
 2433              	.LCFI37:
 2434              		.cfi_remember_state
 2435              		.cfi_restore 5
 2436              		.cfi_restore 4
 2437              		.cfi_def_cfa_offset 0
 2438              	.LVL313:
 2439              		.loc 1 232 1 view .LVU843
 2440 0070 7047     		bx	lr
 2441              	.LVL314:
 2442              	.L137:
 2443              	.LCFI38:
 2444              		.cfi_restore_state
 2445              	.LBB231:
 2446              	.LBB228:
 111:../Common/IQMath/ti/_IQNlog.c ****     }
 2447              		.loc 1 111 9 is_stmt 1 view .LVU844
 111:../Common/IQMath/ti/_IQNlog.c ****     }
 2448              		.loc 1 111 59 is_stmt 0 view .LVU845
 2449 0072 CCF10003 		rsb	r3, ip, #0
 111:../Common/IQMath/ti/_IQNlog.c ****     }
 2450              		.loc 1 111 22 view .LVU846
 2451 0076 5B05     		lsls	r3, r3, #21
 2452              	.LVL315:
 2453              	.LBB224:
 2454              	.LBI224:
 254:../Common/IQMath/ti/./support/RTS_support.h **** {
 2455              		.loc 2 254 29 is_stmt 1 view .LVU847
 2456              	.LBB225:
 2457              		.loc 2 256 5 view .LVU848
 2458              		.loc 2 256 49 is_stmt 0 view .LVU849
 2459 0078 054A     		ldr	r2, .L143+4
 2460 007a A3FB0232 		umull	r3, r2, r3, r2
 2461              	.LVL316:
 2462              		.loc 2 256 72 view .LVU850
 2463 007e DB0F     		lsrs	r3, r3, #31
 2464 0080 43EA4203 		orr	r3, r3, r2, lsl #1
 2465              	.LVL317:
 2466              		.loc 2 256 72 view .LVU851
 2467              	.LBE225:
 2468              	.LBE224:
ARM GAS  C:\Users\57308\AppData\Local\Temp\ccxDvd6L.s 			page 65


 111:../Common/IQMath/ti/_IQNlog.c ****     }
 2469              		.loc 1 111 19 view .LVU852
 2470 0084 C01A     		subs	r0, r0, r3
 2471              	.LVL318:
 111:../Common/IQMath/ti/_IQNlog.c ****     }
 2472              		.loc 1 111 19 view .LVU853
 2473 0086 F2E7     		b	.L131
 2474              	.LVL319:
 2475              	.L138:
 2476              	.LCFI39:
 2477              		.cfi_def_cfa_offset 0
 2478              		.cfi_restore 4
 2479              		.cfi_restore 5
  57:../Common/IQMath/ti/_IQNlog.c ****         }
 2480              		.loc 1 57 20 view .LVU854
 2481 0088 0020     		movs	r0, #0
 2482              	.LVL320:
  57:../Common/IQMath/ti/_IQNlog.c ****         }
 2483              		.loc 1 57 20 view .LVU855
 2484              	.LBE228:
 2485              	.LBE231:
 2486              		.loc 1 232 1 view .LVU856
 2487 008a 7047     		bx	lr
 2488              	.L144:
 2489              		.align	2
 2490              	.L143:
 2491 008c 00000000 		.word	_IQ30log_coeffs
 2492 0090 FC0BB958 		.word	1488522236
 2493              		.cfi_endproc
 2494              	.LFE271:
 2496              		.section	.text._IQ20log,"ax",%progbits
 2497              		.align	1
 2498              		.global	_IQ20log
 2499              		.syntax unified
 2500              		.thumb
 2501              		.thumb_func
 2503              	_IQ20log:
 2504              	.LVL321:
 2505              	.LFB272:
 233:../Common/IQMath/ti/_IQNlog.c **** /**
 234:../Common/IQMath/ti/_IQNlog.c ****  * @brief Computes the base-e logarithm of an IQ20 input.
 235:../Common/IQMath/ti/_IQNlog.c ****  *
 236:../Common/IQMath/ti/_IQNlog.c ****  * @param a                 IQ20 type input.
 237:../Common/IQMath/ti/_IQNlog.c ****  *
 238:../Common/IQMath/ti/_IQNlog.c ****  * @return                  IQ20 type result of exponential.
 239:../Common/IQMath/ti/_IQNlog.c ****  */
 240:../Common/IQMath/ti/_IQNlog.c **** int32_t _IQ20log(int32_t a)
 241:../Common/IQMath/ti/_IQNlog.c **** {
 2506              		.loc 1 241 1 is_stmt 1 view -0
 2507              		.cfi_startproc
 2508              		@ args = 0, pretend = 0, frame = 0
 2509              		@ frame_needed = 0, uses_anonymous_args = 0
 2510              		@ link register save eliminated.
 242:../Common/IQMath/ti/_IQNlog.c ****     return __IQNlog(a, 1, 20);
 2511              		.loc 1 242 5 view .LVU858
 2512              	.LBB240:
 2513              	.LBI240:
ARM GAS  C:\Users\57308\AppData\Local\Temp\ccxDvd6L.s 			page 66


  28:../Common/IQMath/ti/_IQNlog.c **** {
 2514              		.loc 1 28 30 view .LVU859
 2515              	.LBB241:
  30:../Common/IQMath/ti/_IQNlog.c ****     int_fast16_t i16Exp;
 2516              		.loc 1 30 5 view .LVU860
  31:../Common/IQMath/ti/_IQNlog.c ****     uint_fast16_t ui16IntState;
 2517              		.loc 1 31 5 view .LVU861
  32:../Common/IQMath/ti/_IQNlog.c ****     uint_fast16_t ui16MPYState;
 2518              		.loc 1 32 5 view .LVU862
  33:../Common/IQMath/ti/_IQNlog.c ****     int_fast32_t iqNResult;
 2519              		.loc 1 33 5 view .LVU863
  34:../Common/IQMath/ti/_IQNlog.c ****     int_fast32_t iq30Result;
 2520              		.loc 1 34 5 view .LVU864
  35:../Common/IQMath/ti/_IQNlog.c ****     uint_fast32_t uiq31Input;
 2521              		.loc 1 35 5 view .LVU865
  36:../Common/IQMath/ti/_IQNlog.c ****     const uint_fast32_t *piq30Coeffs;
 2522              		.loc 1 36 5 view .LVU866
  37:../Common/IQMath/ti/_IQNlog.c ****     
 2523              		.loc 1 37 5 view .LVU867
  43:../Common/IQMath/ti/_IQNlog.c ****         if (iqNInput <= 0) {
 2524              		.loc 1 43 5 view .LVU868
  56:../Common/IQMath/ti/_IQNlog.c ****             return 0;
 2525              		.loc 1 56 9 view .LVU869
  56:../Common/IQMath/ti/_IQNlog.c ****             return 0;
 2526              		.loc 1 56 12 is_stmt 0 view .LVU870
 2527 0000 011E     		subs	r1, r0, #0
 2528 0002 41DD     		ble	.L152
 2529              	.LBE241:
 2530              	.LBE240:
 241:../Common/IQMath/ti/_IQNlog.c ****     return __IQNlog(a, 1, 20);
 2531              		.loc 1 241 1 view .LVU871
 2532 0004 30B4     		push	{r4, r5}
 2533              	.LCFI40:
 2534              		.cfi_def_cfa_offset 8
 2535              		.cfi_offset 4, -8
 2536              		.cfi_offset 5, -4
 2537              	.LBB251:
 2538              	.LBB248:
  62:../Common/IQMath/ti/_IQNlog.c ****     
 2539              		.loc 1 62 5 is_stmt 1 view .LVU872
 2540              	.LVL322:
  69:../Common/IQMath/ti/_IQNlog.c ****     while (uiq31Input < iq31_twoThird) {
 2541              		.loc 1 69 5 view .LVU873
  70:../Common/IQMath/ti/_IQNlog.c ****         uiq31Input <<= 1;
 2542              		.loc 1 70 5 view .LVU874
  62:../Common/IQMath/ti/_IQNlog.c ****     
 2543              		.loc 1 62 12 is_stmt 0 view .LVU875
 2544 0006 4FF00B0C 		mov	ip, #11
  70:../Common/IQMath/ti/_IQNlog.c ****         uiq31Input <<= 1;
 2545              		.loc 1 70 11 view .LVU876
 2546 000a 02E0     		b	.L147
 2547              	.LVL323:
 2548              	.L148:
  71:../Common/IQMath/ti/_IQNlog.c ****         i16Exp--;
 2549              		.loc 1 71 9 is_stmt 1 view .LVU877
  71:../Common/IQMath/ti/_IQNlog.c ****         i16Exp--;
 2550              		.loc 1 71 20 is_stmt 0 view .LVU878
ARM GAS  C:\Users\57308\AppData\Local\Temp\ccxDvd6L.s 			page 67


 2551 000c 4900     		lsls	r1, r1, #1
 2552              	.LVL324:
  72:../Common/IQMath/ti/_IQNlog.c ****     }
 2553              		.loc 1 72 9 is_stmt 1 view .LVU879
  72:../Common/IQMath/ti/_IQNlog.c ****     }
 2554              		.loc 1 72 15 is_stmt 0 view .LVU880
 2555 000e 0CF1FF3C 		add	ip, ip, #-1
 2556              	.LVL325:
 2557              	.L147:
  70:../Common/IQMath/ti/_IQNlog.c ****         uiq31Input <<= 1;
 2558              		.loc 1 70 11 is_stmt 1 view .LVU881
 2559 0012 B1F1553F 		cmp	r1, #1431655765
 2560 0016 F9D3     		bcc	.L148
  81:../Common/IQMath/ti/_IQNlog.c ****     
 2561              		.loc 1 81 5 view .LVU882
 2562              	.LVL326:
  81:../Common/IQMath/ti/_IQNlog.c ****     
 2563              		.loc 1 81 5 is_stmt 0 view .LVU883
 2564              	.LBE248:
 2565              	.LBE251:
  28:../Common/IQMath/ti/./support/RTS_support.h **** }
 2566              		.loc 2 28 5 is_stmt 1 view .LVU884
 2567              	.LBB252:
 2568              	.LBB249:
  88:../Common/IQMath/ti/_IQNlog.c ****     iq30Result = *piq30Coeffs++;
 2569              		.loc 1 88 5 view .LVU885
  89:../Common/IQMath/ti/_IQNlog.c ****     uiq31Input -= iq31_one;
 2570              		.loc 1 89 5 view .LVU886
  89:../Common/IQMath/ti/_IQNlog.c ****     uiq31Input -= iq31_one;
 2571              		.loc 1 89 18 is_stmt 0 view .LVU887
 2572 0018 1C4C     		ldr	r4, .L157
 2573 001a 54F8040B 		ldr	r0, [r4], #4
 2574              	.LVL327:
  90:../Common/IQMath/ti/_IQNlog.c ****     
 2575              		.loc 1 90 5 is_stmt 1 view .LVU888
  90:../Common/IQMath/ti/_IQNlog.c ****     
 2576              		.loc 1 90 16 is_stmt 0 view .LVU889
 2577 001e 01F10041 		add	r1, r1, #-2147483648
 2578              	.LVL328:
  90:../Common/IQMath/ti/_IQNlog.c ****     
 2579              		.loc 1 90 16 view .LVU890
 2580 0022 0131     		adds	r1, r1, #1
 2581              	.LVL329:
  93:../Common/IQMath/ti/_IQNlog.c ****         iq30Result = __mpyf_l(uiq31Input, iq30Result);
 2582              		.loc 1 93 5 is_stmt 1 view .LVU891
  93:../Common/IQMath/ti/_IQNlog.c ****         iq30Result = __mpyf_l(uiq31Input, iq30Result);
 2583              		.loc 1 93 21 is_stmt 0 view .LVU892
 2584 0024 0E25     		movs	r5, #14
  93:../Common/IQMath/ti/_IQNlog.c ****         iq30Result = __mpyf_l(uiq31Input, iq30Result);
 2585              		.loc 1 93 5 view .LVU893
 2586 0026 12E0     		b	.L149
 2587              	.LVL330:
 2588              	.L150:
  94:../Common/IQMath/ti/_IQNlog.c ****         iq30Result += *piq30Coeffs++;
 2589              		.loc 1 94 9 is_stmt 1 view .LVU894
 2590              	.LBB242:
 2591              	.LBI242:
ARM GAS  C:\Users\57308\AppData\Local\Temp\ccxDvd6L.s 			page 68


 233:../Common/IQMath/ti/./support/RTS_support.h **** {
 2592              		.loc 2 233 28 view .LVU895
 2593              	.LBB243:
 235:../Common/IQMath/ti/./support/RTS_support.h **** }
 2594              		.loc 2 235 5 view .LVU896
 235:../Common/IQMath/ti/./support/RTS_support.h **** }
 2595              		.loc 2 235 28 is_stmt 0 view .LVU897
 2596 0028 CB17     		asrs	r3, r1, #31
 235:../Common/IQMath/ti/./support/RTS_support.h **** }
 2597              		.loc 2 235 49 view .LVU898
 2598 002a C217     		asrs	r2, r0, #31
 235:../Common/IQMath/ti/./support/RTS_support.h **** }
 2599              		.loc 2 235 47 view .LVU899
 2600 002c 01FB02F2 		mul	r2, r1, r2
 2601 0030 00FB0323 		mla	r3, r0, r3, r2
 2602 0034 A1FB0002 		umull	r0, r2, r1, r0
 2603              	.LVL331:
 235:../Common/IQMath/ti/./support/RTS_support.h **** }
 2604              		.loc 2 235 47 view .LVU900
 2605 0038 1344     		add	r3, r3, r2
 235:../Common/IQMath/ti/./support/RTS_support.h **** }
 2606              		.loc 2 235 69 view .LVU901
 2607 003a C00F     		lsrs	r0, r0, #31
 2608 003c 40EA4300 		orr	r0, r0, r3, lsl #1
 2609              	.LVL332:
 235:../Common/IQMath/ti/./support/RTS_support.h **** }
 2610              		.loc 2 235 69 view .LVU902
 2611              	.LBE243:
 2612              	.LBE242:
  95:../Common/IQMath/ti/_IQNlog.c ****     }
 2613              		.loc 1 95 9 is_stmt 1 view .LVU903
  95:../Common/IQMath/ti/_IQNlog.c ****     }
 2614              		.loc 1 95 35 is_stmt 0 view .LVU904
 2615 0040 2346     		mov	r3, r4
 2616              	.LVL333:
  95:../Common/IQMath/ti/_IQNlog.c ****     }
 2617              		.loc 1 95 23 view .LVU905
 2618 0042 53F8042B 		ldr	r2, [r3], #4
 2619              	.LVL334:
  95:../Common/IQMath/ti/_IQNlog.c ****     }
 2620              		.loc 1 95 20 view .LVU906
 2621 0046 1044     		add	r0, r0, r2
 2622              	.LVL335:
  93:../Common/IQMath/ti/_IQNlog.c ****         iq30Result = __mpyf_l(uiq31Input, iq30Result);
 2623              		.loc 1 93 55 is_stmt 1 view .LVU907
  93:../Common/IQMath/ti/_IQNlog.c ****         iq30Result = __mpyf_l(uiq31Input, iq30Result);
 2624              		.loc 1 93 65 is_stmt 0 view .LVU908
 2625 0048 013D     		subs	r5, r5, #1
 2626              	.LVL336:
  93:../Common/IQMath/ti/_IQNlog.c ****         iq30Result = __mpyf_l(uiq31Input, iq30Result);
 2627              		.loc 1 93 65 view .LVU909
 2628 004a EDB2     		uxtb	r5, r5
 2629              	.LVL337:
  95:../Common/IQMath/ti/_IQNlog.c ****     }
 2630              		.loc 1 95 35 view .LVU910
 2631 004c 1C46     		mov	r4, r3
 2632              	.LVL338:
ARM GAS  C:\Users\57308\AppData\Local\Temp\ccxDvd6L.s 			page 69


 2633              	.L149:
  93:../Common/IQMath/ti/_IQNlog.c ****         iq30Result = __mpyf_l(uiq31Input, iq30Result);
 2634              		.loc 1 93 39 is_stmt 1 view .LVU911
  93:../Common/IQMath/ti/_IQNlog.c ****         iq30Result = __mpyf_l(uiq31Input, iq30Result);
 2635              		.loc 1 93 5 is_stmt 0 view .LVU912
 2636 004e 002D     		cmp	r5, #0
 2637 0050 EAD1     		bne	.L150
  99:../Common/IQMath/ti/_IQNlog.c ****     
 2638              		.loc 1 99 5 is_stmt 1 view .LVU913
  99:../Common/IQMath/ti/_IQNlog.c ****     
 2639              		.loc 1 99 15 is_stmt 0 view .LVU914
 2640 0052 8012     		asrs	r0, r0, #10
 2641              	.LVL339:
 107:../Common/IQMath/ti/_IQNlog.c ****         iqNResult += __mpyf_ul(iq31_ln2, ((int_fast32_t)i16Exp << q_value));
 2642              		.loc 1 107 5 is_stmt 1 view .LVU915
 107:../Common/IQMath/ti/_IQNlog.c ****         iqNResult += __mpyf_ul(iq31_ln2, ((int_fast32_t)i16Exp << q_value));
 2643              		.loc 1 107 8 is_stmt 0 view .LVU916
 2644 0054 BCF1000F 		cmp	ip, #0
 2645 0058 0BDD     		ble	.L151
 108:../Common/IQMath/ti/_IQNlog.c ****     }
 2646              		.loc 1 108 9 is_stmt 1 view .LVU917
 108:../Common/IQMath/ti/_IQNlog.c ****     }
 2647              		.loc 1 108 64 is_stmt 0 view .LVU918
 2648 005a 4FEA0C5C 		lsl	ip, ip, #20
 2649              	.LVL340:
 2650              	.LBB244:
 2651              	.LBI244:
 254:../Common/IQMath/ti/./support/RTS_support.h **** {
 2652              		.loc 2 254 29 is_stmt 1 view .LVU919
 2653              	.LBB245:
 2654              		.loc 2 256 5 view .LVU920
 2655              		.loc 2 256 49 is_stmt 0 view .LVU921
 2656 005e 0C4A     		ldr	r2, .L157+4
 2657 0060 ACFB02C2 		umull	ip, r2, ip, r2
 2658              	.LVL341:
 2659              		.loc 2 256 72 view .LVU922
 2660 0064 4FEADC73 		lsr	r3, ip, #31
 2661 0068 43EA4203 		orr	r3, r3, r2, lsl #1
 2662              	.LVL342:
 2663              		.loc 2 256 72 view .LVU923
 2664              	.LBE245:
 2665              	.LBE244:
 108:../Common/IQMath/ti/_IQNlog.c ****     }
 2666              		.loc 1 108 19 view .LVU924
 2667 006c 1844     		add	r0, r0, r3
 2668              	.LVL343:
 2669              	.L145:
 108:../Common/IQMath/ti/_IQNlog.c ****     }
 2670              		.loc 1 108 19 view .LVU925
 2671              	.LBE249:
 2672              	.LBE252:
 243:../Common/IQMath/ti/_IQNlog.c **** }
 2673              		.loc 1 243 1 view .LVU926
 2674 006e 30BC     		pop	{r4, r5}
 2675              	.LCFI41:
 2676              		.cfi_remember_state
 2677              		.cfi_restore 5
ARM GAS  C:\Users\57308\AppData\Local\Temp\ccxDvd6L.s 			page 70


 2678              		.cfi_restore 4
 2679              		.cfi_def_cfa_offset 0
 2680              	.LVL344:
 2681              		.loc 1 243 1 view .LVU927
 2682 0070 7047     		bx	lr
 2683              	.LVL345:
 2684              	.L151:
 2685              	.LCFI42:
 2686              		.cfi_restore_state
 2687              	.LBB253:
 2688              	.LBB250:
 111:../Common/IQMath/ti/_IQNlog.c ****     }
 2689              		.loc 1 111 9 is_stmt 1 view .LVU928
 111:../Common/IQMath/ti/_IQNlog.c ****     }
 2690              		.loc 1 111 59 is_stmt 0 view .LVU929
 2691 0072 CCF10003 		rsb	r3, ip, #0
 111:../Common/IQMath/ti/_IQNlog.c ****     }
 2692              		.loc 1 111 22 view .LVU930
 2693 0076 1B05     		lsls	r3, r3, #20
 2694              	.LVL346:
 2695              	.LBB246:
 2696              	.LBI246:
 254:../Common/IQMath/ti/./support/RTS_support.h **** {
 2697              		.loc 2 254 29 is_stmt 1 view .LVU931
 2698              	.LBB247:
 2699              		.loc 2 256 5 view .LVU932
 2700              		.loc 2 256 49 is_stmt 0 view .LVU933
 2701 0078 054A     		ldr	r2, .L157+4
 2702 007a A3FB0232 		umull	r3, r2, r3, r2
 2703              	.LVL347:
 2704              		.loc 2 256 72 view .LVU934
 2705 007e DB0F     		lsrs	r3, r3, #31
 2706 0080 43EA4203 		orr	r3, r3, r2, lsl #1
 2707              	.LVL348:
 2708              		.loc 2 256 72 view .LVU935
 2709              	.LBE247:
 2710              	.LBE246:
 111:../Common/IQMath/ti/_IQNlog.c ****     }
 2711              		.loc 1 111 19 view .LVU936
 2712 0084 C01A     		subs	r0, r0, r3
 2713              	.LVL349:
 111:../Common/IQMath/ti/_IQNlog.c ****     }
 2714              		.loc 1 111 19 view .LVU937
 2715 0086 F2E7     		b	.L145
 2716              	.LVL350:
 2717              	.L152:
 2718              	.LCFI43:
 2719              		.cfi_def_cfa_offset 0
 2720              		.cfi_restore 4
 2721              		.cfi_restore 5
  57:../Common/IQMath/ti/_IQNlog.c ****         }
 2722              		.loc 1 57 20 view .LVU938
 2723 0088 0020     		movs	r0, #0
 2724              	.LVL351:
  57:../Common/IQMath/ti/_IQNlog.c ****         }
 2725              		.loc 1 57 20 view .LVU939
 2726              	.LBE250:
ARM GAS  C:\Users\57308\AppData\Local\Temp\ccxDvd6L.s 			page 71


 2727              	.LBE253:
 2728              		.loc 1 243 1 view .LVU940
 2729 008a 7047     		bx	lr
 2730              	.L158:
 2731              		.align	2
 2732              	.L157:
 2733 008c 00000000 		.word	_IQ30log_coeffs
 2734 0090 FC0BB958 		.word	1488522236
 2735              		.cfi_endproc
 2736              	.LFE272:
 2738              		.section	.text._IQ19log,"ax",%progbits
 2739              		.align	1
 2740              		.global	_IQ19log
 2741              		.syntax unified
 2742              		.thumb
 2743              		.thumb_func
 2745              	_IQ19log:
 2746              	.LVL352:
 2747              	.LFB273:
 244:../Common/IQMath/ti/_IQNlog.c **** /**
 245:../Common/IQMath/ti/_IQNlog.c ****  * @brief Computes the base-e logarithm of an IQ19 input.
 246:../Common/IQMath/ti/_IQNlog.c ****  *
 247:../Common/IQMath/ti/_IQNlog.c ****  * @param a                 IQ19 type input.
 248:../Common/IQMath/ti/_IQNlog.c ****  *
 249:../Common/IQMath/ti/_IQNlog.c ****  * @return                  IQ19 type result of exponential.
 250:../Common/IQMath/ti/_IQNlog.c ****  */
 251:../Common/IQMath/ti/_IQNlog.c **** int32_t _IQ19log(int32_t a)
 252:../Common/IQMath/ti/_IQNlog.c **** {
 2748              		.loc 1 252 1 is_stmt 1 view -0
 2749              		.cfi_startproc
 2750              		@ args = 0, pretend = 0, frame = 0
 2751              		@ frame_needed = 0, uses_anonymous_args = 0
 2752              		@ link register save eliminated.
 253:../Common/IQMath/ti/_IQNlog.c ****     return __IQNlog(a, 1, 19);
 2753              		.loc 1 253 5 view .LVU942
 2754              	.LBB262:
 2755              	.LBI262:
  28:../Common/IQMath/ti/_IQNlog.c **** {
 2756              		.loc 1 28 30 view .LVU943
 2757              	.LBB263:
  30:../Common/IQMath/ti/_IQNlog.c ****     int_fast16_t i16Exp;
 2758              		.loc 1 30 5 view .LVU944
  31:../Common/IQMath/ti/_IQNlog.c ****     uint_fast16_t ui16IntState;
 2759              		.loc 1 31 5 view .LVU945
  32:../Common/IQMath/ti/_IQNlog.c ****     uint_fast16_t ui16MPYState;
 2760              		.loc 1 32 5 view .LVU946
  33:../Common/IQMath/ti/_IQNlog.c ****     int_fast32_t iqNResult;
 2761              		.loc 1 33 5 view .LVU947
  34:../Common/IQMath/ti/_IQNlog.c ****     int_fast32_t iq30Result;
 2762              		.loc 1 34 5 view .LVU948
  35:../Common/IQMath/ti/_IQNlog.c ****     uint_fast32_t uiq31Input;
 2763              		.loc 1 35 5 view .LVU949
  36:../Common/IQMath/ti/_IQNlog.c ****     const uint_fast32_t *piq30Coeffs;
 2764              		.loc 1 36 5 view .LVU950
  37:../Common/IQMath/ti/_IQNlog.c ****     
 2765              		.loc 1 37 5 view .LVU951
  43:../Common/IQMath/ti/_IQNlog.c ****         if (iqNInput <= 0) {
ARM GAS  C:\Users\57308\AppData\Local\Temp\ccxDvd6L.s 			page 72


 2766              		.loc 1 43 5 view .LVU952
  56:../Common/IQMath/ti/_IQNlog.c ****             return 0;
 2767              		.loc 1 56 9 view .LVU953
  56:../Common/IQMath/ti/_IQNlog.c ****             return 0;
 2768              		.loc 1 56 12 is_stmt 0 view .LVU954
 2769 0000 011E     		subs	r1, r0, #0
 2770 0002 41DD     		ble	.L166
 2771              	.LBE263:
 2772              	.LBE262:
 252:../Common/IQMath/ti/_IQNlog.c ****     return __IQNlog(a, 1, 19);
 2773              		.loc 1 252 1 view .LVU955
 2774 0004 30B4     		push	{r4, r5}
 2775              	.LCFI44:
 2776              		.cfi_def_cfa_offset 8
 2777              		.cfi_offset 4, -8
 2778              		.cfi_offset 5, -4
 2779              	.LBB273:
 2780              	.LBB270:
  62:../Common/IQMath/ti/_IQNlog.c ****     
 2781              		.loc 1 62 5 is_stmt 1 view .LVU956
 2782              	.LVL353:
  69:../Common/IQMath/ti/_IQNlog.c ****     while (uiq31Input < iq31_twoThird) {
 2783              		.loc 1 69 5 view .LVU957
  70:../Common/IQMath/ti/_IQNlog.c ****         uiq31Input <<= 1;
 2784              		.loc 1 70 5 view .LVU958
  62:../Common/IQMath/ti/_IQNlog.c ****     
 2785              		.loc 1 62 12 is_stmt 0 view .LVU959
 2786 0006 4FF00C0C 		mov	ip, #12
  70:../Common/IQMath/ti/_IQNlog.c ****         uiq31Input <<= 1;
 2787              		.loc 1 70 11 view .LVU960
 2788 000a 02E0     		b	.L161
 2789              	.LVL354:
 2790              	.L162:
  71:../Common/IQMath/ti/_IQNlog.c ****         i16Exp--;
 2791              		.loc 1 71 9 is_stmt 1 view .LVU961
  71:../Common/IQMath/ti/_IQNlog.c ****         i16Exp--;
 2792              		.loc 1 71 20 is_stmt 0 view .LVU962
 2793 000c 4900     		lsls	r1, r1, #1
 2794              	.LVL355:
  72:../Common/IQMath/ti/_IQNlog.c ****     }
 2795              		.loc 1 72 9 is_stmt 1 view .LVU963
  72:../Common/IQMath/ti/_IQNlog.c ****     }
 2796              		.loc 1 72 15 is_stmt 0 view .LVU964
 2797 000e 0CF1FF3C 		add	ip, ip, #-1
 2798              	.LVL356:
 2799              	.L161:
  70:../Common/IQMath/ti/_IQNlog.c ****         uiq31Input <<= 1;
 2800              		.loc 1 70 11 is_stmt 1 view .LVU965
 2801 0012 B1F1553F 		cmp	r1, #1431655765
 2802 0016 F9D3     		bcc	.L162
  81:../Common/IQMath/ti/_IQNlog.c ****     
 2803              		.loc 1 81 5 view .LVU966
 2804              	.LVL357:
  81:../Common/IQMath/ti/_IQNlog.c ****     
 2805              		.loc 1 81 5 is_stmt 0 view .LVU967
 2806              	.LBE270:
 2807              	.LBE273:
ARM GAS  C:\Users\57308\AppData\Local\Temp\ccxDvd6L.s 			page 73


  28:../Common/IQMath/ti/./support/RTS_support.h **** }
 2808              		.loc 2 28 5 is_stmt 1 view .LVU968
 2809              	.LBB274:
 2810              	.LBB271:
  88:../Common/IQMath/ti/_IQNlog.c ****     iq30Result = *piq30Coeffs++;
 2811              		.loc 1 88 5 view .LVU969
  89:../Common/IQMath/ti/_IQNlog.c ****     uiq31Input -= iq31_one;
 2812              		.loc 1 89 5 view .LVU970
  89:../Common/IQMath/ti/_IQNlog.c ****     uiq31Input -= iq31_one;
 2813              		.loc 1 89 18 is_stmt 0 view .LVU971
 2814 0018 1C4C     		ldr	r4, .L171
 2815 001a 54F8040B 		ldr	r0, [r4], #4
 2816              	.LVL358:
  90:../Common/IQMath/ti/_IQNlog.c ****     
 2817              		.loc 1 90 5 is_stmt 1 view .LVU972
  90:../Common/IQMath/ti/_IQNlog.c ****     
 2818              		.loc 1 90 16 is_stmt 0 view .LVU973
 2819 001e 01F10041 		add	r1, r1, #-2147483648
 2820              	.LVL359:
  90:../Common/IQMath/ti/_IQNlog.c ****     
 2821              		.loc 1 90 16 view .LVU974
 2822 0022 0131     		adds	r1, r1, #1
 2823              	.LVL360:
  93:../Common/IQMath/ti/_IQNlog.c ****         iq30Result = __mpyf_l(uiq31Input, iq30Result);
 2824              		.loc 1 93 5 is_stmt 1 view .LVU975
  93:../Common/IQMath/ti/_IQNlog.c ****         iq30Result = __mpyf_l(uiq31Input, iq30Result);
 2825              		.loc 1 93 21 is_stmt 0 view .LVU976
 2826 0024 0E25     		movs	r5, #14
  93:../Common/IQMath/ti/_IQNlog.c ****         iq30Result = __mpyf_l(uiq31Input, iq30Result);
 2827              		.loc 1 93 5 view .LVU977
 2828 0026 12E0     		b	.L163
 2829              	.LVL361:
 2830              	.L164:
  94:../Common/IQMath/ti/_IQNlog.c ****         iq30Result += *piq30Coeffs++;
 2831              		.loc 1 94 9 is_stmt 1 view .LVU978
 2832              	.LBB264:
 2833              	.LBI264:
 233:../Common/IQMath/ti/./support/RTS_support.h **** {
 2834              		.loc 2 233 28 view .LVU979
 2835              	.LBB265:
 235:../Common/IQMath/ti/./support/RTS_support.h **** }
 2836              		.loc 2 235 5 view .LVU980
 235:../Common/IQMath/ti/./support/RTS_support.h **** }
 2837              		.loc 2 235 28 is_stmt 0 view .LVU981
 2838 0028 CB17     		asrs	r3, r1, #31
 235:../Common/IQMath/ti/./support/RTS_support.h **** }
 2839              		.loc 2 235 49 view .LVU982
 2840 002a C217     		asrs	r2, r0, #31
 235:../Common/IQMath/ti/./support/RTS_support.h **** }
 2841              		.loc 2 235 47 view .LVU983
 2842 002c 01FB02F2 		mul	r2, r1, r2
 2843 0030 00FB0323 		mla	r3, r0, r3, r2
 2844 0034 A1FB0002 		umull	r0, r2, r1, r0
 2845              	.LVL362:
 235:../Common/IQMath/ti/./support/RTS_support.h **** }
 2846              		.loc 2 235 47 view .LVU984
 2847 0038 1344     		add	r3, r3, r2
ARM GAS  C:\Users\57308\AppData\Local\Temp\ccxDvd6L.s 			page 74


 235:../Common/IQMath/ti/./support/RTS_support.h **** }
 2848              		.loc 2 235 69 view .LVU985
 2849 003a C00F     		lsrs	r0, r0, #31
 2850 003c 40EA4300 		orr	r0, r0, r3, lsl #1
 2851              	.LVL363:
 235:../Common/IQMath/ti/./support/RTS_support.h **** }
 2852              		.loc 2 235 69 view .LVU986
 2853              	.LBE265:
 2854              	.LBE264:
  95:../Common/IQMath/ti/_IQNlog.c ****     }
 2855              		.loc 1 95 9 is_stmt 1 view .LVU987
  95:../Common/IQMath/ti/_IQNlog.c ****     }
 2856              		.loc 1 95 35 is_stmt 0 view .LVU988
 2857 0040 2346     		mov	r3, r4
 2858              	.LVL364:
  95:../Common/IQMath/ti/_IQNlog.c ****     }
 2859              		.loc 1 95 23 view .LVU989
 2860 0042 53F8042B 		ldr	r2, [r3], #4
 2861              	.LVL365:
  95:../Common/IQMath/ti/_IQNlog.c ****     }
 2862              		.loc 1 95 20 view .LVU990
 2863 0046 1044     		add	r0, r0, r2
 2864              	.LVL366:
  93:../Common/IQMath/ti/_IQNlog.c ****         iq30Result = __mpyf_l(uiq31Input, iq30Result);
 2865              		.loc 1 93 55 is_stmt 1 view .LVU991
  93:../Common/IQMath/ti/_IQNlog.c ****         iq30Result = __mpyf_l(uiq31Input, iq30Result);
 2866              		.loc 1 93 65 is_stmt 0 view .LVU992
 2867 0048 013D     		subs	r5, r5, #1
 2868              	.LVL367:
  93:../Common/IQMath/ti/_IQNlog.c ****         iq30Result = __mpyf_l(uiq31Input, iq30Result);
 2869              		.loc 1 93 65 view .LVU993
 2870 004a EDB2     		uxtb	r5, r5
 2871              	.LVL368:
  95:../Common/IQMath/ti/_IQNlog.c ****     }
 2872              		.loc 1 95 35 view .LVU994
 2873 004c 1C46     		mov	r4, r3
 2874              	.LVL369:
 2875              	.L163:
  93:../Common/IQMath/ti/_IQNlog.c ****         iq30Result = __mpyf_l(uiq31Input, iq30Result);
 2876              		.loc 1 93 39 is_stmt 1 view .LVU995
  93:../Common/IQMath/ti/_IQNlog.c ****         iq30Result = __mpyf_l(uiq31Input, iq30Result);
 2877              		.loc 1 93 5 is_stmt 0 view .LVU996
 2878 004e 002D     		cmp	r5, #0
 2879 0050 EAD1     		bne	.L164
  99:../Common/IQMath/ti/_IQNlog.c ****     
 2880              		.loc 1 99 5 is_stmt 1 view .LVU997
  99:../Common/IQMath/ti/_IQNlog.c ****     
 2881              		.loc 1 99 15 is_stmt 0 view .LVU998
 2882 0052 C012     		asrs	r0, r0, #11
 2883              	.LVL370:
 107:../Common/IQMath/ti/_IQNlog.c ****         iqNResult += __mpyf_ul(iq31_ln2, ((int_fast32_t)i16Exp << q_value));
 2884              		.loc 1 107 5 is_stmt 1 view .LVU999
 107:../Common/IQMath/ti/_IQNlog.c ****         iqNResult += __mpyf_ul(iq31_ln2, ((int_fast32_t)i16Exp << q_value));
 2885              		.loc 1 107 8 is_stmt 0 view .LVU1000
 2886 0054 BCF1000F 		cmp	ip, #0
 2887 0058 0BDD     		ble	.L165
 108:../Common/IQMath/ti/_IQNlog.c ****     }
ARM GAS  C:\Users\57308\AppData\Local\Temp\ccxDvd6L.s 			page 75


 2888              		.loc 1 108 9 is_stmt 1 view .LVU1001
 108:../Common/IQMath/ti/_IQNlog.c ****     }
 2889              		.loc 1 108 64 is_stmt 0 view .LVU1002
 2890 005a 4FEACC4C 		lsl	ip, ip, #19
 2891              	.LVL371:
 2892              	.LBB266:
 2893              	.LBI266:
 254:../Common/IQMath/ti/./support/RTS_support.h **** {
 2894              		.loc 2 254 29 is_stmt 1 view .LVU1003
 2895              	.LBB267:
 2896              		.loc 2 256 5 view .LVU1004
 2897              		.loc 2 256 49 is_stmt 0 view .LVU1005
 2898 005e 0C4A     		ldr	r2, .L171+4
 2899 0060 ACFB02C2 		umull	ip, r2, ip, r2
 2900              	.LVL372:
 2901              		.loc 2 256 72 view .LVU1006
 2902 0064 4FEADC73 		lsr	r3, ip, #31
 2903 0068 43EA4203 		orr	r3, r3, r2, lsl #1
 2904              	.LVL373:
 2905              		.loc 2 256 72 view .LVU1007
 2906              	.LBE267:
 2907              	.LBE266:
 108:../Common/IQMath/ti/_IQNlog.c ****     }
 2908              		.loc 1 108 19 view .LVU1008
 2909 006c 1844     		add	r0, r0, r3
 2910              	.LVL374:
 2911              	.L159:
 108:../Common/IQMath/ti/_IQNlog.c ****     }
 2912              		.loc 1 108 19 view .LVU1009
 2913              	.LBE271:
 2914              	.LBE274:
 254:../Common/IQMath/ti/_IQNlog.c **** }
 2915              		.loc 1 254 1 view .LVU1010
 2916 006e 30BC     		pop	{r4, r5}
 2917              	.LCFI45:
 2918              		.cfi_remember_state
 2919              		.cfi_restore 5
 2920              		.cfi_restore 4
 2921              		.cfi_def_cfa_offset 0
 2922              	.LVL375:
 2923              		.loc 1 254 1 view .LVU1011
 2924 0070 7047     		bx	lr
 2925              	.LVL376:
 2926              	.L165:
 2927              	.LCFI46:
 2928              		.cfi_restore_state
 2929              	.LBB275:
 2930              	.LBB272:
 111:../Common/IQMath/ti/_IQNlog.c ****     }
 2931              		.loc 1 111 9 is_stmt 1 view .LVU1012
 111:../Common/IQMath/ti/_IQNlog.c ****     }
 2932              		.loc 1 111 59 is_stmt 0 view .LVU1013
 2933 0072 CCF10003 		rsb	r3, ip, #0
 111:../Common/IQMath/ti/_IQNlog.c ****     }
 2934              		.loc 1 111 22 view .LVU1014
 2935 0076 DB04     		lsls	r3, r3, #19
 2936              	.LVL377:
ARM GAS  C:\Users\57308\AppData\Local\Temp\ccxDvd6L.s 			page 76


 2937              	.LBB268:
 2938              	.LBI268:
 254:../Common/IQMath/ti/./support/RTS_support.h **** {
 2939              		.loc 2 254 29 is_stmt 1 view .LVU1015
 2940              	.LBB269:
 2941              		.loc 2 256 5 view .LVU1016
 2942              		.loc 2 256 49 is_stmt 0 view .LVU1017
 2943 0078 054A     		ldr	r2, .L171+4
 2944 007a A3FB0232 		umull	r3, r2, r3, r2
 2945              	.LVL378:
 2946              		.loc 2 256 72 view .LVU1018
 2947 007e DB0F     		lsrs	r3, r3, #31
 2948 0080 43EA4203 		orr	r3, r3, r2, lsl #1
 2949              	.LVL379:
 2950              		.loc 2 256 72 view .LVU1019
 2951              	.LBE269:
 2952              	.LBE268:
 111:../Common/IQMath/ti/_IQNlog.c ****     }
 2953              		.loc 1 111 19 view .LVU1020
 2954 0084 C01A     		subs	r0, r0, r3
 2955              	.LVL380:
 111:../Common/IQMath/ti/_IQNlog.c ****     }
 2956              		.loc 1 111 19 view .LVU1021
 2957 0086 F2E7     		b	.L159
 2958              	.LVL381:
 2959              	.L166:
 2960              	.LCFI47:
 2961              		.cfi_def_cfa_offset 0
 2962              		.cfi_restore 4
 2963              		.cfi_restore 5
  57:../Common/IQMath/ti/_IQNlog.c ****         }
 2964              		.loc 1 57 20 view .LVU1022
 2965 0088 0020     		movs	r0, #0
 2966              	.LVL382:
  57:../Common/IQMath/ti/_IQNlog.c ****         }
 2967              		.loc 1 57 20 view .LVU1023
 2968              	.LBE272:
 2969              	.LBE275:
 2970              		.loc 1 254 1 view .LVU1024
 2971 008a 7047     		bx	lr
 2972              	.L172:
 2973              		.align	2
 2974              	.L171:
 2975 008c 00000000 		.word	_IQ30log_coeffs
 2976 0090 FC0BB958 		.word	1488522236
 2977              		.cfi_endproc
 2978              	.LFE273:
 2980              		.section	.text._IQ18log,"ax",%progbits
 2981              		.align	1
 2982              		.global	_IQ18log
 2983              		.syntax unified
 2984              		.thumb
 2985              		.thumb_func
 2987              	_IQ18log:
 2988              	.LVL383:
 2989              	.LFB274:
 255:../Common/IQMath/ti/_IQNlog.c **** /**
ARM GAS  C:\Users\57308\AppData\Local\Temp\ccxDvd6L.s 			page 77


 256:../Common/IQMath/ti/_IQNlog.c ****  * @brief Computes the base-e logarithm of an IQ18 input.
 257:../Common/IQMath/ti/_IQNlog.c ****  *
 258:../Common/IQMath/ti/_IQNlog.c ****  * @param a                 IQ18 type input.
 259:../Common/IQMath/ti/_IQNlog.c ****  *
 260:../Common/IQMath/ti/_IQNlog.c ****  * @return                  IQ18 type result of exponential.
 261:../Common/IQMath/ti/_IQNlog.c ****  */
 262:../Common/IQMath/ti/_IQNlog.c **** int32_t _IQ18log(int32_t a)
 263:../Common/IQMath/ti/_IQNlog.c **** {
 2990              		.loc 1 263 1 is_stmt 1 view -0
 2991              		.cfi_startproc
 2992              		@ args = 0, pretend = 0, frame = 0
 2993              		@ frame_needed = 0, uses_anonymous_args = 0
 2994              		@ link register save eliminated.
 264:../Common/IQMath/ti/_IQNlog.c ****     return __IQNlog(a, 1, 18);
 2995              		.loc 1 264 5 view .LVU1026
 2996              	.LBB284:
 2997              	.LBI284:
  28:../Common/IQMath/ti/_IQNlog.c **** {
 2998              		.loc 1 28 30 view .LVU1027
 2999              	.LBB285:
  30:../Common/IQMath/ti/_IQNlog.c ****     int_fast16_t i16Exp;
 3000              		.loc 1 30 5 view .LVU1028
  31:../Common/IQMath/ti/_IQNlog.c ****     uint_fast16_t ui16IntState;
 3001              		.loc 1 31 5 view .LVU1029
  32:../Common/IQMath/ti/_IQNlog.c ****     uint_fast16_t ui16MPYState;
 3002              		.loc 1 32 5 view .LVU1030
  33:../Common/IQMath/ti/_IQNlog.c ****     int_fast32_t iqNResult;
 3003              		.loc 1 33 5 view .LVU1031
  34:../Common/IQMath/ti/_IQNlog.c ****     int_fast32_t iq30Result;
 3004              		.loc 1 34 5 view .LVU1032
  35:../Common/IQMath/ti/_IQNlog.c ****     uint_fast32_t uiq31Input;
 3005              		.loc 1 35 5 view .LVU1033
  36:../Common/IQMath/ti/_IQNlog.c ****     const uint_fast32_t *piq30Coeffs;
 3006              		.loc 1 36 5 view .LVU1034
  37:../Common/IQMath/ti/_IQNlog.c ****     
 3007              		.loc 1 37 5 view .LVU1035
  43:../Common/IQMath/ti/_IQNlog.c ****         if (iqNInput <= 0) {
 3008              		.loc 1 43 5 view .LVU1036
  56:../Common/IQMath/ti/_IQNlog.c ****             return 0;
 3009              		.loc 1 56 9 view .LVU1037
  56:../Common/IQMath/ti/_IQNlog.c ****             return 0;
 3010              		.loc 1 56 12 is_stmt 0 view .LVU1038
 3011 0000 011E     		subs	r1, r0, #0
 3012 0002 41DD     		ble	.L180
 3013              	.LBE285:
 3014              	.LBE284:
 263:../Common/IQMath/ti/_IQNlog.c ****     return __IQNlog(a, 1, 18);
 3015              		.loc 1 263 1 view .LVU1039
 3016 0004 30B4     		push	{r4, r5}
 3017              	.LCFI48:
 3018              		.cfi_def_cfa_offset 8
 3019              		.cfi_offset 4, -8
 3020              		.cfi_offset 5, -4
 3021              	.LBB295:
 3022              	.LBB292:
  62:../Common/IQMath/ti/_IQNlog.c ****     
 3023              		.loc 1 62 5 is_stmt 1 view .LVU1040
ARM GAS  C:\Users\57308\AppData\Local\Temp\ccxDvd6L.s 			page 78


 3024              	.LVL384:
  69:../Common/IQMath/ti/_IQNlog.c ****     while (uiq31Input < iq31_twoThird) {
 3025              		.loc 1 69 5 view .LVU1041
  70:../Common/IQMath/ti/_IQNlog.c ****         uiq31Input <<= 1;
 3026              		.loc 1 70 5 view .LVU1042
  62:../Common/IQMath/ti/_IQNlog.c ****     
 3027              		.loc 1 62 12 is_stmt 0 view .LVU1043
 3028 0006 4FF00D0C 		mov	ip, #13
  70:../Common/IQMath/ti/_IQNlog.c ****         uiq31Input <<= 1;
 3029              		.loc 1 70 11 view .LVU1044
 3030 000a 02E0     		b	.L175
 3031              	.LVL385:
 3032              	.L176:
  71:../Common/IQMath/ti/_IQNlog.c ****         i16Exp--;
 3033              		.loc 1 71 9 is_stmt 1 view .LVU1045
  71:../Common/IQMath/ti/_IQNlog.c ****         i16Exp--;
 3034              		.loc 1 71 20 is_stmt 0 view .LVU1046
 3035 000c 4900     		lsls	r1, r1, #1
 3036              	.LVL386:
  72:../Common/IQMath/ti/_IQNlog.c ****     }
 3037              		.loc 1 72 9 is_stmt 1 view .LVU1047
  72:../Common/IQMath/ti/_IQNlog.c ****     }
 3038              		.loc 1 72 15 is_stmt 0 view .LVU1048
 3039 000e 0CF1FF3C 		add	ip, ip, #-1
 3040              	.LVL387:
 3041              	.L175:
  70:../Common/IQMath/ti/_IQNlog.c ****         uiq31Input <<= 1;
 3042              		.loc 1 70 11 is_stmt 1 view .LVU1049
 3043 0012 B1F1553F 		cmp	r1, #1431655765
 3044 0016 F9D3     		bcc	.L176
  81:../Common/IQMath/ti/_IQNlog.c ****     
 3045              		.loc 1 81 5 view .LVU1050
 3046              	.LVL388:
  81:../Common/IQMath/ti/_IQNlog.c ****     
 3047              		.loc 1 81 5 is_stmt 0 view .LVU1051
 3048              	.LBE292:
 3049              	.LBE295:
  28:../Common/IQMath/ti/./support/RTS_support.h **** }
 3050              		.loc 2 28 5 is_stmt 1 view .LVU1052
 3051              	.LBB296:
 3052              	.LBB293:
  88:../Common/IQMath/ti/_IQNlog.c ****     iq30Result = *piq30Coeffs++;
 3053              		.loc 1 88 5 view .LVU1053
  89:../Common/IQMath/ti/_IQNlog.c ****     uiq31Input -= iq31_one;
 3054              		.loc 1 89 5 view .LVU1054
  89:../Common/IQMath/ti/_IQNlog.c ****     uiq31Input -= iq31_one;
 3055              		.loc 1 89 18 is_stmt 0 view .LVU1055
 3056 0018 1C4C     		ldr	r4, .L185
 3057 001a 54F8040B 		ldr	r0, [r4], #4
 3058              	.LVL389:
  90:../Common/IQMath/ti/_IQNlog.c ****     
 3059              		.loc 1 90 5 is_stmt 1 view .LVU1056
  90:../Common/IQMath/ti/_IQNlog.c ****     
 3060              		.loc 1 90 16 is_stmt 0 view .LVU1057
 3061 001e 01F10041 		add	r1, r1, #-2147483648
 3062              	.LVL390:
  90:../Common/IQMath/ti/_IQNlog.c ****     
ARM GAS  C:\Users\57308\AppData\Local\Temp\ccxDvd6L.s 			page 79


 3063              		.loc 1 90 16 view .LVU1058
 3064 0022 0131     		adds	r1, r1, #1
 3065              	.LVL391:
  93:../Common/IQMath/ti/_IQNlog.c ****         iq30Result = __mpyf_l(uiq31Input, iq30Result);
 3066              		.loc 1 93 5 is_stmt 1 view .LVU1059
  93:../Common/IQMath/ti/_IQNlog.c ****         iq30Result = __mpyf_l(uiq31Input, iq30Result);
 3067              		.loc 1 93 21 is_stmt 0 view .LVU1060
 3068 0024 0E25     		movs	r5, #14
  93:../Common/IQMath/ti/_IQNlog.c ****         iq30Result = __mpyf_l(uiq31Input, iq30Result);
 3069              		.loc 1 93 5 view .LVU1061
 3070 0026 12E0     		b	.L177
 3071              	.LVL392:
 3072              	.L178:
  94:../Common/IQMath/ti/_IQNlog.c ****         iq30Result += *piq30Coeffs++;
 3073              		.loc 1 94 9 is_stmt 1 view .LVU1062
 3074              	.LBB286:
 3075              	.LBI286:
 233:../Common/IQMath/ti/./support/RTS_support.h **** {
 3076              		.loc 2 233 28 view .LVU1063
 3077              	.LBB287:
 235:../Common/IQMath/ti/./support/RTS_support.h **** }
 3078              		.loc 2 235 5 view .LVU1064
 235:../Common/IQMath/ti/./support/RTS_support.h **** }
 3079              		.loc 2 235 28 is_stmt 0 view .LVU1065
 3080 0028 CB17     		asrs	r3, r1, #31
 235:../Common/IQMath/ti/./support/RTS_support.h **** }
 3081              		.loc 2 235 49 view .LVU1066
 3082 002a C217     		asrs	r2, r0, #31
 235:../Common/IQMath/ti/./support/RTS_support.h **** }
 3083              		.loc 2 235 47 view .LVU1067
 3084 002c 01FB02F2 		mul	r2, r1, r2
 3085 0030 00FB0323 		mla	r3, r0, r3, r2
 3086 0034 A1FB0002 		umull	r0, r2, r1, r0
 3087              	.LVL393:
 235:../Common/IQMath/ti/./support/RTS_support.h **** }
 3088              		.loc 2 235 47 view .LVU1068
 3089 0038 1344     		add	r3, r3, r2
 235:../Common/IQMath/ti/./support/RTS_support.h **** }
 3090              		.loc 2 235 69 view .LVU1069
 3091 003a C00F     		lsrs	r0, r0, #31
 3092 003c 40EA4300 		orr	r0, r0, r3, lsl #1
 3093              	.LVL394:
 235:../Common/IQMath/ti/./support/RTS_support.h **** }
 3094              		.loc 2 235 69 view .LVU1070
 3095              	.LBE287:
 3096              	.LBE286:
  95:../Common/IQMath/ti/_IQNlog.c ****     }
 3097              		.loc 1 95 9 is_stmt 1 view .LVU1071
  95:../Common/IQMath/ti/_IQNlog.c ****     }
 3098              		.loc 1 95 35 is_stmt 0 view .LVU1072
 3099 0040 2346     		mov	r3, r4
 3100              	.LVL395:
  95:../Common/IQMath/ti/_IQNlog.c ****     }
 3101              		.loc 1 95 23 view .LVU1073
 3102 0042 53F8042B 		ldr	r2, [r3], #4
 3103              	.LVL396:
  95:../Common/IQMath/ti/_IQNlog.c ****     }
ARM GAS  C:\Users\57308\AppData\Local\Temp\ccxDvd6L.s 			page 80


 3104              		.loc 1 95 20 view .LVU1074
 3105 0046 1044     		add	r0, r0, r2
 3106              	.LVL397:
  93:../Common/IQMath/ti/_IQNlog.c ****         iq30Result = __mpyf_l(uiq31Input, iq30Result);
 3107              		.loc 1 93 55 is_stmt 1 view .LVU1075
  93:../Common/IQMath/ti/_IQNlog.c ****         iq30Result = __mpyf_l(uiq31Input, iq30Result);
 3108              		.loc 1 93 65 is_stmt 0 view .LVU1076
 3109 0048 013D     		subs	r5, r5, #1
 3110              	.LVL398:
  93:../Common/IQMath/ti/_IQNlog.c ****         iq30Result = __mpyf_l(uiq31Input, iq30Result);
 3111              		.loc 1 93 65 view .LVU1077
 3112 004a EDB2     		uxtb	r5, r5
 3113              	.LVL399:
  95:../Common/IQMath/ti/_IQNlog.c ****     }
 3114              		.loc 1 95 35 view .LVU1078
 3115 004c 1C46     		mov	r4, r3
 3116              	.LVL400:
 3117              	.L177:
  93:../Common/IQMath/ti/_IQNlog.c ****         iq30Result = __mpyf_l(uiq31Input, iq30Result);
 3118              		.loc 1 93 39 is_stmt 1 view .LVU1079
  93:../Common/IQMath/ti/_IQNlog.c ****         iq30Result = __mpyf_l(uiq31Input, iq30Result);
 3119              		.loc 1 93 5 is_stmt 0 view .LVU1080
 3120 004e 002D     		cmp	r5, #0
 3121 0050 EAD1     		bne	.L178
  99:../Common/IQMath/ti/_IQNlog.c ****     
 3122              		.loc 1 99 5 is_stmt 1 view .LVU1081
  99:../Common/IQMath/ti/_IQNlog.c ****     
 3123              		.loc 1 99 15 is_stmt 0 view .LVU1082
 3124 0052 0013     		asrs	r0, r0, #12
 3125              	.LVL401:
 107:../Common/IQMath/ti/_IQNlog.c ****         iqNResult += __mpyf_ul(iq31_ln2, ((int_fast32_t)i16Exp << q_value));
 3126              		.loc 1 107 5 is_stmt 1 view .LVU1083
 107:../Common/IQMath/ti/_IQNlog.c ****         iqNResult += __mpyf_ul(iq31_ln2, ((int_fast32_t)i16Exp << q_value));
 3127              		.loc 1 107 8 is_stmt 0 view .LVU1084
 3128 0054 BCF1000F 		cmp	ip, #0
 3129 0058 0BDD     		ble	.L179
 108:../Common/IQMath/ti/_IQNlog.c ****     }
 3130              		.loc 1 108 9 is_stmt 1 view .LVU1085
 108:../Common/IQMath/ti/_IQNlog.c ****     }
 3131              		.loc 1 108 64 is_stmt 0 view .LVU1086
 3132 005a 4FEA8C4C 		lsl	ip, ip, #18
 3133              	.LVL402:
 3134              	.LBB288:
 3135              	.LBI288:
 254:../Common/IQMath/ti/./support/RTS_support.h **** {
 3136              		.loc 2 254 29 is_stmt 1 view .LVU1087
 3137              	.LBB289:
 3138              		.loc 2 256 5 view .LVU1088
 3139              		.loc 2 256 49 is_stmt 0 view .LVU1089
 3140 005e 0C4A     		ldr	r2, .L185+4
 3141 0060 ACFB02C2 		umull	ip, r2, ip, r2
 3142              	.LVL403:
 3143              		.loc 2 256 72 view .LVU1090
 3144 0064 4FEADC73 		lsr	r3, ip, #31
 3145 0068 43EA4203 		orr	r3, r3, r2, lsl #1
 3146              	.LVL404:
 3147              		.loc 2 256 72 view .LVU1091
ARM GAS  C:\Users\57308\AppData\Local\Temp\ccxDvd6L.s 			page 81


 3148              	.LBE289:
 3149              	.LBE288:
 108:../Common/IQMath/ti/_IQNlog.c ****     }
 3150              		.loc 1 108 19 view .LVU1092
 3151 006c 1844     		add	r0, r0, r3
 3152              	.LVL405:
 3153              	.L173:
 108:../Common/IQMath/ti/_IQNlog.c ****     }
 3154              		.loc 1 108 19 view .LVU1093
 3155              	.LBE293:
 3156              	.LBE296:
 265:../Common/IQMath/ti/_IQNlog.c **** }
 3157              		.loc 1 265 1 view .LVU1094
 3158 006e 30BC     		pop	{r4, r5}
 3159              	.LCFI49:
 3160              		.cfi_remember_state
 3161              		.cfi_restore 5
 3162              		.cfi_restore 4
 3163              		.cfi_def_cfa_offset 0
 3164              	.LVL406:
 3165              		.loc 1 265 1 view .LVU1095
 3166 0070 7047     		bx	lr
 3167              	.LVL407:
 3168              	.L179:
 3169              	.LCFI50:
 3170              		.cfi_restore_state
 3171              	.LBB297:
 3172              	.LBB294:
 111:../Common/IQMath/ti/_IQNlog.c ****     }
 3173              		.loc 1 111 9 is_stmt 1 view .LVU1096
 111:../Common/IQMath/ti/_IQNlog.c ****     }
 3174              		.loc 1 111 59 is_stmt 0 view .LVU1097
 3175 0072 CCF10003 		rsb	r3, ip, #0
 111:../Common/IQMath/ti/_IQNlog.c ****     }
 3176              		.loc 1 111 22 view .LVU1098
 3177 0076 9B04     		lsls	r3, r3, #18
 3178              	.LVL408:
 3179              	.LBB290:
 3180              	.LBI290:
 254:../Common/IQMath/ti/./support/RTS_support.h **** {
 3181              		.loc 2 254 29 is_stmt 1 view .LVU1099
 3182              	.LBB291:
 3183              		.loc 2 256 5 view .LVU1100
 3184              		.loc 2 256 49 is_stmt 0 view .LVU1101
 3185 0078 054A     		ldr	r2, .L185+4
 3186 007a A3FB0232 		umull	r3, r2, r3, r2
 3187              	.LVL409:
 3188              		.loc 2 256 72 view .LVU1102
 3189 007e DB0F     		lsrs	r3, r3, #31
 3190 0080 43EA4203 		orr	r3, r3, r2, lsl #1
 3191              	.LVL410:
 3192              		.loc 2 256 72 view .LVU1103
 3193              	.LBE291:
 3194              	.LBE290:
 111:../Common/IQMath/ti/_IQNlog.c ****     }
 3195              		.loc 1 111 19 view .LVU1104
 3196 0084 C01A     		subs	r0, r0, r3
ARM GAS  C:\Users\57308\AppData\Local\Temp\ccxDvd6L.s 			page 82


 3197              	.LVL411:
 111:../Common/IQMath/ti/_IQNlog.c ****     }
 3198              		.loc 1 111 19 view .LVU1105
 3199 0086 F2E7     		b	.L173
 3200              	.LVL412:
 3201              	.L180:
 3202              	.LCFI51:
 3203              		.cfi_def_cfa_offset 0
 3204              		.cfi_restore 4
 3205              		.cfi_restore 5
  57:../Common/IQMath/ti/_IQNlog.c ****         }
 3206              		.loc 1 57 20 view .LVU1106
 3207 0088 0020     		movs	r0, #0
 3208              	.LVL413:
  57:../Common/IQMath/ti/_IQNlog.c ****         }
 3209              		.loc 1 57 20 view .LVU1107
 3210              	.LBE294:
 3211              	.LBE297:
 3212              		.loc 1 265 1 view .LVU1108
 3213 008a 7047     		bx	lr
 3214              	.L186:
 3215              		.align	2
 3216              	.L185:
 3217 008c 00000000 		.word	_IQ30log_coeffs
 3218 0090 FC0BB958 		.word	1488522236
 3219              		.cfi_endproc
 3220              	.LFE274:
 3222              		.section	.text._IQ17log,"ax",%progbits
 3223              		.align	1
 3224              		.global	_IQ17log
 3225              		.syntax unified
 3226              		.thumb
 3227              		.thumb_func
 3229              	_IQ17log:
 3230              	.LVL414:
 3231              	.LFB275:
 266:../Common/IQMath/ti/_IQNlog.c **** /**
 267:../Common/IQMath/ti/_IQNlog.c ****  * @brief Computes the base-e logarithm of an IQ17 input.
 268:../Common/IQMath/ti/_IQNlog.c ****  *
 269:../Common/IQMath/ti/_IQNlog.c ****  * @param a                 IQ17 type input.
 270:../Common/IQMath/ti/_IQNlog.c ****  *
 271:../Common/IQMath/ti/_IQNlog.c ****  * @return                  IQ17 type result of exponential.
 272:../Common/IQMath/ti/_IQNlog.c ****  */
 273:../Common/IQMath/ti/_IQNlog.c **** int32_t _IQ17log(int32_t a)
 274:../Common/IQMath/ti/_IQNlog.c **** {
 3232              		.loc 1 274 1 is_stmt 1 view -0
 3233              		.cfi_startproc
 3234              		@ args = 0, pretend = 0, frame = 0
 3235              		@ frame_needed = 0, uses_anonymous_args = 0
 3236              		@ link register save eliminated.
 275:../Common/IQMath/ti/_IQNlog.c ****     return __IQNlog(a, 1, 17);
 3237              		.loc 1 275 5 view .LVU1110
 3238              	.LBB306:
 3239              	.LBI306:
  28:../Common/IQMath/ti/_IQNlog.c **** {
 3240              		.loc 1 28 30 view .LVU1111
 3241              	.LBB307:
ARM GAS  C:\Users\57308\AppData\Local\Temp\ccxDvd6L.s 			page 83


  30:../Common/IQMath/ti/_IQNlog.c ****     int_fast16_t i16Exp;
 3242              		.loc 1 30 5 view .LVU1112
  31:../Common/IQMath/ti/_IQNlog.c ****     uint_fast16_t ui16IntState;
 3243              		.loc 1 31 5 view .LVU1113
  32:../Common/IQMath/ti/_IQNlog.c ****     uint_fast16_t ui16MPYState;
 3244              		.loc 1 32 5 view .LVU1114
  33:../Common/IQMath/ti/_IQNlog.c ****     int_fast32_t iqNResult;
 3245              		.loc 1 33 5 view .LVU1115
  34:../Common/IQMath/ti/_IQNlog.c ****     int_fast32_t iq30Result;
 3246              		.loc 1 34 5 view .LVU1116
  35:../Common/IQMath/ti/_IQNlog.c ****     uint_fast32_t uiq31Input;
 3247              		.loc 1 35 5 view .LVU1117
  36:../Common/IQMath/ti/_IQNlog.c ****     const uint_fast32_t *piq30Coeffs;
 3248              		.loc 1 36 5 view .LVU1118
  37:../Common/IQMath/ti/_IQNlog.c ****     
 3249              		.loc 1 37 5 view .LVU1119
  43:../Common/IQMath/ti/_IQNlog.c ****         if (iqNInput <= 0) {
 3250              		.loc 1 43 5 view .LVU1120
  56:../Common/IQMath/ti/_IQNlog.c ****             return 0;
 3251              		.loc 1 56 9 view .LVU1121
  56:../Common/IQMath/ti/_IQNlog.c ****             return 0;
 3252              		.loc 1 56 12 is_stmt 0 view .LVU1122
 3253 0000 011E     		subs	r1, r0, #0
 3254 0002 41DD     		ble	.L194
 3255              	.LBE307:
 3256              	.LBE306:
 274:../Common/IQMath/ti/_IQNlog.c ****     return __IQNlog(a, 1, 17);
 3257              		.loc 1 274 1 view .LVU1123
 3258 0004 30B4     		push	{r4, r5}
 3259              	.LCFI52:
 3260              		.cfi_def_cfa_offset 8
 3261              		.cfi_offset 4, -8
 3262              		.cfi_offset 5, -4
 3263              	.LBB317:
 3264              	.LBB314:
  62:../Common/IQMath/ti/_IQNlog.c ****     
 3265              		.loc 1 62 5 is_stmt 1 view .LVU1124
 3266              	.LVL415:
  69:../Common/IQMath/ti/_IQNlog.c ****     while (uiq31Input < iq31_twoThird) {
 3267              		.loc 1 69 5 view .LVU1125
  70:../Common/IQMath/ti/_IQNlog.c ****         uiq31Input <<= 1;
 3268              		.loc 1 70 5 view .LVU1126
  62:../Common/IQMath/ti/_IQNlog.c ****     
 3269              		.loc 1 62 12 is_stmt 0 view .LVU1127
 3270 0006 4FF00E0C 		mov	ip, #14
  70:../Common/IQMath/ti/_IQNlog.c ****         uiq31Input <<= 1;
 3271              		.loc 1 70 11 view .LVU1128
 3272 000a 02E0     		b	.L189
 3273              	.LVL416:
 3274              	.L190:
  71:../Common/IQMath/ti/_IQNlog.c ****         i16Exp--;
 3275              		.loc 1 71 9 is_stmt 1 view .LVU1129
  71:../Common/IQMath/ti/_IQNlog.c ****         i16Exp--;
 3276              		.loc 1 71 20 is_stmt 0 view .LVU1130
 3277 000c 4900     		lsls	r1, r1, #1
 3278              	.LVL417:
  72:../Common/IQMath/ti/_IQNlog.c ****     }
ARM GAS  C:\Users\57308\AppData\Local\Temp\ccxDvd6L.s 			page 84


 3279              		.loc 1 72 9 is_stmt 1 view .LVU1131
  72:../Common/IQMath/ti/_IQNlog.c ****     }
 3280              		.loc 1 72 15 is_stmt 0 view .LVU1132
 3281 000e 0CF1FF3C 		add	ip, ip, #-1
 3282              	.LVL418:
 3283              	.L189:
  70:../Common/IQMath/ti/_IQNlog.c ****         uiq31Input <<= 1;
 3284              		.loc 1 70 11 is_stmt 1 view .LVU1133
 3285 0012 B1F1553F 		cmp	r1, #1431655765
 3286 0016 F9D3     		bcc	.L190
  81:../Common/IQMath/ti/_IQNlog.c ****     
 3287              		.loc 1 81 5 view .LVU1134
 3288              	.LVL419:
  81:../Common/IQMath/ti/_IQNlog.c ****     
 3289              		.loc 1 81 5 is_stmt 0 view .LVU1135
 3290              	.LBE314:
 3291              	.LBE317:
  28:../Common/IQMath/ti/./support/RTS_support.h **** }
 3292              		.loc 2 28 5 is_stmt 1 view .LVU1136
 3293              	.LBB318:
 3294              	.LBB315:
  88:../Common/IQMath/ti/_IQNlog.c ****     iq30Result = *piq30Coeffs++;
 3295              		.loc 1 88 5 view .LVU1137
  89:../Common/IQMath/ti/_IQNlog.c ****     uiq31Input -= iq31_one;
 3296              		.loc 1 89 5 view .LVU1138
  89:../Common/IQMath/ti/_IQNlog.c ****     uiq31Input -= iq31_one;
 3297              		.loc 1 89 18 is_stmt 0 view .LVU1139
 3298 0018 1C4C     		ldr	r4, .L199
 3299 001a 54F8040B 		ldr	r0, [r4], #4
 3300              	.LVL420:
  90:../Common/IQMath/ti/_IQNlog.c ****     
 3301              		.loc 1 90 5 is_stmt 1 view .LVU1140
  90:../Common/IQMath/ti/_IQNlog.c ****     
 3302              		.loc 1 90 16 is_stmt 0 view .LVU1141
 3303 001e 01F10041 		add	r1, r1, #-2147483648
 3304              	.LVL421:
  90:../Common/IQMath/ti/_IQNlog.c ****     
 3305              		.loc 1 90 16 view .LVU1142
 3306 0022 0131     		adds	r1, r1, #1
 3307              	.LVL422:
  93:../Common/IQMath/ti/_IQNlog.c ****         iq30Result = __mpyf_l(uiq31Input, iq30Result);
 3308              		.loc 1 93 5 is_stmt 1 view .LVU1143
  93:../Common/IQMath/ti/_IQNlog.c ****         iq30Result = __mpyf_l(uiq31Input, iq30Result);
 3309              		.loc 1 93 21 is_stmt 0 view .LVU1144
 3310 0024 0E25     		movs	r5, #14
  93:../Common/IQMath/ti/_IQNlog.c ****         iq30Result = __mpyf_l(uiq31Input, iq30Result);
 3311              		.loc 1 93 5 view .LVU1145
 3312 0026 12E0     		b	.L191
 3313              	.LVL423:
 3314              	.L192:
  94:../Common/IQMath/ti/_IQNlog.c ****         iq30Result += *piq30Coeffs++;
 3315              		.loc 1 94 9 is_stmt 1 view .LVU1146
 3316              	.LBB308:
 3317              	.LBI308:
 233:../Common/IQMath/ti/./support/RTS_support.h **** {
 3318              		.loc 2 233 28 view .LVU1147
 3319              	.LBB309:
ARM GAS  C:\Users\57308\AppData\Local\Temp\ccxDvd6L.s 			page 85


 235:../Common/IQMath/ti/./support/RTS_support.h **** }
 3320              		.loc 2 235 5 view .LVU1148
 235:../Common/IQMath/ti/./support/RTS_support.h **** }
 3321              		.loc 2 235 28 is_stmt 0 view .LVU1149
 3322 0028 CB17     		asrs	r3, r1, #31
 235:../Common/IQMath/ti/./support/RTS_support.h **** }
 3323              		.loc 2 235 49 view .LVU1150
 3324 002a C217     		asrs	r2, r0, #31
 235:../Common/IQMath/ti/./support/RTS_support.h **** }
 3325              		.loc 2 235 47 view .LVU1151
 3326 002c 01FB02F2 		mul	r2, r1, r2
 3327 0030 00FB0323 		mla	r3, r0, r3, r2
 3328 0034 A1FB0002 		umull	r0, r2, r1, r0
 3329              	.LVL424:
 235:../Common/IQMath/ti/./support/RTS_support.h **** }
 3330              		.loc 2 235 47 view .LVU1152
 3331 0038 1344     		add	r3, r3, r2
 235:../Common/IQMath/ti/./support/RTS_support.h **** }
 3332              		.loc 2 235 69 view .LVU1153
 3333 003a C00F     		lsrs	r0, r0, #31
 3334 003c 40EA4300 		orr	r0, r0, r3, lsl #1
 3335              	.LVL425:
 235:../Common/IQMath/ti/./support/RTS_support.h **** }
 3336              		.loc 2 235 69 view .LVU1154
 3337              	.LBE309:
 3338              	.LBE308:
  95:../Common/IQMath/ti/_IQNlog.c ****     }
 3339              		.loc 1 95 9 is_stmt 1 view .LVU1155
  95:../Common/IQMath/ti/_IQNlog.c ****     }
 3340              		.loc 1 95 35 is_stmt 0 view .LVU1156
 3341 0040 2346     		mov	r3, r4
 3342              	.LVL426:
  95:../Common/IQMath/ti/_IQNlog.c ****     }
 3343              		.loc 1 95 23 view .LVU1157
 3344 0042 53F8042B 		ldr	r2, [r3], #4
 3345              	.LVL427:
  95:../Common/IQMath/ti/_IQNlog.c ****     }
 3346              		.loc 1 95 20 view .LVU1158
 3347 0046 1044     		add	r0, r0, r2
 3348              	.LVL428:
  93:../Common/IQMath/ti/_IQNlog.c ****         iq30Result = __mpyf_l(uiq31Input, iq30Result);
 3349              		.loc 1 93 55 is_stmt 1 view .LVU1159
  93:../Common/IQMath/ti/_IQNlog.c ****         iq30Result = __mpyf_l(uiq31Input, iq30Result);
 3350              		.loc 1 93 65 is_stmt 0 view .LVU1160
 3351 0048 013D     		subs	r5, r5, #1
 3352              	.LVL429:
  93:../Common/IQMath/ti/_IQNlog.c ****         iq30Result = __mpyf_l(uiq31Input, iq30Result);
 3353              		.loc 1 93 65 view .LVU1161
 3354 004a EDB2     		uxtb	r5, r5
 3355              	.LVL430:
  95:../Common/IQMath/ti/_IQNlog.c ****     }
 3356              		.loc 1 95 35 view .LVU1162
 3357 004c 1C46     		mov	r4, r3
 3358              	.LVL431:
 3359              	.L191:
  93:../Common/IQMath/ti/_IQNlog.c ****         iq30Result = __mpyf_l(uiq31Input, iq30Result);
 3360              		.loc 1 93 39 is_stmt 1 view .LVU1163
ARM GAS  C:\Users\57308\AppData\Local\Temp\ccxDvd6L.s 			page 86


  93:../Common/IQMath/ti/_IQNlog.c ****         iq30Result = __mpyf_l(uiq31Input, iq30Result);
 3361              		.loc 1 93 5 is_stmt 0 view .LVU1164
 3362 004e 002D     		cmp	r5, #0
 3363 0050 EAD1     		bne	.L192
  99:../Common/IQMath/ti/_IQNlog.c ****     
 3364              		.loc 1 99 5 is_stmt 1 view .LVU1165
  99:../Common/IQMath/ti/_IQNlog.c ****     
 3365              		.loc 1 99 15 is_stmt 0 view .LVU1166
 3366 0052 4013     		asrs	r0, r0, #13
 3367              	.LVL432:
 107:../Common/IQMath/ti/_IQNlog.c ****         iqNResult += __mpyf_ul(iq31_ln2, ((int_fast32_t)i16Exp << q_value));
 3368              		.loc 1 107 5 is_stmt 1 view .LVU1167
 107:../Common/IQMath/ti/_IQNlog.c ****         iqNResult += __mpyf_ul(iq31_ln2, ((int_fast32_t)i16Exp << q_value));
 3369              		.loc 1 107 8 is_stmt 0 view .LVU1168
 3370 0054 BCF1000F 		cmp	ip, #0
 3371 0058 0BDD     		ble	.L193
 108:../Common/IQMath/ti/_IQNlog.c ****     }
 3372              		.loc 1 108 9 is_stmt 1 view .LVU1169
 108:../Common/IQMath/ti/_IQNlog.c ****     }
 3373              		.loc 1 108 64 is_stmt 0 view .LVU1170
 3374 005a 4FEA4C4C 		lsl	ip, ip, #17
 3375              	.LVL433:
 3376              	.LBB310:
 3377              	.LBI310:
 254:../Common/IQMath/ti/./support/RTS_support.h **** {
 3378              		.loc 2 254 29 is_stmt 1 view .LVU1171
 3379              	.LBB311:
 3380              		.loc 2 256 5 view .LVU1172
 3381              		.loc 2 256 49 is_stmt 0 view .LVU1173
 3382 005e 0C4A     		ldr	r2, .L199+4
 3383 0060 ACFB02C2 		umull	ip, r2, ip, r2
 3384              	.LVL434:
 3385              		.loc 2 256 72 view .LVU1174
 3386 0064 4FEADC73 		lsr	r3, ip, #31
 3387 0068 43EA4203 		orr	r3, r3, r2, lsl #1
 3388              	.LVL435:
 3389              		.loc 2 256 72 view .LVU1175
 3390              	.LBE311:
 3391              	.LBE310:
 108:../Common/IQMath/ti/_IQNlog.c ****     }
 3392              		.loc 1 108 19 view .LVU1176
 3393 006c 1844     		add	r0, r0, r3
 3394              	.LVL436:
 3395              	.L187:
 108:../Common/IQMath/ti/_IQNlog.c ****     }
 3396              		.loc 1 108 19 view .LVU1177
 3397              	.LBE315:
 3398              	.LBE318:
 276:../Common/IQMath/ti/_IQNlog.c **** }
 3399              		.loc 1 276 1 view .LVU1178
 3400 006e 30BC     		pop	{r4, r5}
 3401              	.LCFI53:
 3402              		.cfi_remember_state
 3403              		.cfi_restore 5
 3404              		.cfi_restore 4
 3405              		.cfi_def_cfa_offset 0
 3406              	.LVL437:
ARM GAS  C:\Users\57308\AppData\Local\Temp\ccxDvd6L.s 			page 87


 3407              		.loc 1 276 1 view .LVU1179
 3408 0070 7047     		bx	lr
 3409              	.LVL438:
 3410              	.L193:
 3411              	.LCFI54:
 3412              		.cfi_restore_state
 3413              	.LBB319:
 3414              	.LBB316:
 111:../Common/IQMath/ti/_IQNlog.c ****     }
 3415              		.loc 1 111 9 is_stmt 1 view .LVU1180
 111:../Common/IQMath/ti/_IQNlog.c ****     }
 3416              		.loc 1 111 59 is_stmt 0 view .LVU1181
 3417 0072 CCF10003 		rsb	r3, ip, #0
 111:../Common/IQMath/ti/_IQNlog.c ****     }
 3418              		.loc 1 111 22 view .LVU1182
 3419 0076 5B04     		lsls	r3, r3, #17
 3420              	.LVL439:
 3421              	.LBB312:
 3422              	.LBI312:
 254:../Common/IQMath/ti/./support/RTS_support.h **** {
 3423              		.loc 2 254 29 is_stmt 1 view .LVU1183
 3424              	.LBB313:
 3425              		.loc 2 256 5 view .LVU1184
 3426              		.loc 2 256 49 is_stmt 0 view .LVU1185
 3427 0078 054A     		ldr	r2, .L199+4
 3428 007a A3FB0232 		umull	r3, r2, r3, r2
 3429              	.LVL440:
 3430              		.loc 2 256 72 view .LVU1186
 3431 007e DB0F     		lsrs	r3, r3, #31
 3432 0080 43EA4203 		orr	r3, r3, r2, lsl #1
 3433              	.LVL441:
 3434              		.loc 2 256 72 view .LVU1187
 3435              	.LBE313:
 3436              	.LBE312:
 111:../Common/IQMath/ti/_IQNlog.c ****     }
 3437              		.loc 1 111 19 view .LVU1188
 3438 0084 C01A     		subs	r0, r0, r3
 3439              	.LVL442:
 111:../Common/IQMath/ti/_IQNlog.c ****     }
 3440              		.loc 1 111 19 view .LVU1189
 3441 0086 F2E7     		b	.L187
 3442              	.LVL443:
 3443              	.L194:
 3444              	.LCFI55:
 3445              		.cfi_def_cfa_offset 0
 3446              		.cfi_restore 4
 3447              		.cfi_restore 5
  57:../Common/IQMath/ti/_IQNlog.c ****         }
 3448              		.loc 1 57 20 view .LVU1190
 3449 0088 0020     		movs	r0, #0
 3450              	.LVL444:
  57:../Common/IQMath/ti/_IQNlog.c ****         }
 3451              		.loc 1 57 20 view .LVU1191
 3452              	.LBE316:
 3453              	.LBE319:
 3454              		.loc 1 276 1 view .LVU1192
 3455 008a 7047     		bx	lr
ARM GAS  C:\Users\57308\AppData\Local\Temp\ccxDvd6L.s 			page 88


 3456              	.L200:
 3457              		.align	2
 3458              	.L199:
 3459 008c 00000000 		.word	_IQ30log_coeffs
 3460 0090 FC0BB958 		.word	1488522236
 3461              		.cfi_endproc
 3462              	.LFE275:
 3464              		.section	.text._IQ16log,"ax",%progbits
 3465              		.align	1
 3466              		.global	_IQ16log
 3467              		.syntax unified
 3468              		.thumb
 3469              		.thumb_func
 3471              	_IQ16log:
 3472              	.LVL445:
 3473              	.LFB276:
 277:../Common/IQMath/ti/_IQNlog.c **** /**
 278:../Common/IQMath/ti/_IQNlog.c ****  * @brief Computes the base-e logarithm of an IQ16 input.
 279:../Common/IQMath/ti/_IQNlog.c ****  *
 280:../Common/IQMath/ti/_IQNlog.c ****  * @param a                 IQ16 type input.
 281:../Common/IQMath/ti/_IQNlog.c ****  *
 282:../Common/IQMath/ti/_IQNlog.c ****  * @return                  IQ16 type result of exponential.
 283:../Common/IQMath/ti/_IQNlog.c ****  */
 284:../Common/IQMath/ti/_IQNlog.c **** int32_t _IQ16log(int32_t a)
 285:../Common/IQMath/ti/_IQNlog.c **** {
 3474              		.loc 1 285 1 is_stmt 1 view -0
 3475              		.cfi_startproc
 3476              		@ args = 0, pretend = 0, frame = 0
 3477              		@ frame_needed = 0, uses_anonymous_args = 0
 3478              		@ link register save eliminated.
 286:../Common/IQMath/ti/_IQNlog.c ****     return __IQNlog(a, 1, 16);
 3479              		.loc 1 286 5 view .LVU1194
 3480              	.LBB328:
 3481              	.LBI328:
  28:../Common/IQMath/ti/_IQNlog.c **** {
 3482              		.loc 1 28 30 view .LVU1195
 3483              	.LBB329:
  30:../Common/IQMath/ti/_IQNlog.c ****     int_fast16_t i16Exp;
 3484              		.loc 1 30 5 view .LVU1196
  31:../Common/IQMath/ti/_IQNlog.c ****     uint_fast16_t ui16IntState;
 3485              		.loc 1 31 5 view .LVU1197
  32:../Common/IQMath/ti/_IQNlog.c ****     uint_fast16_t ui16MPYState;
 3486              		.loc 1 32 5 view .LVU1198
  33:../Common/IQMath/ti/_IQNlog.c ****     int_fast32_t iqNResult;
 3487              		.loc 1 33 5 view .LVU1199
  34:../Common/IQMath/ti/_IQNlog.c ****     int_fast32_t iq30Result;
 3488              		.loc 1 34 5 view .LVU1200
  35:../Common/IQMath/ti/_IQNlog.c ****     uint_fast32_t uiq31Input;
 3489              		.loc 1 35 5 view .LVU1201
  36:../Common/IQMath/ti/_IQNlog.c ****     const uint_fast32_t *piq30Coeffs;
 3490              		.loc 1 36 5 view .LVU1202
  37:../Common/IQMath/ti/_IQNlog.c ****     
 3491              		.loc 1 37 5 view .LVU1203
  43:../Common/IQMath/ti/_IQNlog.c ****         if (iqNInput <= 0) {
 3492              		.loc 1 43 5 view .LVU1204
  56:../Common/IQMath/ti/_IQNlog.c ****             return 0;
 3493              		.loc 1 56 9 view .LVU1205
ARM GAS  C:\Users\57308\AppData\Local\Temp\ccxDvd6L.s 			page 89


  56:../Common/IQMath/ti/_IQNlog.c ****             return 0;
 3494              		.loc 1 56 12 is_stmt 0 view .LVU1206
 3495 0000 011E     		subs	r1, r0, #0
 3496 0002 41DD     		ble	.L208
 3497              	.LBE329:
 3498              	.LBE328:
 285:../Common/IQMath/ti/_IQNlog.c ****     return __IQNlog(a, 1, 16);
 3499              		.loc 1 285 1 view .LVU1207
 3500 0004 30B4     		push	{r4, r5}
 3501              	.LCFI56:
 3502              		.cfi_def_cfa_offset 8
 3503              		.cfi_offset 4, -8
 3504              		.cfi_offset 5, -4
 3505              	.LBB339:
 3506              	.LBB336:
  62:../Common/IQMath/ti/_IQNlog.c ****     
 3507              		.loc 1 62 5 is_stmt 1 view .LVU1208
 3508              	.LVL446:
  69:../Common/IQMath/ti/_IQNlog.c ****     while (uiq31Input < iq31_twoThird) {
 3509              		.loc 1 69 5 view .LVU1209
  70:../Common/IQMath/ti/_IQNlog.c ****         uiq31Input <<= 1;
 3510              		.loc 1 70 5 view .LVU1210
  62:../Common/IQMath/ti/_IQNlog.c ****     
 3511              		.loc 1 62 12 is_stmt 0 view .LVU1211
 3512 0006 4FF00F0C 		mov	ip, #15
  70:../Common/IQMath/ti/_IQNlog.c ****         uiq31Input <<= 1;
 3513              		.loc 1 70 11 view .LVU1212
 3514 000a 02E0     		b	.L203
 3515              	.LVL447:
 3516              	.L204:
  71:../Common/IQMath/ti/_IQNlog.c ****         i16Exp--;
 3517              		.loc 1 71 9 is_stmt 1 view .LVU1213
  71:../Common/IQMath/ti/_IQNlog.c ****         i16Exp--;
 3518              		.loc 1 71 20 is_stmt 0 view .LVU1214
 3519 000c 4900     		lsls	r1, r1, #1
 3520              	.LVL448:
  72:../Common/IQMath/ti/_IQNlog.c ****     }
 3521              		.loc 1 72 9 is_stmt 1 view .LVU1215
  72:../Common/IQMath/ti/_IQNlog.c ****     }
 3522              		.loc 1 72 15 is_stmt 0 view .LVU1216
 3523 000e 0CF1FF3C 		add	ip, ip, #-1
 3524              	.LVL449:
 3525              	.L203:
  70:../Common/IQMath/ti/_IQNlog.c ****         uiq31Input <<= 1;
 3526              		.loc 1 70 11 is_stmt 1 view .LVU1217
 3527 0012 B1F1553F 		cmp	r1, #1431655765
 3528 0016 F9D3     		bcc	.L204
  81:../Common/IQMath/ti/_IQNlog.c ****     
 3529              		.loc 1 81 5 view .LVU1218
 3530              	.LVL450:
  81:../Common/IQMath/ti/_IQNlog.c ****     
 3531              		.loc 1 81 5 is_stmt 0 view .LVU1219
 3532              	.LBE336:
 3533              	.LBE339:
  28:../Common/IQMath/ti/./support/RTS_support.h **** }
 3534              		.loc 2 28 5 is_stmt 1 view .LVU1220
 3535              	.LBB340:
ARM GAS  C:\Users\57308\AppData\Local\Temp\ccxDvd6L.s 			page 90


 3536              	.LBB337:
  88:../Common/IQMath/ti/_IQNlog.c ****     iq30Result = *piq30Coeffs++;
 3537              		.loc 1 88 5 view .LVU1221
  89:../Common/IQMath/ti/_IQNlog.c ****     uiq31Input -= iq31_one;
 3538              		.loc 1 89 5 view .LVU1222
  89:../Common/IQMath/ti/_IQNlog.c ****     uiq31Input -= iq31_one;
 3539              		.loc 1 89 18 is_stmt 0 view .LVU1223
 3540 0018 1C4C     		ldr	r4, .L213
 3541 001a 54F8040B 		ldr	r0, [r4], #4
 3542              	.LVL451:
  90:../Common/IQMath/ti/_IQNlog.c ****     
 3543              		.loc 1 90 5 is_stmt 1 view .LVU1224
  90:../Common/IQMath/ti/_IQNlog.c ****     
 3544              		.loc 1 90 16 is_stmt 0 view .LVU1225
 3545 001e 01F10041 		add	r1, r1, #-2147483648
 3546              	.LVL452:
  90:../Common/IQMath/ti/_IQNlog.c ****     
 3547              		.loc 1 90 16 view .LVU1226
 3548 0022 0131     		adds	r1, r1, #1
 3549              	.LVL453:
  93:../Common/IQMath/ti/_IQNlog.c ****         iq30Result = __mpyf_l(uiq31Input, iq30Result);
 3550              		.loc 1 93 5 is_stmt 1 view .LVU1227
  93:../Common/IQMath/ti/_IQNlog.c ****         iq30Result = __mpyf_l(uiq31Input, iq30Result);
 3551              		.loc 1 93 21 is_stmt 0 view .LVU1228
 3552 0024 0E25     		movs	r5, #14
  93:../Common/IQMath/ti/_IQNlog.c ****         iq30Result = __mpyf_l(uiq31Input, iq30Result);
 3553              		.loc 1 93 5 view .LVU1229
 3554 0026 12E0     		b	.L205
 3555              	.LVL454:
 3556              	.L206:
  94:../Common/IQMath/ti/_IQNlog.c ****         iq30Result += *piq30Coeffs++;
 3557              		.loc 1 94 9 is_stmt 1 view .LVU1230
 3558              	.LBB330:
 3559              	.LBI330:
 233:../Common/IQMath/ti/./support/RTS_support.h **** {
 3560              		.loc 2 233 28 view .LVU1231
 3561              	.LBB331:
 235:../Common/IQMath/ti/./support/RTS_support.h **** }
 3562              		.loc 2 235 5 view .LVU1232
 235:../Common/IQMath/ti/./support/RTS_support.h **** }
 3563              		.loc 2 235 28 is_stmt 0 view .LVU1233
 3564 0028 CB17     		asrs	r3, r1, #31
 235:../Common/IQMath/ti/./support/RTS_support.h **** }
 3565              		.loc 2 235 49 view .LVU1234
 3566 002a C217     		asrs	r2, r0, #31
 235:../Common/IQMath/ti/./support/RTS_support.h **** }
 3567              		.loc 2 235 47 view .LVU1235
 3568 002c 01FB02F2 		mul	r2, r1, r2
 3569 0030 00FB0323 		mla	r3, r0, r3, r2
 3570 0034 A1FB0002 		umull	r0, r2, r1, r0
 3571              	.LVL455:
 235:../Common/IQMath/ti/./support/RTS_support.h **** }
