ARM GAS  C:\Users\57308\AppData\Local\Temp\ccQy15rd.s 			page 1


   1              		.cpu cortex-m4
   2              		.arch armv7e-m
   3              		.fpu fpv4-sp-d16
   4              		.eabi_attribute 27, 1
   5              		.eabi_attribute 28, 1
   6              		.eabi_attribute 20, 1
   7              		.eabi_attribute 21, 1
   8              		.eabi_attribute 23, 3
   9              		.eabi_attribute 24, 1
  10              		.eabi_attribute 25, 1
  11              		.eabi_attribute 26, 1
  12              		.eabi_attribute 30, 1
  13              		.eabi_attribute 34, 1
  14              		.eabi_attribute 18, 4
  15              		.file	"_IQNtoa.c"
  16              		.text
  17              	.Ltext0:
  18              		.cfi_sections	.debug_frame
  19              		.section	.text.__IQNtoa,"ax",%progbits
  20              		.align	1
  21              		.global	__IQNtoa
  22              		.syntax unified
  23              		.thumb
  24              		.thumb_func
  26              	__IQNtoa:
  27              	.LVL0:
  28              	.LFB261:
  29              		.file 1 "../Common/IQMath/ti/_IQNtoa.c"
   1:../Common/IQMath/ti/_IQNtoa.c **** /*!****************************************************************************
   2:../Common/IQMath/ti/_IQNtoa.c ****  *  @file       _IQNtoa.c
   3:../Common/IQMath/ti/_IQNtoa.c ****  *  @brief      Functions to convert an IQ number to a string.
   4:../Common/IQMath/ti/_IQNtoa.c ****  *
   5:../Common/IQMath/ti/_IQNtoa.c ****  *  <hr>
   6:../Common/IQMath/ti/_IQNtoa.c ****  ******************************************************************************/
   7:../Common/IQMath/ti/_IQNtoa.c **** 
   8:../Common/IQMath/ti/_IQNtoa.c **** #include <stdint.h>
   9:../Common/IQMath/ti/_IQNtoa.c **** 
  10:../Common/IQMath/ti/_IQNtoa.c **** #include "./support/support.h"
  11:../Common/IQMath/ti/_IQNtoa.c **** 
  12:../Common/IQMath/ti/_IQNtoa.c **** /*
  13:../Common/IQMath/ti/_IQNtoa.c ****  * Convert IQN values to string.
  14:../Common/IQMath/ti/_IQNtoa.c ****  */
  15:../Common/IQMath/ti/_IQNtoa.c **** /**
  16:../Common/IQMath/ti/_IQNtoa.c ****  * @brief Convert an IQ number to a string.
  17:../Common/IQMath/ti/_IQNtoa.c ****  *
  18:../Common/IQMath/ti/_IQNtoa.c ****  * @param string          Pointer to the buffer to store the converted IQ number.
  19:../Common/IQMath/ti/_IQNtoa.c ****  * @param format          The format string specifying how to convert the IQ number.
  20:../Common/IQMath/ti/_IQNtoa.c ****  * @param iqNInput        IQN type input.
  21:../Common/IQMath/ti/_IQNtoa.c ****  * @param q_value         IQ format.
  22:../Common/IQMath/ti/_IQNtoa.c ****  *
  23:../Common/IQMath/ti/_IQNtoa.c ****  * @return                Returns 0 if there is no error, 1 if the width is too small to hold the i
  24:../Common/IQMath/ti/_IQNtoa.c ****  *                        characters, and 2 if an illegal format was specified.
  25:../Common/IQMath/ti/_IQNtoa.c ****  */
  26:../Common/IQMath/ti/_IQNtoa.c **** #if defined (__TI_COMPILER_VERSION__)
  27:../Common/IQMath/ti/_IQNtoa.c ****     #pragma FUNC_ALWAYS_INLINE(__IQNtoa)
  28:../Common/IQMath/ti/_IQNtoa.c **** #elif defined(__IAR_SYSTEMS_ICC__)
  29:../Common/IQMath/ti/_IQNtoa.c ****     #pragma inline=forced
ARM GAS  C:\Users\57308\AppData\Local\Temp\ccQy15rd.s 			page 2


  30:../Common/IQMath/ti/_IQNtoa.c **** #endif
  31:../Common/IQMath/ti/_IQNtoa.c **** int_fast16_t __IQNtoa(char *string, const char *format, int_fast32_t iqNInput, int_fast16_t q_value
  32:../Common/IQMath/ti/_IQNtoa.c **** {
  30              		.loc 1 32 1 view -0
  31              		.cfi_startproc
  32              		@ args = 0, pretend = 0, frame = 0
  33              		@ frame_needed = 0, uses_anonymous_args = 0
  34              		.loc 1 32 1 is_stmt 0 view .LVU1
  35 0000 2DE9F041 		push	{r4, r5, r6, r7, r8, lr}
  36              	.LCFI0:
  37              		.cfi_def_cfa_offset 24
  38              		.cfi_offset 4, -24
  39              		.cfi_offset 5, -20
  40              		.cfi_offset 6, -16
  41              		.cfi_offset 7, -12
  42              		.cfi_offset 8, -8
  43              		.cfi_offset 14, -4
  33:../Common/IQMath/ti/_IQNtoa.c ****     char *pcBuf;                    // buffer pointer
  44              		.loc 1 33 5 is_stmt 1 view .LVU2
  34:../Common/IQMath/ti/_IQNtoa.c ****     int_fast16_t count;                  // conversion character counter
  45              		.loc 1 34 5 view .LVU3
  35:../Common/IQMath/ti/_IQNtoa.c ****     uint_fast16_t ui16IntWidth;          // integer format width
  46              		.loc 1 35 5 view .LVU4
  36:../Common/IQMath/ti/_IQNtoa.c ****     uint_fast16_t ui16FracWidth;         // fractional format width
  47              		.loc 1 36 5 view .LVU5
  37:../Common/IQMath/ti/_IQNtoa.c ****     uint_fast16_t ui16IntState;          // save interrupt state
  48              		.loc 1 37 5 view .LVU6
  38:../Common/IQMath/ti/_IQNtoa.c ****     uint_fast16_t ui16MPYState;          // save multiplier state
  49              		.loc 1 38 5 view .LVU7
  39:../Common/IQMath/ti/_IQNtoa.c ****     uint_fast32_t uiqNInput;             // unsigned input
  50              		.loc 1 39 5 view .LVU8
  40:../Common/IQMath/ti/_IQNtoa.c ****     uint_fast32_t uiq32Fractional;       // working variable
  51              		.loc 1 40 5 view .LVU9
  41:../Common/IQMath/ti/_IQNtoa.c ****     uint_fast32_t ui32Integer;           // working variable
  52              		.loc 1 41 5 view .LVU10
  42:../Common/IQMath/ti/_IQNtoa.c ****     uint_fast32_t ui32IntTemp;           // temp variable
  53              		.loc 1 42 5 view .LVU11
  43:../Common/IQMath/ti/_IQNtoa.c ****     uint_fast32_t ui32IntegerTenth;      // uval scaled by 10
  54              		.loc 1 43 5 view .LVU12
  44:../Common/IQMath/ti/_IQNtoa.c ****     uint_fast64_t uiiq32FractionalTen;   // fractional input scaled by 10
  55              		.loc 1 44 5 view .LVU13
  45:../Common/IQMath/ti/_IQNtoa.c **** 
  46:../Common/IQMath/ti/_IQNtoa.c ****     /* Check that 1st character is a '%' character. */
  47:../Common/IQMath/ti/_IQNtoa.c ****     if (*format++ != '%') {
  56              		.loc 1 47 5 view .LVU14
  57              		.loc 1 47 16 is_stmt 0 view .LVU15
  58 0004 8C46     		mov	ip, r1
  59              	.LVL1:
  60              		.loc 1 47 9 view .LVU16
  61 0006 1CF8014B 		ldrb	r4, [ip], #1	@ zero_extendqisi2
  62              	.LVL2:
  63              		.loc 1 47 8 view .LVU17
  64 000a 252C     		cmp	r4, #37
  65 000c 40F08880 		bne	.L15
  48:../Common/IQMath/ti/_IQNtoa.c ****         /* Error: format not preceded with '%' character. */
  49:../Common/IQMath/ti/_IQNtoa.c ****        return (2);
  50:../Common/IQMath/ti/_IQNtoa.c ****     }
ARM GAS  C:\Users\57308\AppData\Local\Temp\ccQy15rd.s 			page 3


  51:../Common/IQMath/ti/_IQNtoa.c **** 
  52:../Common/IQMath/ti/_IQNtoa.c ****     /* Check that an integer is provided and extract the integer width. */
  53:../Common/IQMath/ti/_IQNtoa.c ****     if (*format < '0' || *format > '9') {
  66              		.loc 1 53 5 is_stmt 1 view .LVU18
  67              		.loc 1 53 9 is_stmt 0 view .LVU19
  68 0010 4978     		ldrb	r1, [r1, #1]	@ zero_extendqisi2
  69              		.loc 1 53 23 view .LVU20
  70 0012 3039     		subs	r1, r1, #48
  71 0014 C9B2     		uxtb	r1, r1
  72              		.loc 1 53 8 view .LVU21
  73 0016 0929     		cmp	r1, #9
  74 0018 00F28480 		bhi	.L16
  54:../Common/IQMath/ti/_IQNtoa.c ****         /* Error: integer width is non integer. */
  55:../Common/IQMath/ti/_IQNtoa.c ****         return (2);
  56:../Common/IQMath/ti/_IQNtoa.c ****     }
  57:../Common/IQMath/ti/_IQNtoa.c ****     
  58:../Common/IQMath/ti/_IQNtoa.c ****     /* Initialize local variables and extract the integer width. */
  59:../Common/IQMath/ti/_IQNtoa.c ****     count = 0;
  60:../Common/IQMath/ti/_IQNtoa.c ****     ui16IntWidth = 0;
  75              		.loc 1 60 18 view .LVU22
  76 001c 0021     		movs	r1, #0
  59:../Common/IQMath/ti/_IQNtoa.c ****     ui16IntWidth = 0;
  77              		.loc 1 59 11 view .LVU23
  78 001e 0D46     		mov	r5, r1
  79              	.L3:
  80              	.LVL3:
  61:../Common/IQMath/ti/_IQNtoa.c ****     while (*format >= '0' && *format <= '9') {
  81              		.loc 1 61 11 is_stmt 1 view .LVU24
  82              		.loc 1 61 12 is_stmt 0 view .LVU25
  83 0020 9CF800E0 		ldrb	lr, [ip]	@ zero_extendqisi2
  84              		.loc 1 61 27 view .LVU26
  85 0024 AEF13004 		sub	r4, lr, #48
  86 0028 E4B2     		uxtb	r4, r4
  87              		.loc 1 61 11 view .LVU27
  88 002a 092C     		cmp	r4, #9
  89 002c 0CD8     		bhi	.L25
  62:../Common/IQMath/ti/_IQNtoa.c ****         __mpy_start(&ui16IntState, &ui16MPYState);
  90              		.loc 1 62 9 is_stmt 1 view .LVU28
  91              	.LVL4:
  92              		.file 2 "../Common/IQMath/ti/./support/RTS_support.h"
   1:../Common/IQMath/ti/./support/RTS_support.h **** #ifndef __RTS_SUPPORTH__
   2:../Common/IQMath/ti/./support/RTS_support.h **** #define __RTS_SUPPORTH__
   3:../Common/IQMath/ti/./support/RTS_support.h **** 
   4:../Common/IQMath/ti/./support/RTS_support.h **** ////////////////////////////////////////////////////////////
   5:../Common/IQMath/ti/./support/RTS_support.h **** //                                                        //
   6:../Common/IQMath/ti/./support/RTS_support.h **** //              MPY32 control functions.                  //
   7:../Common/IQMath/ti/./support/RTS_support.h **** //                                                        //
   8:../Common/IQMath/ti/./support/RTS_support.h **** ////////////////////////////////////////////////////////////
   9:../Common/IQMath/ti/./support/RTS_support.h **** #if defined (__TI_COMPILER_VERSION__)
  10:../Common/IQMath/ti/./support/RTS_support.h ****     #pragma FUNC_ALWAYS_INLINE(__mpy_start)
  11:../Common/IQMath/ti/./support/RTS_support.h **** #elif defined(__IAR_SYSTEMS_ICC__)
  12:../Common/IQMath/ti/./support/RTS_support.h ****     #pragma inline=forced
  13:../Common/IQMath/ti/./support/RTS_support.h **** #endif
  14:../Common/IQMath/ti/./support/RTS_support.h **** static inline void __mpy_start(uint_fast16_t *ui16IntState, uint_fast16_t *ui16MPYState)
  15:../Common/IQMath/ti/./support/RTS_support.h **** {
  16:../Common/IQMath/ti/./support/RTS_support.h ****     /* Do nothing. */
  17:../Common/IQMath/ti/./support/RTS_support.h ****     return;
ARM GAS  C:\Users\57308\AppData\Local\Temp\ccQy15rd.s 			page 4


  93              		.loc 2 17 5 view .LVU29
  63:../Common/IQMath/ti/_IQNtoa.c ****         ui16IntWidth = __mpy_uw(ui16IntWidth, 10);
  94              		.loc 1 63 9 view .LVU30
  95              	.LBB30:
  96              	.LBI30:
  18:../Common/IQMath/ti/./support/RTS_support.h **** }
  19:../Common/IQMath/ti/./support/RTS_support.h **** 
  20:../Common/IQMath/ti/./support/RTS_support.h **** #if defined (__TI_COMPILER_VERSION__)
  21:../Common/IQMath/ti/./support/RTS_support.h ****     #pragma FUNC_ALWAYS_INLINE(__mpyf_start)
  22:../Common/IQMath/ti/./support/RTS_support.h **** #elif defined(__IAR_SYSTEMS_ICC__)
  23:../Common/IQMath/ti/./support/RTS_support.h ****     #pragma inline=forced
  24:../Common/IQMath/ti/./support/RTS_support.h **** #endif
  25:../Common/IQMath/ti/./support/RTS_support.h **** static inline void __mpyf_start(uint_fast16_t *ui16IntState, uint_fast16_t *ui16MPYState)
  26:../Common/IQMath/ti/./support/RTS_support.h **** {
  27:../Common/IQMath/ti/./support/RTS_support.h ****     /* Do nothing. */
  28:../Common/IQMath/ti/./support/RTS_support.h ****     return;
  29:../Common/IQMath/ti/./support/RTS_support.h **** }
  30:../Common/IQMath/ti/./support/RTS_support.h **** 
  31:../Common/IQMath/ti/./support/RTS_support.h **** #if defined (__TI_COMPILER_VERSION__)
  32:../Common/IQMath/ti/./support/RTS_support.h ****     #pragma FUNC_ALWAYS_INLINE(__mpyfs_start)
  33:../Common/IQMath/ti/./support/RTS_support.h **** #elif defined(__IAR_SYSTEMS_ICC__)
  34:../Common/IQMath/ti/./support/RTS_support.h ****     #pragma inline=forced
  35:../Common/IQMath/ti/./support/RTS_support.h **** #endif
  36:../Common/IQMath/ti/./support/RTS_support.h **** static inline void __mpyfs_start(uint_fast16_t *ui16IntState, uint_fast16_t *ui16MPYState)
  37:../Common/IQMath/ti/./support/RTS_support.h **** {
  38:../Common/IQMath/ti/./support/RTS_support.h ****     /* Do nothing. */
  39:../Common/IQMath/ti/./support/RTS_support.h ****     return;
  40:../Common/IQMath/ti/./support/RTS_support.h **** }
  41:../Common/IQMath/ti/./support/RTS_support.h **** 
  42:../Common/IQMath/ti/./support/RTS_support.h **** #if defined (__TI_COMPILER_VERSION__)
  43:../Common/IQMath/ti/./support/RTS_support.h ****     #pragma FUNC_ALWAYS_INLINE(__mpy_clear_ctl0)
  44:../Common/IQMath/ti/./support/RTS_support.h **** #elif defined(__IAR_SYSTEMS_ICC__)
  45:../Common/IQMath/ti/./support/RTS_support.h ****     #pragma inline=forced
  46:../Common/IQMath/ti/./support/RTS_support.h **** #endif
  47:../Common/IQMath/ti/./support/RTS_support.h **** static inline void __mpy_clear_ctl0(void)
  48:../Common/IQMath/ti/./support/RTS_support.h **** {
  49:../Common/IQMath/ti/./support/RTS_support.h ****     /* Do nothing. */
  50:../Common/IQMath/ti/./support/RTS_support.h ****     return;
  51:../Common/IQMath/ti/./support/RTS_support.h **** }
  52:../Common/IQMath/ti/./support/RTS_support.h **** 
  53:../Common/IQMath/ti/./support/RTS_support.h **** #if defined (__TI_COMPILER_VERSION__)
  54:../Common/IQMath/ti/./support/RTS_support.h ****     #pragma FUNC_ALWAYS_INLINE(__mpy_set_frac)
  55:../Common/IQMath/ti/./support/RTS_support.h **** #elif defined(__IAR_SYSTEMS_ICC__)
  56:../Common/IQMath/ti/./support/RTS_support.h ****     #pragma inline=forced
  57:../Common/IQMath/ti/./support/RTS_support.h **** #endif
  58:../Common/IQMath/ti/./support/RTS_support.h **** static inline void __mpy_set_frac(void)
  59:../Common/IQMath/ti/./support/RTS_support.h **** {
  60:../Common/IQMath/ti/./support/RTS_support.h ****     /* Do nothing. */
  61:../Common/IQMath/ti/./support/RTS_support.h ****     return;
  62:../Common/IQMath/ti/./support/RTS_support.h **** }
  63:../Common/IQMath/ti/./support/RTS_support.h **** 
  64:../Common/IQMath/ti/./support/RTS_support.h **** #if defined (__TI_COMPILER_VERSION__)
  65:../Common/IQMath/ti/./support/RTS_support.h ****     #pragma FUNC_ALWAYS_INLINE(__mpy_stop)
  66:../Common/IQMath/ti/./support/RTS_support.h **** #elif defined(__IAR_SYSTEMS_ICC__)
  67:../Common/IQMath/ti/./support/RTS_support.h ****     #pragma inline=forced
  68:../Common/IQMath/ti/./support/RTS_support.h **** #endif
  69:../Common/IQMath/ti/./support/RTS_support.h **** static inline void __mpy_stop(uint_fast16_t *ui16IntState, uint_fast16_t *ui16MPYState)
ARM GAS  C:\Users\57308\AppData\Local\Temp\ccQy15rd.s 			page 5


  70:../Common/IQMath/ti/./support/RTS_support.h **** {
  71:../Common/IQMath/ti/./support/RTS_support.h ****     /* Do nothing. */
  72:../Common/IQMath/ti/./support/RTS_support.h ****     return;
  73:../Common/IQMath/ti/./support/RTS_support.h **** }
  74:../Common/IQMath/ti/./support/RTS_support.h **** 
  75:../Common/IQMath/ti/./support/RTS_support.h **** ////////////////////////////////////////////////////////////
  76:../Common/IQMath/ti/./support/RTS_support.h **** //                                                        //
  77:../Common/IQMath/ti/./support/RTS_support.h **** //                16-bit functions                        //
  78:../Common/IQMath/ti/./support/RTS_support.h **** //                                                        //
  79:../Common/IQMath/ti/./support/RTS_support.h **** ////////////////////////////////////////////////////////////
  80:../Common/IQMath/ti/./support/RTS_support.h **** #if defined (__TI_COMPILER_VERSION__)
  81:../Common/IQMath/ti/./support/RTS_support.h ****     #pragma FUNC_ALWAYS_INLINE(__mpy_w)
  82:../Common/IQMath/ti/./support/RTS_support.h **** #elif defined(__IAR_SYSTEMS_ICC__)
  83:../Common/IQMath/ti/./support/RTS_support.h ****     #pragma inline=forced
  84:../Common/IQMath/ti/./support/RTS_support.h **** #endif
  85:../Common/IQMath/ti/./support/RTS_support.h **** static inline int_fast16_t __mpy_w(int_fast16_t arg1, int_fast16_t arg2)
  86:../Common/IQMath/ti/./support/RTS_support.h **** {
  87:../Common/IQMath/ti/./support/RTS_support.h ****     return (arg1 * arg2);
  88:../Common/IQMath/ti/./support/RTS_support.h **** }
  89:../Common/IQMath/ti/./support/RTS_support.h **** 
  90:../Common/IQMath/ti/./support/RTS_support.h **** #if defined (__TI_COMPILER_VERSION__)
  91:../Common/IQMath/ti/./support/RTS_support.h ****     #pragma FUNC_ALWAYS_INLINE(__mpy_uw)
  92:../Common/IQMath/ti/./support/RTS_support.h **** #elif defined(__IAR_SYSTEMS_ICC__)
  93:../Common/IQMath/ti/./support/RTS_support.h ****     #pragma inline=forced
  94:../Common/IQMath/ti/./support/RTS_support.h **** #endif
  95:../Common/IQMath/ti/./support/RTS_support.h **** static inline uint_fast16_t __mpy_uw(uint_fast16_t arg1, uint_fast16_t arg2)
  97              		.loc 2 95 29 view .LVU31
  98              	.LBB31:
  96:../Common/IQMath/ti/./support/RTS_support.h **** {
  97:../Common/IQMath/ti/./support/RTS_support.h ****     return (arg1 * arg2);
  99              		.loc 2 97 5 view .LVU32
 100              		.loc 2 97 18 is_stmt 0 view .LVU33
 101 002e 01EB8101 		add	r1, r1, r1, lsl #2
 102              	.LVL5:
 103              		.loc 2 97 18 view .LVU34
 104              	.LBE31:
 105              	.LBE30:
  64:../Common/IQMath/ti/_IQNtoa.c ****         __mpy_stop(&ui16IntState, &ui16MPYState);
 106              		.loc 1 64 9 is_stmt 1 view .LVU35
  72:../Common/IQMath/ti/./support/RTS_support.h **** }
 107              		.loc 2 72 5 view .LVU36
  65:../Common/IQMath/ti/_IQNtoa.c ****         ui16IntWidth = ui16IntWidth + (*format++ - '0');
 108              		.loc 1 65 9 view .LVU37
 109              		.loc 1 65 47 is_stmt 0 view .LVU38
 110 0032 0CF1010C 		add	ip, ip, #1
 111              	.LVL6:
 112              		.loc 1 65 37 view .LVU39
 113 0036 0EEB4101 		add	r1, lr, r1, lsl #1
 114              	.LVL7:
 115              		.loc 1 65 22 view .LVU40
 116 003a 3039     		subs	r1, r1, #48
 117              	.LVL8:
  66:../Common/IQMath/ti/_IQNtoa.c **** 
  67:../Common/IQMath/ti/_IQNtoa.c ****         /* If we don't find the '.' after 2 counts, something is wrong. */
  68:../Common/IQMath/ti/_IQNtoa.c ****         if (++count > 2) {
 118              		.loc 1 68 9 is_stmt 1 view .LVU41
 119              		.loc 1 68 12 is_stmt 0 view .LVU42
ARM GAS  C:\Users\57308\AppData\Local\Temp\ccQy15rd.s 			page 6


 120 003c 0135     		adds	r5, r5, #1
 121              	.LVL9:
 122              		.loc 1 68 12 view .LVU43
 123 003e 022D     		cmp	r5, #2
 124 0040 EEDD     		ble	.L3
  69:../Common/IQMath/ti/_IQNtoa.c ****             /* Error: integer width field too many characters */
  70:../Common/IQMath/ti/_IQNtoa.c ****             return (2);
 125              		.loc 1 70 20 view .LVU44
 126 0042 0220     		movs	r0, #2
 127              	.LVL10:
 128              	.L1:
  71:../Common/IQMath/ti/_IQNtoa.c ****         }
  72:../Common/IQMath/ti/_IQNtoa.c ****     }
  73:../Common/IQMath/ti/_IQNtoa.c **** 
  74:../Common/IQMath/ti/_IQNtoa.c ****     /* Check integer width for errors. */
  75:../Common/IQMath/ti/_IQNtoa.c ****     if (ui16IntWidth > 11) {
  76:../Common/IQMath/ti/_IQNtoa.c ****         /* Error: integer width too large */
  77:../Common/IQMath/ti/_IQNtoa.c ****         return (2);
  78:../Common/IQMath/ti/_IQNtoa.c ****     }
  79:../Common/IQMath/ti/_IQNtoa.c ****     
  80:../Common/IQMath/ti/_IQNtoa.c ****     /* Check the next character for '.' and increment over. */
  81:../Common/IQMath/ti/_IQNtoa.c ****     if (*format++ != '.') {
  82:../Common/IQMath/ti/_IQNtoa.c ****         /* Error: format missing the '.' character. */
  83:../Common/IQMath/ti/_IQNtoa.c ****        return (2);
  84:../Common/IQMath/ti/_IQNtoa.c ****     }
  85:../Common/IQMath/ti/_IQNtoa.c **** 
  86:../Common/IQMath/ti/_IQNtoa.c ****     /* Re-initialize the local variables and extract the fractional width. */
  87:../Common/IQMath/ti/_IQNtoa.c ****     count = 0;
  88:../Common/IQMath/ti/_IQNtoa.c ****     ui16FracWidth = 0;
  89:../Common/IQMath/ti/_IQNtoa.c ****     while (*format >= '0' && *format <= '9') {
  90:../Common/IQMath/ti/_IQNtoa.c ****         __mpy_start(&ui16IntState, &ui16MPYState);
  91:../Common/IQMath/ti/_IQNtoa.c ****         ui16FracWidth = __mpy_uw(ui16FracWidth, 10);
  92:../Common/IQMath/ti/_IQNtoa.c ****         __mpy_stop(&ui16IntState, &ui16MPYState);
  93:../Common/IQMath/ti/_IQNtoa.c ****         ui16FracWidth = ui16FracWidth + (*format++ - '0');
  94:../Common/IQMath/ti/_IQNtoa.c **** 
  95:../Common/IQMath/ti/_IQNtoa.c ****         /* If we don't exit after 2 counts, something is wrong. */
  96:../Common/IQMath/ti/_IQNtoa.c ****         if (++count > 2) {
  97:../Common/IQMath/ti/_IQNtoa.c ****             /* Error: fractional width field too many characters */
  98:../Common/IQMath/ti/_IQNtoa.c ****             return (2);
  99:../Common/IQMath/ti/_IQNtoa.c ****         }
 100:../Common/IQMath/ti/_IQNtoa.c ****     }
 101:../Common/IQMath/ti/_IQNtoa.c ****     
 102:../Common/IQMath/ti/_IQNtoa.c ****     /* Check the next character for 'f' or 'F'. */
 103:../Common/IQMath/ti/_IQNtoa.c ****     if (*format != 'f' && *format != 'F') {
 104:../Common/IQMath/ti/_IQNtoa.c ****         /* Error: format missing the format specifying character. */
 105:../Common/IQMath/ti/_IQNtoa.c ****        return (2);
 106:../Common/IQMath/ti/_IQNtoa.c ****     }
 107:../Common/IQMath/ti/_IQNtoa.c **** 
 108:../Common/IQMath/ti/_IQNtoa.c ****     /* Check that the next character is the NULL string terminator. */
 109:../Common/IQMath/ti/_IQNtoa.c ****     if (*++format != 0) {
 110:../Common/IQMath/ti/_IQNtoa.c ****         /* Error: missing null terminator. */
 111:../Common/IQMath/ti/_IQNtoa.c ****         return (2);
 112:../Common/IQMath/ti/_IQNtoa.c ****     }
 113:../Common/IQMath/ti/_IQNtoa.c ****     
 114:../Common/IQMath/ti/_IQNtoa.c ****     /*
 115:../Common/IQMath/ti/_IQNtoa.c ****      * Begin constructing the string.
 116:../Common/IQMath/ti/_IQNtoa.c ****      */
ARM GAS  C:\Users\57308\AppData\Local\Temp\ccQy15rd.s 			page 7


 117:../Common/IQMath/ti/_IQNtoa.c ****     pcBuf = string;
 118:../Common/IQMath/ti/_IQNtoa.c ****     
 119:../Common/IQMath/ti/_IQNtoa.c ****     /* Check for negative value. */
 120:../Common/IQMath/ti/_IQNtoa.c ****     if (iqNInput < 0) {
 121:../Common/IQMath/ti/_IQNtoa.c ****         iqNInput = -iqNInput;
 122:../Common/IQMath/ti/_IQNtoa.c ****         *pcBuf++ = '-';
 123:../Common/IQMath/ti/_IQNtoa.c ****     }
 124:../Common/IQMath/ti/_IQNtoa.c ****     uiqNInput = (uint_fast32_t)iqNInput;
 125:../Common/IQMath/ti/_IQNtoa.c **** 
 126:../Common/IQMath/ti/_IQNtoa.c ****     /* Construct the integer string in reverse. */
 127:../Common/IQMath/ti/_IQNtoa.c ****     pcBuf += ui16IntWidth;
 128:../Common/IQMath/ti/_IQNtoa.c ****     ui32Integer = uiqNInput >> q_value;
 129:../Common/IQMath/ti/_IQNtoa.c ****     
 130:../Common/IQMath/ti/_IQNtoa.c ****     for (count = ui16IntWidth; count > 0; count--) {
 131:../Common/IQMath/ti/_IQNtoa.c ****         /* Integer position n = ui32Integer - floor(ui32Integer/(10^n))*(10^n) */
 132:../Common/IQMath/ti/_IQNtoa.c ****         __mpyf_start(&ui16IntState, &ui16MPYState);
 133:../Common/IQMath/ti/_IQNtoa.c ****         ui32IntegerTenth = __mpyf_l(ui32Integer, iq31_oneTenth);
 134:../Common/IQMath/ti/_IQNtoa.c ****         __mpy_clear_ctl0();
 135:../Common/IQMath/ti/_IQNtoa.c ****         ui32IntTemp = __mpy_ul(ui32IntegerTenth, 10);
 136:../Common/IQMath/ti/_IQNtoa.c ****         /* Handle any possible rounding. */
 137:../Common/IQMath/ti/_IQNtoa.c ****         if (ui32IntTemp > ui32Integer) {
 138:../Common/IQMath/ti/_IQNtoa.c ****             ui32IntTemp -= 10;
 139:../Common/IQMath/ti/_IQNtoa.c ****             ui32IntegerTenth -= 1;
 140:../Common/IQMath/ti/_IQNtoa.c ****         }
 141:../Common/IQMath/ti/_IQNtoa.c ****         ui32Integer -= ui32IntTemp;
 142:../Common/IQMath/ti/_IQNtoa.c ****         __mpy_stop(&ui16IntState, &ui16MPYState);
 143:../Common/IQMath/ti/_IQNtoa.c ****         
 144:../Common/IQMath/ti/_IQNtoa.c ****         *--pcBuf = ui32Integer + '0';
 145:../Common/IQMath/ti/_IQNtoa.c ****         ui32Integer = ui32IntegerTenth;
 146:../Common/IQMath/ti/_IQNtoa.c ****     }
 147:../Common/IQMath/ti/_IQNtoa.c ****     
 148:../Common/IQMath/ti/_IQNtoa.c ****     /* Check if there is any remaining input. */
 149:../Common/IQMath/ti/_IQNtoa.c ****     if (ui32Integer) {
 150:../Common/IQMath/ti/_IQNtoa.c ****         /* Error: integer format too small. */
 151:../Common/IQMath/ti/_IQNtoa.c ****         return (1);
 152:../Common/IQMath/ti/_IQNtoa.c ****     }
 153:../Common/IQMath/ti/_IQNtoa.c **** 
 154:../Common/IQMath/ti/_IQNtoa.c ****     /* Construct the fractional string if specified using unsigned iq32. */
 155:../Common/IQMath/ti/_IQNtoa.c ****     pcBuf += ui16IntWidth;
 156:../Common/IQMath/ti/_IQNtoa.c ****     uiq32Fractional = uiqNInput << (32 - q_value);
 157:../Common/IQMath/ti/_IQNtoa.c ****     
 158:../Common/IQMath/ti/_IQNtoa.c ****     if (ui16FracWidth > 0) {
 159:../Common/IQMath/ti/_IQNtoa.c ****         *pcBuf++ = '.';
 160:../Common/IQMath/ti/_IQNtoa.c ****         
 161:../Common/IQMath/ti/_IQNtoa.c ****         while (ui16FracWidth--) {
 162:../Common/IQMath/ti/_IQNtoa.c ****             __mpy_start(&ui16IntState, &ui16MPYState);
 163:../Common/IQMath/ti/_IQNtoa.c ****             uiiq32FractionalTen = __mpyx_u(uiq32Fractional, 10);
 164:../Common/IQMath/ti/_IQNtoa.c ****             __mpy_stop(&ui16IntState, &ui16MPYState);
 165:../Common/IQMath/ti/_IQNtoa.c ****             
 166:../Common/IQMath/ti/_IQNtoa.c ****             uiq32Fractional = (uint_fast32_t)uiiq32FractionalTen;
 167:../Common/IQMath/ti/_IQNtoa.c ****             *pcBuf++ = (uint8_t)(uiiq32FractionalTen >> 32) + '0';
 168:../Common/IQMath/ti/_IQNtoa.c ****         }
 169:../Common/IQMath/ti/_IQNtoa.c ****     }
 170:../Common/IQMath/ti/_IQNtoa.c ****     
 171:../Common/IQMath/ti/_IQNtoa.c ****     /* Add null terminating character and return. */
 172:../Common/IQMath/ti/_IQNtoa.c ****     *pcBuf = 0;
 173:../Common/IQMath/ti/_IQNtoa.c ****     return (0);
ARM GAS  C:\Users\57308\AppData\Local\Temp\ccQy15rd.s 			page 8


 174:../Common/IQMath/ti/_IQNtoa.c **** }
 129              		.loc 1 174 1 view .LVU45
 130 0044 BDE8F081 		pop	{r4, r5, r6, r7, r8, pc}
 131              	.LVL11:
 132              	.L25:
  75:../Common/IQMath/ti/_IQNtoa.c ****         /* Error: integer width too large */
 133              		.loc 1 75 5 is_stmt 1 view .LVU46
  75:../Common/IQMath/ti/_IQNtoa.c ****         /* Error: integer width too large */
 134              		.loc 1 75 8 is_stmt 0 view .LVU47
 135 0048 0B29     		cmp	r1, #11
 136 004a 6DD8     		bhi	.L18
  81:../Common/IQMath/ti/_IQNtoa.c ****         /* Error: format missing the '.' character. */
 137              		.loc 1 81 5 is_stmt 1 view .LVU48
  81:../Common/IQMath/ti/_IQNtoa.c ****         /* Error: format missing the '.' character. */
 138              		.loc 1 81 16 is_stmt 0 view .LVU49
 139 004c 0CF1010C 		add	ip, ip, #1
 140              	.LVL12:
  81:../Common/IQMath/ti/_IQNtoa.c ****         /* Error: format missing the '.' character. */
 141              		.loc 1 81 8 view .LVU50
 142 0050 BEF12E0F 		cmp	lr, #46
 143 0054 6AD1     		bne	.L19
  88:../Common/IQMath/ti/_IQNtoa.c ****     while (*format >= '0' && *format <= '9') {
 144              		.loc 1 88 19 view .LVU51
 145 0056 0024     		movs	r4, #0
  87:../Common/IQMath/ti/_IQNtoa.c ****     ui16FracWidth = 0;
 146              		.loc 1 87 11 view .LVU52
 147 0058 2646     		mov	r6, r4
 148              	.LVL13:
 149              	.L5:
  89:../Common/IQMath/ti/_IQNtoa.c ****         __mpy_start(&ui16IntState, &ui16MPYState);
 150              		.loc 1 89 11 is_stmt 1 view .LVU53
  89:../Common/IQMath/ti/_IQNtoa.c ****         __mpy_start(&ui16IntState, &ui16MPYState);
 151              		.loc 1 89 12 is_stmt 0 view .LVU54
 152 005a 9CF80050 		ldrb	r5, [ip]	@ zero_extendqisi2
  89:../Common/IQMath/ti/_IQNtoa.c ****         __mpy_start(&ui16IntState, &ui16MPYState);
 153              		.loc 1 89 27 view .LVU55
 154 005e A5F1300E 		sub	lr, r5, #48
 155 0062 5FFA8EFE 		uxtb	lr, lr
  89:../Common/IQMath/ti/_IQNtoa.c ****         __mpy_start(&ui16IntState, &ui16MPYState);
 156              		.loc 1 89 11 view .LVU56
 157 0066 BEF1090F 		cmp	lr, #9
 158 006a 0BD8     		bhi	.L26
  90:../Common/IQMath/ti/_IQNtoa.c ****         ui16FracWidth = __mpy_uw(ui16FracWidth, 10);
 159              		.loc 1 90 9 is_stmt 1 view .LVU57
 160              	.LVL14:
  17:../Common/IQMath/ti/./support/RTS_support.h **** }
 161              		.loc 2 17 5 view .LVU58
  91:../Common/IQMath/ti/_IQNtoa.c ****         __mpy_stop(&ui16IntState, &ui16MPYState);
 162              		.loc 1 91 9 view .LVU59
 163              	.LBB32:
 164              	.LBI32:
  95:../Common/IQMath/ti/./support/RTS_support.h **** {
 165              		.loc 2 95 29 view .LVU60
 166              	.LBB33:
 167              		.loc 2 97 5 view .LVU61
 168              		.loc 2 97 18 is_stmt 0 view .LVU62
 169 006c 04EB8404 		add	r4, r4, r4, lsl #2
ARM GAS  C:\Users\57308\AppData\Local\Temp\ccQy15rd.s 			page 9


 170              	.LVL15:
 171              		.loc 2 97 18 view .LVU63
 172              	.LBE33:
 173              	.LBE32:
  92:../Common/IQMath/ti/_IQNtoa.c ****         ui16FracWidth = ui16FracWidth + (*format++ - '0');
 174              		.loc 1 92 9 is_stmt 1 view .LVU64
  72:../Common/IQMath/ti/./support/RTS_support.h **** }
 175              		.loc 2 72 5 view .LVU65
  93:../Common/IQMath/ti/_IQNtoa.c **** 
 176              		.loc 1 93 9 view .LVU66
  93:../Common/IQMath/ti/_IQNtoa.c **** 
 177              		.loc 1 93 49 is_stmt 0 view .LVU67
 178 0070 0CF1010C 		add	ip, ip, #1
 179              	.LVL16:
  93:../Common/IQMath/ti/_IQNtoa.c **** 
 180              		.loc 1 93 39 view .LVU68
 181 0074 05EB4404 		add	r4, r5, r4, lsl #1
 182              	.LVL17:
  93:../Common/IQMath/ti/_IQNtoa.c **** 
 183              		.loc 1 93 23 view .LVU69
 184 0078 303C     		subs	r4, r4, #48
 185              	.LVL18:
  96:../Common/IQMath/ti/_IQNtoa.c ****             /* Error: fractional width field too many characters */
 186              		.loc 1 96 9 is_stmt 1 view .LVU70
  96:../Common/IQMath/ti/_IQNtoa.c ****             /* Error: fractional width field too many characters */
 187              		.loc 1 96 12 is_stmt 0 view .LVU71
 188 007a 0136     		adds	r6, r6, #1
 189              	.LVL19:
  96:../Common/IQMath/ti/_IQNtoa.c ****             /* Error: fractional width field too many characters */
 190              		.loc 1 96 12 view .LVU72
 191 007c 022E     		cmp	r6, #2
 192 007e ECDD     		ble	.L5
  98:../Common/IQMath/ti/_IQNtoa.c ****         }
 193              		.loc 1 98 20 view .LVU73
 194 0080 0220     		movs	r0, #2
 195              	.LVL20:
  98:../Common/IQMath/ti/_IQNtoa.c ****         }
 196              		.loc 1 98 20 view .LVU74
 197 0082 DFE7     		b	.L1
 198              	.LVL21:
 199              	.L26:
 103:../Common/IQMath/ti/_IQNtoa.c ****         /* Error: format missing the format specifying character. */
 200              		.loc 1 103 5 is_stmt 1 view .LVU75
 103:../Common/IQMath/ti/_IQNtoa.c ****         /* Error: format missing the format specifying character. */
 201              		.loc 1 103 8 is_stmt 0 view .LVU76
 202 0084 662D     		cmp	r5, #102
 203 0086 01D0     		beq	.L7
 103:../Common/IQMath/ti/_IQNtoa.c ****         /* Error: format missing the format specifying character. */
 204              		.loc 1 103 24 discriminator 1 view .LVU77
 205 0088 462D     		cmp	r5, #70
 206 008a 51D1     		bne	.L21
 207              	.L7:
 109:../Common/IQMath/ti/_IQNtoa.c ****         /* Error: missing null terminator. */
 208              		.loc 1 109 5 is_stmt 1 view .LVU78
 209              	.LVL22:
 109:../Common/IQMath/ti/_IQNtoa.c ****         /* Error: missing null terminator. */
 210              		.loc 1 109 9 is_stmt 0 view .LVU79
ARM GAS  C:\Users\57308\AppData\Local\Temp\ccQy15rd.s 			page 10


 211 008c 9CF80150 		ldrb	r5, [ip, #1]	@ zero_extendqisi2
 109:../Common/IQMath/ti/_IQNtoa.c ****         /* Error: missing null terminator. */
 212              		.loc 1 109 8 view .LVU80
 213 0090 002D     		cmp	r5, #0
 214 0092 4FD1     		bne	.L22
 117:../Common/IQMath/ti/_IQNtoa.c ****     
 215              		.loc 1 117 5 is_stmt 1 view .LVU81
 216              	.LVL23:
 120:../Common/IQMath/ti/_IQNtoa.c ****         iqNInput = -iqNInput;
 217              		.loc 1 120 5 view .LVU82
 120:../Common/IQMath/ti/_IQNtoa.c ****         iqNInput = -iqNInput;
 218              		.loc 1 120 8 is_stmt 0 view .LVU83
 219 0094 002A     		cmp	r2, #0
 220 0096 04DB     		blt	.L27
 221              	.LVL24:
 222              	.L8:
 124:../Common/IQMath/ti/_IQNtoa.c **** 
 223              		.loc 1 124 5 is_stmt 1 view .LVU84
 124:../Common/IQMath/ti/_IQNtoa.c **** 
 224              		.loc 1 124 15 is_stmt 0 view .LVU85
 225 0098 9446     		mov	ip, r2
 226              	.LVL25:
 127:../Common/IQMath/ti/_IQNtoa.c ****     ui32Integer = uiqNInput >> q_value;
 227              		.loc 1 127 5 is_stmt 1 view .LVU86
 127:../Common/IQMath/ti/_IQNtoa.c ****     ui32Integer = uiqNInput >> q_value;
 228              		.loc 1 127 11 is_stmt 0 view .LVU87
 229 009a 0844     		add	r0, r0, r1
 230              	.LVL26:
 128:../Common/IQMath/ti/_IQNtoa.c ****     
 231              		.loc 1 128 5 is_stmt 1 view .LVU88
 128:../Common/IQMath/ti/_IQNtoa.c ****     
 232              		.loc 1 128 17 is_stmt 0 view .LVU89
 233 009c DA40     		lsrs	r2, r2, r3
 234              	.LVL27:
 130:../Common/IQMath/ti/_IQNtoa.c ****         /* Integer position n = ui32Integer - floor(ui32Integer/(10^n))*(10^n) */
 235              		.loc 1 130 5 is_stmt 1 view .LVU90
 130:../Common/IQMath/ti/_IQNtoa.c ****         /* Integer position n = ui32Integer - floor(ui32Integer/(10^n))*(10^n) */
 236              		.loc 1 130 16 is_stmt 0 view .LVU91
 237 009e 0F46     		mov	r7, r1
 238              	.LVL28:
 130:../Common/IQMath/ti/_IQNtoa.c ****         /* Integer position n = ui32Integer - floor(ui32Integer/(10^n))*(10^n) */
 239              		.loc 1 130 5 view .LVU92
 240 00a0 0AE0     		b	.L9
 241              	.LVL29:
 242              	.L27:
 121:../Common/IQMath/ti/_IQNtoa.c ****         *pcBuf++ = '-';
 243              		.loc 1 121 9 is_stmt 1 view .LVU93
 121:../Common/IQMath/ti/_IQNtoa.c ****         *pcBuf++ = '-';
 244              		.loc 1 121 18 is_stmt 0 view .LVU94
 245 00a2 5242     		rsbs	r2, r2, #0
 246              	.LVL30:
 122:../Common/IQMath/ti/_IQNtoa.c ****     }
 247              		.loc 1 122 9 is_stmt 1 view .LVU95
 122:../Common/IQMath/ti/_IQNtoa.c ****     }
 248              		.loc 1 122 18 is_stmt 0 view .LVU96
 249 00a4 2D25     		movs	r5, #45
 250 00a6 00F8015B 		strb	r5, [r0], #1
ARM GAS  C:\Users\57308\AppData\Local\Temp\ccQy15rd.s 			page 11


 251              	.LVL31:
 122:../Common/IQMath/ti/_IQNtoa.c ****     }
 252              		.loc 1 122 18 view .LVU97
 253 00aa F5E7     		b	.L8
 254              	.LVL32:
 255              	.L10:
 141:../Common/IQMath/ti/_IQNtoa.c ****         __mpy_stop(&ui16IntState, &ui16MPYState);
 256              		.loc 1 141 9 is_stmt 1 discriminator 2 view .LVU98
 141:../Common/IQMath/ti/_IQNtoa.c ****         __mpy_stop(&ui16IntState, &ui16MPYState);
 257              		.loc 1 141 21 is_stmt 0 discriminator 2 view .LVU99
 258 00ac 961B     		subs	r6, r2, r6
 259              	.LVL33:
 142:../Common/IQMath/ti/_IQNtoa.c ****         
 260              		.loc 1 142 9 is_stmt 1 discriminator 2 view .LVU100
  72:../Common/IQMath/ti/./support/RTS_support.h **** }
 261              		.loc 2 72 5 discriminator 2 view .LVU101
 144:../Common/IQMath/ti/_IQNtoa.c ****         ui32Integer = ui32IntegerTenth;
 262              		.loc 1 144 9 discriminator 2 view .LVU102
 144:../Common/IQMath/ti/_IQNtoa.c ****         ui32Integer = ui32IntegerTenth;
 263              		.loc 1 144 32 is_stmt 0 discriminator 2 view .LVU103
 264 00ae 3036     		adds	r6, r6, #48
 265              	.LVL34:
 144:../Common/IQMath/ti/_IQNtoa.c ****         ui32Integer = ui32IntegerTenth;
 266              		.loc 1 144 18 discriminator 2 view .LVU104
 267 00b0 00F8016D 		strb	r6, [r0, #-1]!
 268              	.LVL35:
 145:../Common/IQMath/ti/_IQNtoa.c ****     }
 269              		.loc 1 145 9 is_stmt 1 discriminator 2 view .LVU105
 130:../Common/IQMath/ti/_IQNtoa.c ****         /* Integer position n = ui32Integer - floor(ui32Integer/(10^n))*(10^n) */
 270              		.loc 1 130 43 discriminator 2 view .LVU106
 130:../Common/IQMath/ti/_IQNtoa.c ****         /* Integer position n = ui32Integer - floor(ui32Integer/(10^n))*(10^n) */
 271              		.loc 1 130 48 is_stmt 0 discriminator 2 view .LVU107
 272 00b4 013F     		subs	r7, r7, #1
 273              	.LVL36:
 145:../Common/IQMath/ti/_IQNtoa.c ****     }
 274              		.loc 1 145 21 discriminator 2 view .LVU108
 275 00b6 2A46     		mov	r2, r5
 276              	.LVL37:
 277              	.L9:
 130:../Common/IQMath/ti/_IQNtoa.c ****         /* Integer position n = ui32Integer - floor(ui32Integer/(10^n))*(10^n) */
 278              		.loc 1 130 32 is_stmt 1 discriminator 1 view .LVU109
 130:../Common/IQMath/ti/_IQNtoa.c ****         /* Integer position n = ui32Integer - floor(ui32Integer/(10^n))*(10^n) */
 279              		.loc 1 130 5 is_stmt 0 discriminator 1 view .LVU110
 280 00b8 002F     		cmp	r7, #0
 281 00ba 14DD     		ble	.L28
 132:../Common/IQMath/ti/_IQNtoa.c ****         ui32IntegerTenth = __mpyf_l(ui32Integer, iq31_oneTenth);
 282              		.loc 1 132 9 is_stmt 1 view .LVU111
 283              	.LVL38:
  28:../Common/IQMath/ti/./support/RTS_support.h **** }
 284              		.loc 2 28 5 view .LVU112
 133:../Common/IQMath/ti/_IQNtoa.c ****         __mpy_clear_ctl0();
 285              		.loc 1 133 9 view .LVU113
 286              	.LBB34:
 287              	.LBI34:
  98:../Common/IQMath/ti/./support/RTS_support.h **** }
  99:../Common/IQMath/ti/./support/RTS_support.h **** 
 100:../Common/IQMath/ti/./support/RTS_support.h **** #if defined (__TI_COMPILER_VERSION__)
ARM GAS  C:\Users\57308\AppData\Local\Temp\ccQy15rd.s 			page 12


 101:../Common/IQMath/ti/./support/RTS_support.h ****     #pragma FUNC_ALWAYS_INLINE(__mpyx_w)
 102:../Common/IQMath/ti/./support/RTS_support.h **** #elif defined(__IAR_SYSTEMS_ICC__)
 103:../Common/IQMath/ti/./support/RTS_support.h ****     #pragma inline=forced
 104:../Common/IQMath/ti/./support/RTS_support.h **** #endif
 105:../Common/IQMath/ti/./support/RTS_support.h **** static inline int_fast32_t __mpyx_w(int_fast16_t arg1, int_fast16_t arg2)
 106:../Common/IQMath/ti/./support/RTS_support.h **** {
 107:../Common/IQMath/ti/./support/RTS_support.h ****     return ((int_fast32_t)arg1 * (int_fast32_t)arg2);
 108:../Common/IQMath/ti/./support/RTS_support.h **** }
 109:../Common/IQMath/ti/./support/RTS_support.h **** 
 110:../Common/IQMath/ti/./support/RTS_support.h **** #if defined (__TI_COMPILER_VERSION__)
 111:../Common/IQMath/ti/./support/RTS_support.h ****     #pragma FUNC_ALWAYS_INLINE(__mpyx_uw)
 112:../Common/IQMath/ti/./support/RTS_support.h **** #elif defined(__IAR_SYSTEMS_ICC__)
 113:../Common/IQMath/ti/./support/RTS_support.h ****     #pragma inline=forced
 114:../Common/IQMath/ti/./support/RTS_support.h **** #endif
 115:../Common/IQMath/ti/./support/RTS_support.h **** static inline uint_fast32_t __mpyx_uw(uint_fast16_t arg1, uint_fast16_t arg2)
 116:../Common/IQMath/ti/./support/RTS_support.h **** {
 117:../Common/IQMath/ti/./support/RTS_support.h ****     return ((uint_fast32_t)arg1 * (uint_fast32_t)arg2);
 118:../Common/IQMath/ti/./support/RTS_support.h **** }
 119:../Common/IQMath/ti/./support/RTS_support.h **** 
 120:../Common/IQMath/ti/./support/RTS_support.h **** #if defined (__TI_COMPILER_VERSION__)
 121:../Common/IQMath/ti/./support/RTS_support.h ****     #pragma FUNC_ALWAYS_INLINE(__mpyf_w)
 122:../Common/IQMath/ti/./support/RTS_support.h **** #elif defined(__IAR_SYSTEMS_ICC__)
 123:../Common/IQMath/ti/./support/RTS_support.h ****     #pragma inline=forced
 124:../Common/IQMath/ti/./support/RTS_support.h **** #endif
 125:../Common/IQMath/ti/./support/RTS_support.h **** static inline int_fast16_t __mpyf_w(int_fast16_t arg1, int_fast16_t arg2)
 126:../Common/IQMath/ti/./support/RTS_support.h **** {
 127:../Common/IQMath/ti/./support/RTS_support.h ****     return (int_fast16_t)(((int_fast32_t)arg1 * (int_fast32_t)arg2) >> 15);
 128:../Common/IQMath/ti/./support/RTS_support.h **** }
 129:../Common/IQMath/ti/./support/RTS_support.h **** 
 130:../Common/IQMath/ti/./support/RTS_support.h **** #if defined (__TI_COMPILER_VERSION__)
 131:../Common/IQMath/ti/./support/RTS_support.h ****     #pragma FUNC_ALWAYS_INLINE(__mpyf_w_reuse_arg1)
 132:../Common/IQMath/ti/./support/RTS_support.h **** #elif defined(__IAR_SYSTEMS_ICC__)
 133:../Common/IQMath/ti/./support/RTS_support.h ****     #pragma inline=forced
 134:../Common/IQMath/ti/./support/RTS_support.h **** #endif
 135:../Common/IQMath/ti/./support/RTS_support.h **** static inline int_fast16_t __mpyf_w_reuse_arg1(int_fast16_t arg1, int_fast16_t arg2)
 136:../Common/IQMath/ti/./support/RTS_support.h **** {
 137:../Common/IQMath/ti/./support/RTS_support.h ****     /* This is identical to __mpyf_w */
 138:../Common/IQMath/ti/./support/RTS_support.h ****     return (int_fast16_t)(((int_fast32_t)arg1 * (int_fast32_t)arg2) >> 15);
 139:../Common/IQMath/ti/./support/RTS_support.h **** }
 140:../Common/IQMath/ti/./support/RTS_support.h **** 
 141:../Common/IQMath/ti/./support/RTS_support.h **** #if defined (__TI_COMPILER_VERSION__)
 142:../Common/IQMath/ti/./support/RTS_support.h ****     #pragma FUNC_ALWAYS_INLINE(__mpyf_uw)
 143:../Common/IQMath/ti/./support/RTS_support.h **** #elif defined(__IAR_SYSTEMS_ICC__)
 144:../Common/IQMath/ti/./support/RTS_support.h ****     #pragma inline=forced
 145:../Common/IQMath/ti/./support/RTS_support.h **** #endif
 146:../Common/IQMath/ti/./support/RTS_support.h **** static inline uint_fast16_t __mpyf_uw(uint_fast16_t arg1, uint_fast16_t arg2)
 147:../Common/IQMath/ti/./support/RTS_support.h **** {
 148:../Common/IQMath/ti/./support/RTS_support.h ****     return (uint_fast16_t)(((uint_fast32_t)arg1 * (uint_fast32_t)arg2) >> 15);
 149:../Common/IQMath/ti/./support/RTS_support.h **** }
 150:../Common/IQMath/ti/./support/RTS_support.h **** 
 151:../Common/IQMath/ti/./support/RTS_support.h **** #if defined (__TI_COMPILER_VERSION__)
 152:../Common/IQMath/ti/./support/RTS_support.h ****     #pragma FUNC_ALWAYS_INLINE(__mpyf_uw_reuse_arg1)
 153:../Common/IQMath/ti/./support/RTS_support.h **** #elif defined(__IAR_SYSTEMS_ICC__)
 154:../Common/IQMath/ti/./support/RTS_support.h ****     #pragma inline=forced
 155:../Common/IQMath/ti/./support/RTS_support.h **** #endif
 156:../Common/IQMath/ti/./support/RTS_support.h **** static inline uint_fast16_t __mpyf_uw_reuse_arg1(uint_fast16_t arg1, uint_fast16_t arg2)
 157:../Common/IQMath/ti/./support/RTS_support.h **** {
ARM GAS  C:\Users\57308\AppData\Local\Temp\ccQy15rd.s 			page 13


 158:../Common/IQMath/ti/./support/RTS_support.h ****     /* This is identical to __mpyf_uw */
 159:../Common/IQMath/ti/./support/RTS_support.h ****     return (uint_fast16_t)(((uint_fast32_t)arg1 * (uint_fast32_t)arg2) >> 15);
 160:../Common/IQMath/ti/./support/RTS_support.h **** }
 161:../Common/IQMath/ti/./support/RTS_support.h **** 
 162:../Common/IQMath/ti/./support/RTS_support.h **** #if defined (__TI_COMPILER_VERSION__)
 163:../Common/IQMath/ti/./support/RTS_support.h ****     #pragma FUNC_ALWAYS_INLINE(__mpyfx_w)
 164:../Common/IQMath/ti/./support/RTS_support.h **** #elif defined(__IAR_SYSTEMS_ICC__)
 165:../Common/IQMath/ti/./support/RTS_support.h ****     #pragma inline=forced
 166:../Common/IQMath/ti/./support/RTS_support.h **** #endif
 167:../Common/IQMath/ti/./support/RTS_support.h **** static inline int_fast32_t __mpyfx_w(int_fast16_t arg1, int_fast16_t arg2)
 168:../Common/IQMath/ti/./support/RTS_support.h **** {
 169:../Common/IQMath/ti/./support/RTS_support.h ****     return (((int_fast32_t)arg1 * (int_fast32_t)arg2) << 1);
 170:../Common/IQMath/ti/./support/RTS_support.h **** }
 171:../Common/IQMath/ti/./support/RTS_support.h **** 
 172:../Common/IQMath/ti/./support/RTS_support.h **** #if defined (__TI_COMPILER_VERSION__)
 173:../Common/IQMath/ti/./support/RTS_support.h ****     #pragma FUNC_ALWAYS_INLINE(__mpyfx_uw)
 174:../Common/IQMath/ti/./support/RTS_support.h **** #elif defined(__IAR_SYSTEMS_ICC__)
 175:../Common/IQMath/ti/./support/RTS_support.h ****     #pragma inline=forced
 176:../Common/IQMath/ti/./support/RTS_support.h **** #endif
 177:../Common/IQMath/ti/./support/RTS_support.h **** static inline int_fast32_t __mpyfx_uw(uint_fast16_t arg1, uint_fast16_t arg2)
 178:../Common/IQMath/ti/./support/RTS_support.h **** {
 179:../Common/IQMath/ti/./support/RTS_support.h ****     return (((uint_fast32_t)arg1 * (uint_fast32_t)arg2) << 1);
 180:../Common/IQMath/ti/./support/RTS_support.h **** }
 181:../Common/IQMath/ti/./support/RTS_support.h **** 
 182:../Common/IQMath/ti/./support/RTS_support.h **** 
 183:../Common/IQMath/ti/./support/RTS_support.h **** ////////////////////////////////////////////////////////////
 184:../Common/IQMath/ti/./support/RTS_support.h **** //                                                        //
 185:../Common/IQMath/ti/./support/RTS_support.h **** //                 32-bit functions                       //
 186:../Common/IQMath/ti/./support/RTS_support.h **** //                                                        //
 187:../Common/IQMath/ti/./support/RTS_support.h **** ////////////////////////////////////////////////////////////
 188:../Common/IQMath/ti/./support/RTS_support.h **** #if defined (__TI_COMPILER_VERSION__)
 189:../Common/IQMath/ti/./support/RTS_support.h ****     #pragma FUNC_ALWAYS_INLINE(__mpy_l)
 190:../Common/IQMath/ti/./support/RTS_support.h **** #elif defined(__IAR_SYSTEMS_ICC__)
 191:../Common/IQMath/ti/./support/RTS_support.h ****     #pragma inline=forced
 192:../Common/IQMath/ti/./support/RTS_support.h **** #endif
 193:../Common/IQMath/ti/./support/RTS_support.h **** static inline int_fast32_t __mpy_l(int_fast32_t arg1, int_fast32_t arg2)
 194:../Common/IQMath/ti/./support/RTS_support.h **** {
 195:../Common/IQMath/ti/./support/RTS_support.h ****     return (arg1 * arg2);
 196:../Common/IQMath/ti/./support/RTS_support.h **** }
 197:../Common/IQMath/ti/./support/RTS_support.h **** 
 198:../Common/IQMath/ti/./support/RTS_support.h **** #if defined (__TI_COMPILER_VERSION__)
 199:../Common/IQMath/ti/./support/RTS_support.h ****     #pragma FUNC_ALWAYS_INLINE(__mpy_ul)
 200:../Common/IQMath/ti/./support/RTS_support.h **** #elif defined(__IAR_SYSTEMS_ICC__)
 201:../Common/IQMath/ti/./support/RTS_support.h ****     #pragma inline=forced
 202:../Common/IQMath/ti/./support/RTS_support.h **** #endif
 203:../Common/IQMath/ti/./support/RTS_support.h **** static inline uint_fast32_t __mpy_ul(uint_fast32_t arg1, uint_fast32_t arg2)
 204:../Common/IQMath/ti/./support/RTS_support.h **** {
 205:../Common/IQMath/ti/./support/RTS_support.h ****     return (arg1 * arg2);
 206:../Common/IQMath/ti/./support/RTS_support.h **** }
 207:../Common/IQMath/ti/./support/RTS_support.h **** 
 208:../Common/IQMath/ti/./support/RTS_support.h **** #if defined (__TI_COMPILER_VERSION__)
 209:../Common/IQMath/ti/./support/RTS_support.h ****     #pragma FUNC_ALWAYS_INLINE(__mpyx)
 210:../Common/IQMath/ti/./support/RTS_support.h **** #elif defined(__IAR_SYSTEMS_ICC__)
 211:../Common/IQMath/ti/./support/RTS_support.h ****     #pragma inline=forced
 212:../Common/IQMath/ti/./support/RTS_support.h **** #endif
 213:../Common/IQMath/ti/./support/RTS_support.h **** static inline int_fast64_t __mpyx(int_fast32_t arg1, int_fast32_t arg2)
 214:../Common/IQMath/ti/./support/RTS_support.h **** {
ARM GAS  C:\Users\57308\AppData\Local\Temp\ccQy15rd.s 			page 14


 215:../Common/IQMath/ti/./support/RTS_support.h ****     return ((int_fast64_t)arg1 * (int_fast64_t)arg2);
 216:../Common/IQMath/ti/./support/RTS_support.h **** }
 217:../Common/IQMath/ti/./support/RTS_support.h **** 
 218:../Common/IQMath/ti/./support/RTS_support.h **** #if defined (__TI_COMPILER_VERSION__)
 219:../Common/IQMath/ti/./support/RTS_support.h ****     #pragma FUNC_ALWAYS_INLINE(__mpyx_u)
 220:../Common/IQMath/ti/./support/RTS_support.h **** #elif defined(__IAR_SYSTEMS_ICC__)
 221:../Common/IQMath/ti/./support/RTS_support.h ****     #pragma inline=forced
 222:../Common/IQMath/ti/./support/RTS_support.h **** #endif
 223:../Common/IQMath/ti/./support/RTS_support.h **** static inline uint_fast64_t __mpyx_u(uint_fast32_t arg1, uint_fast32_t arg2)
 224:../Common/IQMath/ti/./support/RTS_support.h **** {
 225:../Common/IQMath/ti/./support/RTS_support.h ****     return ((uint_fast64_t)arg1 * (uint_fast64_t)arg2);
 226:../Common/IQMath/ti/./support/RTS_support.h **** }
 227:../Common/IQMath/ti/./support/RTS_support.h **** 
 228:../Common/IQMath/ti/./support/RTS_support.h **** #if defined (__TI_COMPILER_VERSION__)
 229:../Common/IQMath/ti/./support/RTS_support.h ****     #pragma FUNC_ALWAYS_INLINE(__mpyf_l)
 230:../Common/IQMath/ti/./support/RTS_support.h **** #elif defined(__IAR_SYSTEMS_ICC__)
 231:../Common/IQMath/ti/./support/RTS_support.h ****     #pragma inline=forced
 232:../Common/IQMath/ti/./support/RTS_support.h **** #endif
 233:../Common/IQMath/ti/./support/RTS_support.h **** static inline int_fast32_t __mpyf_l(int_fast32_t arg1, int_fast32_t arg2)
 288              		.loc 2 233 28 view .LVU114
 289              	.LBB35:
 234:../Common/IQMath/ti/./support/RTS_support.h **** {
 235:../Common/IQMath/ti/./support/RTS_support.h ****     return (int_fast32_t)(((int_fast64_t)arg1 * (int_fast64_t)arg2) >> 31);
 290              		.loc 2 235 5 view .LVU115
 291              		.loc 2 235 28 is_stmt 0 view .LVU116
 292 00bc D617     		asrs	r6, r2, #31
 293              		.loc 2 235 47 view .LVU117
 294 00be DFF87C80 		ldr	r8, .L29
 295 00c2 A2FB085E 		umull	r5, lr, r2, r8
 296 00c6 08FB06E6 		mla	r6, r8, r6, lr
 297              		.loc 2 235 69 view .LVU118
 298 00ca ED0F     		lsrs	r5, r5, #31
 299 00cc 45EA4605 		orr	r5, r5, r6, lsl #1
 300              	.LVL39:
 301              		.loc 2 235 69 view .LVU119
 302              	.LBE35:
 303              	.LBE34:
 134:../Common/IQMath/ti/_IQNtoa.c ****         ui32IntTemp = __mpy_ul(ui32IntegerTenth, 10);
 304              		.loc 1 134 9 is_stmt 1 view .LVU120
  50:../Common/IQMath/ti/./support/RTS_support.h **** }
 305              		.loc 2 50 5 view .LVU121
 135:../Common/IQMath/ti/_IQNtoa.c ****         /* Handle any possible rounding. */
 306              		.loc 1 135 9 view .LVU122
 307              	.LBB36:
 308              	.LBI36:
 203:../Common/IQMath/ti/./support/RTS_support.h **** {
 309              		.loc 2 203 29 view .LVU123
 310              	.LBB37:
 205:../Common/IQMath/ti/./support/RTS_support.h **** }
 311              		.loc 2 205 5 view .LVU124
 205:../Common/IQMath/ti/./support/RTS_support.h **** }
 312              		.loc 2 205 18 is_stmt 0 view .LVU125
 313 00d0 05EB850E 		add	lr, r5, r5, lsl #2
 314 00d4 4FEA4E0E 		lsl	lr, lr, #1
 315 00d8 7646     		mov	r6, lr
 316              	.LVL40:
 205:../Common/IQMath/ti/./support/RTS_support.h **** }
ARM GAS  C:\Users\57308\AppData\Local\Temp\ccQy15rd.s 			page 15


 317              		.loc 2 205 18 view .LVU126
 318              	.LBE37:
 319              	.LBE36:
 137:../Common/IQMath/ti/_IQNtoa.c ****             ui32IntTemp -= 10;
 320              		.loc 1 137 9 is_stmt 1 view .LVU127
 137:../Common/IQMath/ti/_IQNtoa.c ****             ui32IntTemp -= 10;
 321              		.loc 1 137 12 is_stmt 0 view .LVU128
 322 00da 7245     		cmp	r2, lr
 323 00dc E6D2     		bcs	.L10
 138:../Common/IQMath/ti/_IQNtoa.c ****             ui32IntegerTenth -= 1;
 324              		.loc 1 138 13 is_stmt 1 view .LVU129
 138:../Common/IQMath/ti/_IQNtoa.c ****             ui32IntegerTenth -= 1;
 325              		.loc 1 138 25 is_stmt 0 view .LVU130
 326 00de AEF10A06 		sub	r6, lr, #10
 327              	.LVL41:
 139:../Common/IQMath/ti/_IQNtoa.c ****         }
 328              		.loc 1 139 13 is_stmt 1 view .LVU131
 139:../Common/IQMath/ti/_IQNtoa.c ****         }
 329              		.loc 1 139 30 is_stmt 0 view .LVU132
 330 00e2 013D     		subs	r5, r5, #1
 331              	.LVL42:
 139:../Common/IQMath/ti/_IQNtoa.c ****         }
 332              		.loc 1 139 30 view .LVU133
 333 00e4 E2E7     		b	.L10
 334              	.LVL43:
 335              	.L28:
 149:../Common/IQMath/ti/_IQNtoa.c ****         /* Error: integer format too small. */
 336              		.loc 1 149 5 is_stmt 1 view .LVU134
 149:../Common/IQMath/ti/_IQNtoa.c ****         /* Error: integer format too small. */
 337              		.loc 1 149 8 is_stmt 0 view .LVU135
 338 00e6 3ABB     		cbnz	r2, .L23
 155:../Common/IQMath/ti/_IQNtoa.c ****     uiq32Fractional = uiqNInput << (32 - q_value);
 339              		.loc 1 155 5 is_stmt 1 view .LVU136
 155:../Common/IQMath/ti/_IQNtoa.c ****     uiq32Fractional = uiqNInput << (32 - q_value);
 340              		.loc 1 155 11 is_stmt 0 view .LVU137
 341 00e8 4518     		adds	r5, r0, r1
 342              	.LVL44:
 156:../Common/IQMath/ti/_IQNtoa.c ****     
 343              		.loc 1 156 5 is_stmt 1 view .LVU138
 156:../Common/IQMath/ti/_IQNtoa.c ****     
 344              		.loc 1 156 40 is_stmt 0 view .LVU139
 345 00ea C3F12003 		rsb	r3, r3, #32
 346              	.LVL45:
 156:../Common/IQMath/ti/_IQNtoa.c ****     
 347              		.loc 1 156 21 view .LVU140
 348 00ee 0CFA03F3 		lsl	r3, ip, r3
 349              	.LVL46:
 158:../Common/IQMath/ti/_IQNtoa.c ****         *pcBuf++ = '.';
 350              		.loc 1 158 5 is_stmt 1 view .LVU141
 158:../Common/IQMath/ti/_IQNtoa.c ****         *pcBuf++ = '.';
 351              		.loc 1 158 8 is_stmt 0 view .LVU142
 352 00f2 94B1     		cbz	r4, .L12
 159:../Common/IQMath/ti/_IQNtoa.c ****         
 353              		.loc 1 159 9 is_stmt 1 view .LVU143
 354              	.LVL47:
 159:../Common/IQMath/ti/_IQNtoa.c ****         
 355              		.loc 1 159 18 is_stmt 0 view .LVU144
ARM GAS  C:\Users\57308\AppData\Local\Temp\ccQy15rd.s 			page 16


 356 00f4 2E22     		movs	r2, #46
 357              	.LVL48:
 159:../Common/IQMath/ti/_IQNtoa.c ****         
 358              		.loc 1 159 18 view .LVU145
 359 00f6 4254     		strb	r2, [r0, r1]
 161:../Common/IQMath/ti/_IQNtoa.c ****             __mpy_start(&ui16IntState, &ui16MPYState);
 360              		.loc 1 161 9 is_stmt 1 view .LVU146
 159:../Common/IQMath/ti/_IQNtoa.c ****         
 361              		.loc 1 159 15 is_stmt 0 view .LVU147
 362 00f8 0135     		adds	r5, r5, #1
 363              	.LVL49:
 161:../Common/IQMath/ti/_IQNtoa.c ****             __mpy_start(&ui16IntState, &ui16MPYState);
 364              		.loc 1 161 15 view .LVU148
 365 00fa 0BE0     		b	.L13
 366              	.LVL50:
 367              	.L14:
 162:../Common/IQMath/ti/_IQNtoa.c ****             uiiq32FractionalTen = __mpyx_u(uiq32Fractional, 10);
 368              		.loc 1 162 13 is_stmt 1 view .LVU149
  17:../Common/IQMath/ti/./support/RTS_support.h **** }
 369              		.loc 2 17 5 view .LVU150
 163:../Common/IQMath/ti/_IQNtoa.c ****             __mpy_stop(&ui16IntState, &ui16MPYState);
 370              		.loc 1 163 13 view .LVU151
 371              	.LBB38:
 372              	.LBI38:
 223:../Common/IQMath/ti/./support/RTS_support.h **** {
 373              		.loc 2 223 29 view .LVU152
 374              	.LBB39:
 225:../Common/IQMath/ti/./support/RTS_support.h **** }
 375              		.loc 2 225 5 view .LVU153
 225:../Common/IQMath/ti/./support/RTS_support.h **** }
 376              		.loc 2 225 33 is_stmt 0 view .LVU154
 377 00fc 9A0F     		lsrs	r2, r3, #30
 378 00fe 9900     		lsls	r1, r3, #2
 379 0100 CB18     		adds	r3, r1, r3
 380              	.LVL51:
 225:../Common/IQMath/ti/./support/RTS_support.h **** }
 381              		.loc 2 225 33 view .LVU155
 382 0102 42F10002 		adc	r2, r2, #0
 383 0106 DB18     		adds	r3, r3, r3
 384 0108 5241     		adcs	r2, r2, r2
 385              	.LVL52:
 225:../Common/IQMath/ti/./support/RTS_support.h **** }
 386              		.loc 2 225 33 view .LVU156
 387              	.LBE39:
 388              	.LBE38:
 164:../Common/IQMath/ti/_IQNtoa.c ****             
 389              		.loc 1 164 13 is_stmt 1 view .LVU157
  72:../Common/IQMath/ti/./support/RTS_support.h **** }
 390              		.loc 2 72 5 view .LVU158
 166:../Common/IQMath/ti/_IQNtoa.c ****             *pcBuf++ = (uint8_t)(uiiq32FractionalTen >> 32) + '0';
 391              		.loc 1 166 13 view .LVU159
 167:../Common/IQMath/ti/_IQNtoa.c ****         }
 392              		.loc 1 167 13 view .LVU160
 167:../Common/IQMath/ti/_IQNtoa.c ****         }
 393              		.loc 1 167 24 is_stmt 0 view .LVU161
 394 010a D2B2     		uxtb	r2, r2
 395              	.LVL53:
ARM GAS  C:\Users\57308\AppData\Local\Temp\ccQy15rd.s 			page 17


 167:../Common/IQMath/ti/_IQNtoa.c ****         }
 396              		.loc 1 167 61 view .LVU162
 397 010c 3032     		adds	r2, r2, #48
 167:../Common/IQMath/ti/_IQNtoa.c ****         }
 398              		.loc 1 167 22 view .LVU163
 399 010e 05F8012B 		strb	r2, [r5], #1
 400              	.LVL54:
 161:../Common/IQMath/ti/_IQNtoa.c ****             __mpy_start(&ui16IntState, &ui16MPYState);
 401              		.loc 1 161 29 view .LVU164
 402 0112 0446     		mov	r4, r0
 403              	.LVL55:
 404              	.L13:
 161:../Common/IQMath/ti/_IQNtoa.c ****             __mpy_start(&ui16IntState, &ui16MPYState);
 405              		.loc 1 161 15 is_stmt 1 view .LVU165
 161:../Common/IQMath/ti/_IQNtoa.c ****             __mpy_start(&ui16IntState, &ui16MPYState);
 406              		.loc 1 161 29 is_stmt 0 view .LVU166
 407 0114 601E     		subs	r0, r4, #1
 408              	.LVL56:
 161:../Common/IQMath/ti/_IQNtoa.c ****             __mpy_start(&ui16IntState, &ui16MPYState);
 409              		.loc 1 161 15 view .LVU167
 410 0116 002C     		cmp	r4, #0
 411 0118 F0D1     		bne	.L14
 412              	.LVL57:
 413              	.L12:
 172:../Common/IQMath/ti/_IQNtoa.c ****     return (0);
 414              		.loc 1 172 5 is_stmt 1 view .LVU168
 172:../Common/IQMath/ti/_IQNtoa.c ****     return (0);
 415              		.loc 1 172 12 is_stmt 0 view .LVU169
 416 011a 0020     		movs	r0, #0
 417 011c 2870     		strb	r0, [r5]
 173:../Common/IQMath/ti/_IQNtoa.c **** }
 418              		.loc 1 173 5 is_stmt 1 view .LVU170
 173:../Common/IQMath/ti/_IQNtoa.c **** }
 419              		.loc 1 173 12 is_stmt 0 view .LVU171
 420 011e 91E7     		b	.L1
 421              	.LVL58:
 422              	.L15:
  49:../Common/IQMath/ti/_IQNtoa.c ****     }
 423              		.loc 1 49 15 view .LVU172
 424 0120 0220     		movs	r0, #2
 425              	.LVL59:
  49:../Common/IQMath/ti/_IQNtoa.c ****     }
 426              		.loc 1 49 15 view .LVU173
 427 0122 8FE7     		b	.L1
 428              	.LVL60:
 429              	.L16:
  55:../Common/IQMath/ti/_IQNtoa.c ****     }
 430              		.loc 1 55 16 view .LVU174
 431 0124 0220     		movs	r0, #2
 432              	.LVL61:
  55:../Common/IQMath/ti/_IQNtoa.c ****     }
 433              		.loc 1 55 16 view .LVU175
 434 0126 8DE7     		b	.L1
 435              	.LVL62:
 436              	.L18:
  77:../Common/IQMath/ti/_IQNtoa.c ****     }
 437              		.loc 1 77 16 view .LVU176
ARM GAS  C:\Users\57308\AppData\Local\Temp\ccQy15rd.s 			page 18


 438 0128 0220     		movs	r0, #2
 439              	.LVL63:
  77:../Common/IQMath/ti/_IQNtoa.c ****     }
 440              		.loc 1 77 16 view .LVU177
 441 012a 8BE7     		b	.L1
 442              	.LVL64:
 443              	.L19:
  83:../Common/IQMath/ti/_IQNtoa.c ****     }
 444              		.loc 1 83 15 view .LVU178
 445 012c 0220     		movs	r0, #2
 446              	.LVL65:
  83:../Common/IQMath/ti/_IQNtoa.c ****     }
 447              		.loc 1 83 15 view .LVU179
 448 012e 89E7     		b	.L1
 449              	.LVL66:
 450              	.L21:
 105:../Common/IQMath/ti/_IQNtoa.c ****     }
 451              		.loc 1 105 15 view .LVU180
 452 0130 0220     		movs	r0, #2
 453              	.LVL67:
 105:../Common/IQMath/ti/_IQNtoa.c ****     }
 454              		.loc 1 105 15 view .LVU181
 455 0132 87E7     		b	.L1
 456              	.LVL68:
 457              	.L22:
 111:../Common/IQMath/ti/_IQNtoa.c ****     }
 458              		.loc 1 111 16 view .LVU182
 459 0134 0220     		movs	r0, #2
 460              	.LVL69:
 111:../Common/IQMath/ti/_IQNtoa.c ****     }
 461              		.loc 1 111 16 view .LVU183
 462 0136 85E7     		b	.L1
 463              	.LVL70:
 464              	.L23:
 151:../Common/IQMath/ti/_IQNtoa.c ****     }
 465              		.loc 1 151 16 view .LVU184
 466 0138 0120     		movs	r0, #1
 467              	.LVL71:
 151:../Common/IQMath/ti/_IQNtoa.c ****     }
 468              		.loc 1 151 16 view .LVU185
 469 013a 83E7     		b	.L1
 470              	.L30:
 471              		.align	2
 472              	.L29:
 473 013c CDCCCC0C 		.word	214748365
 474              		.cfi_endproc
 475              	.LFE261:
 477              		.section	.text._IQ31toa,"ax",%progbits
 478              		.align	1
 479              		.global	_IQ31toa
 480              		.syntax unified
 481              		.thumb
 482              		.thumb_func
 484              	_IQ31toa:
 485              	.LVL72:
 486              	.LFB262:
 175:../Common/IQMath/ti/_IQNtoa.c **** 
ARM GAS  C:\Users\57308\AppData\Local\Temp\ccQy15rd.s 			page 19


 176:../Common/IQMath/ti/_IQNtoa.c **** /**
 177:../Common/IQMath/ti/_IQNtoa.c ****  * @brief Convert an IQ31 number to a string.
 178:../Common/IQMath/ti/_IQNtoa.c ****  *
 179:../Common/IQMath/ti/_IQNtoa.c ****  * @param string          Pointer to the buffer to store the converted IQ number.
 180:../Common/IQMath/ti/_IQNtoa.c ****  * @param format          The format string specifying how to convert the IQ number.
 181:../Common/IQMath/ti/_IQNtoa.c ****  * @param iqNInput        IQ31 type input.
 182:../Common/IQMath/ti/_IQNtoa.c ****  *
 183:../Common/IQMath/ti/_IQNtoa.c ****  * @return                Returns 0 if there is no error, 1 if the width is too small to hold the i
 184:../Common/IQMath/ti/_IQNtoa.c ****  *                        characters, and 2 if an illegal format was specified.
 185:../Common/IQMath/ti/_IQNtoa.c ****  */
 186:../Common/IQMath/ti/_IQNtoa.c **** int16_t _IQ31toa(char *string, const char *format, int32_t iqNInput)
 187:../Common/IQMath/ti/_IQNtoa.c **** {
 487              		.loc 1 187 1 is_stmt 1 view -0
 488              		.cfi_startproc
 489              		@ args = 0, pretend = 0, frame = 0
 490              		@ frame_needed = 0, uses_anonymous_args = 0
 491              		.loc 1 187 1 is_stmt 0 view .LVU187
 492 0000 08B5     		push	{r3, lr}
 493              	.LCFI1:
 494              		.cfi_def_cfa_offset 8
 495              		.cfi_offset 3, -8
 496              		.cfi_offset 14, -4
 188:../Common/IQMath/ti/_IQNtoa.c ****     return __IQNtoa(string, format, iqNInput, 31);
 497              		.loc 1 188 5 is_stmt 1 view .LVU188
 498              		.loc 1 188 12 is_stmt 0 view .LVU189
 499 0002 1F23     		movs	r3, #31
 500 0004 FFF7FEFF 		bl	__IQNtoa
 501              	.LVL73:
 189:../Common/IQMath/ti/_IQNtoa.c **** }
 502              		.loc 1 189 1 view .LVU190
 503 0008 00B2     		sxth	r0, r0
 504 000a 08BD     		pop	{r3, pc}
 505              		.cfi_endproc
 506              	.LFE262:
 508              		.section	.text._IQ30toa,"ax",%progbits
 509              		.align	1
 510              		.global	_IQ30toa
 511              		.syntax unified
 512              		.thumb
 513              		.thumb_func
 515              	_IQ30toa:
 516              	.LVL74:
 517              	.LFB263:
 190:../Common/IQMath/ti/_IQNtoa.c **** /**
 191:../Common/IQMath/ti/_IQNtoa.c ****  * @brief Convert an IQ30 number to a string.
 192:../Common/IQMath/ti/_IQNtoa.c ****  *
 193:../Common/IQMath/ti/_IQNtoa.c ****  * @param string          Pointer to the buffer to store the converted IQ number.
 194:../Common/IQMath/ti/_IQNtoa.c ****  * @param format          The format string specifying how to convert the IQ number.
 195:../Common/IQMath/ti/_IQNtoa.c ****  * @param iqNInput        IQ30 type input.
 196:../Common/IQMath/ti/_IQNtoa.c ****  *
 197:../Common/IQMath/ti/_IQNtoa.c ****  * @return                Returns 0 if there is no error, 1 if the width is too small to hold the i
 198:../Common/IQMath/ti/_IQNtoa.c ****  *                        characters, and 2 if an illegal format was specified.
 199:../Common/IQMath/ti/_IQNtoa.c ****  */
 200:../Common/IQMath/ti/_IQNtoa.c **** int16_t _IQ30toa(char *string, const char *format, int32_t iqNInput)
 201:../Common/IQMath/ti/_IQNtoa.c **** {
 518              		.loc 1 201 1 is_stmt 1 view -0
 519              		.cfi_startproc
ARM GAS  C:\Users\57308\AppData\Local\Temp\ccQy15rd.s 			page 20


 520              		@ args = 0, pretend = 0, frame = 0
 521              		@ frame_needed = 0, uses_anonymous_args = 0
 522              		.loc 1 201 1 is_stmt 0 view .LVU192
 523 0000 08B5     		push	{r3, lr}
 524              	.LCFI2:
 525              		.cfi_def_cfa_offset 8
 526              		.cfi_offset 3, -8
 527              		.cfi_offset 14, -4
 202:../Common/IQMath/ti/_IQNtoa.c ****     return __IQNtoa(string, format, iqNInput, 30);
 528              		.loc 1 202 5 is_stmt 1 view .LVU193
 529              		.loc 1 202 12 is_stmt 0 view .LVU194
 530 0002 1E23     		movs	r3, #30
 531 0004 FFF7FEFF 		bl	__IQNtoa
 532              	.LVL75:
 203:../Common/IQMath/ti/_IQNtoa.c **** }
 533              		.loc 1 203 1 view .LVU195
 534 0008 00B2     		sxth	r0, r0
 535 000a 08BD     		pop	{r3, pc}
 536              		.cfi_endproc
 537              	.LFE263:
 539              		.section	.text._IQ29toa,"ax",%progbits
 540              		.align	1
 541              		.global	_IQ29toa
 542              		.syntax unified
 543              		.thumb
 544              		.thumb_func
 546              	_IQ29toa:
 547              	.LVL76:
 548              	.LFB264:
 204:../Common/IQMath/ti/_IQNtoa.c **** /**
 205:../Common/IQMath/ti/_IQNtoa.c ****  * @brief Convert an IQ29 number to a string.
 206:../Common/IQMath/ti/_IQNtoa.c ****  *
 207:../Common/IQMath/ti/_IQNtoa.c ****  * @param string          Pointer to the buffer to store the converted IQ number.
 208:../Common/IQMath/ti/_IQNtoa.c ****  * @param format          The format string specifying how to convert the IQ number.
 209:../Common/IQMath/ti/_IQNtoa.c ****  * @param iqNInput        IQ29 type input.
 210:../Common/IQMath/ti/_IQNtoa.c ****  *
 211:../Common/IQMath/ti/_IQNtoa.c ****  * @return                Returns 0 if there is no error, 1 if the width is too small to hold the i
 212:../Common/IQMath/ti/_IQNtoa.c ****  *                        characters, and 2 if an illegal format was specified.
 213:../Common/IQMath/ti/_IQNtoa.c ****  */
 214:../Common/IQMath/ti/_IQNtoa.c **** int16_t _IQ29toa(char *string, const char *format, int32_t iqNInput)
 215:../Common/IQMath/ti/_IQNtoa.c **** {
 549              		.loc 1 215 1 is_stmt 1 view -0
 550              		.cfi_startproc
 551              		@ args = 0, pretend = 0, frame = 0
 552              		@ frame_needed = 0, uses_anonymous_args = 0
 553              		.loc 1 215 1 is_stmt 0 view .LVU197
 554 0000 08B5     		push	{r3, lr}
 555              	.LCFI3:
 556              		.cfi_def_cfa_offset 8
 557              		.cfi_offset 3, -8
 558              		.cfi_offset 14, -4
 216:../Common/IQMath/ti/_IQNtoa.c ****     return __IQNtoa(string, format, iqNInput, 29);
 559              		.loc 1 216 5 is_stmt 1 view .LVU198
 560              		.loc 1 216 12 is_stmt 0 view .LVU199
 561 0002 1D23     		movs	r3, #29
 562 0004 FFF7FEFF 		bl	__IQNtoa
 563              	.LVL77:
ARM GAS  C:\Users\57308\AppData\Local\Temp\ccQy15rd.s 			page 21


 217:../Common/IQMath/ti/_IQNtoa.c **** }
 564              		.loc 1 217 1 view .LVU200
 565 0008 00B2     		sxth	r0, r0
 566 000a 08BD     		pop	{r3, pc}
 567              		.cfi_endproc
 568              	.LFE264:
 570              		.section	.text._IQ28toa,"ax",%progbits
 571              		.align	1
 572              		.global	_IQ28toa
 573              		.syntax unified
 574              		.thumb
 575              		.thumb_func
 577              	_IQ28toa:
 578              	.LVL78:
 579              	.LFB265:
 218:../Common/IQMath/ti/_IQNtoa.c **** /**
 219:../Common/IQMath/ti/_IQNtoa.c ****  * @brief Convert an IQ28 number to a string.
 220:../Common/IQMath/ti/_IQNtoa.c ****  *
 221:../Common/IQMath/ti/_IQNtoa.c ****  * @param string          Pointer to the buffer to store the converted IQ number.
 222:../Common/IQMath/ti/_IQNtoa.c ****  * @param format          The format string specifying how to convert the IQ number.
 223:../Common/IQMath/ti/_IQNtoa.c ****  * @param iqNInput        IQ28 type input.
 224:../Common/IQMath/ti/_IQNtoa.c ****  *
 225:../Common/IQMath/ti/_IQNtoa.c ****  * @return                Returns 0 if there is no error, 1 if the width is too small to hold the i
 226:../Common/IQMath/ti/_IQNtoa.c ****  *                        characters, and 2 if an illegal format was specified.
 227:../Common/IQMath/ti/_IQNtoa.c ****  */
 228:../Common/IQMath/ti/_IQNtoa.c **** int16_t _IQ28toa(char *string, const char *format, int32_t iqNInput)
 229:../Common/IQMath/ti/_IQNtoa.c **** {
 580              		.loc 1 229 1 is_stmt 1 view -0
 581              		.cfi_startproc
 582              		@ args = 0, pretend = 0, frame = 0
 583              		@ frame_needed = 0, uses_anonymous_args = 0
 584              		.loc 1 229 1 is_stmt 0 view .LVU202
 585 0000 08B5     		push	{r3, lr}
 586              	.LCFI4:
 587              		.cfi_def_cfa_offset 8
 588              		.cfi_offset 3, -8
 589              		.cfi_offset 14, -4
 230:../Common/IQMath/ti/_IQNtoa.c ****     return __IQNtoa(string, format, iqNInput, 28);
 590              		.loc 1 230 5 is_stmt 1 view .LVU203
 591              		.loc 1 230 12 is_stmt 0 view .LVU204
 592 0002 1C23     		movs	r3, #28
 593 0004 FFF7FEFF 		bl	__IQNtoa
 594              	.LVL79:
 231:../Common/IQMath/ti/_IQNtoa.c **** }
 595              		.loc 1 231 1 view .LVU205
 596 0008 00B2     		sxth	r0, r0
 597 000a 08BD     		pop	{r3, pc}
 598              		.cfi_endproc
 599              	.LFE265:
 601              		.section	.text._IQ27toa,"ax",%progbits
 602              		.align	1
 603              		.global	_IQ27toa
 604              		.syntax unified
 605              		.thumb
 606              		.thumb_func
 608              	_IQ27toa:
 609              	.LVL80:
ARM GAS  C:\Users\57308\AppData\Local\Temp\ccQy15rd.s 			page 22


 610              	.LFB266:
 232:../Common/IQMath/ti/_IQNtoa.c **** /**
 233:../Common/IQMath/ti/_IQNtoa.c ****  * @brief Convert an IQ27 number to a string.
 234:../Common/IQMath/ti/_IQNtoa.c ****  *
 235:../Common/IQMath/ti/_IQNtoa.c ****  * @param string          Pointer to the buffer to store the converted IQ number.
 236:../Common/IQMath/ti/_IQNtoa.c ****  * @param format          The format string specifying how to convert the IQ number.
 237:../Common/IQMath/ti/_IQNtoa.c ****  * @param iqNInput        IQ27 type input.
 238:../Common/IQMath/ti/_IQNtoa.c ****  *
 239:../Common/IQMath/ti/_IQNtoa.c ****  * @return                Returns 0 if there is no error, 1 if the width is too small to hold the i
 240:../Common/IQMath/ti/_IQNtoa.c ****  *                        characters, and 2 if an illegal format was specified.
 241:../Common/IQMath/ti/_IQNtoa.c ****  */
 242:../Common/IQMath/ti/_IQNtoa.c **** int16_t _IQ27toa(char *string, const char *format, int32_t iqNInput)
 243:../Common/IQMath/ti/_IQNtoa.c **** {
 611              		.loc 1 243 1 is_stmt 1 view -0
 612              		.cfi_startproc
 613              		@ args = 0, pretend = 0, frame = 0
 614              		@ frame_needed = 0, uses_anonymous_args = 0
 615              		.loc 1 243 1 is_stmt 0 view .LVU207
 616 0000 08B5     		push	{r3, lr}
 617              	.LCFI5:
 618              		.cfi_def_cfa_offset 8
 619              		.cfi_offset 3, -8
 620              		.cfi_offset 14, -4
 244:../Common/IQMath/ti/_IQNtoa.c ****     return __IQNtoa(string, format, iqNInput, 27);
 621              		.loc 1 244 5 is_stmt 1 view .LVU208
 622              		.loc 1 244 12 is_stmt 0 view .LVU209
 623 0002 1B23     		movs	r3, #27
 624 0004 FFF7FEFF 		bl	__IQNtoa
 625              	.LVL81:
 245:../Common/IQMath/ti/_IQNtoa.c **** }
 626              		.loc 1 245 1 view .LVU210
 627 0008 00B2     		sxth	r0, r0
 628 000a 08BD     		pop	{r3, pc}
 629              		.cfi_endproc
 630              	.LFE266:
 632              		.section	.text._IQ26toa,"ax",%progbits
 633              		.align	1
 634              		.global	_IQ26toa
 635              		.syntax unified
 636              		.thumb
 637              		.thumb_func
 639              	_IQ26toa:
 640              	.LVL82:
 641              	.LFB267:
 246:../Common/IQMath/ti/_IQNtoa.c **** /**
 247:../Common/IQMath/ti/_IQNtoa.c ****  * @brief Convert an IQ26 number to a string.
 248:../Common/IQMath/ti/_IQNtoa.c ****  *
 249:../Common/IQMath/ti/_IQNtoa.c ****  * @param string          Pointer to the buffer to store the converted IQ number.
 250:../Common/IQMath/ti/_IQNtoa.c ****  * @param format          The format string specifying how to convert the IQ number.
 251:../Common/IQMath/ti/_IQNtoa.c ****  * @param iqNInput        IQ26 type input.
 252:../Common/IQMath/ti/_IQNtoa.c ****  *
 253:../Common/IQMath/ti/_IQNtoa.c ****  * @return                Returns 0 if there is no error, 1 if the width is too small to hold the i
 254:../Common/IQMath/ti/_IQNtoa.c ****  *                        characters, and 2 if an illegal format was specified.
 255:../Common/IQMath/ti/_IQNtoa.c ****  */
 256:../Common/IQMath/ti/_IQNtoa.c **** int16_t _IQ26toa(char *string, const char *format, int32_t iqNInput)
 257:../Common/IQMath/ti/_IQNtoa.c **** {
 642              		.loc 1 257 1 is_stmt 1 view -0
ARM GAS  C:\Users\57308\AppData\Local\Temp\ccQy15rd.s 			page 23


 643              		.cfi_startproc
 644              		@ args = 0, pretend = 0, frame = 0
 645              		@ frame_needed = 0, uses_anonymous_args = 0
 646              		.loc 1 257 1 is_stmt 0 view .LVU212
 647 0000 08B5     		push	{r3, lr}
 648              	.LCFI6:
 649              		.cfi_def_cfa_offset 8
 650              		.cfi_offset 3, -8
 651              		.cfi_offset 14, -4
 258:../Common/IQMath/ti/_IQNtoa.c ****     return __IQNtoa(string, format, iqNInput, 26);
 652              		.loc 1 258 5 is_stmt 1 view .LVU213
 653              		.loc 1 258 12 is_stmt 0 view .LVU214
 654 0002 1A23     		movs	r3, #26
 655 0004 FFF7FEFF 		bl	__IQNtoa
 656              	.LVL83:
 259:../Common/IQMath/ti/_IQNtoa.c **** }
 657              		.loc 1 259 1 view .LVU215
 658 0008 00B2     		sxth	r0, r0
 659 000a 08BD     		pop	{r3, pc}
 660              		.cfi_endproc
 661              	.LFE267:
 663              		.section	.text._IQ25toa,"ax",%progbits
 664              		.align	1
 665              		.global	_IQ25toa
 666              		.syntax unified
 667              		.thumb
 668              		.thumb_func
 670              	_IQ25toa:
 671              	.LVL84:
 672              	.LFB268:
 260:../Common/IQMath/ti/_IQNtoa.c **** /**
 261:../Common/IQMath/ti/_IQNtoa.c ****  * @brief Convert an IQ25 number to a string.
 262:../Common/IQMath/ti/_IQNtoa.c ****  *
 263:../Common/IQMath/ti/_IQNtoa.c ****  * @param string          Pointer to the buffer to store the converted IQ number.
 264:../Common/IQMath/ti/_IQNtoa.c ****  * @param format          The format string specifying how to convert the IQ number.
 265:../Common/IQMath/ti/_IQNtoa.c ****  * @param iqNInput        IQ25 type input.
 266:../Common/IQMath/ti/_IQNtoa.c ****  *
 267:../Common/IQMath/ti/_IQNtoa.c ****  * @return                Returns 0 if there is no error, 1 if the width is too small to hold the i
 268:../Common/IQMath/ti/_IQNtoa.c ****  *                        characters, and 2 if an illegal format was specified.
 269:../Common/IQMath/ti/_IQNtoa.c ****  */
 270:../Common/IQMath/ti/_IQNtoa.c **** int16_t _IQ25toa(char *string, const char *format, int32_t iqNInput)
 271:../Common/IQMath/ti/_IQNtoa.c **** {
 673              		.loc 1 271 1 is_stmt 1 view -0
 674              		.cfi_startproc
 675              		@ args = 0, pretend = 0, frame = 0
 676              		@ frame_needed = 0, uses_anonymous_args = 0
 677              		.loc 1 271 1 is_stmt 0 view .LVU217
 678 0000 08B5     		push	{r3, lr}
 679              	.LCFI7:
 680              		.cfi_def_cfa_offset 8
 681              		.cfi_offset 3, -8
 682              		.cfi_offset 14, -4
 272:../Common/IQMath/ti/_IQNtoa.c ****     return __IQNtoa(string, format, iqNInput, 25);
 683              		.loc 1 272 5 is_stmt 1 view .LVU218
 684              		.loc 1 272 12 is_stmt 0 view .LVU219
 685 0002 1923     		movs	r3, #25
 686 0004 FFF7FEFF 		bl	__IQNtoa
ARM GAS  C:\Users\57308\AppData\Local\Temp\ccQy15rd.s 			page 24


 687              	.LVL85:
 273:../Common/IQMath/ti/_IQNtoa.c **** }
 688              		.loc 1 273 1 view .LVU220
 689 0008 00B2     		sxth	r0, r0
 690 000a 08BD     		pop	{r3, pc}
 691              		.cfi_endproc
 692              	.LFE268:
 694              		.section	.text._IQ24toa,"ax",%progbits
 695              		.align	1
 696              		.global	_IQ24toa
 697              		.syntax unified
 698              		.thumb
 699              		.thumb_func
 701              	_IQ24toa:
 702              	.LVL86:
 703              	.LFB269:
 274:../Common/IQMath/ti/_IQNtoa.c **** /**
 275:../Common/IQMath/ti/_IQNtoa.c ****  * @brief Convert an IQ24 number to a string.
 276:../Common/IQMath/ti/_IQNtoa.c ****  *
 277:../Common/IQMath/ti/_IQNtoa.c ****  * @param string          Pointer to the buffer to store the converted IQ number.
 278:../Common/IQMath/ti/_IQNtoa.c ****  * @param format          The format string specifying how to convert the IQ number.
 279:../Common/IQMath/ti/_IQNtoa.c ****  * @param iqNInput        IQ24 type input.
 280:../Common/IQMath/ti/_IQNtoa.c ****  *
 281:../Common/IQMath/ti/_IQNtoa.c ****  * @return                Returns 0 if there is no error, 1 if the width is too small to hold the i
 282:../Common/IQMath/ti/_IQNtoa.c ****  *                        characters, and 2 if an illegal format was specified.
 283:../Common/IQMath/ti/_IQNtoa.c ****  */
 284:../Common/IQMath/ti/_IQNtoa.c **** int16_t _IQ24toa(char *string, const char *format, int32_t iqNInput)
 285:../Common/IQMath/ti/_IQNtoa.c **** {
 704              		.loc 1 285 1 is_stmt 1 view -0
 705              		.cfi_startproc
 706              		@ args = 0, pretend = 0, frame = 0
 707              		@ frame_needed = 0, uses_anonymous_args = 0
 708              		.loc 1 285 1 is_stmt 0 view .LVU222
 709 0000 08B5     		push	{r3, lr}
 710              	.LCFI8:
 711              		.cfi_def_cfa_offset 8
 712              		.cfi_offset 3, -8
 713              		.cfi_offset 14, -4
 286:../Common/IQMath/ti/_IQNtoa.c ****     return __IQNtoa(string, format, iqNInput, 24);
 714              		.loc 1 286 5 is_stmt 1 view .LVU223
 715              		.loc 1 286 12 is_stmt 0 view .LVU224
 716 0002 1823     		movs	r3, #24
 717 0004 FFF7FEFF 		bl	__IQNtoa
 718              	.LVL87:
 287:../Common/IQMath/ti/_IQNtoa.c **** }
 719              		.loc 1 287 1 view .LVU225
 720 0008 00B2     		sxth	r0, r0
 721 000a 08BD     		pop	{r3, pc}
 722              		.cfi_endproc
 723              	.LFE269:
 725              		.section	.text._IQ23toa,"ax",%progbits
 726              		.align	1
 727              		.global	_IQ23toa
 728              		.syntax unified
 729              		.thumb
 730              		.thumb_func
 732              	_IQ23toa:
ARM GAS  C:\Users\57308\AppData\Local\Temp\ccQy15rd.s 			page 25


 733              	.LVL88:
 734              	.LFB270:
 288:../Common/IQMath/ti/_IQNtoa.c **** /**
 289:../Common/IQMath/ti/_IQNtoa.c ****  * @brief Convert an IQ23 number to a string.
 290:../Common/IQMath/ti/_IQNtoa.c ****  *
 291:../Common/IQMath/ti/_IQNtoa.c ****  * @param string          Pointer to the buffer to store the converted IQ number.
 292:../Common/IQMath/ti/_IQNtoa.c ****  * @param format          The format string specifying how to convert the IQ number.
 293:../Common/IQMath/ti/_IQNtoa.c ****  * @param iqNInput        IQ23 type input.
 294:../Common/IQMath/ti/_IQNtoa.c ****  *
 295:../Common/IQMath/ti/_IQNtoa.c ****  * @return                Returns 0 if there is no error, 1 if the width is too small to hold the i
 296:../Common/IQMath/ti/_IQNtoa.c ****  *                        characters, and 2 if an illegal format was specified.
 297:../Common/IQMath/ti/_IQNtoa.c ****  */
 298:../Common/IQMath/ti/_IQNtoa.c **** int16_t _IQ23toa(char *string, const char *format, int32_t iqNInput)
 299:../Common/IQMath/ti/_IQNtoa.c **** {
 735              		.loc 1 299 1 is_stmt 1 view -0
 736              		.cfi_startproc
 737              		@ args = 0, pretend = 0, frame = 0
 738              		@ frame_needed = 0, uses_anonymous_args = 0
 739              		.loc 1 299 1 is_stmt 0 view .LVU227
 740 0000 08B5     		push	{r3, lr}
 741              	.LCFI9:
 742              		.cfi_def_cfa_offset 8
 743              		.cfi_offset 3, -8
 744              		.cfi_offset 14, -4
 300:../Common/IQMath/ti/_IQNtoa.c ****     return __IQNtoa(string, format, iqNInput, 23);
 745              		.loc 1 300 5 is_stmt 1 view .LVU228
 746              		.loc 1 300 12 is_stmt 0 view .LVU229
 747 0002 1723     		movs	r3, #23
 748 0004 FFF7FEFF 		bl	__IQNtoa
 749              	.LVL89:
 301:../Common/IQMath/ti/_IQNtoa.c **** }
 750              		.loc 1 301 1 view .LVU230
 751 0008 00B2     		sxth	r0, r0
 752 000a 08BD     		pop	{r3, pc}
 753              		.cfi_endproc
 754              	.LFE270:
 756              		.section	.text._IQ22toa,"ax",%progbits
 757              		.align	1
 758              		.global	_IQ22toa
 759              		.syntax unified
 760              		.thumb
 761              		.thumb_func
 763              	_IQ22toa:
 764              	.LVL90:
 765              	.LFB271:
 302:../Common/IQMath/ti/_IQNtoa.c **** /**
 303:../Common/IQMath/ti/_IQNtoa.c ****  * @brief Convert an IQ22 number to a string.
 304:../Common/IQMath/ti/_IQNtoa.c ****  *
 305:../Common/IQMath/ti/_IQNtoa.c ****  * @param string          Pointer to the buffer to store the converted IQ number.
 306:../Common/IQMath/ti/_IQNtoa.c ****  * @param format          The format string specifying how to convert the IQ number.
 307:../Common/IQMath/ti/_IQNtoa.c ****  * @param iqNInput        IQ22 type input.
 308:../Common/IQMath/ti/_IQNtoa.c ****  *
 309:../Common/IQMath/ti/_IQNtoa.c ****  * @return                Returns 0 if there is no error, 1 if the width is too small to hold the i
 310:../Common/IQMath/ti/_IQNtoa.c ****  *                        characters, and 2 if an illegal format was specified.
 311:../Common/IQMath/ti/_IQNtoa.c ****  */
 312:../Common/IQMath/ti/_IQNtoa.c **** int16_t _IQ22toa(char *string, const char *format, int32_t iqNInput)
 313:../Common/IQMath/ti/_IQNtoa.c **** {
ARM GAS  C:\Users\57308\AppData\Local\Temp\ccQy15rd.s 			page 26


 766              		.loc 1 313 1 is_stmt 1 view -0
 767              		.cfi_startproc
 768              		@ args = 0, pretend = 0, frame = 0
 769              		@ frame_needed = 0, uses_anonymous_args = 0
 770              		.loc 1 313 1 is_stmt 0 view .LVU232
 771 0000 08B5     		push	{r3, lr}
 772              	.LCFI10:
 773              		.cfi_def_cfa_offset 8
 774              		.cfi_offset 3, -8
 775              		.cfi_offset 14, -4
 314:../Common/IQMath/ti/_IQNtoa.c ****     return __IQNtoa(string, format, iqNInput, 22);
 776              		.loc 1 314 5 is_stmt 1 view .LVU233
 777              		.loc 1 314 12 is_stmt 0 view .LVU234
 778 0002 1623     		movs	r3, #22
 779 0004 FFF7FEFF 		bl	__IQNtoa
 780              	.LVL91:
 315:../Common/IQMath/ti/_IQNtoa.c **** }
 781              		.loc 1 315 1 view .LVU235
 782 0008 00B2     		sxth	r0, r0
 783 000a 08BD     		pop	{r3, pc}
 784              		.cfi_endproc
 785              	.LFE271:
 787              		.section	.text._IQ21toa,"ax",%progbits
 788              		.align	1
 789              		.global	_IQ21toa
 790              		.syntax unified
 791              		.thumb
 792              		.thumb_func
 794              	_IQ21toa:
 795              	.LVL92:
 796              	.LFB272:
 316:../Common/IQMath/ti/_IQNtoa.c **** /**
 317:../Common/IQMath/ti/_IQNtoa.c ****  * @brief Convert an IQ21 number to a string.
 318:../Common/IQMath/ti/_IQNtoa.c ****  *
 319:../Common/IQMath/ti/_IQNtoa.c ****  * @param string          Pointer to the buffer to store the converted IQ number.
 320:../Common/IQMath/ti/_IQNtoa.c ****  * @param format          The format string specifying how to convert the IQ number.
 321:../Common/IQMath/ti/_IQNtoa.c ****  * @param iqNInput        IQ21 type input.
 322:../Common/IQMath/ti/_IQNtoa.c ****  *
 323:../Common/IQMath/ti/_IQNtoa.c ****  * @return                Returns 0 if there is no error, 1 if the width is too small to hold the i
 324:../Common/IQMath/ti/_IQNtoa.c ****  *                        characters, and 2 if an illegal format was specified.
 325:../Common/IQMath/ti/_IQNtoa.c ****  */
 326:../Common/IQMath/ti/_IQNtoa.c **** int16_t _IQ21toa(char *string, const char *format, int32_t iqNInput)
 327:../Common/IQMath/ti/_IQNtoa.c **** {
 797              		.loc 1 327 1 is_stmt 1 view -0
 798              		.cfi_startproc
 799              		@ args = 0, pretend = 0, frame = 0
 800              		@ frame_needed = 0, uses_anonymous_args = 0
 801              		.loc 1 327 1 is_stmt 0 view .LVU237
 802 0000 08B5     		push	{r3, lr}
 803              	.LCFI11:
 804              		.cfi_def_cfa_offset 8
 805              		.cfi_offset 3, -8
 806              		.cfi_offset 14, -4
 328:../Common/IQMath/ti/_IQNtoa.c ****     return __IQNtoa(string, format, iqNInput, 21);
 807              		.loc 1 328 5 is_stmt 1 view .LVU238
 808              		.loc 1 328 12 is_stmt 0 view .LVU239
 809 0002 1523     		movs	r3, #21
ARM GAS  C:\Users\57308\AppData\Local\Temp\ccQy15rd.s 			page 27


 810 0004 FFF7FEFF 		bl	__IQNtoa
 811              	.LVL93:
 329:../Common/IQMath/ti/_IQNtoa.c **** }
 812              		.loc 1 329 1 view .LVU240
 813 0008 00B2     		sxth	r0, r0
 814 000a 08BD     		pop	{r3, pc}
 815              		.cfi_endproc
 816              	.LFE272:
 818              		.section	.text._IQ20toa,"ax",%progbits
 819              		.align	1
 820              		.global	_IQ20toa
 821              		.syntax unified
 822              		.thumb
 823              		.thumb_func
 825              	_IQ20toa:
 826              	.LVL94:
 827              	.LFB273:
 330:../Common/IQMath/ti/_IQNtoa.c **** /**
 331:../Common/IQMath/ti/_IQNtoa.c ****  * @brief Convert an IQ20 number to a string.
 332:../Common/IQMath/ti/_IQNtoa.c ****  *
 333:../Common/IQMath/ti/_IQNtoa.c ****  * @param string          Pointer to the buffer to store the converted IQ number.
 334:../Common/IQMath/ti/_IQNtoa.c ****  * @param format          The format string specifying how to convert the IQ number.
 335:../Common/IQMath/ti/_IQNtoa.c ****  * @param iqNInput        IQ20 type input.
 336:../Common/IQMath/ti/_IQNtoa.c ****  *
 337:../Common/IQMath/ti/_IQNtoa.c ****  * @return                Returns 0 if there is no error, 1 if the width is too small to hold the i
 338:../Common/IQMath/ti/_IQNtoa.c ****  *                        characters, and 2 if an illegal format was specified.
 339:../Common/IQMath/ti/_IQNtoa.c ****  */
 340:../Common/IQMath/ti/_IQNtoa.c **** int16_t _IQ20toa(char *string, const char *format, int32_t iqNInput)
 341:../Common/IQMath/ti/_IQNtoa.c **** {
 828              		.loc 1 341 1 is_stmt 1 view -0
 829              		.cfi_startproc
 830              		@ args = 0, pretend = 0, frame = 0
 831              		@ frame_needed = 0, uses_anonymous_args = 0
 832              		.loc 1 341 1 is_stmt 0 view .LVU242
 833 0000 08B5     		push	{r3, lr}
 834              	.LCFI12:
 835              		.cfi_def_cfa_offset 8
 836              		.cfi_offset 3, -8
 837              		.cfi_offset 14, -4
 342:../Common/IQMath/ti/_IQNtoa.c ****     return __IQNtoa(string, format, iqNInput, 20);
 838              		.loc 1 342 5 is_stmt 1 view .LVU243
 839              		.loc 1 342 12 is_stmt 0 view .LVU244
 840 0002 1423     		movs	r3, #20
 841 0004 FFF7FEFF 		bl	__IQNtoa
 842              	.LVL95:
 343:../Common/IQMath/ti/_IQNtoa.c **** }
 843              		.loc 1 343 1 view .LVU245
 844 0008 00B2     		sxth	r0, r0
 845 000a 08BD     		pop	{r3, pc}
 846              		.cfi_endproc
 847              	.LFE273:
 849              		.section	.text._IQ19toa,"ax",%progbits
 850              		.align	1
 851              		.global	_IQ19toa
 852              		.syntax unified
 853              		.thumb
 854              		.thumb_func
ARM GAS  C:\Users\57308\AppData\Local\Temp\ccQy15rd.s 			page 28


 856              	_IQ19toa:
 857              	.LVL96:
 858              	.LFB274:
 344:../Common/IQMath/ti/_IQNtoa.c **** /**
 345:../Common/IQMath/ti/_IQNtoa.c ****  * @brief Convert an IQ19 number to a string.
 346:../Common/IQMath/ti/_IQNtoa.c ****  *
 347:../Common/IQMath/ti/_IQNtoa.c ****  * @param string          Pointer to the buffer to store the converted IQ number.
 348:../Common/IQMath/ti/_IQNtoa.c ****  * @param format          The format string specifying how to convert the IQ number.
 349:../Common/IQMath/ti/_IQNtoa.c ****  * @param iqNInput        IQ19 type input.
 350:../Common/IQMath/ti/_IQNtoa.c ****  *
 351:../Common/IQMath/ti/_IQNtoa.c ****  * @return                Returns 0 if there is no error, 1 if the width is too small to hold the i
 352:../Common/IQMath/ti/_IQNtoa.c ****  *                        characters, and 2 if an illegal format was specified.
 353:../Common/IQMath/ti/_IQNtoa.c ****  */
 354:../Common/IQMath/ti/_IQNtoa.c **** int16_t _IQ19toa(char *string, const char *format, int32_t iqNInput)
 355:../Common/IQMath/ti/_IQNtoa.c **** {
 859              		.loc 1 355 1 is_stmt 1 view -0
 860              		.cfi_startproc
 861              		@ args = 0, pretend = 0, frame = 0
 862              		@ frame_needed = 0, uses_anonymous_args = 0
 863              		.loc 1 355 1 is_stmt 0 view .LVU247
 864 0000 08B5     		push	{r3, lr}
 865              	.LCFI13:
 866              		.cfi_def_cfa_offset 8
 867              		.cfi_offset 3, -8
 868              		.cfi_offset 14, -4
 356:../Common/IQMath/ti/_IQNtoa.c ****     return __IQNtoa(string, format, iqNInput, 19);
 869              		.loc 1 356 5 is_stmt 1 view .LVU248
 870              		.loc 1 356 12 is_stmt 0 view .LVU249
 871 0002 1323     		movs	r3, #19
 872 0004 FFF7FEFF 		bl	__IQNtoa
 873              	.LVL97:
 357:../Common/IQMath/ti/_IQNtoa.c **** }
 874              		.loc 1 357 1 view .LVU250
 875 0008 00B2     		sxth	r0, r0
 876 000a 08BD     		pop	{r3, pc}
 877              		.cfi_endproc
 878              	.LFE274:
 880              		.section	.text._IQ18toa,"ax",%progbits
 881              		.align	1
 882              		.global	_IQ18toa
 883              		.syntax unified
 884              		.thumb
 885              		.thumb_func
 887              	_IQ18toa:
 888              	.LVL98:
 889              	.LFB275:
 358:../Common/IQMath/ti/_IQNtoa.c **** /**
 359:../Common/IQMath/ti/_IQNtoa.c ****  * @brief Convert an IQ18 number to a string.
 360:../Common/IQMath/ti/_IQNtoa.c ****  *
 361:../Common/IQMath/ti/_IQNtoa.c ****  * @param string          Pointer to the buffer to store the converted IQ number.
 362:../Common/IQMath/ti/_IQNtoa.c ****  * @param format          The format string specifying how to convert the IQ number.
 363:../Common/IQMath/ti/_IQNtoa.c ****  * @param iqNInput        IQ18 type input.
 364:../Common/IQMath/ti/_IQNtoa.c ****  *
 365:../Common/IQMath/ti/_IQNtoa.c ****  * @return                Returns 0 if there is no error, 1 if the width is too small to hold the i
 366:../Common/IQMath/ti/_IQNtoa.c ****  *                        characters, and 2 if an illegal format was specified.
 367:../Common/IQMath/ti/_IQNtoa.c ****  */
 368:../Common/IQMath/ti/_IQNtoa.c **** int16_t _IQ18toa(char *string, const char *format, int32_t iqNInput)
ARM GAS  C:\Users\57308\AppData\Local\Temp\ccQy15rd.s 			page 29


 369:../Common/IQMath/ti/_IQNtoa.c **** {
 890              		.loc 1 369 1 is_stmt 1 view -0
 891              		.cfi_startproc
 892              		@ args = 0, pretend = 0, frame = 0
 893              		@ frame_needed = 0, uses_anonymous_args = 0
 894              		.loc 1 369 1 is_stmt 0 view .LVU252
 895 0000 08B5     		push	{r3, lr}
 896              	.LCFI14:
 897              		.cfi_def_cfa_offset 8
 898              		.cfi_offset 3, -8
 899              		.cfi_offset 14, -4
 370:../Common/IQMath/ti/_IQNtoa.c ****     return __IQNtoa(string, format, iqNInput, 18);
 900              		.loc 1 370 5 is_stmt 1 view .LVU253
 901              		.loc 1 370 12 is_stmt 0 view .LVU254
 902 0002 1223     		movs	r3, #18
 903 0004 FFF7FEFF 		bl	__IQNtoa
 904              	.LVL99:
 371:../Common/IQMath/ti/_IQNtoa.c **** }
 905              		.loc 1 371 1 view .LVU255
 906 0008 00B2     		sxth	r0, r0
 907 000a 08BD     		pop	{r3, pc}
 908              		.cfi_endproc
 909              	.LFE275:
 911              		.section	.text._IQ17toa,"ax",%progbits
 912              		.align	1
 913              		.global	_IQ17toa
 914              		.syntax unified
 915              		.thumb
 916              		.thumb_func
 918              	_IQ17toa:
 919              	.LVL100:
 920              	.LFB276:
 372:../Common/IQMath/ti/_IQNtoa.c **** /**
 373:../Common/IQMath/ti/_IQNtoa.c ****  * @brief Convert an IQ17 number to a string.
 374:../Common/IQMath/ti/_IQNtoa.c ****  *
 375:../Common/IQMath/ti/_IQNtoa.c ****  * @param string          Pointer to the buffer to store the converted IQ number.
 376:../Common/IQMath/ti/_IQNtoa.c ****  * @param format          The format string specifying how to convert the IQ number.
 377:../Common/IQMath/ti/_IQNtoa.c ****  * @param iqNInput        IQ17 type input.
 378:../Common/IQMath/ti/_IQNtoa.c ****  *
 379:../Common/IQMath/ti/_IQNtoa.c ****  * @return                Returns 0 if there is no error, 1 if the width is too small to hold the i
 380:../Common/IQMath/ti/_IQNtoa.c ****  *                        characters, and 2 if an illegal format was specified.
 381:../Common/IQMath/ti/_IQNtoa.c ****  */
 382:../Common/IQMath/ti/_IQNtoa.c **** int16_t _IQ17toa(char *string, const char *format, int32_t iqNInput)
 383:../Common/IQMath/ti/_IQNtoa.c **** {
 921              		.loc 1 383 1 is_stmt 1 view -0
 922              		.cfi_startproc
 923              		@ args = 0, pretend = 0, frame = 0
 924              		@ frame_needed = 0, uses_anonymous_args = 0
 925              		.loc 1 383 1 is_stmt 0 view .LVU257
 926 0000 08B5     		push	{r3, lr}
 927              	.LCFI15:
 928              		.cfi_def_cfa_offset 8
 929              		.cfi_offset 3, -8
 930              		.cfi_offset 14, -4
 384:../Common/IQMath/ti/_IQNtoa.c ****     return __IQNtoa(string, format, iqNInput, 17);
 931              		.loc 1 384 5 is_stmt 1 view .LVU258
 932              		.loc 1 384 12 is_stmt 0 view .LVU259
ARM GAS  C:\Users\57308\AppData\Local\Temp\ccQy15rd.s 			page 30


 933 0002 1123     		movs	r3, #17
 934 0004 FFF7FEFF 		bl	__IQNtoa
 935              	.LVL101:
 385:../Common/IQMath/ti/_IQNtoa.c **** }
 936              		.loc 1 385 1 view .LVU260
 937 0008 00B2     		sxth	r0, r0
 938 000a 08BD     		pop	{r3, pc}
 939              		.cfi_endproc
 940              	.LFE276:
 942              		.section	.text._IQ16toa,"ax",%progbits
 943              		.align	1
 944              		.global	_IQ16toa
 945              		.syntax unified
 946              		.thumb
 947              		.thumb_func
 949              	_IQ16toa:
 950              	.LVL102:
 951              	.LFB277:
 386:../Common/IQMath/ti/_IQNtoa.c **** /**
 387:../Common/IQMath/ti/_IQNtoa.c ****  * @brief Convert an IQ16 number to a string.
 388:../Common/IQMath/ti/_IQNtoa.c ****  *
 389:../Common/IQMath/ti/_IQNtoa.c ****  * @param string          Pointer to the buffer to store the converted IQ number.
 390:../Common/IQMath/ti/_IQNtoa.c ****  * @param format          The format string specifying how to convert the IQ number.
 391:../Common/IQMath/ti/_IQNtoa.c ****  * @param iqNInput        IQ16 type input.
 392:../Common/IQMath/ti/_IQNtoa.c ****  *
 393:../Common/IQMath/ti/_IQNtoa.c ****  * @return                Returns 0 if there is no error, 1 if the width is too small to hold the i
 394:../Common/IQMath/ti/_IQNtoa.c ****  *                        characters, and 2 if an illegal format was specified.
 395:../Common/IQMath/ti/_IQNtoa.c ****  */
 396:../Common/IQMath/ti/_IQNtoa.c **** int16_t _IQ16toa(char *string, const char *format, int32_t iqNInput)
 397:../Common/IQMath/ti/_IQNtoa.c **** {
 952              		.loc 1 397 1 is_stmt 1 view -0
 953              		.cfi_startproc
 954              		@ args = 0, pretend = 0, frame = 0
 955              		@ frame_needed = 0, uses_anonymous_args = 0
 956              		.loc 1 397 1 is_stmt 0 view .LVU262
 957 0000 08B5     		push	{r3, lr}
 958              	.LCFI16:
 959              		.cfi_def_cfa_offset 8
 960              		.cfi_offset 3, -8
 961              		.cfi_offset 14, -4
 398:../Common/IQMath/ti/_IQNtoa.c ****     return __IQNtoa(string, format, iqNInput, 16);
 962              		.loc 1 398 5 is_stmt 1 view .LVU263
 963              		.loc 1 398 12 is_stmt 0 view .LVU264
 964 0002 1023     		movs	r3, #16
 965 0004 FFF7FEFF 		bl	__IQNtoa
 966              	.LVL103:
 399:../Common/IQMath/ti/_IQNtoa.c **** }
 967              		.loc 1 399 1 view .LVU265
 968 0008 00B2     		sxth	r0, r0
 969 000a 08BD     		pop	{r3, pc}
 970              		.cfi_endproc
 971              	.LFE277:
 973              		.section	.text._IQ15toa,"ax",%progbits
 974              		.align	1
 975              		.global	_IQ15toa
 976              		.syntax unified
 977              		.thumb
ARM GAS  C:\Users\57308\AppData\Local\Temp\ccQy15rd.s 			page 31


 978              		.thumb_func
 980              	_IQ15toa:
 981              	.LVL104:
 982              	.LFB278:
 400:../Common/IQMath/ti/_IQNtoa.c **** /**
 401:../Common/IQMath/ti/_IQNtoa.c ****  * @brief Convert an IQ15 number to a string.
 402:../Common/IQMath/ti/_IQNtoa.c ****  *
 403:../Common/IQMath/ti/_IQNtoa.c ****  * @param string          Pointer to the buffer to store the converted IQ number.
 404:../Common/IQMath/ti/_IQNtoa.c ****  * @param format          The format string specifying how to convert the IQ number.
 405:../Common/IQMath/ti/_IQNtoa.c ****  * @param iqNInput        IQ15 type input.
 406:../Common/IQMath/ti/_IQNtoa.c ****  *
 407:../Common/IQMath/ti/_IQNtoa.c ****  * @return                Returns 0 if there is no error, 1 if the width is too small to hold the i
 408:../Common/IQMath/ti/_IQNtoa.c ****  *                        characters, and 2 if an illegal format was specified.
 409:../Common/IQMath/ti/_IQNtoa.c ****  */
 410:../Common/IQMath/ti/_IQNtoa.c **** int16_t _IQ15toa(char *string, const char *format, int32_t iqNInput)
 411:../Common/IQMath/ti/_IQNtoa.c **** {
 983              		.loc 1 411 1 is_stmt 1 view -0
 984              		.cfi_startproc
 985              		@ args = 0, pretend = 0, frame = 0
 986              		@ frame_needed = 0, uses_anonymous_args = 0
 987              		.loc 1 411 1 is_stmt 0 view .LVU267
 988 0000 08B5     		push	{r3, lr}
 989              	.LCFI17:
 990              		.cfi_def_cfa_offset 8
 991              		.cfi_offset 3, -8
 992              		.cfi_offset 14, -4
 412:../Common/IQMath/ti/_IQNtoa.c ****     return __IQNtoa(string, format, iqNInput, 15);
 993              		.loc 1 412 5 is_stmt 1 view .LVU268
 994              		.loc 1 412 12 is_stmt 0 view .LVU269
 995 0002 0F23     		movs	r3, #15
 996 0004 FFF7FEFF 		bl	__IQNtoa
 997              	.LVL105:
 413:../Common/IQMath/ti/_IQNtoa.c **** }
 998              		.loc 1 413 1 view .LVU270
 999 0008 00B2     		sxth	r0, r0
 1000 000a 08BD     		pop	{r3, pc}
 1001              		.cfi_endproc
 1002              	.LFE278:
 1004              		.section	.text._IQ14toa,"ax",%progbits
 1005              		.align	1
 1006              		.global	_IQ14toa
 1007              		.syntax unified
 1008              		.thumb
 1009              		.thumb_func
 1011              	_IQ14toa:
 1012              	.LVL106:
 1013              	.LFB279:
 414:../Common/IQMath/ti/_IQNtoa.c **** /**
 415:../Common/IQMath/ti/_IQNtoa.c ****  * @brief Convert an IQ14 number to a string.
 416:../Common/IQMath/ti/_IQNtoa.c ****  *
 417:../Common/IQMath/ti/_IQNtoa.c ****  * @param string          Pointer to the buffer to store the converted IQ number.
 418:../Common/IQMath/ti/_IQNtoa.c ****  * @param format          The format string specifying how to convert the IQ number.
 419:../Common/IQMath/ti/_IQNtoa.c ****  * @param iqNInput        IQ14 type input.
 420:../Common/IQMath/ti/_IQNtoa.c ****  *
 421:../Common/IQMath/ti/_IQNtoa.c ****  * @return                Returns 0 if there is no error, 1 if the width is too small to hold the i
 422:../Common/IQMath/ti/_IQNtoa.c ****  *                        characters, and 2 if an illegal format was specified.
 423:../Common/IQMath/ti/_IQNtoa.c ****  */
ARM GAS  C:\Users\57308\AppData\Local\Temp\ccQy15rd.s 			page 32


 424:../Common/IQMath/ti/_IQNtoa.c **** int16_t _IQ14toa(char *string, const char *format, int32_t iqNInput)
 425:../Common/IQMath/ti/_IQNtoa.c **** {
 1014              		.loc 1 425 1 is_stmt 1 view -0
 1015              		.cfi_startproc
 1016              		@ args = 0, pretend = 0, frame = 0
 1017              		@ frame_needed = 0, uses_anonymous_args = 0
 1018              		.loc 1 425 1 is_stmt 0 view .LVU272
 1019 0000 08B5     		push	{r3, lr}
 1020              	.LCFI18:
 1021              		.cfi_def_cfa_offset 8
 1022              		.cfi_offset 3, -8
 1023              		.cfi_offset 14, -4
 426:../Common/IQMath/ti/_IQNtoa.c ****     return __IQNtoa(string, format, iqNInput, 14);
 1024              		.loc 1 426 5 is_stmt 1 view .LVU273
 1025              		.loc 1 426 12 is_stmt 0 view .LVU274
 1026 0002 0E23     		movs	r3, #14
 1027 0004 FFF7FEFF 		bl	__IQNtoa
 1028              	.LVL107:
 427:../Common/IQMath/ti/_IQNtoa.c **** }
 1029              		.loc 1 427 1 view .LVU275
 1030 0008 00B2     		sxth	r0, r0
 1031 000a 08BD     		pop	{r3, pc}
 1032              		.cfi_endproc
 1033              	.LFE279:
 1035              		.section	.text._IQ13toa,"ax",%progbits
 1036              		.align	1
 1037              		.global	_IQ13toa
 1038              		.syntax unified
 1039              		.thumb
 1040              		.thumb_func
 1042              	_IQ13toa:
 1043              	.LVL108:
 1044              	.LFB280:
 428:../Common/IQMath/ti/_IQNtoa.c **** /**
 429:../Common/IQMath/ti/_IQNtoa.c ****  * @brief Convert an IQ13 number to a string.
 430:../Common/IQMath/ti/_IQNtoa.c ****  *
 431:../Common/IQMath/ti/_IQNtoa.c ****  * @param string          Pointer to the buffer to store the converted IQ number.
 432:../Common/IQMath/ti/_IQNtoa.c ****  * @param format          The format string specifying how to convert the IQ number.
 433:../Common/IQMath/ti/_IQNtoa.c ****  * @param iqNInput        IQ13 type input.
 434:../Common/IQMath/ti/_IQNtoa.c ****  *
 435:../Common/IQMath/ti/_IQNtoa.c ****  * @return                Returns 0 if there is no error, 1 if the width is too small to hold the i
 436:../Common/IQMath/ti/_IQNtoa.c ****  *                        characters, and 2 if an illegal format was specified.
 437:../Common/IQMath/ti/_IQNtoa.c ****  */
 438:../Common/IQMath/ti/_IQNtoa.c **** int16_t _IQ13toa(char *string, const char *format, int32_t iqNInput)
 439:../Common/IQMath/ti/_IQNtoa.c **** {
 1045              		.loc 1 439 1 is_stmt 1 view -0
 1046              		.cfi_startproc
 1047              		@ args = 0, pretend = 0, frame = 0
 1048              		@ frame_needed = 0, uses_anonymous_args = 0
 1049              		.loc 1 439 1 is_stmt 0 view .LVU277
 1050 0000 08B5     		push	{r3, lr}
 1051              	.LCFI19:
 1052              		.cfi_def_cfa_offset 8
 1053              		.cfi_offset 3, -8
 1054              		.cfi_offset 14, -4
 440:../Common/IQMath/ti/_IQNtoa.c ****     return __IQNtoa(string, format, iqNInput, 13);
 1055              		.loc 1 440 5 is_stmt 1 view .LVU278
ARM GAS  C:\Users\57308\AppData\Local\Temp\ccQy15rd.s 			page 33


 1056              		.loc 1 440 12 is_stmt 0 view .LVU279
 1057 0002 0D23     		movs	r3, #13
 1058 0004 FFF7FEFF 		bl	__IQNtoa
 1059              	.LVL109:
 441:../Common/IQMath/ti/_IQNtoa.c **** }
 1060              		.loc 1 441 1 view .LVU280
 1061 0008 00B2     		sxth	r0, r0
 1062 000a 08BD     		pop	{r3, pc}
 1063              		.cfi_endproc
 1064              	.LFE280:
 1066              		.section	.text._IQ12toa,"ax",%progbits
 1067              		.align	1
 1068              		.global	_IQ12toa
 1069              		.syntax unified
 1070              		.thumb
 1071              		.thumb_func
 1073              	_IQ12toa:
 1074              	.LVL110:
 1075              	.LFB281:
 442:../Common/IQMath/ti/_IQNtoa.c **** /**
 443:../Common/IQMath/ti/_IQNtoa.c ****  * @brief Convert an IQ12 number to a string.
 444:../Common/IQMath/ti/_IQNtoa.c ****  *
 445:../Common/IQMath/ti/_IQNtoa.c ****  * @param string          Pointer to the buffer to store the converted IQ number.
 446:../Common/IQMath/ti/_IQNtoa.c ****  * @param format          The format string specifying how to convert the IQ number.
 447:../Common/IQMath/ti/_IQNtoa.c ****  * @param iqNInput        IQ12 type input.
 448:../Common/IQMath/ti/_IQNtoa.c ****  *
 449:../Common/IQMath/ti/_IQNtoa.c ****  * @return                Returns 0 if there is no error, 1 if the width is too small to hold the i
 450:../Common/IQMath/ti/_IQNtoa.c ****  *                        characters, and 2 if an illegal format was specified.
 451:../Common/IQMath/ti/_IQNtoa.c ****  */
 452:../Common/IQMath/ti/_IQNtoa.c **** int16_t _IQ12toa(char *string, const char *format, int32_t iqNInput)
 453:../Common/IQMath/ti/_IQNtoa.c **** {
 1076              		.loc 1 453 1 is_stmt 1 view -0
 1077              		.cfi_startproc
 1078              		@ args = 0, pretend = 0, frame = 0
 1079              		@ frame_needed = 0, uses_anonymous_args = 0
 1080              		.loc 1 453 1 is_stmt 0 view .LVU282
 1081 0000 08B5     		push	{r3, lr}
 1082              	.LCFI20:
 1083              		.cfi_def_cfa_offset 8
 1084              		.cfi_offset 3, -8
 1085              		.cfi_offset 14, -4
 454:../Common/IQMath/ti/_IQNtoa.c ****     return __IQNtoa(string, format, iqNInput, 12);
 1086              		.loc 1 454 5 is_stmt 1 view .LVU283
 1087              		.loc 1 454 12 is_stmt 0 view .LVU284
 1088 0002 0C23     		movs	r3, #12
 1089 0004 FFF7FEFF 		bl	__IQNtoa
 1090              	.LVL111:
 455:../Common/IQMath/ti/_IQNtoa.c **** }
 1091              		.loc 1 455 1 view .LVU285
 1092 0008 00B2     		sxth	r0, r0
 1093 000a 08BD     		pop	{r3, pc}
 1094              		.cfi_endproc
 1095              	.LFE281:
 1097              		.section	.text._IQ11toa,"ax",%progbits
 1098              		.align	1
 1099              		.global	_IQ11toa
 1100              		.syntax unified
ARM GAS  C:\Users\57308\AppData\Local\Temp\ccQy15rd.s 			page 34


 1101              		.thumb
 1102              		.thumb_func
 1104              	_IQ11toa:
 1105              	.LVL112:
 1106              	.LFB282:
 456:../Common/IQMath/ti/_IQNtoa.c **** /**
 457:../Common/IQMath/ti/_IQNtoa.c ****  * @brief Convert an IQ11 number to a string.
 458:../Common/IQMath/ti/_IQNtoa.c ****  *
 459:../Common/IQMath/ti/_IQNtoa.c ****  * @param string          Pointer to the buffer to store the converted IQ number.
 460:../Common/IQMath/ti/_IQNtoa.c ****  * @param format          The format string specifying how to convert the IQ number.
 461:../Common/IQMath/ti/_IQNtoa.c ****  * @param iqNInput        IQ11 type input.
 462:../Common/IQMath/ti/_IQNtoa.c ****  *
 463:../Common/IQMath/ti/_IQNtoa.c ****  * @return                Returns 0 if there is no error, 1 if the width is too small to hold the i
 464:../Common/IQMath/ti/_IQNtoa.c ****  *                        characters, and 2 if an illegal format was specified.
 465:../Common/IQMath/ti/_IQNtoa.c ****  */
 466:../Common/IQMath/ti/_IQNtoa.c **** int16_t _IQ11toa(char *string, const char *format, int32_t iqNInput)
 467:../Common/IQMath/ti/_IQNtoa.c **** {
 1107              		.loc 1 467 1 is_stmt 1 view -0
 1108              		.cfi_startproc
 1109              		@ args = 0, pretend = 0, frame = 0
 1110              		@ frame_needed = 0, uses_anonymous_args = 0
 1111              		.loc 1 467 1 is_stmt 0 view .LVU287
 1112 0000 08B5     		push	{r3, lr}
 1113              	.LCFI21:
 1114              		.cfi_def_cfa_offset 8
 1115              		.cfi_offset 3, -8
 1116              		.cfi_offset 14, -4
 468:../Common/IQMath/ti/_IQNtoa.c ****     return __IQNtoa(string, format, iqNInput, 11);
 1117              		.loc 1 468 5 is_stmt 1 view .LVU288
 1118              		.loc 1 468 12 is_stmt 0 view .LVU289
 1119 0002 0B23     		movs	r3, #11
 1120 0004 FFF7FEFF 		bl	__IQNtoa
 1121              	.LVL113:
 469:../Common/IQMath/ti/_IQNtoa.c **** }
 1122              		.loc 1 469 1 view .LVU290
 1123 0008 00B2     		sxth	r0, r0
 1124 000a 08BD     		pop	{r3, pc}
 1125              		.cfi_endproc
 1126              	.LFE282:
 1128              		.section	.text._IQ10toa,"ax",%progbits
 1129              		.align	1
 1130              		.global	_IQ10toa
 1131              		.syntax unified
 1132              		.thumb
 1133              		.thumb_func
 1135              	_IQ10toa:
 1136              	.LVL114:
 1137              	.LFB283:
 470:../Common/IQMath/ti/_IQNtoa.c **** /**
 471:../Common/IQMath/ti/_IQNtoa.c ****  * @brief Convert an IQ10 number to a string.
 472:../Common/IQMath/ti/_IQNtoa.c ****  *
 473:../Common/IQMath/ti/_IQNtoa.c ****  * @param string          Pointer to the buffer to store the converted IQ number.
 474:../Common/IQMath/ti/_IQNtoa.c ****  * @param format          The format string specifying how to convert the IQ number.
 475:../Common/IQMath/ti/_IQNtoa.c ****  * @param iqNInput        IQ10 type input.
 476:../Common/IQMath/ti/_IQNtoa.c ****  *
 477:../Common/IQMath/ti/_IQNtoa.c ****  * @return                Returns 0 if there is no error, 1 if the width is too small to hold the i
 478:../Common/IQMath/ti/_IQNtoa.c ****  *                        characters, and 2 if an illegal format was specified.
ARM GAS  C:\Users\57308\AppData\Local\Temp\ccQy15rd.s 			page 35


 479:../Common/IQMath/ti/_IQNtoa.c ****  */
 480:../Common/IQMath/ti/_IQNtoa.c **** int16_t _IQ10toa(char *string, const char *format, int32_t iqNInput)
 481:../Common/IQMath/ti/_IQNtoa.c **** {
 1138              		.loc 1 481 1 is_stmt 1 view -0
 1139              		.cfi_startproc
 1140              		@ args = 0, pretend = 0, frame = 0
 1141              		@ frame_needed = 0, uses_anonymous_args = 0
 1142              		.loc 1 481 1 is_stmt 0 view .LVU292
 1143 0000 08B5     		push	{r3, lr}
 1144              	.LCFI22:
 1145              		.cfi_def_cfa_offset 8
 1146              		.cfi_offset 3, -8
 1147              		.cfi_offset 14, -4
 482:../Common/IQMath/ti/_IQNtoa.c ****     return __IQNtoa(string, format, iqNInput, 10);
 1148              		.loc 1 482 5 is_stmt 1 view .LVU293
 1149              		.loc 1 482 12 is_stmt 0 view .LVU294
 1150 0002 0A23     		movs	r3, #10
 1151 0004 FFF7FEFF 		bl	__IQNtoa
 1152              	.LVL115:
 483:../Common/IQMath/ti/_IQNtoa.c **** }
 1153              		.loc 1 483 1 view .LVU295
 1154 0008 00B2     		sxth	r0, r0
 1155 000a 08BD     		pop	{r3, pc}
 1156              		.cfi_endproc
 1157              	.LFE283:
 1159              		.section	.text._IQ9toa,"ax",%progbits
 1160              		.align	1
 1161              		.global	_IQ9toa
 1162              		.syntax unified
 1163              		.thumb
 1164              		.thumb_func
 1166              	_IQ9toa:
 1167              	.LVL116:
 1168              	.LFB284:
 484:../Common/IQMath/ti/_IQNtoa.c **** /**
 485:../Common/IQMath/ti/_IQNtoa.c ****  * @brief Convert an IQ9 number to a string.
 486:../Common/IQMath/ti/_IQNtoa.c ****  *
 487:../Common/IQMath/ti/_IQNtoa.c ****  * @param string          Pointer to the buffer to store the converted IQ number.
 488:../Common/IQMath/ti/_IQNtoa.c ****  * @param format          The format string specifying how to convert the IQ number.
 489:../Common/IQMath/ti/_IQNtoa.c ****  * @param iqNInput        IQ9 type input.
 490:../Common/IQMath/ti/_IQNtoa.c ****  *
 491:../Common/IQMath/ti/_IQNtoa.c ****  * @return                Returns 0 if there is no error, 1 if the width is too small to hold the i
 492:../Common/IQMath/ti/_IQNtoa.c ****  *                        characters, and 2 if an illegal format was specified.
 493:../Common/IQMath/ti/_IQNtoa.c ****  */
 494:../Common/IQMath/ti/_IQNtoa.c **** int16_t _IQ9toa(char *string, const char *format, int32_t iqNInput)
 495:../Common/IQMath/ti/_IQNtoa.c **** {
 1169              		.loc 1 495 1 is_stmt 1 view -0
 1170              		.cfi_startproc
 1171              		@ args = 0, pretend = 0, frame = 0
 1172              		@ frame_needed = 0, uses_anonymous_args = 0
 1173              		.loc 1 495 1 is_stmt 0 view .LVU297
 1174 0000 08B5     		push	{r3, lr}
 1175              	.LCFI23:
 1176              		.cfi_def_cfa_offset 8
 1177              		.cfi_offset 3, -8
 1178              		.cfi_offset 14, -4
 496:../Common/IQMath/ti/_IQNtoa.c ****     return __IQNtoa(string, format, iqNInput, 9);
ARM GAS  C:\Users\57308\AppData\Local\Temp\ccQy15rd.s 			page 36


 1179              		.loc 1 496 5 is_stmt 1 view .LVU298
 1180              		.loc 1 496 12 is_stmt 0 view .LVU299
 1181 0002 0923     		movs	r3, #9
 1182 0004 FFF7FEFF 		bl	__IQNtoa
 1183              	.LVL117:
 497:../Common/IQMath/ti/_IQNtoa.c **** }
 1184              		.loc 1 497 1 view .LVU300
 1185 0008 00B2     		sxth	r0, r0
 1186 000a 08BD     		pop	{r3, pc}
 1187              		.cfi_endproc
 1188              	.LFE284:
 1190              		.section	.text._IQ8toa,"ax",%progbits
 1191              		.align	1
 1192              		.global	_IQ8toa
 1193              		.syntax unified
 1194              		.thumb
 1195              		.thumb_func
 1197              	_IQ8toa:
 1198              	.LVL118:
 1199              	.LFB285:
 498:../Common/IQMath/ti/_IQNtoa.c **** /**
 499:../Common/IQMath/ti/_IQNtoa.c ****  * @brief Convert an IQ8 number to a string.
 500:../Common/IQMath/ti/_IQNtoa.c ****  *
 501:../Common/IQMath/ti/_IQNtoa.c ****  * @param string          Pointer to the buffer to store the converted IQ number.
 502:../Common/IQMath/ti/_IQNtoa.c ****  * @param format          The format string specifying how to convert the IQ number.
 503:../Common/IQMath/ti/_IQNtoa.c ****  * @param iqNInput        IQ8 type input.
 504:../Common/IQMath/ti/_IQNtoa.c ****  *
 505:../Common/IQMath/ti/_IQNtoa.c ****  * @return                Returns 0 if there is no error, 1 if the width is too small to hold the i
 506:../Common/IQMath/ti/_IQNtoa.c ****  *                        characters, and 2 if an illegal format was specified.
 507:../Common/IQMath/ti/_IQNtoa.c ****  */
 508:../Common/IQMath/ti/_IQNtoa.c **** int16_t _IQ8toa(char *string, const char *format, int32_t iqNInput)
 509:../Common/IQMath/ti/_IQNtoa.c **** {
 1200              		.loc 1 509 1 is_stmt 1 view -0
 1201              		.cfi_startproc
 1202              		@ args = 0, pretend = 0, frame = 0
 1203              		@ frame_needed = 0, uses_anonymous_args = 0
 1204              		.loc 1 509 1 is_stmt 0 view .LVU302
 1205 0000 08B5     		push	{r3, lr}
 1206              	.LCFI24:
 1207              		.cfi_def_cfa_offset 8
 1208              		.cfi_offset 3, -8
 1209              		.cfi_offset 14, -4
 510:../Common/IQMath/ti/_IQNtoa.c ****     return __IQNtoa(string, format, iqNInput, 8);
 1210              		.loc 1 510 5 is_stmt 1 view .LVU303
 1211              		.loc 1 510 12 is_stmt 0 view .LVU304
 1212 0002 0823     		movs	r3, #8
 1213 0004 FFF7FEFF 		bl	__IQNtoa
 1214              	.LVL119:
 511:../Common/IQMath/ti/_IQNtoa.c **** }
 1215              		.loc 1 511 1 view .LVU305
 1216 0008 00B2     		sxth	r0, r0
 1217 000a 08BD     		pop	{r3, pc}
 1218              		.cfi_endproc
 1219              	.LFE285:
 1221              		.section	.text._IQ7toa,"ax",%progbits
 1222              		.align	1
 1223              		.global	_IQ7toa
ARM GAS  C:\Users\57308\AppData\Local\Temp\ccQy15rd.s 			page 37


 1224              		.syntax unified
 1225              		.thumb
 1226              		.thumb_func
 1228              	_IQ7toa:
 1229              	.LVL120:
 1230              	.LFB286:
 512:../Common/IQMath/ti/_IQNtoa.c **** /**
 513:../Common/IQMath/ti/_IQNtoa.c ****  * @brief Convert an IQ7 number to a string.
 514:../Common/IQMath/ti/_IQNtoa.c ****  *
 515:../Common/IQMath/ti/_IQNtoa.c ****  * @param string          Pointer to the buffer to store the converted IQ number.
 516:../Common/IQMath/ti/_IQNtoa.c ****  * @param format          The format string specifying how to convert the IQ number.
 517:../Common/IQMath/ti/_IQNtoa.c ****  * @param iqNInput        IQ7 type input.
 518:../Common/IQMath/ti/_IQNtoa.c ****  *
 519:../Common/IQMath/ti/_IQNtoa.c ****  * @return                Returns 0 if there is no error, 1 if the width is too small to hold the i
 520:../Common/IQMath/ti/_IQNtoa.c ****  *                        characters, and 2 if an illegal format was specified.
 521:../Common/IQMath/ti/_IQNtoa.c ****  */
 522:../Common/IQMath/ti/_IQNtoa.c **** int16_t _IQ7toa(char *string, const char *format, int32_t iqNInput)
 523:../Common/IQMath/ti/_IQNtoa.c **** {
 1231              		.loc 1 523 1 is_stmt 1 view -0
 1232              		.cfi_startproc
 1233              		@ args = 0, pretend = 0, frame = 0
 1234              		@ frame_needed = 0, uses_anonymous_args = 0
 1235              		.loc 1 523 1 is_stmt 0 view .LVU307
 1236 0000 08B5     		push	{r3, lr}
 1237              	.LCFI25:
 1238              		.cfi_def_cfa_offset 8
 1239              		.cfi_offset 3, -8
 1240              		.cfi_offset 14, -4
 524:../Common/IQMath/ti/_IQNtoa.c ****     return __IQNtoa(string, format, iqNInput, 7);
 1241              		.loc 1 524 5 is_stmt 1 view .LVU308
 1242              		.loc 1 524 12 is_stmt 0 view .LVU309
 1243 0002 0723     		movs	r3, #7
 1244 0004 FFF7FEFF 		bl	__IQNtoa
 1245              	.LVL121:
 525:../Common/IQMath/ti/_IQNtoa.c **** }
 1246              		.loc 1 525 1 view .LVU310
 1247 0008 00B2     		sxth	r0, r0
 1248 000a 08BD     		pop	{r3, pc}
 1249              		.cfi_endproc
 1250              	.LFE286:
 1252              		.section	.text._IQ6toa,"ax",%progbits
 1253              		.align	1
 1254              		.global	_IQ6toa
 1255              		.syntax unified
 1256              		.thumb
 1257              		.thumb_func
 1259              	_IQ6toa:
 1260              	.LVL122:
 1261              	.LFB287:
 526:../Common/IQMath/ti/_IQNtoa.c **** /**
 527:../Common/IQMath/ti/_IQNtoa.c ****  * @brief Convert an IQ6 number to a string.
 528:../Common/IQMath/ti/_IQNtoa.c ****  *
 529:../Common/IQMath/ti/_IQNtoa.c ****  * @param string          Pointer to the buffer to store the converted IQ number.
 530:../Common/IQMath/ti/_IQNtoa.c ****  * @param format          The format string specifying how to convert the IQ number.
 531:../Common/IQMath/ti/_IQNtoa.c ****  * @param iqNInput        IQ6 type input.
 532:../Common/IQMath/ti/_IQNtoa.c ****  *
 533:../Common/IQMath/ti/_IQNtoa.c ****  * @return                Returns 0 if there is no error, 1 if the width is too small to hold the i
ARM GAS  C:\Users\57308\AppData\Local\Temp\ccQy15rd.s 			page 38


 534:../Common/IQMath/ti/_IQNtoa.c ****  *                        characters, and 2 if an illegal format was specified.
 535:../Common/IQMath/ti/_IQNtoa.c ****  */
 536:../Common/IQMath/ti/_IQNtoa.c **** int16_t _IQ6toa(char *string, const char *format, int32_t iqNInput)
 537:../Common/IQMath/ti/_IQNtoa.c **** {
 1262              		.loc 1 537 1 is_stmt 1 view -0
 1263              		.cfi_startproc
 1264              		@ args = 0, pretend = 0, frame = 0
 1265              		@ frame_needed = 0, uses_anonymous_args = 0
 1266              		.loc 1 537 1 is_stmt 0 view .LVU312
 1267 0000 08B5     		push	{r3, lr}
 1268              	.LCFI26:
 1269              		.cfi_def_cfa_offset 8
 1270              		.cfi_offset 3, -8
 1271              		.cfi_offset 14, -4
 538:../Common/IQMath/ti/_IQNtoa.c ****     return __IQNtoa(string, format, iqNInput, 6);
 1272              		.loc 1 538 5 is_stmt 1 view .LVU313
 1273              		.loc 1 538 12 is_stmt 0 view .LVU314
 1274 0002 0623     		movs	r3, #6
 1275 0004 FFF7FEFF 		bl	__IQNtoa
 1276              	.LVL123:
 539:../Common/IQMath/ti/_IQNtoa.c **** }
 1277              		.loc 1 539 1 view .LVU315
 1278 0008 00B2     		sxth	r0, r0
 1279 000a 08BD     		pop	{r3, pc}
 1280              		.cfi_endproc
 1281              	.LFE287:
 1283              		.section	.text._IQ5toa,"ax",%progbits
 1284              		.align	1
 1285              		.global	_IQ5toa
 1286              		.syntax unified
 1287              		.thumb
 1288              		.thumb_func
 1290              	_IQ5toa:
 1291              	.LVL124:
 1292              	.LFB288:
 540:../Common/IQMath/ti/_IQNtoa.c **** /**
 541:../Common/IQMath/ti/_IQNtoa.c ****  * @brief Convert an IQ5 number to a string.
 542:../Common/IQMath/ti/_IQNtoa.c ****  *
 543:../Common/IQMath/ti/_IQNtoa.c ****  * @param string          Pointer to the buffer to store the converted IQ number.
 544:../Common/IQMath/ti/_IQNtoa.c ****  * @param format          The format string specifying how to convert the IQ number.
 545:../Common/IQMath/ti/_IQNtoa.c ****  * @param iqNInput        IQ5 type input.
 546:../Common/IQMath/ti/_IQNtoa.c ****  *
 547:../Common/IQMath/ti/_IQNtoa.c ****  * @return                Returns 0 if there is no error, 1 if the width is too small to hold the i
 548:../Common/IQMath/ti/_IQNtoa.c ****  *                        characters, and 2 if an illegal format was specified.
 549:../Common/IQMath/ti/_IQNtoa.c ****  */
 550:../Common/IQMath/ti/_IQNtoa.c **** int16_t _IQ5toa(char *string, const char *format, int32_t iqNInput)
 551:../Common/IQMath/ti/_IQNtoa.c **** {
 1293              		.loc 1 551 1 is_stmt 1 view -0
 1294              		.cfi_startproc
 1295              		@ args = 0, pretend = 0, frame = 0
 1296              		@ frame_needed = 0, uses_anonymous_args = 0
 1297              		.loc 1 551 1 is_stmt 0 view .LVU317
 1298 0000 08B5     		push	{r3, lr}
 1299              	.LCFI27:
 1300              		.cfi_def_cfa_offset 8
 1301              		.cfi_offset 3, -8
 1302              		.cfi_offset 14, -4
ARM GAS  C:\Users\57308\AppData\Local\Temp\ccQy15rd.s 			page 39


 552:../Common/IQMath/ti/_IQNtoa.c ****     return __IQNtoa(string, format, iqNInput, 5);
 1303              		.loc 1 552 5 is_stmt 1 view .LVU318
 1304              		.loc 1 552 12 is_stmt 0 view .LVU319
 1305 0002 0523     		movs	r3, #5
 1306 0004 FFF7FEFF 		bl	__IQNtoa
 1307              	.LVL125:
 553:../Common/IQMath/ti/_IQNtoa.c **** }
 1308              		.loc 1 553 1 view .LVU320
 1309 0008 00B2     		sxth	r0, r0
 1310 000a 08BD     		pop	{r3, pc}
 1311              		.cfi_endproc
 1312              	.LFE288:
 1314              		.section	.text._IQ4toa,"ax",%progbits
 1315              		.align	1
 1316              		.global	_IQ4toa
 1317              		.syntax unified
 1318              		.thumb
 1319              		.thumb_func
 1321              	_IQ4toa:
 1322              	.LVL126:
 1323              	.LFB289:
 554:../Common/IQMath/ti/_IQNtoa.c **** /**
 555:../Common/IQMath/ti/_IQNtoa.c ****  * @brief Convert an IQ4 number to a string.
 556:../Common/IQMath/ti/_IQNtoa.c ****  *
 557:../Common/IQMath/ti/_IQNtoa.c ****  * @param string          Pointer to the buffer to store the converted IQ number.
 558:../Common/IQMath/ti/_IQNtoa.c ****  * @param format          The format string specifying how to convert the IQ number.
 559:../Common/IQMath/ti/_IQNtoa.c ****  * @param iqNInput        IQ4 type input.
 560:../Common/IQMath/ti/_IQNtoa.c ****  *
 561:../Common/IQMath/ti/_IQNtoa.c ****  * @return                Returns 0 if there is no error, 1 if the width is too small to hold the i
 562:../Common/IQMath/ti/_IQNtoa.c ****  *                        characters, and 2 if an illegal format was specified.
 563:../Common/IQMath/ti/_IQNtoa.c ****  */
 564:../Common/IQMath/ti/_IQNtoa.c **** int16_t _IQ4toa(char *string, const char *format, int32_t iqNInput)
 565:../Common/IQMath/ti/_IQNtoa.c **** {
 1324              		.loc 1 565 1 is_stmt 1 view -0
 1325              		.cfi_startproc
 1326              		@ args = 0, pretend = 0, frame = 0
 1327              		@ frame_needed = 0, uses_anonymous_args = 0
 1328              		.loc 1 565 1 is_stmt 0 view .LVU322
 1329 0000 08B5     		push	{r3, lr}
 1330              	.LCFI28:
 1331              		.cfi_def_cfa_offset 8
 1332              		.cfi_offset 3, -8
 1333              		.cfi_offset 14, -4
 566:../Common/IQMath/ti/_IQNtoa.c ****     return __IQNtoa(string, format, iqNInput, 4);
 1334              		.loc 1 566 5 is_stmt 1 view .LVU323
 1335              		.loc 1 566 12 is_stmt 0 view .LVU324
 1336 0002 0423     		movs	r3, #4
 1337 0004 FFF7FEFF 		bl	__IQNtoa
 1338              	.LVL127:
 567:../Common/IQMath/ti/_IQNtoa.c **** }
 1339              		.loc 1 567 1 view .LVU325
 1340 0008 00B2     		sxth	r0, r0
 1341 000a 08BD     		pop	{r3, pc}
 1342              		.cfi_endproc
 1343              	.LFE289:
 1345              		.section	.text._IQ3toa,"ax",%progbits
 1346              		.align	1
ARM GAS  C:\Users\57308\AppData\Local\Temp\ccQy15rd.s 			page 40


 1347              		.global	_IQ3toa
 1348              		.syntax unified
 1349              		.thumb
 1350              		.thumb_func
 1352              	_IQ3toa:
 1353              	.LVL128:
 1354              	.LFB290:
 568:../Common/IQMath/ti/_IQNtoa.c **** /**
 569:../Common/IQMath/ti/_IQNtoa.c ****  * @brief Convert an IQ3 number to a string.
 570:../Common/IQMath/ti/_IQNtoa.c ****  *
 571:../Common/IQMath/ti/_IQNtoa.c ****  * @param string          Pointer to the buffer to store the converted IQ number.
 572:../Common/IQMath/ti/_IQNtoa.c ****  * @param format          The format string specifying how to convert the IQ number.
 573:../Common/IQMath/ti/_IQNtoa.c ****  * @param iqNInput        IQ3 type input.
 574:../Common/IQMath/ti/_IQNtoa.c ****  *
 575:../Common/IQMath/ti/_IQNtoa.c ****  * @return                Returns 0 if there is no error, 1 if the width is too small to hold the i
 576:../Common/IQMath/ti/_IQNtoa.c ****  *                        characters, and 2 if an illegal format was specified.
 577:../Common/IQMath/ti/_IQNtoa.c ****  */
 578:../Common/IQMath/ti/_IQNtoa.c **** int16_t _IQ3toa(char *string, const char *format, int32_t iqNInput)
 579:../Common/IQMath/ti/_IQNtoa.c **** {
 1355              		.loc 1 579 1 is_stmt 1 view -0
 1356              		.cfi_startproc
 1357              		@ args = 0, pretend = 0, frame = 0
 1358              		@ frame_needed = 0, uses_anonymous_args = 0
 1359              		.loc 1 579 1 is_stmt 0 view .LVU327
 1360 0000 08B5     		push	{r3, lr}
 1361              	.LCFI29:
 1362              		.cfi_def_cfa_offset 8
 1363              		.cfi_offset 3, -8
 1364              		.cfi_offset 14, -4
 580:../Common/IQMath/ti/_IQNtoa.c ****     return __IQNtoa(string, format, iqNInput, 3);
 1365              		.loc 1 580 5 is_stmt 1 view .LVU328
 1366              		.loc 1 580 12 is_stmt 0 view .LVU329
 1367 0002 0323     		movs	r3, #3
 1368 0004 FFF7FEFF 		bl	__IQNtoa
 1369              	.LVL129:
 581:../Common/IQMath/ti/_IQNtoa.c **** }
 1370              		.loc 1 581 1 view .LVU330
 1371 0008 00B2     		sxth	r0, r0
 1372 000a 08BD     		pop	{r3, pc}
 1373              		.cfi_endproc
 1374              	.LFE290:
 1376              		.section	.text._IQ2toa,"ax",%progbits
 1377              		.align	1
 1378              		.global	_IQ2toa
 1379              		.syntax unified
 1380              		.thumb
 1381              		.thumb_func
 1383              	_IQ2toa:
 1384              	.LVL130:
 1385              	.LFB291:
 582:../Common/IQMath/ti/_IQNtoa.c **** /**
 583:../Common/IQMath/ti/_IQNtoa.c ****  * @brief Convert an IQ2 number to a string.
 584:../Common/IQMath/ti/_IQNtoa.c ****  *
 585:../Common/IQMath/ti/_IQNtoa.c ****  * @param string          Pointer to the buffer to store the converted IQ number.
 586:../Common/IQMath/ti/_IQNtoa.c ****  * @param format          The format string specifying how to convert the IQ number.
 587:../Common/IQMath/ti/_IQNtoa.c ****  * @param iqNInput        IQ2 type input.
 588:../Common/IQMath/ti/_IQNtoa.c ****  *
ARM GAS  C:\Users\57308\AppData\Local\Temp\ccQy15rd.s 			page 41


 589:../Common/IQMath/ti/_IQNtoa.c ****  * @return                Returns 0 if there is no error, 1 if the width is too small to hold the i
 590:../Common/IQMath/ti/_IQNtoa.c ****  *                        characters, and 2 if an illegal format was specified.
 591:../Common/IQMath/ti/_IQNtoa.c ****  */
 592:../Common/IQMath/ti/_IQNtoa.c **** int16_t _IQ2toa(char *string, const char *format, int32_t iqNInput)
 593:../Common/IQMath/ti/_IQNtoa.c **** {
 1386              		.loc 1 593 1 is_stmt 1 view -0
 1387              		.cfi_startproc
 1388              		@ args = 0, pretend = 0, frame = 0
 1389              		@ frame_needed = 0, uses_anonymous_args = 0
 1390              		.loc 1 593 1 is_stmt 0 view .LVU332
 1391 0000 08B5     		push	{r3, lr}
 1392              	.LCFI30:
 1393              		.cfi_def_cfa_offset 8
 1394              		.cfi_offset 3, -8
 1395              		.cfi_offset 14, -4
 594:../Common/IQMath/ti/_IQNtoa.c ****     return __IQNtoa(string, format, iqNInput, 2);
 1396              		.loc 1 594 5 is_stmt 1 view .LVU333
 1397              		.loc 1 594 12 is_stmt 0 view .LVU334
 1398 0002 0223     		movs	r3, #2
 1399 0004 FFF7FEFF 		bl	__IQNtoa
 1400              	.LVL131:
 595:../Common/IQMath/ti/_IQNtoa.c **** }
 1401              		.loc 1 595 1 view .LVU335
 1402 0008 00B2     		sxth	r0, r0
 1403 000a 08BD     		pop	{r3, pc}
 1404              		.cfi_endproc
 1405              	.LFE291:
 1407              		.section	.text._IQ1toa,"ax",%progbits
 1408              		.align	1
 1409              		.global	_IQ1toa
 1410              		.syntax unified
 1411              		.thumb
 1412              		.thumb_func
 1414              	_IQ1toa:
 1415              	.LVL132:
 1416              	.LFB292:
 596:../Common/IQMath/ti/_IQNtoa.c **** /**
 597:../Common/IQMath/ti/_IQNtoa.c ****  * @brief Convert an IQ1 number to a string.
 598:../Common/IQMath/ti/_IQNtoa.c ****  *
 599:../Common/IQMath/ti/_IQNtoa.c ****  * @param string          Pointer to the buffer to store the converted IQ number.
 600:../Common/IQMath/ti/_IQNtoa.c ****  * @param format          The format string specifying how to convert the IQ number.
 601:../Common/IQMath/ti/_IQNtoa.c ****  * @param iqNInput        IQ1 type input.
 602:../Common/IQMath/ti/_IQNtoa.c ****  *
 603:../Common/IQMath/ti/_IQNtoa.c ****  * @return                Returns 0 if there is no error, 1 if the width is too small to hold the i
 604:../Common/IQMath/ti/_IQNtoa.c ****  *                        characters, and 2 if an illegal format was specified.
 605:../Common/IQMath/ti/_IQNtoa.c ****  */
 606:../Common/IQMath/ti/_IQNtoa.c **** int16_t _IQ1toa(char *string, const char *format, int32_t iqNInput)
 607:../Common/IQMath/ti/_IQNtoa.c **** {
 1417              		.loc 1 607 1 is_stmt 1 view -0
 1418              		.cfi_startproc
 1419              		@ args = 0, pretend = 0, frame = 0
 1420              		@ frame_needed = 0, uses_anonymous_args = 0
 1421              		.loc 1 607 1 is_stmt 0 view .LVU337
 1422 0000 08B5     		push	{r3, lr}
 1423              	.LCFI31:
 1424              		.cfi_def_cfa_offset 8
 1425              		.cfi_offset 3, -8
ARM GAS  C:\Users\57308\AppData\Local\Temp\ccQy15rd.s 			page 42


 1426              		.cfi_offset 14, -4
 608:../Common/IQMath/ti/_IQNtoa.c ****     return __IQNtoa(string, format, iqNInput, 1);
 1427              		.loc 1 608 5 is_stmt 1 view .LVU338
 1428              		.loc 1 608 12 is_stmt 0 view .LVU339
 1429 0002 0123     		movs	r3, #1
 1430 0004 FFF7FEFF 		bl	__IQNtoa
 1431              	.LVL133:
 609:../Common/IQMath/ti/_IQNtoa.c **** }
 1432              		.loc 1 609 1 view .LVU340
 1433 0008 00B2     		sxth	r0, r0
 1434 000a 08BD     		pop	{r3, pc}
 1435              		.cfi_endproc
 1436              	.LFE292:
 1438              		.section	.text._IQ0toa,"ax",%progbits
 1439              		.align	1
 1440              		.global	_IQ0toa
 1441              		.syntax unified
 1442              		.thumb
 1443              		.thumb_func
 1445              	_IQ0toa:
 1446              	.LVL134:
 1447              	.LFB293:
 610:../Common/IQMath/ti/_IQNtoa.c **** /**
 611:../Common/IQMath/ti/_IQNtoa.c ****  * @brief Convert an IQ0 number to a string.
 612:../Common/IQMath/ti/_IQNtoa.c ****  *
 613:../Common/IQMath/ti/_IQNtoa.c ****  * @param string          Pointer to the buffer to store the converted IQ number.
 614:../Common/IQMath/ti/_IQNtoa.c ****  * @param format          The format string specifying how to convert the IQ number.
 615:../Common/IQMath/ti/_IQNtoa.c ****  * @param iqNInput        IQ0 type input.
 616:../Common/IQMath/ti/_IQNtoa.c ****  *
 617:../Common/IQMath/ti/_IQNtoa.c ****  * @return                Returns 0 if there is no error, 1 if the width is too small to hold the i
 618:../Common/IQMath/ti/_IQNtoa.c ****  *                        characters, and 2 if an illegal format was specified.
 619:../Common/IQMath/ti/_IQNtoa.c ****  */
 620:../Common/IQMath/ti/_IQNtoa.c **** int16_t _IQ0toa(char *string, const char *format, int32_t iqNInput)
 621:../Common/IQMath/ti/_IQNtoa.c **** {
 1448              		.loc 1 621 1 is_stmt 1 view -0
 1449              		.cfi_startproc
 1450              		@ args = 0, pretend = 0, frame = 0
 1451              		@ frame_needed = 0, uses_anonymous_args = 0
 1452              		.loc 1 621 1 is_stmt 0 view .LVU342
 1453 0000 08B5     		push	{r3, lr}
 1454              	.LCFI32:
 1455              		.cfi_def_cfa_offset 8
 1456              		.cfi_offset 3, -8
 1457              		.cfi_offset 14, -4
 622:../Common/IQMath/ti/_IQNtoa.c ****     return __IQNtoa(string, format, iqNInput, 0);
 1458              		.loc 1 622 5 is_stmt 1 view .LVU343
 1459              		.loc 1 622 12 is_stmt 0 view .LVU344
 1460 0002 0023     		movs	r3, #0
 1461 0004 FFF7FEFF 		bl	__IQNtoa
 1462              	.LVL135:
 623:../Common/IQMath/ti/_IQNtoa.c **** }
 1463              		.loc 1 623 1 view .LVU345
 1464 0008 00B2     		sxth	r0, r0
 1465 000a 08BD     		pop	{r3, pc}
 1466              		.cfi_endproc
 1467              	.LFE293:
 1469              		.text
ARM GAS  C:\Users\57308\AppData\Local\Temp\ccQy15rd.s 			page 43


 1470              	.Letext0:
 1471              		.file 3 "d:\\program files\\gcc-arm-none-eabi-10.3-2021.10\\arm-none-eabi\\include\\machine\\_defa
 1472              		.file 4 "d:\\program files\\gcc-arm-none-eabi-10.3-2021.10\\arm-none-eabi\\include\\sys\\_stdint.h
 1473              		.file 5 "d:\\program files\\gcc-arm-none-eabi-10.3-2021.10\\arm-none-eabi\\include\\stdint.h"
ARM GAS  C:\Users\57308\AppData\Local\Temp\ccQy15rd.s 			page 44

