ARM GAS  C:\Users\57308\AppData\Local\Temp\ccC8ZPyf.s 			page 1


   1              		.cpu cortex-m4
   2              		.arch armv7e-m
   3              		.fpu fpv4-sp-d16
   4              		.eabi_attribute 27, 1
   5              		.eabi_attribute 28, 1
   6              		.eabi_attribute 20, 1
   7              		.eabi_attribute 21, 1
   8              		.eabi_attribute 23, 3
   9              		.eabi_attribute 24, 1
  10              		.eabi_attribute 25, 1
  11              		.eabi_attribute 26, 1
  12              		.eabi_attribute 30, 1
  13              		.eabi_attribute 34, 1
  14              		.eabi_attribute 18, 4
  15              		.file	"_IQNfrac.c"
  16              		.text
  17              	.Ltext0:
  18              		.cfi_sections	.debug_frame
  19              		.section	.text._IQ30frac,"ax",%progbits
  20              		.align	1
  21              		.global	_IQ30frac
  22              		.syntax unified
  23              		.thumb
  24              		.thumb_func
  26              	_IQ30frac:
  27              	.LVL0:
  28              	.LFB262:
  29              		.file 1 "../Common/IQMath/ti/_IQNfrac.c"
   1:../Common/IQMath/ti/_IQNfrac.c **** /*!****************************************************************************
   2:../Common/IQMath/ti/_IQNfrac.c ****  *  @file       _IQNfrac.c
   3:../Common/IQMath/ti/_IQNfrac.c ****  *  @brief      Functions to return the fractional portion of the input.
   4:../Common/IQMath/ti/_IQNfrac.c ****  *
   5:../Common/IQMath/ti/_IQNfrac.c ****  *  <hr>
   6:../Common/IQMath/ti/_IQNfrac.c ****  ******************************************************************************/
   7:../Common/IQMath/ti/_IQNfrac.c **** 
   8:../Common/IQMath/ti/_IQNfrac.c **** #include <stdint.h>
   9:../Common/IQMath/ti/_IQNfrac.c **** 
  10:../Common/IQMath/ti/_IQNfrac.c **** #include "./support/support.h"
  11:../Common/IQMath/ti/_IQNfrac.c **** 
  12:../Common/IQMath/ti/_IQNfrac.c **** /**
  13:../Common/IQMath/ti/_IQNfrac.c ****  * @brief Return the fractional portion of an IQN input.
  14:../Common/IQMath/ti/_IQNfrac.c ****  *
  15:../Common/IQMath/ti/_IQNfrac.c ****  * @param iqNInput        IQN type input.
  16:../Common/IQMath/ti/_IQNfrac.c ****  * @param q_value         IQ format.
  17:../Common/IQMath/ti/_IQNfrac.c ****  *
  18:../Common/IQMath/ti/_IQNfrac.c ****  * @return                IQN type fractional portion of input.
  19:../Common/IQMath/ti/_IQNfrac.c ****  */
  20:../Common/IQMath/ti/_IQNfrac.c **** #if defined (__TI_COMPILER_VERSION__)
  21:../Common/IQMath/ti/_IQNfrac.c ****     #pragma FUNC_ALWAYS_INLINE(__IQNfrac)
  22:../Common/IQMath/ti/_IQNfrac.c **** #elif defined(__IAR_SYSTEMS_ICC__)
  23:../Common/IQMath/ti/_IQNfrac.c ****     #pragma inline=forced
  24:../Common/IQMath/ti/_IQNfrac.c **** #endif
  25:../Common/IQMath/ti/_IQNfrac.c **** __STATIC_INLINE int_fast32_t __IQNfrac(int_fast32_t iqNInput, int8_t q_value)
  26:../Common/IQMath/ti/_IQNfrac.c **** {
  27:../Common/IQMath/ti/_IQNfrac.c ****     int_fast32_t iqNInteger;
  28:../Common/IQMath/ti/_IQNfrac.c ****     
  29:../Common/IQMath/ti/_IQNfrac.c ****     iqNInteger = (uint_fast32_t)iqNInput & ((uint_fast32_t)0xffffffff << q_value);
ARM GAS  C:\Users\57308\AppData\Local\Temp\ccC8ZPyf.s 			page 2


  30:../Common/IQMath/ti/_IQNfrac.c ****     
  31:../Common/IQMath/ti/_IQNfrac.c ****     return (iqNInput - iqNInteger);
  32:../Common/IQMath/ti/_IQNfrac.c **** }
  33:../Common/IQMath/ti/_IQNfrac.c **** 
  34:../Common/IQMath/ti/_IQNfrac.c **** /**
  35:../Common/IQMath/ti/_IQNfrac.c ****  * @brief Return the fractional portion of an IQ30 input.
  36:../Common/IQMath/ti/_IQNfrac.c ****  *
  37:../Common/IQMath/ti/_IQNfrac.c ****  * @param a               IQ30 type input.
  38:../Common/IQMath/ti/_IQNfrac.c ****  *
  39:../Common/IQMath/ti/_IQNfrac.c ****  * @return                IQ30 type fractional portion of input.
  40:../Common/IQMath/ti/_IQNfrac.c ****  */
  41:../Common/IQMath/ti/_IQNfrac.c **** int32_t _IQ30frac(int32_t a)
  42:../Common/IQMath/ti/_IQNfrac.c **** {
  30              		.loc 1 42 1 view -0
  31              		.cfi_startproc
  32              		@ args = 0, pretend = 0, frame = 0
  33              		@ frame_needed = 0, uses_anonymous_args = 0
  34              		@ link register save eliminated.
  43:../Common/IQMath/ti/_IQNfrac.c ****     return __IQNfrac(a, 30);
  35              		.loc 1 43 5 view .LVU1
  36              	.LBB62:
  37              	.LBI62:
  25:../Common/IQMath/ti/_IQNfrac.c **** {
  38              		.loc 1 25 30 view .LVU2
  39              	.LBB63:
  27:../Common/IQMath/ti/_IQNfrac.c ****     
  40              		.loc 1 27 5 view .LVU3
  29:../Common/IQMath/ti/_IQNfrac.c ****     
  41              		.loc 1 29 5 view .LVU4
  31:../Common/IQMath/ti/_IQNfrac.c **** }
  42              		.loc 1 31 5 view .LVU5
  31:../Common/IQMath/ti/_IQNfrac.c **** }
  43              		.loc 1 31 5 is_stmt 0 view .LVU6
  44              	.LBE63:
  45              	.LBE62:
  44:../Common/IQMath/ti/_IQNfrac.c **** }
  46              		.loc 1 44 1 view .LVU7
  47 0000 20F04040 		bic	r0, r0, #-1073741824
  48              	.LVL1:
  49              		.loc 1 44 1 view .LVU8
  50 0004 7047     		bx	lr
  51              		.cfi_endproc
  52              	.LFE262:
  54              		.section	.text._IQ29frac,"ax",%progbits
  55              		.align	1
  56              		.global	_IQ29frac
  57              		.syntax unified
  58              		.thumb
  59              		.thumb_func
  61              	_IQ29frac:
  62              	.LVL2:
  63              	.LFB263:
  45:../Common/IQMath/ti/_IQNfrac.c **** /**
  46:../Common/IQMath/ti/_IQNfrac.c ****  * @brief Return the fractional portion of an IQ29 input.
  47:../Common/IQMath/ti/_IQNfrac.c ****  *
  48:../Common/IQMath/ti/_IQNfrac.c ****  * @param a               IQ29 type input.
  49:../Common/IQMath/ti/_IQNfrac.c ****  *
ARM GAS  C:\Users\57308\AppData\Local\Temp\ccC8ZPyf.s 			page 3


  50:../Common/IQMath/ti/_IQNfrac.c ****  * @return                IQ29 type fractional portion of input.
  51:../Common/IQMath/ti/_IQNfrac.c ****  */
  52:../Common/IQMath/ti/_IQNfrac.c **** int32_t _IQ29frac(int32_t a)
  53:../Common/IQMath/ti/_IQNfrac.c **** {
  64              		.loc 1 53 1 is_stmt 1 view -0
  65              		.cfi_startproc
  66              		@ args = 0, pretend = 0, frame = 0
  67              		@ frame_needed = 0, uses_anonymous_args = 0
  68              		@ link register save eliminated.
  54:../Common/IQMath/ti/_IQNfrac.c ****     return __IQNfrac(a, 29);
  69              		.loc 1 54 5 view .LVU10
  70              	.LBB64:
  71              	.LBI64:
  25:../Common/IQMath/ti/_IQNfrac.c **** {
  72              		.loc 1 25 30 view .LVU11
  73              	.LBB65:
  27:../Common/IQMath/ti/_IQNfrac.c ****     
  74              		.loc 1 27 5 view .LVU12
  29:../Common/IQMath/ti/_IQNfrac.c ****     
  75              		.loc 1 29 5 view .LVU13
  31:../Common/IQMath/ti/_IQNfrac.c **** }
  76              		.loc 1 31 5 view .LVU14
  31:../Common/IQMath/ti/_IQNfrac.c **** }
  77              		.loc 1 31 5 is_stmt 0 view .LVU15
  78              	.LBE65:
  79              	.LBE64:
  55:../Common/IQMath/ti/_IQNfrac.c **** }
  80              		.loc 1 55 1 view .LVU16
  81 0000 20F06040 		bic	r0, r0, #-536870912
  82              	.LVL3:
  83              		.loc 1 55 1 view .LVU17
  84 0004 7047     		bx	lr
  85              		.cfi_endproc
  86              	.LFE263:
  88              		.section	.text._IQ28frac,"ax",%progbits
  89              		.align	1
  90              		.global	_IQ28frac
  91              		.syntax unified
  92              		.thumb
  93              		.thumb_func
  95              	_IQ28frac:
  96              	.LVL4:
  97              	.LFB264:
  56:../Common/IQMath/ti/_IQNfrac.c **** /**
  57:../Common/IQMath/ti/_IQNfrac.c ****  * @brief Return the fractional portion of an IQ28 input.
  58:../Common/IQMath/ti/_IQNfrac.c ****  *
  59:../Common/IQMath/ti/_IQNfrac.c ****  * @param a               IQ28 type input.
  60:../Common/IQMath/ti/_IQNfrac.c ****  *
  61:../Common/IQMath/ti/_IQNfrac.c ****  * @return                IQ28 type fractional portion of input.
  62:../Common/IQMath/ti/_IQNfrac.c ****  */
  63:../Common/IQMath/ti/_IQNfrac.c **** int32_t _IQ28frac(int32_t a)
  64:../Common/IQMath/ti/_IQNfrac.c **** {
  98              		.loc 1 64 1 is_stmt 1 view -0
  99              		.cfi_startproc
 100              		@ args = 0, pretend = 0, frame = 0
 101              		@ frame_needed = 0, uses_anonymous_args = 0
 102              		@ link register save eliminated.
ARM GAS  C:\Users\57308\AppData\Local\Temp\ccC8ZPyf.s 			page 4


  65:../Common/IQMath/ti/_IQNfrac.c ****     return __IQNfrac(a, 28);
 103              		.loc 1 65 5 view .LVU19
 104              	.LBB66:
 105              	.LBI66:
  25:../Common/IQMath/ti/_IQNfrac.c **** {
 106              		.loc 1 25 30 view .LVU20
 107              	.LBB67:
  27:../Common/IQMath/ti/_IQNfrac.c ****     
 108              		.loc 1 27 5 view .LVU21
  29:../Common/IQMath/ti/_IQNfrac.c ****     
 109              		.loc 1 29 5 view .LVU22
  31:../Common/IQMath/ti/_IQNfrac.c **** }
 110              		.loc 1 31 5 view .LVU23
  31:../Common/IQMath/ti/_IQNfrac.c **** }
 111              		.loc 1 31 5 is_stmt 0 view .LVU24
 112              	.LBE67:
 113              	.LBE66:
  66:../Common/IQMath/ti/_IQNfrac.c **** }
 114              		.loc 1 66 1 view .LVU25
 115 0000 20F07040 		bic	r0, r0, #-268435456
 116              	.LVL5:
 117              		.loc 1 66 1 view .LVU26
 118 0004 7047     		bx	lr
 119              		.cfi_endproc
 120              	.LFE264:
 122              		.section	.text._IQ27frac,"ax",%progbits
 123              		.align	1
 124              		.global	_IQ27frac
 125              		.syntax unified
 126              		.thumb
 127              		.thumb_func
 129              	_IQ27frac:
 130              	.LVL6:
 131              	.LFB265:
  67:../Common/IQMath/ti/_IQNfrac.c **** /**
  68:../Common/IQMath/ti/_IQNfrac.c ****  * @brief Return the fractional portion of an IQ27 input.
  69:../Common/IQMath/ti/_IQNfrac.c ****  *
  70:../Common/IQMath/ti/_IQNfrac.c ****  * @param a               IQ27 type input.
  71:../Common/IQMath/ti/_IQNfrac.c ****  *
  72:../Common/IQMath/ti/_IQNfrac.c ****  * @return                IQ27 type fractional portion of input.
  73:../Common/IQMath/ti/_IQNfrac.c ****  */
  74:../Common/IQMath/ti/_IQNfrac.c **** int32_t _IQ27frac(int32_t a)
  75:../Common/IQMath/ti/_IQNfrac.c **** {
 132              		.loc 1 75 1 is_stmt 1 view -0
 133              		.cfi_startproc
 134              		@ args = 0, pretend = 0, frame = 0
 135              		@ frame_needed = 0, uses_anonymous_args = 0
 136              		@ link register save eliminated.
  76:../Common/IQMath/ti/_IQNfrac.c ****     return __IQNfrac(a, 27);
 137              		.loc 1 76 5 view .LVU28
 138              	.LBB68:
 139              	.LBI68:
  25:../Common/IQMath/ti/_IQNfrac.c **** {
 140              		.loc 1 25 30 view .LVU29
 141              	.LBB69:
  27:../Common/IQMath/ti/_IQNfrac.c ****     
 142              		.loc 1 27 5 view .LVU30
ARM GAS  C:\Users\57308\AppData\Local\Temp\ccC8ZPyf.s 			page 5


  29:../Common/IQMath/ti/_IQNfrac.c ****     
 143              		.loc 1 29 5 view .LVU31
  31:../Common/IQMath/ti/_IQNfrac.c **** }
 144              		.loc 1 31 5 view .LVU32
  31:../Common/IQMath/ti/_IQNfrac.c **** }
 145              		.loc 1 31 5 is_stmt 0 view .LVU33
 146              	.LBE69:
 147              	.LBE68:
  77:../Common/IQMath/ti/_IQNfrac.c **** }
 148              		.loc 1 77 1 view .LVU34
 149 0000 20F07840 		bic	r0, r0, #-134217728
 150              	.LVL7:
 151              		.loc 1 77 1 view .LVU35
 152 0004 7047     		bx	lr
 153              		.cfi_endproc
 154              	.LFE265:
 156              		.section	.text._IQ26frac,"ax",%progbits
 157              		.align	1
 158              		.global	_IQ26frac
 159              		.syntax unified
 160              		.thumb
 161              		.thumb_func
 163              	_IQ26frac:
 164              	.LVL8:
 165              	.LFB266:
  78:../Common/IQMath/ti/_IQNfrac.c **** /**
  79:../Common/IQMath/ti/_IQNfrac.c ****  * @brief Return the fractional portion of an IQ26 input.
  80:../Common/IQMath/ti/_IQNfrac.c ****  *
  81:../Common/IQMath/ti/_IQNfrac.c ****  * @param a               IQ26 type input.
  82:../Common/IQMath/ti/_IQNfrac.c ****  *
  83:../Common/IQMath/ti/_IQNfrac.c ****  * @return                IQ26 type fractional portion of input.
  84:../Common/IQMath/ti/_IQNfrac.c ****  */
  85:../Common/IQMath/ti/_IQNfrac.c **** int32_t _IQ26frac(int32_t a)
  86:../Common/IQMath/ti/_IQNfrac.c **** {
 166              		.loc 1 86 1 is_stmt 1 view -0
 167              		.cfi_startproc
 168              		@ args = 0, pretend = 0, frame = 0
 169              		@ frame_needed = 0, uses_anonymous_args = 0
 170              		@ link register save eliminated.
  87:../Common/IQMath/ti/_IQNfrac.c ****     return __IQNfrac(a, 26);
 171              		.loc 1 87 5 view .LVU37
 172              	.LBB70:
 173              	.LBI70:
  25:../Common/IQMath/ti/_IQNfrac.c **** {
 174              		.loc 1 25 30 view .LVU38
 175              	.LBB71:
  27:../Common/IQMath/ti/_IQNfrac.c ****     
 176              		.loc 1 27 5 view .LVU39
  29:../Common/IQMath/ti/_IQNfrac.c ****     
 177              		.loc 1 29 5 view .LVU40
  31:../Common/IQMath/ti/_IQNfrac.c **** }
 178              		.loc 1 31 5 view .LVU41
  31:../Common/IQMath/ti/_IQNfrac.c **** }
 179              		.loc 1 31 5 is_stmt 0 view .LVU42
 180              	.LBE71:
 181              	.LBE70:
  88:../Common/IQMath/ti/_IQNfrac.c **** }
ARM GAS  C:\Users\57308\AppData\Local\Temp\ccC8ZPyf.s 			page 6


 182              		.loc 1 88 1 view .LVU43
 183 0000 20F07C40 		bic	r0, r0, #-67108864
 184              	.LVL9:
 185              		.loc 1 88 1 view .LVU44
 186 0004 7047     		bx	lr
 187              		.cfi_endproc
 188              	.LFE266:
 190              		.section	.text._IQ25frac,"ax",%progbits
 191              		.align	1
 192              		.global	_IQ25frac
 193              		.syntax unified
 194              		.thumb
 195              		.thumb_func
 197              	_IQ25frac:
 198              	.LVL10:
 199              	.LFB267:
  89:../Common/IQMath/ti/_IQNfrac.c **** /**
  90:../Common/IQMath/ti/_IQNfrac.c ****  * @brief Return the fractional portion of an IQ25 input.
  91:../Common/IQMath/ti/_IQNfrac.c ****  *
  92:../Common/IQMath/ti/_IQNfrac.c ****  * @param a               IQ25 type input.
  93:../Common/IQMath/ti/_IQNfrac.c ****  *
  94:../Common/IQMath/ti/_IQNfrac.c ****  * @return                IQ25 type fractional portion of input.
  95:../Common/IQMath/ti/_IQNfrac.c ****  */
  96:../Common/IQMath/ti/_IQNfrac.c **** int32_t _IQ25frac(int32_t a)
  97:../Common/IQMath/ti/_IQNfrac.c **** {
 200              		.loc 1 97 1 is_stmt 1 view -0
 201              		.cfi_startproc
 202              		@ args = 0, pretend = 0, frame = 0
 203              		@ frame_needed = 0, uses_anonymous_args = 0
 204              		@ link register save eliminated.
  98:../Common/IQMath/ti/_IQNfrac.c ****     return __IQNfrac(a, 25);
 205              		.loc 1 98 5 view .LVU46
 206              	.LBB72:
 207              	.LBI72:
  25:../Common/IQMath/ti/_IQNfrac.c **** {
 208              		.loc 1 25 30 view .LVU47
 209              	.LBB73:
  27:../Common/IQMath/ti/_IQNfrac.c ****     
 210              		.loc 1 27 5 view .LVU48
  29:../Common/IQMath/ti/_IQNfrac.c ****     
 211              		.loc 1 29 5 view .LVU49
  31:../Common/IQMath/ti/_IQNfrac.c **** }
 212              		.loc 1 31 5 view .LVU50
  31:../Common/IQMath/ti/_IQNfrac.c **** }
 213              		.loc 1 31 5 is_stmt 0 view .LVU51
 214              	.LBE73:
 215              	.LBE72:
  99:../Common/IQMath/ti/_IQNfrac.c **** }
 216              		.loc 1 99 1 view .LVU52
 217 0000 20F07E40 		bic	r0, r0, #-33554432
 218              	.LVL11:
 219              		.loc 1 99 1 view .LVU53
 220 0004 7047     		bx	lr
 221              		.cfi_endproc
 222              	.LFE267:
 224              		.section	.text._IQ24frac,"ax",%progbits
 225              		.align	1
ARM GAS  C:\Users\57308\AppData\Local\Temp\ccC8ZPyf.s 			page 7


 226              		.global	_IQ24frac
 227              		.syntax unified
 228              		.thumb
 229              		.thumb_func
 231              	_IQ24frac:
 232              	.LVL12:
 233              	.LFB268:
 100:../Common/IQMath/ti/_IQNfrac.c **** /**
 101:../Common/IQMath/ti/_IQNfrac.c ****  * @brief Return the fractional portion of an IQ24 input.
 102:../Common/IQMath/ti/_IQNfrac.c ****  *
 103:../Common/IQMath/ti/_IQNfrac.c ****  * @param a               IQ24 type input.
 104:../Common/IQMath/ti/_IQNfrac.c ****  *
 105:../Common/IQMath/ti/_IQNfrac.c ****  * @return                IQ24 type fractional portion of input.
 106:../Common/IQMath/ti/_IQNfrac.c ****  */
 107:../Common/IQMath/ti/_IQNfrac.c **** int32_t _IQ24frac(int32_t a)
 108:../Common/IQMath/ti/_IQNfrac.c **** {
 234              		.loc 1 108 1 is_stmt 1 view -0
 235              		.cfi_startproc
 236              		@ args = 0, pretend = 0, frame = 0
 237              		@ frame_needed = 0, uses_anonymous_args = 0
 238              		@ link register save eliminated.
 109:../Common/IQMath/ti/_IQNfrac.c ****     return __IQNfrac(a, 24);
 239              		.loc 1 109 5 view .LVU55
 240              	.LBB74:
 241              	.LBI74:
  25:../Common/IQMath/ti/_IQNfrac.c **** {
 242              		.loc 1 25 30 view .LVU56
 243              	.LBB75:
  27:../Common/IQMath/ti/_IQNfrac.c ****     
 244              		.loc 1 27 5 view .LVU57
  29:../Common/IQMath/ti/_IQNfrac.c ****     
 245              		.loc 1 29 5 view .LVU58
  31:../Common/IQMath/ti/_IQNfrac.c **** }
 246              		.loc 1 31 5 view .LVU59
  31:../Common/IQMath/ti/_IQNfrac.c **** }
 247              		.loc 1 31 5 is_stmt 0 view .LVU60
 248              	.LBE75:
 249              	.LBE74:
 110:../Common/IQMath/ti/_IQNfrac.c **** }
 250              		.loc 1 110 1 view .LVU61
 251 0000 20F07F40 		bic	r0, r0, #-16777216
 252              	.LVL13:
 253              		.loc 1 110 1 view .LVU62
 254 0004 7047     		bx	lr
 255              		.cfi_endproc
 256              	.LFE268:
 258              		.section	.text._IQ23frac,"ax",%progbits
 259              		.align	1
 260              		.global	_IQ23frac
 261              		.syntax unified
 262              		.thumb
 263              		.thumb_func
 265              	_IQ23frac:
 266              	.LVL14:
 267              	.LFB269:
 111:../Common/IQMath/ti/_IQNfrac.c **** /**
 112:../Common/IQMath/ti/_IQNfrac.c ****  * @brief Return the fractional portion of an IQ23 input.
ARM GAS  C:\Users\57308\AppData\Local\Temp\ccC8ZPyf.s 			page 8


 113:../Common/IQMath/ti/_IQNfrac.c ****  *
 114:../Common/IQMath/ti/_IQNfrac.c ****  * @param a               IQ23 type input.
 115:../Common/IQMath/ti/_IQNfrac.c ****  *
 116:../Common/IQMath/ti/_IQNfrac.c ****  * @return                IQ23 type fractional portion of input.
 117:../Common/IQMath/ti/_IQNfrac.c ****  */
 118:../Common/IQMath/ti/_IQNfrac.c **** int32_t _IQ23frac(int32_t a)
 119:../Common/IQMath/ti/_IQNfrac.c **** {
 268              		.loc 1 119 1 is_stmt 1 view -0
 269              		.cfi_startproc
 270              		@ args = 0, pretend = 0, frame = 0
 271              		@ frame_needed = 0, uses_anonymous_args = 0
 272              		@ link register save eliminated.
 120:../Common/IQMath/ti/_IQNfrac.c ****     return __IQNfrac(a, 23);
 273              		.loc 1 120 5 view .LVU64
 274              	.LBB76:
 275              	.LBI76:
  25:../Common/IQMath/ti/_IQNfrac.c **** {
 276              		.loc 1 25 30 view .LVU65
 277              	.LBB77:
  27:../Common/IQMath/ti/_IQNfrac.c ****     
 278              		.loc 1 27 5 view .LVU66
  29:../Common/IQMath/ti/_IQNfrac.c ****     
 279              		.loc 1 29 5 view .LVU67
  31:../Common/IQMath/ti/_IQNfrac.c **** }
 280              		.loc 1 31 5 view .LVU68
  31:../Common/IQMath/ti/_IQNfrac.c **** }
 281              		.loc 1 31 5 is_stmt 0 view .LVU69
 282              	.LBE77:
 283              	.LBE76:
 121:../Common/IQMath/ti/_IQNfrac.c **** }
 284              		.loc 1 121 1 view .LVU70
 285 0000 C0F31600 		ubfx	r0, r0, #0, #23
 286              	.LVL15:
 287              		.loc 1 121 1 view .LVU71
 288 0004 7047     		bx	lr
 289              		.cfi_endproc
 290              	.LFE269:
 292              		.section	.text._IQ22frac,"ax",%progbits
 293              		.align	1
 294              		.global	_IQ22frac
 295              		.syntax unified
 296              		.thumb
 297              		.thumb_func
 299              	_IQ22frac:
 300              	.LVL16:
 301              	.LFB270:
 122:../Common/IQMath/ti/_IQNfrac.c **** /**
 123:../Common/IQMath/ti/_IQNfrac.c ****  * @brief Return the fractional portion of an IQ22 input.
 124:../Common/IQMath/ti/_IQNfrac.c ****  *
 125:../Common/IQMath/ti/_IQNfrac.c ****  * @param a               IQ22 type input.
 126:../Common/IQMath/ti/_IQNfrac.c ****  *
 127:../Common/IQMath/ti/_IQNfrac.c ****  * @return                IQ22 type fractional portion of input.
 128:../Common/IQMath/ti/_IQNfrac.c ****  */
 129:../Common/IQMath/ti/_IQNfrac.c **** int32_t _IQ22frac(int32_t a)
 130:../Common/IQMath/ti/_IQNfrac.c **** {
 302              		.loc 1 130 1 is_stmt 1 view -0
 303              		.cfi_startproc
ARM GAS  C:\Users\57308\AppData\Local\Temp\ccC8ZPyf.s 			page 9


 304              		@ args = 0, pretend = 0, frame = 0
 305              		@ frame_needed = 0, uses_anonymous_args = 0
 306              		@ link register save eliminated.
 131:../Common/IQMath/ti/_IQNfrac.c ****     return __IQNfrac(a, 22);
 307              		.loc 1 131 5 view .LVU73
 308              	.LBB78:
 309              	.LBI78:
  25:../Common/IQMath/ti/_IQNfrac.c **** {
 310              		.loc 1 25 30 view .LVU74
 311              	.LBB79:
  27:../Common/IQMath/ti/_IQNfrac.c ****     
 312              		.loc 1 27 5 view .LVU75
  29:../Common/IQMath/ti/_IQNfrac.c ****     
 313              		.loc 1 29 5 view .LVU76
  31:../Common/IQMath/ti/_IQNfrac.c **** }
 314              		.loc 1 31 5 view .LVU77
  31:../Common/IQMath/ti/_IQNfrac.c **** }
 315              		.loc 1 31 5 is_stmt 0 view .LVU78
 316              	.LBE79:
 317              	.LBE78:
 132:../Common/IQMath/ti/_IQNfrac.c **** }
 318              		.loc 1 132 1 view .LVU79
 319 0000 C0F31500 		ubfx	r0, r0, #0, #22
 320              	.LVL17:
 321              		.loc 1 132 1 view .LVU80
 322 0004 7047     		bx	lr
 323              		.cfi_endproc
 324              	.LFE270:
 326              		.section	.text._IQ21frac,"ax",%progbits
 327              		.align	1
 328              		.global	_IQ21frac
 329              		.syntax unified
 330              		.thumb
 331              		.thumb_func
 333              	_IQ21frac:
 334              	.LVL18:
 335              	.LFB271:
 133:../Common/IQMath/ti/_IQNfrac.c **** /**
 134:../Common/IQMath/ti/_IQNfrac.c ****  * @brief Return the fractional portion of an IQ21 input.
 135:../Common/IQMath/ti/_IQNfrac.c ****  *
 136:../Common/IQMath/ti/_IQNfrac.c ****  * @param a               IQ21 type input.
 137:../Common/IQMath/ti/_IQNfrac.c ****  *
 138:../Common/IQMath/ti/_IQNfrac.c ****  * @return                IQ21 type fractional portion of input.
 139:../Common/IQMath/ti/_IQNfrac.c ****  */
 140:../Common/IQMath/ti/_IQNfrac.c **** int32_t _IQ21frac(int32_t a)
 141:../Common/IQMath/ti/_IQNfrac.c **** {
 336              		.loc 1 141 1 is_stmt 1 view -0
 337              		.cfi_startproc
 338              		@ args = 0, pretend = 0, frame = 0
 339              		@ frame_needed = 0, uses_anonymous_args = 0
 340              		@ link register save eliminated.
 142:../Common/IQMath/ti/_IQNfrac.c ****     return __IQNfrac(a, 21);
 341              		.loc 1 142 5 view .LVU82
 342              	.LBB80:
 343              	.LBI80:
  25:../Common/IQMath/ti/_IQNfrac.c **** {
 344              		.loc 1 25 30 view .LVU83
ARM GAS  C:\Users\57308\AppData\Local\Temp\ccC8ZPyf.s 			page 10


 345              	.LBB81:
  27:../Common/IQMath/ti/_IQNfrac.c ****     
 346              		.loc 1 27 5 view .LVU84
  29:../Common/IQMath/ti/_IQNfrac.c ****     
 347              		.loc 1 29 5 view .LVU85
  31:../Common/IQMath/ti/_IQNfrac.c **** }
 348              		.loc 1 31 5 view .LVU86
  31:../Common/IQMath/ti/_IQNfrac.c **** }
 349              		.loc 1 31 5 is_stmt 0 view .LVU87
 350              	.LBE81:
 351              	.LBE80:
 143:../Common/IQMath/ti/_IQNfrac.c **** }
 352              		.loc 1 143 1 view .LVU88
 353 0000 C0F31400 		ubfx	r0, r0, #0, #21
 354              	.LVL19:
 355              		.loc 1 143 1 view .LVU89
 356 0004 7047     		bx	lr
 357              		.cfi_endproc
 358              	.LFE271:
 360              		.section	.text._IQ20frac,"ax",%progbits
 361              		.align	1
 362              		.global	_IQ20frac
 363              		.syntax unified
 364              		.thumb
 365              		.thumb_func
 367              	_IQ20frac:
 368              	.LVL20:
 369              	.LFB272:
 144:../Common/IQMath/ti/_IQNfrac.c **** /**
 145:../Common/IQMath/ti/_IQNfrac.c ****  * @brief Return the fractional portion of an IQ20 input.
 146:../Common/IQMath/ti/_IQNfrac.c ****  *
 147:../Common/IQMath/ti/_IQNfrac.c ****  * @param a               IQ20 type input.
 148:../Common/IQMath/ti/_IQNfrac.c ****  *
 149:../Common/IQMath/ti/_IQNfrac.c ****  * @return                IQ20 type fractional portion of input.
 150:../Common/IQMath/ti/_IQNfrac.c ****  */
 151:../Common/IQMath/ti/_IQNfrac.c **** int32_t _IQ20frac(int32_t a)
 152:../Common/IQMath/ti/_IQNfrac.c **** {
 370              		.loc 1 152 1 is_stmt 1 view -0
 371              		.cfi_startproc
 372              		@ args = 0, pretend = 0, frame = 0
 373              		@ frame_needed = 0, uses_anonymous_args = 0
 374              		@ link register save eliminated.
 153:../Common/IQMath/ti/_IQNfrac.c ****     return __IQNfrac(a, 20);
 375              		.loc 1 153 5 view .LVU91
 376              	.LBB82:
 377              	.LBI82:
  25:../Common/IQMath/ti/_IQNfrac.c **** {
 378              		.loc 1 25 30 view .LVU92
 379              	.LBB83:
  27:../Common/IQMath/ti/_IQNfrac.c ****     
 380              		.loc 1 27 5 view .LVU93
  29:../Common/IQMath/ti/_IQNfrac.c ****     
 381              		.loc 1 29 5 view .LVU94
  31:../Common/IQMath/ti/_IQNfrac.c **** }
 382              		.loc 1 31 5 view .LVU95
  31:../Common/IQMath/ti/_IQNfrac.c **** }
 383              		.loc 1 31 5 is_stmt 0 view .LVU96
ARM GAS  C:\Users\57308\AppData\Local\Temp\ccC8ZPyf.s 			page 11


 384              	.LBE83:
 385              	.LBE82:
 154:../Common/IQMath/ti/_IQNfrac.c **** }
 386              		.loc 1 154 1 view .LVU97
 387 0000 C0F31300 		ubfx	r0, r0, #0, #20
 388              	.LVL21:
 389              		.loc 1 154 1 view .LVU98
 390 0004 7047     		bx	lr
 391              		.cfi_endproc
 392              	.LFE272:
 394              		.section	.text._IQ19frac,"ax",%progbits
 395              		.align	1
 396              		.global	_IQ19frac
 397              		.syntax unified
 398              		.thumb
 399              		.thumb_func
 401              	_IQ19frac:
 402              	.LVL22:
 403              	.LFB273:
 155:../Common/IQMath/ti/_IQNfrac.c **** /**
 156:../Common/IQMath/ti/_IQNfrac.c ****  * @brief Return the fractional portion of an IQ19 input.
 157:../Common/IQMath/ti/_IQNfrac.c ****  *
 158:../Common/IQMath/ti/_IQNfrac.c ****  * @param a               IQ19 type input.
 159:../Common/IQMath/ti/_IQNfrac.c ****  *
 160:../Common/IQMath/ti/_IQNfrac.c ****  * @return                IQ19 type fractional portion of input.
 161:../Common/IQMath/ti/_IQNfrac.c ****  */
 162:../Common/IQMath/ti/_IQNfrac.c **** int32_t _IQ19frac(int32_t a)
 163:../Common/IQMath/ti/_IQNfrac.c **** {
 404              		.loc 1 163 1 is_stmt 1 view -0
 405              		.cfi_startproc
 406              		@ args = 0, pretend = 0, frame = 0
 407              		@ frame_needed = 0, uses_anonymous_args = 0
 408              		@ link register save eliminated.
 164:../Common/IQMath/ti/_IQNfrac.c ****     return __IQNfrac(a, 19);
 409              		.loc 1 164 5 view .LVU100
 410              	.LBB84:
 411              	.LBI84:
  25:../Common/IQMath/ti/_IQNfrac.c **** {
 412              		.loc 1 25 30 view .LVU101
 413              	.LBB85:
  27:../Common/IQMath/ti/_IQNfrac.c ****     
 414              		.loc 1 27 5 view .LVU102
  29:../Common/IQMath/ti/_IQNfrac.c ****     
 415              		.loc 1 29 5 view .LVU103
  31:../Common/IQMath/ti/_IQNfrac.c **** }
 416              		.loc 1 31 5 view .LVU104
  31:../Common/IQMath/ti/_IQNfrac.c **** }
 417              		.loc 1 31 5 is_stmt 0 view .LVU105
 418              	.LBE85:
 419              	.LBE84:
 165:../Common/IQMath/ti/_IQNfrac.c **** }
 420              		.loc 1 165 1 view .LVU106
 421 0000 C0F31200 		ubfx	r0, r0, #0, #19
 422              	.LVL23:
 423              		.loc 1 165 1 view .LVU107
 424 0004 7047     		bx	lr
 425              		.cfi_endproc
ARM GAS  C:\Users\57308\AppData\Local\Temp\ccC8ZPyf.s 			page 12


 426              	.LFE273:
 428              		.section	.text._IQ18frac,"ax",%progbits
 429              		.align	1
 430              		.global	_IQ18frac
 431              		.syntax unified
 432              		.thumb
 433              		.thumb_func
 435              	_IQ18frac:
 436              	.LVL24:
 437              	.LFB274:
 166:../Common/IQMath/ti/_IQNfrac.c **** /**
 167:../Common/IQMath/ti/_IQNfrac.c ****  * @brief Return the fractional portion of an IQ18 input.
 168:../Common/IQMath/ti/_IQNfrac.c ****  *
 169:../Common/IQMath/ti/_IQNfrac.c ****  * @param a               IQ18 type input.
 170:../Common/IQMath/ti/_IQNfrac.c ****  *
 171:../Common/IQMath/ti/_IQNfrac.c ****  * @return                IQ18 type fractional portion of input.
 172:../Common/IQMath/ti/_IQNfrac.c ****  */
 173:../Common/IQMath/ti/_IQNfrac.c **** int32_t _IQ18frac(int32_t a)
 174:../Common/IQMath/ti/_IQNfrac.c **** {
 438              		.loc 1 174 1 is_stmt 1 view -0
 439              		.cfi_startproc
 440              		@ args = 0, pretend = 0, frame = 0
 441              		@ frame_needed = 0, uses_anonymous_args = 0
 442              		@ link register save eliminated.
 175:../Common/IQMath/ti/_IQNfrac.c ****     return __IQNfrac(a, 18);
 443              		.loc 1 175 5 view .LVU109
 444              	.LBB86:
 445              	.LBI86:
  25:../Common/IQMath/ti/_IQNfrac.c **** {
 446              		.loc 1 25 30 view .LVU110
 447              	.LBB87:
  27:../Common/IQMath/ti/_IQNfrac.c ****     
 448              		.loc 1 27 5 view .LVU111
  29:../Common/IQMath/ti/_IQNfrac.c ****     
 449              		.loc 1 29 5 view .LVU112
  31:../Common/IQMath/ti/_IQNfrac.c **** }
 450              		.loc 1 31 5 view .LVU113
  31:../Common/IQMath/ti/_IQNfrac.c **** }
 451              		.loc 1 31 5 is_stmt 0 view .LVU114
 452              	.LBE87:
 453              	.LBE86:
 176:../Common/IQMath/ti/_IQNfrac.c **** }
 454              		.loc 1 176 1 view .LVU115
 455 0000 C0F31100 		ubfx	r0, r0, #0, #18
 456              	.LVL25:
 457              		.loc 1 176 1 view .LVU116
 458 0004 7047     		bx	lr
 459              		.cfi_endproc
 460              	.LFE274:
 462              		.section	.text._IQ17frac,"ax",%progbits
 463              		.align	1
 464              		.global	_IQ17frac
 465              		.syntax unified
 466              		.thumb
 467              		.thumb_func
 469              	_IQ17frac:
 470              	.LVL26:
ARM GAS  C:\Users\57308\AppData\Local\Temp\ccC8ZPyf.s 			page 13


 471              	.LFB275:
 177:../Common/IQMath/ti/_IQNfrac.c **** /**
 178:../Common/IQMath/ti/_IQNfrac.c ****  * @brief Return the fractional portion of an IQ17 input.
 179:../Common/IQMath/ti/_IQNfrac.c ****  *
 180:../Common/IQMath/ti/_IQNfrac.c ****  * @param a               IQ17 type input.
 181:../Common/IQMath/ti/_IQNfrac.c ****  *
 182:../Common/IQMath/ti/_IQNfrac.c ****  * @return                IQ17 type fractional portion of input.
 183:../Common/IQMath/ti/_IQNfrac.c ****  */
 184:../Common/IQMath/ti/_IQNfrac.c **** int32_t _IQ17frac(int32_t a)
 185:../Common/IQMath/ti/_IQNfrac.c **** {
 472              		.loc 1 185 1 is_stmt 1 view -0
 473              		.cfi_startproc
 474              		@ args = 0, pretend = 0, frame = 0
 475              		@ frame_needed = 0, uses_anonymous_args = 0
 476              		@ link register save eliminated.
 186:../Common/IQMath/ti/_IQNfrac.c ****     return __IQNfrac(a, 17);
 477              		.loc 1 186 5 view .LVU118
 478              	.LBB88:
 479              	.LBI88:
  25:../Common/IQMath/ti/_IQNfrac.c **** {
 480              		.loc 1 25 30 view .LVU119
 481              	.LBB89:
  27:../Common/IQMath/ti/_IQNfrac.c ****     
 482              		.loc 1 27 5 view .LVU120
  29:../Common/IQMath/ti/_IQNfrac.c ****     
 483              		.loc 1 29 5 view .LVU121
  31:../Common/IQMath/ti/_IQNfrac.c **** }
 484              		.loc 1 31 5 view .LVU122
  31:../Common/IQMath/ti/_IQNfrac.c **** }
 485              		.loc 1 31 5 is_stmt 0 view .LVU123
 486              	.LBE89:
 487              	.LBE88:
 187:../Common/IQMath/ti/_IQNfrac.c **** }
 488              		.loc 1 187 1 view .LVU124
 489 0000 C0F31000 		ubfx	r0, r0, #0, #17
 490              	.LVL27:
 491              		.loc 1 187 1 view .LVU125
 492 0004 7047     		bx	lr
 493              		.cfi_endproc
 494              	.LFE275:
 496              		.section	.text._IQ16frac,"ax",%progbits
 497              		.align	1
 498              		.global	_IQ16frac
 499              		.syntax unified
 500              		.thumb
 501              		.thumb_func
 503              	_IQ16frac:
 504              	.LVL28:
 505              	.LFB276:
 188:../Common/IQMath/ti/_IQNfrac.c **** /**
 189:../Common/IQMath/ti/_IQNfrac.c ****  * @brief Return the fractional portion of an IQ16 input.
 190:../Common/IQMath/ti/_IQNfrac.c ****  *
 191:../Common/IQMath/ti/_IQNfrac.c ****  * @param a               IQ16 type input.
 192:../Common/IQMath/ti/_IQNfrac.c ****  *
 193:../Common/IQMath/ti/_IQNfrac.c ****  * @return                IQ16 type fractional portion of input.
 194:../Common/IQMath/ti/_IQNfrac.c ****  */
 195:../Common/IQMath/ti/_IQNfrac.c **** int32_t _IQ16frac(int32_t a)
ARM GAS  C:\Users\57308\AppData\Local\Temp\ccC8ZPyf.s 			page 14


 196:../Common/IQMath/ti/_IQNfrac.c **** {
 506              		.loc 1 196 1 is_stmt 1 view -0
 507              		.cfi_startproc
 508              		@ args = 0, pretend = 0, frame = 0
 509              		@ frame_needed = 0, uses_anonymous_args = 0
 510              		@ link register save eliminated.
 197:../Common/IQMath/ti/_IQNfrac.c ****     return __IQNfrac(a, 16);
 511              		.loc 1 197 5 view .LVU127
 512              	.LBB90:
 513              	.LBI90:
  25:../Common/IQMath/ti/_IQNfrac.c **** {
 514              		.loc 1 25 30 view .LVU128
 515              	.LBB91:
  27:../Common/IQMath/ti/_IQNfrac.c ****     
 516              		.loc 1 27 5 view .LVU129
  29:../Common/IQMath/ti/_IQNfrac.c ****     
 517              		.loc 1 29 5 view .LVU130
  31:../Common/IQMath/ti/_IQNfrac.c **** }
 518              		.loc 1 31 5 view .LVU131
  31:../Common/IQMath/ti/_IQNfrac.c **** }
 519              		.loc 1 31 5 is_stmt 0 view .LVU132
 520              	.LBE91:
 521              	.LBE90:
 198:../Common/IQMath/ti/_IQNfrac.c **** }
 522              		.loc 1 198 1 view .LVU133
 523 0000 80B2     		uxth	r0, r0
 524              	.LVL29:
 525              		.loc 1 198 1 view .LVU134
 526 0002 7047     		bx	lr
 527              		.cfi_endproc
 528              	.LFE276:
 530              		.section	.text._IQ15frac,"ax",%progbits
 531              		.align	1
 532              		.global	_IQ15frac
 533              		.syntax unified
 534              		.thumb
 535              		.thumb_func
 537              	_IQ15frac:
 538              	.LVL30:
 539              	.LFB277:
 199:../Common/IQMath/ti/_IQNfrac.c **** /**
 200:../Common/IQMath/ti/_IQNfrac.c ****  * @brief Return the fractional portion of an IQ15 input.
 201:../Common/IQMath/ti/_IQNfrac.c ****  *
 202:../Common/IQMath/ti/_IQNfrac.c ****  * @param a               IQ15 type input.
 203:../Common/IQMath/ti/_IQNfrac.c ****  *
 204:../Common/IQMath/ti/_IQNfrac.c ****  * @return                IQ15 type fractional portion of input.
 205:../Common/IQMath/ti/_IQNfrac.c ****  */
 206:../Common/IQMath/ti/_IQNfrac.c **** int32_t _IQ15frac(int32_t a)
 207:../Common/IQMath/ti/_IQNfrac.c **** {
 540              		.loc 1 207 1 is_stmt 1 view -0
 541              		.cfi_startproc
 542              		@ args = 0, pretend = 0, frame = 0
 543              		@ frame_needed = 0, uses_anonymous_args = 0
 544              		@ link register save eliminated.
 208:../Common/IQMath/ti/_IQNfrac.c ****     return __IQNfrac(a, 15);
 545              		.loc 1 208 5 view .LVU136
 546              	.LBB92:
ARM GAS  C:\Users\57308\AppData\Local\Temp\ccC8ZPyf.s 			page 15


 547              	.LBI92:
  25:../Common/IQMath/ti/_IQNfrac.c **** {
 548              		.loc 1 25 30 view .LVU137
 549              	.LBB93:
  27:../Common/IQMath/ti/_IQNfrac.c ****     
 550              		.loc 1 27 5 view .LVU138
  29:../Common/IQMath/ti/_IQNfrac.c ****     
 551              		.loc 1 29 5 view .LVU139
  31:../Common/IQMath/ti/_IQNfrac.c **** }
 552              		.loc 1 31 5 view .LVU140
  31:../Common/IQMath/ti/_IQNfrac.c **** }
 553              		.loc 1 31 5 is_stmt 0 view .LVU141
 554              	.LBE93:
 555              	.LBE92:
 209:../Common/IQMath/ti/_IQNfrac.c **** }
 556              		.loc 1 209 1 view .LVU142
 557 0000 C0F30E00 		ubfx	r0, r0, #0, #15
 558              	.LVL31:
 559              		.loc 1 209 1 view .LVU143
 560 0004 7047     		bx	lr
 561              		.cfi_endproc
 562              	.LFE277:
 564              		.section	.text._IQ14frac,"ax",%progbits
 565              		.align	1
 566              		.global	_IQ14frac
 567              		.syntax unified
 568              		.thumb
 569              		.thumb_func
 571              	_IQ14frac:
 572              	.LVL32:
 573              	.LFB278:
 210:../Common/IQMath/ti/_IQNfrac.c **** /**
 211:../Common/IQMath/ti/_IQNfrac.c ****  * @brief Return the fractional portion of an IQ14 input.
 212:../Common/IQMath/ti/_IQNfrac.c ****  *
 213:../Common/IQMath/ti/_IQNfrac.c ****  * @param a               IQ14 type input.
 214:../Common/IQMath/ti/_IQNfrac.c ****  *
 215:../Common/IQMath/ti/_IQNfrac.c ****  * @return                IQ14 type fractional portion of input.
 216:../Common/IQMath/ti/_IQNfrac.c ****  */
 217:../Common/IQMath/ti/_IQNfrac.c **** int32_t _IQ14frac(int32_t a)
 218:../Common/IQMath/ti/_IQNfrac.c **** {
 574              		.loc 1 218 1 is_stmt 1 view -0
 575              		.cfi_startproc
 576              		@ args = 0, pretend = 0, frame = 0
 577              		@ frame_needed = 0, uses_anonymous_args = 0
 578              		@ link register save eliminated.
 219:../Common/IQMath/ti/_IQNfrac.c ****     return __IQNfrac(a, 14);
 579              		.loc 1 219 5 view .LVU145
 580              	.LBB94:
 581              	.LBI94:
  25:../Common/IQMath/ti/_IQNfrac.c **** {
 582              		.loc 1 25 30 view .LVU146
 583              	.LBB95:
  27:../Common/IQMath/ti/_IQNfrac.c ****     
 584              		.loc 1 27 5 view .LVU147
  29:../Common/IQMath/ti/_IQNfrac.c ****     
 585              		.loc 1 29 5 view .LVU148
  31:../Common/IQMath/ti/_IQNfrac.c **** }
ARM GAS  C:\Users\57308\AppData\Local\Temp\ccC8ZPyf.s 			page 16


 586              		.loc 1 31 5 view .LVU149
  31:../Common/IQMath/ti/_IQNfrac.c **** }
 587              		.loc 1 31 5 is_stmt 0 view .LVU150
 588              	.LBE95:
 589              	.LBE94:
 220:../Common/IQMath/ti/_IQNfrac.c **** }
 590              		.loc 1 220 1 view .LVU151
 591 0000 C0F30D00 		ubfx	r0, r0, #0, #14
 592              	.LVL33:
 593              		.loc 1 220 1 view .LVU152
 594 0004 7047     		bx	lr
 595              		.cfi_endproc
 596              	.LFE278:
 598              		.section	.text._IQ13frac,"ax",%progbits
 599              		.align	1
 600              		.global	_IQ13frac
 601              		.syntax unified
 602              		.thumb
 603              		.thumb_func
 605              	_IQ13frac:
 606              	.LVL34:
 607              	.LFB279:
 221:../Common/IQMath/ti/_IQNfrac.c **** /**
 222:../Common/IQMath/ti/_IQNfrac.c ****  * @brief Return the fractional portion of an IQ13 input.
 223:../Common/IQMath/ti/_IQNfrac.c ****  *
 224:../Common/IQMath/ti/_IQNfrac.c ****  * @param a               IQ13 type input.
 225:../Common/IQMath/ti/_IQNfrac.c ****  *
 226:../Common/IQMath/ti/_IQNfrac.c ****  * @return                IQ13 type fractional portion of input.
 227:../Common/IQMath/ti/_IQNfrac.c ****  */
 228:../Common/IQMath/ti/_IQNfrac.c **** int32_t _IQ13frac(int32_t a)
 229:../Common/IQMath/ti/_IQNfrac.c **** {
 608              		.loc 1 229 1 is_stmt 1 view -0
 609              		.cfi_startproc
 610              		@ args = 0, pretend = 0, frame = 0
 611              		@ frame_needed = 0, uses_anonymous_args = 0
 612              		@ link register save eliminated.
 230:../Common/IQMath/ti/_IQNfrac.c ****     return __IQNfrac(a, 13);
 613              		.loc 1 230 5 view .LVU154
 614              	.LBB96:
 615              	.LBI96:
  25:../Common/IQMath/ti/_IQNfrac.c **** {
 616              		.loc 1 25 30 view .LVU155
 617              	.LBB97:
  27:../Common/IQMath/ti/_IQNfrac.c ****     
 618              		.loc 1 27 5 view .LVU156
  29:../Common/IQMath/ti/_IQNfrac.c ****     
 619              		.loc 1 29 5 view .LVU157
  31:../Common/IQMath/ti/_IQNfrac.c **** }
 620              		.loc 1 31 5 view .LVU158
  31:../Common/IQMath/ti/_IQNfrac.c **** }
 621              		.loc 1 31 5 is_stmt 0 view .LVU159
 622              	.LBE97:
 623              	.LBE96:
 231:../Common/IQMath/ti/_IQNfrac.c **** }
 624              		.loc 1 231 1 view .LVU160
 625 0000 C0F30C00 		ubfx	r0, r0, #0, #13
 626              	.LVL35:
ARM GAS  C:\Users\57308\AppData\Local\Temp\ccC8ZPyf.s 			page 17


 627              		.loc 1 231 1 view .LVU161
 628 0004 7047     		bx	lr
 629              		.cfi_endproc
 630              	.LFE279:
 632              		.section	.text._IQ12frac,"ax",%progbits
 633              		.align	1
 634              		.global	_IQ12frac
 635              		.syntax unified
 636              		.thumb
 637              		.thumb_func
 639              	_IQ12frac:
 640              	.LVL36:
 641              	.LFB280:
 232:../Common/IQMath/ti/_IQNfrac.c **** /**
 233:../Common/IQMath/ti/_IQNfrac.c ****  * @brief Return the fractional portion of an IQ12 input.
 234:../Common/IQMath/ti/_IQNfrac.c ****  *
 235:../Common/IQMath/ti/_IQNfrac.c ****  * @param a               IQ12 type input.
 236:../Common/IQMath/ti/_IQNfrac.c ****  *
 237:../Common/IQMath/ti/_IQNfrac.c ****  * @return                IQ12 type fractional portion of input.
 238:../Common/IQMath/ti/_IQNfrac.c ****  */
 239:../Common/IQMath/ti/_IQNfrac.c **** int32_t _IQ12frac(int32_t a)
 240:../Common/IQMath/ti/_IQNfrac.c **** {
 642              		.loc 1 240 1 is_stmt 1 view -0
 643              		.cfi_startproc
 644              		@ args = 0, pretend = 0, frame = 0
 645              		@ frame_needed = 0, uses_anonymous_args = 0
 646              		@ link register save eliminated.
 241:../Common/IQMath/ti/_IQNfrac.c ****     return __IQNfrac(a, 12);
 647              		.loc 1 241 5 view .LVU163
 648              	.LBB98:
 649              	.LBI98:
  25:../Common/IQMath/ti/_IQNfrac.c **** {
 650              		.loc 1 25 30 view .LVU164
 651              	.LBB99:
  27:../Common/IQMath/ti/_IQNfrac.c ****     
 652              		.loc 1 27 5 view .LVU165
  29:../Common/IQMath/ti/_IQNfrac.c ****     
 653              		.loc 1 29 5 view .LVU166
  31:../Common/IQMath/ti/_IQNfrac.c **** }
 654              		.loc 1 31 5 view .LVU167
  31:../Common/IQMath/ti/_IQNfrac.c **** }
 655              		.loc 1 31 5 is_stmt 0 view .LVU168
 656              	.LBE99:
 657              	.LBE98:
 242:../Common/IQMath/ti/_IQNfrac.c **** }
 658              		.loc 1 242 1 view .LVU169
 659 0000 C0F30B00 		ubfx	r0, r0, #0, #12
 660              	.LVL37:
 661              		.loc 1 242 1 view .LVU170
 662 0004 7047     		bx	lr
 663              		.cfi_endproc
 664              	.LFE280:
 666              		.section	.text._IQ11frac,"ax",%progbits
 667              		.align	1
 668              		.global	_IQ11frac
 669              		.syntax unified
 670              		.thumb
ARM GAS  C:\Users\57308\AppData\Local\Temp\ccC8ZPyf.s 			page 18


 671              		.thumb_func
 673              	_IQ11frac:
 674              	.LVL38:
 675              	.LFB281:
 243:../Common/IQMath/ti/_IQNfrac.c **** /**
 244:../Common/IQMath/ti/_IQNfrac.c ****  * @brief Return the fractional portion of an IQ11 input.
 245:../Common/IQMath/ti/_IQNfrac.c ****  *
 246:../Common/IQMath/ti/_IQNfrac.c ****  * @param a               IQ11 type input.
 247:../Common/IQMath/ti/_IQNfrac.c ****  *
 248:../Common/IQMath/ti/_IQNfrac.c ****  * @return                IQ11 type fractional portion of input.
 249:../Common/IQMath/ti/_IQNfrac.c ****  */
 250:../Common/IQMath/ti/_IQNfrac.c **** int32_t _IQ11frac(int32_t a)
 251:../Common/IQMath/ti/_IQNfrac.c **** {
 676              		.loc 1 251 1 is_stmt 1 view -0
 677              		.cfi_startproc
 678              		@ args = 0, pretend = 0, frame = 0
 679              		@ frame_needed = 0, uses_anonymous_args = 0
 680              		@ link register save eliminated.
 252:../Common/IQMath/ti/_IQNfrac.c ****     return __IQNfrac(a, 11);
 681              		.loc 1 252 5 view .LVU172
 682              	.LBB100:
 683              	.LBI100:
  25:../Common/IQMath/ti/_IQNfrac.c **** {
 684              		.loc 1 25 30 view .LVU173
 685              	.LBB101:
  27:../Common/IQMath/ti/_IQNfrac.c ****     
 686              		.loc 1 27 5 view .LVU174
  29:../Common/IQMath/ti/_IQNfrac.c ****     
 687              		.loc 1 29 5 view .LVU175
  31:../Common/IQMath/ti/_IQNfrac.c **** }
 688              		.loc 1 31 5 view .LVU176
  31:../Common/IQMath/ti/_IQNfrac.c **** }
 689              		.loc 1 31 5 is_stmt 0 view .LVU177
 690              	.LBE101:
 691              	.LBE100:
 253:../Common/IQMath/ti/_IQNfrac.c **** }
 692              		.loc 1 253 1 view .LVU178
 693 0000 C0F30A00 		ubfx	r0, r0, #0, #11
 694              	.LVL39:
 695              		.loc 1 253 1 view .LVU179
 696 0004 7047     		bx	lr
 697              		.cfi_endproc
 698              	.LFE281:
 700              		.section	.text._IQ10frac,"ax",%progbits
 701              		.align	1
 702              		.global	_IQ10frac
 703              		.syntax unified
 704              		.thumb
 705              		.thumb_func
 707              	_IQ10frac:
 708              	.LVL40:
 709              	.LFB282:
 254:../Common/IQMath/ti/_IQNfrac.c **** /**
 255:../Common/IQMath/ti/_IQNfrac.c ****  * @brief Return the fractional portion of an IQ10 input.
 256:../Common/IQMath/ti/_IQNfrac.c ****  *
 257:../Common/IQMath/ti/_IQNfrac.c ****  * @param a               IQ10 type input.
 258:../Common/IQMath/ti/_IQNfrac.c ****  *
ARM GAS  C:\Users\57308\AppData\Local\Temp\ccC8ZPyf.s 			page 19


 259:../Common/IQMath/ti/_IQNfrac.c ****  * @return                IQ10 type fractional portion of input.
 260:../Common/IQMath/ti/_IQNfrac.c ****  */
 261:../Common/IQMath/ti/_IQNfrac.c **** int32_t _IQ10frac(int32_t a)
 262:../Common/IQMath/ti/_IQNfrac.c **** {
 710              		.loc 1 262 1 is_stmt 1 view -0
 711              		.cfi_startproc
 712              		@ args = 0, pretend = 0, frame = 0
 713              		@ frame_needed = 0, uses_anonymous_args = 0
 714              		@ link register save eliminated.
 263:../Common/IQMath/ti/_IQNfrac.c ****     return __IQNfrac(a, 10);
 715              		.loc 1 263 5 view .LVU181
 716              	.LBB102:
 717              	.LBI102:
  25:../Common/IQMath/ti/_IQNfrac.c **** {
 718              		.loc 1 25 30 view .LVU182
 719              	.LBB103:
  27:../Common/IQMath/ti/_IQNfrac.c ****     
 720              		.loc 1 27 5 view .LVU183
  29:../Common/IQMath/ti/_IQNfrac.c ****     
 721              		.loc 1 29 5 view .LVU184
  31:../Common/IQMath/ti/_IQNfrac.c **** }
 722              		.loc 1 31 5 view .LVU185
  31:../Common/IQMath/ti/_IQNfrac.c **** }
 723              		.loc 1 31 5 is_stmt 0 view .LVU186
 724              	.LBE103:
 725              	.LBE102:
 264:../Common/IQMath/ti/_IQNfrac.c **** }
 726              		.loc 1 264 1 view .LVU187
 727 0000 C0F30900 		ubfx	r0, r0, #0, #10
 728              	.LVL41:
 729              		.loc 1 264 1 view .LVU188
 730 0004 7047     		bx	lr
 731              		.cfi_endproc
 732              	.LFE282:
 734              		.section	.text._IQ9frac,"ax",%progbits
 735              		.align	1
 736              		.global	_IQ9frac
 737              		.syntax unified
 738              		.thumb
 739              		.thumb_func
 741              	_IQ9frac:
 742              	.LVL42:
 743              	.LFB283:
 265:../Common/IQMath/ti/_IQNfrac.c **** /**
 266:../Common/IQMath/ti/_IQNfrac.c ****  * @brief Return the fractional portion of an IQ9 input.
 267:../Common/IQMath/ti/_IQNfrac.c ****  *
 268:../Common/IQMath/ti/_IQNfrac.c ****  * @param a               IQ9 type input.
 269:../Common/IQMath/ti/_IQNfrac.c ****  *
 270:../Common/IQMath/ti/_IQNfrac.c ****  * @return                IQ9 type fractional portion of input.
 271:../Common/IQMath/ti/_IQNfrac.c ****  */
 272:../Common/IQMath/ti/_IQNfrac.c **** int32_t _IQ9frac(int32_t a)
 273:../Common/IQMath/ti/_IQNfrac.c **** {
 744              		.loc 1 273 1 is_stmt 1 view -0
 745              		.cfi_startproc
 746              		@ args = 0, pretend = 0, frame = 0
 747              		@ frame_needed = 0, uses_anonymous_args = 0
 748              		@ link register save eliminated.
ARM GAS  C:\Users\57308\AppData\Local\Temp\ccC8ZPyf.s 			page 20


 274:../Common/IQMath/ti/_IQNfrac.c ****     return __IQNfrac(a, 9);
 749              		.loc 1 274 5 view .LVU190
 750              	.LBB104:
 751              	.LBI104:
  25:../Common/IQMath/ti/_IQNfrac.c **** {
 752              		.loc 1 25 30 view .LVU191
 753              	.LBB105:
  27:../Common/IQMath/ti/_IQNfrac.c ****     
 754              		.loc 1 27 5 view .LVU192
  29:../Common/IQMath/ti/_IQNfrac.c ****     
 755              		.loc 1 29 5 view .LVU193
  31:../Common/IQMath/ti/_IQNfrac.c **** }
 756              		.loc 1 31 5 view .LVU194
  31:../Common/IQMath/ti/_IQNfrac.c **** }
 757              		.loc 1 31 5 is_stmt 0 view .LVU195
 758              	.LBE105:
 759              	.LBE104:
 275:../Common/IQMath/ti/_IQNfrac.c **** }
 760              		.loc 1 275 1 view .LVU196
 761 0000 C0F30800 		ubfx	r0, r0, #0, #9
 762              	.LVL43:
 763              		.loc 1 275 1 view .LVU197
 764 0004 7047     		bx	lr
 765              		.cfi_endproc
 766              	.LFE283:
 768              		.section	.text._IQ8frac,"ax",%progbits
 769              		.align	1
 770              		.global	_IQ8frac
 771              		.syntax unified
 772              		.thumb
 773              		.thumb_func
 775              	_IQ8frac:
 776              	.LVL44:
 777              	.LFB284:
 276:../Common/IQMath/ti/_IQNfrac.c **** /**
 277:../Common/IQMath/ti/_IQNfrac.c ****  * @brief Return the fractional portion of an IQ8 input.
 278:../Common/IQMath/ti/_IQNfrac.c ****  *
 279:../Common/IQMath/ti/_IQNfrac.c ****  * @param a               IQ8 type input.
 280:../Common/IQMath/ti/_IQNfrac.c ****  *
 281:../Common/IQMath/ti/_IQNfrac.c ****  * @return                IQ8 type fractional portion of input.
 282:../Common/IQMath/ti/_IQNfrac.c ****  */
 283:../Common/IQMath/ti/_IQNfrac.c **** int32_t _IQ8frac(int32_t a)
 284:../Common/IQMath/ti/_IQNfrac.c **** {
 778              		.loc 1 284 1 is_stmt 1 view -0
 779              		.cfi_startproc
 780              		@ args = 0, pretend = 0, frame = 0
 781              		@ frame_needed = 0, uses_anonymous_args = 0
 782              		@ link register save eliminated.
 285:../Common/IQMath/ti/_IQNfrac.c ****     return __IQNfrac(a, 8);
 783              		.loc 1 285 5 view .LVU199
 784              	.LBB106:
 785              	.LBI106:
  25:../Common/IQMath/ti/_IQNfrac.c **** {
 786              		.loc 1 25 30 view .LVU200
 787              	.LBB107:
  27:../Common/IQMath/ti/_IQNfrac.c ****     
 788              		.loc 1 27 5 view .LVU201
ARM GAS  C:\Users\57308\AppData\Local\Temp\ccC8ZPyf.s 			page 21


  29:../Common/IQMath/ti/_IQNfrac.c ****     
 789              		.loc 1 29 5 view .LVU202
  31:../Common/IQMath/ti/_IQNfrac.c **** }
 790              		.loc 1 31 5 view .LVU203
  31:../Common/IQMath/ti/_IQNfrac.c **** }
 791              		.loc 1 31 5 is_stmt 0 view .LVU204
 792              	.LBE107:
 793              	.LBE106:
 286:../Common/IQMath/ti/_IQNfrac.c **** }
 794              		.loc 1 286 1 view .LVU205
 795 0000 C0B2     		uxtb	r0, r0
 796              	.LVL45:
 797              		.loc 1 286 1 view .LVU206
 798 0002 7047     		bx	lr
 799              		.cfi_endproc
 800              	.LFE284:
 802              		.section	.text._IQ7frac,"ax",%progbits
 803              		.align	1
 804              		.global	_IQ7frac
 805              		.syntax unified
 806              		.thumb
 807              		.thumb_func
 809              	_IQ7frac:
 810              	.LVL46:
 811              	.LFB285:
 287:../Common/IQMath/ti/_IQNfrac.c **** /**
 288:../Common/IQMath/ti/_IQNfrac.c ****  * @brief Return the fractional portion of an IQ7 input.
 289:../Common/IQMath/ti/_IQNfrac.c ****  *
 290:../Common/IQMath/ti/_IQNfrac.c ****  * @param a               IQ7 type input.
 291:../Common/IQMath/ti/_IQNfrac.c ****  *
 292:../Common/IQMath/ti/_IQNfrac.c ****  * @return                IQ7 type fractional portion of input.
 293:../Common/IQMath/ti/_IQNfrac.c ****  */
 294:../Common/IQMath/ti/_IQNfrac.c **** int32_t _IQ7frac(int32_t a)
 295:../Common/IQMath/ti/_IQNfrac.c **** {
 812              		.loc 1 295 1 is_stmt 1 view -0
 813              		.cfi_startproc
 814              		@ args = 0, pretend = 0, frame = 0
 815              		@ frame_needed = 0, uses_anonymous_args = 0
 816              		@ link register save eliminated.
 296:../Common/IQMath/ti/_IQNfrac.c ****     return __IQNfrac(a, 7);
 817              		.loc 1 296 5 view .LVU208
 818              	.LBB108:
 819              	.LBI108:
  25:../Common/IQMath/ti/_IQNfrac.c **** {
 820              		.loc 1 25 30 view .LVU209
 821              	.LBB109:
  27:../Common/IQMath/ti/_IQNfrac.c ****     
 822              		.loc 1 27 5 view .LVU210
  29:../Common/IQMath/ti/_IQNfrac.c ****     
 823              		.loc 1 29 5 view .LVU211
  31:../Common/IQMath/ti/_IQNfrac.c **** }
 824              		.loc 1 31 5 view .LVU212
  31:../Common/IQMath/ti/_IQNfrac.c **** }
 825              		.loc 1 31 5 is_stmt 0 view .LVU213
 826              	.LBE109:
 827              	.LBE108:
 297:../Common/IQMath/ti/_IQNfrac.c **** }
ARM GAS  C:\Users\57308\AppData\Local\Temp\ccC8ZPyf.s 			page 22


 828              		.loc 1 297 1 view .LVU214
 829 0000 00F07F00 		and	r0, r0, #127
 830              	.LVL47:
 831              		.loc 1 297 1 view .LVU215
 832 0004 7047     		bx	lr
 833              		.cfi_endproc
 834              	.LFE285:
 836              		.section	.text._IQ6frac,"ax",%progbits
 837              		.align	1
 838              		.global	_IQ6frac
 839              		.syntax unified
 840              		.thumb
 841              		.thumb_func
 843              	_IQ6frac:
 844              	.LVL48:
 845              	.LFB286:
 298:../Common/IQMath/ti/_IQNfrac.c **** /**
 299:../Common/IQMath/ti/_IQNfrac.c ****  * @brief Return the fractional portion of an IQ6 input.
 300:../Common/IQMath/ti/_IQNfrac.c ****  *
 301:../Common/IQMath/ti/_IQNfrac.c ****  * @param a               IQ6 type input.
 302:../Common/IQMath/ti/_IQNfrac.c ****  *
 303:../Common/IQMath/ti/_IQNfrac.c ****  * @return                IQ6 type fractional portion of input.
 304:../Common/IQMath/ti/_IQNfrac.c ****  */
 305:../Common/IQMath/ti/_IQNfrac.c **** int32_t _IQ6frac(int32_t a)
 306:../Common/IQMath/ti/_IQNfrac.c **** {
 846              		.loc 1 306 1 is_stmt 1 view -0
 847              		.cfi_startproc
 848              		@ args = 0, pretend = 0, frame = 0
 849              		@ frame_needed = 0, uses_anonymous_args = 0
 850              		@ link register save eliminated.
 307:../Common/IQMath/ti/_IQNfrac.c ****     return __IQNfrac(a, 6);
 851              		.loc 1 307 5 view .LVU217
 852              	.LBB110:
 853              	.LBI110:
  25:../Common/IQMath/ti/_IQNfrac.c **** {
 854              		.loc 1 25 30 view .LVU218
 855              	.LBB111:
  27:../Common/IQMath/ti/_IQNfrac.c ****     
 856              		.loc 1 27 5 view .LVU219
  29:../Common/IQMath/ti/_IQNfrac.c ****     
 857              		.loc 1 29 5 view .LVU220
  31:../Common/IQMath/ti/_IQNfrac.c **** }
 858              		.loc 1 31 5 view .LVU221
  31:../Common/IQMath/ti/_IQNfrac.c **** }
 859              		.loc 1 31 5 is_stmt 0 view .LVU222
 860              	.LBE111:
 861              	.LBE110:
 308:../Common/IQMath/ti/_IQNfrac.c **** }
 862              		.loc 1 308 1 view .LVU223
 863 0000 00F03F00 		and	r0, r0, #63
 864              	.LVL49:
 865              		.loc 1 308 1 view .LVU224
 866 0004 7047     		bx	lr
 867              		.cfi_endproc
 868              	.LFE286:
 870              		.section	.text._IQ5frac,"ax",%progbits
 871              		.align	1
ARM GAS  C:\Users\57308\AppData\Local\Temp\ccC8ZPyf.s 			page 23


 872              		.global	_IQ5frac
 873              		.syntax unified
 874              		.thumb
 875              		.thumb_func
 877              	_IQ5frac:
 878              	.LVL50:
 879              	.LFB287:
 309:../Common/IQMath/ti/_IQNfrac.c **** /**
 310:../Common/IQMath/ti/_IQNfrac.c ****  * @brief Return the fractional portion of an IQ5 input.
 311:../Common/IQMath/ti/_IQNfrac.c ****  *
 312:../Common/IQMath/ti/_IQNfrac.c ****  * @param a               IQ5 type input.
 313:../Common/IQMath/ti/_IQNfrac.c ****  *
 314:../Common/IQMath/ti/_IQNfrac.c ****  * @return                IQ5 type fractional portion of input.
 315:../Common/IQMath/ti/_IQNfrac.c ****  */
 316:../Common/IQMath/ti/_IQNfrac.c **** int32_t _IQ5frac(int32_t a)
 317:../Common/IQMath/ti/_IQNfrac.c **** {
 880              		.loc 1 317 1 is_stmt 1 view -0
 881              		.cfi_startproc
 882              		@ args = 0, pretend = 0, frame = 0
 883              		@ frame_needed = 0, uses_anonymous_args = 0
 884              		@ link register save eliminated.
 318:../Common/IQMath/ti/_IQNfrac.c ****     return __IQNfrac(a, 5);
 885              		.loc 1 318 5 view .LVU226
 886              	.LBB112:
 887              	.LBI112:
  25:../Common/IQMath/ti/_IQNfrac.c **** {
 888              		.loc 1 25 30 view .LVU227
 889              	.LBB113:
  27:../Common/IQMath/ti/_IQNfrac.c ****     
 890              		.loc 1 27 5 view .LVU228
  29:../Common/IQMath/ti/_IQNfrac.c ****     
 891              		.loc 1 29 5 view .LVU229
  31:../Common/IQMath/ti/_IQNfrac.c **** }
 892              		.loc 1 31 5 view .LVU230
  31:../Common/IQMath/ti/_IQNfrac.c **** }
 893              		.loc 1 31 5 is_stmt 0 view .LVU231
 894              	.LBE113:
 895              	.LBE112:
 319:../Common/IQMath/ti/_IQNfrac.c **** }
 896              		.loc 1 319 1 view .LVU232
 897 0000 00F01F00 		and	r0, r0, #31
 898              	.LVL51:
 899              		.loc 1 319 1 view .LVU233
 900 0004 7047     		bx	lr
 901              		.cfi_endproc
 902              	.LFE287:
 904              		.section	.text._IQ4frac,"ax",%progbits
 905              		.align	1
 906              		.global	_IQ4frac
 907              		.syntax unified
 908              		.thumb
 909              		.thumb_func
 911              	_IQ4frac:
 912              	.LVL52:
 913              	.LFB288:
 320:../Common/IQMath/ti/_IQNfrac.c **** /**
 321:../Common/IQMath/ti/_IQNfrac.c ****  * @brief Return the fractional portion of an IQ4 input.
ARM GAS  C:\Users\57308\AppData\Local\Temp\ccC8ZPyf.s 			page 24


 322:../Common/IQMath/ti/_IQNfrac.c ****  *
 323:../Common/IQMath/ti/_IQNfrac.c ****  * @param a               IQ4 type input.
 324:../Common/IQMath/ti/_IQNfrac.c ****  *
 325:../Common/IQMath/ti/_IQNfrac.c ****  * @return                IQ4 type fractional portion of input.
 326:../Common/IQMath/ti/_IQNfrac.c ****  */
 327:../Common/IQMath/ti/_IQNfrac.c **** int32_t _IQ4frac(int32_t a)
 328:../Common/IQMath/ti/_IQNfrac.c **** {
 914              		.loc 1 328 1 is_stmt 1 view -0
 915              		.cfi_startproc
 916              		@ args = 0, pretend = 0, frame = 0
 917              		@ frame_needed = 0, uses_anonymous_args = 0
 918              		@ link register save eliminated.
 329:../Common/IQMath/ti/_IQNfrac.c ****     return __IQNfrac(a, 4);
 919              		.loc 1 329 5 view .LVU235
 920              	.LBB114:
 921              	.LBI114:
  25:../Common/IQMath/ti/_IQNfrac.c **** {
 922              		.loc 1 25 30 view .LVU236
 923              	.LBB115:
  27:../Common/IQMath/ti/_IQNfrac.c ****     
 924              		.loc 1 27 5 view .LVU237
  29:../Common/IQMath/ti/_IQNfrac.c ****     
 925              		.loc 1 29 5 view .LVU238
  31:../Common/IQMath/ti/_IQNfrac.c **** }
 926              		.loc 1 31 5 view .LVU239
  31:../Common/IQMath/ti/_IQNfrac.c **** }
 927              		.loc 1 31 5 is_stmt 0 view .LVU240
 928              	.LBE115:
 929              	.LBE114:
 330:../Common/IQMath/ti/_IQNfrac.c **** }
 930              		.loc 1 330 1 view .LVU241
 931 0000 00F00F00 		and	r0, r0, #15
 932              	.LVL53:
 933              		.loc 1 330 1 view .LVU242
 934 0004 7047     		bx	lr
 935              		.cfi_endproc
 936              	.LFE288:
 938              		.section	.text._IQ3frac,"ax",%progbits
 939              		.align	1
 940              		.global	_IQ3frac
 941              		.syntax unified
 942              		.thumb
 943              		.thumb_func
 945              	_IQ3frac:
 946              	.LVL54:
 947              	.LFB289:
 331:../Common/IQMath/ti/_IQNfrac.c **** /**
 332:../Common/IQMath/ti/_IQNfrac.c ****  * @brief Return the fractional portion of an IQ3 input.
 333:../Common/IQMath/ti/_IQNfrac.c ****  *
 334:../Common/IQMath/ti/_IQNfrac.c ****  * @param a               IQ3 type input.
 335:../Common/IQMath/ti/_IQNfrac.c ****  *
 336:../Common/IQMath/ti/_IQNfrac.c ****  * @return                IQ3 type fractional portion of input.
 337:../Common/IQMath/ti/_IQNfrac.c ****  */
 338:../Common/IQMath/ti/_IQNfrac.c **** int32_t _IQ3frac(int32_t a)
 339:../Common/IQMath/ti/_IQNfrac.c **** {
 948              		.loc 1 339 1 is_stmt 1 view -0
 949              		.cfi_startproc
ARM GAS  C:\Users\57308\AppData\Local\Temp\ccC8ZPyf.s 			page 25


 950              		@ args = 0, pretend = 0, frame = 0
 951              		@ frame_needed = 0, uses_anonymous_args = 0
 952              		@ link register save eliminated.
 340:../Common/IQMath/ti/_IQNfrac.c ****     return __IQNfrac(a, 3);
 953              		.loc 1 340 5 view .LVU244
 954              	.LBB116:
 955              	.LBI116:
  25:../Common/IQMath/ti/_IQNfrac.c **** {
 956              		.loc 1 25 30 view .LVU245
 957              	.LBB117:
  27:../Common/IQMath/ti/_IQNfrac.c ****     
 958              		.loc 1 27 5 view .LVU246
  29:../Common/IQMath/ti/_IQNfrac.c ****     
 959              		.loc 1 29 5 view .LVU247
  31:../Common/IQMath/ti/_IQNfrac.c **** }
 960              		.loc 1 31 5 view .LVU248
  31:../Common/IQMath/ti/_IQNfrac.c **** }
 961              		.loc 1 31 5 is_stmt 0 view .LVU249
 962              	.LBE117:
 963              	.LBE116:
 341:../Common/IQMath/ti/_IQNfrac.c **** }
 964              		.loc 1 341 1 view .LVU250
 965 0000 00F00700 		and	r0, r0, #7
 966              	.LVL55:
 967              		.loc 1 341 1 view .LVU251
 968 0004 7047     		bx	lr
 969              		.cfi_endproc
 970              	.LFE289:
 972              		.section	.text._IQ2frac,"ax",%progbits
 973              		.align	1
 974              		.global	_IQ2frac
 975              		.syntax unified
 976              		.thumb
 977              		.thumb_func
 979              	_IQ2frac:
 980              	.LVL56:
 981              	.LFB290:
 342:../Common/IQMath/ti/_IQNfrac.c **** /**
 343:../Common/IQMath/ti/_IQNfrac.c ****  * @brief Return the fractional portion of an IQ2 input.
 344:../Common/IQMath/ti/_IQNfrac.c ****  *
 345:../Common/IQMath/ti/_IQNfrac.c ****  * @param a               IQ2 type input.
 346:../Common/IQMath/ti/_IQNfrac.c ****  *
 347:../Common/IQMath/ti/_IQNfrac.c ****  * @return                IQ2 type fractional portion of input.
 348:../Common/IQMath/ti/_IQNfrac.c ****  */
 349:../Common/IQMath/ti/_IQNfrac.c **** int32_t _IQ2frac(int32_t a)
 350:../Common/IQMath/ti/_IQNfrac.c **** {
 982              		.loc 1 350 1 is_stmt 1 view -0
 983              		.cfi_startproc
 984              		@ args = 0, pretend = 0, frame = 0
 985              		@ frame_needed = 0, uses_anonymous_args = 0
 986              		@ link register save eliminated.
 351:../Common/IQMath/ti/_IQNfrac.c ****     return __IQNfrac(a, 2);
 987              		.loc 1 351 5 view .LVU253
 988              	.LBB118:
 989              	.LBI118:
  25:../Common/IQMath/ti/_IQNfrac.c **** {
 990              		.loc 1 25 30 view .LVU254
ARM GAS  C:\Users\57308\AppData\Local\Temp\ccC8ZPyf.s 			page 26


 991              	.LBB119:
  27:../Common/IQMath/ti/_IQNfrac.c ****     
 992              		.loc 1 27 5 view .LVU255
  29:../Common/IQMath/ti/_IQNfrac.c ****     
 993              		.loc 1 29 5 view .LVU256
  31:../Common/IQMath/ti/_IQNfrac.c **** }
 994              		.loc 1 31 5 view .LVU257
  31:../Common/IQMath/ti/_IQNfrac.c **** }
 995              		.loc 1 31 5 is_stmt 0 view .LVU258
 996              	.LBE119:
 997              	.LBE118:
 352:../Common/IQMath/ti/_IQNfrac.c **** }
 998              		.loc 1 352 1 view .LVU259
 999 0000 00F00300 		and	r0, r0, #3
 1000              	.LVL57:
 1001              		.loc 1 352 1 view .LVU260
 1002 0004 7047     		bx	lr
 1003              		.cfi_endproc
 1004              	.LFE290:
 1006              		.section	.text._IQ1frac,"ax",%progbits
 1007              		.align	1
 1008              		.global	_IQ1frac
 1009              		.syntax unified
 1010              		.thumb
 1011              		.thumb_func
 1013              	_IQ1frac:
 1014              	.LVL58:
 1015              	.LFB291:
 353:../Common/IQMath/ti/_IQNfrac.c **** /**
 354:../Common/IQMath/ti/_IQNfrac.c ****  * @brief Return the fractional portion of an IQ1 input.
 355:../Common/IQMath/ti/_IQNfrac.c ****  *
 356:../Common/IQMath/ti/_IQNfrac.c ****  * @param a               IQ1 type input.
 357:../Common/IQMath/ti/_IQNfrac.c ****  *
 358:../Common/IQMath/ti/_IQNfrac.c ****  * @return                IQ1 type fractional portion of input.
 359:../Common/IQMath/ti/_IQNfrac.c ****  */
 360:../Common/IQMath/ti/_IQNfrac.c **** int32_t _IQ1frac(int32_t a)
 361:../Common/IQMath/ti/_IQNfrac.c **** {
 1016              		.loc 1 361 1 is_stmt 1 view -0
 1017              		.cfi_startproc
 1018              		@ args = 0, pretend = 0, frame = 0
 1019              		@ frame_needed = 0, uses_anonymous_args = 0
 1020              		@ link register save eliminated.
 362:../Common/IQMath/ti/_IQNfrac.c ****     return __IQNfrac(a, 1);
 1021              		.loc 1 362 5 view .LVU262
 1022              	.LBB120:
 1023              	.LBI120:
  25:../Common/IQMath/ti/_IQNfrac.c **** {
 1024              		.loc 1 25 30 view .LVU263
 1025              	.LBB121:
  27:../Common/IQMath/ti/_IQNfrac.c ****     
 1026              		.loc 1 27 5 view .LVU264
  29:../Common/IQMath/ti/_IQNfrac.c ****     
 1027              		.loc 1 29 5 view .LVU265
  31:../Common/IQMath/ti/_IQNfrac.c **** }
 1028              		.loc 1 31 5 view .LVU266
  31:../Common/IQMath/ti/_IQNfrac.c **** }
 1029              		.loc 1 31 5 is_stmt 0 view .LVU267
ARM GAS  C:\Users\57308\AppData\Local\Temp\ccC8ZPyf.s 			page 27


 1030              	.LBE121:
 1031              	.LBE120:
 363:../Common/IQMath/ti/_IQNfrac.c **** }
 1032              		.loc 1 363 1 view .LVU268
 1033 0000 00F00100 		and	r0, r0, #1
 1034              	.LVL59:
 1035              		.loc 1 363 1 view .LVU269
 1036 0004 7047     		bx	lr
 1037              		.cfi_endproc
 1038              	.LFE291:
 1040              		.text
 1041              	.Letext0:
 1042              		.file 2 "d:\\program files\\gcc-arm-none-eabi-10.3-2021.10\\arm-none-eabi\\include\\machine\\_defa
 1043              		.file 3 "d:\\program files\\gcc-arm-none-eabi-10.3-2021.10\\arm-none-eabi\\include\\sys\\_stdint.h
 1044              		.file 4 "d:\\program files\\gcc-arm-none-eabi-10.3-2021.10\\arm-none-eabi\\include\\stdint.h"
ARM GAS  C:\Users\57308\AppData\Local\Temp\ccC8ZPyf.s 			page 28

