ARM GAS  C:\Users\57308\AppData\Local\Temp\ccvDm0cb.s 			page 1


   1              		.cpu cortex-m4
   2              		.arch armv7e-m
   3              		.fpu fpv4-sp-d16
   4              		.eabi_attribute 27, 1
   5              		.eabi_attribute 28, 1
   6              		.eabi_attribute 20, 1
   7              		.eabi_attribute 21, 1
   8              		.eabi_attribute 23, 3
   9              		.eabi_attribute 24, 1
  10              		.eabi_attribute 25, 1
  11              		.eabi_attribute 26, 1
  12              		.eabi_attribute 30, 1
  13              		.eabi_attribute 34, 1
  14              		.eabi_attribute 18, 4
  15              		.file	"_IQNsin_cos.c"
  16              		.text
  17              	.Ltext0:
  18              		.cfi_sections	.debug_frame
  19              		.section	.text._IQ29sin,"ax",%progbits
  20              		.align	1
  21              		.global	_IQ29sin
  22              		.syntax unified
  23              		.thumb
  24              		.thumb_func
  26              	_IQ29sin:
  27              	.LVL0:
  28              	.LFB264:
  29              		.file 1 "../Common/IQMath/ti/_IQNsin_cos.c"
   1:../Common/IQMath/ti/_IQNsin_cos.c **** /*!****************************************************************************
   2:../Common/IQMath/ti/_IQNsin_cos.c ****  *  @file       _IQNsin_cos.c
   3:../Common/IQMath/ti/_IQNsin_cos.c ****  *  @brief      Functions to compute the sine and cosine of the input 
   4:../Common/IQMath/ti/_IQNsin_cos.c ****  *              and return the result.
   5:../Common/IQMath/ti/_IQNsin_cos.c ****  *
   6:../Common/IQMath/ti/_IQNsin_cos.c ****  *  <hr>
   7:../Common/IQMath/ti/_IQNsin_cos.c ****  ******************************************************************************/
   8:../Common/IQMath/ti/_IQNsin_cos.c **** 
   9:../Common/IQMath/ti/_IQNsin_cos.c **** #include <stdint.h>
  10:../Common/IQMath/ti/_IQNsin_cos.c **** 
  11:../Common/IQMath/ti/_IQNsin_cos.c **** #include "./support/support.h"
  12:../Common/IQMath/ti/_IQNsin_cos.c **** #include "_IQNtables.h"
  13:../Common/IQMath/ti/_IQNsin_cos.c **** #include "./IQmathLib.h"
  14:../Common/IQMath/ti/_IQNsin_cos.c **** 
  15:../Common/IQMath/ti/_IQNsin_cos.c **** /*!
  16:../Common/IQMath/ti/_IQNsin_cos.c ****  * @brief The value of PI
  17:../Common/IQMath/ti/_IQNsin_cos.c ****  */
  18:../Common/IQMath/ti/_IQNsin_cos.c **** #define PI (3.1415926536)
  19:../Common/IQMath/ti/_IQNsin_cos.c **** 
  20:../Common/IQMath/ti/_IQNsin_cos.c **** /*!
  21:../Common/IQMath/ti/_IQNsin_cos.c ****  * @brief Used to specify sine operation
  22:../Common/IQMath/ti/_IQNsin_cos.c ****  */
  23:../Common/IQMath/ti/_IQNsin_cos.c **** #define TYPE_SIN     (0)
  24:../Common/IQMath/ti/_IQNsin_cos.c **** /*!
  25:../Common/IQMath/ti/_IQNsin_cos.c ****  * @brief Used to specify cosine operation
  26:../Common/IQMath/ti/_IQNsin_cos.c ****  */
  27:../Common/IQMath/ti/_IQNsin_cos.c **** #define TYPE_COS     (1)
  28:../Common/IQMath/ti/_IQNsin_cos.c **** /*!
  29:../Common/IQMath/ti/_IQNsin_cos.c ****  * @brief Used to specify result in radians
ARM GAS  C:\Users\57308\AppData\Local\Temp\ccvDm0cb.s 			page 2


  30:../Common/IQMath/ti/_IQNsin_cos.c ****  */
  31:../Common/IQMath/ti/_IQNsin_cos.c **** #define TYPE_RAD     (0)
  32:../Common/IQMath/ti/_IQNsin_cos.c **** /*!
  33:../Common/IQMath/ti/_IQNsin_cos.c ****  * @brief Used to specify per-unit result
  34:../Common/IQMath/ti/_IQNsin_cos.c ****  */
  35:../Common/IQMath/ti/_IQNsin_cos.c **** #define TYPE_PU      (1)
  36:../Common/IQMath/ti/_IQNsin_cos.c **** 
  37:../Common/IQMath/ti/_IQNsin_cos.c **** 
  38:../Common/IQMath/ti/_IQNsin_cos.c **** #if ((!defined (__IQMATH_USE_MATHACL__)) || (!defined (__MSPM0_HAS_MATHACL__)))
  39:../Common/IQMath/ti/_IQNsin_cos.c **** /**
  40:../Common/IQMath/ti/_IQNsin_cos.c ****  * @brief Computes the sine of an UIQ31 input.
  41:../Common/IQMath/ti/_IQNsin_cos.c ****  *
  42:../Common/IQMath/ti/_IQNsin_cos.c ****  * @param uiq31Input      UIQ31 type input.
  43:../Common/IQMath/ti/_IQNsin_cos.c ****  *
  44:../Common/IQMath/ti/_IQNsin_cos.c ****  * @return                UIQ31 type result of sine.
  45:../Common/IQMath/ti/_IQNsin_cos.c ****  */
  46:../Common/IQMath/ti/_IQNsin_cos.c **** /*
  47:../Common/IQMath/ti/_IQNsin_cos.c ****  * Perform the calculation where the input is only in the first quadrant
  48:../Common/IQMath/ti/_IQNsin_cos.c ****  * using one of the following two functions.
  49:../Common/IQMath/ti/_IQNsin_cos.c ****  *
  50:../Common/IQMath/ti/_IQNsin_cos.c ****  * This algorithm is derived from the following trig identities:
  51:../Common/IQMath/ti/_IQNsin_cos.c ****  *     sin(k + x) = sin(k)*cos(x) + cos(k)*sin(x)
  52:../Common/IQMath/ti/_IQNsin_cos.c ****  *     cos(k + x) = cos(k)*cos(x) - sin(k)*sin(x)
  53:../Common/IQMath/ti/_IQNsin_cos.c ****  *    
  54:../Common/IQMath/ti/_IQNsin_cos.c ****  * First we calculate an index k and the remainder x according to the following
  55:../Common/IQMath/ti/_IQNsin_cos.c ****  * formulas:
  56:../Common/IQMath/ti/_IQNsin_cos.c ****  *
  57:../Common/IQMath/ti/_IQNsin_cos.c ****  *     k = 0x3F & int(Radian*64)
  58:../Common/IQMath/ti/_IQNsin_cos.c ****  *     x = fract(Radian*64)/64
  59:../Common/IQMath/ti/_IQNsin_cos.c ****  *
  60:../Common/IQMath/ti/_IQNsin_cos.c ****  * Two lookup tables store the values of sin(k) and cos(k) for all possible
  61:../Common/IQMath/ti/_IQNsin_cos.c ****  * indexes. The remainder, x, is calculated using second order Taylor series.
  62:../Common/IQMath/ti/_IQNsin_cos.c ****  *
  63:../Common/IQMath/ti/_IQNsin_cos.c ****  *     sin(x) = x - (x^3)/6     (~36.9 bits of accuracy)
  64:../Common/IQMath/ti/_IQNsin_cos.c ****  *     cos(x) = 1 - (x^2)/2     (~28.5 bits of accuracy)
  65:../Common/IQMath/ti/_IQNsin_cos.c ****  *
  66:../Common/IQMath/ti/_IQNsin_cos.c ****  * Combining the trig identities with the Taylor series approximiations gives
  67:../Common/IQMath/ti/_IQNsin_cos.c ****  * the following two functions:
  68:../Common/IQMath/ti/_IQNsin_cos.c ****  *
  69:../Common/IQMath/ti/_IQNsin_cos.c ****  *     cos(Radian) = C(k) + x*(-S(k) + 0.5*x*(-C(k) + 0.333*x*S(k)))
  70:../Common/IQMath/ti/_IQNsin_cos.c ****  *     sin(Radian) = S(k) + x*(C(k) + 0.5*x*(-S(k) - 0.333*x*C(k)))
  71:../Common/IQMath/ti/_IQNsin_cos.c ****  *
  72:../Common/IQMath/ti/_IQNsin_cos.c ****  *     where  S(k) = Sin table value at offset "k"
  73:../Common/IQMath/ti/_IQNsin_cos.c ****  *            C(k) = Cos table value at offset "k"
  74:../Common/IQMath/ti/_IQNsin_cos.c ****  *
  75:../Common/IQMath/ti/_IQNsin_cos.c ****  * Using a lookup table with a 64 bit index (52 indexes since the input range is
  76:../Common/IQMath/ti/_IQNsin_cos.c ****  * only 0 - 0.785398) and second order Taylor series gives 28 bits of accuracy.
  77:../Common/IQMath/ti/_IQNsin_cos.c ****  */
  78:../Common/IQMath/ti/_IQNsin_cos.c **** #if defined (__TI_COMPILER_VERSION__)
  79:../Common/IQMath/ti/_IQNsin_cos.c ****     #pragma FUNC_ALWAYS_INLINE(__IQNcalcSin)
  80:../Common/IQMath/ti/_IQNsin_cos.c **** #elif defined(__IAR_SYSTEMS_ICC__)
  81:../Common/IQMath/ti/_IQNsin_cos.c ****     #pragma inline=forced
  82:../Common/IQMath/ti/_IQNsin_cos.c **** #endif
  83:../Common/IQMath/ti/_IQNsin_cos.c **** __STATIC_INLINE int_fast32_t __IQNcalcSin(uint_fast32_t uiq31Input)
  84:../Common/IQMath/ti/_IQNsin_cos.c **** {
  85:../Common/IQMath/ti/_IQNsin_cos.c **** 	uint_fast16_t index;
  86:../Common/IQMath/ti/_IQNsin_cos.c ****     int_fast32_t iq31X;
ARM GAS  C:\Users\57308\AppData\Local\Temp\ccvDm0cb.s 			page 3


  87:../Common/IQMath/ti/_IQNsin_cos.c ****     int_fast32_t iq31Sin;
  88:../Common/IQMath/ti/_IQNsin_cos.c ****     int_fast32_t iq31Cos;
  89:../Common/IQMath/ti/_IQNsin_cos.c ****     int_fast32_t iq31Res;
  90:../Common/IQMath/ti/_IQNsin_cos.c ****     
  91:../Common/IQMath/ti/_IQNsin_cos.c ****     /* Calculate index for sin and cos lookup using bits 31:26 */
  92:../Common/IQMath/ti/_IQNsin_cos.c ****     index = (uint_fast16_t)(uiq31Input >> 25) & 0x003f;
  93:../Common/IQMath/ti/_IQNsin_cos.c ****     
  94:../Common/IQMath/ti/_IQNsin_cos.c ****     /* Lookup S(k) and C(k) values. */
  95:../Common/IQMath/ti/_IQNsin_cos.c ****     iq31Sin = _IQ31SinLookup[index];
  96:../Common/IQMath/ti/_IQNsin_cos.c ****     iq31Cos = _IQ31CosLookup[index];
  97:../Common/IQMath/ti/_IQNsin_cos.c ****     
  98:../Common/IQMath/ti/_IQNsin_cos.c ****     /*
  99:../Common/IQMath/ti/_IQNsin_cos.c ****      * Calculated x (the remainder) by subtracting the index from the unsigned
 100:../Common/IQMath/ti/_IQNsin_cos.c ****      * iq31 input. This can be accomplished by masking out the bits used for
 101:../Common/IQMath/ti/_IQNsin_cos.c ****      * the index.
 102:../Common/IQMath/ti/_IQNsin_cos.c ****      */
 103:../Common/IQMath/ti/_IQNsin_cos.c ****     iq31X = uiq31Input & 0x01ffffff;
 104:../Common/IQMath/ti/_IQNsin_cos.c ****     
 105:../Common/IQMath/ti/_IQNsin_cos.c ****     /* 0.333*x*C(k) */
 106:../Common/IQMath/ti/_IQNsin_cos.c ****     iq31Res = __mpyf_l(0x2aaaaaab, iq31X);
 107:../Common/IQMath/ti/_IQNsin_cos.c ****     iq31Res = __mpyf_l(iq31Cos, iq31Res);
 108:../Common/IQMath/ti/_IQNsin_cos.c ****     
 109:../Common/IQMath/ti/_IQNsin_cos.c ****     /* -S(k) - 0.333*x*C(k) */
 110:../Common/IQMath/ti/_IQNsin_cos.c ****     iq31Res = -(iq31Sin + iq31Res);
 111:../Common/IQMath/ti/_IQNsin_cos.c ****     
 112:../Common/IQMath/ti/_IQNsin_cos.c ****     /* 0.5*x*(-S(k) - 0.333*x*C(k)) */
 113:../Common/IQMath/ti/_IQNsin_cos.c ****     iq31Res = iq31Res >> 1;
 114:../Common/IQMath/ti/_IQNsin_cos.c ****     iq31Res = __mpyf_l(iq31X, iq31Res);
 115:../Common/IQMath/ti/_IQNsin_cos.c ****     
 116:../Common/IQMath/ti/_IQNsin_cos.c ****     /* C(k) + 0.5*x*(-S(k) - 0.333*x*C(k)) */
 117:../Common/IQMath/ti/_IQNsin_cos.c ****     iq31Res = iq31Cos + iq31Res;
 118:../Common/IQMath/ti/_IQNsin_cos.c ****     
 119:../Common/IQMath/ti/_IQNsin_cos.c ****     /* x*(C(k) + 0.5*x*(-S(k) - 0.333*x*C(k))) */
 120:../Common/IQMath/ti/_IQNsin_cos.c ****     iq31Res = __mpyf_l(iq31X, iq31Res);
 121:../Common/IQMath/ti/_IQNsin_cos.c ****     
 122:../Common/IQMath/ti/_IQNsin_cos.c ****     /* sin(Radian) = S(k) + x*(C(k) + 0.5*x*(-S(k) - 0.333*x*C(k))) */
 123:../Common/IQMath/ti/_IQNsin_cos.c ****     iq31Res = iq31Sin + iq31Res;
 124:../Common/IQMath/ti/_IQNsin_cos.c ****     
 125:../Common/IQMath/ti/_IQNsin_cos.c ****     return iq31Res;
 126:../Common/IQMath/ti/_IQNsin_cos.c **** }
 127:../Common/IQMath/ti/_IQNsin_cos.c **** /**
 128:../Common/IQMath/ti/_IQNsin_cos.c ****  * @brief Computes the cosine of an UIQ31 input.
 129:../Common/IQMath/ti/_IQNsin_cos.c ****  *
 130:../Common/IQMath/ti/_IQNsin_cos.c ****  * @param uiq31Input      UIQ31 type input.
 131:../Common/IQMath/ti/_IQNsin_cos.c ****  *
 132:../Common/IQMath/ti/_IQNsin_cos.c ****  * @return                UIQ31 type result of cosine.
 133:../Common/IQMath/ti/_IQNsin_cos.c ****  */
 134:../Common/IQMath/ti/_IQNsin_cos.c **** #if defined (__TI_COMPILER_VERSION__)
 135:../Common/IQMath/ti/_IQNsin_cos.c ****     #pragma FUNC_ALWAYS_INLINE(__IQNcalcCos)
 136:../Common/IQMath/ti/_IQNsin_cos.c **** #elif defined(__IAR_SYSTEMS_ICC__)
 137:../Common/IQMath/ti/_IQNsin_cos.c ****     #pragma inline=forced
 138:../Common/IQMath/ti/_IQNsin_cos.c **** #endif
 139:../Common/IQMath/ti/_IQNsin_cos.c **** __STATIC_INLINE int_fast32_t __IQNcalcCos(uint_fast32_t uiq31Input)
 140:../Common/IQMath/ti/_IQNsin_cos.c **** {
 141:../Common/IQMath/ti/_IQNsin_cos.c **** 	uint_fast16_t index;
 142:../Common/IQMath/ti/_IQNsin_cos.c ****     int_fast32_t iq31X;
 143:../Common/IQMath/ti/_IQNsin_cos.c ****     int_fast32_t iq31Sin;
ARM GAS  C:\Users\57308\AppData\Local\Temp\ccvDm0cb.s 			page 4


 144:../Common/IQMath/ti/_IQNsin_cos.c ****     int_fast32_t iq31Cos;
 145:../Common/IQMath/ti/_IQNsin_cos.c ****     int_fast32_t iq31Res;
 146:../Common/IQMath/ti/_IQNsin_cos.c ****     
 147:../Common/IQMath/ti/_IQNsin_cos.c ****     /* Calculate index for sin and cos lookup using bits 31:26 */
 148:../Common/IQMath/ti/_IQNsin_cos.c ****     index = (uint_fast16_t)(uiq31Input >> 25) & 0x003f;
 149:../Common/IQMath/ti/_IQNsin_cos.c ****     
 150:../Common/IQMath/ti/_IQNsin_cos.c ****     /* Lookup S(k) and C(k) values. */
 151:../Common/IQMath/ti/_IQNsin_cos.c ****     iq31Sin = _IQ31SinLookup[index];
 152:../Common/IQMath/ti/_IQNsin_cos.c ****     iq31Cos = _IQ31CosLookup[index];
 153:../Common/IQMath/ti/_IQNsin_cos.c ****     
 154:../Common/IQMath/ti/_IQNsin_cos.c ****     /*
 155:../Common/IQMath/ti/_IQNsin_cos.c ****      * Calculated x (the remainder) by subtracting the index from the unsigned
 156:../Common/IQMath/ti/_IQNsin_cos.c ****      * iq31 input. This can be accomplished by masking out the bits used for
 157:../Common/IQMath/ti/_IQNsin_cos.c ****      * the index.
 158:../Common/IQMath/ti/_IQNsin_cos.c ****      */
 159:../Common/IQMath/ti/_IQNsin_cos.c ****     iq31X = uiq31Input & 0x01ffffff;
 160:../Common/IQMath/ti/_IQNsin_cos.c ****     
 161:../Common/IQMath/ti/_IQNsin_cos.c ****     /* 0.333*x*S(k) */
 162:../Common/IQMath/ti/_IQNsin_cos.c ****     iq31Res = __mpyf_l(0x2aaaaaab, iq31X);
 163:../Common/IQMath/ti/_IQNsin_cos.c ****     iq31Res = __mpyf_l(iq31Sin, iq31Res);
 164:../Common/IQMath/ti/_IQNsin_cos.c ****     
 165:../Common/IQMath/ti/_IQNsin_cos.c ****     /* -C(k) + 0.333*x*S(k) */
 166:../Common/IQMath/ti/_IQNsin_cos.c ****     iq31Res = iq31Res - iq31Cos;
 167:../Common/IQMath/ti/_IQNsin_cos.c ****     
 168:../Common/IQMath/ti/_IQNsin_cos.c ****     /* 0.5*x*(-C(k) + 0.333*x*S(k)) */
 169:../Common/IQMath/ti/_IQNsin_cos.c ****     iq31Res = iq31Res >> 1;
 170:../Common/IQMath/ti/_IQNsin_cos.c ****     iq31Res = __mpyf_l(iq31X, iq31Res);
 171:../Common/IQMath/ti/_IQNsin_cos.c ****     
 172:../Common/IQMath/ti/_IQNsin_cos.c ****     /* -S(k) + 0.5*x*(-C(k) + 0.333*x*S(k)) */
 173:../Common/IQMath/ti/_IQNsin_cos.c ****     iq31Res = iq31Res - iq31Sin;
 174:../Common/IQMath/ti/_IQNsin_cos.c ****     
 175:../Common/IQMath/ti/_IQNsin_cos.c ****     /* x*(-S(k) + 0.5*x*(-C(k) + 0.333*x*S(k))) */
 176:../Common/IQMath/ti/_IQNsin_cos.c ****     iq31Res = __mpyf_l(iq31X, iq31Res);
 177:../Common/IQMath/ti/_IQNsin_cos.c ****     
 178:../Common/IQMath/ti/_IQNsin_cos.c ****     /* cos(Radian) = C(k) + x*(-S(k) + 0.5*x*(-C(k) + 0.333*x*S(k))) */
 179:../Common/IQMath/ti/_IQNsin_cos.c ****     iq31Res = iq31Cos + iq31Res;
 180:../Common/IQMath/ti/_IQNsin_cos.c ****     
 181:../Common/IQMath/ti/_IQNsin_cos.c ****     return iq31Res;
 182:../Common/IQMath/ti/_IQNsin_cos.c **** }
 183:../Common/IQMath/ti/_IQNsin_cos.c **** 
 184:../Common/IQMath/ti/_IQNsin_cos.c **** /**
 185:../Common/IQMath/ti/_IQNsin_cos.c ****  * @brief Computes the sine or cosine of an IQN input.
 186:../Common/IQMath/ti/_IQNsin_cos.c ****  *
 187:../Common/IQMath/ti/_IQNsin_cos.c ****  * @param iqNInput        IQN type input.
 188:../Common/IQMath/ti/_IQNsin_cos.c ****  * @param q_value         IQ format.
 189:../Common/IQMath/ti/_IQNsin_cos.c ****  * @param type            Specifies sine or cosine operation.
 190:../Common/IQMath/ti/_IQNsin_cos.c ****  * @param format          Specifies radians or per-unit operation.
 191:../Common/IQMath/ti/_IQNsin_cos.c ****  *
 192:../Common/IQMath/ti/_IQNsin_cos.c ****  * @return                IQN type result of sin or cosine operation.
 193:../Common/IQMath/ti/_IQNsin_cos.c ****  */
 194:../Common/IQMath/ti/_IQNsin_cos.c **** #if defined (__TI_COMPILER_VERSION__)
 195:../Common/IQMath/ti/_IQNsin_cos.c ****     #pragma FUNC_ALWAYS_INLINE(__IQNsin_cos)
 196:../Common/IQMath/ti/_IQNsin_cos.c **** #elif defined(__IAR_SYSTEMS_ICC__)
 197:../Common/IQMath/ti/_IQNsin_cos.c ****     #pragma inline=forced
 198:../Common/IQMath/ti/_IQNsin_cos.c **** #endif
 199:../Common/IQMath/ti/_IQNsin_cos.c **** __STATIC_INLINE int_fast32_t __IQNsin_cos(int_fast32_t iqNInput, const int8_t q_value,
 200:../Common/IQMath/ti/_IQNsin_cos.c ****                                    const int8_t type, const int8_t format)
ARM GAS  C:\Users\57308\AppData\Local\Temp\ccvDm0cb.s 			page 5


 201:../Common/IQMath/ti/_IQNsin_cos.c **** {
 202:../Common/IQMath/ti/_IQNsin_cos.c ****     uint8_t ui8Sign = 0;
 203:../Common/IQMath/ti/_IQNsin_cos.c ****     uint_fast16_t ui16IntState;
 204:../Common/IQMath/ti/_IQNsin_cos.c ****     uint_fast16_t ui16MPYState;
 205:../Common/IQMath/ti/_IQNsin_cos.c ****     uint_fast32_t uiq29Input;
 206:../Common/IQMath/ti/_IQNsin_cos.c ****     uint_fast32_t uiq30Input;
 207:../Common/IQMath/ti/_IQNsin_cos.c ****     uint_fast32_t uiq31Input;
 208:../Common/IQMath/ti/_IQNsin_cos.c ****     uint_fast32_t uiq32Input;
 209:../Common/IQMath/ti/_IQNsin_cos.c ****     uint_fast32_t uiq31Result;
 210:../Common/IQMath/ti/_IQNsin_cos.c ****     
 211:../Common/IQMath/ti/_IQNsin_cos.c ****     /* Remove sign from input */
 212:../Common/IQMath/ti/_IQNsin_cos.c ****     if (iqNInput < 0) {
 213:../Common/IQMath/ti/_IQNsin_cos.c ****         iqNInput = -iqNInput;
 214:../Common/IQMath/ti/_IQNsin_cos.c ****         
 215:../Common/IQMath/ti/_IQNsin_cos.c ****         /* Flip sign only for sin */
 216:../Common/IQMath/ti/_IQNsin_cos.c ****         if (type == TYPE_SIN) {
 217:../Common/IQMath/ti/_IQNsin_cos.c ****             ui8Sign = 1;
 218:../Common/IQMath/ti/_IQNsin_cos.c ****         }
 219:../Common/IQMath/ti/_IQNsin_cos.c ****     }
 220:../Common/IQMath/ti/_IQNsin_cos.c ****     
 221:../Common/IQMath/ti/_IQNsin_cos.c ****     /*
 222:../Common/IQMath/ti/_IQNsin_cos.c ****      * Mark the start of any multiplies. This will disable interrupts and set
 223:../Common/IQMath/ti/_IQNsin_cos.c ****      * the multiplier to fractional mode. This is designed to reduce overhead
 224:../Common/IQMath/ti/_IQNsin_cos.c ****      * of constantly switching states when using repeated multiplies (MSP430
 225:../Common/IQMath/ti/_IQNsin_cos.c ****      * only).
 226:../Common/IQMath/ti/_IQNsin_cos.c ****      */
 227:../Common/IQMath/ti/_IQNsin_cos.c ****     __mpyf_start(&ui16IntState, &ui16MPYState);
 228:../Common/IQMath/ti/_IQNsin_cos.c ****     
 229:../Common/IQMath/ti/_IQNsin_cos.c ****     /* Per unit API */
 230:../Common/IQMath/ti/_IQNsin_cos.c ****     if (format == TYPE_PU) {
 231:../Common/IQMath/ti/_IQNsin_cos.c ****         /* 
 232:../Common/IQMath/ti/_IQNsin_cos.c ****          * Scale input to unsigned iq32 to allow for maximum range. This removes
 233:../Common/IQMath/ti/_IQNsin_cos.c ****          * the integer component of the per unit input.
 234:../Common/IQMath/ti/_IQNsin_cos.c ****          */
 235:../Common/IQMath/ti/_IQNsin_cos.c ****         uiq32Input = (uint_fast32_t)iqNInput << (32 - q_value);
 236:../Common/IQMath/ti/_IQNsin_cos.c ****         
 237:../Common/IQMath/ti/_IQNsin_cos.c ****         /* Reduce the input to the first two quadrants. */
 238:../Common/IQMath/ti/_IQNsin_cos.c ****         if (uiq32Input >= 0x80000000) {
 239:../Common/IQMath/ti/_IQNsin_cos.c ****             uiq32Input -= 0x80000000;
 240:../Common/IQMath/ti/_IQNsin_cos.c ****             ui8Sign ^= 1;
 241:../Common/IQMath/ti/_IQNsin_cos.c ****         }
 242:../Common/IQMath/ti/_IQNsin_cos.c ****         
 243:../Common/IQMath/ti/_IQNsin_cos.c ****         /*
 244:../Common/IQMath/ti/_IQNsin_cos.c ****          * Multiply unsigned iq32 input by 2*pi and scale to unsigned iq30:
 245:../Common/IQMath/ti/_IQNsin_cos.c ****          *     iq32 * iq30 = iq30 * 2
 246:../Common/IQMath/ti/_IQNsin_cos.c ****          */
 247:../Common/IQMath/ti/_IQNsin_cos.c ****         uiq30Input = __mpyf_ul(uiq32Input, iq30_pi);
 248:../Common/IQMath/ti/_IQNsin_cos.c ****         
 249:../Common/IQMath/ti/_IQNsin_cos.c ****     }
 250:../Common/IQMath/ti/_IQNsin_cos.c ****     /* Radians API */
 251:../Common/IQMath/ti/_IQNsin_cos.c ****     else {
 252:../Common/IQMath/ti/_IQNsin_cos.c ****         /* Calculate the exponent difference from input format to iq29. */
 253:../Common/IQMath/ti/_IQNsin_cos.c ****         int_fast16_t exp = 29 - q_value;
 254:../Common/IQMath/ti/_IQNsin_cos.c ****         
 255:../Common/IQMath/ti/_IQNsin_cos.c ****         /* Save input as unsigned iq29 format. */
 256:../Common/IQMath/ti/_IQNsin_cos.c ****         uiq29Input = (uint_fast32_t)iqNInput;
 257:../Common/IQMath/ti/_IQNsin_cos.c ****         
ARM GAS  C:\Users\57308\AppData\Local\Temp\ccvDm0cb.s 			page 6


 258:../Common/IQMath/ti/_IQNsin_cos.c ****         /* Reduce the input exponent to zero by scaling by 2*pi. */
 259:../Common/IQMath/ti/_IQNsin_cos.c ****         while (exp) {
 260:../Common/IQMath/ti/_IQNsin_cos.c ****             if (uiq29Input >= iq29_pi) {
 261:../Common/IQMath/ti/_IQNsin_cos.c ****                 uiq29Input -= iq29_pi;
 262:../Common/IQMath/ti/_IQNsin_cos.c ****             }
 263:../Common/IQMath/ti/_IQNsin_cos.c ****             uiq29Input <<= 1;
 264:../Common/IQMath/ti/_IQNsin_cos.c ****             exp--;
 265:../Common/IQMath/ti/_IQNsin_cos.c ****         }
 266:../Common/IQMath/ti/_IQNsin_cos.c ****         
 267:../Common/IQMath/ti/_IQNsin_cos.c ****         /* Reduce the range to the first two quadrants. */
 268:../Common/IQMath/ti/_IQNsin_cos.c ****         if (uiq29Input >= iq29_pi) {
 269:../Common/IQMath/ti/_IQNsin_cos.c ****             uiq29Input -= iq29_pi;
 270:../Common/IQMath/ti/_IQNsin_cos.c ****             ui8Sign ^= 1;
 271:../Common/IQMath/ti/_IQNsin_cos.c ****         }
 272:../Common/IQMath/ti/_IQNsin_cos.c ****         
 273:../Common/IQMath/ti/_IQNsin_cos.c ****         /* Scale the unsigned iq29 input to unsigned iq30. */
 274:../Common/IQMath/ti/_IQNsin_cos.c ****         uiq30Input = uiq29Input << 1;
 275:../Common/IQMath/ti/_IQNsin_cos.c ****     }
 276:../Common/IQMath/ti/_IQNsin_cos.c ****         
 277:../Common/IQMath/ti/_IQNsin_cos.c ****     /* Reduce the iq30 input range to the first quadrant. */
 278:../Common/IQMath/ti/_IQNsin_cos.c ****     if (uiq30Input >= iq30_halfPi) {
 279:../Common/IQMath/ti/_IQNsin_cos.c ****         uiq30Input = iq30_pi - uiq30Input;
 280:../Common/IQMath/ti/_IQNsin_cos.c ****         
 281:../Common/IQMath/ti/_IQNsin_cos.c ****         /* flip sign for cos calculations */
 282:../Common/IQMath/ti/_IQNsin_cos.c ****         if (type == TYPE_COS) {
 283:../Common/IQMath/ti/_IQNsin_cos.c ****             ui8Sign ^= 1;
 284:../Common/IQMath/ti/_IQNsin_cos.c ****         }
 285:../Common/IQMath/ti/_IQNsin_cos.c ****     }
 286:../Common/IQMath/ti/_IQNsin_cos.c ****     
 287:../Common/IQMath/ti/_IQNsin_cos.c ****     /* Convert the unsigned iq30 input to unsigned iq31 */
 288:../Common/IQMath/ti/_IQNsin_cos.c ****     uiq31Input = uiq30Input << 1;
 289:../Common/IQMath/ti/_IQNsin_cos.c ****     
 290:../Common/IQMath/ti/_IQNsin_cos.c ****     /* Only one of these cases will be compiled per function. */
 291:../Common/IQMath/ti/_IQNsin_cos.c ****     if (type == TYPE_COS) {
 292:../Common/IQMath/ti/_IQNsin_cos.c ****         /* If input is greater than pi/4 use sin for calculations */
 293:../Common/IQMath/ti/_IQNsin_cos.c ****         if (uiq31Input > iq31_quarterPi) {
 294:../Common/IQMath/ti/_IQNsin_cos.c ****             uiq31Input = iq31_halfPi - uiq31Input;
 295:../Common/IQMath/ti/_IQNsin_cos.c ****             uiq31Result = __IQNcalcSin(uiq31Input);
 296:../Common/IQMath/ti/_IQNsin_cos.c ****         }
 297:../Common/IQMath/ti/_IQNsin_cos.c ****         else {
 298:../Common/IQMath/ti/_IQNsin_cos.c ****             uiq31Result = __IQNcalcCos(uiq31Input);
 299:../Common/IQMath/ti/_IQNsin_cos.c ****         }
 300:../Common/IQMath/ti/_IQNsin_cos.c ****     }
 301:../Common/IQMath/ti/_IQNsin_cos.c ****     else if (type == TYPE_SIN) {
 302:../Common/IQMath/ti/_IQNsin_cos.c ****         /* If input is greater than pi/4 use cos for calculations */
 303:../Common/IQMath/ti/_IQNsin_cos.c ****         if (uiq31Input > iq31_quarterPi) {
 304:../Common/IQMath/ti/_IQNsin_cos.c ****             uiq31Input = iq31_halfPi - uiq31Input;
 305:../Common/IQMath/ti/_IQNsin_cos.c ****             uiq31Result = __IQNcalcCos(uiq31Input);
 306:../Common/IQMath/ti/_IQNsin_cos.c ****         }
 307:../Common/IQMath/ti/_IQNsin_cos.c ****         else {
 308:../Common/IQMath/ti/_IQNsin_cos.c ****             uiq31Result = __IQNcalcSin(uiq31Input);
 309:../Common/IQMath/ti/_IQNsin_cos.c ****         }
 310:../Common/IQMath/ti/_IQNsin_cos.c ****     }
 311:../Common/IQMath/ti/_IQNsin_cos.c ****     
 312:../Common/IQMath/ti/_IQNsin_cos.c ****     /* 
 313:../Common/IQMath/ti/_IQNsin_cos.c ****      * Mark the end of all multiplies. This restores MPY and interrupt states
 314:../Common/IQMath/ti/_IQNsin_cos.c ****      * (MSP430 only).
ARM GAS  C:\Users\57308\AppData\Local\Temp\ccvDm0cb.s 			page 7


 315:../Common/IQMath/ti/_IQNsin_cos.c ****      */
 316:../Common/IQMath/ti/_IQNsin_cos.c ****     __mpy_stop(&ui16IntState, &ui16MPYState);
 317:../Common/IQMath/ti/_IQNsin_cos.c ****     
 318:../Common/IQMath/ti/_IQNsin_cos.c ****     /* Shift to Q type */
 319:../Common/IQMath/ti/_IQNsin_cos.c ****     uiq31Result >>= (31 - q_value);
 320:../Common/IQMath/ti/_IQNsin_cos.c ****     
 321:../Common/IQMath/ti/_IQNsin_cos.c ****     /* set sign */
 322:../Common/IQMath/ti/_IQNsin_cos.c ****     if (ui8Sign) {
 323:../Common/IQMath/ti/_IQNsin_cos.c ****         uiq31Result = -uiq31Result;
 324:../Common/IQMath/ti/_IQNsin_cos.c ****     }
 325:../Common/IQMath/ti/_IQNsin_cos.c ****     
 326:../Common/IQMath/ti/_IQNsin_cos.c ****     return uiq31Result;
 327:../Common/IQMath/ti/_IQNsin_cos.c **** }
 328:../Common/IQMath/ti/_IQNsin_cos.c **** #else
 329:../Common/IQMath/ti/_IQNsin_cos.c **** /**
 330:../Common/IQMath/ti/_IQNsin_cos.c ****  * @brief Computes the sine or cosine of an IQN input, using MathACL.
 331:../Common/IQMath/ti/_IQNsin_cos.c ****  *
 332:../Common/IQMath/ti/_IQNsin_cos.c ****  * @param iqNInput        IQN type input.
 333:../Common/IQMath/ti/_IQNsin_cos.c ****  * @param q_value         IQ format.
 334:../Common/IQMath/ti/_IQNsin_cos.c ****  * @param type            Specifies sine or cosine operation.
 335:../Common/IQMath/ti/_IQNsin_cos.c ****  * @param format          Specifies radians or per-unit operation.
 336:../Common/IQMath/ti/_IQNsin_cos.c ****  *
 337:../Common/IQMath/ti/_IQNsin_cos.c ****  * @return                IQN type result of sin or cosine operation.
 338:../Common/IQMath/ti/_IQNsin_cos.c ****  */
 339:../Common/IQMath/ti/_IQNsin_cos.c **** #if defined (__TI_COMPILER_VERSION__)
 340:../Common/IQMath/ti/_IQNsin_cos.c ****     #pragma FUNC_ALWAYS_INLINE(__IQNsin_cos)
 341:../Common/IQMath/ti/_IQNsin_cos.c **** #elif defined(__IAR_SYSTEMS_ICC__)
 342:../Common/IQMath/ti/_IQNsin_cos.c ****     #pragma inline=forced
 343:../Common/IQMath/ti/_IQNsin_cos.c **** #endif
 344:../Common/IQMath/ti/_IQNsin_cos.c **** __STATIC_INLINE int_fast32_t __IQNsin_cos(int_fast32_t iqNInput, const int8_t q_value,
 345:../Common/IQMath/ti/_IQNsin_cos.c ****                                    const int8_t type, const int8_t format)
 346:../Common/IQMath/ti/_IQNsin_cos.c **** {
 347:../Common/IQMath/ti/_IQNsin_cos.c ****     int_fast32_t res, res1, resMult, resDiv;
 348:../Common/IQMath/ti/_IQNsin_cos.c ****     int_fast32_t iq31input;
 349:../Common/IQMath/ti/_IQNsin_cos.c ****     /* Per unit API */
 350:../Common/IQMath/ti/_IQNsin_cos.c ****     if (format == TYPE_PU) {
 351:../Common/IQMath/ti/_IQNsin_cos.c ****         /* multiply by 2 for MathACL scaling. */
 352:../Common/IQMath/ti/_IQNsin_cos.c ****         resMult = (uint_fast32_t)iqNInput << (1);
 353:../Common/IQMath/ti/_IQNsin_cos.c ****         /* shift to IQ31 for sin/cos calculation */
 354:../Common/IQMath/ti/_IQNsin_cos.c ****         iq31input = (uint_fast32_t)resMult << (31 - q_value);
 355:../Common/IQMath/ti/_IQNsin_cos.c ****     }
 356:../Common/IQMath/ti/_IQNsin_cos.c ****     /* Radians API */
 357:../Common/IQMath/ti/_IQNsin_cos.c ****     else{
 358:../Common/IQMath/ti/_IQNsin_cos.c ****         /* divide by PI for MathACL scaling
 359:../Common/IQMath/ti/_IQNsin_cos.c ****             * write control 
 360:../Common/IQMath/ti/_IQNsin_cos.c ****             */
 361:../Common/IQMath/ti/_IQNsin_cos.c ****         MATHACL->CTL = 4 | (q_value<<8) | (1 << 5);
 362:../Common/IQMath/ti/_IQNsin_cos.c ****         /* write operands to HWA. OP2 = divisor, OP1 = dividend */
 363:../Common/IQMath/ti/_IQNsin_cos.c ****         MATHACL->OP2 = ((uint_fast32_t)((PI) * ((uint_fast32_t)1 << q_value)));
 364:../Common/IQMath/ti/_IQNsin_cos.c ****         /* trigger is write to OP1 */
 365:../Common/IQMath/ti/_IQNsin_cos.c ****         MATHACL->OP1 = iqNInput;
 366:../Common/IQMath/ti/_IQNsin_cos.c ****         /* read quotient and remainder */
 367:../Common/IQMath/ti/_IQNsin_cos.c ****         resDiv = MATHACL->RES1;
 368:../Common/IQMath/ti/_IQNsin_cos.c ****         /* shift from q_value to IQ31 for sin/cos calculation */
 369:../Common/IQMath/ti/_IQNsin_cos.c ****         iq31input = (uint_fast32_t)resDiv << (31 - q_value);
 370:../Common/IQMath/ti/_IQNsin_cos.c ****     }
 371:../Common/IQMath/ti/_IQNsin_cos.c ****     /*
ARM GAS  C:\Users\57308\AppData\Local\Temp\ccvDm0cb.s 			page 8


 372:../Common/IQMath/ti/_IQNsin_cos.c ****      * write control
 373:../Common/IQMath/ti/_IQNsin_cos.c ****      * operation = sincos, iterations = 31
 374:../Common/IQMath/ti/_IQNsin_cos.c ****      */
 375:../Common/IQMath/ti/_IQNsin_cos.c ****     MATHACL->CTL = 1 | (31 << 24);
 376:../Common/IQMath/ti/_IQNsin_cos.c ****     /* write operand to HWA */
 377:../Common/IQMath/ti/_IQNsin_cos.c ****     MATHACL->OP1 = iq31input;
 378:../Common/IQMath/ti/_IQNsin_cos.c ****     if (type == TYPE_COS) {
 379:../Common/IQMath/ti/_IQNsin_cos.c ****         /* read cosine */
 380:../Common/IQMath/ti/_IQNsin_cos.c ****         res1 = MATHACL->RES1;
 381:../Common/IQMath/ti/_IQNsin_cos.c ****     }
 382:../Common/IQMath/ti/_IQNsin_cos.c ****     else if (type == TYPE_SIN) {
 383:../Common/IQMath/ti/_IQNsin_cos.c ****         /* read sine */
 384:../Common/IQMath/ti/_IQNsin_cos.c ****         res1 = MATHACL->RES2;
 385:../Common/IQMath/ti/_IQNsin_cos.c ****     }
 386:../Common/IQMath/ti/_IQNsin_cos.c ****     /* Shift to q_value type */
 387:../Common/IQMath/ti/_IQNsin_cos.c ****     res = res1 >> (31 - q_value);
 388:../Common/IQMath/ti/_IQNsin_cos.c ****     return res;
 389:../Common/IQMath/ti/_IQNsin_cos.c **** }
 390:../Common/IQMath/ti/_IQNsin_cos.c **** #endif
 391:../Common/IQMath/ti/_IQNsin_cos.c **** 
 392:../Common/IQMath/ti/_IQNsin_cos.c **** /* IQ sin functions */
 393:../Common/IQMath/ti/_IQNsin_cos.c **** 
 394:../Common/IQMath/ti/_IQNsin_cos.c **** /**
 395:../Common/IQMath/ti/_IQNsin_cos.c ****  * @brief Computes the cosine of an IQ29 input.
 396:../Common/IQMath/ti/_IQNsin_cos.c ****  *
 397:../Common/IQMath/ti/_IQNsin_cos.c ****  * @param a               IQ29 type input.
 398:../Common/IQMath/ti/_IQNsin_cos.c ****  *
 399:../Common/IQMath/ti/_IQNsin_cos.c ****  * @return                IQ29 type result of cosine operation, in radians.
 400:../Common/IQMath/ti/_IQNsin_cos.c ****  */
 401:../Common/IQMath/ti/_IQNsin_cos.c **** int32_t _IQ29sin(int32_t a)
 402:../Common/IQMath/ti/_IQNsin_cos.c **** {
  30              		.loc 1 402 1 view -0
  31              		.cfi_startproc
  32              		@ args = 0, pretend = 0, frame = 0
  33              		@ frame_needed = 0, uses_anonymous_args = 0
  34              		.loc 1 402 1 is_stmt 0 view .LVU1
  35 0000 30B5     		push	{r4, r5, lr}
  36              	.LCFI0:
  37              		.cfi_def_cfa_offset 12
  38              		.cfi_offset 4, -12
  39              		.cfi_offset 5, -8
  40              		.cfi_offset 14, -4
 403:../Common/IQMath/ti/_IQNsin_cos.c ****     return __IQNsin_cos(a, 29, TYPE_SIN, TYPE_RAD);
  41              		.loc 1 403 5 is_stmt 1 view .LVU2
  42              	.LVL1:
  43              	.LBB70:
  44              	.LBI70:
 199:../Common/IQMath/ti/_IQNsin_cos.c ****                                    const int8_t type, const int8_t format)
  45              		.loc 1 199 30 view .LVU3
  46              	.LBB71:
 202:../Common/IQMath/ti/_IQNsin_cos.c ****     uint_fast16_t ui16IntState;
  47              		.loc 1 202 5 view .LVU4
 203:../Common/IQMath/ti/_IQNsin_cos.c ****     uint_fast16_t ui16MPYState;
  48              		.loc 1 203 5 view .LVU5
 204:../Common/IQMath/ti/_IQNsin_cos.c ****     uint_fast32_t uiq29Input;
  49              		.loc 1 204 5 view .LVU6
 205:../Common/IQMath/ti/_IQNsin_cos.c ****     uint_fast32_t uiq30Input;
ARM GAS  C:\Users\57308\AppData\Local\Temp\ccvDm0cb.s 			page 9


  50              		.loc 1 205 5 view .LVU7
 206:../Common/IQMath/ti/_IQNsin_cos.c ****     uint_fast32_t uiq31Input;
  51              		.loc 1 206 5 view .LVU8
 207:../Common/IQMath/ti/_IQNsin_cos.c ****     uint_fast32_t uiq32Input;
  52              		.loc 1 207 5 view .LVU9
 208:../Common/IQMath/ti/_IQNsin_cos.c ****     uint_fast32_t uiq31Result;
  53              		.loc 1 208 5 view .LVU10
 209:../Common/IQMath/ti/_IQNsin_cos.c ****     
  54              		.loc 1 209 5 view .LVU11
 212:../Common/IQMath/ti/_IQNsin_cos.c ****         iqNInput = -iqNInput;
  55              		.loc 1 212 5 view .LVU12
 212:../Common/IQMath/ti/_IQNsin_cos.c ****         iqNInput = -iqNInput;
  56              		.loc 1 212 8 is_stmt 0 view .LVU13
  57 0002 0028     		cmp	r0, #0
 212:../Common/IQMath/ti/_IQNsin_cos.c ****         iqNInput = -iqNInput;
  58              		.loc 1 212 8 view .LVU14
  59 0004 4CDB     		blt	.L10
 202:../Common/IQMath/ti/_IQNsin_cos.c ****     uint_fast16_t ui16IntState;
  60              		.loc 1 202 13 view .LVU15
  61 0006 0022     		movs	r2, #0
  62              	.LVL2:
  63              	.L2:
 227:../Common/IQMath/ti/_IQNsin_cos.c ****     
  64              		.loc 1 227 5 is_stmt 1 view .LVU16
 227:../Common/IQMath/ti/_IQNsin_cos.c ****     
  65              		.loc 1 227 5 is_stmt 0 view .LVU17
  66              	.LBE71:
  67              	.LBE70:
  68              		.file 2 "../Common/IQMath/ti/./support/RTS_support.h"
   1:../Common/IQMath/ti/./support/RTS_support.h **** #ifndef __RTS_SUPPORTH__
   2:../Common/IQMath/ti/./support/RTS_support.h **** #define __RTS_SUPPORTH__
   3:../Common/IQMath/ti/./support/RTS_support.h **** 
   4:../Common/IQMath/ti/./support/RTS_support.h **** ////////////////////////////////////////////////////////////
   5:../Common/IQMath/ti/./support/RTS_support.h **** //                                                        //
   6:../Common/IQMath/ti/./support/RTS_support.h **** //              MPY32 control functions.                  //
   7:../Common/IQMath/ti/./support/RTS_support.h **** //                                                        //
   8:../Common/IQMath/ti/./support/RTS_support.h **** ////////////////////////////////////////////////////////////
   9:../Common/IQMath/ti/./support/RTS_support.h **** #if defined (__TI_COMPILER_VERSION__)
  10:../Common/IQMath/ti/./support/RTS_support.h ****     #pragma FUNC_ALWAYS_INLINE(__mpy_start)
  11:../Common/IQMath/ti/./support/RTS_support.h **** #elif defined(__IAR_SYSTEMS_ICC__)
  12:../Common/IQMath/ti/./support/RTS_support.h ****     #pragma inline=forced
  13:../Common/IQMath/ti/./support/RTS_support.h **** #endif
  14:../Common/IQMath/ti/./support/RTS_support.h **** static inline void __mpy_start(uint_fast16_t *ui16IntState, uint_fast16_t *ui16MPYState)
  15:../Common/IQMath/ti/./support/RTS_support.h **** {
  16:../Common/IQMath/ti/./support/RTS_support.h ****     /* Do nothing. */
  17:../Common/IQMath/ti/./support/RTS_support.h ****     return;
  18:../Common/IQMath/ti/./support/RTS_support.h **** }
  19:../Common/IQMath/ti/./support/RTS_support.h **** 
  20:../Common/IQMath/ti/./support/RTS_support.h **** #if defined (__TI_COMPILER_VERSION__)
  21:../Common/IQMath/ti/./support/RTS_support.h ****     #pragma FUNC_ALWAYS_INLINE(__mpyf_start)
  22:../Common/IQMath/ti/./support/RTS_support.h **** #elif defined(__IAR_SYSTEMS_ICC__)
  23:../Common/IQMath/ti/./support/RTS_support.h ****     #pragma inline=forced
  24:../Common/IQMath/ti/./support/RTS_support.h **** #endif
  25:../Common/IQMath/ti/./support/RTS_support.h **** static inline void __mpyf_start(uint_fast16_t *ui16IntState, uint_fast16_t *ui16MPYState)
  26:../Common/IQMath/ti/./support/RTS_support.h **** {
  27:../Common/IQMath/ti/./support/RTS_support.h ****     /* Do nothing. */
  28:../Common/IQMath/ti/./support/RTS_support.h ****     return;
ARM GAS  C:\Users\57308\AppData\Local\Temp\ccvDm0cb.s 			page 10


  69              		.loc 2 28 5 is_stmt 1 view .LVU18
  70              	.LBB96:
  71              	.LBB93:
 230:../Common/IQMath/ti/_IQNsin_cos.c ****         /* 
  72              		.loc 1 230 5 view .LVU19
  73              	.LBB72:
 253:../Common/IQMath/ti/_IQNsin_cos.c ****         
  74              		.loc 1 253 9 view .LVU20
 256:../Common/IQMath/ti/_IQNsin_cos.c ****         
  75              		.loc 1 256 9 view .LVU21
 256:../Common/IQMath/ti/_IQNsin_cos.c ****         
  76              		.loc 1 256 20 is_stmt 0 view .LVU22
  77 0008 0146     		mov	r1, r0
  78              	.LVL3:
 259:../Common/IQMath/ti/_IQNsin_cos.c ****             if (uiq29Input >= iq29_pi) {
  79              		.loc 1 259 9 is_stmt 1 view .LVU23
 259:../Common/IQMath/ti/_IQNsin_cos.c ****             if (uiq29Input >= iq29_pi) {
  80              		.loc 1 259 15 view .LVU24
 268:../Common/IQMath/ti/_IQNsin_cos.c ****             uiq29Input -= iq29_pi;
  81              		.loc 1 268 9 view .LVU25
 268:../Common/IQMath/ti/_IQNsin_cos.c ****             uiq29Input -= iq29_pi;
  82              		.loc 1 268 12 is_stmt 0 view .LVU26
  83 000a 404B     		ldr	r3, .L11
  84 000c 9842     		cmp	r0, r3
  85 000e 03D9     		bls	.L3
 269:../Common/IQMath/ti/_IQNsin_cos.c ****             ui8Sign ^= 1;
  86              		.loc 1 269 13 is_stmt 1 view .LVU27
 269:../Common/IQMath/ti/_IQNsin_cos.c ****             ui8Sign ^= 1;
  87              		.loc 1 269 24 is_stmt 0 view .LVU28
  88 0010 3F49     		ldr	r1, .L11+4
  89 0012 0144     		add	r1, r1, r0
  90              	.LVL4:
 270:../Common/IQMath/ti/_IQNsin_cos.c ****         }
  91              		.loc 1 270 13 is_stmt 1 view .LVU29
 270:../Common/IQMath/ti/_IQNsin_cos.c ****         }
  92              		.loc 1 270 21 is_stmt 0 view .LVU30
  93 0014 82F00102 		eor	r2, r2, #1
  94              	.LVL5:
  95              	.L3:
 274:../Common/IQMath/ti/_IQNsin_cos.c ****     }
  96              		.loc 1 274 9 is_stmt 1 view .LVU31
 274:../Common/IQMath/ti/_IQNsin_cos.c ****     }
  97              		.loc 1 274 20 is_stmt 0 view .LVU32
  98 0018 4B00     		lsls	r3, r1, #1
  99              	.LVL6:
 274:../Common/IQMath/ti/_IQNsin_cos.c ****     }
 100              		.loc 1 274 20 view .LVU33
 101              	.LBE72:
 278:../Common/IQMath/ti/_IQNsin_cos.c ****         uiq30Input = iq30_pi - uiq30Input;
 102              		.loc 1 278 5 is_stmt 1 view .LVU34
 278:../Common/IQMath/ti/_IQNsin_cos.c ****         uiq30Input = iq30_pi - uiq30Input;
 103              		.loc 1 278 8 is_stmt 0 view .LVU35
 104 001a 3C48     		ldr	r0, .L11
 105              	.LVL7:
 278:../Common/IQMath/ti/_IQNsin_cos.c ****         uiq30Input = iq30_pi - uiq30Input;
 106              		.loc 1 278 8 view .LVU36
 107 001c B0EB410F 		cmp	r0, r1, lsl #1
ARM GAS  C:\Users\57308\AppData\Local\Temp\ccvDm0cb.s 			page 11


 108 0020 05D2     		bcs	.L4
 279:../Common/IQMath/ti/_IQNsin_cos.c ****         
 109              		.loc 1 279 9 is_stmt 1 view .LVU37
 279:../Common/IQMath/ti/_IQNsin_cos.c ****         
 110              		.loc 1 279 20 is_stmt 0 view .LVU38
 111 0022 C3F14943 		rsb	r3, r3, #-922746880
 112              	.LVL8:
 279:../Common/IQMath/ti/_IQNsin_cos.c ****         
 113              		.loc 1 279 20 view .LVU39
 114 0026 03F57D23 		add	r3, r3, #1036288
 115 002a 03F6A223 		addw	r3, r3, #2722
 116              	.LVL9:
 282:../Common/IQMath/ti/_IQNsin_cos.c ****             ui8Sign ^= 1;
 117              		.loc 1 282 9 is_stmt 1 view .LVU40
 118              	.L4:
 288:../Common/IQMath/ti/_IQNsin_cos.c ****     
 119              		.loc 1 288 5 view .LVU41
 288:../Common/IQMath/ti/_IQNsin_cos.c ****     
 120              		.loc 1 288 16 is_stmt 0 view .LVU42
 121 002e 5900     		lsls	r1, r3, #1
 122              	.LVL10:
 291:../Common/IQMath/ti/_IQNsin_cos.c ****         /* If input is greater than pi/4 use sin for calculations */
 123              		.loc 1 291 5 is_stmt 1 view .LVU43
 301:../Common/IQMath/ti/_IQNsin_cos.c ****         /* If input is greater than pi/4 use cos for calculations */
 124              		.loc 1 301 10 view .LVU44
 303:../Common/IQMath/ti/_IQNsin_cos.c ****             uiq31Input = iq31_halfPi - uiq31Input;
 125              		.loc 1 303 9 view .LVU45
 303:../Common/IQMath/ti/_IQNsin_cos.c ****             uiq31Input = iq31_halfPi - uiq31Input;
 126              		.loc 1 303 12 is_stmt 0 view .LVU46
 127 0030 3848     		ldr	r0, .L11+8
 128 0032 B0EB430F 		cmp	r0, r3, lsl #1
 129 0036 36D2     		bcs	.L5
 304:../Common/IQMath/ti/_IQNsin_cos.c ****             uiq31Result = __IQNcalcCos(uiq31Input);
 130              		.loc 1 304 13 is_stmt 1 view .LVU47
 304:../Common/IQMath/ti/_IQNsin_cos.c ****             uiq31Result = __IQNcalcCos(uiq31Input);
 131              		.loc 1 304 24 is_stmt 0 view .LVU48
 132 0038 374B     		ldr	r3, .L11+12
 133              	.LVL11:
 304:../Common/IQMath/ti/_IQNsin_cos.c ****             uiq31Result = __IQNcalcCos(uiq31Input);
 134              		.loc 1 304 24 view .LVU49
 135 003a 5B1A     		subs	r3, r3, r1
 136              	.LVL12:
 305:../Common/IQMath/ti/_IQNsin_cos.c ****         }
 137              		.loc 1 305 13 is_stmt 1 view .LVU50
 138              	.LBB73:
 139              	.LBI73:
 139:../Common/IQMath/ti/_IQNsin_cos.c **** {
 140              		.loc 1 139 30 view .LVU51
 141              	.LBB74:
 141:../Common/IQMath/ti/_IQNsin_cos.c ****     int_fast32_t iq31X;
 142              		.loc 1 141 2 view .LVU52
 142:../Common/IQMath/ti/_IQNsin_cos.c ****     int_fast32_t iq31Sin;
 143              		.loc 1 142 5 view .LVU53
 143:../Common/IQMath/ti/_IQNsin_cos.c ****     int_fast32_t iq31Cos;
 144              		.loc 1 143 5 view .LVU54
 144:../Common/IQMath/ti/_IQNsin_cos.c ****     int_fast32_t iq31Res;
 145              		.loc 1 144 5 view .LVU55
ARM GAS  C:\Users\57308\AppData\Local\Temp\ccvDm0cb.s 			page 12


 145:../Common/IQMath/ti/_IQNsin_cos.c ****     
 146              		.loc 1 145 5 view .LVU56
 148:../Common/IQMath/ti/_IQNsin_cos.c ****     
 147              		.loc 1 148 5 view .LVU57
 148:../Common/IQMath/ti/_IQNsin_cos.c ****     
 148              		.loc 1 148 11 is_stmt 0 view .LVU58
 149 003c C3F34561 		ubfx	r1, r3, #25, #6
 150              	.LVL13:
 151:../Common/IQMath/ti/_IQNsin_cos.c ****     iq31Cos = _IQ31CosLookup[index];
 151              		.loc 1 151 5 is_stmt 1 view .LVU59
 151:../Common/IQMath/ti/_IQNsin_cos.c ****     iq31Cos = _IQ31CosLookup[index];
 152              		.loc 1 151 13 is_stmt 0 view .LVU60
 153 0040 3648     		ldr	r0, .L11+16
 154 0042 50F82150 		ldr	r5, [r0, r1, lsl #2]
 155              	.LVL14:
 152:../Common/IQMath/ti/_IQNsin_cos.c ****     
 156              		.loc 1 152 5 is_stmt 1 view .LVU61
 152:../Common/IQMath/ti/_IQNsin_cos.c ****     
 157              		.loc 1 152 13 is_stmt 0 view .LVU62
 158 0046 3648     		ldr	r0, .L11+20
 159 0048 50F82100 		ldr	r0, [r0, r1, lsl #2]
 160              	.LVL15:
 159:../Common/IQMath/ti/_IQNsin_cos.c ****     
 161              		.loc 1 159 5 is_stmt 1 view .LVU63
 159:../Common/IQMath/ti/_IQNsin_cos.c ****     
 162              		.loc 1 159 11 is_stmt 0 view .LVU64
 163 004c 23F07E41 		bic	r1, r3, #-33554432
 164              	.LVL16:
 162:../Common/IQMath/ti/_IQNsin_cos.c ****     iq31Res = __mpyf_l(iq31Sin, iq31Res);
 165              		.loc 1 162 5 is_stmt 1 view .LVU65
 166              	.LBB75:
 167              	.LBI75:
  29:../Common/IQMath/ti/./support/RTS_support.h **** }
  30:../Common/IQMath/ti/./support/RTS_support.h **** 
  31:../Common/IQMath/ti/./support/RTS_support.h **** #if defined (__TI_COMPILER_VERSION__)
  32:../Common/IQMath/ti/./support/RTS_support.h ****     #pragma FUNC_ALWAYS_INLINE(__mpyfs_start)
  33:../Common/IQMath/ti/./support/RTS_support.h **** #elif defined(__IAR_SYSTEMS_ICC__)
  34:../Common/IQMath/ti/./support/RTS_support.h ****     #pragma inline=forced
  35:../Common/IQMath/ti/./support/RTS_support.h **** #endif
  36:../Common/IQMath/ti/./support/RTS_support.h **** static inline void __mpyfs_start(uint_fast16_t *ui16IntState, uint_fast16_t *ui16MPYState)
  37:../Common/IQMath/ti/./support/RTS_support.h **** {
  38:../Common/IQMath/ti/./support/RTS_support.h ****     /* Do nothing. */
  39:../Common/IQMath/ti/./support/RTS_support.h ****     return;
  40:../Common/IQMath/ti/./support/RTS_support.h **** }
  41:../Common/IQMath/ti/./support/RTS_support.h **** 
  42:../Common/IQMath/ti/./support/RTS_support.h **** #if defined (__TI_COMPILER_VERSION__)
  43:../Common/IQMath/ti/./support/RTS_support.h ****     #pragma FUNC_ALWAYS_INLINE(__mpy_clear_ctl0)
  44:../Common/IQMath/ti/./support/RTS_support.h **** #elif defined(__IAR_SYSTEMS_ICC__)
  45:../Common/IQMath/ti/./support/RTS_support.h ****     #pragma inline=forced
  46:../Common/IQMath/ti/./support/RTS_support.h **** #endif
  47:../Common/IQMath/ti/./support/RTS_support.h **** static inline void __mpy_clear_ctl0(void)
  48:../Common/IQMath/ti/./support/RTS_support.h **** {
  49:../Common/IQMath/ti/./support/RTS_support.h ****     /* Do nothing. */
  50:../Common/IQMath/ti/./support/RTS_support.h ****     return;
  51:../Common/IQMath/ti/./support/RTS_support.h **** }
  52:../Common/IQMath/ti/./support/RTS_support.h **** 
  53:../Common/IQMath/ti/./support/RTS_support.h **** #if defined (__TI_COMPILER_VERSION__)
ARM GAS  C:\Users\57308\AppData\Local\Temp\ccvDm0cb.s 			page 13


  54:../Common/IQMath/ti/./support/RTS_support.h ****     #pragma FUNC_ALWAYS_INLINE(__mpy_set_frac)
  55:../Common/IQMath/ti/./support/RTS_support.h **** #elif defined(__IAR_SYSTEMS_ICC__)
  56:../Common/IQMath/ti/./support/RTS_support.h ****     #pragma inline=forced
  57:../Common/IQMath/ti/./support/RTS_support.h **** #endif
  58:../Common/IQMath/ti/./support/RTS_support.h **** static inline void __mpy_set_frac(void)
  59:../Common/IQMath/ti/./support/RTS_support.h **** {
  60:../Common/IQMath/ti/./support/RTS_support.h ****     /* Do nothing. */
  61:../Common/IQMath/ti/./support/RTS_support.h ****     return;
  62:../Common/IQMath/ti/./support/RTS_support.h **** }
  63:../Common/IQMath/ti/./support/RTS_support.h **** 
  64:../Common/IQMath/ti/./support/RTS_support.h **** #if defined (__TI_COMPILER_VERSION__)
  65:../Common/IQMath/ti/./support/RTS_support.h ****     #pragma FUNC_ALWAYS_INLINE(__mpy_stop)
  66:../Common/IQMath/ti/./support/RTS_support.h **** #elif defined(__IAR_SYSTEMS_ICC__)
  67:../Common/IQMath/ti/./support/RTS_support.h ****     #pragma inline=forced
  68:../Common/IQMath/ti/./support/RTS_support.h **** #endif
  69:../Common/IQMath/ti/./support/RTS_support.h **** static inline void __mpy_stop(uint_fast16_t *ui16IntState, uint_fast16_t *ui16MPYState)
  70:../Common/IQMath/ti/./support/RTS_support.h **** {
  71:../Common/IQMath/ti/./support/RTS_support.h ****     /* Do nothing. */
  72:../Common/IQMath/ti/./support/RTS_support.h ****     return;
  73:../Common/IQMath/ti/./support/RTS_support.h **** }
  74:../Common/IQMath/ti/./support/RTS_support.h **** 
  75:../Common/IQMath/ti/./support/RTS_support.h **** ////////////////////////////////////////////////////////////
  76:../Common/IQMath/ti/./support/RTS_support.h **** //                                                        //
  77:../Common/IQMath/ti/./support/RTS_support.h **** //                16-bit functions                        //
  78:../Common/IQMath/ti/./support/RTS_support.h **** //                                                        //
  79:../Common/IQMath/ti/./support/RTS_support.h **** ////////////////////////////////////////////////////////////
  80:../Common/IQMath/ti/./support/RTS_support.h **** #if defined (__TI_COMPILER_VERSION__)
  81:../Common/IQMath/ti/./support/RTS_support.h ****     #pragma FUNC_ALWAYS_INLINE(__mpy_w)
  82:../Common/IQMath/ti/./support/RTS_support.h **** #elif defined(__IAR_SYSTEMS_ICC__)
  83:../Common/IQMath/ti/./support/RTS_support.h ****     #pragma inline=forced
  84:../Common/IQMath/ti/./support/RTS_support.h **** #endif
  85:../Common/IQMath/ti/./support/RTS_support.h **** static inline int_fast16_t __mpy_w(int_fast16_t arg1, int_fast16_t arg2)
  86:../Common/IQMath/ti/./support/RTS_support.h **** {
  87:../Common/IQMath/ti/./support/RTS_support.h ****     return (arg1 * arg2);
  88:../Common/IQMath/ti/./support/RTS_support.h **** }
  89:../Common/IQMath/ti/./support/RTS_support.h **** 
  90:../Common/IQMath/ti/./support/RTS_support.h **** #if defined (__TI_COMPILER_VERSION__)
  91:../Common/IQMath/ti/./support/RTS_support.h ****     #pragma FUNC_ALWAYS_INLINE(__mpy_uw)
  92:../Common/IQMath/ti/./support/RTS_support.h **** #elif defined(__IAR_SYSTEMS_ICC__)
  93:../Common/IQMath/ti/./support/RTS_support.h ****     #pragma inline=forced
  94:../Common/IQMath/ti/./support/RTS_support.h **** #endif
  95:../Common/IQMath/ti/./support/RTS_support.h **** static inline uint_fast16_t __mpy_uw(uint_fast16_t arg1, uint_fast16_t arg2)
  96:../Common/IQMath/ti/./support/RTS_support.h **** {
  97:../Common/IQMath/ti/./support/RTS_support.h ****     return (arg1 * arg2);
  98:../Common/IQMath/ti/./support/RTS_support.h **** }
  99:../Common/IQMath/ti/./support/RTS_support.h **** 
 100:../Common/IQMath/ti/./support/RTS_support.h **** #if defined (__TI_COMPILER_VERSION__)
 101:../Common/IQMath/ti/./support/RTS_support.h ****     #pragma FUNC_ALWAYS_INLINE(__mpyx_w)
 102:../Common/IQMath/ti/./support/RTS_support.h **** #elif defined(__IAR_SYSTEMS_ICC__)
 103:../Common/IQMath/ti/./support/RTS_support.h ****     #pragma inline=forced
 104:../Common/IQMath/ti/./support/RTS_support.h **** #endif
 105:../Common/IQMath/ti/./support/RTS_support.h **** static inline int_fast32_t __mpyx_w(int_fast16_t arg1, int_fast16_t arg2)
 106:../Common/IQMath/ti/./support/RTS_support.h **** {
 107:../Common/IQMath/ti/./support/RTS_support.h ****     return ((int_fast32_t)arg1 * (int_fast32_t)arg2);
 108:../Common/IQMath/ti/./support/RTS_support.h **** }
 109:../Common/IQMath/ti/./support/RTS_support.h **** 
 110:../Common/IQMath/ti/./support/RTS_support.h **** #if defined (__TI_COMPILER_VERSION__)
ARM GAS  C:\Users\57308\AppData\Local\Temp\ccvDm0cb.s 			page 14


 111:../Common/IQMath/ti/./support/RTS_support.h ****     #pragma FUNC_ALWAYS_INLINE(__mpyx_uw)
 112:../Common/IQMath/ti/./support/RTS_support.h **** #elif defined(__IAR_SYSTEMS_ICC__)
 113:../Common/IQMath/ti/./support/RTS_support.h ****     #pragma inline=forced
 114:../Common/IQMath/ti/./support/RTS_support.h **** #endif
 115:../Common/IQMath/ti/./support/RTS_support.h **** static inline uint_fast32_t __mpyx_uw(uint_fast16_t arg1, uint_fast16_t arg2)
 116:../Common/IQMath/ti/./support/RTS_support.h **** {
 117:../Common/IQMath/ti/./support/RTS_support.h ****     return ((uint_fast32_t)arg1 * (uint_fast32_t)arg2);
 118:../Common/IQMath/ti/./support/RTS_support.h **** }
 119:../Common/IQMath/ti/./support/RTS_support.h **** 
 120:../Common/IQMath/ti/./support/RTS_support.h **** #if defined (__TI_COMPILER_VERSION__)
 121:../Common/IQMath/ti/./support/RTS_support.h ****     #pragma FUNC_ALWAYS_INLINE(__mpyf_w)
 122:../Common/IQMath/ti/./support/RTS_support.h **** #elif defined(__IAR_SYSTEMS_ICC__)
 123:../Common/IQMath/ti/./support/RTS_support.h ****     #pragma inline=forced
 124:../Common/IQMath/ti/./support/RTS_support.h **** #endif
 125:../Common/IQMath/ti/./support/RTS_support.h **** static inline int_fast16_t __mpyf_w(int_fast16_t arg1, int_fast16_t arg2)
 126:../Common/IQMath/ti/./support/RTS_support.h **** {
 127:../Common/IQMath/ti/./support/RTS_support.h ****     return (int_fast16_t)(((int_fast32_t)arg1 * (int_fast32_t)arg2) >> 15);
 128:../Common/IQMath/ti/./support/RTS_support.h **** }
 129:../Common/IQMath/ti/./support/RTS_support.h **** 
 130:../Common/IQMath/ti/./support/RTS_support.h **** #if defined (__TI_COMPILER_VERSION__)
 131:../Common/IQMath/ti/./support/RTS_support.h ****     #pragma FUNC_ALWAYS_INLINE(__mpyf_w_reuse_arg1)
 132:../Common/IQMath/ti/./support/RTS_support.h **** #elif defined(__IAR_SYSTEMS_ICC__)
 133:../Common/IQMath/ti/./support/RTS_support.h ****     #pragma inline=forced
 134:../Common/IQMath/ti/./support/RTS_support.h **** #endif
 135:../Common/IQMath/ti/./support/RTS_support.h **** static inline int_fast16_t __mpyf_w_reuse_arg1(int_fast16_t arg1, int_fast16_t arg2)
 136:../Common/IQMath/ti/./support/RTS_support.h **** {
 137:../Common/IQMath/ti/./support/RTS_support.h ****     /* This is identical to __mpyf_w */
 138:../Common/IQMath/ti/./support/RTS_support.h ****     return (int_fast16_t)(((int_fast32_t)arg1 * (int_fast32_t)arg2) >> 15);
 139:../Common/IQMath/ti/./support/RTS_support.h **** }
 140:../Common/IQMath/ti/./support/RTS_support.h **** 
 141:../Common/IQMath/ti/./support/RTS_support.h **** #if defined (__TI_COMPILER_VERSION__)
 142:../Common/IQMath/ti/./support/RTS_support.h ****     #pragma FUNC_ALWAYS_INLINE(__mpyf_uw)
 143:../Common/IQMath/ti/./support/RTS_support.h **** #elif defined(__IAR_SYSTEMS_ICC__)
 144:../Common/IQMath/ti/./support/RTS_support.h ****     #pragma inline=forced
 145:../Common/IQMath/ti/./support/RTS_support.h **** #endif
 146:../Common/IQMath/ti/./support/RTS_support.h **** static inline uint_fast16_t __mpyf_uw(uint_fast16_t arg1, uint_fast16_t arg2)
 147:../Common/IQMath/ti/./support/RTS_support.h **** {
 148:../Common/IQMath/ti/./support/RTS_support.h ****     return (uint_fast16_t)(((uint_fast32_t)arg1 * (uint_fast32_t)arg2) >> 15);
 149:../Common/IQMath/ti/./support/RTS_support.h **** }
 150:../Common/IQMath/ti/./support/RTS_support.h **** 
 151:../Common/IQMath/ti/./support/RTS_support.h **** #if defined (__TI_COMPILER_VERSION__)
 152:../Common/IQMath/ti/./support/RTS_support.h ****     #pragma FUNC_ALWAYS_INLINE(__mpyf_uw_reuse_arg1)
 153:../Common/IQMath/ti/./support/RTS_support.h **** #elif defined(__IAR_SYSTEMS_ICC__)
 154:../Common/IQMath/ti/./support/RTS_support.h ****     #pragma inline=forced
 155:../Common/IQMath/ti/./support/RTS_support.h **** #endif
 156:../Common/IQMath/ti/./support/RTS_support.h **** static inline uint_fast16_t __mpyf_uw_reuse_arg1(uint_fast16_t arg1, uint_fast16_t arg2)
 157:../Common/IQMath/ti/./support/RTS_support.h **** {
 158:../Common/IQMath/ti/./support/RTS_support.h ****     /* This is identical to __mpyf_uw */
 159:../Common/IQMath/ti/./support/RTS_support.h ****     return (uint_fast16_t)(((uint_fast32_t)arg1 * (uint_fast32_t)arg2) >> 15);
 160:../Common/IQMath/ti/./support/RTS_support.h **** }
 161:../Common/IQMath/ti/./support/RTS_support.h **** 
 162:../Common/IQMath/ti/./support/RTS_support.h **** #if defined (__TI_COMPILER_VERSION__)
 163:../Common/IQMath/ti/./support/RTS_support.h ****     #pragma FUNC_ALWAYS_INLINE(__mpyfx_w)
 164:../Common/IQMath/ti/./support/RTS_support.h **** #elif defined(__IAR_SYSTEMS_ICC__)
 165:../Common/IQMath/ti/./support/RTS_support.h ****     #pragma inline=forced
 166:../Common/IQMath/ti/./support/RTS_support.h **** #endif
 167:../Common/IQMath/ti/./support/RTS_support.h **** static inline int_fast32_t __mpyfx_w(int_fast16_t arg1, int_fast16_t arg2)
ARM GAS  C:\Users\57308\AppData\Local\Temp\ccvDm0cb.s 			page 15


 168:../Common/IQMath/ti/./support/RTS_support.h **** {
 169:../Common/IQMath/ti/./support/RTS_support.h ****     return (((int_fast32_t)arg1 * (int_fast32_t)arg2) << 1);
 170:../Common/IQMath/ti/./support/RTS_support.h **** }
 171:../Common/IQMath/ti/./support/RTS_support.h **** 
 172:../Common/IQMath/ti/./support/RTS_support.h **** #if defined (__TI_COMPILER_VERSION__)
 173:../Common/IQMath/ti/./support/RTS_support.h ****     #pragma FUNC_ALWAYS_INLINE(__mpyfx_uw)
 174:../Common/IQMath/ti/./support/RTS_support.h **** #elif defined(__IAR_SYSTEMS_ICC__)
 175:../Common/IQMath/ti/./support/RTS_support.h ****     #pragma inline=forced
 176:../Common/IQMath/ti/./support/RTS_support.h **** #endif
 177:../Common/IQMath/ti/./support/RTS_support.h **** static inline int_fast32_t __mpyfx_uw(uint_fast16_t arg1, uint_fast16_t arg2)
 178:../Common/IQMath/ti/./support/RTS_support.h **** {
 179:../Common/IQMath/ti/./support/RTS_support.h ****     return (((uint_fast32_t)arg1 * (uint_fast32_t)arg2) << 1);
 180:../Common/IQMath/ti/./support/RTS_support.h **** }
 181:../Common/IQMath/ti/./support/RTS_support.h **** 
 182:../Common/IQMath/ti/./support/RTS_support.h **** 
 183:../Common/IQMath/ti/./support/RTS_support.h **** ////////////////////////////////////////////////////////////
 184:../Common/IQMath/ti/./support/RTS_support.h **** //                                                        //
 185:../Common/IQMath/ti/./support/RTS_support.h **** //                 32-bit functions                       //
 186:../Common/IQMath/ti/./support/RTS_support.h **** //                                                        //
 187:../Common/IQMath/ti/./support/RTS_support.h **** ////////////////////////////////////////////////////////////
 188:../Common/IQMath/ti/./support/RTS_support.h **** #if defined (__TI_COMPILER_VERSION__)
 189:../Common/IQMath/ti/./support/RTS_support.h ****     #pragma FUNC_ALWAYS_INLINE(__mpy_l)
 190:../Common/IQMath/ti/./support/RTS_support.h **** #elif defined(__IAR_SYSTEMS_ICC__)
 191:../Common/IQMath/ti/./support/RTS_support.h ****     #pragma inline=forced
 192:../Common/IQMath/ti/./support/RTS_support.h **** #endif
 193:../Common/IQMath/ti/./support/RTS_support.h **** static inline int_fast32_t __mpy_l(int_fast32_t arg1, int_fast32_t arg2)
 194:../Common/IQMath/ti/./support/RTS_support.h **** {
 195:../Common/IQMath/ti/./support/RTS_support.h ****     return (arg1 * arg2);
 196:../Common/IQMath/ti/./support/RTS_support.h **** }
 197:../Common/IQMath/ti/./support/RTS_support.h **** 
 198:../Common/IQMath/ti/./support/RTS_support.h **** #if defined (__TI_COMPILER_VERSION__)
 199:../Common/IQMath/ti/./support/RTS_support.h ****     #pragma FUNC_ALWAYS_INLINE(__mpy_ul)
 200:../Common/IQMath/ti/./support/RTS_support.h **** #elif defined(__IAR_SYSTEMS_ICC__)
 201:../Common/IQMath/ti/./support/RTS_support.h ****     #pragma inline=forced
 202:../Common/IQMath/ti/./support/RTS_support.h **** #endif
 203:../Common/IQMath/ti/./support/RTS_support.h **** static inline uint_fast32_t __mpy_ul(uint_fast32_t arg1, uint_fast32_t arg2)
 204:../Common/IQMath/ti/./support/RTS_support.h **** {
 205:../Common/IQMath/ti/./support/RTS_support.h ****     return (arg1 * arg2);
 206:../Common/IQMath/ti/./support/RTS_support.h **** }
 207:../Common/IQMath/ti/./support/RTS_support.h **** 
 208:../Common/IQMath/ti/./support/RTS_support.h **** #if defined (__TI_COMPILER_VERSION__)
 209:../Common/IQMath/ti/./support/RTS_support.h ****     #pragma FUNC_ALWAYS_INLINE(__mpyx)
 210:../Common/IQMath/ti/./support/RTS_support.h **** #elif defined(__IAR_SYSTEMS_ICC__)
 211:../Common/IQMath/ti/./support/RTS_support.h ****     #pragma inline=forced
 212:../Common/IQMath/ti/./support/RTS_support.h **** #endif
 213:../Common/IQMath/ti/./support/RTS_support.h **** static inline int_fast64_t __mpyx(int_fast32_t arg1, int_fast32_t arg2)
 214:../Common/IQMath/ti/./support/RTS_support.h **** {
 215:../Common/IQMath/ti/./support/RTS_support.h ****     return ((int_fast64_t)arg1 * (int_fast64_t)arg2);
 216:../Common/IQMath/ti/./support/RTS_support.h **** }
 217:../Common/IQMath/ti/./support/RTS_support.h **** 
 218:../Common/IQMath/ti/./support/RTS_support.h **** #if defined (__TI_COMPILER_VERSION__)
 219:../Common/IQMath/ti/./support/RTS_support.h ****     #pragma FUNC_ALWAYS_INLINE(__mpyx_u)
 220:../Common/IQMath/ti/./support/RTS_support.h **** #elif defined(__IAR_SYSTEMS_ICC__)
 221:../Common/IQMath/ti/./support/RTS_support.h ****     #pragma inline=forced
 222:../Common/IQMath/ti/./support/RTS_support.h **** #endif
 223:../Common/IQMath/ti/./support/RTS_support.h **** static inline uint_fast64_t __mpyx_u(uint_fast32_t arg1, uint_fast32_t arg2)
 224:../Common/IQMath/ti/./support/RTS_support.h **** {
ARM GAS  C:\Users\57308\AppData\Local\Temp\ccvDm0cb.s 			page 16


 225:../Common/IQMath/ti/./support/RTS_support.h ****     return ((uint_fast64_t)arg1 * (uint_fast64_t)arg2);
 226:../Common/IQMath/ti/./support/RTS_support.h **** }
 227:../Common/IQMath/ti/./support/RTS_support.h **** 
 228:../Common/IQMath/ti/./support/RTS_support.h **** #if defined (__TI_COMPILER_VERSION__)
 229:../Common/IQMath/ti/./support/RTS_support.h ****     #pragma FUNC_ALWAYS_INLINE(__mpyf_l)
 230:../Common/IQMath/ti/./support/RTS_support.h **** #elif defined(__IAR_SYSTEMS_ICC__)
 231:../Common/IQMath/ti/./support/RTS_support.h ****     #pragma inline=forced
 232:../Common/IQMath/ti/./support/RTS_support.h **** #endif
 233:../Common/IQMath/ti/./support/RTS_support.h **** static inline int_fast32_t __mpyf_l(int_fast32_t arg1, int_fast32_t arg2)
 168              		.loc 2 233 28 view .LVU66
 169              	.LBB76:
 234:../Common/IQMath/ti/./support/RTS_support.h **** {
 235:../Common/IQMath/ti/./support/RTS_support.h ****     return (int_fast32_t)(((int_fast64_t)arg1 * (int_fast64_t)arg2) >> 31);
 170              		.loc 2 235 5 view .LVU67
 171              		.loc 2 235 47 is_stmt 0 view .LVU68
 172 0050 344C     		ldr	r4, .L11+24
 173 0052 A1FB04C4 		umull	ip, r4, r1, r4
 174              		.loc 2 235 69 view .LVU69
 175 0056 4FEADC7C 		lsr	ip, ip, #31
 176 005a 4CEA440C 		orr	ip, ip, r4, lsl #1
 177              	.LVL17:
 178              		.loc 2 235 69 view .LVU70
 179              	.LBE76:
 180              	.LBE75:
 163:../Common/IQMath/ti/_IQNsin_cos.c ****     
 181              		.loc 1 163 5 is_stmt 1 view .LVU71
 182              	.LBB77:
 183              	.LBI77:
 233:../Common/IQMath/ti/./support/RTS_support.h **** {
 184              		.loc 2 233 28 view .LVU72
 185              	.LBB78:
 186              		.loc 2 235 5 view .LVU73
 187              		.loc 2 235 28 is_stmt 0 view .LVU74
 188 005e 4FEAE57E 		asr	lr, r5, #31
 189              		.loc 2 235 47 view .LVU75
 190 0062 A5FB0C43 		umull	r4, r3, r5, ip
 191              	.LVL18:
 192              		.loc 2 235 47 view .LVU76
 193 0066 0CFB0E3C 		mla	ip, ip, lr, r3
 194              	.LVL19:
 195              		.loc 2 235 69 view .LVU77
 196 006a E40F     		lsrs	r4, r4, #31
 197 006c 44EA4C04 		orr	r4, r4, ip, lsl #1
 198              	.LVL20:
 199              		.loc 2 235 69 view .LVU78
 200              	.LBE78:
 201              	.LBE77:
 166:../Common/IQMath/ti/_IQNsin_cos.c ****     
 202              		.loc 1 166 5 is_stmt 1 view .LVU79
 166:../Common/IQMath/ti/_IQNsin_cos.c ****     
 203              		.loc 1 166 13 is_stmt 0 view .LVU80
 204 0070 241A     		subs	r4, r4, r0
 205              	.LVL21:
 169:../Common/IQMath/ti/_IQNsin_cos.c ****     iq31Res = __mpyf_l(iq31X, iq31Res);
 206              		.loc 1 169 5 is_stmt 1 view .LVU81
 169:../Common/IQMath/ti/_IQNsin_cos.c ****     iq31Res = __mpyf_l(iq31X, iq31Res);
 207              		.loc 1 169 13 is_stmt 0 view .LVU82
ARM GAS  C:\Users\57308\AppData\Local\Temp\ccvDm0cb.s 			page 17


 208 0072 6310     		asrs	r3, r4, #1
 209              	.LVL22:
 170:../Common/IQMath/ti/_IQNsin_cos.c ****     
 210              		.loc 1 170 5 is_stmt 1 view .LVU83
 211              	.LBB79:
 212              	.LBI79:
 233:../Common/IQMath/ti/./support/RTS_support.h **** {
 213              		.loc 2 233 28 view .LVU84
 214              	.LBB80:
 215              		.loc 2 235 5 view .LVU85
 216              		.loc 2 235 49 is_stmt 0 view .LVU86
 217 0074 E417     		asrs	r4, r4, #31
 218              		.loc 2 235 47 view .LVU87
 219 0076 A1FB033C 		umull	r3, ip, r1, r3
 220              	.LVL23:
 221              		.loc 2 235 47 view .LVU88
 222 007a 01FB04C4 		mla	r4, r1, r4, ip
 223              		.loc 2 235 69 view .LVU89
 224 007e DB0F     		lsrs	r3, r3, #31
 225 0080 43EA4403 		orr	r3, r3, r4, lsl #1
 226              	.LVL24:
 227              		.loc 2 235 69 view .LVU90
 228              	.LBE80:
 229              	.LBE79:
 173:../Common/IQMath/ti/_IQNsin_cos.c ****     
 230              		.loc 1 173 5 is_stmt 1 view .LVU91
 173:../Common/IQMath/ti/_IQNsin_cos.c ****     
 231              		.loc 1 173 13 is_stmt 0 view .LVU92
 232 0084 5B1B     		subs	r3, r3, r5
 233              	.LVL25:
 176:../Common/IQMath/ti/_IQNsin_cos.c ****     
 234              		.loc 1 176 5 is_stmt 1 view .LVU93
 235              	.LBB81:
 236              	.LBI81:
 233:../Common/IQMath/ti/./support/RTS_support.h **** {
 237              		.loc 2 233 28 view .LVU94
 238              	.LBB82:
 239              		.loc 2 235 5 view .LVU95
 240              		.loc 2 235 49 is_stmt 0 view .LVU96
 241 0086 DD17     		asrs	r5, r3, #31
 242              	.LVL26:
 243              		.loc 2 235 47 view .LVU97
 244 0088 A1FB0334 		umull	r3, r4, r1, r3
 245              	.LVL27:
 246              		.loc 2 235 47 view .LVU98
 247 008c 01FB0541 		mla	r1, r1, r5, r4
 248              	.LVL28:
 249              		.loc 2 235 69 view .LVU99
 250 0090 DB0F     		lsrs	r3, r3, #31
 251 0092 43EA4103 		orr	r3, r3, r1, lsl #1
 252              	.LVL29:
 253              		.loc 2 235 69 view .LVU100
 254              	.LBE82:
 255              	.LBE81:
 179:../Common/IQMath/ti/_IQNsin_cos.c ****     
 256              		.loc 1 179 5 is_stmt 1 view .LVU101
 179:../Common/IQMath/ti/_IQNsin_cos.c ****     
ARM GAS  C:\Users\57308\AppData\Local\Temp\ccvDm0cb.s 			page 18


 257              		.loc 1 179 13 is_stmt 0 view .LVU102
 258 0096 1844     		add	r0, r0, r3
 259              	.LVL30:
 181:../Common/IQMath/ti/_IQNsin_cos.c **** }
 260              		.loc 1 181 5 is_stmt 1 view .LVU103
 261              	.L6:
 181:../Common/IQMath/ti/_IQNsin_cos.c **** }
 262              		.loc 1 181 5 is_stmt 0 view .LVU104
 263              	.LBE74:
 264              	.LBE73:
 316:../Common/IQMath/ti/_IQNsin_cos.c ****     
 265              		.loc 1 316 5 is_stmt 1 view .LVU105
 316:../Common/IQMath/ti/_IQNsin_cos.c ****     
 266              		.loc 1 316 5 is_stmt 0 view .LVU106
 267              	.LBE93:
 268              	.LBE96:
  72:../Common/IQMath/ti/./support/RTS_support.h **** }
 269              		.loc 2 72 5 is_stmt 1 view .LVU107
 270              	.LBB97:
 271              	.LBB94:
 319:../Common/IQMath/ti/_IQNsin_cos.c ****     
 272              		.loc 1 319 5 view .LVU108
 319:../Common/IQMath/ti/_IQNsin_cos.c ****     
 273              		.loc 1 319 17 is_stmt 0 view .LVU109
 274 0098 8008     		lsrs	r0, r0, #2
 275              	.LVL31:
 322:../Common/IQMath/ti/_IQNsin_cos.c ****         uiq31Result = -uiq31Result;
 276              		.loc 1 322 5 is_stmt 1 view .LVU110
 322:../Common/IQMath/ti/_IQNsin_cos.c ****         uiq31Result = -uiq31Result;
 277              		.loc 1 322 8 is_stmt 0 view .LVU111
 278 009a 02B1     		cbz	r2, .L7
 323:../Common/IQMath/ti/_IQNsin_cos.c ****     }
 279              		.loc 1 323 9 is_stmt 1 view .LVU112
 323:../Common/IQMath/ti/_IQNsin_cos.c ****     }
 280              		.loc 1 323 21 is_stmt 0 view .LVU113
 281 009c 4042     		rsbs	r0, r0, #0
 282              	.LVL32:
 283              	.L7:
 326:../Common/IQMath/ti/_IQNsin_cos.c **** }
 284              		.loc 1 326 5 is_stmt 1 view .LVU114
 326:../Common/IQMath/ti/_IQNsin_cos.c **** }
 285              		.loc 1 326 5 is_stmt 0 view .LVU115
 286              	.LBE94:
 287              	.LBE97:
 404:../Common/IQMath/ti/_IQNsin_cos.c **** }
 288              		.loc 1 404 1 view .LVU116
 289 009e 30BD     		pop	{r4, r5, pc}
 290              	.LVL33:
 291              	.L10:
 292              	.LBB98:
 293              	.LBB95:
 213:../Common/IQMath/ti/_IQNsin_cos.c ****         
 294              		.loc 1 213 9 is_stmt 1 view .LVU117
 213:../Common/IQMath/ti/_IQNsin_cos.c ****         
 295              		.loc 1 213 18 is_stmt 0 view .LVU118
 296 00a0 4042     		rsbs	r0, r0, #0
 297              	.LVL34:
ARM GAS  C:\Users\57308\AppData\Local\Temp\ccvDm0cb.s 			page 19


 216:../Common/IQMath/ti/_IQNsin_cos.c ****             ui8Sign = 1;
 298              		.loc 1 216 9 is_stmt 1 view .LVU119
 217:../Common/IQMath/ti/_IQNsin_cos.c ****         }
 299              		.loc 1 217 13 view .LVU120
 217:../Common/IQMath/ti/_IQNsin_cos.c ****         }
 300              		.loc 1 217 21 is_stmt 0 view .LVU121
 301 00a2 0122     		movs	r2, #1
 302 00a4 B0E7     		b	.L2
 303              	.LVL35:
 304              	.L5:
 308:../Common/IQMath/ti/_IQNsin_cos.c ****         }
 305              		.loc 1 308 13 is_stmt 1 view .LVU122
 306              	.LBB83:
 307              	.LBI83:
  83:../Common/IQMath/ti/_IQNsin_cos.c **** {
 308              		.loc 1 83 30 view .LVU123
 309              	.LBB84:
  85:../Common/IQMath/ti/_IQNsin_cos.c ****     int_fast32_t iq31X;
 310              		.loc 1 85 2 view .LVU124
  86:../Common/IQMath/ti/_IQNsin_cos.c ****     int_fast32_t iq31Sin;
 311              		.loc 1 86 5 view .LVU125
  87:../Common/IQMath/ti/_IQNsin_cos.c ****     int_fast32_t iq31Cos;
 312              		.loc 1 87 5 view .LVU126
  88:../Common/IQMath/ti/_IQNsin_cos.c ****     int_fast32_t iq31Res;
 313              		.loc 1 88 5 view .LVU127
  89:../Common/IQMath/ti/_IQNsin_cos.c ****     
 314              		.loc 1 89 5 view .LVU128
  92:../Common/IQMath/ti/_IQNsin_cos.c ****     
 315              		.loc 1 92 5 view .LVU129
  92:../Common/IQMath/ti/_IQNsin_cos.c ****     
 316              		.loc 1 92 11 is_stmt 0 view .LVU130
 317 00a6 C1F34563 		ubfx	r3, r1, #25, #6
 318              	.LVL36:
  95:../Common/IQMath/ti/_IQNsin_cos.c ****     iq31Cos = _IQ31CosLookup[index];
 319              		.loc 1 95 5 is_stmt 1 view .LVU131
  95:../Common/IQMath/ti/_IQNsin_cos.c ****     iq31Cos = _IQ31CosLookup[index];
 320              		.loc 1 95 13 is_stmt 0 view .LVU132
 321 00aa 1C48     		ldr	r0, .L11+16
 322 00ac 50F82300 		ldr	r0, [r0, r3, lsl #2]
 323              	.LVL37:
  96:../Common/IQMath/ti/_IQNsin_cos.c ****     
 324              		.loc 1 96 5 is_stmt 1 view .LVU133
  96:../Common/IQMath/ti/_IQNsin_cos.c ****     
 325              		.loc 1 96 13 is_stmt 0 view .LVU134
 326 00b0 1B4C     		ldr	r4, .L11+20
 327 00b2 54F82330 		ldr	r3, [r4, r3, lsl #2]
 328              	.LVL38:
 103:../Common/IQMath/ti/_IQNsin_cos.c ****     
 329              		.loc 1 103 5 is_stmt 1 view .LVU135
 103:../Common/IQMath/ti/_IQNsin_cos.c ****     
 330              		.loc 1 103 11 is_stmt 0 view .LVU136
 331 00b6 21F07E41 		bic	r1, r1, #-33554432
 332              	.LVL39:
 106:../Common/IQMath/ti/_IQNsin_cos.c ****     iq31Res = __mpyf_l(iq31Cos, iq31Res);
 333              		.loc 1 106 5 is_stmt 1 view .LVU137
 334              	.LBB85:
 335              	.LBI85:
ARM GAS  C:\Users\57308\AppData\Local\Temp\ccvDm0cb.s 			page 20


 233:../Common/IQMath/ti/./support/RTS_support.h **** {
 336              		.loc 2 233 28 view .LVU138
 337              	.LBB86:
 338              		.loc 2 235 5 view .LVU139
 339              		.loc 2 235 47 is_stmt 0 view .LVU140
 340 00ba 1A4C     		ldr	r4, .L11+24
 341 00bc A1FB04E4 		umull	lr, r4, r1, r4
 342              		.loc 2 235 69 view .LVU141
 343 00c0 4FEADE7E 		lsr	lr, lr, #31
 344 00c4 4EEA440E 		orr	lr, lr, r4, lsl #1
 345              	.LVL40:
 346              		.loc 2 235 69 view .LVU142
 347              	.LBE86:
 348              	.LBE85:
 107:../Common/IQMath/ti/_IQNsin_cos.c ****     
 349              		.loc 1 107 5 is_stmt 1 view .LVU143
 350              	.LBB87:
 351              	.LBI87:
 233:../Common/IQMath/ti/./support/RTS_support.h **** {
 352              		.loc 2 233 28 view .LVU144
 353              	.LBB88:
 354              		.loc 2 235 5 view .LVU145
 355              		.loc 2 235 28 is_stmt 0 view .LVU146
 356 00c8 DD17     		asrs	r5, r3, #31
 357              		.loc 2 235 47 view .LVU147
 358 00ca A3FB0EC4 		umull	ip, r4, r3, lr
 359 00ce 0EFB054E 		mla	lr, lr, r5, r4
 360              	.LVL41:
 361              		.loc 2 235 69 view .LVU148
 362 00d2 4FEADC7C 		lsr	ip, ip, #31
 363 00d6 4CEA4E0C 		orr	ip, ip, lr, lsl #1
 364              	.LVL42:
 365              		.loc 2 235 69 view .LVU149
 366              	.LBE88:
 367              	.LBE87:
 110:../Common/IQMath/ti/_IQNsin_cos.c ****     
 368              		.loc 1 110 5 is_stmt 1 view .LVU150
 110:../Common/IQMath/ti/_IQNsin_cos.c ****     
 369              		.loc 1 110 25 is_stmt 0 view .LVU151
 370 00da 8444     		add	ip, ip, r0
 371              	.LVL43:
 110:../Common/IQMath/ti/_IQNsin_cos.c ****     
 372              		.loc 1 110 13 view .LVU152
 373 00dc CCF1000C 		rsb	ip, ip, #0
 374              	.LVL44:
 113:../Common/IQMath/ti/_IQNsin_cos.c ****     iq31Res = __mpyf_l(iq31X, iq31Res);
 375              		.loc 1 113 5 is_stmt 1 view .LVU153
 113:../Common/IQMath/ti/_IQNsin_cos.c ****     iq31Res = __mpyf_l(iq31X, iq31Res);
 376              		.loc 1 113 13 is_stmt 0 view .LVU154
 377 00e0 4FEA6C04 		asr	r4, ip, #1
 378              	.LVL45:
 114:../Common/IQMath/ti/_IQNsin_cos.c ****     
 379              		.loc 1 114 5 is_stmt 1 view .LVU155
 380              	.LBB89:
 381              	.LBI89:
 233:../Common/IQMath/ti/./support/RTS_support.h **** {
 382              		.loc 2 233 28 view .LVU156
ARM GAS  C:\Users\57308\AppData\Local\Temp\ccvDm0cb.s 			page 21


 383              	.LBB90:
 384              		.loc 2 235 5 view .LVU157
 385              		.loc 2 235 49 is_stmt 0 view .LVU158
 386 00e4 4FEAEC7C 		asr	ip, ip, #31
 387              		.loc 2 235 47 view .LVU159
 388 00e8 A1FB0445 		umull	r4, r5, r1, r4
 389              	.LVL46:
 390              		.loc 2 235 47 view .LVU160
 391 00ec 01FB0C5C 		mla	ip, r1, ip, r5
 392              		.loc 2 235 69 view .LVU161
 393 00f0 E40F     		lsrs	r4, r4, #31
 394 00f2 44EA4C04 		orr	r4, r4, ip, lsl #1
 395              	.LVL47:
 396              		.loc 2 235 69 view .LVU162
 397              	.LBE90:
 398              	.LBE89:
 117:../Common/IQMath/ti/_IQNsin_cos.c ****     
 399              		.loc 1 117 5 is_stmt 1 view .LVU163
 117:../Common/IQMath/ti/_IQNsin_cos.c ****     
 400              		.loc 1 117 13 is_stmt 0 view .LVU164
 401 00f6 2344     		add	r3, r3, r4
 402              	.LVL48:
 120:../Common/IQMath/ti/_IQNsin_cos.c ****     
 403              		.loc 1 120 5 is_stmt 1 view .LVU165
 404              	.LBB91:
 405              	.LBI91:
 233:../Common/IQMath/ti/./support/RTS_support.h **** {
 406              		.loc 2 233 28 view .LVU166
 407              	.LBB92:
 408              		.loc 2 235 5 view .LVU167
 409              		.loc 2 235 49 is_stmt 0 view .LVU168
 410 00f8 DD17     		asrs	r5, r3, #31
 411              		.loc 2 235 47 view .LVU169
 412 00fa A1FB0334 		umull	r3, r4, r1, r3
 413              	.LVL49:
 414              		.loc 2 235 47 view .LVU170
 415 00fe 01FB0541 		mla	r1, r1, r5, r4
 416              	.LVL50:
 417              		.loc 2 235 69 view .LVU171
 418 0102 DB0F     		lsrs	r3, r3, #31
 419 0104 43EA4103 		orr	r3, r3, r1, lsl #1
 420              	.LVL51:
 421              		.loc 2 235 69 view .LVU172
 422              	.LBE92:
 423              	.LBE91:
 123:../Common/IQMath/ti/_IQNsin_cos.c ****     
 424              		.loc 1 123 5 is_stmt 1 view .LVU173
 123:../Common/IQMath/ti/_IQNsin_cos.c ****     
 425              		.loc 1 123 13 is_stmt 0 view .LVU174
 426 0108 1844     		add	r0, r0, r3
 427              	.LVL52:
 125:../Common/IQMath/ti/_IQNsin_cos.c **** }
 428              		.loc 1 125 5 is_stmt 1 view .LVU175
 125:../Common/IQMath/ti/_IQNsin_cos.c **** }
 429              		.loc 1 125 5 is_stmt 0 view .LVU176
 430 010a C5E7     		b	.L6
 431              	.L12:
ARM GAS  C:\Users\57308\AppData\Local\Temp\ccvDm0cb.s 			page 22


 432              		.align	2
 433              	.L11:
 434 010c 50ED8764 		.word	1686629712
 435 0110 AF12789B 		.word	-1686629713
 436 0114 51ED8764 		.word	1686629713
 437 0118 A2DA0FC9 		.word	-921707870
 438 011c 00000000 		.word	_IQ31SinLookup
 439 0120 00000000 		.word	_IQ31CosLookup
 440 0124 ABAAAA2A 		.word	715827883
 441              	.LBE84:
 442              	.LBE83:
 443              	.LBE95:
 444              	.LBE98:
 445              		.cfi_endproc
 446              	.LFE264:
 448              		.section	.text._IQ28sin,"ax",%progbits
 449              		.align	1
 450              		.global	_IQ28sin
 451              		.syntax unified
 452              		.thumb
 453              		.thumb_func
 455              	_IQ28sin:
 456              	.LVL53:
 457              	.LFB265:
 405:../Common/IQMath/ti/_IQNsin_cos.c **** /**
 406:../Common/IQMath/ti/_IQNsin_cos.c ****  * @brief Computes the sine of an IQ28 input.
 407:../Common/IQMath/ti/_IQNsin_cos.c ****  *
 408:../Common/IQMath/ti/_IQNsin_cos.c ****  * @param a               IQ28 type input.
 409:../Common/IQMath/ti/_IQNsin_cos.c ****  *
 410:../Common/IQMath/ti/_IQNsin_cos.c ****  * @return                IQ28 type result of sine operation, in radians.
 411:../Common/IQMath/ti/_IQNsin_cos.c ****  */
 412:../Common/IQMath/ti/_IQNsin_cos.c **** int32_t _IQ28sin(int32_t a)
 413:../Common/IQMath/ti/_IQNsin_cos.c **** {
 458              		.loc 1 413 1 is_stmt 1 view -0
 459              		.cfi_startproc
 460              		@ args = 0, pretend = 0, frame = 0
 461              		@ frame_needed = 0, uses_anonymous_args = 0
 462              		.loc 1 413 1 is_stmt 0 view .LVU178
 463 0000 30B5     		push	{r4, r5, lr}
 464              	.LCFI1:
 465              		.cfi_def_cfa_offset 12
 466              		.cfi_offset 4, -12
 467              		.cfi_offset 5, -8
 468              		.cfi_offset 14, -4
 414:../Common/IQMath/ti/_IQNsin_cos.c ****     return __IQNsin_cos(a, 28, TYPE_SIN, TYPE_RAD);
 469              		.loc 1 414 5 is_stmt 1 view .LVU179
 470              	.LVL54:
 471              	.LBB144:
 472              	.LBI144:
 199:../Common/IQMath/ti/_IQNsin_cos.c ****                                    const int8_t type, const int8_t format)
 473              		.loc 1 199 30 view .LVU180
 474              	.LBB145:
 202:../Common/IQMath/ti/_IQNsin_cos.c ****     uint_fast16_t ui16IntState;
 475              		.loc 1 202 5 view .LVU181
 203:../Common/IQMath/ti/_IQNsin_cos.c ****     uint_fast16_t ui16MPYState;
 476              		.loc 1 203 5 view .LVU182
 204:../Common/IQMath/ti/_IQNsin_cos.c ****     uint_fast32_t uiq29Input;
ARM GAS  C:\Users\57308\AppData\Local\Temp\ccvDm0cb.s 			page 23


 477              		.loc 1 204 5 view .LVU183
 205:../Common/IQMath/ti/_IQNsin_cos.c ****     uint_fast32_t uiq30Input;
 478              		.loc 1 205 5 view .LVU184
 206:../Common/IQMath/ti/_IQNsin_cos.c ****     uint_fast32_t uiq31Input;
 479              		.loc 1 206 5 view .LVU185
 207:../Common/IQMath/ti/_IQNsin_cos.c ****     uint_fast32_t uiq32Input;
 480              		.loc 1 207 5 view .LVU186
 208:../Common/IQMath/ti/_IQNsin_cos.c ****     uint_fast32_t uiq31Result;
 481              		.loc 1 208 5 view .LVU187
 209:../Common/IQMath/ti/_IQNsin_cos.c ****     
 482              		.loc 1 209 5 view .LVU188
 212:../Common/IQMath/ti/_IQNsin_cos.c ****         iqNInput = -iqNInput;
 483              		.loc 1 212 5 view .LVU189
 212:../Common/IQMath/ti/_IQNsin_cos.c ****         iqNInput = -iqNInput;
 484              		.loc 1 212 8 is_stmt 0 view .LVU190
 485 0002 0028     		cmp	r0, #0
 212:../Common/IQMath/ti/_IQNsin_cos.c ****         iqNInput = -iqNInput;
 486              		.loc 1 212 8 view .LVU191
 487 0004 02DB     		blt	.L25
 202:../Common/IQMath/ti/_IQNsin_cos.c ****     uint_fast16_t ui16IntState;
 488              		.loc 1 202 13 view .LVU192
 489 0006 0021     		movs	r1, #0
 490              	.LVL55:
 491              	.L14:
 227:../Common/IQMath/ti/_IQNsin_cos.c ****     
 492              		.loc 1 227 5 is_stmt 1 view .LVU193
 227:../Common/IQMath/ti/_IQNsin_cos.c ****     
 493              		.loc 1 227 5 is_stmt 0 view .LVU194
 494              	.LBE145:
 495              	.LBE144:
  28:../Common/IQMath/ti/./support/RTS_support.h **** }
 496              		.loc 2 28 5 is_stmt 1 view .LVU195
 497              	.LBB171:
 498              	.LBB168:
 230:../Common/IQMath/ti/_IQNsin_cos.c ****         /* 
 499              		.loc 1 230 5 view .LVU196
 500              	.LBB146:
 253:../Common/IQMath/ti/_IQNsin_cos.c ****         
 501              		.loc 1 253 9 view .LVU197
 256:../Common/IQMath/ti/_IQNsin_cos.c ****         
 502              		.loc 1 256 9 view .LVU198
 259:../Common/IQMath/ti/_IQNsin_cos.c ****             if (uiq29Input >= iq29_pi) {
 503              		.loc 1 259 9 view .LVU199
 253:../Common/IQMath/ti/_IQNsin_cos.c ****         
 504              		.loc 1 253 22 is_stmt 0 view .LVU200
 505 0008 0123     		movs	r3, #1
 259:../Common/IQMath/ti/_IQNsin_cos.c ****             if (uiq29Input >= iq29_pi) {
 506              		.loc 1 259 15 view .LVU201
 507 000a 04E0     		b	.L15
 508              	.LVL56:
 509              	.L25:
 259:../Common/IQMath/ti/_IQNsin_cos.c ****             if (uiq29Input >= iq29_pi) {
 510              		.loc 1 259 15 view .LVU202
 511              	.LBE146:
 213:../Common/IQMath/ti/_IQNsin_cos.c ****         
 512              		.loc 1 213 9 is_stmt 1 view .LVU203
 213:../Common/IQMath/ti/_IQNsin_cos.c ****         
ARM GAS  C:\Users\57308\AppData\Local\Temp\ccvDm0cb.s 			page 24


 513              		.loc 1 213 18 is_stmt 0 view .LVU204
 514 000c 4042     		rsbs	r0, r0, #0
 515              	.LVL57:
 216:../Common/IQMath/ti/_IQNsin_cos.c ****             ui8Sign = 1;
 516              		.loc 1 216 9 is_stmt 1 view .LVU205
 217:../Common/IQMath/ti/_IQNsin_cos.c ****         }
 517              		.loc 1 217 13 view .LVU206
 217:../Common/IQMath/ti/_IQNsin_cos.c ****         }
 518              		.loc 1 217 21 is_stmt 0 view .LVU207
 519 000e 0121     		movs	r1, #1
 520 0010 FAE7     		b	.L14
 521              	.LVL58:
 522              	.L16:
 523              	.LBB147:
 263:../Common/IQMath/ti/_IQNsin_cos.c ****             exp--;
 524              		.loc 1 263 13 is_stmt 1 view .LVU208
 263:../Common/IQMath/ti/_IQNsin_cos.c ****             exp--;
 525              		.loc 1 263 24 is_stmt 0 view .LVU209
 526 0012 4000     		lsls	r0, r0, #1
 527              	.LVL59:
 264:../Common/IQMath/ti/_IQNsin_cos.c ****         }
 528              		.loc 1 264 13 is_stmt 1 view .LVU210
 264:../Common/IQMath/ti/_IQNsin_cos.c ****         }
 529              		.loc 1 264 16 is_stmt 0 view .LVU211
 530 0014 013B     		subs	r3, r3, #1
 531              	.LVL60:
 532              	.L15:
 259:../Common/IQMath/ti/_IQNsin_cos.c ****             if (uiq29Input >= iq29_pi) {
 533              		.loc 1 259 15 is_stmt 1 view .LVU212
 534 0016 4BB1     		cbz	r3, .L26
 260:../Common/IQMath/ti/_IQNsin_cos.c ****                 uiq29Input -= iq29_pi;
 535              		.loc 1 260 13 view .LVU213
 260:../Common/IQMath/ti/_IQNsin_cos.c ****                 uiq29Input -= iq29_pi;
 536              		.loc 1 260 16 is_stmt 0 view .LVU214
 537 0018 454A     		ldr	r2, .L27
 538 001a 9042     		cmp	r0, r2
 539 001c F9D9     		bls	.L16
 261:../Common/IQMath/ti/_IQNsin_cos.c ****             }
 540              		.loc 1 261 17 is_stmt 1 view .LVU215
 261:../Common/IQMath/ti/_IQNsin_cos.c ****             }
 541              		.loc 1 261 28 is_stmt 0 view .LVU216
 542 001e A0F1C940 		sub	r0, r0, #1686110208
 543              	.LVL61:
 261:../Common/IQMath/ti/_IQNsin_cos.c ****             }
 544              		.loc 1 261 28 view .LVU217
 545 0022 A0F5FD20 		sub	r0, r0, #518144
 546              	.LVL62:
 261:../Common/IQMath/ti/_IQNsin_cos.c ****             }
 547              		.loc 1 261 28 view .LVU218
 548 0026 A0F25150 		subw	r0, r0, #1361
 549              	.LVL63:
 261:../Common/IQMath/ti/_IQNsin_cos.c ****             }
 550              		.loc 1 261 28 view .LVU219
 551 002a F2E7     		b	.L16
 552              	.L26:
 268:../Common/IQMath/ti/_IQNsin_cos.c ****             uiq29Input -= iq29_pi;
 553              		.loc 1 268 9 is_stmt 1 view .LVU220
ARM GAS  C:\Users\57308\AppData\Local\Temp\ccvDm0cb.s 			page 25


 268:../Common/IQMath/ti/_IQNsin_cos.c ****             uiq29Input -= iq29_pi;
 554              		.loc 1 268 12 is_stmt 0 view .LVU221
 555 002c 404B     		ldr	r3, .L27
 556              	.LVL64:
 268:../Common/IQMath/ti/_IQNsin_cos.c ****             uiq29Input -= iq29_pi;
 557              		.loc 1 268 12 view .LVU222
 558 002e 9842     		cmp	r0, r3
 559 0030 07D9     		bls	.L18
 269:../Common/IQMath/ti/_IQNsin_cos.c ****             ui8Sign ^= 1;
 560              		.loc 1 269 13 is_stmt 1 view .LVU223
 269:../Common/IQMath/ti/_IQNsin_cos.c ****             ui8Sign ^= 1;
 561              		.loc 1 269 24 is_stmt 0 view .LVU224
 562 0032 A0F1C940 		sub	r0, r0, #1686110208
 563              	.LVL65:
 269:../Common/IQMath/ti/_IQNsin_cos.c ****             ui8Sign ^= 1;
 564              		.loc 1 269 24 view .LVU225
 565 0036 A0F5FD20 		sub	r0, r0, #518144
 566              	.LVL66:
 269:../Common/IQMath/ti/_IQNsin_cos.c ****             ui8Sign ^= 1;
 567              		.loc 1 269 24 view .LVU226
 568 003a A0F25150 		subw	r0, r0, #1361
 569              	.LVL67:
 270:../Common/IQMath/ti/_IQNsin_cos.c ****         }
 570              		.loc 1 270 13 is_stmt 1 view .LVU227
 270:../Common/IQMath/ti/_IQNsin_cos.c ****         }
 571              		.loc 1 270 21 is_stmt 0 view .LVU228
 572 003e 81F00101 		eor	r1, r1, #1
 573              	.LVL68:
 574              	.L18:
 274:../Common/IQMath/ti/_IQNsin_cos.c ****     }
 575              		.loc 1 274 9 is_stmt 1 view .LVU229
 274:../Common/IQMath/ti/_IQNsin_cos.c ****     }
 576              		.loc 1 274 20 is_stmt 0 view .LVU230
 577 0042 4300     		lsls	r3, r0, #1
 578              	.LVL69:
 274:../Common/IQMath/ti/_IQNsin_cos.c ****     }
 579              		.loc 1 274 20 view .LVU231
 580              	.LBE147:
 278:../Common/IQMath/ti/_IQNsin_cos.c ****         uiq30Input = iq30_pi - uiq30Input;
 581              		.loc 1 278 5 is_stmt 1 view .LVU232
 278:../Common/IQMath/ti/_IQNsin_cos.c ****         uiq30Input = iq30_pi - uiq30Input;
 582              		.loc 1 278 8 is_stmt 0 view .LVU233
 583 0044 3A4A     		ldr	r2, .L27
 584 0046 B2EB400F 		cmp	r2, r0, lsl #1
 585 004a 05D2     		bcs	.L19
 279:../Common/IQMath/ti/_IQNsin_cos.c ****         
 586              		.loc 1 279 9 is_stmt 1 view .LVU234
 279:../Common/IQMath/ti/_IQNsin_cos.c ****         
 587              		.loc 1 279 20 is_stmt 0 view .LVU235
 588 004c C3F14943 		rsb	r3, r3, #-922746880
 589              	.LVL70:
 279:../Common/IQMath/ti/_IQNsin_cos.c ****         
 590              		.loc 1 279 20 view .LVU236
 591 0050 03F57D23 		add	r3, r3, #1036288
 592 0054 03F6A223 		addw	r3, r3, #2722
 593              	.LVL71:
 282:../Common/IQMath/ti/_IQNsin_cos.c ****             ui8Sign ^= 1;
ARM GAS  C:\Users\57308\AppData\Local\Temp\ccvDm0cb.s 			page 26


 594              		.loc 1 282 9 is_stmt 1 view .LVU237
 595              	.L19:
 288:../Common/IQMath/ti/_IQNsin_cos.c ****     
 596              		.loc 1 288 5 view .LVU238
 288:../Common/IQMath/ti/_IQNsin_cos.c ****     
 597              		.loc 1 288 16 is_stmt 0 view .LVU239
 598 0058 5A00     		lsls	r2, r3, #1
 599              	.LVL72:
 291:../Common/IQMath/ti/_IQNsin_cos.c ****         /* If input is greater than pi/4 use sin for calculations */
 600              		.loc 1 291 5 is_stmt 1 view .LVU240
 301:../Common/IQMath/ti/_IQNsin_cos.c ****         /* If input is greater than pi/4 use cos for calculations */
 601              		.loc 1 301 10 view .LVU241
 303:../Common/IQMath/ti/_IQNsin_cos.c ****             uiq31Input = iq31_halfPi - uiq31Input;
 602              		.loc 1 303 9 view .LVU242
 303:../Common/IQMath/ti/_IQNsin_cos.c ****             uiq31Input = iq31_halfPi - uiq31Input;
 603              		.loc 1 303 12 is_stmt 0 view .LVU243
 604 005a 3648     		ldr	r0, .L27+4
 605              	.LVL73:
 303:../Common/IQMath/ti/_IQNsin_cos.c ****             uiq31Input = iq31_halfPi - uiq31Input;
 606              		.loc 1 303 12 view .LVU244
 607 005c B0EB430F 		cmp	r0, r3, lsl #1
 608 0060 33D2     		bcs	.L20
 304:../Common/IQMath/ti/_IQNsin_cos.c ****             uiq31Result = __IQNcalcCos(uiq31Input);
 609              		.loc 1 304 13 is_stmt 1 view .LVU245
 304:../Common/IQMath/ti/_IQNsin_cos.c ****             uiq31Result = __IQNcalcCos(uiq31Input);
 610              		.loc 1 304 24 is_stmt 0 view .LVU246
 611 0062 354B     		ldr	r3, .L27+8
 612              	.LVL74:
 304:../Common/IQMath/ti/_IQNsin_cos.c ****             uiq31Result = __IQNcalcCos(uiq31Input);
 613              		.loc 1 304 24 view .LVU247
 614 0064 9B1A     		subs	r3, r3, r2
 615              	.LVL75:
 305:../Common/IQMath/ti/_IQNsin_cos.c ****         }
 616              		.loc 1 305 13 is_stmt 1 view .LVU248
 617              	.LBB148:
 618              	.LBI148:
 139:../Common/IQMath/ti/_IQNsin_cos.c **** {
 619              		.loc 1 139 30 view .LVU249
 620              	.LBB149:
 141:../Common/IQMath/ti/_IQNsin_cos.c ****     int_fast32_t iq31X;
 621              		.loc 1 141 2 view .LVU250
 142:../Common/IQMath/ti/_IQNsin_cos.c ****     int_fast32_t iq31Sin;
 622              		.loc 1 142 5 view .LVU251
 143:../Common/IQMath/ti/_IQNsin_cos.c ****     int_fast32_t iq31Cos;
 623              		.loc 1 143 5 view .LVU252
 144:../Common/IQMath/ti/_IQNsin_cos.c ****     int_fast32_t iq31Res;
 624              		.loc 1 144 5 view .LVU253
 145:../Common/IQMath/ti/_IQNsin_cos.c ****     
 625              		.loc 1 145 5 view .LVU254
 148:../Common/IQMath/ti/_IQNsin_cos.c ****     
 626              		.loc 1 148 5 view .LVU255
 148:../Common/IQMath/ti/_IQNsin_cos.c ****     
 627              		.loc 1 148 11 is_stmt 0 view .LVU256
 628 0066 C3F34562 		ubfx	r2, r3, #25, #6
 629              	.LVL76:
 151:../Common/IQMath/ti/_IQNsin_cos.c ****     iq31Cos = _IQ31CosLookup[index];
 630              		.loc 1 151 5 is_stmt 1 view .LVU257
ARM GAS  C:\Users\57308\AppData\Local\Temp\ccvDm0cb.s 			page 27


 151:../Common/IQMath/ti/_IQNsin_cos.c ****     iq31Cos = _IQ31CosLookup[index];
 631              		.loc 1 151 13 is_stmt 0 view .LVU258
 632 006a 3448     		ldr	r0, .L27+12
 633 006c 50F82250 		ldr	r5, [r0, r2, lsl #2]
 634              	.LVL77:
 152:../Common/IQMath/ti/_IQNsin_cos.c ****     
 635              		.loc 1 152 5 is_stmt 1 view .LVU259
 152:../Common/IQMath/ti/_IQNsin_cos.c ****     
 636              		.loc 1 152 13 is_stmt 0 view .LVU260
 637 0070 3348     		ldr	r0, .L27+16
 638 0072 50F82200 		ldr	r0, [r0, r2, lsl #2]
 639              	.LVL78:
 159:../Common/IQMath/ti/_IQNsin_cos.c ****     
 640              		.loc 1 159 5 is_stmt 1 view .LVU261
 159:../Common/IQMath/ti/_IQNsin_cos.c ****     
 641              		.loc 1 159 11 is_stmt 0 view .LVU262
 642 0076 23F07E42 		bic	r2, r3, #-33554432
 643              	.LVL79:
 162:../Common/IQMath/ti/_IQNsin_cos.c ****     iq31Res = __mpyf_l(iq31Sin, iq31Res);
 644              		.loc 1 162 5 is_stmt 1 view .LVU263
 645              	.LBB150:
 646              	.LBI150:
 233:../Common/IQMath/ti/./support/RTS_support.h **** {
 647              		.loc 2 233 28 view .LVU264
 648              	.LBB151:
 649              		.loc 2 235 5 view .LVU265
 650              		.loc 2 235 47 is_stmt 0 view .LVU266
 651 007a 324C     		ldr	r4, .L27+20
 652 007c A2FB04C4 		umull	ip, r4, r2, r4
 653              		.loc 2 235 69 view .LVU267
 654 0080 4FEADC7C 		lsr	ip, ip, #31
 655 0084 4CEA440C 		orr	ip, ip, r4, lsl #1
 656              	.LVL80:
 657              		.loc 2 235 69 view .LVU268
 658              	.LBE151:
 659              	.LBE150:
 163:../Common/IQMath/ti/_IQNsin_cos.c ****     
 660              		.loc 1 163 5 is_stmt 1 view .LVU269
 661              	.LBB152:
 662              	.LBI152:
 233:../Common/IQMath/ti/./support/RTS_support.h **** {
 663              		.loc 2 233 28 view .LVU270
 664              	.LBB153:
 665              		.loc 2 235 5 view .LVU271
 666              		.loc 2 235 28 is_stmt 0 view .LVU272
 667 0088 4FEAE57E 		asr	lr, r5, #31
 668              		.loc 2 235 47 view .LVU273
 669 008c A5FB0C43 		umull	r4, r3, r5, ip
 670              	.LVL81:
 671              		.loc 2 235 47 view .LVU274
 672 0090 0CFB0E3C 		mla	ip, ip, lr, r3
 673              	.LVL82:
 674              		.loc 2 235 69 view .LVU275
 675 0094 E40F     		lsrs	r4, r4, #31
 676 0096 44EA4C04 		orr	r4, r4, ip, lsl #1
 677              	.LVL83:
 678              		.loc 2 235 69 view .LVU276
ARM GAS  C:\Users\57308\AppData\Local\Temp\ccvDm0cb.s 			page 28


 679              	.LBE153:
 680              	.LBE152:
 166:../Common/IQMath/ti/_IQNsin_cos.c ****     
 681              		.loc 1 166 5 is_stmt 1 view .LVU277
 166:../Common/IQMath/ti/_IQNsin_cos.c ****     
 682              		.loc 1 166 13 is_stmt 0 view .LVU278
 683 009a 241A     		subs	r4, r4, r0
 684              	.LVL84:
 169:../Common/IQMath/ti/_IQNsin_cos.c ****     iq31Res = __mpyf_l(iq31X, iq31Res);
 685              		.loc 1 169 5 is_stmt 1 view .LVU279
 169:../Common/IQMath/ti/_IQNsin_cos.c ****     iq31Res = __mpyf_l(iq31X, iq31Res);
 686              		.loc 1 169 13 is_stmt 0 view .LVU280
 687 009c 6310     		asrs	r3, r4, #1
 688              	.LVL85:
 170:../Common/IQMath/ti/_IQNsin_cos.c ****     
 689              		.loc 1 170 5 is_stmt 1 view .LVU281
 690              	.LBB154:
 691              	.LBI154:
 233:../Common/IQMath/ti/./support/RTS_support.h **** {
 692              		.loc 2 233 28 view .LVU282
 693              	.LBB155:
 694              		.loc 2 235 5 view .LVU283
 695              		.loc 2 235 49 is_stmt 0 view .LVU284
 696 009e E417     		asrs	r4, r4, #31
 697              		.loc 2 235 47 view .LVU285
 698 00a0 A2FB033C 		umull	r3, ip, r2, r3
 699              	.LVL86:
 700              		.loc 2 235 47 view .LVU286
 701 00a4 02FB04C4 		mla	r4, r2, r4, ip
 702              		.loc 2 235 69 view .LVU287
 703 00a8 DB0F     		lsrs	r3, r3, #31
 704 00aa 43EA4403 		orr	r3, r3, r4, lsl #1
 705              	.LVL87:
 706              		.loc 2 235 69 view .LVU288
 707              	.LBE155:
 708              	.LBE154:
 173:../Common/IQMath/ti/_IQNsin_cos.c ****     
 709              		.loc 1 173 5 is_stmt 1 view .LVU289
 173:../Common/IQMath/ti/_IQNsin_cos.c ****     
 710              		.loc 1 173 13 is_stmt 0 view .LVU290
 711 00ae 5B1B     		subs	r3, r3, r5
 712              	.LVL88:
 176:../Common/IQMath/ti/_IQNsin_cos.c ****     
 713              		.loc 1 176 5 is_stmt 1 view .LVU291
 714              	.LBB156:
 715              	.LBI156:
 233:../Common/IQMath/ti/./support/RTS_support.h **** {
 716              		.loc 2 233 28 view .LVU292
 717              	.LBB157:
 718              		.loc 2 235 5 view .LVU293
 719              		.loc 2 235 49 is_stmt 0 view .LVU294
 720 00b0 DD17     		asrs	r5, r3, #31
 721              	.LVL89:
 722              		.loc 2 235 47 view .LVU295
 723 00b2 A2FB0334 		umull	r3, r4, r2, r3
 724              	.LVL90:
 725              		.loc 2 235 47 view .LVU296
ARM GAS  C:\Users\57308\AppData\Local\Temp\ccvDm0cb.s 			page 29


 726 00b6 02FB0542 		mla	r2, r2, r5, r4
 727              	.LVL91:
 728              		.loc 2 235 69 view .LVU297
 729 00ba DB0F     		lsrs	r3, r3, #31
 730 00bc 43EA4203 		orr	r3, r3, r2, lsl #1
 731              	.LVL92:
 732              		.loc 2 235 69 view .LVU298
 733              	.LBE157:
 734              	.LBE156:
 179:../Common/IQMath/ti/_IQNsin_cos.c ****     
 735              		.loc 1 179 5 is_stmt 1 view .LVU299
 179:../Common/IQMath/ti/_IQNsin_cos.c ****     
 736              		.loc 1 179 13 is_stmt 0 view .LVU300
 737 00c0 1844     		add	r0, r0, r3
 738              	.LVL93:
 181:../Common/IQMath/ti/_IQNsin_cos.c **** }
 739              		.loc 1 181 5 is_stmt 1 view .LVU301
 740              	.L21:
 181:../Common/IQMath/ti/_IQNsin_cos.c **** }
 741              		.loc 1 181 5 is_stmt 0 view .LVU302
 742              	.LBE149:
 743              	.LBE148:
 316:../Common/IQMath/ti/_IQNsin_cos.c ****     
 744              		.loc 1 316 5 is_stmt 1 view .LVU303
 316:../Common/IQMath/ti/_IQNsin_cos.c ****     
 745              		.loc 1 316 5 is_stmt 0 view .LVU304
 746              	.LBE168:
 747              	.LBE171:
  72:../Common/IQMath/ti/./support/RTS_support.h **** }
 748              		.loc 2 72 5 is_stmt 1 view .LVU305
 749              	.LBB172:
 750              	.LBB169:
 319:../Common/IQMath/ti/_IQNsin_cos.c ****     
 751              		.loc 1 319 5 view .LVU306
 319:../Common/IQMath/ti/_IQNsin_cos.c ****     
 752              		.loc 1 319 17 is_stmt 0 view .LVU307
 753 00c2 C008     		lsrs	r0, r0, #3
 754              	.LVL94:
 322:../Common/IQMath/ti/_IQNsin_cos.c ****         uiq31Result = -uiq31Result;
 755              		.loc 1 322 5 is_stmt 1 view .LVU308
 322:../Common/IQMath/ti/_IQNsin_cos.c ****         uiq31Result = -uiq31Result;
 756              		.loc 1 322 8 is_stmt 0 view .LVU309
 757 00c4 01B1     		cbz	r1, .L22
 323:../Common/IQMath/ti/_IQNsin_cos.c ****     }
 758              		.loc 1 323 9 is_stmt 1 view .LVU310
 323:../Common/IQMath/ti/_IQNsin_cos.c ****     }
 759              		.loc 1 323 21 is_stmt 0 view .LVU311
 760 00c6 4042     		rsbs	r0, r0, #0
 761              	.LVL95:
 762              	.L22:
 326:../Common/IQMath/ti/_IQNsin_cos.c **** }
 763              		.loc 1 326 5 is_stmt 1 view .LVU312
 326:../Common/IQMath/ti/_IQNsin_cos.c **** }
 764              		.loc 1 326 5 is_stmt 0 view .LVU313
 765              	.LBE169:
 766              	.LBE172:
 415:../Common/IQMath/ti/_IQNsin_cos.c **** }
ARM GAS  C:\Users\57308\AppData\Local\Temp\ccvDm0cb.s 			page 30


 767              		.loc 1 415 1 view .LVU314
 768 00c8 30BD     		pop	{r4, r5, pc}
 769              	.LVL96:
 770              	.L20:
 771              	.LBB173:
 772              	.LBB170:
 308:../Common/IQMath/ti/_IQNsin_cos.c ****         }
 773              		.loc 1 308 13 is_stmt 1 view .LVU315
 774              	.LBB158:
 775              	.LBI158:
  83:../Common/IQMath/ti/_IQNsin_cos.c **** {
 776              		.loc 1 83 30 view .LVU316
 777              	.LBB159:
  85:../Common/IQMath/ti/_IQNsin_cos.c ****     int_fast32_t iq31X;
 778              		.loc 1 85 2 view .LVU317
  86:../Common/IQMath/ti/_IQNsin_cos.c ****     int_fast32_t iq31Sin;
 779              		.loc 1 86 5 view .LVU318
  87:../Common/IQMath/ti/_IQNsin_cos.c ****     int_fast32_t iq31Cos;
 780              		.loc 1 87 5 view .LVU319
  88:../Common/IQMath/ti/_IQNsin_cos.c ****     int_fast32_t iq31Res;
 781              		.loc 1 88 5 view .LVU320
  89:../Common/IQMath/ti/_IQNsin_cos.c ****     
 782              		.loc 1 89 5 view .LVU321
  92:../Common/IQMath/ti/_IQNsin_cos.c ****     
 783              		.loc 1 92 5 view .LVU322
  92:../Common/IQMath/ti/_IQNsin_cos.c ****     
 784              		.loc 1 92 11 is_stmt 0 view .LVU323
 785 00ca C2F34563 		ubfx	r3, r2, #25, #6
 786              	.LVL97:
  95:../Common/IQMath/ti/_IQNsin_cos.c ****     iq31Cos = _IQ31CosLookup[index];
 787              		.loc 1 95 5 is_stmt 1 view .LVU324
  95:../Common/IQMath/ti/_IQNsin_cos.c ****     iq31Cos = _IQ31CosLookup[index];
 788              		.loc 1 95 13 is_stmt 0 view .LVU325
 789 00ce 1B48     		ldr	r0, .L27+12
 790 00d0 50F82300 		ldr	r0, [r0, r3, lsl #2]
 791              	.LVL98:
  96:../Common/IQMath/ti/_IQNsin_cos.c ****     
 792              		.loc 1 96 5 is_stmt 1 view .LVU326
  96:../Common/IQMath/ti/_IQNsin_cos.c ****     
 793              		.loc 1 96 13 is_stmt 0 view .LVU327
 794 00d4 1A4C     		ldr	r4, .L27+16
 795 00d6 54F82330 		ldr	r3, [r4, r3, lsl #2]
 796              	.LVL99:
 103:../Common/IQMath/ti/_IQNsin_cos.c ****     
 797              		.loc 1 103 5 is_stmt 1 view .LVU328
 103:../Common/IQMath/ti/_IQNsin_cos.c ****     
 798              		.loc 1 103 11 is_stmt 0 view .LVU329
 799 00da 22F07E42 		bic	r2, r2, #-33554432
 800              	.LVL100:
 106:../Common/IQMath/ti/_IQNsin_cos.c ****     iq31Res = __mpyf_l(iq31Cos, iq31Res);
 801              		.loc 1 106 5 is_stmt 1 view .LVU330
 802              	.LBB160:
 803              	.LBI160:
 233:../Common/IQMath/ti/./support/RTS_support.h **** {
 804              		.loc 2 233 28 view .LVU331
 805              	.LBB161:
 806              		.loc 2 235 5 view .LVU332
ARM GAS  C:\Users\57308\AppData\Local\Temp\ccvDm0cb.s 			page 31


 807              		.loc 2 235 47 is_stmt 0 view .LVU333
 808 00de 194C     		ldr	r4, .L27+20
 809 00e0 A2FB04E4 		umull	lr, r4, r2, r4
 810              		.loc 2 235 69 view .LVU334
 811 00e4 4FEADE7E 		lsr	lr, lr, #31
 812 00e8 4EEA440E 		orr	lr, lr, r4, lsl #1
 813              	.LVL101:
 814              		.loc 2 235 69 view .LVU335
 815              	.LBE161:
 816              	.LBE160:
 107:../Common/IQMath/ti/_IQNsin_cos.c ****     
 817              		.loc 1 107 5 is_stmt 1 view .LVU336
 818              	.LBB162:
 819              	.LBI162:
 233:../Common/IQMath/ti/./support/RTS_support.h **** {
 820              		.loc 2 233 28 view .LVU337
 821              	.LBB163:
 822              		.loc 2 235 5 view .LVU338
 823              		.loc 2 235 28 is_stmt 0 view .LVU339
 824 00ec DD17     		asrs	r5, r3, #31
 825              		.loc 2 235 47 view .LVU340
 826 00ee A3FB0EC4 		umull	ip, r4, r3, lr
 827 00f2 0EFB054E 		mla	lr, lr, r5, r4
 828              	.LVL102:
 829              		.loc 2 235 69 view .LVU341
 830 00f6 4FEADC7C 		lsr	ip, ip, #31
 831 00fa 4CEA4E0C 		orr	ip, ip, lr, lsl #1
 832              	.LVL103:
 833              		.loc 2 235 69 view .LVU342
 834              	.LBE163:
 835              	.LBE162:
 110:../Common/IQMath/ti/_IQNsin_cos.c ****     
 836              		.loc 1 110 5 is_stmt 1 view .LVU343
 110:../Common/IQMath/ti/_IQNsin_cos.c ****     
 837              		.loc 1 110 25 is_stmt 0 view .LVU344
 838 00fe 8444     		add	ip, ip, r0
 839              	.LVL104:
 110:../Common/IQMath/ti/_IQNsin_cos.c ****     
 840              		.loc 1 110 13 view .LVU345
 841 0100 CCF1000C 		rsb	ip, ip, #0
 842              	.LVL105:
 113:../Common/IQMath/ti/_IQNsin_cos.c ****     iq31Res = __mpyf_l(iq31X, iq31Res);
 843              		.loc 1 113 5 is_stmt 1 view .LVU346
 113:../Common/IQMath/ti/_IQNsin_cos.c ****     iq31Res = __mpyf_l(iq31X, iq31Res);
 844              		.loc 1 113 13 is_stmt 0 view .LVU347
 845 0104 4FEA6C04 		asr	r4, ip, #1
 846              	.LVL106:
 114:../Common/IQMath/ti/_IQNsin_cos.c ****     
 847              		.loc 1 114 5 is_stmt 1 view .LVU348
 848              	.LBB164:
 849              	.LBI164:
 233:../Common/IQMath/ti/./support/RTS_support.h **** {
 850              		.loc 2 233 28 view .LVU349
 851              	.LBB165:
 852              		.loc 2 235 5 view .LVU350
 853              		.loc 2 235 49 is_stmt 0 view .LVU351
 854 0108 4FEAEC7C 		asr	ip, ip, #31
ARM GAS  C:\Users\57308\AppData\Local\Temp\ccvDm0cb.s 			page 32


 855              		.loc 2 235 47 view .LVU352
 856 010c A2FB0445 		umull	r4, r5, r2, r4
 857              	.LVL107:
 858              		.loc 2 235 47 view .LVU353
 859 0110 02FB0C5C 		mla	ip, r2, ip, r5
 860              		.loc 2 235 69 view .LVU354
 861 0114 E40F     		lsrs	r4, r4, #31
 862 0116 44EA4C04 		orr	r4, r4, ip, lsl #1
 863              	.LVL108:
 864              		.loc 2 235 69 view .LVU355
 865              	.LBE165:
 866              	.LBE164:
 117:../Common/IQMath/ti/_IQNsin_cos.c ****     
 867              		.loc 1 117 5 is_stmt 1 view .LVU356
 117:../Common/IQMath/ti/_IQNsin_cos.c ****     
 868              		.loc 1 117 13 is_stmt 0 view .LVU357
 869 011a 2344     		add	r3, r3, r4
 870              	.LVL109:
 120:../Common/IQMath/ti/_IQNsin_cos.c ****     
 871              		.loc 1 120 5 is_stmt 1 view .LVU358
 872              	.LBB166:
 873              	.LBI166:
 233:../Common/IQMath/ti/./support/RTS_support.h **** {
 874              		.loc 2 233 28 view .LVU359
 875              	.LBB167:
 876              		.loc 2 235 5 view .LVU360
 877              		.loc 2 235 49 is_stmt 0 view .LVU361
 878 011c DD17     		asrs	r5, r3, #31
 879              		.loc 2 235 47 view .LVU362
 880 011e A2FB0334 		umull	r3, r4, r2, r3
 881              	.LVL110:
 882              		.loc 2 235 47 view .LVU363
 883 0122 02FB0542 		mla	r2, r2, r5, r4
 884              	.LVL111:
 885              		.loc 2 235 69 view .LVU364
 886 0126 DB0F     		lsrs	r3, r3, #31
 887 0128 43EA4203 		orr	r3, r3, r2, lsl #1
 888              	.LVL112:
 889              		.loc 2 235 69 view .LVU365
 890              	.LBE167:
 891              	.LBE166:
 123:../Common/IQMath/ti/_IQNsin_cos.c ****     
 892              		.loc 1 123 5 is_stmt 1 view .LVU366
 123:../Common/IQMath/ti/_IQNsin_cos.c ****     
 893              		.loc 1 123 13 is_stmt 0 view .LVU367
 894 012c 1844     		add	r0, r0, r3
 895              	.LVL113:
 125:../Common/IQMath/ti/_IQNsin_cos.c **** }
 896              		.loc 1 125 5 is_stmt 1 view .LVU368
 125:../Common/IQMath/ti/_IQNsin_cos.c **** }
 897              		.loc 1 125 5 is_stmt 0 view .LVU369
 898 012e C8E7     		b	.L21
 899              	.L28:
 900              		.align	2
 901              	.L27:
 902 0130 50ED8764 		.word	1686629712
 903 0134 51ED8764 		.word	1686629713
ARM GAS  C:\Users\57308\AppData\Local\Temp\ccvDm0cb.s 			page 33


 904 0138 A2DA0FC9 		.word	-921707870
 905 013c 00000000 		.word	_IQ31SinLookup
 906 0140 00000000 		.word	_IQ31CosLookup
 907 0144 ABAAAA2A 		.word	715827883
 908              	.LBE159:
 909              	.LBE158:
 910              	.LBE170:
 911              	.LBE173:
 912              		.cfi_endproc
 913              	.LFE265:
 915              		.section	.text._IQ27sin,"ax",%progbits
 916              		.align	1
 917              		.global	_IQ27sin
 918              		.syntax unified
 919              		.thumb
 920              		.thumb_func
 922              	_IQ27sin:
 923              	.LVL114:
 924              	.LFB266:
 416:../Common/IQMath/ti/_IQNsin_cos.c **** /**
 417:../Common/IQMath/ti/_IQNsin_cos.c ****  * @brief Computes the sine of an IQ27 input.
 418:../Common/IQMath/ti/_IQNsin_cos.c ****  *
 419:../Common/IQMath/ti/_IQNsin_cos.c ****  * @param a               IQ27 type input.
 420:../Common/IQMath/ti/_IQNsin_cos.c ****  *
 421:../Common/IQMath/ti/_IQNsin_cos.c ****  * @return                IQ27 type result of sine operation, in radians.
 422:../Common/IQMath/ti/_IQNsin_cos.c ****  */
 423:../Common/IQMath/ti/_IQNsin_cos.c **** int32_t _IQ27sin(int32_t a)
 424:../Common/IQMath/ti/_IQNsin_cos.c **** {
 925              		.loc 1 424 1 is_stmt 1 view -0
 926              		.cfi_startproc
 927              		@ args = 0, pretend = 0, frame = 0
 928              		@ frame_needed = 0, uses_anonymous_args = 0
 929              		.loc 1 424 1 is_stmt 0 view .LVU371
 930 0000 30B5     		push	{r4, r5, lr}
 931              	.LCFI2:
 932              		.cfi_def_cfa_offset 12
 933              		.cfi_offset 4, -12
 934              		.cfi_offset 5, -8
 935              		.cfi_offset 14, -4
 425:../Common/IQMath/ti/_IQNsin_cos.c ****     return __IQNsin_cos(a, 27, TYPE_SIN, TYPE_RAD);
 936              		.loc 1 425 5 is_stmt 1 view .LVU372
 937              	.LVL115:
 938              	.LBB219:
 939              	.LBI219:
 199:../Common/IQMath/ti/_IQNsin_cos.c ****                                    const int8_t type, const int8_t format)
 940              		.loc 1 199 30 view .LVU373
 941              	.LBB220:
 202:../Common/IQMath/ti/_IQNsin_cos.c ****     uint_fast16_t ui16IntState;
 942              		.loc 1 202 5 view .LVU374
 203:../Common/IQMath/ti/_IQNsin_cos.c ****     uint_fast16_t ui16MPYState;
 943              		.loc 1 203 5 view .LVU375
 204:../Common/IQMath/ti/_IQNsin_cos.c ****     uint_fast32_t uiq29Input;
 944              		.loc 1 204 5 view .LVU376
 205:../Common/IQMath/ti/_IQNsin_cos.c ****     uint_fast32_t uiq30Input;
 945              		.loc 1 205 5 view .LVU377
 206:../Common/IQMath/ti/_IQNsin_cos.c ****     uint_fast32_t uiq31Input;
 946              		.loc 1 206 5 view .LVU378
ARM GAS  C:\Users\57308\AppData\Local\Temp\ccvDm0cb.s 			page 34


 207:../Common/IQMath/ti/_IQNsin_cos.c ****     uint_fast32_t uiq32Input;
 947              		.loc 1 207 5 view .LVU379
 208:../Common/IQMath/ti/_IQNsin_cos.c ****     uint_fast32_t uiq31Result;
 948              		.loc 1 208 5 view .LVU380
 209:../Common/IQMath/ti/_IQNsin_cos.c ****     
 949              		.loc 1 209 5 view .LVU381
 212:../Common/IQMath/ti/_IQNsin_cos.c ****         iqNInput = -iqNInput;
 950              		.loc 1 212 5 view .LVU382
 212:../Common/IQMath/ti/_IQNsin_cos.c ****         iqNInput = -iqNInput;
 951              		.loc 1 212 8 is_stmt 0 view .LVU383
 952 0002 0028     		cmp	r0, #0
 212:../Common/IQMath/ti/_IQNsin_cos.c ****         iqNInput = -iqNInput;
 953              		.loc 1 212 8 view .LVU384
 954 0004 02DB     		blt	.L41
 202:../Common/IQMath/ti/_IQNsin_cos.c ****     uint_fast16_t ui16IntState;
 955              		.loc 1 202 13 view .LVU385
 956 0006 0021     		movs	r1, #0
 957              	.LVL116:
 958              	.L30:
 227:../Common/IQMath/ti/_IQNsin_cos.c ****     
 959              		.loc 1 227 5 is_stmt 1 view .LVU386
 227:../Common/IQMath/ti/_IQNsin_cos.c ****     
 960              		.loc 1 227 5 is_stmt 0 view .LVU387
 961              	.LBE220:
 962              	.LBE219:
  28:../Common/IQMath/ti/./support/RTS_support.h **** }
 963              		.loc 2 28 5 is_stmt 1 view .LVU388
 964              	.LBB246:
 965              	.LBB243:
 230:../Common/IQMath/ti/_IQNsin_cos.c ****         /* 
 966              		.loc 1 230 5 view .LVU389
 967              	.LBB221:
 253:../Common/IQMath/ti/_IQNsin_cos.c ****         
 968              		.loc 1 253 9 view .LVU390
 256:../Common/IQMath/ti/_IQNsin_cos.c ****         
 969              		.loc 1 256 9 view .LVU391
 259:../Common/IQMath/ti/_IQNsin_cos.c ****             if (uiq29Input >= iq29_pi) {
 970              		.loc 1 259 9 view .LVU392
 253:../Common/IQMath/ti/_IQNsin_cos.c ****         
 971              		.loc 1 253 22 is_stmt 0 view .LVU393
 972 0008 0223     		movs	r3, #2
 259:../Common/IQMath/ti/_IQNsin_cos.c ****             if (uiq29Input >= iq29_pi) {
 973              		.loc 1 259 15 view .LVU394
 974 000a 04E0     		b	.L31
 975              	.LVL117:
 976              	.L41:
 259:../Common/IQMath/ti/_IQNsin_cos.c ****             if (uiq29Input >= iq29_pi) {
 977              		.loc 1 259 15 view .LVU395
 978              	.LBE221:
 213:../Common/IQMath/ti/_IQNsin_cos.c ****         
 979              		.loc 1 213 9 is_stmt 1 view .LVU396
 213:../Common/IQMath/ti/_IQNsin_cos.c ****         
 980              		.loc 1 213 18 is_stmt 0 view .LVU397
 981 000c 4042     		rsbs	r0, r0, #0
 982              	.LVL118:
 216:../Common/IQMath/ti/_IQNsin_cos.c ****             ui8Sign = 1;
 983              		.loc 1 216 9 is_stmt 1 view .LVU398
ARM GAS  C:\Users\57308\AppData\Local\Temp\ccvDm0cb.s 			page 35


 217:../Common/IQMath/ti/_IQNsin_cos.c ****         }
 984              		.loc 1 217 13 view .LVU399
 217:../Common/IQMath/ti/_IQNsin_cos.c ****         }
 985              		.loc 1 217 21 is_stmt 0 view .LVU400
 986 000e 0121     		movs	r1, #1
 987 0010 FAE7     		b	.L30
 988              	.LVL119:
 989              	.L32:
 990              	.LBB222:
 263:../Common/IQMath/ti/_IQNsin_cos.c ****             exp--;
 991              		.loc 1 263 13 is_stmt 1 view .LVU401
 263:../Common/IQMath/ti/_IQNsin_cos.c ****             exp--;
 992              		.loc 1 263 24 is_stmt 0 view .LVU402
 993 0012 4000     		lsls	r0, r0, #1
 994              	.LVL120:
 264:../Common/IQMath/ti/_IQNsin_cos.c ****         }
 995              		.loc 1 264 13 is_stmt 1 view .LVU403
 264:../Common/IQMath/ti/_IQNsin_cos.c ****         }
 996              		.loc 1 264 16 is_stmt 0 view .LVU404
 997 0014 013B     		subs	r3, r3, #1
 998              	.LVL121:
 999              	.L31:
 259:../Common/IQMath/ti/_IQNsin_cos.c ****             if (uiq29Input >= iq29_pi) {
 1000              		.loc 1 259 15 is_stmt 1 view .LVU405
 1001 0016 4BB1     		cbz	r3, .L42
 260:../Common/IQMath/ti/_IQNsin_cos.c ****                 uiq29Input -= iq29_pi;
 1002              		.loc 1 260 13 view .LVU406
 260:../Common/IQMath/ti/_IQNsin_cos.c ****                 uiq29Input -= iq29_pi;
 1003              		.loc 1 260 16 is_stmt 0 view .LVU407
 1004 0018 454A     		ldr	r2, .L43
 1005 001a 9042     		cmp	r0, r2
 1006 001c F9D9     		bls	.L32
 261:../Common/IQMath/ti/_IQNsin_cos.c ****             }
 1007              		.loc 1 261 17 is_stmt 1 view .LVU408
 261:../Common/IQMath/ti/_IQNsin_cos.c ****             }
 1008              		.loc 1 261 28 is_stmt 0 view .LVU409
 1009 001e A0F1C940 		sub	r0, r0, #1686110208
 1010              	.LVL122:
 261:../Common/IQMath/ti/_IQNsin_cos.c ****             }
 1011              		.loc 1 261 28 view .LVU410
 1012 0022 A0F5FD20 		sub	r0, r0, #518144
 1013              	.LVL123:
 261:../Common/IQMath/ti/_IQNsin_cos.c ****             }
 1014              		.loc 1 261 28 view .LVU411
 1015 0026 A0F25150 		subw	r0, r0, #1361
 1016              	.LVL124:
 261:../Common/IQMath/ti/_IQNsin_cos.c ****             }
 1017              		.loc 1 261 28 view .LVU412
 1018 002a F2E7     		b	.L32
 1019              	.L42:
 268:../Common/IQMath/ti/_IQNsin_cos.c ****             uiq29Input -= iq29_pi;
 1020              		.loc 1 268 9 is_stmt 1 view .LVU413
 268:../Common/IQMath/ti/_IQNsin_cos.c ****             uiq29Input -= iq29_pi;
 1021              		.loc 1 268 12 is_stmt 0 view .LVU414
 1022 002c 404B     		ldr	r3, .L43
 1023              	.LVL125:
 268:../Common/IQMath/ti/_IQNsin_cos.c ****             uiq29Input -= iq29_pi;
ARM GAS  C:\Users\57308\AppData\Local\Temp\ccvDm0cb.s 			page 36


 1024              		.loc 1 268 12 view .LVU415
 1025 002e 9842     		cmp	r0, r3
 1026 0030 07D9     		bls	.L34
 269:../Common/IQMath/ti/_IQNsin_cos.c ****             ui8Sign ^= 1;
 1027              		.loc 1 269 13 is_stmt 1 view .LVU416
 269:../Common/IQMath/ti/_IQNsin_cos.c ****             ui8Sign ^= 1;
 1028              		.loc 1 269 24 is_stmt 0 view .LVU417
 1029 0032 A0F1C940 		sub	r0, r0, #1686110208
 1030              	.LVL126:
 269:../Common/IQMath/ti/_IQNsin_cos.c ****             ui8Sign ^= 1;
 1031              		.loc 1 269 24 view .LVU418
 1032 0036 A0F5FD20 		sub	r0, r0, #518144
 1033              	.LVL127:
 269:../Common/IQMath/ti/_IQNsin_cos.c ****             ui8Sign ^= 1;
 1034              		.loc 1 269 24 view .LVU419
 1035 003a A0F25150 		subw	r0, r0, #1361
 1036              	.LVL128:
 270:../Common/IQMath/ti/_IQNsin_cos.c ****         }
 1037              		.loc 1 270 13 is_stmt 1 view .LVU420
 270:../Common/IQMath/ti/_IQNsin_cos.c ****         }
 1038              		.loc 1 270 21 is_stmt 0 view .LVU421
 1039 003e 81F00101 		eor	r1, r1, #1
 1040              	.LVL129:
 1041              	.L34:
 274:../Common/IQMath/ti/_IQNsin_cos.c ****     }
 1042              		.loc 1 274 9 is_stmt 1 view .LVU422
 274:../Common/IQMath/ti/_IQNsin_cos.c ****     }
 1043              		.loc 1 274 20 is_stmt 0 view .LVU423
 1044 0042 4300     		lsls	r3, r0, #1
 1045              	.LVL130:
 274:../Common/IQMath/ti/_IQNsin_cos.c ****     }
 1046              		.loc 1 274 20 view .LVU424
 1047              	.LBE222:
 278:../Common/IQMath/ti/_IQNsin_cos.c ****         uiq30Input = iq30_pi - uiq30Input;
 1048              		.loc 1 278 5 is_stmt 1 view .LVU425
 278:../Common/IQMath/ti/_IQNsin_cos.c ****         uiq30Input = iq30_pi - uiq30Input;
 1049              		.loc 1 278 8 is_stmt 0 view .LVU426
 1050 0044 3A4A     		ldr	r2, .L43
 1051 0046 B2EB400F 		cmp	r2, r0, lsl #1
 1052 004a 05D2     		bcs	.L35
 279:../Common/IQMath/ti/_IQNsin_cos.c ****         
 1053              		.loc 1 279 9 is_stmt 1 view .LVU427
 279:../Common/IQMath/ti/_IQNsin_cos.c ****         
 1054              		.loc 1 279 20 is_stmt 0 view .LVU428
 1055 004c C3F14943 		rsb	r3, r3, #-922746880
 1056              	.LVL131:
 279:../Common/IQMath/ti/_IQNsin_cos.c ****         
 1057              		.loc 1 279 20 view .LVU429
 1058 0050 03F57D23 		add	r3, r3, #1036288
 1059 0054 03F6A223 		addw	r3, r3, #2722
 1060              	.LVL132:
 282:../Common/IQMath/ti/_IQNsin_cos.c ****             ui8Sign ^= 1;
 1061              		.loc 1 282 9 is_stmt 1 view .LVU430
 1062              	.L35:
 288:../Common/IQMath/ti/_IQNsin_cos.c ****     
 1063              		.loc 1 288 5 view .LVU431
 288:../Common/IQMath/ti/_IQNsin_cos.c ****     
ARM GAS  C:\Users\57308\AppData\Local\Temp\ccvDm0cb.s 			page 37


 1064              		.loc 1 288 16 is_stmt 0 view .LVU432
 1065 0058 5A00     		lsls	r2, r3, #1
 1066              	.LVL133:
 291:../Common/IQMath/ti/_IQNsin_cos.c ****         /* If input is greater than pi/4 use sin for calculations */
 1067              		.loc 1 291 5 is_stmt 1 view .LVU433
 301:../Common/IQMath/ti/_IQNsin_cos.c ****         /* If input is greater than pi/4 use cos for calculations */
 1068              		.loc 1 301 10 view .LVU434
 303:../Common/IQMath/ti/_IQNsin_cos.c ****             uiq31Input = iq31_halfPi - uiq31Input;
 1069              		.loc 1 303 9 view .LVU435
 303:../Common/IQMath/ti/_IQNsin_cos.c ****             uiq31Input = iq31_halfPi - uiq31Input;
 1070              		.loc 1 303 12 is_stmt 0 view .LVU436
 1071 005a 3648     		ldr	r0, .L43+4
 1072              	.LVL134:
 303:../Common/IQMath/ti/_IQNsin_cos.c ****             uiq31Input = iq31_halfPi - uiq31Input;
 1073              		.loc 1 303 12 view .LVU437
 1074 005c B0EB430F 		cmp	r0, r3, lsl #1
 1075 0060 33D2     		bcs	.L36
 304:../Common/IQMath/ti/_IQNsin_cos.c ****             uiq31Result = __IQNcalcCos(uiq31Input);
 1076              		.loc 1 304 13 is_stmt 1 view .LVU438
 304:../Common/IQMath/ti/_IQNsin_cos.c ****             uiq31Result = __IQNcalcCos(uiq31Input);
 1077              		.loc 1 304 24 is_stmt 0 view .LVU439
 1078 0062 354B     		ldr	r3, .L43+8
 1079              	.LVL135:
 304:../Common/IQMath/ti/_IQNsin_cos.c ****             uiq31Result = __IQNcalcCos(uiq31Input);
 1080              		.loc 1 304 24 view .LVU440
 1081 0064 9B1A     		subs	r3, r3, r2
 1082              	.LVL136:
 305:../Common/IQMath/ti/_IQNsin_cos.c ****         }
 1083              		.loc 1 305 13 is_stmt 1 view .LVU441
 1084              	.LBB223:
 1085              	.LBI223:
 139:../Common/IQMath/ti/_IQNsin_cos.c **** {
 1086              		.loc 1 139 30 view .LVU442
 1087              	.LBB224:
 141:../Common/IQMath/ti/_IQNsin_cos.c ****     int_fast32_t iq31X;
 1088              		.loc 1 141 2 view .LVU443
 142:../Common/IQMath/ti/_IQNsin_cos.c ****     int_fast32_t iq31Sin;
 1089              		.loc 1 142 5 view .LVU444
 143:../Common/IQMath/ti/_IQNsin_cos.c ****     int_fast32_t iq31Cos;
 1090              		.loc 1 143 5 view .LVU445
 144:../Common/IQMath/ti/_IQNsin_cos.c ****     int_fast32_t iq31Res;
 1091              		.loc 1 144 5 view .LVU446
 145:../Common/IQMath/ti/_IQNsin_cos.c ****     
 1092              		.loc 1 145 5 view .LVU447
 148:../Common/IQMath/ti/_IQNsin_cos.c ****     
 1093              		.loc 1 148 5 view .LVU448
 148:../Common/IQMath/ti/_IQNsin_cos.c ****     
 1094              		.loc 1 148 11 is_stmt 0 view .LVU449
 1095 0066 C3F34562 		ubfx	r2, r3, #25, #6
 1096              	.LVL137:
 151:../Common/IQMath/ti/_IQNsin_cos.c ****     iq31Cos = _IQ31CosLookup[index];
 1097              		.loc 1 151 5 is_stmt 1 view .LVU450
 151:../Common/IQMath/ti/_IQNsin_cos.c ****     iq31Cos = _IQ31CosLookup[index];
 1098              		.loc 1 151 13 is_stmt 0 view .LVU451
 1099 006a 3448     		ldr	r0, .L43+12
 1100 006c 50F82250 		ldr	r5, [r0, r2, lsl #2]
 1101              	.LVL138:
ARM GAS  C:\Users\57308\AppData\Local\Temp\ccvDm0cb.s 			page 38


 152:../Common/IQMath/ti/_IQNsin_cos.c ****     
 1102              		.loc 1 152 5 is_stmt 1 view .LVU452
 152:../Common/IQMath/ti/_IQNsin_cos.c ****     
 1103              		.loc 1 152 13 is_stmt 0 view .LVU453
 1104 0070 3348     		ldr	r0, .L43+16
 1105 0072 50F82200 		ldr	r0, [r0, r2, lsl #2]
 1106              	.LVL139:
 159:../Common/IQMath/ti/_IQNsin_cos.c ****     
 1107              		.loc 1 159 5 is_stmt 1 view .LVU454
 159:../Common/IQMath/ti/_IQNsin_cos.c ****     
 1108              		.loc 1 159 11 is_stmt 0 view .LVU455
 1109 0076 23F07E42 		bic	r2, r3, #-33554432
 1110              	.LVL140:
 162:../Common/IQMath/ti/_IQNsin_cos.c ****     iq31Res = __mpyf_l(iq31Sin, iq31Res);
 1111              		.loc 1 162 5 is_stmt 1 view .LVU456
 1112              	.LBB225:
 1113              	.LBI225:
 233:../Common/IQMath/ti/./support/RTS_support.h **** {
 1114              		.loc 2 233 28 view .LVU457
 1115              	.LBB226:
 1116              		.loc 2 235 5 view .LVU458
 1117              		.loc 2 235 47 is_stmt 0 view .LVU459
 1118 007a 324C     		ldr	r4, .L43+20
 1119 007c A2FB04C4 		umull	ip, r4, r2, r4
 1120              		.loc 2 235 69 view .LVU460
 1121 0080 4FEADC7C 		lsr	ip, ip, #31
 1122 0084 4CEA440C 		orr	ip, ip, r4, lsl #1
 1123              	.LVL141:
 1124              		.loc 2 235 69 view .LVU461
 1125              	.LBE226:
 1126              	.LBE225:
 163:../Common/IQMath/ti/_IQNsin_cos.c ****     
 1127              		.loc 1 163 5 is_stmt 1 view .LVU462
 1128              	.LBB227:
 1129              	.LBI227:
 233:../Common/IQMath/ti/./support/RTS_support.h **** {
 1130              		.loc 2 233 28 view .LVU463
 1131              	.LBB228:
 1132              		.loc 2 235 5 view .LVU464
 1133              		.loc 2 235 28 is_stmt 0 view .LVU465
 1134 0088 4FEAE57E 		asr	lr, r5, #31
 1135              		.loc 2 235 47 view .LVU466
 1136 008c A5FB0C43 		umull	r4, r3, r5, ip
 1137              	.LVL142:
 1138              		.loc 2 235 47 view .LVU467
 1139 0090 0CFB0E3C 		mla	ip, ip, lr, r3
 1140              	.LVL143:
 1141              		.loc 2 235 69 view .LVU468
 1142 0094 E40F     		lsrs	r4, r4, #31
 1143 0096 44EA4C04 		orr	r4, r4, ip, lsl #1
 1144              	.LVL144:
 1145              		.loc 2 235 69 view .LVU469
 1146              	.LBE228:
 1147              	.LBE227:
 166:../Common/IQMath/ti/_IQNsin_cos.c ****     
 1148              		.loc 1 166 5 is_stmt 1 view .LVU470
 166:../Common/IQMath/ti/_IQNsin_cos.c ****     
ARM GAS  C:\Users\57308\AppData\Local\Temp\ccvDm0cb.s 			page 39


 1149              		.loc 1 166 13 is_stmt 0 view .LVU471
 1150 009a 241A     		subs	r4, r4, r0
 1151              	.LVL145:
 169:../Common/IQMath/ti/_IQNsin_cos.c ****     iq31Res = __mpyf_l(iq31X, iq31Res);
 1152              		.loc 1 169 5 is_stmt 1 view .LVU472
 169:../Common/IQMath/ti/_IQNsin_cos.c ****     iq31Res = __mpyf_l(iq31X, iq31Res);
 1153              		.loc 1 169 13 is_stmt 0 view .LVU473
 1154 009c 6310     		asrs	r3, r4, #1
 1155              	.LVL146:
 170:../Common/IQMath/ti/_IQNsin_cos.c ****     
 1156              		.loc 1 170 5 is_stmt 1 view .LVU474
 1157              	.LBB229:
 1158              	.LBI229:
 233:../Common/IQMath/ti/./support/RTS_support.h **** {
 1159              		.loc 2 233 28 view .LVU475
 1160              	.LBB230:
 1161              		.loc 2 235 5 view .LVU476
 1162              		.loc 2 235 49 is_stmt 0 view .LVU477
 1163 009e E417     		asrs	r4, r4, #31
 1164              		.loc 2 235 47 view .LVU478
 1165 00a0 A2FB033C 		umull	r3, ip, r2, r3
 1166              	.LVL147:
 1167              		.loc 2 235 47 view .LVU479
 1168 00a4 02FB04C4 		mla	r4, r2, r4, ip
 1169              		.loc 2 235 69 view .LVU480
 1170 00a8 DB0F     		lsrs	r3, r3, #31
 1171 00aa 43EA4403 		orr	r3, r3, r4, lsl #1
 1172              	.LVL148:
 1173              		.loc 2 235 69 view .LVU481
 1174              	.LBE230:
 1175              	.LBE229:
 173:../Common/IQMath/ti/_IQNsin_cos.c ****     
 1176              		.loc 1 173 5 is_stmt 1 view .LVU482
 173:../Common/IQMath/ti/_IQNsin_cos.c ****     
 1177              		.loc 1 173 13 is_stmt 0 view .LVU483
 1178 00ae 5B1B     		subs	r3, r3, r5
 1179              	.LVL149:
 176:../Common/IQMath/ti/_IQNsin_cos.c ****     
 1180              		.loc 1 176 5 is_stmt 1 view .LVU484
 1181              	.LBB231:
 1182              	.LBI231:
 233:../Common/IQMath/ti/./support/RTS_support.h **** {
 1183              		.loc 2 233 28 view .LVU485
 1184              	.LBB232:
 1185              		.loc 2 235 5 view .LVU486
 1186              		.loc 2 235 49 is_stmt 0 view .LVU487
 1187 00b0 DD17     		asrs	r5, r3, #31
 1188              	.LVL150:
 1189              		.loc 2 235 47 view .LVU488
 1190 00b2 A2FB0334 		umull	r3, r4, r2, r3
 1191              	.LVL151:
 1192              		.loc 2 235 47 view .LVU489
 1193 00b6 02FB0542 		mla	r2, r2, r5, r4
 1194              	.LVL152:
 1195              		.loc 2 235 69 view .LVU490
 1196 00ba DB0F     		lsrs	r3, r3, #31
 1197 00bc 43EA4203 		orr	r3, r3, r2, lsl #1
ARM GAS  C:\Users\57308\AppData\Local\Temp\ccvDm0cb.s 			page 40


 1198              	.LVL153:
 1199              		.loc 2 235 69 view .LVU491
 1200              	.LBE232:
 1201              	.LBE231:
 179:../Common/IQMath/ti/_IQNsin_cos.c ****     
 1202              		.loc 1 179 5 is_stmt 1 view .LVU492
 179:../Common/IQMath/ti/_IQNsin_cos.c ****     
 1203              		.loc 1 179 13 is_stmt 0 view .LVU493
 1204 00c0 1844     		add	r0, r0, r3
 1205              	.LVL154:
 181:../Common/IQMath/ti/_IQNsin_cos.c **** }
 1206              		.loc 1 181 5 is_stmt 1 view .LVU494
 1207              	.L37:
 181:../Common/IQMath/ti/_IQNsin_cos.c **** }
 1208              		.loc 1 181 5 is_stmt 0 view .LVU495
 1209              	.LBE224:
 1210              	.LBE223:
 316:../Common/IQMath/ti/_IQNsin_cos.c ****     
 1211              		.loc 1 316 5 is_stmt 1 view .LVU496
 316:../Common/IQMath/ti/_IQNsin_cos.c ****     
 1212              		.loc 1 316 5 is_stmt 0 view .LVU497
 1213              	.LBE243:
 1214              	.LBE246:
  72:../Common/IQMath/ti/./support/RTS_support.h **** }
 1215              		.loc 2 72 5 is_stmt 1 view .LVU498
 1216              	.LBB247:
 1217              	.LBB244:
 319:../Common/IQMath/ti/_IQNsin_cos.c ****     
 1218              		.loc 1 319 5 view .LVU499
 319:../Common/IQMath/ti/_IQNsin_cos.c ****     
 1219              		.loc 1 319 17 is_stmt 0 view .LVU500
 1220 00c2 0009     		lsrs	r0, r0, #4
 1221              	.LVL155:
 322:../Common/IQMath/ti/_IQNsin_cos.c ****         uiq31Result = -uiq31Result;
 1222              		.loc 1 322 5 is_stmt 1 view .LVU501
 322:../Common/IQMath/ti/_IQNsin_cos.c ****         uiq31Result = -uiq31Result;
 1223              		.loc 1 322 8 is_stmt 0 view .LVU502
 1224 00c4 01B1     		cbz	r1, .L38
 323:../Common/IQMath/ti/_IQNsin_cos.c ****     }
 1225              		.loc 1 323 9 is_stmt 1 view .LVU503
 323:../Common/IQMath/ti/_IQNsin_cos.c ****     }
 1226              		.loc 1 323 21 is_stmt 0 view .LVU504
 1227 00c6 4042     		rsbs	r0, r0, #0
 1228              	.LVL156:
 1229              	.L38:
 326:../Common/IQMath/ti/_IQNsin_cos.c **** }
 1230              		.loc 1 326 5 is_stmt 1 view .LVU505
 326:../Common/IQMath/ti/_IQNsin_cos.c **** }
 1231              		.loc 1 326 5 is_stmt 0 view .LVU506
 1232              	.LBE244:
 1233              	.LBE247:
 426:../Common/IQMath/ti/_IQNsin_cos.c **** }
 1234              		.loc 1 426 1 view .LVU507
 1235 00c8 30BD     		pop	{r4, r5, pc}
 1236              	.LVL157:
 1237              	.L36:
 1238              	.LBB248:
ARM GAS  C:\Users\57308\AppData\Local\Temp\ccvDm0cb.s 			page 41


 1239              	.LBB245:
 308:../Common/IQMath/ti/_IQNsin_cos.c ****         }
 1240              		.loc 1 308 13 is_stmt 1 view .LVU508
 1241              	.LBB233:
 1242              	.LBI233:
  83:../Common/IQMath/ti/_IQNsin_cos.c **** {
 1243              		.loc 1 83 30 view .LVU509
 1244              	.LBB234:
  85:../Common/IQMath/ti/_IQNsin_cos.c ****     int_fast32_t iq31X;
 1245              		.loc 1 85 2 view .LVU510
  86:../Common/IQMath/ti/_IQNsin_cos.c ****     int_fast32_t iq31Sin;
 1246              		.loc 1 86 5 view .LVU511
  87:../Common/IQMath/ti/_IQNsin_cos.c ****     int_fast32_t iq31Cos;
 1247              		.loc 1 87 5 view .LVU512
  88:../Common/IQMath/ti/_IQNsin_cos.c ****     int_fast32_t iq31Res;
 1248              		.loc 1 88 5 view .LVU513
  89:../Common/IQMath/ti/_IQNsin_cos.c ****     
 1249              		.loc 1 89 5 view .LVU514
  92:../Common/IQMath/ti/_IQNsin_cos.c ****     
 1250              		.loc 1 92 5 view .LVU515
  92:../Common/IQMath/ti/_IQNsin_cos.c ****     
 1251              		.loc 1 92 11 is_stmt 0 view .LVU516
 1252 00ca C2F34563 		ubfx	r3, r2, #25, #6
 1253              	.LVL158:
  95:../Common/IQMath/ti/_IQNsin_cos.c ****     iq31Cos = _IQ31CosLookup[index];
 1254              		.loc 1 95 5 is_stmt 1 view .LVU517
  95:../Common/IQMath/ti/_IQNsin_cos.c ****     iq31Cos = _IQ31CosLookup[index];
 1255              		.loc 1 95 13 is_stmt 0 view .LVU518
 1256 00ce 1B48     		ldr	r0, .L43+12
 1257 00d0 50F82300 		ldr	r0, [r0, r3, lsl #2]
 1258              	.LVL159:
  96:../Common/IQMath/ti/_IQNsin_cos.c ****     
 1259              		.loc 1 96 5 is_stmt 1 view .LVU519
  96:../Common/IQMath/ti/_IQNsin_cos.c ****     
 1260              		.loc 1 96 13 is_stmt 0 view .LVU520
 1261 00d4 1A4C     		ldr	r4, .L43+16
 1262 00d6 54F82330 		ldr	r3, [r4, r3, lsl #2]
 1263              	.LVL160:
 103:../Common/IQMath/ti/_IQNsin_cos.c ****     
 1264              		.loc 1 103 5 is_stmt 1 view .LVU521
 103:../Common/IQMath/ti/_IQNsin_cos.c ****     
 1265              		.loc 1 103 11 is_stmt 0 view .LVU522
 1266 00da 22F07E42 		bic	r2, r2, #-33554432
 1267              	.LVL161:
 106:../Common/IQMath/ti/_IQNsin_cos.c ****     iq31Res = __mpyf_l(iq31Cos, iq31Res);
 1268              		.loc 1 106 5 is_stmt 1 view .LVU523
 1269              	.LBB235:
 1270              	.LBI235:
 233:../Common/IQMath/ti/./support/RTS_support.h **** {
 1271              		.loc 2 233 28 view .LVU524
 1272              	.LBB236:
 1273              		.loc 2 235 5 view .LVU525
 1274              		.loc 2 235 47 is_stmt 0 view .LVU526
 1275 00de 194C     		ldr	r4, .L43+20
 1276 00e0 A2FB04E4 		umull	lr, r4, r2, r4
 1277              		.loc 2 235 69 view .LVU527
 1278 00e4 4FEADE7E 		lsr	lr, lr, #31
ARM GAS  C:\Users\57308\AppData\Local\Temp\ccvDm0cb.s 			page 42


 1279 00e8 4EEA440E 		orr	lr, lr, r4, lsl #1
 1280              	.LVL162:
 1281              		.loc 2 235 69 view .LVU528
 1282              	.LBE236:
 1283              	.LBE235:
 107:../Common/IQMath/ti/_IQNsin_cos.c ****     
 1284              		.loc 1 107 5 is_stmt 1 view .LVU529
 1285              	.LBB237:
 1286              	.LBI237:
 233:../Common/IQMath/ti/./support/RTS_support.h **** {
 1287              		.loc 2 233 28 view .LVU530
 1288              	.LBB238:
 1289              		.loc 2 235 5 view .LVU531
 1290              		.loc 2 235 28 is_stmt 0 view .LVU532
 1291 00ec DD17     		asrs	r5, r3, #31
 1292              		.loc 2 235 47 view .LVU533
 1293 00ee A3FB0EC4 		umull	ip, r4, r3, lr
 1294 00f2 0EFB054E 		mla	lr, lr, r5, r4
 1295              	.LVL163:
 1296              		.loc 2 235 69 view .LVU534
 1297 00f6 4FEADC7C 		lsr	ip, ip, #31
 1298 00fa 4CEA4E0C 		orr	ip, ip, lr, lsl #1
 1299              	.LVL164:
 1300              		.loc 2 235 69 view .LVU535
 1301              	.LBE238:
 1302              	.LBE237:
 110:../Common/IQMath/ti/_IQNsin_cos.c ****     
 1303              		.loc 1 110 5 is_stmt 1 view .LVU536
 110:../Common/IQMath/ti/_IQNsin_cos.c ****     
 1304              		.loc 1 110 25 is_stmt 0 view .LVU537
 1305 00fe 8444     		add	ip, ip, r0
 1306              	.LVL165:
 110:../Common/IQMath/ti/_IQNsin_cos.c ****     
 1307              		.loc 1 110 13 view .LVU538
 1308 0100 CCF1000C 		rsb	ip, ip, #0
 1309              	.LVL166:
 113:../Common/IQMath/ti/_IQNsin_cos.c ****     iq31Res = __mpyf_l(iq31X, iq31Res);
 1310              		.loc 1 113 5 is_stmt 1 view .LVU539
 113:../Common/IQMath/ti/_IQNsin_cos.c ****     iq31Res = __mpyf_l(iq31X, iq31Res);
 1311              		.loc 1 113 13 is_stmt 0 view .LVU540
 1312 0104 4FEA6C04 		asr	r4, ip, #1
 1313              	.LVL167:
 114:../Common/IQMath/ti/_IQNsin_cos.c ****     
 1314              		.loc 1 114 5 is_stmt 1 view .LVU541
 1315              	.LBB239:
 1316              	.LBI239:
 233:../Common/IQMath/ti/./support/RTS_support.h **** {
 1317              		.loc 2 233 28 view .LVU542
 1318              	.LBB240:
 1319              		.loc 2 235 5 view .LVU543
 1320              		.loc 2 235 49 is_stmt 0 view .LVU544
 1321 0108 4FEAEC7C 		asr	ip, ip, #31
 1322              		.loc 2 235 47 view .LVU545
 1323 010c A2FB0445 		umull	r4, r5, r2, r4
 1324              	.LVL168:
 1325              		.loc 2 235 47 view .LVU546
 1326 0110 02FB0C5C 		mla	ip, r2, ip, r5
ARM GAS  C:\Users\57308\AppData\Local\Temp\ccvDm0cb.s 			page 43


 1327              		.loc 2 235 69 view .LVU547
 1328 0114 E40F     		lsrs	r4, r4, #31
 1329 0116 44EA4C04 		orr	r4, r4, ip, lsl #1
 1330              	.LVL169:
 1331              		.loc 2 235 69 view .LVU548
 1332              	.LBE240:
 1333              	.LBE239:
 117:../Common/IQMath/ti/_IQNsin_cos.c ****     
 1334              		.loc 1 117 5 is_stmt 1 view .LVU549
 117:../Common/IQMath/ti/_IQNsin_cos.c ****     
 1335              		.loc 1 117 13 is_stmt 0 view .LVU550
 1336 011a 2344     		add	r3, r3, r4
 1337              	.LVL170:
 120:../Common/IQMath/ti/_IQNsin_cos.c ****     
 1338              		.loc 1 120 5 is_stmt 1 view .LVU551
 1339              	.LBB241:
 1340              	.LBI241:
 233:../Common/IQMath/ti/./support/RTS_support.h **** {
 1341              		.loc 2 233 28 view .LVU552
 1342              	.LBB242:
 1343              		.loc 2 235 5 view .LVU553
 1344              		.loc 2 235 49 is_stmt 0 view .LVU554
 1345 011c DD17     		asrs	r5, r3, #31
 1346              		.loc 2 235 47 view .LVU555
 1347 011e A2FB0334 		umull	r3, r4, r2, r3
 1348              	.LVL171:
 1349              		.loc 2 235 47 view .LVU556
 1350 0122 02FB0542 		mla	r2, r2, r5, r4
 1351              	.LVL172:
 1352              		.loc 2 235 69 view .LVU557
 1353 0126 DB0F     		lsrs	r3, r3, #31
 1354 0128 43EA4203 		orr	r3, r3, r2, lsl #1
 1355              	.LVL173:
 1356              		.loc 2 235 69 view .LVU558
 1357              	.LBE242:
 1358              	.LBE241:
 123:../Common/IQMath/ti/_IQNsin_cos.c ****     
 1359              		.loc 1 123 5 is_stmt 1 view .LVU559
 123:../Common/IQMath/ti/_IQNsin_cos.c ****     
 1360              		.loc 1 123 13 is_stmt 0 view .LVU560
 1361 012c 1844     		add	r0, r0, r3
 1362              	.LVL174:
 125:../Common/IQMath/ti/_IQNsin_cos.c **** }
 1363              		.loc 1 125 5 is_stmt 1 view .LVU561
 125:../Common/IQMath/ti/_IQNsin_cos.c **** }
 1364              		.loc 1 125 5 is_stmt 0 view .LVU562
 1365 012e C8E7     		b	.L37
 1366              	.L44:
 1367              		.align	2
 1368              	.L43:
 1369 0130 50ED8764 		.word	1686629712
 1370 0134 51ED8764 		.word	1686629713
 1371 0138 A2DA0FC9 		.word	-921707870
 1372 013c 00000000 		.word	_IQ31SinLookup
 1373 0140 00000000 		.word	_IQ31CosLookup
 1374 0144 ABAAAA2A 		.word	715827883
 1375              	.LBE234:
ARM GAS  C:\Users\57308\AppData\Local\Temp\ccvDm0cb.s 			page 44


 1376              	.LBE233:
 1377              	.LBE245:
 1378              	.LBE248:
 1379              		.cfi_endproc
 1380              	.LFE266:
 1382              		.section	.text._IQ26sin,"ax",%progbits
 1383              		.align	1
 1384              		.global	_IQ26sin
 1385              		.syntax unified
 1386              		.thumb
 1387              		.thumb_func
 1389              	_IQ26sin:
 1390              	.LVL175:
 1391              	.LFB267:
 427:../Common/IQMath/ti/_IQNsin_cos.c **** /**
 428:../Common/IQMath/ti/_IQNsin_cos.c ****  * @brief Computes the sine of an IQ26 input.
 429:../Common/IQMath/ti/_IQNsin_cos.c ****  *
 430:../Common/IQMath/ti/_IQNsin_cos.c ****  * @param a               IQ26 type input.
 431:../Common/IQMath/ti/_IQNsin_cos.c ****  *
 432:../Common/IQMath/ti/_IQNsin_cos.c ****  * @return                IQ26 type result of sine operation, in radians.
 433:../Common/IQMath/ti/_IQNsin_cos.c ****  */
 434:../Common/IQMath/ti/_IQNsin_cos.c **** int32_t _IQ26sin(int32_t a)
 435:../Common/IQMath/ti/_IQNsin_cos.c **** {
 1392              		.loc 1 435 1 is_stmt 1 view -0
 1393              		.cfi_startproc
 1394              		@ args = 0, pretend = 0, frame = 0
 1395              		@ frame_needed = 0, uses_anonymous_args = 0
 1396              		.loc 1 435 1 is_stmt 0 view .LVU564
 1397 0000 30B5     		push	{r4, r5, lr}
 1398              	.LCFI3:
 1399              		.cfi_def_cfa_offset 12
 1400              		.cfi_offset 4, -12
 1401              		.cfi_offset 5, -8
 1402              		.cfi_offset 14, -4
 436:../Common/IQMath/ti/_IQNsin_cos.c ****     return __IQNsin_cos(a, 26, TYPE_SIN, TYPE_RAD);
 1403              		.loc 1 436 5 is_stmt 1 view .LVU565
 1404              	.LVL176:
 1405              	.LBB294:
 1406              	.LBI294:
 199:../Common/IQMath/ti/_IQNsin_cos.c ****                                    const int8_t type, const int8_t format)
 1407              		.loc 1 199 30 view .LVU566
 1408              	.LBB295:
 202:../Common/IQMath/ti/_IQNsin_cos.c ****     uint_fast16_t ui16IntState;
 1409              		.loc 1 202 5 view .LVU567
 203:../Common/IQMath/ti/_IQNsin_cos.c ****     uint_fast16_t ui16MPYState;
 1410              		.loc 1 203 5 view .LVU568
 204:../Common/IQMath/ti/_IQNsin_cos.c ****     uint_fast32_t uiq29Input;
 1411              		.loc 1 204 5 view .LVU569
 205:../Common/IQMath/ti/_IQNsin_cos.c ****     uint_fast32_t uiq30Input;
 1412              		.loc 1 205 5 view .LVU570
 206:../Common/IQMath/ti/_IQNsin_cos.c ****     uint_fast32_t uiq31Input;
 1413              		.loc 1 206 5 view .LVU571
 207:../Common/IQMath/ti/_IQNsin_cos.c ****     uint_fast32_t uiq32Input;
 1414              		.loc 1 207 5 view .LVU572
 208:../Common/IQMath/ti/_IQNsin_cos.c ****     uint_fast32_t uiq31Result;
 1415              		.loc 1 208 5 view .LVU573
 209:../Common/IQMath/ti/_IQNsin_cos.c ****     
ARM GAS  C:\Users\57308\AppData\Local\Temp\ccvDm0cb.s 			page 45


 1416              		.loc 1 209 5 view .LVU574
 212:../Common/IQMath/ti/_IQNsin_cos.c ****         iqNInput = -iqNInput;
 1417              		.loc 1 212 5 view .LVU575
 212:../Common/IQMath/ti/_IQNsin_cos.c ****         iqNInput = -iqNInput;
 1418              		.loc 1 212 8 is_stmt 0 view .LVU576
 1419 0002 0028     		cmp	r0, #0
 212:../Common/IQMath/ti/_IQNsin_cos.c ****         iqNInput = -iqNInput;
 1420              		.loc 1 212 8 view .LVU577
 1421 0004 02DB     		blt	.L57
 202:../Common/IQMath/ti/_IQNsin_cos.c ****     uint_fast16_t ui16IntState;
 1422              		.loc 1 202 13 view .LVU578
 1423 0006 0021     		movs	r1, #0
 1424              	.LVL177:
 1425              	.L46:
 227:../Common/IQMath/ti/_IQNsin_cos.c ****     
 1426              		.loc 1 227 5 is_stmt 1 view .LVU579
 227:../Common/IQMath/ti/_IQNsin_cos.c ****     
 1427              		.loc 1 227 5 is_stmt 0 view .LVU580
 1428              	.LBE295:
 1429              	.LBE294:
  28:../Common/IQMath/ti/./support/RTS_support.h **** }
 1430              		.loc 2 28 5 is_stmt 1 view .LVU581
 1431              	.LBB321:
 1432              	.LBB318:
 230:../Common/IQMath/ti/_IQNsin_cos.c ****         /* 
 1433              		.loc 1 230 5 view .LVU582
 1434              	.LBB296:
 253:../Common/IQMath/ti/_IQNsin_cos.c ****         
 1435              		.loc 1 253 9 view .LVU583
 256:../Common/IQMath/ti/_IQNsin_cos.c ****         
 1436              		.loc 1 256 9 view .LVU584
 259:../Common/IQMath/ti/_IQNsin_cos.c ****             if (uiq29Input >= iq29_pi) {
 1437              		.loc 1 259 9 view .LVU585
 253:../Common/IQMath/ti/_IQNsin_cos.c ****         
 1438              		.loc 1 253 22 is_stmt 0 view .LVU586
 1439 0008 0323     		movs	r3, #3
 259:../Common/IQMath/ti/_IQNsin_cos.c ****             if (uiq29Input >= iq29_pi) {
 1440              		.loc 1 259 15 view .LVU587
 1441 000a 04E0     		b	.L47
 1442              	.LVL178:
 1443              	.L57:
 259:../Common/IQMath/ti/_IQNsin_cos.c ****             if (uiq29Input >= iq29_pi) {
 1444              		.loc 1 259 15 view .LVU588
 1445              	.LBE296:
 213:../Common/IQMath/ti/_IQNsin_cos.c ****         
 1446              		.loc 1 213 9 is_stmt 1 view .LVU589
 213:../Common/IQMath/ti/_IQNsin_cos.c ****         
 1447              		.loc 1 213 18 is_stmt 0 view .LVU590
 1448 000c 4042     		rsbs	r0, r0, #0
 1449              	.LVL179:
 216:../Common/IQMath/ti/_IQNsin_cos.c ****             ui8Sign = 1;
 1450              		.loc 1 216 9 is_stmt 1 view .LVU591
 217:../Common/IQMath/ti/_IQNsin_cos.c ****         }
 1451              		.loc 1 217 13 view .LVU592
 217:../Common/IQMath/ti/_IQNsin_cos.c ****         }
 1452              		.loc 1 217 21 is_stmt 0 view .LVU593
 1453 000e 0121     		movs	r1, #1
ARM GAS  C:\Users\57308\AppData\Local\Temp\ccvDm0cb.s 			page 46


 1454 0010 FAE7     		b	.L46
 1455              	.LVL180:
 1456              	.L48:
 1457              	.LBB297:
 263:../Common/IQMath/ti/_IQNsin_cos.c ****             exp--;
 1458              		.loc 1 263 13 is_stmt 1 view .LVU594
 263:../Common/IQMath/ti/_IQNsin_cos.c ****             exp--;
 1459              		.loc 1 263 24 is_stmt 0 view .LVU595
 1460 0012 4000     		lsls	r0, r0, #1
 1461              	.LVL181:
 264:../Common/IQMath/ti/_IQNsin_cos.c ****         }
 1462              		.loc 1 264 13 is_stmt 1 view .LVU596
 264:../Common/IQMath/ti/_IQNsin_cos.c ****         }
 1463              		.loc 1 264 16 is_stmt 0 view .LVU597
 1464 0014 013B     		subs	r3, r3, #1
 1465              	.LVL182:
 1466              	.L47:
 259:../Common/IQMath/ti/_IQNsin_cos.c ****             if (uiq29Input >= iq29_pi) {
 1467              		.loc 1 259 15 is_stmt 1 view .LVU598
 1468 0016 4BB1     		cbz	r3, .L58
 260:../Common/IQMath/ti/_IQNsin_cos.c ****                 uiq29Input -= iq29_pi;
 1469              		.loc 1 260 13 view .LVU599
 260:../Common/IQMath/ti/_IQNsin_cos.c ****                 uiq29Input -= iq29_pi;
 1470              		.loc 1 260 16 is_stmt 0 view .LVU600
 1471 0018 454A     		ldr	r2, .L59
 1472 001a 9042     		cmp	r0, r2
 1473 001c F9D9     		bls	.L48
 261:../Common/IQMath/ti/_IQNsin_cos.c ****             }
 1474              		.loc 1 261 17 is_stmt 1 view .LVU601
 261:../Common/IQMath/ti/_IQNsin_cos.c ****             }
 1475              		.loc 1 261 28 is_stmt 0 view .LVU602
 1476 001e A0F1C940 		sub	r0, r0, #1686110208
 1477              	.LVL183:
 261:../Common/IQMath/ti/_IQNsin_cos.c ****             }
 1478              		.loc 1 261 28 view .LVU603
 1479 0022 A0F5FD20 		sub	r0, r0, #518144
 1480              	.LVL184:
 261:../Common/IQMath/ti/_IQNsin_cos.c ****             }
 1481              		.loc 1 261 28 view .LVU604
 1482 0026 A0F25150 		subw	r0, r0, #1361
 1483              	.LVL185:
 261:../Common/IQMath/ti/_IQNsin_cos.c ****             }
 1484              		.loc 1 261 28 view .LVU605
 1485 002a F2E7     		b	.L48
 1486              	.L58:
 268:../Common/IQMath/ti/_IQNsin_cos.c ****             uiq29Input -= iq29_pi;
 1487              		.loc 1 268 9 is_stmt 1 view .LVU606
 268:../Common/IQMath/ti/_IQNsin_cos.c ****             uiq29Input -= iq29_pi;
 1488              		.loc 1 268 12 is_stmt 0 view .LVU607
 1489 002c 404B     		ldr	r3, .L59
 1490              	.LVL186:
 268:../Common/IQMath/ti/_IQNsin_cos.c ****             uiq29Input -= iq29_pi;
 1491              		.loc 1 268 12 view .LVU608
 1492 002e 9842     		cmp	r0, r3
 1493 0030 07D9     		bls	.L50
 269:../Common/IQMath/ti/_IQNsin_cos.c ****             ui8Sign ^= 1;
 1494              		.loc 1 269 13 is_stmt 1 view .LVU609
ARM GAS  C:\Users\57308\AppData\Local\Temp\ccvDm0cb.s 			page 47


 269:../Common/IQMath/ti/_IQNsin_cos.c ****             ui8Sign ^= 1;
 1495              		.loc 1 269 24 is_stmt 0 view .LVU610
 1496 0032 A0F1C940 		sub	r0, r0, #1686110208
 1497              	.LVL187:
 269:../Common/IQMath/ti/_IQNsin_cos.c ****             ui8Sign ^= 1;
 1498              		.loc 1 269 24 view .LVU611
 1499 0036 A0F5FD20 		sub	r0, r0, #518144
 1500              	.LVL188:
 269:../Common/IQMath/ti/_IQNsin_cos.c ****             ui8Sign ^= 1;
 1501              		.loc 1 269 24 view .LVU612
 1502 003a A0F25150 		subw	r0, r0, #1361
 1503              	.LVL189:
 270:../Common/IQMath/ti/_IQNsin_cos.c ****         }
 1504              		.loc 1 270 13 is_stmt 1 view .LVU613
 270:../Common/IQMath/ti/_IQNsin_cos.c ****         }
 1505              		.loc 1 270 21 is_stmt 0 view .LVU614
 1506 003e 81F00101 		eor	r1, r1, #1
 1507              	.LVL190:
 1508              	.L50:
 274:../Common/IQMath/ti/_IQNsin_cos.c ****     }
 1509              		.loc 1 274 9 is_stmt 1 view .LVU615
 274:../Common/IQMath/ti/_IQNsin_cos.c ****     }
 1510              		.loc 1 274 20 is_stmt 0 view .LVU616
 1511 0042 4300     		lsls	r3, r0, #1
 1512              	.LVL191:
 274:../Common/IQMath/ti/_IQNsin_cos.c ****     }
 1513              		.loc 1 274 20 view .LVU617
 1514              	.LBE297:
 278:../Common/IQMath/ti/_IQNsin_cos.c ****         uiq30Input = iq30_pi - uiq30Input;
 1515              		.loc 1 278 5 is_stmt 1 view .LVU618
 278:../Common/IQMath/ti/_IQNsin_cos.c ****         uiq30Input = iq30_pi - uiq30Input;
 1516              		.loc 1 278 8 is_stmt 0 view .LVU619
 1517 0044 3A4A     		ldr	r2, .L59
 1518 0046 B2EB400F 		cmp	r2, r0, lsl #1
 1519 004a 05D2     		bcs	.L51
 279:../Common/IQMath/ti/_IQNsin_cos.c ****         
 1520              		.loc 1 279 9 is_stmt 1 view .LVU620
 279:../Common/IQMath/ti/_IQNsin_cos.c ****         
 1521              		.loc 1 279 20 is_stmt 0 view .LVU621
 1522 004c C3F14943 		rsb	r3, r3, #-922746880
 1523              	.LVL192:
 279:../Common/IQMath/ti/_IQNsin_cos.c ****         
 1524              		.loc 1 279 20 view .LVU622
 1525 0050 03F57D23 		add	r3, r3, #1036288
 1526 0054 03F6A223 		addw	r3, r3, #2722
 1527              	.LVL193:
 282:../Common/IQMath/ti/_IQNsin_cos.c ****             ui8Sign ^= 1;
 1528              		.loc 1 282 9 is_stmt 1 view .LVU623
 1529              	.L51:
 288:../Common/IQMath/ti/_IQNsin_cos.c ****     
 1530              		.loc 1 288 5 view .LVU624
 288:../Common/IQMath/ti/_IQNsin_cos.c ****     
 1531              		.loc 1 288 16 is_stmt 0 view .LVU625
 1532 0058 5A00     		lsls	r2, r3, #1
 1533              	.LVL194:
 291:../Common/IQMath/ti/_IQNsin_cos.c ****         /* If input is greater than pi/4 use sin for calculations */
 1534              		.loc 1 291 5 is_stmt 1 view .LVU626
ARM GAS  C:\Users\57308\AppData\Local\Temp\ccvDm0cb.s 			page 48


 301:../Common/IQMath/ti/_IQNsin_cos.c ****         /* If input is greater than pi/4 use cos for calculations */
 1535              		.loc 1 301 10 view .LVU627
 303:../Common/IQMath/ti/_IQNsin_cos.c ****             uiq31Input = iq31_halfPi - uiq31Input;
 1536              		.loc 1 303 9 view .LVU628
 303:../Common/IQMath/ti/_IQNsin_cos.c ****             uiq31Input = iq31_halfPi - uiq31Input;
 1537              		.loc 1 303 12 is_stmt 0 view .LVU629
 1538 005a 3648     		ldr	r0, .L59+4
 1539              	.LVL195:
 303:../Common/IQMath/ti/_IQNsin_cos.c ****             uiq31Input = iq31_halfPi - uiq31Input;
 1540              		.loc 1 303 12 view .LVU630
 1541 005c B0EB430F 		cmp	r0, r3, lsl #1
 1542 0060 33D2     		bcs	.L52
 304:../Common/IQMath/ti/_IQNsin_cos.c ****             uiq31Result = __IQNcalcCos(uiq31Input);
 1543              		.loc 1 304 13 is_stmt 1 view .LVU631
 304:../Common/IQMath/ti/_IQNsin_cos.c ****             uiq31Result = __IQNcalcCos(uiq31Input);
 1544              		.loc 1 304 24 is_stmt 0 view .LVU632
 1545 0062 354B     		ldr	r3, .L59+8
 1546              	.LVL196:
 304:../Common/IQMath/ti/_IQNsin_cos.c ****             uiq31Result = __IQNcalcCos(uiq31Input);
 1547              		.loc 1 304 24 view .LVU633
 1548 0064 9B1A     		subs	r3, r3, r2
 1549              	.LVL197:
 305:../Common/IQMath/ti/_IQNsin_cos.c ****         }
 1550              		.loc 1 305 13 is_stmt 1 view .LVU634
 1551              	.LBB298:
 1552              	.LBI298:
 139:../Common/IQMath/ti/_IQNsin_cos.c **** {
 1553              		.loc 1 139 30 view .LVU635
 1554              	.LBB299:
 141:../Common/IQMath/ti/_IQNsin_cos.c ****     int_fast32_t iq31X;
 1555              		.loc 1 141 2 view .LVU636
 142:../Common/IQMath/ti/_IQNsin_cos.c ****     int_fast32_t iq31Sin;
 1556              		.loc 1 142 5 view .LVU637
 143:../Common/IQMath/ti/_IQNsin_cos.c ****     int_fast32_t iq31Cos;
 1557              		.loc 1 143 5 view .LVU638
 144:../Common/IQMath/ti/_IQNsin_cos.c ****     int_fast32_t iq31Res;
 1558              		.loc 1 144 5 view .LVU639
 145:../Common/IQMath/ti/_IQNsin_cos.c ****     
 1559              		.loc 1 145 5 view .LVU640
 148:../Common/IQMath/ti/_IQNsin_cos.c ****     
 1560              		.loc 1 148 5 view .LVU641
 148:../Common/IQMath/ti/_IQNsin_cos.c ****     
 1561              		.loc 1 148 11 is_stmt 0 view .LVU642
 1562 0066 C3F34562 		ubfx	r2, r3, #25, #6
 1563              	.LVL198:
 151:../Common/IQMath/ti/_IQNsin_cos.c ****     iq31Cos = _IQ31CosLookup[index];
 1564              		.loc 1 151 5 is_stmt 1 view .LVU643
 151:../Common/IQMath/ti/_IQNsin_cos.c ****     iq31Cos = _IQ31CosLookup[index];
 1565              		.loc 1 151 13 is_stmt 0 view .LVU644
 1566 006a 3448     		ldr	r0, .L59+12
 1567 006c 50F82250 		ldr	r5, [r0, r2, lsl #2]
 1568              	.LVL199:
 152:../Common/IQMath/ti/_IQNsin_cos.c ****     
 1569              		.loc 1 152 5 is_stmt 1 view .LVU645
 152:../Common/IQMath/ti/_IQNsin_cos.c ****     
 1570              		.loc 1 152 13 is_stmt 0 view .LVU646
 1571 0070 3348     		ldr	r0, .L59+16
ARM GAS  C:\Users\57308\AppData\Local\Temp\ccvDm0cb.s 			page 49


 1572 0072 50F82200 		ldr	r0, [r0, r2, lsl #2]
 1573              	.LVL200:
 159:../Common/IQMath/ti/_IQNsin_cos.c ****     
 1574              		.loc 1 159 5 is_stmt 1 view .LVU647
 159:../Common/IQMath/ti/_IQNsin_cos.c ****     
 1575              		.loc 1 159 11 is_stmt 0 view .LVU648
 1576 0076 23F07E42 		bic	r2, r3, #-33554432
 1577              	.LVL201:
 162:../Common/IQMath/ti/_IQNsin_cos.c ****     iq31Res = __mpyf_l(iq31Sin, iq31Res);
 1578              		.loc 1 162 5 is_stmt 1 view .LVU649
 1579              	.LBB300:
 1580              	.LBI300:
 233:../Common/IQMath/ti/./support/RTS_support.h **** {
 1581              		.loc 2 233 28 view .LVU650
 1582              	.LBB301:
 1583              		.loc 2 235 5 view .LVU651
 1584              		.loc 2 235 47 is_stmt 0 view .LVU652
 1585 007a 324C     		ldr	r4, .L59+20
 1586 007c A2FB04C4 		umull	ip, r4, r2, r4
 1587              		.loc 2 235 69 view .LVU653
 1588 0080 4FEADC7C 		lsr	ip, ip, #31
 1589 0084 4CEA440C 		orr	ip, ip, r4, lsl #1
 1590              	.LVL202:
 1591              		.loc 2 235 69 view .LVU654
 1592              	.LBE301:
 1593              	.LBE300:
 163:../Common/IQMath/ti/_IQNsin_cos.c ****     
 1594              		.loc 1 163 5 is_stmt 1 view .LVU655
 1595              	.LBB302:
 1596              	.LBI302:
 233:../Common/IQMath/ti/./support/RTS_support.h **** {
 1597              		.loc 2 233 28 view .LVU656
 1598              	.LBB303:
 1599              		.loc 2 235 5 view .LVU657
 1600              		.loc 2 235 28 is_stmt 0 view .LVU658
 1601 0088 4FEAE57E 		asr	lr, r5, #31
 1602              		.loc 2 235 47 view .LVU659
 1603 008c A5FB0C43 		umull	r4, r3, r5, ip
 1604              	.LVL203:
 1605              		.loc 2 235 47 view .LVU660
 1606 0090 0CFB0E3C 		mla	ip, ip, lr, r3
 1607              	.LVL204:
 1608              		.loc 2 235 69 view .LVU661
 1609 0094 E40F     		lsrs	r4, r4, #31
 1610 0096 44EA4C04 		orr	r4, r4, ip, lsl #1
 1611              	.LVL205:
 1612              		.loc 2 235 69 view .LVU662
 1613              	.LBE303:
 1614              	.LBE302:
 166:../Common/IQMath/ti/_IQNsin_cos.c ****     
 1615              		.loc 1 166 5 is_stmt 1 view .LVU663
 166:../Common/IQMath/ti/_IQNsin_cos.c ****     
 1616              		.loc 1 166 13 is_stmt 0 view .LVU664
 1617 009a 241A     		subs	r4, r4, r0
 1618              	.LVL206:
 169:../Common/IQMath/ti/_IQNsin_cos.c ****     iq31Res = __mpyf_l(iq31X, iq31Res);
 1619              		.loc 1 169 5 is_stmt 1 view .LVU665
ARM GAS  C:\Users\57308\AppData\Local\Temp\ccvDm0cb.s 			page 50


 169:../Common/IQMath/ti/_IQNsin_cos.c ****     iq31Res = __mpyf_l(iq31X, iq31Res);
 1620              		.loc 1 169 13 is_stmt 0 view .LVU666
 1621 009c 6310     		asrs	r3, r4, #1
 1622              	.LVL207:
 170:../Common/IQMath/ti/_IQNsin_cos.c ****     
 1623              		.loc 1 170 5 is_stmt 1 view .LVU667
 1624              	.LBB304:
 1625              	.LBI304:
 233:../Common/IQMath/ti/./support/RTS_support.h **** {
 1626              		.loc 2 233 28 view .LVU668
 1627              	.LBB305:
 1628              		.loc 2 235 5 view .LVU669
 1629              		.loc 2 235 49 is_stmt 0 view .LVU670
 1630 009e E417     		asrs	r4, r4, #31
 1631              		.loc 2 235 47 view .LVU671
 1632 00a0 A2FB033C 		umull	r3, ip, r2, r3
 1633              	.LVL208:
 1634              		.loc 2 235 47 view .LVU672
 1635 00a4 02FB04C4 		mla	r4, r2, r4, ip
 1636              		.loc 2 235 69 view .LVU673
 1637 00a8 DB0F     		lsrs	r3, r3, #31
 1638 00aa 43EA4403 		orr	r3, r3, r4, lsl #1
 1639              	.LVL209:
 1640              		.loc 2 235 69 view .LVU674
 1641              	.LBE305:
 1642              	.LBE304:
 173:../Common/IQMath/ti/_IQNsin_cos.c ****     
 1643              		.loc 1 173 5 is_stmt 1 view .LVU675
 173:../Common/IQMath/ti/_IQNsin_cos.c ****     
 1644              		.loc 1 173 13 is_stmt 0 view .LVU676
 1645 00ae 5B1B     		subs	r3, r3, r5
 1646              	.LVL210:
 176:../Common/IQMath/ti/_IQNsin_cos.c ****     
 1647              		.loc 1 176 5 is_stmt 1 view .LVU677
 1648              	.LBB306:
 1649              	.LBI306:
 233:../Common/IQMath/ti/./support/RTS_support.h **** {
 1650              		.loc 2 233 28 view .LVU678
 1651              	.LBB307:
 1652              		.loc 2 235 5 view .LVU679
 1653              		.loc 2 235 49 is_stmt 0 view .LVU680
 1654 00b0 DD17     		asrs	r5, r3, #31
 1655              	.LVL211:
 1656              		.loc 2 235 47 view .LVU681
 1657 00b2 A2FB0334 		umull	r3, r4, r2, r3
 1658              	.LVL212:
 1659              		.loc 2 235 47 view .LVU682
 1660 00b6 02FB0542 		mla	r2, r2, r5, r4
 1661              	.LVL213:
 1662              		.loc 2 235 69 view .LVU683
 1663 00ba DB0F     		lsrs	r3, r3, #31
 1664 00bc 43EA4203 		orr	r3, r3, r2, lsl #1
 1665              	.LVL214:
 1666              		.loc 2 235 69 view .LVU684
 1667              	.LBE307:
 1668              	.LBE306:
 179:../Common/IQMath/ti/_IQNsin_cos.c ****     
ARM GAS  C:\Users\57308\AppData\Local\Temp\ccvDm0cb.s 			page 51


 1669              		.loc 1 179 5 is_stmt 1 view .LVU685
 179:../Common/IQMath/ti/_IQNsin_cos.c ****     
 1670              		.loc 1 179 13 is_stmt 0 view .LVU686
 1671 00c0 1844     		add	r0, r0, r3
 1672              	.LVL215:
 181:../Common/IQMath/ti/_IQNsin_cos.c **** }
 1673              		.loc 1 181 5 is_stmt 1 view .LVU687
 1674              	.L53:
 181:../Common/IQMath/ti/_IQNsin_cos.c **** }
 1675              		.loc 1 181 5 is_stmt 0 view .LVU688
 1676              	.LBE299:
 1677              	.LBE298:
 316:../Common/IQMath/ti/_IQNsin_cos.c ****     
 1678              		.loc 1 316 5 is_stmt 1 view .LVU689
 316:../Common/IQMath/ti/_IQNsin_cos.c ****     
 1679              		.loc 1 316 5 is_stmt 0 view .LVU690
 1680              	.LBE318:
 1681              	.LBE321:
  72:../Common/IQMath/ti/./support/RTS_support.h **** }
 1682              		.loc 2 72 5 is_stmt 1 view .LVU691
 1683              	.LBB322:
 1684              	.LBB319:
 319:../Common/IQMath/ti/_IQNsin_cos.c ****     
 1685              		.loc 1 319 5 view .LVU692
 319:../Common/IQMath/ti/_IQNsin_cos.c ****     
 1686              		.loc 1 319 17 is_stmt 0 view .LVU693
 1687 00c2 4009     		lsrs	r0, r0, #5
 1688              	.LVL216:
 322:../Common/IQMath/ti/_IQNsin_cos.c ****         uiq31Result = -uiq31Result;
 1689              		.loc 1 322 5 is_stmt 1 view .LVU694
 322:../Common/IQMath/ti/_IQNsin_cos.c ****         uiq31Result = -uiq31Result;
 1690              		.loc 1 322 8 is_stmt 0 view .LVU695
 1691 00c4 01B1     		cbz	r1, .L54
 323:../Common/IQMath/ti/_IQNsin_cos.c ****     }
 1692              		.loc 1 323 9 is_stmt 1 view .LVU696
 323:../Common/IQMath/ti/_IQNsin_cos.c ****     }
 1693              		.loc 1 323 21 is_stmt 0 view .LVU697
 1694 00c6 4042     		rsbs	r0, r0, #0
 1695              	.LVL217:
 1696              	.L54:
 326:../Common/IQMath/ti/_IQNsin_cos.c **** }
 1697              		.loc 1 326 5 is_stmt 1 view .LVU698
 326:../Common/IQMath/ti/_IQNsin_cos.c **** }
 1698              		.loc 1 326 5 is_stmt 0 view .LVU699
 1699              	.LBE319:
 1700              	.LBE322:
 437:../Common/IQMath/ti/_IQNsin_cos.c **** }
 1701              		.loc 1 437 1 view .LVU700
 1702 00c8 30BD     		pop	{r4, r5, pc}
 1703              	.LVL218:
 1704              	.L52:
 1705              	.LBB323:
 1706              	.LBB320:
 308:../Common/IQMath/ti/_IQNsin_cos.c ****         }
 1707              		.loc 1 308 13 is_stmt 1 view .LVU701
 1708              	.LBB308:
 1709              	.LBI308:
ARM GAS  C:\Users\57308\AppData\Local\Temp\ccvDm0cb.s 			page 52


  83:../Common/IQMath/ti/_IQNsin_cos.c **** {
 1710              		.loc 1 83 30 view .LVU702
 1711              	.LBB309:
  85:../Common/IQMath/ti/_IQNsin_cos.c ****     int_fast32_t iq31X;
 1712              		.loc 1 85 2 view .LVU703
  86:../Common/IQMath/ti/_IQNsin_cos.c ****     int_fast32_t iq31Sin;
 1713              		.loc 1 86 5 view .LVU704
  87:../Common/IQMath/ti/_IQNsin_cos.c ****     int_fast32_t iq31Cos;
 1714              		.loc 1 87 5 view .LVU705
  88:../Common/IQMath/ti/_IQNsin_cos.c ****     int_fast32_t iq31Res;
 1715              		.loc 1 88 5 view .LVU706
  89:../Common/IQMath/ti/_IQNsin_cos.c ****     
 1716              		.loc 1 89 5 view .LVU707
  92:../Common/IQMath/ti/_IQNsin_cos.c ****     
 1717              		.loc 1 92 5 view .LVU708
  92:../Common/IQMath/ti/_IQNsin_cos.c ****     
 1718              		.loc 1 92 11 is_stmt 0 view .LVU709
 1719 00ca C2F34563 		ubfx	r3, r2, #25, #6
 1720              	.LVL219:
  95:../Common/IQMath/ti/_IQNsin_cos.c ****     iq31Cos = _IQ31CosLookup[index];
 1721              		.loc 1 95 5 is_stmt 1 view .LVU710
  95:../Common/IQMath/ti/_IQNsin_cos.c ****     iq31Cos = _IQ31CosLookup[index];
 1722              		.loc 1 95 13 is_stmt 0 view .LVU711
 1723 00ce 1B48     		ldr	r0, .L59+12
 1724 00d0 50F82300 		ldr	r0, [r0, r3, lsl #2]
 1725              	.LVL220:
  96:../Common/IQMath/ti/_IQNsin_cos.c ****     
 1726              		.loc 1 96 5 is_stmt 1 view .LVU712
  96:../Common/IQMath/ti/_IQNsin_cos.c ****     
 1727              		.loc 1 96 13 is_stmt 0 view .LVU713
 1728 00d4 1A4C     		ldr	r4, .L59+16
 1729 00d6 54F82330 		ldr	r3, [r4, r3, lsl #2]
 1730              	.LVL221:
 103:../Common/IQMath/ti/_IQNsin_cos.c ****     
 1731              		.loc 1 103 5 is_stmt 1 view .LVU714
 103:../Common/IQMath/ti/_IQNsin_cos.c ****     
 1732              		.loc 1 103 11 is_stmt 0 view .LVU715
 1733 00da 22F07E42 		bic	r2, r2, #-33554432
 1734              	.LVL222:
 106:../Common/IQMath/ti/_IQNsin_cos.c ****     iq31Res = __mpyf_l(iq31Cos, iq31Res);
 1735              		.loc 1 106 5 is_stmt 1 view .LVU716
 1736              	.LBB310:
 1737              	.LBI310:
 233:../Common/IQMath/ti/./support/RTS_support.h **** {
 1738              		.loc 2 233 28 view .LVU717
 1739              	.LBB311:
 1740              		.loc 2 235 5 view .LVU718
 1741              		.loc 2 235 47 is_stmt 0 view .LVU719
 1742 00de 194C     		ldr	r4, .L59+20
 1743 00e0 A2FB04E4 		umull	lr, r4, r2, r4
 1744              		.loc 2 235 69 view .LVU720
 1745 00e4 4FEADE7E 		lsr	lr, lr, #31
 1746 00e8 4EEA440E 		orr	lr, lr, r4, lsl #1
 1747              	.LVL223:
 1748              		.loc 2 235 69 view .LVU721
 1749              	.LBE311:
 1750              	.LBE310:
ARM GAS  C:\Users\57308\AppData\Local\Temp\ccvDm0cb.s 			page 53


 107:../Common/IQMath/ti/_IQNsin_cos.c ****     
 1751              		.loc 1 107 5 is_stmt 1 view .LVU722
 1752              	.LBB312:
 1753              	.LBI312:
 233:../Common/IQMath/ti/./support/RTS_support.h **** {
 1754              		.loc 2 233 28 view .LVU723
 1755              	.LBB313:
 1756              		.loc 2 235 5 view .LVU724
 1757              		.loc 2 235 28 is_stmt 0 view .LVU725
 1758 00ec DD17     		asrs	r5, r3, #31
 1759              		.loc 2 235 47 view .LVU726
 1760 00ee A3FB0EC4 		umull	ip, r4, r3, lr
 1761 00f2 0EFB054E 		mla	lr, lr, r5, r4
 1762              	.LVL224:
 1763              		.loc 2 235 69 view .LVU727
 1764 00f6 4FEADC7C 		lsr	ip, ip, #31
 1765 00fa 4CEA4E0C 		orr	ip, ip, lr, lsl #1
 1766              	.LVL225:
 1767              		.loc 2 235 69 view .LVU728
 1768              	.LBE313:
 1769              	.LBE312:
 110:../Common/IQMath/ti/_IQNsin_cos.c ****     
 1770              		.loc 1 110 5 is_stmt 1 view .LVU729
 110:../Common/IQMath/ti/_IQNsin_cos.c ****     
 1771              		.loc 1 110 25 is_stmt 0 view .LVU730
 1772 00fe 8444     		add	ip, ip, r0
 1773              	.LVL226:
 110:../Common/IQMath/ti/_IQNsin_cos.c ****     
 1774              		.loc 1 110 13 view .LVU731
 1775 0100 CCF1000C 		rsb	ip, ip, #0
 1776              	.LVL227:
 113:../Common/IQMath/ti/_IQNsin_cos.c ****     iq31Res = __mpyf_l(iq31X, iq31Res);
 1777              		.loc 1 113 5 is_stmt 1 view .LVU732
 113:../Common/IQMath/ti/_IQNsin_cos.c ****     iq31Res = __mpyf_l(iq31X, iq31Res);
 1778              		.loc 1 113 13 is_stmt 0 view .LVU733
 1779 0104 4FEA6C04 		asr	r4, ip, #1
 1780              	.LVL228:
 114:../Common/IQMath/ti/_IQNsin_cos.c ****     
 1781              		.loc 1 114 5 is_stmt 1 view .LVU734
 1782              	.LBB314:
 1783              	.LBI314:
 233:../Common/IQMath/ti/./support/RTS_support.h **** {
 1784              		.loc 2 233 28 view .LVU735
 1785              	.LBB315:
 1786              		.loc 2 235 5 view .LVU736
 1787              		.loc 2 235 49 is_stmt 0 view .LVU737
 1788 0108 4FEAEC7C 		asr	ip, ip, #31
 1789              		.loc 2 235 47 view .LVU738
 1790 010c A2FB0445 		umull	r4, r5, r2, r4
 1791              	.LVL229:
 1792              		.loc 2 235 47 view .LVU739
 1793 0110 02FB0C5C 		mla	ip, r2, ip, r5
 1794              		.loc 2 235 69 view .LVU740
 1795 0114 E40F     		lsrs	r4, r4, #31
 1796 0116 44EA4C04 		orr	r4, r4, ip, lsl #1
 1797              	.LVL230:
 1798              		.loc 2 235 69 view .LVU741
ARM GAS  C:\Users\57308\AppData\Local\Temp\ccvDm0cb.s 			page 54


 1799              	.LBE315:
 1800              	.LBE314:
 117:../Common/IQMath/ti/_IQNsin_cos.c ****     
 1801              		.loc 1 117 5 is_stmt 1 view .LVU742
 117:../Common/IQMath/ti/_IQNsin_cos.c ****     
 1802              		.loc 1 117 13 is_stmt 0 view .LVU743
 1803 011a 2344     		add	r3, r3, r4
 1804              	.LVL231:
 120:../Common/IQMath/ti/_IQNsin_cos.c ****     
 1805              		.loc 1 120 5 is_stmt 1 view .LVU744
 1806              	.LBB316:
 1807              	.LBI316:
 233:../Common/IQMath/ti/./support/RTS_support.h **** {
 1808              		.loc 2 233 28 view .LVU745
 1809              	.LBB317:
 1810              		.loc 2 235 5 view .LVU746
 1811              		.loc 2 235 49 is_stmt 0 view .LVU747
 1812 011c DD17     		asrs	r5, r3, #31
 1813              		.loc 2 235 47 view .LVU748
 1814 011e A2FB0334 		umull	r3, r4, r2, r3
 1815              	.LVL232:
 1816              		.loc 2 235 47 view .LVU749
 1817 0122 02FB0542 		mla	r2, r2, r5, r4
 1818              	.LVL233:
 1819              		.loc 2 235 69 view .LVU750
 1820 0126 DB0F     		lsrs	r3, r3, #31
 1821 0128 43EA4203 		orr	r3, r3, r2, lsl #1
 1822              	.LVL234:
 1823              		.loc 2 235 69 view .LVU751
 1824              	.LBE317:
 1825              	.LBE316:
 123:../Common/IQMath/ti/_IQNsin_cos.c ****     
 1826              		.loc 1 123 5 is_stmt 1 view .LVU752
 123:../Common/IQMath/ti/_IQNsin_cos.c ****     
 1827              		.loc 1 123 13 is_stmt 0 view .LVU753
 1828 012c 1844     		add	r0, r0, r3
 1829              	.LVL235:
 125:../Common/IQMath/ti/_IQNsin_cos.c **** }
 1830              		.loc 1 125 5 is_stmt 1 view .LVU754
 125:../Common/IQMath/ti/_IQNsin_cos.c **** }
 1831              		.loc 1 125 5 is_stmt 0 view .LVU755
 1832 012e C8E7     		b	.L53
 1833              	.L60:
 1834              		.align	2
 1835              	.L59:
 1836 0130 50ED8764 		.word	1686629712
 1837 0134 51ED8764 		.word	1686629713
 1838 0138 A2DA0FC9 		.word	-921707870
 1839 013c 00000000 		.word	_IQ31SinLookup
 1840 0140 00000000 		.word	_IQ31CosLookup
 1841 0144 ABAAAA2A 		.word	715827883
 1842              	.LBE309:
 1843              	.LBE308:
 1844              	.LBE320:
 1845              	.LBE323:
 1846              		.cfi_endproc
 1847              	.LFE267:
ARM GAS  C:\Users\57308\AppData\Local\Temp\ccvDm0cb.s 			page 55


 1849              		.section	.text._IQ25sin,"ax",%progbits
 1850              		.align	1
 1851              		.global	_IQ25sin
 1852              		.syntax unified
 1853              		.thumb
 1854              		.thumb_func
 1856              	_IQ25sin:
 1857              	.LVL236:
 1858              	.LFB268:
 438:../Common/IQMath/ti/_IQNsin_cos.c **** /**
 439:../Common/IQMath/ti/_IQNsin_cos.c ****  * @brief Computes the sine of an IQ25 input.
 440:../Common/IQMath/ti/_IQNsin_cos.c ****  *
 441:../Common/IQMath/ti/_IQNsin_cos.c ****  * @param a               IQ25 type input.
 442:../Common/IQMath/ti/_IQNsin_cos.c ****  *
 443:../Common/IQMath/ti/_IQNsin_cos.c ****  * @return                IQ25 type result of sine operation, in radians.
 444:../Common/IQMath/ti/_IQNsin_cos.c ****  */
 445:../Common/IQMath/ti/_IQNsin_cos.c **** int32_t _IQ25sin(int32_t a)
 446:../Common/IQMath/ti/_IQNsin_cos.c **** {
 1859              		.loc 1 446 1 is_stmt 1 view -0
 1860              		.cfi_startproc
 1861              		@ args = 0, pretend = 0, frame = 0
 1862              		@ frame_needed = 0, uses_anonymous_args = 0
 1863              		.loc 1 446 1 is_stmt 0 view .LVU757
 1864 0000 30B5     		push	{r4, r5, lr}
 1865              	.LCFI4:
 1866              		.cfi_def_cfa_offset 12
 1867              		.cfi_offset 4, -12
 1868              		.cfi_offset 5, -8
 1869              		.cfi_offset 14, -4
 447:../Common/IQMath/ti/_IQNsin_cos.c ****     return __IQNsin_cos(a, 25, TYPE_SIN, TYPE_RAD);
 1870              		.loc 1 447 5 is_stmt 1 view .LVU758
 1871              	.LVL237:
 1872              	.LBB369:
 1873              	.LBI369:
 199:../Common/IQMath/ti/_IQNsin_cos.c ****                                    const int8_t type, const int8_t format)
 1874              		.loc 1 199 30 view .LVU759
 1875              	.LBB370:
 202:../Common/IQMath/ti/_IQNsin_cos.c ****     uint_fast16_t ui16IntState;
 1876              		.loc 1 202 5 view .LVU760
 203:../Common/IQMath/ti/_IQNsin_cos.c ****     uint_fast16_t ui16MPYState;
 1877              		.loc 1 203 5 view .LVU761
 204:../Common/IQMath/ti/_IQNsin_cos.c ****     uint_fast32_t uiq29Input;
 1878              		.loc 1 204 5 view .LVU762
 205:../Common/IQMath/ti/_IQNsin_cos.c ****     uint_fast32_t uiq30Input;
 1879              		.loc 1 205 5 view .LVU763
 206:../Common/IQMath/ti/_IQNsin_cos.c ****     uint_fast32_t uiq31Input;
 1880              		.loc 1 206 5 view .LVU764
 207:../Common/IQMath/ti/_IQNsin_cos.c ****     uint_fast32_t uiq32Input;
 1881              		.loc 1 207 5 view .LVU765
 208:../Common/IQMath/ti/_IQNsin_cos.c ****     uint_fast32_t uiq31Result;
 1882              		.loc 1 208 5 view .LVU766
 209:../Common/IQMath/ti/_IQNsin_cos.c ****     
 1883              		.loc 1 209 5 view .LVU767
 212:../Common/IQMath/ti/_IQNsin_cos.c ****         iqNInput = -iqNInput;
 1884              		.loc 1 212 5 view .LVU768
 212:../Common/IQMath/ti/_IQNsin_cos.c ****         iqNInput = -iqNInput;
 1885              		.loc 1 212 8 is_stmt 0 view .LVU769
ARM GAS  C:\Users\57308\AppData\Local\Temp\ccvDm0cb.s 			page 56


 1886 0002 0028     		cmp	r0, #0
 212:../Common/IQMath/ti/_IQNsin_cos.c ****         iqNInput = -iqNInput;
 1887              		.loc 1 212 8 view .LVU770
 1888 0004 02DB     		blt	.L73
 202:../Common/IQMath/ti/_IQNsin_cos.c ****     uint_fast16_t ui16IntState;
 1889              		.loc 1 202 13 view .LVU771
 1890 0006 0021     		movs	r1, #0
 1891              	.LVL238:
 1892              	.L62:
 227:../Common/IQMath/ti/_IQNsin_cos.c ****     
 1893              		.loc 1 227 5 is_stmt 1 view .LVU772
 227:../Common/IQMath/ti/_IQNsin_cos.c ****     
 1894              		.loc 1 227 5 is_stmt 0 view .LVU773
 1895              	.LBE370:
 1896              	.LBE369:
  28:../Common/IQMath/ti/./support/RTS_support.h **** }
 1897              		.loc 2 28 5 is_stmt 1 view .LVU774
 1898              	.LBB396:
 1899              	.LBB393:
 230:../Common/IQMath/ti/_IQNsin_cos.c ****         /* 
 1900              		.loc 1 230 5 view .LVU775
 1901              	.LBB371:
 253:../Common/IQMath/ti/_IQNsin_cos.c ****         
 1902              		.loc 1 253 9 view .LVU776
 256:../Common/IQMath/ti/_IQNsin_cos.c ****         
 1903              		.loc 1 256 9 view .LVU777
 259:../Common/IQMath/ti/_IQNsin_cos.c ****             if (uiq29Input >= iq29_pi) {
 1904              		.loc 1 259 9 view .LVU778
 253:../Common/IQMath/ti/_IQNsin_cos.c ****         
 1905              		.loc 1 253 22 is_stmt 0 view .LVU779
 1906 0008 0423     		movs	r3, #4
 259:../Common/IQMath/ti/_IQNsin_cos.c ****             if (uiq29Input >= iq29_pi) {
 1907              		.loc 1 259 15 view .LVU780
 1908 000a 04E0     		b	.L63
 1909              	.LVL239:
 1910              	.L73:
 259:../Common/IQMath/ti/_IQNsin_cos.c ****             if (uiq29Input >= iq29_pi) {
 1911              		.loc 1 259 15 view .LVU781
 1912              	.LBE371:
 213:../Common/IQMath/ti/_IQNsin_cos.c ****         
 1913              		.loc 1 213 9 is_stmt 1 view .LVU782
 213:../Common/IQMath/ti/_IQNsin_cos.c ****         
 1914              		.loc 1 213 18 is_stmt 0 view .LVU783
 1915 000c 4042     		rsbs	r0, r0, #0
 1916              	.LVL240:
 216:../Common/IQMath/ti/_IQNsin_cos.c ****             ui8Sign = 1;
 1917              		.loc 1 216 9 is_stmt 1 view .LVU784
 217:../Common/IQMath/ti/_IQNsin_cos.c ****         }
 1918              		.loc 1 217 13 view .LVU785
 217:../Common/IQMath/ti/_IQNsin_cos.c ****         }
 1919              		.loc 1 217 21 is_stmt 0 view .LVU786
 1920 000e 0121     		movs	r1, #1
 1921 0010 FAE7     		b	.L62
 1922              	.LVL241:
 1923              	.L64:
 1924              	.LBB372:
 263:../Common/IQMath/ti/_IQNsin_cos.c ****             exp--;
ARM GAS  C:\Users\57308\AppData\Local\Temp\ccvDm0cb.s 			page 57


 1925              		.loc 1 263 13 is_stmt 1 view .LVU787
 263:../Common/IQMath/ti/_IQNsin_cos.c ****             exp--;
 1926              		.loc 1 263 24 is_stmt 0 view .LVU788
 1927 0012 4000     		lsls	r0, r0, #1
 1928              	.LVL242:
 264:../Common/IQMath/ti/_IQNsin_cos.c ****         }
 1929              		.loc 1 264 13 is_stmt 1 view .LVU789
 264:../Common/IQMath/ti/_IQNsin_cos.c ****         }
 1930              		.loc 1 264 16 is_stmt 0 view .LVU790
 1931 0014 013B     		subs	r3, r3, #1
 1932              	.LVL243:
 1933              	.L63:
 259:../Common/IQMath/ti/_IQNsin_cos.c ****             if (uiq29Input >= iq29_pi) {
 1934              		.loc 1 259 15 is_stmt 1 view .LVU791
 1935 0016 4BB1     		cbz	r3, .L74
 260:../Common/IQMath/ti/_IQNsin_cos.c ****                 uiq29Input -= iq29_pi;
 1936              		.loc 1 260 13 view .LVU792
 260:../Common/IQMath/ti/_IQNsin_cos.c ****                 uiq29Input -= iq29_pi;
 1937              		.loc 1 260 16 is_stmt 0 view .LVU793
 1938 0018 454A     		ldr	r2, .L75
 1939 001a 9042     		cmp	r0, r2
 1940 001c F9D9     		bls	.L64
 261:../Common/IQMath/ti/_IQNsin_cos.c ****             }
 1941              		.loc 1 261 17 is_stmt 1 view .LVU794
 261:../Common/IQMath/ti/_IQNsin_cos.c ****             }
 1942              		.loc 1 261 28 is_stmt 0 view .LVU795
 1943 001e A0F1C940 		sub	r0, r0, #1686110208
 1944              	.LVL244:
 261:../Common/IQMath/ti/_IQNsin_cos.c ****             }
 1945              		.loc 1 261 28 view .LVU796
 1946 0022 A0F5FD20 		sub	r0, r0, #518144
 1947              	.LVL245:
 261:../Common/IQMath/ti/_IQNsin_cos.c ****             }
 1948              		.loc 1 261 28 view .LVU797
 1949 0026 A0F25150 		subw	r0, r0, #1361
 1950              	.LVL246:
 261:../Common/IQMath/ti/_IQNsin_cos.c ****             }
 1951              		.loc 1 261 28 view .LVU798
 1952 002a F2E7     		b	.L64
 1953              	.L74:
 268:../Common/IQMath/ti/_IQNsin_cos.c ****             uiq29Input -= iq29_pi;
 1954              		.loc 1 268 9 is_stmt 1 view .LVU799
 268:../Common/IQMath/ti/_IQNsin_cos.c ****             uiq29Input -= iq29_pi;
 1955              		.loc 1 268 12 is_stmt 0 view .LVU800
 1956 002c 404B     		ldr	r3, .L75
 1957              	.LVL247:
 268:../Common/IQMath/ti/_IQNsin_cos.c ****             uiq29Input -= iq29_pi;
 1958              		.loc 1 268 12 view .LVU801
 1959 002e 9842     		cmp	r0, r3
 1960 0030 07D9     		bls	.L66
 269:../Common/IQMath/ti/_IQNsin_cos.c ****             ui8Sign ^= 1;
 1961              		.loc 1 269 13 is_stmt 1 view .LVU802
 269:../Common/IQMath/ti/_IQNsin_cos.c ****             ui8Sign ^= 1;
 1962              		.loc 1 269 24 is_stmt 0 view .LVU803
 1963 0032 A0F1C940 		sub	r0, r0, #1686110208
 1964              	.LVL248:
 269:../Common/IQMath/ti/_IQNsin_cos.c ****             ui8Sign ^= 1;
ARM GAS  C:\Users\57308\AppData\Local\Temp\ccvDm0cb.s 			page 58


 1965              		.loc 1 269 24 view .LVU804
 1966 0036 A0F5FD20 		sub	r0, r0, #518144
 1967              	.LVL249:
 269:../Common/IQMath/ti/_IQNsin_cos.c ****             ui8Sign ^= 1;
 1968              		.loc 1 269 24 view .LVU805
 1969 003a A0F25150 		subw	r0, r0, #1361
 1970              	.LVL250:
 270:../Common/IQMath/ti/_IQNsin_cos.c ****         }
 1971              		.loc 1 270 13 is_stmt 1 view .LVU806
 270:../Common/IQMath/ti/_IQNsin_cos.c ****         }
 1972              		.loc 1 270 21 is_stmt 0 view .LVU807
 1973 003e 81F00101 		eor	r1, r1, #1
 1974              	.LVL251:
 1975              	.L66:
 274:../Common/IQMath/ti/_IQNsin_cos.c ****     }
 1976              		.loc 1 274 9 is_stmt 1 view .LVU808
 274:../Common/IQMath/ti/_IQNsin_cos.c ****     }
 1977              		.loc 1 274 20 is_stmt 0 view .LVU809
 1978 0042 4300     		lsls	r3, r0, #1
 1979              	.LVL252:
 274:../Common/IQMath/ti/_IQNsin_cos.c ****     }
 1980              		.loc 1 274 20 view .LVU810
 1981              	.LBE372:
 278:../Common/IQMath/ti/_IQNsin_cos.c ****         uiq30Input = iq30_pi - uiq30Input;
 1982              		.loc 1 278 5 is_stmt 1 view .LVU811
 278:../Common/IQMath/ti/_IQNsin_cos.c ****         uiq30Input = iq30_pi - uiq30Input;
 1983              		.loc 1 278 8 is_stmt 0 view .LVU812
 1984 0044 3A4A     		ldr	r2, .L75
 1985 0046 B2EB400F 		cmp	r2, r0, lsl #1
 1986 004a 05D2     		bcs	.L67
 279:../Common/IQMath/ti/_IQNsin_cos.c ****         
 1987              		.loc 1 279 9 is_stmt 1 view .LVU813
 279:../Common/IQMath/ti/_IQNsin_cos.c ****         
 1988              		.loc 1 279 20 is_stmt 0 view .LVU814
 1989 004c C3F14943 		rsb	r3, r3, #-922746880
 1990              	.LVL253:
 279:../Common/IQMath/ti/_IQNsin_cos.c ****         
 1991              		.loc 1 279 20 view .LVU815
 1992 0050 03F57D23 		add	r3, r3, #1036288
 1993 0054 03F6A223 		addw	r3, r3, #2722
 1994              	.LVL254:
 282:../Common/IQMath/ti/_IQNsin_cos.c ****             ui8Sign ^= 1;
 1995              		.loc 1 282 9 is_stmt 1 view .LVU816
 1996              	.L67:
 288:../Common/IQMath/ti/_IQNsin_cos.c ****     
 1997              		.loc 1 288 5 view .LVU817
 288:../Common/IQMath/ti/_IQNsin_cos.c ****     
 1998              		.loc 1 288 16 is_stmt 0 view .LVU818
 1999 0058 5A00     		lsls	r2, r3, #1
 2000              	.LVL255:
 291:../Common/IQMath/ti/_IQNsin_cos.c ****         /* If input is greater than pi/4 use sin for calculations */
 2001              		.loc 1 291 5 is_stmt 1 view .LVU819
 301:../Common/IQMath/ti/_IQNsin_cos.c ****         /* If input is greater than pi/4 use cos for calculations */
 2002              		.loc 1 301 10 view .LVU820
 303:../Common/IQMath/ti/_IQNsin_cos.c ****             uiq31Input = iq31_halfPi - uiq31Input;
 2003              		.loc 1 303 9 view .LVU821
 303:../Common/IQMath/ti/_IQNsin_cos.c ****             uiq31Input = iq31_halfPi - uiq31Input;
ARM GAS  C:\Users\57308\AppData\Local\Temp\ccvDm0cb.s 			page 59


 2004              		.loc 1 303 12 is_stmt 0 view .LVU822
 2005 005a 3648     		ldr	r0, .L75+4
 2006              	.LVL256:
 303:../Common/IQMath/ti/_IQNsin_cos.c ****             uiq31Input = iq31_halfPi - uiq31Input;
 2007              		.loc 1 303 12 view .LVU823
 2008 005c B0EB430F 		cmp	r0, r3, lsl #1
 2009 0060 33D2     		bcs	.L68
 304:../Common/IQMath/ti/_IQNsin_cos.c ****             uiq31Result = __IQNcalcCos(uiq31Input);
 2010              		.loc 1 304 13 is_stmt 1 view .LVU824
 304:../Common/IQMath/ti/_IQNsin_cos.c ****             uiq31Result = __IQNcalcCos(uiq31Input);
 2011              		.loc 1 304 24 is_stmt 0 view .LVU825
 2012 0062 354B     		ldr	r3, .L75+8
 2013              	.LVL257:
 304:../Common/IQMath/ti/_IQNsin_cos.c ****             uiq31Result = __IQNcalcCos(uiq31Input);
 2014              		.loc 1 304 24 view .LVU826
 2015 0064 9B1A     		subs	r3, r3, r2
 2016              	.LVL258:
 305:../Common/IQMath/ti/_IQNsin_cos.c ****         }
 2017              		.loc 1 305 13 is_stmt 1 view .LVU827
 2018              	.LBB373:
 2019              	.LBI373:
 139:../Common/IQMath/ti/_IQNsin_cos.c **** {
 2020              		.loc 1 139 30 view .LVU828
 2021              	.LBB374:
 141:../Common/IQMath/ti/_IQNsin_cos.c ****     int_fast32_t iq31X;
 2022              		.loc 1 141 2 view .LVU829
 142:../Common/IQMath/ti/_IQNsin_cos.c ****     int_fast32_t iq31Sin;
 2023              		.loc 1 142 5 view .LVU830
 143:../Common/IQMath/ti/_IQNsin_cos.c ****     int_fast32_t iq31Cos;
 2024              		.loc 1 143 5 view .LVU831
 144:../Common/IQMath/ti/_IQNsin_cos.c ****     int_fast32_t iq31Res;
 2025              		.loc 1 144 5 view .LVU832
 145:../Common/IQMath/ti/_IQNsin_cos.c ****     
 2026              		.loc 1 145 5 view .LVU833
 148:../Common/IQMath/ti/_IQNsin_cos.c ****     
 2027              		.loc 1 148 5 view .LVU834
 148:../Common/IQMath/ti/_IQNsin_cos.c ****     
 2028              		.loc 1 148 11 is_stmt 0 view .LVU835
 2029 0066 C3F34562 		ubfx	r2, r3, #25, #6
 2030              	.LVL259:
 151:../Common/IQMath/ti/_IQNsin_cos.c ****     iq31Cos = _IQ31CosLookup[index];
 2031              		.loc 1 151 5 is_stmt 1 view .LVU836
 151:../Common/IQMath/ti/_IQNsin_cos.c ****     iq31Cos = _IQ31CosLookup[index];
 2032              		.loc 1 151 13 is_stmt 0 view .LVU837
 2033 006a 3448     		ldr	r0, .L75+12
 2034 006c 50F82250 		ldr	r5, [r0, r2, lsl #2]
 2035              	.LVL260:
 152:../Common/IQMath/ti/_IQNsin_cos.c ****     
 2036              		.loc 1 152 5 is_stmt 1 view .LVU838
 152:../Common/IQMath/ti/_IQNsin_cos.c ****     
 2037              		.loc 1 152 13 is_stmt 0 view .LVU839
 2038 0070 3348     		ldr	r0, .L75+16
 2039 0072 50F82200 		ldr	r0, [r0, r2, lsl #2]
 2040              	.LVL261:
 159:../Common/IQMath/ti/_IQNsin_cos.c ****     
 2041              		.loc 1 159 5 is_stmt 1 view .LVU840
 159:../Common/IQMath/ti/_IQNsin_cos.c ****     
ARM GAS  C:\Users\57308\AppData\Local\Temp\ccvDm0cb.s 			page 60


 2042              		.loc 1 159 11 is_stmt 0 view .LVU841
 2043 0076 23F07E42 		bic	r2, r3, #-33554432
 2044              	.LVL262:
 162:../Common/IQMath/ti/_IQNsin_cos.c ****     iq31Res = __mpyf_l(iq31Sin, iq31Res);
 2045              		.loc 1 162 5 is_stmt 1 view .LVU842
 2046              	.LBB375:
 2047              	.LBI375:
 233:../Common/IQMath/ti/./support/RTS_support.h **** {
 2048              		.loc 2 233 28 view .LVU843
 2049              	.LBB376:
 2050              		.loc 2 235 5 view .LVU844
 2051              		.loc 2 235 47 is_stmt 0 view .LVU845
 2052 007a 324C     		ldr	r4, .L75+20
 2053 007c A2FB04C4 		umull	ip, r4, r2, r4
 2054              		.loc 2 235 69 view .LVU846
 2055 0080 4FEADC7C 		lsr	ip, ip, #31
 2056 0084 4CEA440C 		orr	ip, ip, r4, lsl #1
 2057              	.LVL263:
 2058              		.loc 2 235 69 view .LVU847
 2059              	.LBE376:
 2060              	.LBE375:
 163:../Common/IQMath/ti/_IQNsin_cos.c ****     
 2061              		.loc 1 163 5 is_stmt 1 view .LVU848
 2062              	.LBB377:
 2063              	.LBI377:
 233:../Common/IQMath/ti/./support/RTS_support.h **** {
 2064              		.loc 2 233 28 view .LVU849
 2065              	.LBB378:
 2066              		.loc 2 235 5 view .LVU850
 2067              		.loc 2 235 28 is_stmt 0 view .LVU851
 2068 0088 4FEAE57E 		asr	lr, r5, #31
 2069              		.loc 2 235 47 view .LVU852
 2070 008c A5FB0C43 		umull	r4, r3, r5, ip
 2071              	.LVL264:
 2072              		.loc 2 235 47 view .LVU853
 2073 0090 0CFB0E3C 		mla	ip, ip, lr, r3
 2074              	.LVL265:
 2075              		.loc 2 235 69 view .LVU854
 2076 0094 E40F     		lsrs	r4, r4, #31
 2077 0096 44EA4C04 		orr	r4, r4, ip, lsl #1
 2078              	.LVL266:
 2079              		.loc 2 235 69 view .LVU855
 2080              	.LBE378:
 2081              	.LBE377:
 166:../Common/IQMath/ti/_IQNsin_cos.c ****     
 2082              		.loc 1 166 5 is_stmt 1 view .LVU856
 166:../Common/IQMath/ti/_IQNsin_cos.c ****     
 2083              		.loc 1 166 13 is_stmt 0 view .LVU857
 2084 009a 241A     		subs	r4, r4, r0
 2085              	.LVL267:
 169:../Common/IQMath/ti/_IQNsin_cos.c ****     iq31Res = __mpyf_l(iq31X, iq31Res);
 2086              		.loc 1 169 5 is_stmt 1 view .LVU858
 169:../Common/IQMath/ti/_IQNsin_cos.c ****     iq31Res = __mpyf_l(iq31X, iq31Res);
 2087              		.loc 1 169 13 is_stmt 0 view .LVU859
 2088 009c 6310     		asrs	r3, r4, #1
 2089              	.LVL268:
 170:../Common/IQMath/ti/_IQNsin_cos.c ****     
ARM GAS  C:\Users\57308\AppData\Local\Temp\ccvDm0cb.s 			page 61


 2090              		.loc 1 170 5 is_stmt 1 view .LVU860
 2091              	.LBB379:
 2092              	.LBI379:
 233:../Common/IQMath/ti/./support/RTS_support.h **** {
 2093              		.loc 2 233 28 view .LVU861
 2094              	.LBB380:
 2095              		.loc 2 235 5 view .LVU862
 2096              		.loc 2 235 49 is_stmt 0 view .LVU863
 2097 009e E417     		asrs	r4, r4, #31
 2098              		.loc 2 235 47 view .LVU864
 2099 00a0 A2FB033C 		umull	r3, ip, r2, r3
 2100              	.LVL269:
 2101              		.loc 2 235 47 view .LVU865
 2102 00a4 02FB04C4 		mla	r4, r2, r4, ip
 2103              		.loc 2 235 69 view .LVU866
 2104 00a8 DB0F     		lsrs	r3, r3, #31
 2105 00aa 43EA4403 		orr	r3, r3, r4, lsl #1
 2106              	.LVL270:
 2107              		.loc 2 235 69 view .LVU867
 2108              	.LBE380:
 2109              	.LBE379:
 173:../Common/IQMath/ti/_IQNsin_cos.c ****     
 2110              		.loc 1 173 5 is_stmt 1 view .LVU868
 173:../Common/IQMath/ti/_IQNsin_cos.c ****     
 2111              		.loc 1 173 13 is_stmt 0 view .LVU869
 2112 00ae 5B1B     		subs	r3, r3, r5
 2113              	.LVL271:
 176:../Common/IQMath/ti/_IQNsin_cos.c ****     
 2114              		.loc 1 176 5 is_stmt 1 view .LVU870
 2115              	.LBB381:
 2116              	.LBI381:
 233:../Common/IQMath/ti/./support/RTS_support.h **** {
 2117              		.loc 2 233 28 view .LVU871
 2118              	.LBB382:
 2119              		.loc 2 235 5 view .LVU872
 2120              		.loc 2 235 49 is_stmt 0 view .LVU873
 2121 00b0 DD17     		asrs	r5, r3, #31
 2122              	.LVL272:
 2123              		.loc 2 235 47 view .LVU874
 2124 00b2 A2FB0334 		umull	r3, r4, r2, r3
 2125              	.LVL273:
 2126              		.loc 2 235 47 view .LVU875
 2127 00b6 02FB0542 		mla	r2, r2, r5, r4
 2128              	.LVL274:
 2129              		.loc 2 235 69 view .LVU876
 2130 00ba DB0F     		lsrs	r3, r3, #31
 2131 00bc 43EA4203 		orr	r3, r3, r2, lsl #1
 2132              	.LVL275:
 2133              		.loc 2 235 69 view .LVU877
 2134              	.LBE382:
 2135              	.LBE381:
 179:../Common/IQMath/ti/_IQNsin_cos.c ****     
 2136              		.loc 1 179 5 is_stmt 1 view .LVU878
 179:../Common/IQMath/ti/_IQNsin_cos.c ****     
 2137              		.loc 1 179 13 is_stmt 0 view .LVU879
 2138 00c0 1844     		add	r0, r0, r3
 2139              	.LVL276:
ARM GAS  C:\Users\57308\AppData\Local\Temp\ccvDm0cb.s 			page 62


 181:../Common/IQMath/ti/_IQNsin_cos.c **** }
 2140              		.loc 1 181 5 is_stmt 1 view .LVU880
 2141              	.L69:
 181:../Common/IQMath/ti/_IQNsin_cos.c **** }
 2142              		.loc 1 181 5 is_stmt 0 view .LVU881
 2143              	.LBE374:
 2144              	.LBE373:
 316:../Common/IQMath/ti/_IQNsin_cos.c ****     
 2145              		.loc 1 316 5 is_stmt 1 view .LVU882
 316:../Common/IQMath/ti/_IQNsin_cos.c ****     
 2146              		.loc 1 316 5 is_stmt 0 view .LVU883
 2147              	.LBE393:
 2148              	.LBE396:
  72:../Common/IQMath/ti/./support/RTS_support.h **** }
 2149              		.loc 2 72 5 is_stmt 1 view .LVU884
 2150              	.LBB397:
 2151              	.LBB394:
 319:../Common/IQMath/ti/_IQNsin_cos.c ****     
 2152              		.loc 1 319 5 view .LVU885
 319:../Common/IQMath/ti/_IQNsin_cos.c ****     
 2153              		.loc 1 319 17 is_stmt 0 view .LVU886
 2154 00c2 8009     		lsrs	r0, r0, #6
 2155              	.LVL277:
 322:../Common/IQMath/ti/_IQNsin_cos.c ****         uiq31Result = -uiq31Result;
 2156              		.loc 1 322 5 is_stmt 1 view .LVU887
 322:../Common/IQMath/ti/_IQNsin_cos.c ****         uiq31Result = -uiq31Result;
 2157              		.loc 1 322 8 is_stmt 0 view .LVU888
 2158 00c4 01B1     		cbz	r1, .L70
 323:../Common/IQMath/ti/_IQNsin_cos.c ****     }
 2159              		.loc 1 323 9 is_stmt 1 view .LVU889
 323:../Common/IQMath/ti/_IQNsin_cos.c ****     }
 2160              		.loc 1 323 21 is_stmt 0 view .LVU890
 2161 00c6 4042     		rsbs	r0, r0, #0
 2162              	.LVL278:
 2163              	.L70:
 326:../Common/IQMath/ti/_IQNsin_cos.c **** }
 2164              		.loc 1 326 5 is_stmt 1 view .LVU891
 326:../Common/IQMath/ti/_IQNsin_cos.c **** }
 2165              		.loc 1 326 5 is_stmt 0 view .LVU892
 2166              	.LBE394:
 2167              	.LBE397:
 448:../Common/IQMath/ti/_IQNsin_cos.c **** }
 2168              		.loc 1 448 1 view .LVU893
 2169 00c8 30BD     		pop	{r4, r5, pc}
 2170              	.LVL279:
 2171              	.L68:
 2172              	.LBB398:
 2173              	.LBB395:
 308:../Common/IQMath/ti/_IQNsin_cos.c ****         }
 2174              		.loc 1 308 13 is_stmt 1 view .LVU894
 2175              	.LBB383:
 2176              	.LBI383:
  83:../Common/IQMath/ti/_IQNsin_cos.c **** {
 2177              		.loc 1 83 30 view .LVU895
 2178              	.LBB384:
  85:../Common/IQMath/ti/_IQNsin_cos.c ****     int_fast32_t iq31X;
 2179              		.loc 1 85 2 view .LVU896
ARM GAS  C:\Users\57308\AppData\Local\Temp\ccvDm0cb.s 			page 63


  86:../Common/IQMath/ti/_IQNsin_cos.c ****     int_fast32_t iq31Sin;
 2180              		.loc 1 86 5 view .LVU897
  87:../Common/IQMath/ti/_IQNsin_cos.c ****     int_fast32_t iq31Cos;
 2181              		.loc 1 87 5 view .LVU898
  88:../Common/IQMath/ti/_IQNsin_cos.c ****     int_fast32_t iq31Res;
 2182              		.loc 1 88 5 view .LVU899
  89:../Common/IQMath/ti/_IQNsin_cos.c ****     
 2183              		.loc 1 89 5 view .LVU900
  92:../Common/IQMath/ti/_IQNsin_cos.c ****     
 2184              		.loc 1 92 5 view .LVU901
  92:../Common/IQMath/ti/_IQNsin_cos.c ****     
 2185              		.loc 1 92 11 is_stmt 0 view .LVU902
 2186 00ca C2F34563 		ubfx	r3, r2, #25, #6
 2187              	.LVL280:
  95:../Common/IQMath/ti/_IQNsin_cos.c ****     iq31Cos = _IQ31CosLookup[index];
 2188              		.loc 1 95 5 is_stmt 1 view .LVU903
  95:../Common/IQMath/ti/_IQNsin_cos.c ****     iq31Cos = _IQ31CosLookup[index];
 2189              		.loc 1 95 13 is_stmt 0 view .LVU904
 2190 00ce 1B48     		ldr	r0, .L75+12
 2191 00d0 50F82300 		ldr	r0, [r0, r3, lsl #2]
 2192              	.LVL281:
  96:../Common/IQMath/ti/_IQNsin_cos.c ****     
 2193              		.loc 1 96 5 is_stmt 1 view .LVU905
  96:../Common/IQMath/ti/_IQNsin_cos.c ****     
 2194              		.loc 1 96 13 is_stmt 0 view .LVU906
 2195 00d4 1A4C     		ldr	r4, .L75+16
 2196 00d6 54F82330 		ldr	r3, [r4, r3, lsl #2]
 2197              	.LVL282:
 103:../Common/IQMath/ti/_IQNsin_cos.c ****     
 2198              		.loc 1 103 5 is_stmt 1 view .LVU907
 103:../Common/IQMath/ti/_IQNsin_cos.c ****     
 2199              		.loc 1 103 11 is_stmt 0 view .LVU908
 2200 00da 22F07E42 		bic	r2, r2, #-33554432
 2201              	.LVL283:
 106:../Common/IQMath/ti/_IQNsin_cos.c ****     iq31Res = __mpyf_l(iq31Cos, iq31Res);
 2202              		.loc 1 106 5 is_stmt 1 view .LVU909
 2203              	.LBB385:
 2204              	.LBI385:
 233:../Common/IQMath/ti/./support/RTS_support.h **** {
 2205              		.loc 2 233 28 view .LVU910
 2206              	.LBB386:
 2207              		.loc 2 235 5 view .LVU911
 2208              		.loc 2 235 47 is_stmt 0 view .LVU912
 2209 00de 194C     		ldr	r4, .L75+20
 2210 00e0 A2FB04E4 		umull	lr, r4, r2, r4
 2211              		.loc 2 235 69 view .LVU913
 2212 00e4 4FEADE7E 		lsr	lr, lr, #31
 2213 00e8 4EEA440E 		orr	lr, lr, r4, lsl #1
 2214              	.LVL284:
 2215              		.loc 2 235 69 view .LVU914
 2216              	.LBE386:
 2217              	.LBE385:
 107:../Common/IQMath/ti/_IQNsin_cos.c ****     
 2218              		.loc 1 107 5 is_stmt 1 view .LVU915
 2219              	.LBB387:
 2220              	.LBI387:
 233:../Common/IQMath/ti/./support/RTS_support.h **** {
ARM GAS  C:\Users\57308\AppData\Local\Temp\ccvDm0cb.s 			page 64


 2221              		.loc 2 233 28 view .LVU916
 2222              	.LBB388:
 2223              		.loc 2 235 5 view .LVU917
 2224              		.loc 2 235 28 is_stmt 0 view .LVU918
 2225 00ec DD17     		asrs	r5, r3, #31
 2226              		.loc 2 235 47 view .LVU919
 2227 00ee A3FB0EC4 		umull	ip, r4, r3, lr
 2228 00f2 0EFB054E 		mla	lr, lr, r5, r4
 2229              	.LVL285:
 2230              		.loc 2 235 69 view .LVU920
 2231 00f6 4FEADC7C 		lsr	ip, ip, #31
 2232 00fa 4CEA4E0C 		orr	ip, ip, lr, lsl #1
 2233              	.LVL286:
 2234              		.loc 2 235 69 view .LVU921
 2235              	.LBE388:
 2236              	.LBE387:
 110:../Common/IQMath/ti/_IQNsin_cos.c ****     
 2237              		.loc 1 110 5 is_stmt 1 view .LVU922
 110:../Common/IQMath/ti/_IQNsin_cos.c ****     
 2238              		.loc 1 110 25 is_stmt 0 view .LVU923
 2239 00fe 8444     		add	ip, ip, r0
 2240              	.LVL287:
 110:../Common/IQMath/ti/_IQNsin_cos.c ****     
 2241              		.loc 1 110 13 view .LVU924
 2242 0100 CCF1000C 		rsb	ip, ip, #0
 2243              	.LVL288:
 113:../Common/IQMath/ti/_IQNsin_cos.c ****     iq31Res = __mpyf_l(iq31X, iq31Res);
 2244              		.loc 1 113 5 is_stmt 1 view .LVU925
 113:../Common/IQMath/ti/_IQNsin_cos.c ****     iq31Res = __mpyf_l(iq31X, iq31Res);
 2245              		.loc 1 113 13 is_stmt 0 view .LVU926
 2246 0104 4FEA6C04 		asr	r4, ip, #1
 2247              	.LVL289:
 114:../Common/IQMath/ti/_IQNsin_cos.c ****     
 2248              		.loc 1 114 5 is_stmt 1 view .LVU927
 2249              	.LBB389:
 2250              	.LBI389:
 233:../Common/IQMath/ti/./support/RTS_support.h **** {
 2251              		.loc 2 233 28 view .LVU928
 2252              	.LBB390:
 2253              		.loc 2 235 5 view .LVU929
 2254              		.loc 2 235 49 is_stmt 0 view .LVU930
 2255 0108 4FEAEC7C 		asr	ip, ip, #31
 2256              		.loc 2 235 47 view .LVU931
 2257 010c A2FB0445 		umull	r4, r5, r2, r4
 2258              	.LVL290:
 2259              		.loc 2 235 47 view .LVU932
 2260 0110 02FB0C5C 		mla	ip, r2, ip, r5
 2261              		.loc 2 235 69 view .LVU933
 2262 0114 E40F     		lsrs	r4, r4, #31
 2263 0116 44EA4C04 		orr	r4, r4, ip, lsl #1
 2264              	.LVL291:
 2265              		.loc 2 235 69 view .LVU934
 2266              	.LBE390:
 2267              	.LBE389:
 117:../Common/IQMath/ti/_IQNsin_cos.c ****     
 2268              		.loc 1 117 5 is_stmt 1 view .LVU935
 117:../Common/IQMath/ti/_IQNsin_cos.c ****     
ARM GAS  C:\Users\57308\AppData\Local\Temp\ccvDm0cb.s 			page 65


 2269              		.loc 1 117 13 is_stmt 0 view .LVU936
 2270 011a 2344     		add	r3, r3, r4
 2271              	.LVL292:
 120:../Common/IQMath/ti/_IQNsin_cos.c ****     
 2272              		.loc 1 120 5 is_stmt 1 view .LVU937
 2273              	.LBB391:
 2274              	.LBI391:
 233:../Common/IQMath/ti/./support/RTS_support.h **** {
 2275              		.loc 2 233 28 view .LVU938
 2276              	.LBB392:
 2277              		.loc 2 235 5 view .LVU939
 2278              		.loc 2 235 49 is_stmt 0 view .LVU940
 2279 011c DD17     		asrs	r5, r3, #31
 2280              		.loc 2 235 47 view .LVU941
 2281 011e A2FB0334 		umull	r3, r4, r2, r3
 2282              	.LVL293:
 2283              		.loc 2 235 47 view .LVU942
 2284 0122 02FB0542 		mla	r2, r2, r5, r4
 2285              	.LVL294:
 2286              		.loc 2 235 69 view .LVU943
 2287 0126 DB0F     		lsrs	r3, r3, #31
 2288 0128 43EA4203 		orr	r3, r3, r2, lsl #1
 2289              	.LVL295:
 2290              		.loc 2 235 69 view .LVU944
 2291              	.LBE392:
 2292              	.LBE391:
 123:../Common/IQMath/ti/_IQNsin_cos.c ****     
 2293              		.loc 1 123 5 is_stmt 1 view .LVU945
 123:../Common/IQMath/ti/_IQNsin_cos.c ****     
 2294              		.loc 1 123 13 is_stmt 0 view .LVU946
 2295 012c 1844     		add	r0, r0, r3
 2296              	.LVL296:
 125:../Common/IQMath/ti/_IQNsin_cos.c **** }
 2297              		.loc 1 125 5 is_stmt 1 view .LVU947
 125:../Common/IQMath/ti/_IQNsin_cos.c **** }
 2298              		.loc 1 125 5 is_stmt 0 view .LVU948
 2299 012e C8E7     		b	.L69
 2300              	.L76:
 2301              		.align	2
 2302              	.L75:
 2303 0130 50ED8764 		.word	1686629712
 2304 0134 51ED8764 		.word	1686629713
 2305 0138 A2DA0FC9 		.word	-921707870
 2306 013c 00000000 		.word	_IQ31SinLookup
 2307 0140 00000000 		.word	_IQ31CosLookup
 2308 0144 ABAAAA2A 		.word	715827883
 2309              	.LBE384:
 2310              	.LBE383:
 2311              	.LBE395:
 2312              	.LBE398:
 2313              		.cfi_endproc
 2314              	.LFE268:
 2316              		.section	.text._IQ24sin,"ax",%progbits
 2317              		.align	1
 2318              		.global	_IQ24sin
 2319              		.syntax unified
 2320              		.thumb
ARM GAS  C:\Users\57308\AppData\Local\Temp\ccvDm0cb.s 			page 66


 2321              		.thumb_func
 2323              	_IQ24sin:
 2324              	.LVL297:
 2325              	.LFB269:
 449:../Common/IQMath/ti/_IQNsin_cos.c **** /**
 450:../Common/IQMath/ti/_IQNsin_cos.c ****  * @brief Computes the sine of an IQ24 input.
 451:../Common/IQMath/ti/_IQNsin_cos.c ****  *
 452:../Common/IQMath/ti/_IQNsin_cos.c ****  * @param a               IQ24 type input.
 453:../Common/IQMath/ti/_IQNsin_cos.c ****  *
 454:../Common/IQMath/ti/_IQNsin_cos.c ****  * @return                IQ24 type result of sine operation, in radians.
 455:../Common/IQMath/ti/_IQNsin_cos.c ****  */
 456:../Common/IQMath/ti/_IQNsin_cos.c **** int32_t _IQ24sin(int32_t a)
 457:../Common/IQMath/ti/_IQNsin_cos.c **** {
 2326              		.loc 1 457 1 is_stmt 1 view -0
 2327              		.cfi_startproc
 2328              		@ args = 0, pretend = 0, frame = 0
 2329              		@ frame_needed = 0, uses_anonymous_args = 0
 2330              		.loc 1 457 1 is_stmt 0 view .LVU950
 2331 0000 30B5     		push	{r4, r5, lr}
 2332              	.LCFI5:
 2333              		.cfi_def_cfa_offset 12
 2334              		.cfi_offset 4, -12
 2335              		.cfi_offset 5, -8
 2336              		.cfi_offset 14, -4
 458:../Common/IQMath/ti/_IQNsin_cos.c ****     return __IQNsin_cos(a, 24, TYPE_SIN, TYPE_RAD);
 2337              		.loc 1 458 5 is_stmt 1 view .LVU951
 2338              	.LVL298:
 2339              	.LBB444:
 2340              	.LBI444:
 199:../Common/IQMath/ti/_IQNsin_cos.c ****                                    const int8_t type, const int8_t format)
 2341              		.loc 1 199 30 view .LVU952
 2342              	.LBB445:
 202:../Common/IQMath/ti/_IQNsin_cos.c ****     uint_fast16_t ui16IntState;
 2343              		.loc 1 202 5 view .LVU953
 203:../Common/IQMath/ti/_IQNsin_cos.c ****     uint_fast16_t ui16MPYState;
 2344              		.loc 1 203 5 view .LVU954
 204:../Common/IQMath/ti/_IQNsin_cos.c ****     uint_fast32_t uiq29Input;
 2345              		.loc 1 204 5 view .LVU955
 205:../Common/IQMath/ti/_IQNsin_cos.c ****     uint_fast32_t uiq30Input;
 2346              		.loc 1 205 5 view .LVU956
 206:../Common/IQMath/ti/_IQNsin_cos.c ****     uint_fast32_t uiq31Input;
 2347              		.loc 1 206 5 view .LVU957
 207:../Common/IQMath/ti/_IQNsin_cos.c ****     uint_fast32_t uiq32Input;
 2348              		.loc 1 207 5 view .LVU958
 208:../Common/IQMath/ti/_IQNsin_cos.c ****     uint_fast32_t uiq31Result;
 2349              		.loc 1 208 5 view .LVU959
 209:../Common/IQMath/ti/_IQNsin_cos.c ****     
 2350              		.loc 1 209 5 view .LVU960
 212:../Common/IQMath/ti/_IQNsin_cos.c ****         iqNInput = -iqNInput;
 2351              		.loc 1 212 5 view .LVU961
 212:../Common/IQMath/ti/_IQNsin_cos.c ****         iqNInput = -iqNInput;
 2352              		.loc 1 212 8 is_stmt 0 view .LVU962
 2353 0002 0028     		cmp	r0, #0
 212:../Common/IQMath/ti/_IQNsin_cos.c ****         iqNInput = -iqNInput;
 2354              		.loc 1 212 8 view .LVU963
 2355 0004 02DB     		blt	.L89
 202:../Common/IQMath/ti/_IQNsin_cos.c ****     uint_fast16_t ui16IntState;
ARM GAS  C:\Users\57308\AppData\Local\Temp\ccvDm0cb.s 			page 67


 2356              		.loc 1 202 13 view .LVU964
 2357 0006 0021     		movs	r1, #0
 2358              	.LVL299:
 2359              	.L78:
 227:../Common/IQMath/ti/_IQNsin_cos.c ****     
 2360              		.loc 1 227 5 is_stmt 1 view .LVU965
 227:../Common/IQMath/ti/_IQNsin_cos.c ****     
 2361              		.loc 1 227 5 is_stmt 0 view .LVU966
 2362              	.LBE445:
 2363              	.LBE444:
  28:../Common/IQMath/ti/./support/RTS_support.h **** }
 2364              		.loc 2 28 5 is_stmt 1 view .LVU967
 2365              	.LBB471:
 2366              	.LBB468:
 230:../Common/IQMath/ti/_IQNsin_cos.c ****         /* 
 2367              		.loc 1 230 5 view .LVU968
 2368              	.LBB446:
 253:../Common/IQMath/ti/_IQNsin_cos.c ****         
 2369              		.loc 1 253 9 view .LVU969
 256:../Common/IQMath/ti/_IQNsin_cos.c ****         
 2370              		.loc 1 256 9 view .LVU970
 259:../Common/IQMath/ti/_IQNsin_cos.c ****             if (uiq29Input >= iq29_pi) {
 2371              		.loc 1 259 9 view .LVU971
 253:../Common/IQMath/ti/_IQNsin_cos.c ****         
 2372              		.loc 1 253 22 is_stmt 0 view .LVU972
 2373 0008 0523     		movs	r3, #5
 259:../Common/IQMath/ti/_IQNsin_cos.c ****             if (uiq29Input >= iq29_pi) {
 2374              		.loc 1 259 15 view .LVU973
 2375 000a 04E0     		b	.L79
 2376              	.LVL300:
 2377              	.L89:
 259:../Common/IQMath/ti/_IQNsin_cos.c ****             if (uiq29Input >= iq29_pi) {
 2378              		.loc 1 259 15 view .LVU974
 2379              	.LBE446:
 213:../Common/IQMath/ti/_IQNsin_cos.c ****         
 2380              		.loc 1 213 9 is_stmt 1 view .LVU975
 213:../Common/IQMath/ti/_IQNsin_cos.c ****         
 2381              		.loc 1 213 18 is_stmt 0 view .LVU976
 2382 000c 4042     		rsbs	r0, r0, #0
 2383              	.LVL301:
 216:../Common/IQMath/ti/_IQNsin_cos.c ****             ui8Sign = 1;
 2384              		.loc 1 216 9 is_stmt 1 view .LVU977
 217:../Common/IQMath/ti/_IQNsin_cos.c ****         }
 2385              		.loc 1 217 13 view .LVU978
 217:../Common/IQMath/ti/_IQNsin_cos.c ****         }
 2386              		.loc 1 217 21 is_stmt 0 view .LVU979
 2387 000e 0121     		movs	r1, #1
 2388 0010 FAE7     		b	.L78
 2389              	.LVL302:
 2390              	.L80:
 2391              	.LBB447:
 263:../Common/IQMath/ti/_IQNsin_cos.c ****             exp--;
 2392              		.loc 1 263 13 is_stmt 1 view .LVU980
 263:../Common/IQMath/ti/_IQNsin_cos.c ****             exp--;
 2393              		.loc 1 263 24 is_stmt 0 view .LVU981
 2394 0012 4000     		lsls	r0, r0, #1
 2395              	.LVL303:
ARM GAS  C:\Users\57308\AppData\Local\Temp\ccvDm0cb.s 			page 68


 264:../Common/IQMath/ti/_IQNsin_cos.c ****         }
 2396              		.loc 1 264 13 is_stmt 1 view .LVU982
 264:../Common/IQMath/ti/_IQNsin_cos.c ****         }
 2397              		.loc 1 264 16 is_stmt 0 view .LVU983
 2398 0014 013B     		subs	r3, r3, #1
 2399              	.LVL304:
 2400              	.L79:
 259:../Common/IQMath/ti/_IQNsin_cos.c ****             if (uiq29Input >= iq29_pi) {
 2401              		.loc 1 259 15 is_stmt 1 view .LVU984
 2402 0016 4BB1     		cbz	r3, .L90
 260:../Common/IQMath/ti/_IQNsin_cos.c ****                 uiq29Input -= iq29_pi;
 2403              		.loc 1 260 13 view .LVU985
 260:../Common/IQMath/ti/_IQNsin_cos.c ****                 uiq29Input -= iq29_pi;
 2404              		.loc 1 260 16 is_stmt 0 view .LVU986
 2405 0018 454A     		ldr	r2, .L91
 2406 001a 9042     		cmp	r0, r2
 2407 001c F9D9     		bls	.L80
 261:../Common/IQMath/ti/_IQNsin_cos.c ****             }
 2408              		.loc 1 261 17 is_stmt 1 view .LVU987
 261:../Common/IQMath/ti/_IQNsin_cos.c ****             }
 2409              		.loc 1 261 28 is_stmt 0 view .LVU988
 2410 001e A0F1C940 		sub	r0, r0, #1686110208
 2411              	.LVL305:
 261:../Common/IQMath/ti/_IQNsin_cos.c ****             }
 2412              		.loc 1 261 28 view .LVU989
 2413 0022 A0F5FD20 		sub	r0, r0, #518144
 2414              	.LVL306:
 261:../Common/IQMath/ti/_IQNsin_cos.c ****             }
 2415              		.loc 1 261 28 view .LVU990
 2416 0026 A0F25150 		subw	r0, r0, #1361
 2417              	.LVL307:
 261:../Common/IQMath/ti/_IQNsin_cos.c ****             }
 2418              		.loc 1 261 28 view .LVU991
 2419 002a F2E7     		b	.L80
 2420              	.L90:
 268:../Common/IQMath/ti/_IQNsin_cos.c ****             uiq29Input -= iq29_pi;
 2421              		.loc 1 268 9 is_stmt 1 view .LVU992
 268:../Common/IQMath/ti/_IQNsin_cos.c ****             uiq29Input -= iq29_pi;
 2422              		.loc 1 268 12 is_stmt 0 view .LVU993
 2423 002c 404B     		ldr	r3, .L91
 2424              	.LVL308:
 268:../Common/IQMath/ti/_IQNsin_cos.c ****             uiq29Input -= iq29_pi;
 2425              		.loc 1 268 12 view .LVU994
 2426 002e 9842     		cmp	r0, r3
 2427 0030 07D9     		bls	.L82
 269:../Common/IQMath/ti/_IQNsin_cos.c ****             ui8Sign ^= 1;
 2428              		.loc 1 269 13 is_stmt 1 view .LVU995
 269:../Common/IQMath/ti/_IQNsin_cos.c ****             ui8Sign ^= 1;
 2429              		.loc 1 269 24 is_stmt 0 view .LVU996
 2430 0032 A0F1C940 		sub	r0, r0, #1686110208
 2431              	.LVL309:
 269:../Common/IQMath/ti/_IQNsin_cos.c ****             ui8Sign ^= 1;
 2432              		.loc 1 269 24 view .LVU997
 2433 0036 A0F5FD20 		sub	r0, r0, #518144
 2434              	.LVL310:
 269:../Common/IQMath/ti/_IQNsin_cos.c ****             ui8Sign ^= 1;
 2435              		.loc 1 269 24 view .LVU998
ARM GAS  C:\Users\57308\AppData\Local\Temp\ccvDm0cb.s 			page 69


 2436 003a A0F25150 		subw	r0, r0, #1361
 2437              	.LVL311:
 270:../Common/IQMath/ti/_IQNsin_cos.c ****         }
 2438              		.loc 1 270 13 is_stmt 1 view .LVU999
 270:../Common/IQMath/ti/_IQNsin_cos.c ****         }
 2439              		.loc 1 270 21 is_stmt 0 view .LVU1000
 2440 003e 81F00101 		eor	r1, r1, #1
 2441              	.LVL312:
 2442              	.L82:
 274:../Common/IQMath/ti/_IQNsin_cos.c ****     }
 2443              		.loc 1 274 9 is_stmt 1 view .LVU1001
 274:../Common/IQMath/ti/_IQNsin_cos.c ****     }
 2444              		.loc 1 274 20 is_stmt 0 view .LVU1002
 2445 0042 4300     		lsls	r3, r0, #1
 2446              	.LVL313:
 274:../Common/IQMath/ti/_IQNsin_cos.c ****     }
 2447              		.loc 1 274 20 view .LVU1003
 2448              	.LBE447:
 278:../Common/IQMath/ti/_IQNsin_cos.c ****         uiq30Input = iq30_pi - uiq30Input;
 2449              		.loc 1 278 5 is_stmt 1 view .LVU1004
 278:../Common/IQMath/ti/_IQNsin_cos.c ****         uiq30Input = iq30_pi - uiq30Input;
 2450              		.loc 1 278 8 is_stmt 0 view .LVU1005
 2451 0044 3A4A     		ldr	r2, .L91
 2452 0046 B2EB400F 		cmp	r2, r0, lsl #1
 2453 004a 05D2     		bcs	.L83
 279:../Common/IQMath/ti/_IQNsin_cos.c ****         
 2454              		.loc 1 279 9 is_stmt 1 view .LVU1006
 279:../Common/IQMath/ti/_IQNsin_cos.c ****         
 2455              		.loc 1 279 20 is_stmt 0 view .LVU1007
 2456 004c C3F14943 		rsb	r3, r3, #-922746880
 2457              	.LVL314:
 279:../Common/IQMath/ti/_IQNsin_cos.c ****         
 2458              		.loc 1 279 20 view .LVU1008
 2459 0050 03F57D23 		add	r3, r3, #1036288
 2460 0054 03F6A223 		addw	r3, r3, #2722
 2461              	.LVL315:
 282:../Common/IQMath/ti/_IQNsin_cos.c ****             ui8Sign ^= 1;
 2462              		.loc 1 282 9 is_stmt 1 view .LVU1009
 2463              	.L83:
 288:../Common/IQMath/ti/_IQNsin_cos.c ****     
 2464              		.loc 1 288 5 view .LVU1010
 288:../Common/IQMath/ti/_IQNsin_cos.c ****     
 2465              		.loc 1 288 16 is_stmt 0 view .LVU1011
 2466 0058 5A00     		lsls	r2, r3, #1
 2467              	.LVL316:
 291:../Common/IQMath/ti/_IQNsin_cos.c ****         /* If input is greater than pi/4 use sin for calculations */
 2468              		.loc 1 291 5 is_stmt 1 view .LVU1012
 301:../Common/IQMath/ti/_IQNsin_cos.c ****         /* If input is greater than pi/4 use cos for calculations */
 2469              		.loc 1 301 10 view .LVU1013
 303:../Common/IQMath/ti/_IQNsin_cos.c ****             uiq31Input = iq31_halfPi - uiq31Input;
 2470              		.loc 1 303 9 view .LVU1014
 303:../Common/IQMath/ti/_IQNsin_cos.c ****             uiq31Input = iq31_halfPi - uiq31Input;
 2471              		.loc 1 303 12 is_stmt 0 view .LVU1015
 2472 005a 3648     		ldr	r0, .L91+4
 2473              	.LVL317:
 303:../Common/IQMath/ti/_IQNsin_cos.c ****             uiq31Input = iq31_halfPi - uiq31Input;
 2474              		.loc 1 303 12 view .LVU1016
ARM GAS  C:\Users\57308\AppData\Local\Temp\ccvDm0cb.s 			page 70


 2475 005c B0EB430F 		cmp	r0, r3, lsl #1
 2476 0060 33D2     		bcs	.L84
 304:../Common/IQMath/ti/_IQNsin_cos.c ****             uiq31Result = __IQNcalcCos(uiq31Input);
 2477              		.loc 1 304 13 is_stmt 1 view .LVU1017
 304:../Common/IQMath/ti/_IQNsin_cos.c ****             uiq31Result = __IQNcalcCos(uiq31Input);
 2478              		.loc 1 304 24 is_stmt 0 view .LVU1018
 2479 0062 354B     		ldr	r3, .L91+8
 2480              	.LVL318:
 304:../Common/IQMath/ti/_IQNsin_cos.c ****             uiq31Result = __IQNcalcCos(uiq31Input);
 2481              		.loc 1 304 24 view .LVU1019
 2482 0064 9B1A     		subs	r3, r3, r2
 2483              	.LVL319:
 305:../Common/IQMath/ti/_IQNsin_cos.c ****         }
 2484              		.loc 1 305 13 is_stmt 1 view .LVU1020
 2485              	.LBB448:
 2486              	.LBI448:
 139:../Common/IQMath/ti/_IQNsin_cos.c **** {
 2487              		.loc 1 139 30 view .LVU1021
 2488              	.LBB449:
 141:../Common/IQMath/ti/_IQNsin_cos.c ****     int_fast32_t iq31X;
 2489              		.loc 1 141 2 view .LVU1022
 142:../Common/IQMath/ti/_IQNsin_cos.c ****     int_fast32_t iq31Sin;
 2490              		.loc 1 142 5 view .LVU1023
 143:../Common/IQMath/ti/_IQNsin_cos.c ****     int_fast32_t iq31Cos;
 2491              		.loc 1 143 5 view .LVU1024
 144:../Common/IQMath/ti/_IQNsin_cos.c ****     int_fast32_t iq31Res;
 2492              		.loc 1 144 5 view .LVU1025
 145:../Common/IQMath/ti/_IQNsin_cos.c ****     
 2493              		.loc 1 145 5 view .LVU1026
 148:../Common/IQMath/ti/_IQNsin_cos.c ****     
 2494              		.loc 1 148 5 view .LVU1027
 148:../Common/IQMath/ti/_IQNsin_cos.c ****     
 2495              		.loc 1 148 11 is_stmt 0 view .LVU1028
 2496 0066 C3F34562 		ubfx	r2, r3, #25, #6
 2497              	.LVL320:
 151:../Common/IQMath/ti/_IQNsin_cos.c ****     iq31Cos = _IQ31CosLookup[index];
 2498              		.loc 1 151 5 is_stmt 1 view .LVU1029
 151:../Common/IQMath/ti/_IQNsin_cos.c ****     iq31Cos = _IQ31CosLookup[index];
 2499              		.loc 1 151 13 is_stmt 0 view .LVU1030
 2500 006a 3448     		ldr	r0, .L91+12
 2501 006c 50F82250 		ldr	r5, [r0, r2, lsl #2]
 2502              	.LVL321:
 152:../Common/IQMath/ti/_IQNsin_cos.c ****     
 2503              		.loc 1 152 5 is_stmt 1 view .LVU1031
 152:../Common/IQMath/ti/_IQNsin_cos.c ****     
 2504              		.loc 1 152 13 is_stmt 0 view .LVU1032
 2505 0070 3348     		ldr	r0, .L91+16
 2506 0072 50F82200 		ldr	r0, [r0, r2, lsl #2]
 2507              	.LVL322:
 159:../Common/IQMath/ti/_IQNsin_cos.c ****     
 2508              		.loc 1 159 5 is_stmt 1 view .LVU1033
 159:../Common/IQMath/ti/_IQNsin_cos.c ****     
 2509              		.loc 1 159 11 is_stmt 0 view .LVU1034
 2510 0076 23F07E42 		bic	r2, r3, #-33554432
 2511              	.LVL323:
 162:../Common/IQMath/ti/_IQNsin_cos.c ****     iq31Res = __mpyf_l(iq31Sin, iq31Res);
 2512              		.loc 1 162 5 is_stmt 1 view .LVU1035
ARM GAS  C:\Users\57308\AppData\Local\Temp\ccvDm0cb.s 			page 71


 2513              	.LBB450:
 2514              	.LBI450:
 233:../Common/IQMath/ti/./support/RTS_support.h **** {
 2515              		.loc 2 233 28 view .LVU1036
 2516              	.LBB451:
 2517              		.loc 2 235 5 view .LVU1037
 2518              		.loc 2 235 47 is_stmt 0 view .LVU1038
 2519 007a 324C     		ldr	r4, .L91+20
 2520 007c A2FB04C4 		umull	ip, r4, r2, r4
 2521              		.loc 2 235 69 view .LVU1039
 2522 0080 4FEADC7C 		lsr	ip, ip, #31
 2523 0084 4CEA440C 		orr	ip, ip, r4, lsl #1
 2524              	.LVL324:
 2525              		.loc 2 235 69 view .LVU1040
 2526              	.LBE451:
 2527              	.LBE450:
 163:../Common/IQMath/ti/_IQNsin_cos.c ****     
 2528              		.loc 1 163 5 is_stmt 1 view .LVU1041
 2529              	.LBB452:
 2530              	.LBI452:
 233:../Common/IQMath/ti/./support/RTS_support.h **** {
 2531              		.loc 2 233 28 view .LVU1042
 2532              	.LBB453:
 2533              		.loc 2 235 5 view .LVU1043
 2534              		.loc 2 235 28 is_stmt 0 view .LVU1044
 2535 0088 4FEAE57E 		asr	lr, r5, #31
 2536              		.loc 2 235 47 view .LVU1045
 2537 008c A5FB0C43 		umull	r4, r3, r5, ip
 2538              	.LVL325:
 2539              		.loc 2 235 47 view .LVU1046
 2540 0090 0CFB0E3C 		mla	ip, ip, lr, r3
 2541              	.LVL326:
 2542              		.loc 2 235 69 view .LVU1047
 2543 0094 E40F     		lsrs	r4, r4, #31
 2544 0096 44EA4C04 		orr	r4, r4, ip, lsl #1
 2545              	.LVL327:
 2546              		.loc 2 235 69 view .LVU1048
 2547              	.LBE453:
 2548              	.LBE452:
 166:../Common/IQMath/ti/_IQNsin_cos.c ****     
 2549              		.loc 1 166 5 is_stmt 1 view .LVU1049
 166:../Common/IQMath/ti/_IQNsin_cos.c ****     
 2550              		.loc 1 166 13 is_stmt 0 view .LVU1050
 2551 009a 241A     		subs	r4, r4, r0
 2552              	.LVL328:
 169:../Common/IQMath/ti/_IQNsin_cos.c ****     iq31Res = __mpyf_l(iq31X, iq31Res);
 2553              		.loc 1 169 5 is_stmt 1 view .LVU1051
 169:../Common/IQMath/ti/_IQNsin_cos.c ****     iq31Res = __mpyf_l(iq31X, iq31Res);
 2554              		.loc 1 169 13 is_stmt 0 view .LVU1052
 2555 009c 6310     		asrs	r3, r4, #1
 2556              	.LVL329:
 170:../Common/IQMath/ti/_IQNsin_cos.c ****     
 2557              		.loc 1 170 5 is_stmt 1 view .LVU1053
 2558              	.LBB454:
 2559              	.LBI454:
 233:../Common/IQMath/ti/./support/RTS_support.h **** {
 2560              		.loc 2 233 28 view .LVU1054
ARM GAS  C:\Users\57308\AppData\Local\Temp\ccvDm0cb.s 			page 72


 2561              	.LBB455:
 2562              		.loc 2 235 5 view .LVU1055
 2563              		.loc 2 235 49 is_stmt 0 view .LVU1056
 2564 009e E417     		asrs	r4, r4, #31
 2565              		.loc 2 235 47 view .LVU1057
 2566 00a0 A2FB033C 		umull	r3, ip, r2, r3
 2567              	.LVL330:
 2568              		.loc 2 235 47 view .LVU1058
 2569 00a4 02FB04C4 		mla	r4, r2, r4, ip
 2570              		.loc 2 235 69 view .LVU1059
 2571 00a8 DB0F     		lsrs	r3, r3, #31
 2572 00aa 43EA4403 		orr	r3, r3, r4, lsl #1
 2573              	.LVL331:
 2574              		.loc 2 235 69 view .LVU1060
 2575              	.LBE455:
 2576              	.LBE454:
 173:../Common/IQMath/ti/_IQNsin_cos.c ****     
 2577              		.loc 1 173 5 is_stmt 1 view .LVU1061
 173:../Common/IQMath/ti/_IQNsin_cos.c ****     
 2578              		.loc 1 173 13 is_stmt 0 view .LVU1062
 2579 00ae 5B1B     		subs	r3, r3, r5
 2580              	.LVL332:
 176:../Common/IQMath/ti/_IQNsin_cos.c ****     
 2581              		.loc 1 176 5 is_stmt 1 view .LVU1063
 2582              	.LBB456:
 2583              	.LBI456:
 233:../Common/IQMath/ti/./support/RTS_support.h **** {
 2584              		.loc 2 233 28 view .LVU1064
 2585              	.LBB457:
 2586              		.loc 2 235 5 view .LVU1065
 2587              		.loc 2 235 49 is_stmt 0 view .LVU1066
 2588 00b0 DD17     		asrs	r5, r3, #31
 2589              	.LVL333:
 2590              		.loc 2 235 47 view .LVU1067
 2591 00b2 A2FB0334 		umull	r3, r4, r2, r3
 2592              	.LVL334:
 2593              		.loc 2 235 47 view .LVU1068
 2594 00b6 02FB0542 		mla	r2, r2, r5, r4
 2595              	.LVL335:
 2596              		.loc 2 235 69 view .LVU1069
 2597 00ba DB0F     		lsrs	r3, r3, #31
 2598 00bc 43EA4203 		orr	r3, r3, r2, lsl #1
 2599              	.LVL336:
 2600              		.loc 2 235 69 view .LVU1070
 2601              	.LBE457:
 2602              	.LBE456:
 179:../Common/IQMath/ti/_IQNsin_cos.c ****     
 2603              		.loc 1 179 5 is_stmt 1 view .LVU1071
 179:../Common/IQMath/ti/_IQNsin_cos.c ****     
 2604              		.loc 1 179 13 is_stmt 0 view .LVU1072
 2605 00c0 1844     		add	r0, r0, r3
 2606              	.LVL337:
 181:../Common/IQMath/ti/_IQNsin_cos.c **** }
 2607              		.loc 1 181 5 is_stmt 1 view .LVU1073
 2608              	.L85:
 181:../Common/IQMath/ti/_IQNsin_cos.c **** }
 2609              		.loc 1 181 5 is_stmt 0 view .LVU1074
ARM GAS  C:\Users\57308\AppData\Local\Temp\ccvDm0cb.s 			page 73


 2610              	.LBE449:
 2611              	.LBE448:
 316:../Common/IQMath/ti/_IQNsin_cos.c ****     
 2612              		.loc 1 316 5 is_stmt 1 view .LVU1075
 316:../Common/IQMath/ti/_IQNsin_cos.c ****     
 2613              		.loc 1 316 5 is_stmt 0 view .LVU1076
 2614              	.LBE468:
 2615              	.LBE471:
  72:../Common/IQMath/ti/./support/RTS_support.h **** }
 2616              		.loc 2 72 5 is_stmt 1 view .LVU1077
 2617              	.LBB472:
 2618              	.LBB469:
 319:../Common/IQMath/ti/_IQNsin_cos.c ****     
 2619              		.loc 1 319 5 view .LVU1078
 319:../Common/IQMath/ti/_IQNsin_cos.c ****     
 2620              		.loc 1 319 17 is_stmt 0 view .LVU1079
 2621 00c2 C009     		lsrs	r0, r0, #7
 2622              	.LVL338:
 322:../Common/IQMath/ti/_IQNsin_cos.c ****         uiq31Result = -uiq31Result;
 2623              		.loc 1 322 5 is_stmt 1 view .LVU1080
 322:../Common/IQMath/ti/_IQNsin_cos.c ****         uiq31Result = -uiq31Result;
 2624              		.loc 1 322 8 is_stmt 0 view .LVU1081
 2625 00c4 01B1     		cbz	r1, .L86
 323:../Common/IQMath/ti/_IQNsin_cos.c ****     }
 2626              		.loc 1 323 9 is_stmt 1 view .LVU1082
 323:../Common/IQMath/ti/_IQNsin_cos.c ****     }
 2627              		.loc 1 323 21 is_stmt 0 view .LVU1083
 2628 00c6 4042     		rsbs	r0, r0, #0
 2629              	.LVL339:
 2630              	.L86:
 326:../Common/IQMath/ti/_IQNsin_cos.c **** }
 2631              		.loc 1 326 5 is_stmt 1 view .LVU1084
 326:../Common/IQMath/ti/_IQNsin_cos.c **** }
 2632              		.loc 1 326 5 is_stmt 0 view .LVU1085
 2633              	.LBE469:
 2634              	.LBE472:
 459:../Common/IQMath/ti/_IQNsin_cos.c **** }
 2635              		.loc 1 459 1 view .LVU1086
 2636 00c8 30BD     		pop	{r4, r5, pc}
 2637              	.LVL340:
 2638              	.L84:
 2639              	.LBB473:
 2640              	.LBB470:
 308:../Common/IQMath/ti/_IQNsin_cos.c ****         }
 2641              		.loc 1 308 13 is_stmt 1 view .LVU1087
 2642              	.LBB458:
 2643              	.LBI458:
  83:../Common/IQMath/ti/_IQNsin_cos.c **** {
 2644              		.loc 1 83 30 view .LVU1088
 2645              	.LBB459:
  85:../Common/IQMath/ti/_IQNsin_cos.c ****     int_fast32_t iq31X;
 2646              		.loc 1 85 2 view .LVU1089
  86:../Common/IQMath/ti/_IQNsin_cos.c ****     int_fast32_t iq31Sin;
 2647              		.loc 1 86 5 view .LVU1090
  87:../Common/IQMath/ti/_IQNsin_cos.c ****     int_fast32_t iq31Cos;
 2648              		.loc 1 87 5 view .LVU1091
  88:../Common/IQMath/ti/_IQNsin_cos.c ****     int_fast32_t iq31Res;
ARM GAS  C:\Users\57308\AppData\Local\Temp\ccvDm0cb.s 			page 74


 2649              		.loc 1 88 5 view .LVU1092
  89:../Common/IQMath/ti/_IQNsin_cos.c ****     
 2650              		.loc 1 89 5 view .LVU1093
  92:../Common/IQMath/ti/_IQNsin_cos.c ****     
 2651              		.loc 1 92 5 view .LVU1094
  92:../Common/IQMath/ti/_IQNsin_cos.c ****     
 2652              		.loc 1 92 11 is_stmt 0 view .LVU1095
 2653 00ca C2F34563 		ubfx	r3, r2, #25, #6
 2654              	.LVL341:
  95:../Common/IQMath/ti/_IQNsin_cos.c ****     iq31Cos = _IQ31CosLookup[index];
 2655              		.loc 1 95 5 is_stmt 1 view .LVU1096
  95:../Common/IQMath/ti/_IQNsin_cos.c ****     iq31Cos = _IQ31CosLookup[index];
 2656              		.loc 1 95 13 is_stmt 0 view .LVU1097
 2657 00ce 1B48     		ldr	r0, .L91+12
 2658 00d0 50F82300 		ldr	r0, [r0, r3, lsl #2]
 2659              	.LVL342:
  96:../Common/IQMath/ti/_IQNsin_cos.c ****     
 2660              		.loc 1 96 5 is_stmt 1 view .LVU1098
  96:../Common/IQMath/ti/_IQNsin_cos.c ****     
 2661              		.loc 1 96 13 is_stmt 0 view .LVU1099
 2662 00d4 1A4C     		ldr	r4, .L91+16
 2663 00d6 54F82330 		ldr	r3, [r4, r3, lsl #2]
 2664              	.LVL343:
 103:../Common/IQMath/ti/_IQNsin_cos.c ****     
 2665              		.loc 1 103 5 is_stmt 1 view .LVU1100
 103:../Common/IQMath/ti/_IQNsin_cos.c ****     
 2666              		.loc 1 103 11 is_stmt 0 view .LVU1101
 2667 00da 22F07E42 		bic	r2, r2, #-33554432
 2668              	.LVL344:
 106:../Common/IQMath/ti/_IQNsin_cos.c ****     iq31Res = __mpyf_l(iq31Cos, iq31Res);
 2669              		.loc 1 106 5 is_stmt 1 view .LVU1102
 2670              	.LBB460:
 2671              	.LBI460:
 233:../Common/IQMath/ti/./support/RTS_support.h **** {
 2672              		.loc 2 233 28 view .LVU1103
 2673              	.LBB461:
 2674              		.loc 2 235 5 view .LVU1104
 2675              		.loc 2 235 47 is_stmt 0 view .LVU1105
 2676 00de 194C     		ldr	r4, .L91+20
 2677 00e0 A2FB04E4 		umull	lr, r4, r2, r4
 2678              		.loc 2 235 69 view .LVU1106
 2679 00e4 4FEADE7E 		lsr	lr, lr, #31
 2680 00e8 4EEA440E 		orr	lr, lr, r4, lsl #1
 2681              	.LVL345:
 2682              		.loc 2 235 69 view .LVU1107
 2683              	.LBE461:
 2684              	.LBE460:
 107:../Common/IQMath/ti/_IQNsin_cos.c ****     
 2685              		.loc 1 107 5 is_stmt 1 view .LVU1108
 2686              	.LBB462:
 2687              	.LBI462:
 233:../Common/IQMath/ti/./support/RTS_support.h **** {
 2688              		.loc 2 233 28 view .LVU1109
 2689              	.LBB463:
 2690              		.loc 2 235 5 view .LVU1110
 2691              		.loc 2 235 28 is_stmt 0 view .LVU1111
 2692 00ec DD17     		asrs	r5, r3, #31
ARM GAS  C:\Users\57308\AppData\Local\Temp\ccvDm0cb.s 			page 75


 2693              		.loc 2 235 47 view .LVU1112
 2694 00ee A3FB0EC4 		umull	ip, r4, r3, lr
 2695 00f2 0EFB054E 		mla	lr, lr, r5, r4
 2696              	.LVL346:
 2697              		.loc 2 235 69 view .LVU1113
 2698 00f6 4FEADC7C 		lsr	ip, ip, #31
 2699 00fa 4CEA4E0C 		orr	ip, ip, lr, lsl #1
 2700              	.LVL347:
 2701              		.loc 2 235 69 view .LVU1114
 2702              	.LBE463:
 2703              	.LBE462:
 110:../Common/IQMath/ti/_IQNsin_cos.c ****     
 2704              		.loc 1 110 5 is_stmt 1 view .LVU1115
 110:../Common/IQMath/ti/_IQNsin_cos.c ****     
 2705              		.loc 1 110 25 is_stmt 0 view .LVU1116
 2706 00fe 8444     		add	ip, ip, r0
 2707              	.LVL348:
 110:../Common/IQMath/ti/_IQNsin_cos.c ****     
 2708              		.loc 1 110 13 view .LVU1117
 2709 0100 CCF1000C 		rsb	ip, ip, #0
 2710              	.LVL349:
 113:../Common/IQMath/ti/_IQNsin_cos.c ****     iq31Res = __mpyf_l(iq31X, iq31Res);
 2711              		.loc 1 113 5 is_stmt 1 view .LVU1118
 113:../Common/IQMath/ti/_IQNsin_cos.c ****     iq31Res = __mpyf_l(iq31X, iq31Res);
 2712              		.loc 1 113 13 is_stmt 0 view .LVU1119
 2713 0104 4FEA6C04 		asr	r4, ip, #1
 2714              	.LVL350:
 114:../Common/IQMath/ti/_IQNsin_cos.c ****     
 2715              		.loc 1 114 5 is_stmt 1 view .LVU1120
 2716              	.LBB464:
 2717              	.LBI464:
 233:../Common/IQMath/ti/./support/RTS_support.h **** {
 2718              		.loc 2 233 28 view .LVU1121
 2719              	.LBB465:
 2720              		.loc 2 235 5 view .LVU1122
 2721              		.loc 2 235 49 is_stmt 0 view .LVU1123
 2722 0108 4FEAEC7C 		asr	ip, ip, #31
 2723              		.loc 2 235 47 view .LVU1124
 2724 010c A2FB0445 		umull	r4, r5, r2, r4
 2725              	.LVL351:
 2726              		.loc 2 235 47 view .LVU1125
 2727 0110 02FB0C5C 		mla	ip, r2, ip, r5
 2728              		.loc 2 235 69 view .LVU1126
 2729 0114 E40F     		lsrs	r4, r4, #31
 2730 0116 44EA4C04 		orr	r4, r4, ip, lsl #1
 2731              	.LVL352:
 2732              		.loc 2 235 69 view .LVU1127
 2733              	.LBE465:
 2734              	.LBE464:
 117:../Common/IQMath/ti/_IQNsin_cos.c ****     
 2735              		.loc 1 117 5 is_stmt 1 view .LVU1128
 117:../Common/IQMath/ti/_IQNsin_cos.c ****     
 2736              		.loc 1 117 13 is_stmt 0 view .LVU1129
 2737 011a 2344     		add	r3, r3, r4
 2738              	.LVL353:
 120:../Common/IQMath/ti/_IQNsin_cos.c ****     
 2739              		.loc 1 120 5 is_stmt 1 view .LVU1130
ARM GAS  C:\Users\57308\AppData\Local\Temp\ccvDm0cb.s 			page 76


 2740              	.LBB466:
 2741              	.LBI466:
 233:../Common/IQMath/ti/./support/RTS_support.h **** {
 2742              		.loc 2 233 28 view .LVU1131
 2743              	.LBB467:
 2744              		.loc 2 235 5 view .LVU1132
 2745              		.loc 2 235 49 is_stmt 0 view .LVU1133
 2746 011c DD17     		asrs	r5, r3, #31
 2747              		.loc 2 235 47 view .LVU1134
 2748 011e A2FB0334 		umull	r3, r4, r2, r3
 2749              	.LVL354:
 2750              		.loc 2 235 47 view .LVU1135
 2751 0122 02FB0542 		mla	r2, r2, r5, r4
 2752              	.LVL355:
 2753              		.loc 2 235 69 view .LVU1136
 2754 0126 DB0F     		lsrs	r3, r3, #31
 2755 0128 43EA4203 		orr	r3, r3, r2, lsl #1
 2756              	.LVL356:
 2757              		.loc 2 235 69 view .LVU1137
 2758              	.LBE467:
 2759              	.LBE466:
 123:../Common/IQMath/ti/_IQNsin_cos.c ****     
 2760              		.loc 1 123 5 is_stmt 1 view .LVU1138
 123:../Common/IQMath/ti/_IQNsin_cos.c ****     
 2761              		.loc 1 123 13 is_stmt 0 view .LVU1139
 2762 012c 1844     		add	r0, r0, r3
 2763              	.LVL357:
 125:../Common/IQMath/ti/_IQNsin_cos.c **** }
 2764              		.loc 1 125 5 is_stmt 1 view .LVU1140
 125:../Common/IQMath/ti/_IQNsin_cos.c **** }
 2765              		.loc 1 125 5 is_stmt 0 view .LVU1141
 2766 012e C8E7     		b	.L85
 2767              	.L92:
 2768              		.align	2
 2769              	.L91:
 2770 0130 50ED8764 		.word	1686629712
 2771 0134 51ED8764 		.word	1686629713
 2772 0138 A2DA0FC9 		.word	-921707870
 2773 013c 00000000 		.word	_IQ31SinLookup
 2774 0140 00000000 		.word	_IQ31CosLookup
 2775 0144 ABAAAA2A 		.word	715827883
 2776              	.LBE459:
 2777              	.LBE458:
 2778              	.LBE470:
 2779              	.LBE473:
 2780              		.cfi_endproc
 2781              	.LFE269:
 2783              		.section	.text._IQ23sin,"ax",%progbits
 2784              		.align	1
 2785              		.global	_IQ23sin
 2786              		.syntax unified
 2787              		.thumb
 2788              		.thumb_func
 2790              	_IQ23sin:
 2791              	.LVL358:
 2792              	.LFB270:
 460:../Common/IQMath/ti/_IQNsin_cos.c **** /**
ARM GAS  C:\Users\57308\AppData\Local\Temp\ccvDm0cb.s 			page 77


 461:../Common/IQMath/ti/_IQNsin_cos.c ****  * @brief Computes the sine of an IQ23 input.
 462:../Common/IQMath/ti/_IQNsin_cos.c ****  *
 463:../Common/IQMath/ti/_IQNsin_cos.c ****  * @param a               IQ23 type input.
 464:../Common/IQMath/ti/_IQNsin_cos.c ****  *
 465:../Common/IQMath/ti/_IQNsin_cos.c ****  * @return                IQ23 type result of sine operation, in radians.
 466:../Common/IQMath/ti/_IQNsin_cos.c ****  */
 467:../Common/IQMath/ti/_IQNsin_cos.c **** int32_t _IQ23sin(int32_t a)
 468:../Common/IQMath/ti/_IQNsin_cos.c **** {
 2793              		.loc 1 468 1 is_stmt 1 view -0
 2794              		.cfi_startproc
 2795              		@ args = 0, pretend = 0, frame = 0
 2796              		@ frame_needed = 0, uses_anonymous_args = 0
 2797              		.loc 1 468 1 is_stmt 0 view .LVU1143
 2798 0000 30B5     		push	{r4, r5, lr}
 2799              	.LCFI6:
 2800              		.cfi_def_cfa_offset 12
 2801              		.cfi_offset 4, -12
 2802              		.cfi_offset 5, -8
 2803              		.cfi_offset 14, -4
 469:../Common/IQMath/ti/_IQNsin_cos.c ****     return __IQNsin_cos(a, 23, TYPE_SIN, TYPE_RAD);
 2804              		.loc 1 469 5 is_stmt 1 view .LVU1144
 2805              	.LVL359:
 2806              	.LBB519:
 2807              	.LBI519:
 199:../Common/IQMath/ti/_IQNsin_cos.c ****                                    const int8_t type, const int8_t format)
 2808              		.loc 1 199 30 view .LVU1145
 2809              	.LBB520:
 202:../Common/IQMath/ti/_IQNsin_cos.c ****     uint_fast16_t ui16IntState;
 2810              		.loc 1 202 5 view .LVU1146
 203:../Common/IQMath/ti/_IQNsin_cos.c ****     uint_fast16_t ui16MPYState;
 2811              		.loc 1 203 5 view .LVU1147
 204:../Common/IQMath/ti/_IQNsin_cos.c ****     uint_fast32_t uiq29Input;
 2812              		.loc 1 204 5 view .LVU1148
 205:../Common/IQMath/ti/_IQNsin_cos.c ****     uint_fast32_t uiq30Input;
 2813              		.loc 1 205 5 view .LVU1149
 206:../Common/IQMath/ti/_IQNsin_cos.c ****     uint_fast32_t uiq31Input;
 2814              		.loc 1 206 5 view .LVU1150
 207:../Common/IQMath/ti/_IQNsin_cos.c ****     uint_fast32_t uiq32Input;
 2815              		.loc 1 207 5 view .LVU1151
 208:../Common/IQMath/ti/_IQNsin_cos.c ****     uint_fast32_t uiq31Result;
 2816              		.loc 1 208 5 view .LVU1152
 209:../Common/IQMath/ti/_IQNsin_cos.c ****     
 2817              		.loc 1 209 5 view .LVU1153
 212:../Common/IQMath/ti/_IQNsin_cos.c ****         iqNInput = -iqNInput;
 2818              		.loc 1 212 5 view .LVU1154
 212:../Common/IQMath/ti/_IQNsin_cos.c ****         iqNInput = -iqNInput;
 2819              		.loc 1 212 8 is_stmt 0 view .LVU1155
 2820 0002 0028     		cmp	r0, #0
 212:../Common/IQMath/ti/_IQNsin_cos.c ****         iqNInput = -iqNInput;
 2821              		.loc 1 212 8 view .LVU1156
 2822 0004 02DB     		blt	.L105
 202:../Common/IQMath/ti/_IQNsin_cos.c ****     uint_fast16_t ui16IntState;
 2823              		.loc 1 202 13 view .LVU1157
 2824 0006 0021     		movs	r1, #0
 2825              	.LVL360:
 2826              	.L94:
 227:../Common/IQMath/ti/_IQNsin_cos.c ****     
ARM GAS  C:\Users\57308\AppData\Local\Temp\ccvDm0cb.s 			page 78


 2827              		.loc 1 227 5 is_stmt 1 view .LVU1158
 227:../Common/IQMath/ti/_IQNsin_cos.c ****     
 2828              		.loc 1 227 5 is_stmt 0 view .LVU1159
 2829              	.LBE520:
 2830              	.LBE519:
  28:../Common/IQMath/ti/./support/RTS_support.h **** }
 2831              		.loc 2 28 5 is_stmt 1 view .LVU1160
 2832              	.LBB546:
 2833              	.LBB543:
 230:../Common/IQMath/ti/_IQNsin_cos.c ****         /* 
 2834              		.loc 1 230 5 view .LVU1161
 2835              	.LBB521:
 253:../Common/IQMath/ti/_IQNsin_cos.c ****         
 2836              		.loc 1 253 9 view .LVU1162
 256:../Common/IQMath/ti/_IQNsin_cos.c ****         
 2837              		.loc 1 256 9 view .LVU1163
 259:../Common/IQMath/ti/_IQNsin_cos.c ****             if (uiq29Input >= iq29_pi) {
 2838              		.loc 1 259 9 view .LVU1164
 253:../Common/IQMath/ti/_IQNsin_cos.c ****         
 2839              		.loc 1 253 22 is_stmt 0 view .LVU1165
 2840 0008 0623     		movs	r3, #6
 259:../Common/IQMath/ti/_IQNsin_cos.c ****             if (uiq29Input >= iq29_pi) {
 2841              		.loc 1 259 15 view .LVU1166
 2842 000a 04E0     		b	.L95
 2843              	.LVL361:
 2844              	.L105:
 259:../Common/IQMath/ti/_IQNsin_cos.c ****             if (uiq29Input >= iq29_pi) {
 2845              		.loc 1 259 15 view .LVU1167
 2846              	.LBE521:
 213:../Common/IQMath/ti/_IQNsin_cos.c ****         
 2847              		.loc 1 213 9 is_stmt 1 view .LVU1168
 213:../Common/IQMath/ti/_IQNsin_cos.c ****         
 2848              		.loc 1 213 18 is_stmt 0 view .LVU1169
 2849 000c 4042     		rsbs	r0, r0, #0
 2850              	.LVL362:
 216:../Common/IQMath/ti/_IQNsin_cos.c ****             ui8Sign = 1;
 2851              		.loc 1 216 9 is_stmt 1 view .LVU1170
 217:../Common/IQMath/ti/_IQNsin_cos.c ****         }
 2852              		.loc 1 217 13 view .LVU1171
 217:../Common/IQMath/ti/_IQNsin_cos.c ****         }
 2853              		.loc 1 217 21 is_stmt 0 view .LVU1172
 2854 000e 0121     		movs	r1, #1
 2855 0010 FAE7     		b	.L94
 2856              	.LVL363:
 2857              	.L96:
 2858              	.LBB522:
 263:../Common/IQMath/ti/_IQNsin_cos.c ****             exp--;
 2859              		.loc 1 263 13 is_stmt 1 view .LVU1173
 263:../Common/IQMath/ti/_IQNsin_cos.c ****             exp--;
 2860              		.loc 1 263 24 is_stmt 0 view .LVU1174
 2861 0012 4000     		lsls	r0, r0, #1
 2862              	.LVL364:
 264:../Common/IQMath/ti/_IQNsin_cos.c ****         }
 2863              		.loc 1 264 13 is_stmt 1 view .LVU1175
 264:../Common/IQMath/ti/_IQNsin_cos.c ****         }
 2864              		.loc 1 264 16 is_stmt 0 view .LVU1176
 2865 0014 013B     		subs	r3, r3, #1
ARM GAS  C:\Users\57308\AppData\Local\Temp\ccvDm0cb.s 			page 79


 2866              	.LVL365:
 2867              	.L95:
 259:../Common/IQMath/ti/_IQNsin_cos.c ****             if (uiq29Input >= iq29_pi) {
 2868              		.loc 1 259 15 is_stmt 1 view .LVU1177
 2869 0016 4BB1     		cbz	r3, .L106
 260:../Common/IQMath/ti/_IQNsin_cos.c ****                 uiq29Input -= iq29_pi;
 2870              		.loc 1 260 13 view .LVU1178
 260:../Common/IQMath/ti/_IQNsin_cos.c ****                 uiq29Input -= iq29_pi;
 2871              		.loc 1 260 16 is_stmt 0 view .LVU1179
 2872 0018 454A     		ldr	r2, .L107
 2873 001a 9042     		cmp	r0, r2
 2874 001c F9D9     		bls	.L96
 261:../Common/IQMath/ti/_IQNsin_cos.c ****             }
 2875              		.loc 1 261 17 is_stmt 1 view .LVU1180
 261:../Common/IQMath/ti/_IQNsin_cos.c ****             }
 2876              		.loc 1 261 28 is_stmt 0 view .LVU1181
 2877 001e A0F1C940 		sub	r0, r0, #1686110208
 2878              	.LVL366:
 261:../Common/IQMath/ti/_IQNsin_cos.c ****             }
 2879              		.loc 1 261 28 view .LVU1182
 2880 0022 A0F5FD20 		sub	r0, r0, #518144
 2881              	.LVL367:
 261:../Common/IQMath/ti/_IQNsin_cos.c ****             }
 2882              		.loc 1 261 28 view .LVU1183
 2883 0026 A0F25150 		subw	r0, r0, #1361
 2884              	.LVL368:
 261:../Common/IQMath/ti/_IQNsin_cos.c ****             }
 2885              		.loc 1 261 28 view .LVU1184
 2886 002a F2E7     		b	.L96
 2887              	.L106:
 268:../Common/IQMath/ti/_IQNsin_cos.c ****             uiq29Input -= iq29_pi;
 2888              		.loc 1 268 9 is_stmt 1 view .LVU1185
 268:../Common/IQMath/ti/_IQNsin_cos.c ****             uiq29Input -= iq29_pi;
 2889              		.loc 1 268 12 is_stmt 0 view .LVU1186
 2890 002c 404B     		ldr	r3, .L107
 2891              	.LVL369:
 268:../Common/IQMath/ti/_IQNsin_cos.c ****             uiq29Input -= iq29_pi;
 2892              		.loc 1 268 12 view .LVU1187
 2893 002e 9842     		cmp	r0, r3
 2894 0030 07D9     		bls	.L98
 269:../Common/IQMath/ti/_IQNsin_cos.c ****             ui8Sign ^= 1;
 2895              		.loc 1 269 13 is_stmt 1 view .LVU1188
 269:../Common/IQMath/ti/_IQNsin_cos.c ****             ui8Sign ^= 1;
 2896              		.loc 1 269 24 is_stmt 0 view .LVU1189
 2897 0032 A0F1C940 		sub	r0, r0, #1686110208
 2898              	.LVL370:
 269:../Common/IQMath/ti/_IQNsin_cos.c ****             ui8Sign ^= 1;
 2899              		.loc 1 269 24 view .LVU1190
 2900 0036 A0F5FD20 		sub	r0, r0, #518144
 2901              	.LVL371:
 269:../Common/IQMath/ti/_IQNsin_cos.c ****             ui8Sign ^= 1;
 2902              		.loc 1 269 24 view .LVU1191
 2903 003a A0F25150 		subw	r0, r0, #1361
 2904              	.LVL372:
 270:../Common/IQMath/ti/_IQNsin_cos.c ****         }
 2905              		.loc 1 270 13 is_stmt 1 view .LVU1192
 270:../Common/IQMath/ti/_IQNsin_cos.c ****         }
ARM GAS  C:\Users\57308\AppData\Local\Temp\ccvDm0cb.s 			page 80


 2906              		.loc 1 270 21 is_stmt 0 view .LVU1193
 2907 003e 81F00101 		eor	r1, r1, #1
 2908              	.LVL373:
 2909              	.L98:
 274:../Common/IQMath/ti/_IQNsin_cos.c ****     }
 2910              		.loc 1 274 9 is_stmt 1 view .LVU1194
 274:../Common/IQMath/ti/_IQNsin_cos.c ****     }
 2911              		.loc 1 274 20 is_stmt 0 view .LVU1195
 2912 0042 4300     		lsls	r3, r0, #1
 2913              	.LVL374:
 274:../Common/IQMath/ti/_IQNsin_cos.c ****     }
 2914              		.loc 1 274 20 view .LVU1196
 2915              	.LBE522:
 278:../Common/IQMath/ti/_IQNsin_cos.c ****         uiq30Input = iq30_pi - uiq30Input;
 2916              		.loc 1 278 5 is_stmt 1 view .LVU1197
 278:../Common/IQMath/ti/_IQNsin_cos.c ****         uiq30Input = iq30_pi - uiq30Input;
 2917              		.loc 1 278 8 is_stmt 0 view .LVU1198
 2918 0044 3A4A     		ldr	r2, .L107
 2919 0046 B2EB400F 		cmp	r2, r0, lsl #1
 2920 004a 05D2     		bcs	.L99
 279:../Common/IQMath/ti/_IQNsin_cos.c ****         
 2921              		.loc 1 279 9 is_stmt 1 view .LVU1199
 279:../Common/IQMath/ti/_IQNsin_cos.c ****         
 2922              		.loc 1 279 20 is_stmt 0 view .LVU1200
 2923 004c C3F14943 		rsb	r3, r3, #-922746880
 2924              	.LVL375:
 279:../Common/IQMath/ti/_IQNsin_cos.c ****         
 2925              		.loc 1 279 20 view .LVU1201
 2926 0050 03F57D23 		add	r3, r3, #1036288
 2927 0054 03F6A223 		addw	r3, r3, #2722
 2928              	.LVL376:
 282:../Common/IQMath/ti/_IQNsin_cos.c ****             ui8Sign ^= 1;
 2929              		.loc 1 282 9 is_stmt 1 view .LVU1202
 2930              	.L99:
 288:../Common/IQMath/ti/_IQNsin_cos.c ****     
 2931              		.loc 1 288 5 view .LVU1203
 288:../Common/IQMath/ti/_IQNsin_cos.c ****     
 2932              		.loc 1 288 16 is_stmt 0 view .LVU1204
 2933 0058 5A00     		lsls	r2, r3, #1
 2934              	.LVL377:
 291:../Common/IQMath/ti/_IQNsin_cos.c ****         /* If input is greater than pi/4 use sin for calculations */
 2935              		.loc 1 291 5 is_stmt 1 view .LVU1205
 301:../Common/IQMath/ti/_IQNsin_cos.c ****         /* If input is greater than pi/4 use cos for calculations */
 2936              		.loc 1 301 10 view .LVU1206
 303:../Common/IQMath/ti/_IQNsin_cos.c ****             uiq31Input = iq31_halfPi - uiq31Input;
 2937              		.loc 1 303 9 view .LVU1207
 303:../Common/IQMath/ti/_IQNsin_cos.c ****             uiq31Input = iq31_halfPi - uiq31Input;
 2938              		.loc 1 303 12 is_stmt 0 view .LVU1208
 2939 005a 3648     		ldr	r0, .L107+4
 2940              	.LVL378:
 303:../Common/IQMath/ti/_IQNsin_cos.c ****             uiq31Input = iq31_halfPi - uiq31Input;
 2941              		.loc 1 303 12 view .LVU1209
 2942 005c B0EB430F 		cmp	r0, r3, lsl #1
 2943 0060 33D2     		bcs	.L100
 304:../Common/IQMath/ti/_IQNsin_cos.c ****             uiq31Result = __IQNcalcCos(uiq31Input);
 2944              		.loc 1 304 13 is_stmt 1 view .LVU1210
 304:../Common/IQMath/ti/_IQNsin_cos.c ****             uiq31Result = __IQNcalcCos(uiq31Input);
ARM GAS  C:\Users\57308\AppData\Local\Temp\ccvDm0cb.s 			page 81


 2945              		.loc 1 304 24 is_stmt 0 view .LVU1211
 2946 0062 354B     		ldr	r3, .L107+8
 2947              	.LVL379:
 304:../Common/IQMath/ti/_IQNsin_cos.c ****             uiq31Result = __IQNcalcCos(uiq31Input);
 2948              		.loc 1 304 24 view .LVU1212
 2949 0064 9B1A     		subs	r3, r3, r2
 2950              	.LVL380:
 305:../Common/IQMath/ti/_IQNsin_cos.c ****         }
 2951              		.loc 1 305 13 is_stmt 1 view .LVU1213
 2952              	.LBB523:
 2953              	.LBI523:
 139:../Common/IQMath/ti/_IQNsin_cos.c **** {
 2954              		.loc 1 139 30 view .LVU1214
 2955              	.LBB524:
 141:../Common/IQMath/ti/_IQNsin_cos.c ****     int_fast32_t iq31X;
 2956              		.loc 1 141 2 view .LVU1215
 142:../Common/IQMath/ti/_IQNsin_cos.c ****     int_fast32_t iq31Sin;
 2957              		.loc 1 142 5 view .LVU1216
 143:../Common/IQMath/ti/_IQNsin_cos.c ****     int_fast32_t iq31Cos;
 2958              		.loc 1 143 5 view .LVU1217
 144:../Common/IQMath/ti/_IQNsin_cos.c ****     int_fast32_t iq31Res;
 2959              		.loc 1 144 5 view .LVU1218
 145:../Common/IQMath/ti/_IQNsin_cos.c ****     
 2960              		.loc 1 145 5 view .LVU1219
 148:../Common/IQMath/ti/_IQNsin_cos.c ****     
 2961              		.loc 1 148 5 view .LVU1220
 148:../Common/IQMath/ti/_IQNsin_cos.c ****     
 2962              		.loc 1 148 11 is_stmt 0 view .LVU1221
 2963 0066 C3F34562 		ubfx	r2, r3, #25, #6
 2964              	.LVL381:
 151:../Common/IQMath/ti/_IQNsin_cos.c ****     iq31Cos = _IQ31CosLookup[index];
 2965              		.loc 1 151 5 is_stmt 1 view .LVU1222
 151:../Common/IQMath/ti/_IQNsin_cos.c ****     iq31Cos = _IQ31CosLookup[index];
 2966              		.loc 1 151 13 is_stmt 0 view .LVU1223
 2967 006a 3448     		ldr	r0, .L107+12
 2968 006c 50F82250 		ldr	r5, [r0, r2, lsl #2]
 2969              	.LVL382:
 152:../Common/IQMath/ti/_IQNsin_cos.c ****     
 2970              		.loc 1 152 5 is_stmt 1 view .LVU1224
 152:../Common/IQMath/ti/_IQNsin_cos.c ****     
 2971              		.loc 1 152 13 is_stmt 0 view .LVU1225
 2972 0070 3348     		ldr	r0, .L107+16
 2973 0072 50F82200 		ldr	r0, [r0, r2, lsl #2]
 2974              	.LVL383:
 159:../Common/IQMath/ti/_IQNsin_cos.c ****     
 2975              		.loc 1 159 5 is_stmt 1 view .LVU1226
 159:../Common/IQMath/ti/_IQNsin_cos.c ****     
 2976              		.loc 1 159 11 is_stmt 0 view .LVU1227
 2977 0076 23F07E42 		bic	r2, r3, #-33554432
 2978              	.LVL384:
 162:../Common/IQMath/ti/_IQNsin_cos.c ****     iq31Res = __mpyf_l(iq31Sin, iq31Res);
 2979              		.loc 1 162 5 is_stmt 1 view .LVU1228
 2980              	.LBB525:
 2981              	.LBI525:
 233:../Common/IQMath/ti/./support/RTS_support.h **** {
 2982              		.loc 2 233 28 view .LVU1229
 2983              	.LBB526:
ARM GAS  C:\Users\57308\AppData\Local\Temp\ccvDm0cb.s 			page 82


 2984              		.loc 2 235 5 view .LVU1230
 2985              		.loc 2 235 47 is_stmt 0 view .LVU1231
 2986 007a 324C     		ldr	r4, .L107+20
 2987 007c A2FB04C4 		umull	ip, r4, r2, r4
 2988              		.loc 2 235 69 view .LVU1232
 2989 0080 4FEADC7C 		lsr	ip, ip, #31
 2990 0084 4CEA440C 		orr	ip, ip, r4, lsl #1
 2991              	.LVL385:
 2992              		.loc 2 235 69 view .LVU1233
 2993              	.LBE526:
 2994              	.LBE525:
 163:../Common/IQMath/ti/_IQNsin_cos.c ****     
 2995              		.loc 1 163 5 is_stmt 1 view .LVU1234
 2996              	.LBB527:
 2997              	.LBI527:
 233:../Common/IQMath/ti/./support/RTS_support.h **** {
 2998              		.loc 2 233 28 view .LVU1235
 2999              	.LBB528:
 3000              		.loc 2 235 5 view .LVU1236
 3001              		.loc 2 235 28 is_stmt 0 view .LVU1237
 3002 0088 4FEAE57E 		asr	lr, r5, #31
 3003              		.loc 2 235 47 view .LVU1238
 3004 008c A5FB0C43 		umull	r4, r3, r5, ip
 3005              	.LVL386:
 3006              		.loc 2 235 47 view .LVU1239
 3007 0090 0CFB0E3C 		mla	ip, ip, lr, r3
 3008              	.LVL387:
 3009              		.loc 2 235 69 view .LVU1240
 3010 0094 E40F     		lsrs	r4, r4, #31
 3011 0096 44EA4C04 		orr	r4, r4, ip, lsl #1
 3012              	.LVL388:
 3013              		.loc 2 235 69 view .LVU1241
 3014              	.LBE528:
 3015              	.LBE527:
 166:../Common/IQMath/ti/_IQNsin_cos.c ****     
 3016              		.loc 1 166 5 is_stmt 1 view .LVU1242
 166:../Common/IQMath/ti/_IQNsin_cos.c ****     
 3017              		.loc 1 166 13 is_stmt 0 view .LVU1243
 3018 009a 241A     		subs	r4, r4, r0
 3019              	.LVL389:
 169:../Common/IQMath/ti/_IQNsin_cos.c ****     iq31Res = __mpyf_l(iq31X, iq31Res);
 3020              		.loc 1 169 5 is_stmt 1 view .LVU1244
 169:../Common/IQMath/ti/_IQNsin_cos.c ****     iq31Res = __mpyf_l(iq31X, iq31Res);
 3021              		.loc 1 169 13 is_stmt 0 view .LVU1245
 3022 009c 6310     		asrs	r3, r4, #1
 3023              	.LVL390:
 170:../Common/IQMath/ti/_IQNsin_cos.c ****     
 3024              		.loc 1 170 5 is_stmt 1 view .LVU1246
 3025              	.LBB529:
 3026              	.LBI529:
 233:../Common/IQMath/ti/./support/RTS_support.h **** {
 3027              		.loc 2 233 28 view .LVU1247
 3028              	.LBB530:
 3029              		.loc 2 235 5 view .LVU1248
 3030              		.loc 2 235 49 is_stmt 0 view .LVU1249
 3031 009e E417     		asrs	r4, r4, #31
 3032              		.loc 2 235 47 view .LVU1250
ARM GAS  C:\Users\57308\AppData\Local\Temp\ccvDm0cb.s 			page 83


 3033 00a0 A2FB033C 		umull	r3, ip, r2, r3
 3034              	.LVL391:
 3035              		.loc 2 235 47 view .LVU1251
 3036 00a4 02FB04C4 		mla	r4, r2, r4, ip
 3037              		.loc 2 235 69 view .LVU1252
 3038 00a8 DB0F     		lsrs	r3, r3, #31
 3039 00aa 43EA4403 		orr	r3, r3, r4, lsl #1
 3040              	.LVL392:
 3041              		.loc 2 235 69 view .LVU1253
 3042              	.LBE530:
 3043              	.LBE529:
 173:../Common/IQMath/ti/_IQNsin_cos.c ****     
 3044              		.loc 1 173 5 is_stmt 1 view .LVU1254
 173:../Common/IQMath/ti/_IQNsin_cos.c ****     
 3045              		.loc 1 173 13 is_stmt 0 view .LVU1255
 3046 00ae 5B1B     		subs	r3, r3, r5
 3047              	.LVL393:
 176:../Common/IQMath/ti/_IQNsin_cos.c ****     
 3048              		.loc 1 176 5 is_stmt 1 view .LVU1256
 3049              	.LBB531:
 3050              	.LBI531:
 233:../Common/IQMath/ti/./support/RTS_support.h **** {
 3051              		.loc 2 233 28 view .LVU1257
 3052              	.LBB532:
 3053              		.loc 2 235 5 view .LVU1258
 3054              		.loc 2 235 49 is_stmt 0 view .LVU1259
 3055 00b0 DD17     		asrs	r5, r3, #31
 3056              	.LVL394:
 3057              		.loc 2 235 47 view .LVU1260
 3058 00b2 A2FB0334 		umull	r3, r4, r2, r3
 3059              	.LVL395:
 3060              		.loc 2 235 47 view .LVU1261
 3061 00b6 02FB0542 		mla	r2, r2, r5, r4
 3062              	.LVL396:
 3063              		.loc 2 235 69 view .LVU1262
 3064 00ba DB0F     		lsrs	r3, r3, #31
 3065 00bc 43EA4203 		orr	r3, r3, r2, lsl #1
 3066              	.LVL397:
 3067              		.loc 2 235 69 view .LVU1263
 3068              	.LBE532:
 3069              	.LBE531:
 179:../Common/IQMath/ti/_IQNsin_cos.c ****     
 3070              		.loc 1 179 5 is_stmt 1 view .LVU1264
 179:../Common/IQMath/ti/_IQNsin_cos.c ****     
 3071              		.loc 1 179 13 is_stmt 0 view .LVU1265
 3072 00c0 1844     		add	r0, r0, r3
 3073              	.LVL398:
 181:../Common/IQMath/ti/_IQNsin_cos.c **** }
 3074              		.loc 1 181 5 is_stmt 1 view .LVU1266
 3075              	.L101:
 181:../Common/IQMath/ti/_IQNsin_cos.c **** }
 3076              		.loc 1 181 5 is_stmt 0 view .LVU1267
 3077              	.LBE524:
 3078              	.LBE523:
 316:../Common/IQMath/ti/_IQNsin_cos.c ****     
 3079              		.loc 1 316 5 is_stmt 1 view .LVU1268
 316:../Common/IQMath/ti/_IQNsin_cos.c ****     
ARM GAS  C:\Users\57308\AppData\Local\Temp\ccvDm0cb.s 			page 84


 3080              		.loc 1 316 5 is_stmt 0 view .LVU1269
 3081              	.LBE543:
 3082              	.LBE546:
  72:../Common/IQMath/ti/./support/RTS_support.h **** }
 3083              		.loc 2 72 5 is_stmt 1 view .LVU1270
 3084              	.LBB547:
 3085              	.LBB544:
 319:../Common/IQMath/ti/_IQNsin_cos.c ****     
 3086              		.loc 1 319 5 view .LVU1271
 319:../Common/IQMath/ti/_IQNsin_cos.c ****     
 3087              		.loc 1 319 17 is_stmt 0 view .LVU1272
 3088 00c2 000A     		lsrs	r0, r0, #8
 3089              	.LVL399:
 322:../Common/IQMath/ti/_IQNsin_cos.c ****         uiq31Result = -uiq31Result;
 3090              		.loc 1 322 5 is_stmt 1 view .LVU1273
 322:../Common/IQMath/ti/_IQNsin_cos.c ****         uiq31Result = -uiq31Result;
 3091              		.loc 1 322 8 is_stmt 0 view .LVU1274
 3092 00c4 01B1     		cbz	r1, .L102
 323:../Common/IQMath/ti/_IQNsin_cos.c ****     }
 3093              		.loc 1 323 9 is_stmt 1 view .LVU1275
 323:../Common/IQMath/ti/_IQNsin_cos.c ****     }
 3094              		.loc 1 323 21 is_stmt 0 view .LVU1276
 3095 00c6 4042     		rsbs	r0, r0, #0
 3096              	.LVL400:
 3097              	.L102:
 326:../Common/IQMath/ti/_IQNsin_cos.c **** }
 3098              		.loc 1 326 5 is_stmt 1 view .LVU1277
 326:../Common/IQMath/ti/_IQNsin_cos.c **** }
 3099              		.loc 1 326 5 is_stmt 0 view .LVU1278
 3100              	.LBE544:
 3101              	.LBE547:
 470:../Common/IQMath/ti/_IQNsin_cos.c **** }
 3102              		.loc 1 470 1 view .LVU1279
 3103 00c8 30BD     		pop	{r4, r5, pc}
 3104              	.LVL401:
 3105              	.L100:
 3106              	.LBB548:
 3107              	.LBB545:
 308:../Common/IQMath/ti/_IQNsin_cos.c ****         }
 3108              		.loc 1 308 13 is_stmt 1 view .LVU1280
 3109              	.LBB533:
 3110              	.LBI533:
  83:../Common/IQMath/ti/_IQNsin_cos.c **** {
 3111              		.loc 1 83 30 view .LVU1281
 3112              	.LBB534:
  85:../Common/IQMath/ti/_IQNsin_cos.c ****     int_fast32_t iq31X;
 3113              		.loc 1 85 2 view .LVU1282
  86:../Common/IQMath/ti/_IQNsin_cos.c ****     int_fast32_t iq31Sin;
 3114              		.loc 1 86 5 view .LVU1283
  87:../Common/IQMath/ti/_IQNsin_cos.c ****     int_fast32_t iq31Cos;
 3115              		.loc 1 87 5 view .LVU1284
  88:../Common/IQMath/ti/_IQNsin_cos.c ****     int_fast32_t iq31Res;
 3116              		.loc 1 88 5 view .LVU1285
  89:../Common/IQMath/ti/_IQNsin_cos.c ****     
 3117              		.loc 1 89 5 view .LVU1286
  92:../Common/IQMath/ti/_IQNsin_cos.c ****     
 3118              		.loc 1 92 5 view .LVU1287
ARM GAS  C:\Users\57308\AppData\Local\Temp\ccvDm0cb.s 			page 85


  92:../Common/IQMath/ti/_IQNsin_cos.c ****     
 3119              		.loc 1 92 11 is_stmt 0 view .LVU1288
 3120 00ca C2F34563 		ubfx	r3, r2, #25, #6
 3121              	.LVL402:
  95:../Common/IQMath/ti/_IQNsin_cos.c ****     iq31Cos = _IQ31CosLookup[index];
 3122              		.loc 1 95 5 is_stmt 1 view .LVU1289
  95:../Common/IQMath/ti/_IQNsin_cos.c ****     iq31Cos = _IQ31CosLookup[index];
 3123              		.loc 1 95 13 is_stmt 0 view .LVU1290
 3124 00ce 1B48     		ldr	r0, .L107+12
 3125 00d0 50F82300 		ldr	r0, [r0, r3, lsl #2]
 3126              	.LVL403:
  96:../Common/IQMath/ti/_IQNsin_cos.c ****     
 3127              		.loc 1 96 5 is_stmt 1 view .LVU1291
