ARM GAS  C:\Users\57308\AppData\Local\Temp\cchS4miY.s 			page 1


   1              		.cpu cortex-m4
   2              		.arch armv7e-m
   3              		.fpu fpv4-sp-d16
   4              		.eabi_attribute 27, 1
   5              		.eabi_attribute 28, 1
   6              		.eabi_attribute 20, 1
   7              		.eabi_attribute 21, 1
   8              		.eabi_attribute 23, 3
   9              		.eabi_attribute 24, 1
  10              		.eabi_attribute 25, 1
  11              		.eabi_attribute 26, 1
  12              		.eabi_attribute 30, 1
  13              		.eabi_attribute 34, 1
  14              		.eabi_attribute 18, 4
  15              		.file	"_IQNmpy.c"
  16              		.text
  17              	.Ltext0:
  18              		.cfi_sections	.debug_frame
  19              		.section	.text._IQ31mpy,"ax",%progbits
  20              		.align	1
  21              		.global	_IQ31mpy
  22              		.syntax unified
  23              		.thumb
  24              		.thumb_func
  26              	_IQ31mpy:
  27              	.LVL0:
  28              	.LFB262:
  29              		.file 1 "../Common/IQMath/ti/_IQNmpy.c"
   1:../Common/IQMath/ti/_IQNmpy.c **** /*!****************************************************************************
   2:../Common/IQMath/ti/_IQNmpy.c ****  *  @file       _IQNmpy.c
   3:../Common/IQMath/ti/_IQNmpy.c ****  *  @brief      Functions to multiply two values of IQN type.
   4:../Common/IQMath/ti/_IQNmpy.c ****  *
   5:../Common/IQMath/ti/_IQNmpy.c ****  *  <hr>
   6:../Common/IQMath/ti/_IQNmpy.c ****  ******************************************************************************/
   7:../Common/IQMath/ti/_IQNmpy.c **** #include "_IQNmpy.h"
   8:../Common/IQMath/ti/_IQNmpy.c **** 
   9:../Common/IQMath/ti/_IQNmpy.c **** /**
  10:../Common/IQMath/ti/_IQNmpy.c ****  * @brief Multiplies two values of IQ31 format.
  11:../Common/IQMath/ti/_IQNmpy.c ****  *
  12:../Common/IQMath/ti/_IQNmpy.c ****  * @param a             IQ31 type value to be multiplied.
  13:../Common/IQMath/ti/_IQNmpy.c ****  * @param b             IQ31 type value to be multiplied.
  14:../Common/IQMath/ti/_IQNmpy.c ****  *
  15:../Common/IQMath/ti/_IQNmpy.c ****  * @return              IQ31 type result of the multiplication. 
  16:../Common/IQMath/ti/_IQNmpy.c ****  */
  17:../Common/IQMath/ti/_IQNmpy.c **** int32_t _IQ31mpy(int32_t a, int32_t b)
  18:../Common/IQMath/ti/_IQNmpy.c **** {
  30              		.loc 1 18 1 view -0
  31              		.cfi_startproc
  32              		@ args = 0, pretend = 0, frame = 0
  33              		@ frame_needed = 0, uses_anonymous_args = 0
  34              		@ link register save eliminated.
  19:../Common/IQMath/ti/_IQNmpy.c ****     return __IQNmpy(a, b, 31);
  35              		.loc 1 19 5 view .LVU1
  36              	.LBB64:
  37              	.LBI64:
  38              		.file 2 "../Common/IQMath/ti/_IQNmpy.h"
   1:../Common/IQMath/ti/_IQNmpy.h **** /*!****************************************************************************
ARM GAS  C:\Users\57308\AppData\Local\Temp\cchS4miY.s 			page 2


   2:../Common/IQMath/ti/_IQNmpy.h ****  *  @file       _IQNmpy.c
   3:../Common/IQMath/ti/_IQNmpy.h ****  *  @brief      Functions to multiply two values of IQN type.
   4:../Common/IQMath/ti/_IQNmpy.h ****  *
   5:../Common/IQMath/ti/_IQNmpy.h ****  *  <hr>
   6:../Common/IQMath/ti/_IQNmpy.h ****  ******************************************************************************/
   7:../Common/IQMath/ti/_IQNmpy.h **** #ifndef ti_iq_iqnmpy__include
   8:../Common/IQMath/ti/_IQNmpy.h **** #define ti_iq_iqnmpy__include
   9:../Common/IQMath/ti/_IQNmpy.h **** #include <stdint.h>
  10:../Common/IQMath/ti/_IQNmpy.h **** 
  11:../Common/IQMath/ti/_IQNmpy.h **** #include "./support/support.h"
  12:../Common/IQMath/ti/_IQNmpy.h **** 
  13:../Common/IQMath/ti/_IQNmpy.h **** #if ((!defined (__IQMATH_USE_MATHACL__)) || (!defined (__MSPM0_HAS_MATHACL__)))
  14:../Common/IQMath/ti/_IQNmpy.h **** /**
  15:../Common/IQMath/ti/_IQNmpy.h ****  * @brief Multiply two values of IQN type.
  16:../Common/IQMath/ti/_IQNmpy.h ****  *
  17:../Common/IQMath/ti/_IQNmpy.h ****  * @param iqNInput1       IQN type value input to be multiplied.
  18:../Common/IQMath/ti/_IQNmpy.h ****  * @param iqNInput2       IQN type value input to be multiplied.
  19:../Common/IQMath/ti/_IQNmpy.h ****  * @param q_value         IQ format.
  20:../Common/IQMath/ti/_IQNmpy.h ****  *
  21:../Common/IQMath/ti/_IQNmpy.h ****  * @return                IQN type result of the multiplication.
  22:../Common/IQMath/ti/_IQNmpy.h ****  */
  23:../Common/IQMath/ti/_IQNmpy.h **** #if defined (__TI_COMPILER_VERSION__)
  24:../Common/IQMath/ti/_IQNmpy.h ****     #pragma FUNC_ALWAYS_INLINE(__IQNmpy)
  25:../Common/IQMath/ti/_IQNmpy.h **** #elif defined(__IAR_SYSTEMS_ICC__)
  26:../Common/IQMath/ti/_IQNmpy.h ****     #pragma inline=forced
  27:../Common/IQMath/ti/_IQNmpy.h **** #endif
  28:../Common/IQMath/ti/_IQNmpy.h **** __STATIC_INLINE int_fast32_t __IQNmpy(int_fast32_t iqNInput1, int_fast32_t iqNInput2, const int8_t 
  39              		.loc 2 28 30 view .LVU2
  40              	.LBB65:
  29:../Common/IQMath/ti/_IQNmpy.h **** {
  30:../Common/IQMath/ti/_IQNmpy.h ****     int_fast64_t iqNResult;
  41              		.loc 2 30 5 view .LVU3
  31:../Common/IQMath/ti/_IQNmpy.h ****     
  32:../Common/IQMath/ti/_IQNmpy.h ****     iqNResult = (int_fast64_t)iqNInput1 * (int_fast64_t)iqNInput2;
  42              		.loc 2 32 5 view .LVU4
  43              		.loc 2 32 17 is_stmt 0 view .LVU5
  44 0000 C217     		asrs	r2, r0, #31
  45              		.loc 2 32 43 view .LVU6
  46 0002 CB17     		asrs	r3, r1, #31
  47              		.loc 2 32 15 view .LVU7
  48 0004 00FB03F3 		mul	r3, r0, r3
  49 0008 01FB0233 		mla	r3, r1, r2, r3
  50 000c A0FB0101 		umull	r0, r1, r0, r1
  51              	.LVL1:
  52              		.loc 2 32 15 view .LVU8
  53 0010 1944     		add	r1, r1, r3
  54              	.LVL2:
  33:../Common/IQMath/ti/_IQNmpy.h ****     iqNResult = iqNResult >> q_value;
  55              		.loc 2 33 5 is_stmt 1 view .LVU9
  56              		.loc 2 33 15 is_stmt 0 view .LVU10
  57 0012 C00F     		lsrs	r0, r0, #31
  58              	.LVL3:
  34:../Common/IQMath/ti/_IQNmpy.h **** 
  35:../Common/IQMath/ti/_IQNmpy.h ****     return (int_fast32_t)iqNResult;
  59              		.loc 2 35 5 is_stmt 1 view .LVU11
  60              		.loc 2 35 5 is_stmt 0 view .LVU12
  61              	.LBE65:
ARM GAS  C:\Users\57308\AppData\Local\Temp\cchS4miY.s 			page 3


  62              	.LBE64:
  20:../Common/IQMath/ti/_IQNmpy.c **** }
  63              		.loc 1 20 1 view .LVU13
  64 0014 40EA4100 		orr	r0, r0, r1, lsl #1
  65 0018 7047     		bx	lr
  66              		.cfi_endproc
  67              	.LFE262:
  69              		.section	.text._IQ30mpy,"ax",%progbits
  70              		.align	1
  71              		.global	_IQ30mpy
  72              		.syntax unified
  73              		.thumb
  74              		.thumb_func
  76              	_IQ30mpy:
  77              	.LVL4:
  78              	.LFB263:
  21:../Common/IQMath/ti/_IQNmpy.c **** /**
  22:../Common/IQMath/ti/_IQNmpy.c ****  * @brief Multiplies two values of IQ30 format.
  23:../Common/IQMath/ti/_IQNmpy.c ****  *
  24:../Common/IQMath/ti/_IQNmpy.c ****  * @param a             IQ30 type value to be multiplied.
  25:../Common/IQMath/ti/_IQNmpy.c ****  * @param b             IQ30 type value to be multiplied.
  26:../Common/IQMath/ti/_IQNmpy.c ****  *
  27:../Common/IQMath/ti/_IQNmpy.c ****  * @return              IQ30 type result of the multiplication.    
  28:../Common/IQMath/ti/_IQNmpy.c ****  */
  29:../Common/IQMath/ti/_IQNmpy.c **** int32_t _IQ30mpy(int32_t a, int32_t b)
  30:../Common/IQMath/ti/_IQNmpy.c **** {
  79              		.loc 1 30 1 is_stmt 1 view -0
  80              		.cfi_startproc
  81              		@ args = 0, pretend = 0, frame = 0
  82              		@ frame_needed = 0, uses_anonymous_args = 0
  83              		@ link register save eliminated.
  31:../Common/IQMath/ti/_IQNmpy.c ****     return __IQNmpy(a, b, 30);
  84              		.loc 1 31 5 view .LVU15
  85              	.LBB66:
  86              	.LBI66:
  28:../Common/IQMath/ti/_IQNmpy.h **** {
  87              		.loc 2 28 30 view .LVU16
  88              	.LBB67:
  30:../Common/IQMath/ti/_IQNmpy.h ****     
  89              		.loc 2 30 5 view .LVU17
  32:../Common/IQMath/ti/_IQNmpy.h ****     iqNResult = iqNResult >> q_value;
  90              		.loc 2 32 5 view .LVU18
  32:../Common/IQMath/ti/_IQNmpy.h ****     iqNResult = iqNResult >> q_value;
  91              		.loc 2 32 17 is_stmt 0 view .LVU19
  92 0000 C217     		asrs	r2, r0, #31
  32:../Common/IQMath/ti/_IQNmpy.h ****     iqNResult = iqNResult >> q_value;
  93              		.loc 2 32 43 view .LVU20
  94 0002 CB17     		asrs	r3, r1, #31
  32:../Common/IQMath/ti/_IQNmpy.h ****     iqNResult = iqNResult >> q_value;
  95              		.loc 2 32 15 view .LVU21
  96 0004 00FB03F3 		mul	r3, r0, r3
  97 0008 01FB0233 		mla	r3, r1, r2, r3
  98 000c A0FB0101 		umull	r0, r1, r0, r1
  99              	.LVL5:
  32:../Common/IQMath/ti/_IQNmpy.h ****     iqNResult = iqNResult >> q_value;
 100              		.loc 2 32 15 view .LVU22
 101 0010 1944     		add	r1, r1, r3
ARM GAS  C:\Users\57308\AppData\Local\Temp\cchS4miY.s 			page 4


 102              	.LVL6:
  33:../Common/IQMath/ti/_IQNmpy.h **** 
 103              		.loc 2 33 5 is_stmt 1 view .LVU23
  33:../Common/IQMath/ti/_IQNmpy.h **** 
 104              		.loc 2 33 15 is_stmt 0 view .LVU24
 105 0012 800F     		lsrs	r0, r0, #30
 106              	.LVL7:
 107              		.loc 2 35 5 is_stmt 1 view .LVU25
 108              		.loc 2 35 5 is_stmt 0 view .LVU26
 109              	.LBE67:
 110              	.LBE66:
  32:../Common/IQMath/ti/_IQNmpy.c **** }
 111              		.loc 1 32 1 view .LVU27
 112 0014 40EA8100 		orr	r0, r0, r1, lsl #2
 113 0018 7047     		bx	lr
 114              		.cfi_endproc
 115              	.LFE263:
 117              		.section	.text._IQ29mpy,"ax",%progbits
 118              		.align	1
 119              		.global	_IQ29mpy
 120              		.syntax unified
 121              		.thumb
 122              		.thumb_func
 124              	_IQ29mpy:
 125              	.LVL8:
 126              	.LFB264:
  33:../Common/IQMath/ti/_IQNmpy.c **** /**
  34:../Common/IQMath/ti/_IQNmpy.c ****  * @brief Multiplies two values of IQ29 format.
  35:../Common/IQMath/ti/_IQNmpy.c ****  *
  36:../Common/IQMath/ti/_IQNmpy.c ****  * @param a             IQ29 type value to be multiplied.
  37:../Common/IQMath/ti/_IQNmpy.c ****  * @param b             IQ29 type value to be multiplied.
  38:../Common/IQMath/ti/_IQNmpy.c ****  *
  39:../Common/IQMath/ti/_IQNmpy.c ****  * @return              IQ29 type result of the multiplication.    
  40:../Common/IQMath/ti/_IQNmpy.c ****  */
  41:../Common/IQMath/ti/_IQNmpy.c **** int32_t _IQ29mpy(int32_t a, int32_t b)
  42:../Common/IQMath/ti/_IQNmpy.c **** {
 127              		.loc 1 42 1 is_stmt 1 view -0
 128              		.cfi_startproc
 129              		@ args = 0, pretend = 0, frame = 0
 130              		@ frame_needed = 0, uses_anonymous_args = 0
 131              		@ link register save eliminated.
  43:../Common/IQMath/ti/_IQNmpy.c ****     return __IQNmpy(a, b, 29);
 132              		.loc 1 43 5 view .LVU29
 133              	.LBB68:
 134              	.LBI68:
  28:../Common/IQMath/ti/_IQNmpy.h **** {
 135              		.loc 2 28 30 view .LVU30
 136              	.LBB69:
  30:../Common/IQMath/ti/_IQNmpy.h ****     
 137              		.loc 2 30 5 view .LVU31
  32:../Common/IQMath/ti/_IQNmpy.h ****     iqNResult = iqNResult >> q_value;
 138              		.loc 2 32 5 view .LVU32
  32:../Common/IQMath/ti/_IQNmpy.h ****     iqNResult = iqNResult >> q_value;
 139              		.loc 2 32 17 is_stmt 0 view .LVU33
 140 0000 C217     		asrs	r2, r0, #31
  32:../Common/IQMath/ti/_IQNmpy.h ****     iqNResult = iqNResult >> q_value;
 141              		.loc 2 32 43 view .LVU34
ARM GAS  C:\Users\57308\AppData\Local\Temp\cchS4miY.s 			page 5


 142 0002 CB17     		asrs	r3, r1, #31
  32:../Common/IQMath/ti/_IQNmpy.h ****     iqNResult = iqNResult >> q_value;
 143              		.loc 2 32 15 view .LVU35
 144 0004 00FB03F3 		mul	r3, r0, r3
 145 0008 01FB0233 		mla	r3, r1, r2, r3
 146 000c A0FB0101 		umull	r0, r1, r0, r1
 147              	.LVL9:
  32:../Common/IQMath/ti/_IQNmpy.h ****     iqNResult = iqNResult >> q_value;
 148              		.loc 2 32 15 view .LVU36
 149 0010 1944     		add	r1, r1, r3
 150              	.LVL10:
  33:../Common/IQMath/ti/_IQNmpy.h **** 
 151              		.loc 2 33 5 is_stmt 1 view .LVU37
  33:../Common/IQMath/ti/_IQNmpy.h **** 
 152              		.loc 2 33 15 is_stmt 0 view .LVU38
 153 0012 400F     		lsrs	r0, r0, #29
 154              	.LVL11:
 155              		.loc 2 35 5 is_stmt 1 view .LVU39
 156              		.loc 2 35 5 is_stmt 0 view .LVU40
 157              	.LBE69:
 158              	.LBE68:
  44:../Common/IQMath/ti/_IQNmpy.c **** }
 159              		.loc 1 44 1 view .LVU41
 160 0014 40EAC100 		orr	r0, r0, r1, lsl #3
 161 0018 7047     		bx	lr
 162              		.cfi_endproc
 163              	.LFE264:
 165              		.section	.text._IQ28mpy,"ax",%progbits
 166              		.align	1
 167              		.global	_IQ28mpy
 168              		.syntax unified
 169              		.thumb
 170              		.thumb_func
 172              	_IQ28mpy:
 173              	.LVL12:
 174              	.LFB265:
  45:../Common/IQMath/ti/_IQNmpy.c **** /**
  46:../Common/IQMath/ti/_IQNmpy.c ****  * @brief Multiplies two values of IQ28 format.
  47:../Common/IQMath/ti/_IQNmpy.c ****  *
  48:../Common/IQMath/ti/_IQNmpy.c ****  * @param a             IQ28 type value to be multiplied.
  49:../Common/IQMath/ti/_IQNmpy.c ****  * @param b             IQ28 type value to be multiplied.
  50:../Common/IQMath/ti/_IQNmpy.c ****  *
  51:../Common/IQMath/ti/_IQNmpy.c ****  * @return              IQ28 type result of the multiplication.    
  52:../Common/IQMath/ti/_IQNmpy.c ****  */
  53:../Common/IQMath/ti/_IQNmpy.c **** int32_t _IQ28mpy(int32_t a, int32_t b)
  54:../Common/IQMath/ti/_IQNmpy.c **** {
 175              		.loc 1 54 1 is_stmt 1 view -0
 176              		.cfi_startproc
 177              		@ args = 0, pretend = 0, frame = 0
 178              		@ frame_needed = 0, uses_anonymous_args = 0
 179              		@ link register save eliminated.
  55:../Common/IQMath/ti/_IQNmpy.c ****     return __IQNmpy(a, b, 28);
 180              		.loc 1 55 5 view .LVU43
 181              	.LBB70:
 182              	.LBI70:
  28:../Common/IQMath/ti/_IQNmpy.h **** {
 183              		.loc 2 28 30 view .LVU44
ARM GAS  C:\Users\57308\AppData\Local\Temp\cchS4miY.s 			page 6


 184              	.LBB71:
  30:../Common/IQMath/ti/_IQNmpy.h ****     
 185              		.loc 2 30 5 view .LVU45
  32:../Common/IQMath/ti/_IQNmpy.h ****     iqNResult = iqNResult >> q_value;
 186              		.loc 2 32 5 view .LVU46
  32:../Common/IQMath/ti/_IQNmpy.h ****     iqNResult = iqNResult >> q_value;
 187              		.loc 2 32 17 is_stmt 0 view .LVU47
 188 0000 C217     		asrs	r2, r0, #31
  32:../Common/IQMath/ti/_IQNmpy.h ****     iqNResult = iqNResult >> q_value;
 189              		.loc 2 32 43 view .LVU48
 190 0002 CB17     		asrs	r3, r1, #31
  32:../Common/IQMath/ti/_IQNmpy.h ****     iqNResult = iqNResult >> q_value;
 191              		.loc 2 32 15 view .LVU49
 192 0004 00FB03F3 		mul	r3, r0, r3
 193 0008 01FB0233 		mla	r3, r1, r2, r3
 194 000c A0FB0101 		umull	r0, r1, r0, r1
 195              	.LVL13:
  32:../Common/IQMath/ti/_IQNmpy.h ****     iqNResult = iqNResult >> q_value;
 196              		.loc 2 32 15 view .LVU50
 197 0010 1944     		add	r1, r1, r3
 198              	.LVL14:
  33:../Common/IQMath/ti/_IQNmpy.h **** 
 199              		.loc 2 33 5 is_stmt 1 view .LVU51
  33:../Common/IQMath/ti/_IQNmpy.h **** 
 200              		.loc 2 33 15 is_stmt 0 view .LVU52
 201 0012 000F     		lsrs	r0, r0, #28
 202              	.LVL15:
 203              		.loc 2 35 5 is_stmt 1 view .LVU53
 204              		.loc 2 35 5 is_stmt 0 view .LVU54
 205              	.LBE71:
 206              	.LBE70:
  56:../Common/IQMath/ti/_IQNmpy.c **** }
 207              		.loc 1 56 1 view .LVU55
 208 0014 40EA0110 		orr	r0, r0, r1, lsl #4
 209 0018 7047     		bx	lr
 210              		.cfi_endproc
 211              	.LFE265:
 213              		.section	.text._IQ27mpy,"ax",%progbits
 214              		.align	1
 215              		.global	_IQ27mpy
 216              		.syntax unified
 217              		.thumb
 218              		.thumb_func
 220              	_IQ27mpy:
 221              	.LVL16:
 222              	.LFB266:
  57:../Common/IQMath/ti/_IQNmpy.c **** /**
  58:../Common/IQMath/ti/_IQNmpy.c ****  * @brief Multiplies two values of IQ27 format.
  59:../Common/IQMath/ti/_IQNmpy.c ****  *
  60:../Common/IQMath/ti/_IQNmpy.c ****  * @param a             IQ27 type value to be multiplied.
  61:../Common/IQMath/ti/_IQNmpy.c ****  * @param b             IQ27 type value to be multiplied.
  62:../Common/IQMath/ti/_IQNmpy.c ****  *
  63:../Common/IQMath/ti/_IQNmpy.c ****  * @return              IQ27 type result of the multiplication.    
  64:../Common/IQMath/ti/_IQNmpy.c ****  */
  65:../Common/IQMath/ti/_IQNmpy.c **** int32_t _IQ27mpy(int32_t a, int32_t b)
  66:../Common/IQMath/ti/_IQNmpy.c **** {
 223              		.loc 1 66 1 is_stmt 1 view -0
ARM GAS  C:\Users\57308\AppData\Local\Temp\cchS4miY.s 			page 7


 224              		.cfi_startproc
 225              		@ args = 0, pretend = 0, frame = 0
 226              		@ frame_needed = 0, uses_anonymous_args = 0
 227              		@ link register save eliminated.
  67:../Common/IQMath/ti/_IQNmpy.c ****     return __IQNmpy(a, b, 27);
 228              		.loc 1 67 5 view .LVU57
 229              	.LBB72:
 230              	.LBI72:
  28:../Common/IQMath/ti/_IQNmpy.h **** {
 231              		.loc 2 28 30 view .LVU58
 232              	.LBB73:
  30:../Common/IQMath/ti/_IQNmpy.h ****     
 233              		.loc 2 30 5 view .LVU59
  32:../Common/IQMath/ti/_IQNmpy.h ****     iqNResult = iqNResult >> q_value;
 234              		.loc 2 32 5 view .LVU60
  32:../Common/IQMath/ti/_IQNmpy.h ****     iqNResult = iqNResult >> q_value;
 235              		.loc 2 32 17 is_stmt 0 view .LVU61
 236 0000 C217     		asrs	r2, r0, #31
  32:../Common/IQMath/ti/_IQNmpy.h ****     iqNResult = iqNResult >> q_value;
 237              		.loc 2 32 43 view .LVU62
 238 0002 CB17     		asrs	r3, r1, #31
  32:../Common/IQMath/ti/_IQNmpy.h ****     iqNResult = iqNResult >> q_value;
 239              		.loc 2 32 15 view .LVU63
 240 0004 00FB03F3 		mul	r3, r0, r3
 241 0008 01FB0233 		mla	r3, r1, r2, r3
 242 000c A0FB0101 		umull	r0, r1, r0, r1
 243              	.LVL17:
  32:../Common/IQMath/ti/_IQNmpy.h ****     iqNResult = iqNResult >> q_value;
 244              		.loc 2 32 15 view .LVU64
 245 0010 1944     		add	r1, r1, r3
 246              	.LVL18:
  33:../Common/IQMath/ti/_IQNmpy.h **** 
 247              		.loc 2 33 5 is_stmt 1 view .LVU65
  33:../Common/IQMath/ti/_IQNmpy.h **** 
 248              		.loc 2 33 15 is_stmt 0 view .LVU66
 249 0012 C00E     		lsrs	r0, r0, #27
 250              	.LVL19:
 251              		.loc 2 35 5 is_stmt 1 view .LVU67
 252              		.loc 2 35 5 is_stmt 0 view .LVU68
 253              	.LBE73:
 254              	.LBE72:
  68:../Common/IQMath/ti/_IQNmpy.c **** }
 255              		.loc 1 68 1 view .LVU69
 256 0014 40EA4110 		orr	r0, r0, r1, lsl #5
 257 0018 7047     		bx	lr
 258              		.cfi_endproc
 259              	.LFE266:
 261              		.section	.text._IQ26mpy,"ax",%progbits
 262              		.align	1
 263              		.global	_IQ26mpy
 264              		.syntax unified
 265              		.thumb
 266              		.thumb_func
 268              	_IQ26mpy:
 269              	.LVL20:
 270              	.LFB267:
  69:../Common/IQMath/ti/_IQNmpy.c **** /**
ARM GAS  C:\Users\57308\AppData\Local\Temp\cchS4miY.s 			page 8


  70:../Common/IQMath/ti/_IQNmpy.c ****  * @brief Multiplies two values of IQ26 format.
  71:../Common/IQMath/ti/_IQNmpy.c ****  *
  72:../Common/IQMath/ti/_IQNmpy.c ****  * @param a             IQ26 type value to be multiplied.
  73:../Common/IQMath/ti/_IQNmpy.c ****  * @param b             IQ26 type value to be multiplied.
  74:../Common/IQMath/ti/_IQNmpy.c ****  *
  75:../Common/IQMath/ti/_IQNmpy.c ****  * @return              IQ26 type result of the multiplication.    
  76:../Common/IQMath/ti/_IQNmpy.c ****  */
  77:../Common/IQMath/ti/_IQNmpy.c **** int32_t _IQ26mpy(int32_t a, int32_t b)
  78:../Common/IQMath/ti/_IQNmpy.c **** {
 271              		.loc 1 78 1 is_stmt 1 view -0
 272              		.cfi_startproc
 273              		@ args = 0, pretend = 0, frame = 0
 274              		@ frame_needed = 0, uses_anonymous_args = 0
 275              		@ link register save eliminated.
  79:../Common/IQMath/ti/_IQNmpy.c ****     return __IQNmpy(a, b, 26);
 276              		.loc 1 79 5 view .LVU71
 277              	.LBB74:
 278              	.LBI74:
  28:../Common/IQMath/ti/_IQNmpy.h **** {
 279              		.loc 2 28 30 view .LVU72
 280              	.LBB75:
  30:../Common/IQMath/ti/_IQNmpy.h ****     
 281              		.loc 2 30 5 view .LVU73
  32:../Common/IQMath/ti/_IQNmpy.h ****     iqNResult = iqNResult >> q_value;
 282              		.loc 2 32 5 view .LVU74
  32:../Common/IQMath/ti/_IQNmpy.h ****     iqNResult = iqNResult >> q_value;
 283              		.loc 2 32 17 is_stmt 0 view .LVU75
 284 0000 C217     		asrs	r2, r0, #31
  32:../Common/IQMath/ti/_IQNmpy.h ****     iqNResult = iqNResult >> q_value;
 285              		.loc 2 32 43 view .LVU76
 286 0002 CB17     		asrs	r3, r1, #31
  32:../Common/IQMath/ti/_IQNmpy.h ****     iqNResult = iqNResult >> q_value;
 287              		.loc 2 32 15 view .LVU77
 288 0004 00FB03F3 		mul	r3, r0, r3
 289 0008 01FB0233 		mla	r3, r1, r2, r3
 290 000c A0FB0101 		umull	r0, r1, r0, r1
 291              	.LVL21:
  32:../Common/IQMath/ti/_IQNmpy.h ****     iqNResult = iqNResult >> q_value;
 292              		.loc 2 32 15 view .LVU78
 293 0010 1944     		add	r1, r1, r3
 294              	.LVL22:
  33:../Common/IQMath/ti/_IQNmpy.h **** 
 295              		.loc 2 33 5 is_stmt 1 view .LVU79
  33:../Common/IQMath/ti/_IQNmpy.h **** 
 296              		.loc 2 33 15 is_stmt 0 view .LVU80
 297 0012 800E     		lsrs	r0, r0, #26
 298              	.LVL23:
 299              		.loc 2 35 5 is_stmt 1 view .LVU81
 300              		.loc 2 35 5 is_stmt 0 view .LVU82
 301              	.LBE75:
 302              	.LBE74:
  80:../Common/IQMath/ti/_IQNmpy.c **** }
 303              		.loc 1 80 1 view .LVU83
 304 0014 40EA8110 		orr	r0, r0, r1, lsl #6
 305 0018 7047     		bx	lr
 306              		.cfi_endproc
 307              	.LFE267:
ARM GAS  C:\Users\57308\AppData\Local\Temp\cchS4miY.s 			page 9


 309              		.section	.text._IQ25mpy,"ax",%progbits
 310              		.align	1
 311              		.global	_IQ25mpy
 312              		.syntax unified
 313              		.thumb
 314              		.thumb_func
 316              	_IQ25mpy:
 317              	.LVL24:
 318              	.LFB268:
  81:../Common/IQMath/ti/_IQNmpy.c **** /**
  82:../Common/IQMath/ti/_IQNmpy.c ****  * @brief Multiplies two values of IQ25 format.
  83:../Common/IQMath/ti/_IQNmpy.c ****  *
  84:../Common/IQMath/ti/_IQNmpy.c ****  * @param a             IQ25 type value to be multiplied.
  85:../Common/IQMath/ti/_IQNmpy.c ****  * @param b             IQ25 type value to be multiplied.
  86:../Common/IQMath/ti/_IQNmpy.c ****  *
  87:../Common/IQMath/ti/_IQNmpy.c ****  * @return              IQ25 type result of the multiplication.    
  88:../Common/IQMath/ti/_IQNmpy.c ****  */
  89:../Common/IQMath/ti/_IQNmpy.c **** int32_t _IQ25mpy(int32_t a, int32_t b)
  90:../Common/IQMath/ti/_IQNmpy.c **** {
 319              		.loc 1 90 1 is_stmt 1 view -0
 320              		.cfi_startproc
 321              		@ args = 0, pretend = 0, frame = 0
 322              		@ frame_needed = 0, uses_anonymous_args = 0
 323              		@ link register save eliminated.
  91:../Common/IQMath/ti/_IQNmpy.c ****     return __IQNmpy(a, b, 25);
 324              		.loc 1 91 5 view .LVU85
 325              	.LBB76:
 326              	.LBI76:
  28:../Common/IQMath/ti/_IQNmpy.h **** {
 327              		.loc 2 28 30 view .LVU86
 328              	.LBB77:
  30:../Common/IQMath/ti/_IQNmpy.h ****     
 329              		.loc 2 30 5 view .LVU87
  32:../Common/IQMath/ti/_IQNmpy.h ****     iqNResult = iqNResult >> q_value;
 330              		.loc 2 32 5 view .LVU88
  32:../Common/IQMath/ti/_IQNmpy.h ****     iqNResult = iqNResult >> q_value;
 331              		.loc 2 32 17 is_stmt 0 view .LVU89
 332 0000 C217     		asrs	r2, r0, #31
  32:../Common/IQMath/ti/_IQNmpy.h ****     iqNResult = iqNResult >> q_value;
 333              		.loc 2 32 43 view .LVU90
 334 0002 CB17     		asrs	r3, r1, #31
  32:../Common/IQMath/ti/_IQNmpy.h ****     iqNResult = iqNResult >> q_value;
 335              		.loc 2 32 15 view .LVU91
 336 0004 00FB03F3 		mul	r3, r0, r3
 337 0008 01FB0233 		mla	r3, r1, r2, r3
 338 000c A0FB0101 		umull	r0, r1, r0, r1
 339              	.LVL25:
  32:../Common/IQMath/ti/_IQNmpy.h ****     iqNResult = iqNResult >> q_value;
 340              		.loc 2 32 15 view .LVU92
 341 0010 1944     		add	r1, r1, r3
 342              	.LVL26:
  33:../Common/IQMath/ti/_IQNmpy.h **** 
 343              		.loc 2 33 5 is_stmt 1 view .LVU93
  33:../Common/IQMath/ti/_IQNmpy.h **** 
 344              		.loc 2 33 15 is_stmt 0 view .LVU94
 345 0012 400E     		lsrs	r0, r0, #25
 346              	.LVL27:
ARM GAS  C:\Users\57308\AppData\Local\Temp\cchS4miY.s 			page 10


 347              		.loc 2 35 5 is_stmt 1 view .LVU95
 348              		.loc 2 35 5 is_stmt 0 view .LVU96
 349              	.LBE77:
 350              	.LBE76:
  92:../Common/IQMath/ti/_IQNmpy.c **** }
 351              		.loc 1 92 1 view .LVU97
 352 0014 40EAC110 		orr	r0, r0, r1, lsl #7
 353 0018 7047     		bx	lr
 354              		.cfi_endproc
 355              	.LFE268:
 357              		.section	.text._IQ24mpy,"ax",%progbits
 358              		.align	1
 359              		.global	_IQ24mpy
 360              		.syntax unified
 361              		.thumb
 362              		.thumb_func
 364              	_IQ24mpy:
 365              	.LVL28:
 366              	.LFB269:
  93:../Common/IQMath/ti/_IQNmpy.c **** /**
  94:../Common/IQMath/ti/_IQNmpy.c ****  * @brief Multiplies two values of IQ24 format.
  95:../Common/IQMath/ti/_IQNmpy.c ****  *
  96:../Common/IQMath/ti/_IQNmpy.c ****  * @param a             IQ24 type value to be multiplied.
  97:../Common/IQMath/ti/_IQNmpy.c ****  * @param b             IQ24 type value to be multiplied.
  98:../Common/IQMath/ti/_IQNmpy.c ****  *
  99:../Common/IQMath/ti/_IQNmpy.c ****  * @return              IQ24 type result of the multiplication.    
 100:../Common/IQMath/ti/_IQNmpy.c ****  */
 101:../Common/IQMath/ti/_IQNmpy.c **** int32_t _IQ24mpy(int32_t a, int32_t b)
 102:../Common/IQMath/ti/_IQNmpy.c **** {
 367              		.loc 1 102 1 is_stmt 1 view -0
 368              		.cfi_startproc
 369              		@ args = 0, pretend = 0, frame = 0
 370              		@ frame_needed = 0, uses_anonymous_args = 0
 371              		@ link register save eliminated.
 103:../Common/IQMath/ti/_IQNmpy.c ****     return __IQNmpy(a, b, 24);
 372              		.loc 1 103 5 view .LVU99
 373              	.LBB78:
 374              	.LBI78:
  28:../Common/IQMath/ti/_IQNmpy.h **** {
 375              		.loc 2 28 30 view .LVU100
 376              	.LBB79:
  30:../Common/IQMath/ti/_IQNmpy.h ****     
 377              		.loc 2 30 5 view .LVU101
  32:../Common/IQMath/ti/_IQNmpy.h ****     iqNResult = iqNResult >> q_value;
 378              		.loc 2 32 5 view .LVU102
  32:../Common/IQMath/ti/_IQNmpy.h ****     iqNResult = iqNResult >> q_value;
 379              		.loc 2 32 17 is_stmt 0 view .LVU103
 380 0000 C217     		asrs	r2, r0, #31
  32:../Common/IQMath/ti/_IQNmpy.h ****     iqNResult = iqNResult >> q_value;
 381              		.loc 2 32 43 view .LVU104
 382 0002 CB17     		asrs	r3, r1, #31
  32:../Common/IQMath/ti/_IQNmpy.h ****     iqNResult = iqNResult >> q_value;
 383              		.loc 2 32 15 view .LVU105
 384 0004 00FB03F3 		mul	r3, r0, r3
 385 0008 01FB0233 		mla	r3, r1, r2, r3
 386 000c A0FB0101 		umull	r0, r1, r0, r1
 387              	.LVL29:
ARM GAS  C:\Users\57308\AppData\Local\Temp\cchS4miY.s 			page 11


  32:../Common/IQMath/ti/_IQNmpy.h ****     iqNResult = iqNResult >> q_value;
 388              		.loc 2 32 15 view .LVU106
 389 0010 1944     		add	r1, r1, r3
 390              	.LVL30:
  33:../Common/IQMath/ti/_IQNmpy.h **** 
 391              		.loc 2 33 5 is_stmt 1 view .LVU107
  33:../Common/IQMath/ti/_IQNmpy.h **** 
 392              		.loc 2 33 15 is_stmt 0 view .LVU108
 393 0012 000E     		lsrs	r0, r0, #24
 394              	.LVL31:
 395              		.loc 2 35 5 is_stmt 1 view .LVU109
 396              		.loc 2 35 5 is_stmt 0 view .LVU110
 397              	.LBE79:
 398              	.LBE78:
 104:../Common/IQMath/ti/_IQNmpy.c **** }
 399              		.loc 1 104 1 view .LVU111
 400 0014 40EA0120 		orr	r0, r0, r1, lsl #8
 401 0018 7047     		bx	lr
 402              		.cfi_endproc
 403              	.LFE269:
 405              		.section	.text._IQ23mpy,"ax",%progbits
 406              		.align	1
 407              		.global	_IQ23mpy
 408              		.syntax unified
 409              		.thumb
 410              		.thumb_func
 412              	_IQ23mpy:
 413              	.LVL32:
 414              	.LFB270:
 105:../Common/IQMath/ti/_IQNmpy.c **** /**
 106:../Common/IQMath/ti/_IQNmpy.c ****  * @brief Multiplies two values of IQ23 format.
 107:../Common/IQMath/ti/_IQNmpy.c ****  *
 108:../Common/IQMath/ti/_IQNmpy.c ****  * @param a             IQ23 type value to be multiplied.
 109:../Common/IQMath/ti/_IQNmpy.c ****  * @param b             IQ23 type value to be multiplied.
 110:../Common/IQMath/ti/_IQNmpy.c ****  *
 111:../Common/IQMath/ti/_IQNmpy.c ****  * @return              IQ23 type result of the multiplication.    
 112:../Common/IQMath/ti/_IQNmpy.c ****  */
 113:../Common/IQMath/ti/_IQNmpy.c **** int32_t _IQ23mpy(int32_t a, int32_t b)
 114:../Common/IQMath/ti/_IQNmpy.c **** {
 415              		.loc 1 114 1 is_stmt 1 view -0
 416              		.cfi_startproc
 417              		@ args = 0, pretend = 0, frame = 0
 418              		@ frame_needed = 0, uses_anonymous_args = 0
 419              		@ link register save eliminated.
 115:../Common/IQMath/ti/_IQNmpy.c ****     return __IQNmpy(a, b, 23);
 420              		.loc 1 115 5 view .LVU113
 421              	.LBB80:
 422              	.LBI80:
  28:../Common/IQMath/ti/_IQNmpy.h **** {
 423              		.loc 2 28 30 view .LVU114
 424              	.LBB81:
  30:../Common/IQMath/ti/_IQNmpy.h ****     
 425              		.loc 2 30 5 view .LVU115
  32:../Common/IQMath/ti/_IQNmpy.h ****     iqNResult = iqNResult >> q_value;
 426              		.loc 2 32 5 view .LVU116
  32:../Common/IQMath/ti/_IQNmpy.h ****     iqNResult = iqNResult >> q_value;
 427              		.loc 2 32 17 is_stmt 0 view .LVU117
ARM GAS  C:\Users\57308\AppData\Local\Temp\cchS4miY.s 			page 12


 428 0000 C217     		asrs	r2, r0, #31
  32:../Common/IQMath/ti/_IQNmpy.h ****     iqNResult = iqNResult >> q_value;
 429              		.loc 2 32 43 view .LVU118
 430 0002 CB17     		asrs	r3, r1, #31
  32:../Common/IQMath/ti/_IQNmpy.h ****     iqNResult = iqNResult >> q_value;
 431              		.loc 2 32 15 view .LVU119
 432 0004 00FB03F3 		mul	r3, r0, r3
 433 0008 01FB0233 		mla	r3, r1, r2, r3
 434 000c A0FB0101 		umull	r0, r1, r0, r1
 435              	.LVL33:
  32:../Common/IQMath/ti/_IQNmpy.h ****     iqNResult = iqNResult >> q_value;
 436              		.loc 2 32 15 view .LVU120
 437 0010 1944     		add	r1, r1, r3
 438              	.LVL34:
  33:../Common/IQMath/ti/_IQNmpy.h **** 
 439              		.loc 2 33 5 is_stmt 1 view .LVU121
  33:../Common/IQMath/ti/_IQNmpy.h **** 
 440              		.loc 2 33 15 is_stmt 0 view .LVU122
 441 0012 C00D     		lsrs	r0, r0, #23
 442              	.LVL35:
 443              		.loc 2 35 5 is_stmt 1 view .LVU123
 444              		.loc 2 35 5 is_stmt 0 view .LVU124
 445              	.LBE81:
 446              	.LBE80:
 116:../Common/IQMath/ti/_IQNmpy.c **** }
 447              		.loc 1 116 1 view .LVU125
 448 0014 40EA4120 		orr	r0, r0, r1, lsl #9
 449 0018 7047     		bx	lr
 450              		.cfi_endproc
 451              	.LFE270:
 453              		.section	.text._IQ22mpy,"ax",%progbits
 454              		.align	1
 455              		.global	_IQ22mpy
 456              		.syntax unified
 457              		.thumb
 458              		.thumb_func
 460              	_IQ22mpy:
 461              	.LVL36:
 462              	.LFB271:
 117:../Common/IQMath/ti/_IQNmpy.c **** /**
 118:../Common/IQMath/ti/_IQNmpy.c ****  * @brief Multiplies two values of IQ22 format.
 119:../Common/IQMath/ti/_IQNmpy.c ****  *
 120:../Common/IQMath/ti/_IQNmpy.c ****  * @param a             IQ22 type value to be multiplied.
 121:../Common/IQMath/ti/_IQNmpy.c ****  * @param b             IQ22 type value to be multiplied.
 122:../Common/IQMath/ti/_IQNmpy.c ****  *
 123:../Common/IQMath/ti/_IQNmpy.c ****  * @return              IQ22 type result of the multiplication.    
 124:../Common/IQMath/ti/_IQNmpy.c ****  */
 125:../Common/IQMath/ti/_IQNmpy.c **** int32_t _IQ22mpy(int32_t a, int32_t b)
 126:../Common/IQMath/ti/_IQNmpy.c **** {
 463              		.loc 1 126 1 is_stmt 1 view -0
 464              		.cfi_startproc
 465              		@ args = 0, pretend = 0, frame = 0
 466              		@ frame_needed = 0, uses_anonymous_args = 0
 467              		@ link register save eliminated.
 127:../Common/IQMath/ti/_IQNmpy.c ****     return __IQNmpy(a, b, 22);
 468              		.loc 1 127 5 view .LVU127
 469              	.LBB82:
ARM GAS  C:\Users\57308\AppData\Local\Temp\cchS4miY.s 			page 13


 470              	.LBI82:
  28:../Common/IQMath/ti/_IQNmpy.h **** {
 471              		.loc 2 28 30 view .LVU128
 472              	.LBB83:
  30:../Common/IQMath/ti/_IQNmpy.h ****     
 473              		.loc 2 30 5 view .LVU129
  32:../Common/IQMath/ti/_IQNmpy.h ****     iqNResult = iqNResult >> q_value;
 474              		.loc 2 32 5 view .LVU130
  32:../Common/IQMath/ti/_IQNmpy.h ****     iqNResult = iqNResult >> q_value;
 475              		.loc 2 32 17 is_stmt 0 view .LVU131
 476 0000 C217     		asrs	r2, r0, #31
  32:../Common/IQMath/ti/_IQNmpy.h ****     iqNResult = iqNResult >> q_value;
 477              		.loc 2 32 43 view .LVU132
 478 0002 CB17     		asrs	r3, r1, #31
  32:../Common/IQMath/ti/_IQNmpy.h ****     iqNResult = iqNResult >> q_value;
 479              		.loc 2 32 15 view .LVU133
 480 0004 00FB03F3 		mul	r3, r0, r3
 481 0008 01FB0233 		mla	r3, r1, r2, r3
 482 000c A0FB0101 		umull	r0, r1, r0, r1
 483              	.LVL37:
  32:../Common/IQMath/ti/_IQNmpy.h ****     iqNResult = iqNResult >> q_value;
 484              		.loc 2 32 15 view .LVU134
 485 0010 1944     		add	r1, r1, r3
 486              	.LVL38:
  33:../Common/IQMath/ti/_IQNmpy.h **** 
 487              		.loc 2 33 5 is_stmt 1 view .LVU135
  33:../Common/IQMath/ti/_IQNmpy.h **** 
 488              		.loc 2 33 15 is_stmt 0 view .LVU136
 489 0012 800D     		lsrs	r0, r0, #22
 490              	.LVL39:
 491              		.loc 2 35 5 is_stmt 1 view .LVU137
 492              		.loc 2 35 5 is_stmt 0 view .LVU138
 493              	.LBE83:
 494              	.LBE82:
 128:../Common/IQMath/ti/_IQNmpy.c **** }
 495              		.loc 1 128 1 view .LVU139
 496 0014 40EA8120 		orr	r0, r0, r1, lsl #10
 497 0018 7047     		bx	lr
 498              		.cfi_endproc
 499              	.LFE271:
 501              		.section	.text._IQ21mpy,"ax",%progbits
 502              		.align	1
 503              		.global	_IQ21mpy
 504              		.syntax unified
 505              		.thumb
 506              		.thumb_func
 508              	_IQ21mpy:
 509              	.LVL40:
 510              	.LFB272:
 129:../Common/IQMath/ti/_IQNmpy.c **** /**
 130:../Common/IQMath/ti/_IQNmpy.c ****  * @brief Multiplies two values of IQ21 format.
 131:../Common/IQMath/ti/_IQNmpy.c ****  *
 132:../Common/IQMath/ti/_IQNmpy.c ****  * @param a             IQ21 type value to be multiplied.
 133:../Common/IQMath/ti/_IQNmpy.c ****  * @param b             IQ21 type value to be multiplied.
 134:../Common/IQMath/ti/_IQNmpy.c ****  *
 135:../Common/IQMath/ti/_IQNmpy.c ****  * @return              IQ21 type result of the multiplication.    
 136:../Common/IQMath/ti/_IQNmpy.c ****  */
ARM GAS  C:\Users\57308\AppData\Local\Temp\cchS4miY.s 			page 14


 137:../Common/IQMath/ti/_IQNmpy.c **** int32_t _IQ21mpy(int32_t a, int32_t b)
 138:../Common/IQMath/ti/_IQNmpy.c **** {
 511              		.loc 1 138 1 is_stmt 1 view -0
 512              		.cfi_startproc
 513              		@ args = 0, pretend = 0, frame = 0
 514              		@ frame_needed = 0, uses_anonymous_args = 0
 515              		@ link register save eliminated.
 139:../Common/IQMath/ti/_IQNmpy.c ****     return __IQNmpy(a, b, 21);
 516              		.loc 1 139 5 view .LVU141
 517              	.LBB84:
 518              	.LBI84:
  28:../Common/IQMath/ti/_IQNmpy.h **** {
 519              		.loc 2 28 30 view .LVU142
 520              	.LBB85:
  30:../Common/IQMath/ti/_IQNmpy.h ****     
 521              		.loc 2 30 5 view .LVU143
  32:../Common/IQMath/ti/_IQNmpy.h ****     iqNResult = iqNResult >> q_value;
 522              		.loc 2 32 5 view .LVU144
  32:../Common/IQMath/ti/_IQNmpy.h ****     iqNResult = iqNResult >> q_value;
 523              		.loc 2 32 17 is_stmt 0 view .LVU145
 524 0000 C217     		asrs	r2, r0, #31
  32:../Common/IQMath/ti/_IQNmpy.h ****     iqNResult = iqNResult >> q_value;
 525              		.loc 2 32 43 view .LVU146
 526 0002 CB17     		asrs	r3, r1, #31
  32:../Common/IQMath/ti/_IQNmpy.h ****     iqNResult = iqNResult >> q_value;
 527              		.loc 2 32 15 view .LVU147
 528 0004 00FB03F3 		mul	r3, r0, r3
 529 0008 01FB0233 		mla	r3, r1, r2, r3
 530 000c A0FB0101 		umull	r0, r1, r0, r1
 531              	.LVL41:
  32:../Common/IQMath/ti/_IQNmpy.h ****     iqNResult = iqNResult >> q_value;
 532              		.loc 2 32 15 view .LVU148
 533 0010 1944     		add	r1, r1, r3
 534              	.LVL42:
  33:../Common/IQMath/ti/_IQNmpy.h **** 
 535              		.loc 2 33 5 is_stmt 1 view .LVU149
  33:../Common/IQMath/ti/_IQNmpy.h **** 
 536              		.loc 2 33 15 is_stmt 0 view .LVU150
 537 0012 400D     		lsrs	r0, r0, #21
 538              	.LVL43:
 539              		.loc 2 35 5 is_stmt 1 view .LVU151
 540              		.loc 2 35 5 is_stmt 0 view .LVU152
 541              	.LBE85:
 542              	.LBE84:
 140:../Common/IQMath/ti/_IQNmpy.c **** }
 543              		.loc 1 140 1 view .LVU153
 544 0014 40EAC120 		orr	r0, r0, r1, lsl #11
 545 0018 7047     		bx	lr
 546              		.cfi_endproc
 547              	.LFE272:
 549              		.section	.text._IQ20mpy,"ax",%progbits
 550              		.align	1
 551              		.global	_IQ20mpy
 552              		.syntax unified
 553              		.thumb
 554              		.thumb_func
 556              	_IQ20mpy:
ARM GAS  C:\Users\57308\AppData\Local\Temp\cchS4miY.s 			page 15


 557              	.LVL44:
 558              	.LFB273:
 141:../Common/IQMath/ti/_IQNmpy.c **** /**
 142:../Common/IQMath/ti/_IQNmpy.c ****  * @brief Multiplies two values of IQ20 format.
 143:../Common/IQMath/ti/_IQNmpy.c ****  *
 144:../Common/IQMath/ti/_IQNmpy.c ****  * @param a             IQ20 type value to be multiplied.
 145:../Common/IQMath/ti/_IQNmpy.c ****  * @param b             IQ20 type value to be multiplied.
 146:../Common/IQMath/ti/_IQNmpy.c ****  *
 147:../Common/IQMath/ti/_IQNmpy.c ****  * @return              IQ20 type result of the multiplication.    
 148:../Common/IQMath/ti/_IQNmpy.c ****  */
 149:../Common/IQMath/ti/_IQNmpy.c **** int32_t _IQ20mpy(int32_t a, int32_t b)
 150:../Common/IQMath/ti/_IQNmpy.c **** {
 559              		.loc 1 150 1 is_stmt 1 view -0
 560              		.cfi_startproc
 561              		@ args = 0, pretend = 0, frame = 0
 562              		@ frame_needed = 0, uses_anonymous_args = 0
 563              		@ link register save eliminated.
 151:../Common/IQMath/ti/_IQNmpy.c ****     return __IQNmpy(a, b, 20);
 564              		.loc 1 151 5 view .LVU155
 565              	.LBB86:
 566              	.LBI86:
  28:../Common/IQMath/ti/_IQNmpy.h **** {
 567              		.loc 2 28 30 view .LVU156
 568              	.LBB87:
  30:../Common/IQMath/ti/_IQNmpy.h ****     
 569              		.loc 2 30 5 view .LVU157
  32:../Common/IQMath/ti/_IQNmpy.h ****     iqNResult = iqNResult >> q_value;
 570              		.loc 2 32 5 view .LVU158
  32:../Common/IQMath/ti/_IQNmpy.h ****     iqNResult = iqNResult >> q_value;
 571              		.loc 2 32 17 is_stmt 0 view .LVU159
 572 0000 C217     		asrs	r2, r0, #31
  32:../Common/IQMath/ti/_IQNmpy.h ****     iqNResult = iqNResult >> q_value;
 573              		.loc 2 32 43 view .LVU160
 574 0002 CB17     		asrs	r3, r1, #31
  32:../Common/IQMath/ti/_IQNmpy.h ****     iqNResult = iqNResult >> q_value;
 575              		.loc 2 32 15 view .LVU161
 576 0004 00FB03F3 		mul	r3, r0, r3
 577 0008 01FB0233 		mla	r3, r1, r2, r3
 578 000c A0FB0101 		umull	r0, r1, r0, r1
 579              	.LVL45:
  32:../Common/IQMath/ti/_IQNmpy.h ****     iqNResult = iqNResult >> q_value;
 580              		.loc 2 32 15 view .LVU162
 581 0010 1944     		add	r1, r1, r3
 582              	.LVL46:
  33:../Common/IQMath/ti/_IQNmpy.h **** 
 583              		.loc 2 33 5 is_stmt 1 view .LVU163
  33:../Common/IQMath/ti/_IQNmpy.h **** 
 584              		.loc 2 33 15 is_stmt 0 view .LVU164
 585 0012 000D     		lsrs	r0, r0, #20
 586              	.LVL47:
 587              		.loc 2 35 5 is_stmt 1 view .LVU165
 588              		.loc 2 35 5 is_stmt 0 view .LVU166
 589              	.LBE87:
 590              	.LBE86:
 152:../Common/IQMath/ti/_IQNmpy.c **** }
 591              		.loc 1 152 1 view .LVU167
 592 0014 40EA0130 		orr	r0, r0, r1, lsl #12
ARM GAS  C:\Users\57308\AppData\Local\Temp\cchS4miY.s 			page 16


 593 0018 7047     		bx	lr
 594              		.cfi_endproc
 595              	.LFE273:
 597              		.section	.text._IQ19mpy,"ax",%progbits
 598              		.align	1
 599              		.global	_IQ19mpy
 600              		.syntax unified
 601              		.thumb
 602              		.thumb_func
 604              	_IQ19mpy:
 605              	.LVL48:
 606              	.LFB274:
 153:../Common/IQMath/ti/_IQNmpy.c **** /**
 154:../Common/IQMath/ti/_IQNmpy.c ****  * @brief Multiplies two values of IQ19 format.
 155:../Common/IQMath/ti/_IQNmpy.c ****  *
 156:../Common/IQMath/ti/_IQNmpy.c ****  * @param a             IQ19 type value to be multiplied.
 157:../Common/IQMath/ti/_IQNmpy.c ****  * @param b             IQ19 type value to be multiplied.
 158:../Common/IQMath/ti/_IQNmpy.c ****  *
 159:../Common/IQMath/ti/_IQNmpy.c ****  * @return              IQ19 type result of the multiplication.    
 160:../Common/IQMath/ti/_IQNmpy.c ****  */
 161:../Common/IQMath/ti/_IQNmpy.c **** int32_t _IQ19mpy(int32_t a, int32_t b)
 162:../Common/IQMath/ti/_IQNmpy.c **** {
 607              		.loc 1 162 1 is_stmt 1 view -0
 608              		.cfi_startproc
 609              		@ args = 0, pretend = 0, frame = 0
 610              		@ frame_needed = 0, uses_anonymous_args = 0
 611              		@ link register save eliminated.
 163:../Common/IQMath/ti/_IQNmpy.c ****     return __IQNmpy(a, b, 19);
 612              		.loc 1 163 5 view .LVU169
 613              	.LBB88:
 614              	.LBI88:
  28:../Common/IQMath/ti/_IQNmpy.h **** {
 615              		.loc 2 28 30 view .LVU170
 616              	.LBB89:
  30:../Common/IQMath/ti/_IQNmpy.h ****     
 617              		.loc 2 30 5 view .LVU171
  32:../Common/IQMath/ti/_IQNmpy.h ****     iqNResult = iqNResult >> q_value;
 618              		.loc 2 32 5 view .LVU172
  32:../Common/IQMath/ti/_IQNmpy.h ****     iqNResult = iqNResult >> q_value;
 619              		.loc 2 32 17 is_stmt 0 view .LVU173
 620 0000 C217     		asrs	r2, r0, #31
  32:../Common/IQMath/ti/_IQNmpy.h ****     iqNResult = iqNResult >> q_value;
 621              		.loc 2 32 43 view .LVU174
 622 0002 CB17     		asrs	r3, r1, #31
  32:../Common/IQMath/ti/_IQNmpy.h ****     iqNResult = iqNResult >> q_value;
 623              		.loc 2 32 15 view .LVU175
 624 0004 00FB03F3 		mul	r3, r0, r3
 625 0008 01FB0233 		mla	r3, r1, r2, r3
 626 000c A0FB0101 		umull	r0, r1, r0, r1
 627              	.LVL49:
  32:../Common/IQMath/ti/_IQNmpy.h ****     iqNResult = iqNResult >> q_value;
 628              		.loc 2 32 15 view .LVU176
 629 0010 1944     		add	r1, r1, r3
 630              	.LVL50:
  33:../Common/IQMath/ti/_IQNmpy.h **** 
 631              		.loc 2 33 5 is_stmt 1 view .LVU177
  33:../Common/IQMath/ti/_IQNmpy.h **** 
ARM GAS  C:\Users\57308\AppData\Local\Temp\cchS4miY.s 			page 17


 632              		.loc 2 33 15 is_stmt 0 view .LVU178
 633 0012 C00C     		lsrs	r0, r0, #19
 634              	.LVL51:
 635              		.loc 2 35 5 is_stmt 1 view .LVU179
 636              		.loc 2 35 5 is_stmt 0 view .LVU180
 637              	.LBE89:
 638              	.LBE88:
 164:../Common/IQMath/ti/_IQNmpy.c **** }
 639              		.loc 1 164 1 view .LVU181
 640 0014 40EA4130 		orr	r0, r0, r1, lsl #13
 641 0018 7047     		bx	lr
 642              		.cfi_endproc
 643              	.LFE274:
 645              		.section	.text._IQ18mpy,"ax",%progbits
 646              		.align	1
 647              		.global	_IQ18mpy
 648              		.syntax unified
 649              		.thumb
 650              		.thumb_func
 652              	_IQ18mpy:
 653              	.LVL52:
 654              	.LFB275:
 165:../Common/IQMath/ti/_IQNmpy.c **** /**
 166:../Common/IQMath/ti/_IQNmpy.c ****  * @brief Multiplies two values of IQ18 format.
 167:../Common/IQMath/ti/_IQNmpy.c ****  *
 168:../Common/IQMath/ti/_IQNmpy.c ****  * @param a             IQ18 type value to be multiplied.
 169:../Common/IQMath/ti/_IQNmpy.c ****  * @param b             IQ18 type value to be multiplied.
 170:../Common/IQMath/ti/_IQNmpy.c ****  *
 171:../Common/IQMath/ti/_IQNmpy.c ****  * @return              IQ18 type result of the multiplication.    
 172:../Common/IQMath/ti/_IQNmpy.c ****  */
 173:../Common/IQMath/ti/_IQNmpy.c **** int32_t _IQ18mpy(int32_t a, int32_t b)
 174:../Common/IQMath/ti/_IQNmpy.c **** {
 655              		.loc 1 174 1 is_stmt 1 view -0
 656              		.cfi_startproc
 657              		@ args = 0, pretend = 0, frame = 0
 658              		@ frame_needed = 0, uses_anonymous_args = 0
 659              		@ link register save eliminated.
 175:../Common/IQMath/ti/_IQNmpy.c ****     return __IQNmpy(a, b, 18);
 660              		.loc 1 175 5 view .LVU183
 661              	.LBB90:
 662              	.LBI90:
  28:../Common/IQMath/ti/_IQNmpy.h **** {
 663              		.loc 2 28 30 view .LVU184
 664              	.LBB91:
  30:../Common/IQMath/ti/_IQNmpy.h ****     
 665              		.loc 2 30 5 view .LVU185
  32:../Common/IQMath/ti/_IQNmpy.h ****     iqNResult = iqNResult >> q_value;
 666              		.loc 2 32 5 view .LVU186
  32:../Common/IQMath/ti/_IQNmpy.h ****     iqNResult = iqNResult >> q_value;
 667              		.loc 2 32 17 is_stmt 0 view .LVU187
 668 0000 C217     		asrs	r2, r0, #31
  32:../Common/IQMath/ti/_IQNmpy.h ****     iqNResult = iqNResult >> q_value;
 669              		.loc 2 32 43 view .LVU188
 670 0002 CB17     		asrs	r3, r1, #31
  32:../Common/IQMath/ti/_IQNmpy.h ****     iqNResult = iqNResult >> q_value;
 671              		.loc 2 32 15 view .LVU189
 672 0004 00FB03F3 		mul	r3, r0, r3
ARM GAS  C:\Users\57308\AppData\Local\Temp\cchS4miY.s 			page 18


 673 0008 01FB0233 		mla	r3, r1, r2, r3
 674 000c A0FB0101 		umull	r0, r1, r0, r1
 675              	.LVL53:
  32:../Common/IQMath/ti/_IQNmpy.h ****     iqNResult = iqNResult >> q_value;
 676              		.loc 2 32 15 view .LVU190
 677 0010 1944     		add	r1, r1, r3
 678              	.LVL54:
  33:../Common/IQMath/ti/_IQNmpy.h **** 
 679              		.loc 2 33 5 is_stmt 1 view .LVU191
  33:../Common/IQMath/ti/_IQNmpy.h **** 
 680              		.loc 2 33 15 is_stmt 0 view .LVU192
 681 0012 800C     		lsrs	r0, r0, #18
 682              	.LVL55:
 683              		.loc 2 35 5 is_stmt 1 view .LVU193
 684              		.loc 2 35 5 is_stmt 0 view .LVU194
 685              	.LBE91:
 686              	.LBE90:
 176:../Common/IQMath/ti/_IQNmpy.c **** }
 687              		.loc 1 176 1 view .LVU195
 688 0014 40EA8130 		orr	r0, r0, r1, lsl #14
 689 0018 7047     		bx	lr
 690              		.cfi_endproc
 691              	.LFE275:
 693              		.section	.text._IQ17mpy,"ax",%progbits
 694              		.align	1
 695              		.global	_IQ17mpy
 696              		.syntax unified
 697              		.thumb
 698              		.thumb_func
 700              	_IQ17mpy:
 701              	.LVL56:
 702              	.LFB276:
 177:../Common/IQMath/ti/_IQNmpy.c **** /**
 178:../Common/IQMath/ti/_IQNmpy.c ****  * @brief Multiplies two values of IQ17 format.
 179:../Common/IQMath/ti/_IQNmpy.c ****  *
 180:../Common/IQMath/ti/_IQNmpy.c ****  * @param a             IQ17 type value to be multiplied.
 181:../Common/IQMath/ti/_IQNmpy.c ****  * @param b             IQ17 type value to be multiplied.
 182:../Common/IQMath/ti/_IQNmpy.c ****  *
 183:../Common/IQMath/ti/_IQNmpy.c ****  * @return              IQ17 type result of the multiplication.    
 184:../Common/IQMath/ti/_IQNmpy.c ****  */
 185:../Common/IQMath/ti/_IQNmpy.c **** int32_t _IQ17mpy(int32_t a, int32_t b)
 186:../Common/IQMath/ti/_IQNmpy.c **** {
 703              		.loc 1 186 1 is_stmt 1 view -0
 704              		.cfi_startproc
 705              		@ args = 0, pretend = 0, frame = 0
 706              		@ frame_needed = 0, uses_anonymous_args = 0
 707              		@ link register save eliminated.
 187:../Common/IQMath/ti/_IQNmpy.c ****     return __IQNmpy(a, b, 17);
 708              		.loc 1 187 5 view .LVU197
 709              	.LBB92:
 710              	.LBI92:
  28:../Common/IQMath/ti/_IQNmpy.h **** {
 711              		.loc 2 28 30 view .LVU198
 712              	.LBB93:
  30:../Common/IQMath/ti/_IQNmpy.h ****     
 713              		.loc 2 30 5 view .LVU199
  32:../Common/IQMath/ti/_IQNmpy.h ****     iqNResult = iqNResult >> q_value;
ARM GAS  C:\Users\57308\AppData\Local\Temp\cchS4miY.s 			page 19


 714              		.loc 2 32 5 view .LVU200
  32:../Common/IQMath/ti/_IQNmpy.h ****     iqNResult = iqNResult >> q_value;
 715              		.loc 2 32 17 is_stmt 0 view .LVU201
 716 0000 C217     		asrs	r2, r0, #31
  32:../Common/IQMath/ti/_IQNmpy.h ****     iqNResult = iqNResult >> q_value;
 717              		.loc 2 32 43 view .LVU202
 718 0002 CB17     		asrs	r3, r1, #31
  32:../Common/IQMath/ti/_IQNmpy.h ****     iqNResult = iqNResult >> q_value;
 719              		.loc 2 32 15 view .LVU203
 720 0004 00FB03F3 		mul	r3, r0, r3
 721 0008 01FB0233 		mla	r3, r1, r2, r3
 722 000c A0FB0101 		umull	r0, r1, r0, r1
 723              	.LVL57:
  32:../Common/IQMath/ti/_IQNmpy.h ****     iqNResult = iqNResult >> q_value;
 724              		.loc 2 32 15 view .LVU204
 725 0010 1944     		add	r1, r1, r3
 726              	.LVL58:
  33:../Common/IQMath/ti/_IQNmpy.h **** 
 727              		.loc 2 33 5 is_stmt 1 view .LVU205
  33:../Common/IQMath/ti/_IQNmpy.h **** 
 728              		.loc 2 33 15 is_stmt 0 view .LVU206
 729 0012 400C     		lsrs	r0, r0, #17
 730              	.LVL59:
 731              		.loc 2 35 5 is_stmt 1 view .LVU207
 732              		.loc 2 35 5 is_stmt 0 view .LVU208
 733              	.LBE93:
 734              	.LBE92:
 188:../Common/IQMath/ti/_IQNmpy.c **** }
 735              		.loc 1 188 1 view .LVU209
 736 0014 40EAC130 		orr	r0, r0, r1, lsl #15
 737 0018 7047     		bx	lr
 738              		.cfi_endproc
 739              	.LFE276:
 741              		.section	.text._IQ16mpy,"ax",%progbits
 742              		.align	1
 743              		.global	_IQ16mpy
 744              		.syntax unified
 745              		.thumb
 746              		.thumb_func
 748              	_IQ16mpy:
 749              	.LVL60:
 750              	.LFB277:
 189:../Common/IQMath/ti/_IQNmpy.c **** /**
 190:../Common/IQMath/ti/_IQNmpy.c ****  * @brief Multiplies two values of IQ16 format.
 191:../Common/IQMath/ti/_IQNmpy.c ****  *
 192:../Common/IQMath/ti/_IQNmpy.c ****  * @param a             IQ16 type value to be multiplied.
 193:../Common/IQMath/ti/_IQNmpy.c ****  * @param b             IQ16 type value to be multiplied.
 194:../Common/IQMath/ti/_IQNmpy.c ****  *
 195:../Common/IQMath/ti/_IQNmpy.c ****  * @return              IQ16 type result of the multiplication.    
 196:../Common/IQMath/ti/_IQNmpy.c ****  */
 197:../Common/IQMath/ti/_IQNmpy.c **** int32_t _IQ16mpy(int32_t a, int32_t b)
 198:../Common/IQMath/ti/_IQNmpy.c **** {
 751              		.loc 1 198 1 is_stmt 1 view -0
 752              		.cfi_startproc
 753              		@ args = 0, pretend = 0, frame = 0
 754              		@ frame_needed = 0, uses_anonymous_args = 0
 755              		@ link register save eliminated.
ARM GAS  C:\Users\57308\AppData\Local\Temp\cchS4miY.s 			page 20


 199:../Common/IQMath/ti/_IQNmpy.c ****     return __IQNmpy(a, b, 16);
 756              		.loc 1 199 5 view .LVU211
 757              	.LBB94:
 758              	.LBI94:
  28:../Common/IQMath/ti/_IQNmpy.h **** {
 759              		.loc 2 28 30 view .LVU212
 760              	.LBB95:
  30:../Common/IQMath/ti/_IQNmpy.h ****     
 761              		.loc 2 30 5 view .LVU213
  32:../Common/IQMath/ti/_IQNmpy.h ****     iqNResult = iqNResult >> q_value;
 762              		.loc 2 32 5 view .LVU214
  32:../Common/IQMath/ti/_IQNmpy.h ****     iqNResult = iqNResult >> q_value;
 763              		.loc 2 32 17 is_stmt 0 view .LVU215
 764 0000 C217     		asrs	r2, r0, #31
  32:../Common/IQMath/ti/_IQNmpy.h ****     iqNResult = iqNResult >> q_value;
 765              		.loc 2 32 43 view .LVU216
 766 0002 CB17     		asrs	r3, r1, #31
  32:../Common/IQMath/ti/_IQNmpy.h ****     iqNResult = iqNResult >> q_value;
 767              		.loc 2 32 15 view .LVU217
 768 0004 00FB03F3 		mul	r3, r0, r3
 769 0008 01FB0233 		mla	r3, r1, r2, r3
 770 000c A0FB0101 		umull	r0, r1, r0, r1
 771              	.LVL61:
  32:../Common/IQMath/ti/_IQNmpy.h ****     iqNResult = iqNResult >> q_value;
 772              		.loc 2 32 15 view .LVU218
 773 0010 1944     		add	r1, r1, r3
 774              	.LVL62:
  33:../Common/IQMath/ti/_IQNmpy.h **** 
 775              		.loc 2 33 5 is_stmt 1 view .LVU219
  33:../Common/IQMath/ti/_IQNmpy.h **** 
 776              		.loc 2 33 15 is_stmt 0 view .LVU220
 777 0012 000C     		lsrs	r0, r0, #16
 778              	.LVL63:
 779              		.loc 2 35 5 is_stmt 1 view .LVU221
 780              		.loc 2 35 5 is_stmt 0 view .LVU222
 781              	.LBE95:
 782              	.LBE94:
 200:../Common/IQMath/ti/_IQNmpy.c **** }
 783              		.loc 1 200 1 view .LVU223
 784 0014 40EA0140 		orr	r0, r0, r1, lsl #16
 785 0018 7047     		bx	lr
 786              		.cfi_endproc
 787              	.LFE277:
 789              		.section	.text._IQ15mpy,"ax",%progbits
 790              		.align	1
 791              		.global	_IQ15mpy
 792              		.syntax unified
 793              		.thumb
 794              		.thumb_func
 796              	_IQ15mpy:
 797              	.LVL64:
 798              	.LFB278:
 201:../Common/IQMath/ti/_IQNmpy.c **** /**
 202:../Common/IQMath/ti/_IQNmpy.c ****  * @brief Multiplies two values of IQ15 format.
 203:../Common/IQMath/ti/_IQNmpy.c ****  *
 204:../Common/IQMath/ti/_IQNmpy.c ****  * @param a             IQ15 type value to be multiplied.
 205:../Common/IQMath/ti/_IQNmpy.c ****  * @param b             IQ15 type value to be multiplied.
ARM GAS  C:\Users\57308\AppData\Local\Temp\cchS4miY.s 			page 21


 206:../Common/IQMath/ti/_IQNmpy.c ****  *
 207:../Common/IQMath/ti/_IQNmpy.c ****  * @return              IQ15 type result of the multiplication.    
 208:../Common/IQMath/ti/_IQNmpy.c ****  */
 209:../Common/IQMath/ti/_IQNmpy.c **** int32_t _IQ15mpy(int32_t a, int32_t b)
 210:../Common/IQMath/ti/_IQNmpy.c **** {
 799              		.loc 1 210 1 is_stmt 1 view -0
 800              		.cfi_startproc
 801              		@ args = 0, pretend = 0, frame = 0
 802              		@ frame_needed = 0, uses_anonymous_args = 0
 803              		@ link register save eliminated.
 211:../Common/IQMath/ti/_IQNmpy.c ****     return __IQNmpy(a, b, 15);
 804              		.loc 1 211 5 view .LVU225
 805              	.LBB96:
 806              	.LBI96:
  28:../Common/IQMath/ti/_IQNmpy.h **** {
 807              		.loc 2 28 30 view .LVU226
 808              	.LBB97:
  30:../Common/IQMath/ti/_IQNmpy.h ****     
 809              		.loc 2 30 5 view .LVU227
  32:../Common/IQMath/ti/_IQNmpy.h ****     iqNResult = iqNResult >> q_value;
 810              		.loc 2 32 5 view .LVU228
  32:../Common/IQMath/ti/_IQNmpy.h ****     iqNResult = iqNResult >> q_value;
 811              		.loc 2 32 17 is_stmt 0 view .LVU229
 812 0000 C217     		asrs	r2, r0, #31
  32:../Common/IQMath/ti/_IQNmpy.h ****     iqNResult = iqNResult >> q_value;
 813              		.loc 2 32 43 view .LVU230
 814 0002 CB17     		asrs	r3, r1, #31
  32:../Common/IQMath/ti/_IQNmpy.h ****     iqNResult = iqNResult >> q_value;
 815              		.loc 2 32 15 view .LVU231
 816 0004 00FB03F3 		mul	r3, r0, r3
 817 0008 01FB0233 		mla	r3, r1, r2, r3
 818 000c A0FB0101 		umull	r0, r1, r0, r1
 819              	.LVL65:
  32:../Common/IQMath/ti/_IQNmpy.h ****     iqNResult = iqNResult >> q_value;
 820              		.loc 2 32 15 view .LVU232
 821 0010 1944     		add	r1, r1, r3
 822              	.LVL66:
  33:../Common/IQMath/ti/_IQNmpy.h **** 
 823              		.loc 2 33 5 is_stmt 1 view .LVU233
  33:../Common/IQMath/ti/_IQNmpy.h **** 
 824              		.loc 2 33 15 is_stmt 0 view .LVU234
 825 0012 C00B     		lsrs	r0, r0, #15
 826              	.LVL67:
 827              		.loc 2 35 5 is_stmt 1 view .LVU235
 828              		.loc 2 35 5 is_stmt 0 view .LVU236
 829              	.LBE97:
 830              	.LBE96:
 212:../Common/IQMath/ti/_IQNmpy.c **** }
 831              		.loc 1 212 1 view .LVU237
 832 0014 40EA4140 		orr	r0, r0, r1, lsl #17
 833 0018 7047     		bx	lr
 834              		.cfi_endproc
 835              	.LFE278:
 837              		.section	.text._IQ14mpy,"ax",%progbits
 838              		.align	1
 839              		.global	_IQ14mpy
 840              		.syntax unified
ARM GAS  C:\Users\57308\AppData\Local\Temp\cchS4miY.s 			page 22


 841              		.thumb
 842              		.thumb_func
 844              	_IQ14mpy:
 845              	.LVL68:
 846              	.LFB279:
 213:../Common/IQMath/ti/_IQNmpy.c **** /**
 214:../Common/IQMath/ti/_IQNmpy.c ****  * @brief Multiplies two values of IQ14 format.
 215:../Common/IQMath/ti/_IQNmpy.c ****  *
 216:../Common/IQMath/ti/_IQNmpy.c ****  * @param a             IQ14 type value to be multiplied.
 217:../Common/IQMath/ti/_IQNmpy.c ****  * @param b             IQ14 type value to be multiplied.
 218:../Common/IQMath/ti/_IQNmpy.c ****  *
 219:../Common/IQMath/ti/_IQNmpy.c ****  * @return              IQ14 type result of the multiplication.    
 220:../Common/IQMath/ti/_IQNmpy.c ****  */
 221:../Common/IQMath/ti/_IQNmpy.c **** int32_t _IQ14mpy(int32_t a, int32_t b)
 222:../Common/IQMath/ti/_IQNmpy.c **** {
 847              		.loc 1 222 1 is_stmt 1 view -0
 848              		.cfi_startproc
 849              		@ args = 0, pretend = 0, frame = 0
 850              		@ frame_needed = 0, uses_anonymous_args = 0
 851              		@ link register save eliminated.
 223:../Common/IQMath/ti/_IQNmpy.c ****     return __IQNmpy(a, b, 14);
 852              		.loc 1 223 5 view .LVU239
 853              	.LBB98:
 854              	.LBI98:
  28:../Common/IQMath/ti/_IQNmpy.h **** {
 855              		.loc 2 28 30 view .LVU240
 856              	.LBB99:
  30:../Common/IQMath/ti/_IQNmpy.h ****     
 857              		.loc 2 30 5 view .LVU241
  32:../Common/IQMath/ti/_IQNmpy.h ****     iqNResult = iqNResult >> q_value;
 858              		.loc 2 32 5 view .LVU242
  32:../Common/IQMath/ti/_IQNmpy.h ****     iqNResult = iqNResult >> q_value;
 859              		.loc 2 32 17 is_stmt 0 view .LVU243
 860 0000 C217     		asrs	r2, r0, #31
  32:../Common/IQMath/ti/_IQNmpy.h ****     iqNResult = iqNResult >> q_value;
 861              		.loc 2 32 43 view .LVU244
 862 0002 CB17     		asrs	r3, r1, #31
  32:../Common/IQMath/ti/_IQNmpy.h ****     iqNResult = iqNResult >> q_value;
 863              		.loc 2 32 15 view .LVU245
 864 0004 00FB03F3 		mul	r3, r0, r3
 865 0008 01FB0233 		mla	r3, r1, r2, r3
 866 000c A0FB0101 		umull	r0, r1, r0, r1
 867              	.LVL69:
  32:../Common/IQMath/ti/_IQNmpy.h ****     iqNResult = iqNResult >> q_value;
 868              		.loc 2 32 15 view .LVU246
 869 0010 1944     		add	r1, r1, r3
 870              	.LVL70:
  33:../Common/IQMath/ti/_IQNmpy.h **** 
 871              		.loc 2 33 5 is_stmt 1 view .LVU247
  33:../Common/IQMath/ti/_IQNmpy.h **** 
 872              		.loc 2 33 15 is_stmt 0 view .LVU248
 873 0012 800B     		lsrs	r0, r0, #14
 874              	.LVL71:
 875              		.loc 2 35 5 is_stmt 1 view .LVU249
 876              		.loc 2 35 5 is_stmt 0 view .LVU250
 877              	.LBE99:
 878              	.LBE98:
ARM GAS  C:\Users\57308\AppData\Local\Temp\cchS4miY.s 			page 23


 224:../Common/IQMath/ti/_IQNmpy.c **** }
 879              		.loc 1 224 1 view .LVU251
 880 0014 40EA8140 		orr	r0, r0, r1, lsl #18
 881 0018 7047     		bx	lr
 882              		.cfi_endproc
 883              	.LFE279:
 885              		.section	.text._IQ13mpy,"ax",%progbits
 886              		.align	1
 887              		.global	_IQ13mpy
 888              		.syntax unified
 889              		.thumb
 890              		.thumb_func
 892              	_IQ13mpy:
 893              	.LVL72:
 894              	.LFB280:
 225:../Common/IQMath/ti/_IQNmpy.c **** /**
 226:../Common/IQMath/ti/_IQNmpy.c ****  * @brief Multiplies two values of IQ13 format.
 227:../Common/IQMath/ti/_IQNmpy.c ****  *
 228:../Common/IQMath/ti/_IQNmpy.c ****  * @param a             IQ13 type value to be multiplied.
 229:../Common/IQMath/ti/_IQNmpy.c ****  * @param b             IQ13 type value to be multiplied.
 230:../Common/IQMath/ti/_IQNmpy.c ****  *
 231:../Common/IQMath/ti/_IQNmpy.c ****  * @return              IQ13 type result of the multiplication.    
 232:../Common/IQMath/ti/_IQNmpy.c ****  */
 233:../Common/IQMath/ti/_IQNmpy.c **** int32_t _IQ13mpy(int32_t a, int32_t b)
 234:../Common/IQMath/ti/_IQNmpy.c **** {
 895              		.loc 1 234 1 is_stmt 1 view -0
 896              		.cfi_startproc
 897              		@ args = 0, pretend = 0, frame = 0
 898              		@ frame_needed = 0, uses_anonymous_args = 0
 899              		@ link register save eliminated.
 235:../Common/IQMath/ti/_IQNmpy.c ****     return __IQNmpy(a, b, 13);
 900              		.loc 1 235 5 view .LVU253
 901              	.LBB100:
 902              	.LBI100:
  28:../Common/IQMath/ti/_IQNmpy.h **** {
 903              		.loc 2 28 30 view .LVU254
 904              	.LBB101:
  30:../Common/IQMath/ti/_IQNmpy.h ****     
 905              		.loc 2 30 5 view .LVU255
  32:../Common/IQMath/ti/_IQNmpy.h ****     iqNResult = iqNResult >> q_value;
 906              		.loc 2 32 5 view .LVU256
  32:../Common/IQMath/ti/_IQNmpy.h ****     iqNResult = iqNResult >> q_value;
 907              		.loc 2 32 17 is_stmt 0 view .LVU257
 908 0000 C217     		asrs	r2, r0, #31
  32:../Common/IQMath/ti/_IQNmpy.h ****     iqNResult = iqNResult >> q_value;
 909              		.loc 2 32 43 view .LVU258
 910 0002 CB17     		asrs	r3, r1, #31
  32:../Common/IQMath/ti/_IQNmpy.h ****     iqNResult = iqNResult >> q_value;
 911              		.loc 2 32 15 view .LVU259
 912 0004 00FB03F3 		mul	r3, r0, r3
 913 0008 01FB0233 		mla	r3, r1, r2, r3
 914 000c A0FB0101 		umull	r0, r1, r0, r1
 915              	.LVL73:
  32:../Common/IQMath/ti/_IQNmpy.h ****     iqNResult = iqNResult >> q_value;
 916              		.loc 2 32 15 view .LVU260
 917 0010 1944     		add	r1, r1, r3
 918              	.LVL74:
ARM GAS  C:\Users\57308\AppData\Local\Temp\cchS4miY.s 			page 24


  33:../Common/IQMath/ti/_IQNmpy.h **** 
 919              		.loc 2 33 5 is_stmt 1 view .LVU261
  33:../Common/IQMath/ti/_IQNmpy.h **** 
 920              		.loc 2 33 15 is_stmt 0 view .LVU262
 921 0012 400B     		lsrs	r0, r0, #13
 922              	.LVL75:
 923              		.loc 2 35 5 is_stmt 1 view .LVU263
 924              		.loc 2 35 5 is_stmt 0 view .LVU264
 925              	.LBE101:
 926              	.LBE100:
 236:../Common/IQMath/ti/_IQNmpy.c **** }
 927              		.loc 1 236 1 view .LVU265
 928 0014 40EAC140 		orr	r0, r0, r1, lsl #19
 929 0018 7047     		bx	lr
 930              		.cfi_endproc
 931              	.LFE280:
 933              		.section	.text._IQ12mpy,"ax",%progbits
 934              		.align	1
 935              		.global	_IQ12mpy
 936              		.syntax unified
 937              		.thumb
 938              		.thumb_func
 940              	_IQ12mpy:
 941              	.LVL76:
 942              	.LFB281:
 237:../Common/IQMath/ti/_IQNmpy.c **** /**
 238:../Common/IQMath/ti/_IQNmpy.c ****  * @brief Multiplies two values of IQ12 format.
 239:../Common/IQMath/ti/_IQNmpy.c ****  *
 240:../Common/IQMath/ti/_IQNmpy.c ****  * @param a             IQ12 type value to be multiplied.
 241:../Common/IQMath/ti/_IQNmpy.c ****  * @param b             IQ12 type value to be multiplied.
 242:../Common/IQMath/ti/_IQNmpy.c ****  *
 243:../Common/IQMath/ti/_IQNmpy.c ****  * @return              IQ12 type result of the multiplication.    
 244:../Common/IQMath/ti/_IQNmpy.c ****  */
 245:../Common/IQMath/ti/_IQNmpy.c **** int32_t _IQ12mpy(int32_t a, int32_t b)
 246:../Common/IQMath/ti/_IQNmpy.c **** {
 943              		.loc 1 246 1 is_stmt 1 view -0
 944              		.cfi_startproc
 945              		@ args = 0, pretend = 0, frame = 0
 946              		@ frame_needed = 0, uses_anonymous_args = 0
 947              		@ link register save eliminated.
 247:../Common/IQMath/ti/_IQNmpy.c ****     return __IQNmpy(a, b, 12);
 948              		.loc 1 247 5 view .LVU267
 949              	.LBB102:
 950              	.LBI102:
  28:../Common/IQMath/ti/_IQNmpy.h **** {
 951              		.loc 2 28 30 view .LVU268
 952              	.LBB103:
  30:../Common/IQMath/ti/_IQNmpy.h ****     
 953              		.loc 2 30 5 view .LVU269
  32:../Common/IQMath/ti/_IQNmpy.h ****     iqNResult = iqNResult >> q_value;
 954              		.loc 2 32 5 view .LVU270
  32:../Common/IQMath/ti/_IQNmpy.h ****     iqNResult = iqNResult >> q_value;
 955              		.loc 2 32 17 is_stmt 0 view .LVU271
 956 0000 C217     		asrs	r2, r0, #31
  32:../Common/IQMath/ti/_IQNmpy.h ****     iqNResult = iqNResult >> q_value;
 957              		.loc 2 32 43 view .LVU272
 958 0002 CB17     		asrs	r3, r1, #31
ARM GAS  C:\Users\57308\AppData\Local\Temp\cchS4miY.s 			page 25


  32:../Common/IQMath/ti/_IQNmpy.h ****     iqNResult = iqNResult >> q_value;
 959              		.loc 2 32 15 view .LVU273
 960 0004 00FB03F3 		mul	r3, r0, r3
 961 0008 01FB0233 		mla	r3, r1, r2, r3
 962 000c A0FB0101 		umull	r0, r1, r0, r1
 963              	.LVL77:
  32:../Common/IQMath/ti/_IQNmpy.h ****     iqNResult = iqNResult >> q_value;
 964              		.loc 2 32 15 view .LVU274
 965 0010 1944     		add	r1, r1, r3
 966              	.LVL78:
  33:../Common/IQMath/ti/_IQNmpy.h **** 
 967              		.loc 2 33 5 is_stmt 1 view .LVU275
  33:../Common/IQMath/ti/_IQNmpy.h **** 
 968              		.loc 2 33 15 is_stmt 0 view .LVU276
 969 0012 000B     		lsrs	r0, r0, #12
 970              	.LVL79:
 971              		.loc 2 35 5 is_stmt 1 view .LVU277
 972              		.loc 2 35 5 is_stmt 0 view .LVU278
 973              	.LBE103:
 974              	.LBE102:
 248:../Common/IQMath/ti/_IQNmpy.c **** }
 975              		.loc 1 248 1 view .LVU279
 976 0014 40EA0150 		orr	r0, r0, r1, lsl #20
 977 0018 7047     		bx	lr
 978              		.cfi_endproc
 979              	.LFE281:
 981              		.section	.text._IQ11mpy,"ax",%progbits
 982              		.align	1
 983              		.global	_IQ11mpy
 984              		.syntax unified
 985              		.thumb
 986              		.thumb_func
 988              	_IQ11mpy:
 989              	.LVL80:
 990              	.LFB282:
 249:../Common/IQMath/ti/_IQNmpy.c **** /**
 250:../Common/IQMath/ti/_IQNmpy.c ****  * @brief Multiplies two values of IQ11 format.
 251:../Common/IQMath/ti/_IQNmpy.c ****  *
 252:../Common/IQMath/ti/_IQNmpy.c ****  * @param a             IQ11 type value to be multiplied.
 253:../Common/IQMath/ti/_IQNmpy.c ****  * @param b             IQ11 type value to be multiplied.
 254:../Common/IQMath/ti/_IQNmpy.c ****  *
 255:../Common/IQMath/ti/_IQNmpy.c ****  * @return              IQ11 type result of the multiplication.    
 256:../Common/IQMath/ti/_IQNmpy.c ****  */
 257:../Common/IQMath/ti/_IQNmpy.c **** int32_t _IQ11mpy(int32_t a, int32_t b)
 258:../Common/IQMath/ti/_IQNmpy.c **** {
 991              		.loc 1 258 1 is_stmt 1 view -0
 992              		.cfi_startproc
 993              		@ args = 0, pretend = 0, frame = 0
 994              		@ frame_needed = 0, uses_anonymous_args = 0
 995              		@ link register save eliminated.
 259:../Common/IQMath/ti/_IQNmpy.c ****     return __IQNmpy(a, b, 11);
 996              		.loc 1 259 5 view .LVU281
 997              	.LBB104:
 998              	.LBI104:
  28:../Common/IQMath/ti/_IQNmpy.h **** {
 999              		.loc 2 28 30 view .LVU282
 1000              	.LBB105:
ARM GAS  C:\Users\57308\AppData\Local\Temp\cchS4miY.s 			page 26


  30:../Common/IQMath/ti/_IQNmpy.h ****     
 1001              		.loc 2 30 5 view .LVU283
  32:../Common/IQMath/ti/_IQNmpy.h ****     iqNResult = iqNResult >> q_value;
 1002              		.loc 2 32 5 view .LVU284
  32:../Common/IQMath/ti/_IQNmpy.h ****     iqNResult = iqNResult >> q_value;
 1003              		.loc 2 32 17 is_stmt 0 view .LVU285
 1004 0000 C217     		asrs	r2, r0, #31
  32:../Common/IQMath/ti/_IQNmpy.h ****     iqNResult = iqNResult >> q_value;
 1005              		.loc 2 32 43 view .LVU286
 1006 0002 CB17     		asrs	r3, r1, #31
  32:../Common/IQMath/ti/_IQNmpy.h ****     iqNResult = iqNResult >> q_value;
 1007              		.loc 2 32 15 view .LVU287
 1008 0004 00FB03F3 		mul	r3, r0, r3
 1009 0008 01FB0233 		mla	r3, r1, r2, r3
 1010 000c A0FB0101 		umull	r0, r1, r0, r1
 1011              	.LVL81:
  32:../Common/IQMath/ti/_IQNmpy.h ****     iqNResult = iqNResult >> q_value;
 1012              		.loc 2 32 15 view .LVU288
 1013 0010 1944     		add	r1, r1, r3
 1014              	.LVL82:
  33:../Common/IQMath/ti/_IQNmpy.h **** 
 1015              		.loc 2 33 5 is_stmt 1 view .LVU289
  33:../Common/IQMath/ti/_IQNmpy.h **** 
 1016              		.loc 2 33 15 is_stmt 0 view .LVU290
 1017 0012 C00A     		lsrs	r0, r0, #11
 1018              	.LVL83:
 1019              		.loc 2 35 5 is_stmt 1 view .LVU291
 1020              		.loc 2 35 5 is_stmt 0 view .LVU292
 1021              	.LBE105:
 1022              	.LBE104:
 260:../Common/IQMath/ti/_IQNmpy.c **** }
 1023              		.loc 1 260 1 view .LVU293
 1024 0014 40EA4150 		orr	r0, r0, r1, lsl #21
 1025 0018 7047     		bx	lr
 1026              		.cfi_endproc
 1027              	.LFE282:
 1029              		.section	.text._IQ10mpy,"ax",%progbits
 1030              		.align	1
 1031              		.global	_IQ10mpy
 1032              		.syntax unified
 1033              		.thumb
 1034              		.thumb_func
 1036              	_IQ10mpy:
 1037              	.LVL84:
 1038              	.LFB283:
 261:../Common/IQMath/ti/_IQNmpy.c **** /**
 262:../Common/IQMath/ti/_IQNmpy.c ****  * @brief Multiplies two values of IQ10 format.
 263:../Common/IQMath/ti/_IQNmpy.c ****  *
 264:../Common/IQMath/ti/_IQNmpy.c ****  * @param a             IQ10 type value to be multiplied.
 265:../Common/IQMath/ti/_IQNmpy.c ****  * @param b             IQ10 type value to be multiplied.
 266:../Common/IQMath/ti/_IQNmpy.c ****  *
 267:../Common/IQMath/ti/_IQNmpy.c ****  * @return              IQ10 type result of the multiplication.    
 268:../Common/IQMath/ti/_IQNmpy.c ****  */
 269:../Common/IQMath/ti/_IQNmpy.c **** int32_t _IQ10mpy(int32_t a, int32_t b)
 270:../Common/IQMath/ti/_IQNmpy.c **** {
 1039              		.loc 1 270 1 is_stmt 1 view -0
 1040              		.cfi_startproc
ARM GAS  C:\Users\57308\AppData\Local\Temp\cchS4miY.s 			page 27


 1041              		@ args = 0, pretend = 0, frame = 0
 1042              		@ frame_needed = 0, uses_anonymous_args = 0
 1043              		@ link register save eliminated.
 271:../Common/IQMath/ti/_IQNmpy.c ****     return __IQNmpy(a, b, 10);
 1044              		.loc 1 271 5 view .LVU295
 1045              	.LBB106:
 1046              	.LBI106:
  28:../Common/IQMath/ti/_IQNmpy.h **** {
 1047              		.loc 2 28 30 view .LVU296
 1048              	.LBB107:
  30:../Common/IQMath/ti/_IQNmpy.h ****     
 1049              		.loc 2 30 5 view .LVU297
  32:../Common/IQMath/ti/_IQNmpy.h ****     iqNResult = iqNResult >> q_value;
 1050              		.loc 2 32 5 view .LVU298
  32:../Common/IQMath/ti/_IQNmpy.h ****     iqNResult = iqNResult >> q_value;
 1051              		.loc 2 32 17 is_stmt 0 view .LVU299
 1052 0000 C217     		asrs	r2, r0, #31
  32:../Common/IQMath/ti/_IQNmpy.h ****     iqNResult = iqNResult >> q_value;
 1053              		.loc 2 32 43 view .LVU300
 1054 0002 CB17     		asrs	r3, r1, #31
  32:../Common/IQMath/ti/_IQNmpy.h ****     iqNResult = iqNResult >> q_value;
 1055              		.loc 2 32 15 view .LVU301
 1056 0004 00FB03F3 		mul	r3, r0, r3
 1057 0008 01FB0233 		mla	r3, r1, r2, r3
 1058 000c A0FB0101 		umull	r0, r1, r0, r1
 1059              	.LVL85:
  32:../Common/IQMath/ti/_IQNmpy.h ****     iqNResult = iqNResult >> q_value;
 1060              		.loc 2 32 15 view .LVU302
 1061 0010 1944     		add	r1, r1, r3
 1062              	.LVL86:
  33:../Common/IQMath/ti/_IQNmpy.h **** 
 1063              		.loc 2 33 5 is_stmt 1 view .LVU303
  33:../Common/IQMath/ti/_IQNmpy.h **** 
 1064              		.loc 2 33 15 is_stmt 0 view .LVU304
 1065 0012 800A     		lsrs	r0, r0, #10
 1066              	.LVL87:
 1067              		.loc 2 35 5 is_stmt 1 view .LVU305
 1068              		.loc 2 35 5 is_stmt 0 view .LVU306
 1069              	.LBE107:
 1070              	.LBE106:
 272:../Common/IQMath/ti/_IQNmpy.c **** }
 1071              		.loc 1 272 1 view .LVU307
 1072 0014 40EA8150 		orr	r0, r0, r1, lsl #22
 1073 0018 7047     		bx	lr
 1074              		.cfi_endproc
 1075              	.LFE283:
 1077              		.section	.text._IQ9mpy,"ax",%progbits
 1078              		.align	1
 1079              		.global	_IQ9mpy
 1080              		.syntax unified
 1081              		.thumb
 1082              		.thumb_func
 1084              	_IQ9mpy:
 1085              	.LVL88:
 1086              	.LFB284:
 273:../Common/IQMath/ti/_IQNmpy.c **** /**
 274:../Common/IQMath/ti/_IQNmpy.c ****  * @brief Multiplies two values of IQ9 format.
ARM GAS  C:\Users\57308\AppData\Local\Temp\cchS4miY.s 			page 28


 275:../Common/IQMath/ti/_IQNmpy.c ****  *
 276:../Common/IQMath/ti/_IQNmpy.c ****  * @param a             IQ9 type value to be multiplied. 
 277:../Common/IQMath/ti/_IQNmpy.c ****  * @param b             IQ9 type value to be multiplied.
 278:../Common/IQMath/ti/_IQNmpy.c ****  *
 279:../Common/IQMath/ti/_IQNmpy.c ****  * @return              IQ9 type result of the multiplication.      
 280:../Common/IQMath/ti/_IQNmpy.c ****  */
 281:../Common/IQMath/ti/_IQNmpy.c **** int32_t _IQ9mpy(int32_t a, int32_t b)
 282:../Common/IQMath/ti/_IQNmpy.c **** {
 1087              		.loc 1 282 1 is_stmt 1 view -0
 1088              		.cfi_startproc
 1089              		@ args = 0, pretend = 0, frame = 0
 1090              		@ frame_needed = 0, uses_anonymous_args = 0
 1091              		@ link register save eliminated.
 283:../Common/IQMath/ti/_IQNmpy.c ****     return __IQNmpy(a, b, 9);
 1092              		.loc 1 283 5 view .LVU309
 1093              	.LBB108:
 1094              	.LBI108:
  28:../Common/IQMath/ti/_IQNmpy.h **** {
 1095              		.loc 2 28 30 view .LVU310
 1096              	.LBB109:
  30:../Common/IQMath/ti/_IQNmpy.h ****     
 1097              		.loc 2 30 5 view .LVU311
  32:../Common/IQMath/ti/_IQNmpy.h ****     iqNResult = iqNResult >> q_value;
 1098              		.loc 2 32 5 view .LVU312
  32:../Common/IQMath/ti/_IQNmpy.h ****     iqNResult = iqNResult >> q_value;
 1099              		.loc 2 32 17 is_stmt 0 view .LVU313
 1100 0000 C217     		asrs	r2, r0, #31
  32:../Common/IQMath/ti/_IQNmpy.h ****     iqNResult = iqNResult >> q_value;
 1101              		.loc 2 32 43 view .LVU314
 1102 0002 CB17     		asrs	r3, r1, #31
  32:../Common/IQMath/ti/_IQNmpy.h ****     iqNResult = iqNResult >> q_value;
 1103              		.loc 2 32 15 view .LVU315
 1104 0004 00FB03F3 		mul	r3, r0, r3
 1105 0008 01FB0233 		mla	r3, r1, r2, r3
 1106 000c A0FB0101 		umull	r0, r1, r0, r1
 1107              	.LVL89:
  32:../Common/IQMath/ti/_IQNmpy.h ****     iqNResult = iqNResult >> q_value;
 1108              		.loc 2 32 15 view .LVU316
 1109 0010 1944     		add	r1, r1, r3
 1110              	.LVL90:
  33:../Common/IQMath/ti/_IQNmpy.h **** 
 1111              		.loc 2 33 5 is_stmt 1 view .LVU317
  33:../Common/IQMath/ti/_IQNmpy.h **** 
 1112              		.loc 2 33 15 is_stmt 0 view .LVU318
 1113 0012 400A     		lsrs	r0, r0, #9
 1114              	.LVL91:
 1115              		.loc 2 35 5 is_stmt 1 view .LVU319
 1116              		.loc 2 35 5 is_stmt 0 view .LVU320
 1117              	.LBE109:
 1118              	.LBE108:
 284:../Common/IQMath/ti/_IQNmpy.c **** }
 1119              		.loc 1 284 1 view .LVU321
 1120 0014 40EAC150 		orr	r0, r0, r1, lsl #23
 1121 0018 7047     		bx	lr
 1122              		.cfi_endproc
 1123              	.LFE284:
 1125              		.section	.text._IQ8mpy,"ax",%progbits
ARM GAS  C:\Users\57308\AppData\Local\Temp\cchS4miY.s 			page 29


 1126              		.align	1
 1127              		.global	_IQ8mpy
 1128              		.syntax unified
 1129              		.thumb
 1130              		.thumb_func
 1132              	_IQ8mpy:
 1133              	.LVL92:
 1134              	.LFB285:
 285:../Common/IQMath/ti/_IQNmpy.c **** /**
 286:../Common/IQMath/ti/_IQNmpy.c ****  * @brief Multiplies two values of IQ8 format.
 287:../Common/IQMath/ti/_IQNmpy.c ****  *
 288:../Common/IQMath/ti/_IQNmpy.c ****  * @param a             IQ8 type value to be multiplied. 
 289:../Common/IQMath/ti/_IQNmpy.c ****  * @param b             IQ8 type value to be multiplied.
 290:../Common/IQMath/ti/_IQNmpy.c ****  *
 291:../Common/IQMath/ti/_IQNmpy.c ****  * @return              IQ8 type result of the multiplication.      
 292:../Common/IQMath/ti/_IQNmpy.c ****  */
 293:../Common/IQMath/ti/_IQNmpy.c **** int32_t _IQ8mpy(int32_t a, int32_t b)
 294:../Common/IQMath/ti/_IQNmpy.c **** {
 1135              		.loc 1 294 1 is_stmt 1 view -0
 1136              		.cfi_startproc
 1137              		@ args = 0, pretend = 0, frame = 0
 1138              		@ frame_needed = 0, uses_anonymous_args = 0
 1139              		@ link register save eliminated.
 295:../Common/IQMath/ti/_IQNmpy.c ****     return __IQNmpy(a, b, 8);
 1140              		.loc 1 295 5 view .LVU323
 1141              	.LBB110:
 1142              	.LBI110:
  28:../Common/IQMath/ti/_IQNmpy.h **** {
 1143              		.loc 2 28 30 view .LVU324
 1144              	.LBB111:
  30:../Common/IQMath/ti/_IQNmpy.h ****     
 1145              		.loc 2 30 5 view .LVU325
  32:../Common/IQMath/ti/_IQNmpy.h ****     iqNResult = iqNResult >> q_value;
 1146              		.loc 2 32 5 view .LVU326
  32:../Common/IQMath/ti/_IQNmpy.h ****     iqNResult = iqNResult >> q_value;
 1147              		.loc 2 32 17 is_stmt 0 view .LVU327
 1148 0000 C217     		asrs	r2, r0, #31
  32:../Common/IQMath/ti/_IQNmpy.h ****     iqNResult = iqNResult >> q_value;
 1149              		.loc 2 32 43 view .LVU328
 1150 0002 CB17     		asrs	r3, r1, #31
  32:../Common/IQMath/ti/_IQNmpy.h ****     iqNResult = iqNResult >> q_value;
 1151              		.loc 2 32 15 view .LVU329
 1152 0004 00FB03F3 		mul	r3, r0, r3
 1153 0008 01FB0233 		mla	r3, r1, r2, r3
 1154 000c A0FB0101 		umull	r0, r1, r0, r1
 1155              	.LVL93:
  32:../Common/IQMath/ti/_IQNmpy.h ****     iqNResult = iqNResult >> q_value;
 1156              		.loc 2 32 15 view .LVU330
 1157 0010 1944     		add	r1, r1, r3
 1158              	.LVL94:
  33:../Common/IQMath/ti/_IQNmpy.h **** 
 1159              		.loc 2 33 5 is_stmt 1 view .LVU331
  33:../Common/IQMath/ti/_IQNmpy.h **** 
 1160              		.loc 2 33 15 is_stmt 0 view .LVU332
 1161 0012 000A     		lsrs	r0, r0, #8
 1162              	.LVL95:
 1163              		.loc 2 35 5 is_stmt 1 view .LVU333
ARM GAS  C:\Users\57308\AppData\Local\Temp\cchS4miY.s 			page 30


 1164              		.loc 2 35 5 is_stmt 0 view .LVU334
 1165              	.LBE111:
 1166              	.LBE110:
 296:../Common/IQMath/ti/_IQNmpy.c **** }
 1167              		.loc 1 296 1 view .LVU335
 1168 0014 40EA0160 		orr	r0, r0, r1, lsl #24
 1169 0018 7047     		bx	lr
 1170              		.cfi_endproc
 1171              	.LFE285:
 1173              		.section	.text._IQ7mpy,"ax",%progbits
 1174              		.align	1
 1175              		.global	_IQ7mpy
 1176              		.syntax unified
 1177              		.thumb
 1178              		.thumb_func
 1180              	_IQ7mpy:
 1181              	.LVL96:
 1182              	.LFB286:
 297:../Common/IQMath/ti/_IQNmpy.c **** /**
 298:../Common/IQMath/ti/_IQNmpy.c ****  * @brief Multiplies two values of IQ7 format.
 299:../Common/IQMath/ti/_IQNmpy.c ****  *
 300:../Common/IQMath/ti/_IQNmpy.c ****  * @param a             IQ7 type value to be multiplied. 
 301:../Common/IQMath/ti/_IQNmpy.c ****  * @param b             IQ7 type value to be multiplied.
 302:../Common/IQMath/ti/_IQNmpy.c ****  *
 303:../Common/IQMath/ti/_IQNmpy.c ****  * @return              IQ7 type result of the multiplication.      
 304:../Common/IQMath/ti/_IQNmpy.c ****  */
 305:../Common/IQMath/ti/_IQNmpy.c **** int32_t _IQ7mpy(int32_t a, int32_t b)
 306:../Common/IQMath/ti/_IQNmpy.c **** {
 1183              		.loc 1 306 1 is_stmt 1 view -0
 1184              		.cfi_startproc
 1185              		@ args = 0, pretend = 0, frame = 0
 1186              		@ frame_needed = 0, uses_anonymous_args = 0
 1187              		@ link register save eliminated.
 307:../Common/IQMath/ti/_IQNmpy.c ****     return __IQNmpy(a, b, 7);
 1188              		.loc 1 307 5 view .LVU337
 1189              	.LBB112:
 1190              	.LBI112:
  28:../Common/IQMath/ti/_IQNmpy.h **** {
 1191              		.loc 2 28 30 view .LVU338
 1192              	.LBB113:
  30:../Common/IQMath/ti/_IQNmpy.h ****     
 1193              		.loc 2 30 5 view .LVU339
  32:../Common/IQMath/ti/_IQNmpy.h ****     iqNResult = iqNResult >> q_value;
 1194              		.loc 2 32 5 view .LVU340
  32:../Common/IQMath/ti/_IQNmpy.h ****     iqNResult = iqNResult >> q_value;
 1195              		.loc 2 32 17 is_stmt 0 view .LVU341
 1196 0000 C217     		asrs	r2, r0, #31
  32:../Common/IQMath/ti/_IQNmpy.h ****     iqNResult = iqNResult >> q_value;
 1197              		.loc 2 32 43 view .LVU342
 1198 0002 CB17     		asrs	r3, r1, #31
  32:../Common/IQMath/ti/_IQNmpy.h ****     iqNResult = iqNResult >> q_value;
 1199              		.loc 2 32 15 view .LVU343
 1200 0004 00FB03F3 		mul	r3, r0, r3
 1201 0008 01FB0233 		mla	r3, r1, r2, r3
 1202 000c A0FB0101 		umull	r0, r1, r0, r1
 1203              	.LVL97:
  32:../Common/IQMath/ti/_IQNmpy.h ****     iqNResult = iqNResult >> q_value;
ARM GAS  C:\Users\57308\AppData\Local\Temp\cchS4miY.s 			page 31


 1204              		.loc 2 32 15 view .LVU344
 1205 0010 1944     		add	r1, r1, r3
 1206              	.LVL98:
  33:../Common/IQMath/ti/_IQNmpy.h **** 
 1207              		.loc 2 33 5 is_stmt 1 view .LVU345
  33:../Common/IQMath/ti/_IQNmpy.h **** 
 1208              		.loc 2 33 15 is_stmt 0 view .LVU346
 1209 0012 C009     		lsrs	r0, r0, #7
 1210              	.LVL99:
 1211              		.loc 2 35 5 is_stmt 1 view .LVU347
 1212              		.loc 2 35 5 is_stmt 0 view .LVU348
 1213              	.LBE113:
 1214              	.LBE112:
 308:../Common/IQMath/ti/_IQNmpy.c **** }
 1215              		.loc 1 308 1 view .LVU349
 1216 0014 40EA4160 		orr	r0, r0, r1, lsl #25
 1217 0018 7047     		bx	lr
 1218              		.cfi_endproc
 1219              	.LFE286:
 1221              		.section	.text._IQ6mpy,"ax",%progbits
 1222              		.align	1
 1223              		.global	_IQ6mpy
 1224              		.syntax unified
 1225              		.thumb
 1226              		.thumb_func
 1228              	_IQ6mpy:
 1229              	.LVL100:
 1230              	.LFB287:
 309:../Common/IQMath/ti/_IQNmpy.c **** /**
 310:../Common/IQMath/ti/_IQNmpy.c ****  * @brief Multiplies two values of IQ6 format.
 311:../Common/IQMath/ti/_IQNmpy.c ****  *
 312:../Common/IQMath/ti/_IQNmpy.c ****  * @param a             IQ6 type value to be multiplied. 
 313:../Common/IQMath/ti/_IQNmpy.c ****  * @param b             IQ6 type value to be multiplied.
 314:../Common/IQMath/ti/_IQNmpy.c ****  *
 315:../Common/IQMath/ti/_IQNmpy.c ****  * @return              IQ6 type result of the multiplication.      
 316:../Common/IQMath/ti/_IQNmpy.c ****  */
 317:../Common/IQMath/ti/_IQNmpy.c **** int32_t _IQ6mpy(int32_t a, int32_t b)
 318:../Common/IQMath/ti/_IQNmpy.c **** {
 1231              		.loc 1 318 1 is_stmt 1 view -0
 1232              		.cfi_startproc
 1233              		@ args = 0, pretend = 0, frame = 0
 1234              		@ frame_needed = 0, uses_anonymous_args = 0
 1235              		@ link register save eliminated.
 319:../Common/IQMath/ti/_IQNmpy.c ****     return __IQNmpy(a, b, 6);
 1236              		.loc 1 319 5 view .LVU351
 1237              	.LBB114:
 1238              	.LBI114:
  28:../Common/IQMath/ti/_IQNmpy.h **** {
 1239              		.loc 2 28 30 view .LVU352
 1240              	.LBB115:
  30:../Common/IQMath/ti/_IQNmpy.h ****     
 1241              		.loc 2 30 5 view .LVU353
  32:../Common/IQMath/ti/_IQNmpy.h ****     iqNResult = iqNResult >> q_value;
 1242              		.loc 2 32 5 view .LVU354
  32:../Common/IQMath/ti/_IQNmpy.h ****     iqNResult = iqNResult >> q_value;
 1243              		.loc 2 32 17 is_stmt 0 view .LVU355
 1244 0000 C217     		asrs	r2, r0, #31
ARM GAS  C:\Users\57308\AppData\Local\Temp\cchS4miY.s 			page 32


  32:../Common/IQMath/ti/_IQNmpy.h ****     iqNResult = iqNResult >> q_value;
 1245              		.loc 2 32 43 view .LVU356
 1246 0002 CB17     		asrs	r3, r1, #31
  32:../Common/IQMath/ti/_IQNmpy.h ****     iqNResult = iqNResult >> q_value;
 1247              		.loc 2 32 15 view .LVU357
 1248 0004 00FB03F3 		mul	r3, r0, r3
 1249 0008 01FB0233 		mla	r3, r1, r2, r3
 1250 000c A0FB0101 		umull	r0, r1, r0, r1
 1251              	.LVL101:
  32:../Common/IQMath/ti/_IQNmpy.h ****     iqNResult = iqNResult >> q_value;
 1252              		.loc 2 32 15 view .LVU358
 1253 0010 1944     		add	r1, r1, r3
 1254              	.LVL102:
  33:../Common/IQMath/ti/_IQNmpy.h **** 
 1255              		.loc 2 33 5 is_stmt 1 view .LVU359
  33:../Common/IQMath/ti/_IQNmpy.h **** 
 1256              		.loc 2 33 15 is_stmt 0 view .LVU360
 1257 0012 8009     		lsrs	r0, r0, #6
 1258              	.LVL103:
 1259              		.loc 2 35 5 is_stmt 1 view .LVU361
 1260              		.loc 2 35 5 is_stmt 0 view .LVU362
 1261              	.LBE115:
 1262              	.LBE114:
 320:../Common/IQMath/ti/_IQNmpy.c **** }
 1263              		.loc 1 320 1 view .LVU363
 1264 0014 40EA8160 		orr	r0, r0, r1, lsl #26
 1265 0018 7047     		bx	lr
 1266              		.cfi_endproc
 1267              	.LFE287:
 1269              		.section	.text._IQ5mpy,"ax",%progbits
 1270              		.align	1
 1271              		.global	_IQ5mpy
 1272              		.syntax unified
 1273              		.thumb
 1274              		.thumb_func
 1276              	_IQ5mpy:
 1277              	.LVL104:
 1278              	.LFB288:
 321:../Common/IQMath/ti/_IQNmpy.c **** /**
 322:../Common/IQMath/ti/_IQNmpy.c ****  * @brief Multiplies two values of IQ5 format.
 323:../Common/IQMath/ti/_IQNmpy.c ****  *
 324:../Common/IQMath/ti/_IQNmpy.c ****  * @param a             IQ5 type value to be multiplied. 
 325:../Common/IQMath/ti/_IQNmpy.c ****  * @param b             IQ5 type value to be multiplied.
 326:../Common/IQMath/ti/_IQNmpy.c ****  *
 327:../Common/IQMath/ti/_IQNmpy.c ****  * @return              IQ5 type result of the multiplication.      
 328:../Common/IQMath/ti/_IQNmpy.c ****  */
 329:../Common/IQMath/ti/_IQNmpy.c **** int32_t _IQ5mpy(int32_t a, int32_t b)
 330:../Common/IQMath/ti/_IQNmpy.c **** {
 1279              		.loc 1 330 1 is_stmt 1 view -0
 1280              		.cfi_startproc
 1281              		@ args = 0, pretend = 0, frame = 0
 1282              		@ frame_needed = 0, uses_anonymous_args = 0
 1283              		@ link register save eliminated.
 331:../Common/IQMath/ti/_IQNmpy.c ****     return __IQNmpy(a, b, 5);
 1284              		.loc 1 331 5 view .LVU365
 1285              	.LBB116:
 1286              	.LBI116:
ARM GAS  C:\Users\57308\AppData\Local\Temp\cchS4miY.s 			page 33


  28:../Common/IQMath/ti/_IQNmpy.h **** {
 1287              		.loc 2 28 30 view .LVU366
 1288              	.LBB117:
  30:../Common/IQMath/ti/_IQNmpy.h ****     
 1289              		.loc 2 30 5 view .LVU367
  32:../Common/IQMath/ti/_IQNmpy.h ****     iqNResult = iqNResult >> q_value;
 1290              		.loc 2 32 5 view .LVU368
  32:../Common/IQMath/ti/_IQNmpy.h ****     iqNResult = iqNResult >> q_value;
 1291              		.loc 2 32 17 is_stmt 0 view .LVU369
 1292 0000 C217     		asrs	r2, r0, #31
  32:../Common/IQMath/ti/_IQNmpy.h ****     iqNResult = iqNResult >> q_value;
 1293              		.loc 2 32 43 view .LVU370
 1294 0002 CB17     		asrs	r3, r1, #31
  32:../Common/IQMath/ti/_IQNmpy.h ****     iqNResult = iqNResult >> q_value;
 1295              		.loc 2 32 15 view .LVU371
 1296 0004 00FB03F3 		mul	r3, r0, r3
 1297 0008 01FB0233 		mla	r3, r1, r2, r3
 1298 000c A0FB0101 		umull	r0, r1, r0, r1
 1299              	.LVL105:
  32:../Common/IQMath/ti/_IQNmpy.h ****     iqNResult = iqNResult >> q_value;
 1300              		.loc 2 32 15 view .LVU372
 1301 0010 1944     		add	r1, r1, r3
 1302              	.LVL106:
  33:../Common/IQMath/ti/_IQNmpy.h **** 
 1303              		.loc 2 33 5 is_stmt 1 view .LVU373
  33:../Common/IQMath/ti/_IQNmpy.h **** 
 1304              		.loc 2 33 15 is_stmt 0 view .LVU374
 1305 0012 4009     		lsrs	r0, r0, #5
 1306              	.LVL107:
 1307              		.loc 2 35 5 is_stmt 1 view .LVU375
 1308              		.loc 2 35 5 is_stmt 0 view .LVU376
 1309              	.LBE117:
 1310              	.LBE116:
 332:../Common/IQMath/ti/_IQNmpy.c **** }
 1311              		.loc 1 332 1 view .LVU377
 1312 0014 40EAC160 		orr	r0, r0, r1, lsl #27
 1313 0018 7047     		bx	lr
 1314              		.cfi_endproc
 1315              	.LFE288:
 1317              		.section	.text._IQ4mpy,"ax",%progbits
 1318              		.align	1
 1319              		.global	_IQ4mpy
 1320              		.syntax unified
 1321              		.thumb
 1322              		.thumb_func
 1324              	_IQ4mpy:
 1325              	.LVL108:
 1326              	.LFB289:
 333:../Common/IQMath/ti/_IQNmpy.c **** /**
 334:../Common/IQMath/ti/_IQNmpy.c ****  * @brief Multiplies two values of IQ4 format.
 335:../Common/IQMath/ti/_IQNmpy.c ****  *
 336:../Common/IQMath/ti/_IQNmpy.c ****  * @param a             IQ4 type value to be multiplied. 
 337:../Common/IQMath/ti/_IQNmpy.c ****  * @param b             IQ4 type value to be multiplied.
 338:../Common/IQMath/ti/_IQNmpy.c ****  *
 339:../Common/IQMath/ti/_IQNmpy.c ****  * @return              IQ4 type result of the multiplication.      
 340:../Common/IQMath/ti/_IQNmpy.c ****  */
 341:../Common/IQMath/ti/_IQNmpy.c **** int32_t _IQ4mpy(int32_t a, int32_t b)
ARM GAS  C:\Users\57308\AppData\Local\Temp\cchS4miY.s 			page 34


 342:../Common/IQMath/ti/_IQNmpy.c **** {
 1327              		.loc 1 342 1 is_stmt 1 view -0
 1328              		.cfi_startproc
 1329              		@ args = 0, pretend = 0, frame = 0
 1330              		@ frame_needed = 0, uses_anonymous_args = 0
 1331              		@ link register save eliminated.
 343:../Common/IQMath/ti/_IQNmpy.c ****     return __IQNmpy(a, b, 4);
 1332              		.loc 1 343 5 view .LVU379
 1333              	.LBB118:
 1334              	.LBI118:
  28:../Common/IQMath/ti/_IQNmpy.h **** {
 1335              		.loc 2 28 30 view .LVU380
 1336              	.LBB119:
  30:../Common/IQMath/ti/_IQNmpy.h ****     
 1337              		.loc 2 30 5 view .LVU381
  32:../Common/IQMath/ti/_IQNmpy.h ****     iqNResult = iqNResult >> q_value;
 1338              		.loc 2 32 5 view .LVU382
  32:../Common/IQMath/ti/_IQNmpy.h ****     iqNResult = iqNResult >> q_value;
 1339              		.loc 2 32 17 is_stmt 0 view .LVU383
 1340 0000 C217     		asrs	r2, r0, #31
  32:../Common/IQMath/ti/_IQNmpy.h ****     iqNResult = iqNResult >> q_value;
 1341              		.loc 2 32 43 view .LVU384
 1342 0002 CB17     		asrs	r3, r1, #31
  32:../Common/IQMath/ti/_IQNmpy.h ****     iqNResult = iqNResult >> q_value;
 1343              		.loc 2 32 15 view .LVU385
 1344 0004 00FB03F3 		mul	r3, r0, r3
 1345 0008 01FB0233 		mla	r3, r1, r2, r3
 1346 000c A0FB0101 		umull	r0, r1, r0, r1
 1347              	.LVL109:
  32:../Common/IQMath/ti/_IQNmpy.h ****     iqNResult = iqNResult >> q_value;
 1348              		.loc 2 32 15 view .LVU386
 1349 0010 1944     		add	r1, r1, r3
 1350              	.LVL110:
  33:../Common/IQMath/ti/_IQNmpy.h **** 
 1351              		.loc 2 33 5 is_stmt 1 view .LVU387
  33:../Common/IQMath/ti/_IQNmpy.h **** 
 1352              		.loc 2 33 15 is_stmt 0 view .LVU388
 1353 0012 0009     		lsrs	r0, r0, #4
 1354              	.LVL111:
 1355              		.loc 2 35 5 is_stmt 1 view .LVU389
 1356              		.loc 2 35 5 is_stmt 0 view .LVU390
 1357              	.LBE119:
 1358              	.LBE118:
 344:../Common/IQMath/ti/_IQNmpy.c **** }
 1359              		.loc 1 344 1 view .LVU391
 1360 0014 40EA0170 		orr	r0, r0, r1, lsl #28
 1361 0018 7047     		bx	lr
 1362              		.cfi_endproc
 1363              	.LFE289:
 1365              		.section	.text._IQ3mpy,"ax",%progbits
 1366              		.align	1
 1367              		.global	_IQ3mpy
 1368              		.syntax unified
 1369              		.thumb
 1370              		.thumb_func
 1372              	_IQ3mpy:
 1373              	.LVL112:
ARM GAS  C:\Users\57308\AppData\Local\Temp\cchS4miY.s 			page 35


 1374              	.LFB290:
 345:../Common/IQMath/ti/_IQNmpy.c **** /**
 346:../Common/IQMath/ti/_IQNmpy.c ****  * @brief Multiplies two values of IQ3 format.
 347:../Common/IQMath/ti/_IQNmpy.c ****  *
 348:../Common/IQMath/ti/_IQNmpy.c ****  * @param a             IQ3 type value to be multiplied. 
 349:../Common/IQMath/ti/_IQNmpy.c ****  * @param b             IQ3 type value to be multiplied.
 350:../Common/IQMath/ti/_IQNmpy.c ****  *
 351:../Common/IQMath/ti/_IQNmpy.c ****  * @return              IQ3 type result of the multiplication.      
 352:../Common/IQMath/ti/_IQNmpy.c ****  */
 353:../Common/IQMath/ti/_IQNmpy.c **** int32_t _IQ3mpy(int32_t a, int32_t b)
 354:../Common/IQMath/ti/_IQNmpy.c **** {
 1375              		.loc 1 354 1 is_stmt 1 view -0
 1376              		.cfi_startproc
 1377              		@ args = 0, pretend = 0, frame = 0
 1378              		@ frame_needed = 0, uses_anonymous_args = 0
 1379              		@ link register save eliminated.
 355:../Common/IQMath/ti/_IQNmpy.c ****     return __IQNmpy(a, b, 3);
 1380              		.loc 1 355 5 view .LVU393
 1381              	.LBB120:
 1382              	.LBI120:
  28:../Common/IQMath/ti/_IQNmpy.h **** {
 1383              		.loc 2 28 30 view .LVU394
 1384              	.LBB121:
  30:../Common/IQMath/ti/_IQNmpy.h ****     
 1385              		.loc 2 30 5 view .LVU395
  32:../Common/IQMath/ti/_IQNmpy.h ****     iqNResult = iqNResult >> q_value;
 1386              		.loc 2 32 5 view .LVU396
  32:../Common/IQMath/ti/_IQNmpy.h ****     iqNResult = iqNResult >> q_value;
 1387              		.loc 2 32 17 is_stmt 0 view .LVU397
 1388 0000 C217     		asrs	r2, r0, #31
  32:../Common/IQMath/ti/_IQNmpy.h ****     iqNResult = iqNResult >> q_value;
 1389              		.loc 2 32 43 view .LVU398
 1390 0002 CB17     		asrs	r3, r1, #31
  32:../Common/IQMath/ti/_IQNmpy.h ****     iqNResult = iqNResult >> q_value;
 1391              		.loc 2 32 15 view .LVU399
 1392 0004 00FB03F3 		mul	r3, r0, r3
 1393 0008 01FB0233 		mla	r3, r1, r2, r3
 1394 000c A0FB0101 		umull	r0, r1, r0, r1
 1395              	.LVL113:
  32:../Common/IQMath/ti/_IQNmpy.h ****     iqNResult = iqNResult >> q_value;
 1396              		.loc 2 32 15 view .LVU400
 1397 0010 1944     		add	r1, r1, r3
 1398              	.LVL114:
  33:../Common/IQMath/ti/_IQNmpy.h **** 
 1399              		.loc 2 33 5 is_stmt 1 view .LVU401
  33:../Common/IQMath/ti/_IQNmpy.h **** 
 1400              		.loc 2 33 15 is_stmt 0 view .LVU402
 1401 0012 C008     		lsrs	r0, r0, #3
 1402              	.LVL115:
 1403              		.loc 2 35 5 is_stmt 1 view .LVU403
 1404              		.loc 2 35 5 is_stmt 0 view .LVU404
 1405              	.LBE121:
 1406              	.LBE120:
 356:../Common/IQMath/ti/_IQNmpy.c **** }
 1407              		.loc 1 356 1 view .LVU405
 1408 0014 40EA4170 		orr	r0, r0, r1, lsl #29
 1409 0018 7047     		bx	lr
ARM GAS  C:\Users\57308\AppData\Local\Temp\cchS4miY.s 			page 36


 1410              		.cfi_endproc
 1411              	.LFE290:
 1413              		.section	.text._IQ2mpy,"ax",%progbits
 1414              		.align	1
 1415              		.global	_IQ2mpy
 1416              		.syntax unified
 1417              		.thumb
 1418              		.thumb_func
 1420              	_IQ2mpy:
 1421              	.LVL116:
 1422              	.LFB291:
 357:../Common/IQMath/ti/_IQNmpy.c **** /**
 358:../Common/IQMath/ti/_IQNmpy.c ****  * @brief Multiplies two values of IQ2 format.
 359:../Common/IQMath/ti/_IQNmpy.c ****  *
 360:../Common/IQMath/ti/_IQNmpy.c ****  * @param a             IQ2 type value to be multiplied. 
 361:../Common/IQMath/ti/_IQNmpy.c ****  * @param b             IQ2 type value to be multiplied.
 362:../Common/IQMath/ti/_IQNmpy.c ****  *
 363:../Common/IQMath/ti/_IQNmpy.c ****  * @return              IQ2 type result of the multiplication.      
 364:../Common/IQMath/ti/_IQNmpy.c ****  */
 365:../Common/IQMath/ti/_IQNmpy.c **** int32_t _IQ2mpy(int32_t a, int32_t b)
 366:../Common/IQMath/ti/_IQNmpy.c **** {
 1423              		.loc 1 366 1 is_stmt 1 view -0
 1424              		.cfi_startproc
 1425              		@ args = 0, pretend = 0, frame = 0
 1426              		@ frame_needed = 0, uses_anonymous_args = 0
 1427              		@ link register save eliminated.
 367:../Common/IQMath/ti/_IQNmpy.c ****     return __IQNmpy(a, b, 2);
 1428              		.loc 1 367 5 view .LVU407
 1429              	.LBB122:
 1430              	.LBI122:
  28:../Common/IQMath/ti/_IQNmpy.h **** {
 1431              		.loc 2 28 30 view .LVU408
 1432              	.LBB123:
  30:../Common/IQMath/ti/_IQNmpy.h ****     
 1433              		.loc 2 30 5 view .LVU409
  32:../Common/IQMath/ti/_IQNmpy.h ****     iqNResult = iqNResult >> q_value;
 1434              		.loc 2 32 5 view .LVU410
  32:../Common/IQMath/ti/_IQNmpy.h ****     iqNResult = iqNResult >> q_value;
 1435              		.loc 2 32 17 is_stmt 0 view .LVU411
 1436 0000 C217     		asrs	r2, r0, #31
  32:../Common/IQMath/ti/_IQNmpy.h ****     iqNResult = iqNResult >> q_value;
 1437              		.loc 2 32 43 view .LVU412
 1438 0002 CB17     		asrs	r3, r1, #31
  32:../Common/IQMath/ti/_IQNmpy.h ****     iqNResult = iqNResult >> q_value;
 1439              		.loc 2 32 15 view .LVU413
 1440 0004 00FB03F3 		mul	r3, r0, r3
 1441 0008 01FB0233 		mla	r3, r1, r2, r3
 1442 000c A0FB0101 		umull	r0, r1, r0, r1
 1443              	.LVL117:
  32:../Common/IQMath/ti/_IQNmpy.h ****     iqNResult = iqNResult >> q_value;
 1444              		.loc 2 32 15 view .LVU414
 1445 0010 1944     		add	r1, r1, r3
 1446              	.LVL118:
  33:../Common/IQMath/ti/_IQNmpy.h **** 
 1447              		.loc 2 33 5 is_stmt 1 view .LVU415
  33:../Common/IQMath/ti/_IQNmpy.h **** 
 1448              		.loc 2 33 15 is_stmt 0 view .LVU416
ARM GAS  C:\Users\57308\AppData\Local\Temp\cchS4miY.s 			page 37


 1449 0012 8008     		lsrs	r0, r0, #2
 1450              	.LVL119:
 1451              		.loc 2 35 5 is_stmt 1 view .LVU417
 1452              		.loc 2 35 5 is_stmt 0 view .LVU418
 1453              	.LBE123:
 1454              	.LBE122:
 368:../Common/IQMath/ti/_IQNmpy.c **** }
 1455              		.loc 1 368 1 view .LVU419
 1456 0014 40EA8170 		orr	r0, r0, r1, lsl #30
 1457 0018 7047     		bx	lr
 1458              		.cfi_endproc
 1459              	.LFE291:
 1461              		.section	.text._IQ1mpy,"ax",%progbits
 1462              		.align	1
 1463              		.global	_IQ1mpy
 1464              		.syntax unified
 1465              		.thumb
 1466              		.thumb_func
 1468              	_IQ1mpy:
 1469              	.LVL120:
 1470              	.LFB292:
 369:../Common/IQMath/ti/_IQNmpy.c **** /**
 370:../Common/IQMath/ti/_IQNmpy.c ****  * @brief Multiplies two values of IQ1 format.
 371:../Common/IQMath/ti/_IQNmpy.c ****  *
 372:../Common/IQMath/ti/_IQNmpy.c ****  * @param a             IQ1 type value to be multiplied. 
 373:../Common/IQMath/ti/_IQNmpy.c ****  * @param b             IQ1 type value to be multiplied.
 374:../Common/IQMath/ti/_IQNmpy.c ****  *
 375:../Common/IQMath/ti/_IQNmpy.c ****  * @return              IQ1 type result of the multiplication.      
 376:../Common/IQMath/ti/_IQNmpy.c ****  */
 377:../Common/IQMath/ti/_IQNmpy.c **** int32_t _IQ1mpy(int32_t a, int32_t b)
 378:../Common/IQMath/ti/_IQNmpy.c **** {
 1471              		.loc 1 378 1 is_stmt 1 view -0
 1472              		.cfi_startproc
 1473              		@ args = 0, pretend = 0, frame = 0
 1474              		@ frame_needed = 0, uses_anonymous_args = 0
 1475              		@ link register save eliminated.
 379:../Common/IQMath/ti/_IQNmpy.c ****     return __IQNmpy(a, b, 1);
 1476              		.loc 1 379 5 view .LVU421
 1477              	.LBB124:
 1478              	.LBI124:
  28:../Common/IQMath/ti/_IQNmpy.h **** {
 1479              		.loc 2 28 30 view .LVU422
 1480              	.LBB125:
  30:../Common/IQMath/ti/_IQNmpy.h ****     
 1481              		.loc 2 30 5 view .LVU423
  32:../Common/IQMath/ti/_IQNmpy.h ****     iqNResult = iqNResult >> q_value;
 1482              		.loc 2 32 5 view .LVU424
  32:../Common/IQMath/ti/_IQNmpy.h ****     iqNResult = iqNResult >> q_value;
 1483              		.loc 2 32 17 is_stmt 0 view .LVU425
 1484 0000 C217     		asrs	r2, r0, #31
  32:../Common/IQMath/ti/_IQNmpy.h ****     iqNResult = iqNResult >> q_value;
 1485              		.loc 2 32 43 view .LVU426
 1486 0002 CB17     		asrs	r3, r1, #31
  32:../Common/IQMath/ti/_IQNmpy.h ****     iqNResult = iqNResult >> q_value;
 1487              		.loc 2 32 15 view .LVU427
 1488 0004 00FB03F3 		mul	r3, r0, r3
 1489 0008 01FB0233 		mla	r3, r1, r2, r3
ARM GAS  C:\Users\57308\AppData\Local\Temp\cchS4miY.s 			page 38


 1490 000c A0FB0101 		umull	r0, r1, r0, r1
 1491              	.LVL121:
  32:../Common/IQMath/ti/_IQNmpy.h ****     iqNResult = iqNResult >> q_value;
 1492              		.loc 2 32 15 view .LVU428
 1493 0010 1944     		add	r1, r1, r3
 1494              	.LVL122:
  33:../Common/IQMath/ti/_IQNmpy.h **** 
 1495              		.loc 2 33 5 is_stmt 1 view .LVU429
  33:../Common/IQMath/ti/_IQNmpy.h **** 
 1496              		.loc 2 33 15 is_stmt 0 view .LVU430
 1497 0012 4008     		lsrs	r0, r0, #1
 1498              	.LVL123:
 1499              		.loc 2 35 5 is_stmt 1 view .LVU431
 1500              		.loc 2 35 5 is_stmt 0 view .LVU432
 1501              	.LBE125:
 1502              	.LBE124:
 380:../Common/IQMath/ti/_IQNmpy.c **** }
 1503              		.loc 1 380 1 view .LVU433
 1504 0014 40EAC170 		orr	r0, r0, r1, lsl #31
 1505 0018 7047     		bx	lr
 1506              		.cfi_endproc
 1507              	.LFE292:
 1509              		.text
 1510              	.Letext0:
 1511              		.file 3 "d:\\program files\\gcc-arm-none-eabi-10.3-2021.10\\arm-none-eabi\\include\\machine\\_defa
 1512              		.file 4 "d:\\program files\\gcc-arm-none-eabi-10.3-2021.10\\arm-none-eabi\\include\\sys\\_stdint.h
 1513              		.file 5 "d:\\program files\\gcc-arm-none-eabi-10.3-2021.10\\arm-none-eabi\\include\\stdint.h"
ARM GAS  C:\Users\57308\AppData\Local\Temp\cchS4miY.s 			page 39

