ARM GAS  C:\Users\57308\AppData\Local\Temp\cc6zZRsl.s 			page 1


   1              		.cpu cortex-m4
   2              		.arch armv7e-m
   3              		.fpu fpv4-sp-d16
   4              		.eabi_attribute 27, 1
   5              		.eabi_attribute 28, 1
   6              		.eabi_attribute 20, 1
   7              		.eabi_attribute 21, 1
   8              		.eabi_attribute 23, 3
   9              		.eabi_attribute 24, 1
  10              		.eabi_attribute 25, 1
  11              		.eabi_attribute 26, 1
  12              		.eabi_attribute 30, 1
  13              		.eabi_attribute 34, 1
  14              		.eabi_attribute 18, 4
  15              		.file	"_IQNtoF.c"
  16              		.text
  17              	.Ltext0:
  18              		.cfi_sections	.debug_frame
  19              		.section	.text._IQ30toF,"ax",%progbits
  20              		.align	1
  21              		.global	_IQ30toF
  22              		.syntax unified
  23              		.thumb
  24              		.thumb_func
  26              	_IQ30toF:
  27              	.LVL0:
  28              	.LFB262:
  29              		.file 1 "../Common/IQMath/ti/_IQNtoF.c"
   1:../Common/IQMath/ti/_IQNtoF.c **** /*!****************************************************************************
   2:../Common/IQMath/ti/_IQNtoF.c ****  *  @file       _IQNtoF.c
   3:../Common/IQMath/ti/_IQNtoF.c ****  *  @brief      Functions to convert IQN type to floating point.
   4:../Common/IQMath/ti/_IQNtoF.c ****  *
   5:../Common/IQMath/ti/_IQNtoF.c ****  *  <hr>
   6:../Common/IQMath/ti/_IQNtoF.c ****  ******************************************************************************/
   7:../Common/IQMath/ti/_IQNtoF.c **** 
   8:../Common/IQMath/ti/_IQNtoF.c **** #include <stdint.h>
   9:../Common/IQMath/ti/_IQNtoF.c **** 
  10:../Common/IQMath/ti/_IQNtoF.c **** #include "./support/support.h"
  11:../Common/IQMath/ti/_IQNtoF.c **** 
  12:../Common/IQMath/ti/_IQNtoF.c **** /**
  13:../Common/IQMath/ti/_IQNtoF.c ****  * @brief Converts IQN type to floating point.
  14:../Common/IQMath/ti/_IQNtoF.c ****  *
  15:../Common/IQMath/ti/_IQNtoF.c ****  * @param iqNInput        IQN type value input to be converted.
  16:../Common/IQMath/ti/_IQNtoF.c ****  * @param q_value         IQ format.
  17:../Common/IQMath/ti/_IQNtoF.c ****  *
  18:../Common/IQMath/ti/_IQNtoF.c ****  * @return                Conversion of iqNInput to floating point.
  19:../Common/IQMath/ti/_IQNtoF.c ****  */
  20:../Common/IQMath/ti/_IQNtoF.c **** #if defined(__TI_COMPILER_VERSION__)
  21:../Common/IQMath/ti/_IQNtoF.c **** #pragma FUNC_ALWAYS_INLINE(__IQNtoF)
  22:../Common/IQMath/ti/_IQNtoF.c **** #elif defined(__IAR_SYSTEMS_ICC__)
  23:../Common/IQMath/ti/_IQNtoF.c **** #pragma inline = forced
  24:../Common/IQMath/ti/_IQNtoF.c **** #endif
  25:../Common/IQMath/ti/_IQNtoF.c **** __STATIC_INLINE float __IQNtoF(int_fast32_t iqNInput, int8_t q_value)
  26:../Common/IQMath/ti/_IQNtoF.c **** {
  27:../Common/IQMath/ti/_IQNtoF.c ****     uint_fast16_t ui16Exp;
  28:../Common/IQMath/ti/_IQNtoF.c ****     uint_fast32_t uiq23Result;
  29:../Common/IQMath/ti/_IQNtoF.c ****     uint_fast32_t uiq31Input;
ARM GAS  C:\Users\57308\AppData\Local\Temp\cc6zZRsl.s 			page 2


  30:../Common/IQMath/ti/_IQNtoF.c **** 
  31:../Common/IQMath/ti/_IQNtoF.c ****     /* Initialize exponent to the offset iq value. */
  32:../Common/IQMath/ti/_IQNtoF.c ****     ui16Exp = 0x3f80 + ((31 - q_value) * ((uint_fast32_t) 1 << (23 - 16)));
  33:../Common/IQMath/ti/_IQNtoF.c **** 
  34:../Common/IQMath/ti/_IQNtoF.c ****     /* Save the sign of the iqN input to the exponent construction. */
  35:../Common/IQMath/ti/_IQNtoF.c ****     if (iqNInput < 0) {
  36:../Common/IQMath/ti/_IQNtoF.c ****         ui16Exp |= 0x8000;
  37:../Common/IQMath/ti/_IQNtoF.c ****         uiq31Input = -iqNInput;
  38:../Common/IQMath/ti/_IQNtoF.c ****     } else if (iqNInput == 0) {
  39:../Common/IQMath/ti/_IQNtoF.c ****         return (0);
  40:../Common/IQMath/ti/_IQNtoF.c ****     } else {
  41:../Common/IQMath/ti/_IQNtoF.c ****         uiq31Input = iqNInput;
  42:../Common/IQMath/ti/_IQNtoF.c ****     }
  43:../Common/IQMath/ti/_IQNtoF.c **** 
  44:../Common/IQMath/ti/_IQNtoF.c ****     /* Scale the iqN input to uiq31 by keeping track of the exponent. */
  45:../Common/IQMath/ti/_IQNtoF.c ****     while ((uint_fast16_t)(uiq31Input >> 16) < 0x8000) {
  46:../Common/IQMath/ti/_IQNtoF.c ****         uiq31Input <<= 1;
  47:../Common/IQMath/ti/_IQNtoF.c ****         ui16Exp -= 0x0080;
  48:../Common/IQMath/ti/_IQNtoF.c ****     }
  49:../Common/IQMath/ti/_IQNtoF.c **** 
  50:../Common/IQMath/ti/_IQNtoF.c ****     /* Round the uiq31 result and and shift to uiq23 */
  51:../Common/IQMath/ti/_IQNtoF.c ****     uiq23Result = (uiq31Input + 0x0080) >> 8;
  52:../Common/IQMath/ti/_IQNtoF.c **** 
  53:../Common/IQMath/ti/_IQNtoF.c ****     /* Remove the implied MSB bit of the mantissa. */
  54:../Common/IQMath/ti/_IQNtoF.c ****     uiq23Result &= ~0x00800000;
  55:../Common/IQMath/ti/_IQNtoF.c **** 
  56:../Common/IQMath/ti/_IQNtoF.c ****     /*
  57:../Common/IQMath/ti/_IQNtoF.c ****      * Add the constructed exponent and sign bit to the mantissa. We must use
  58:../Common/IQMath/ti/_IQNtoF.c ****      * an add in the case where rounding would cause the mantissa to overflow.
  59:../Common/IQMath/ti/_IQNtoF.c ****      * When this happens the mantissa result is two where the MSB is zero and
  60:../Common/IQMath/ti/_IQNtoF.c ****      * the LSB of the exp is set to 1 instead. Adding one to the exponent is the
  61:../Common/IQMath/ti/_IQNtoF.c ****      * correct handling for a mantissa of two. It is not required to scale the
  62:../Common/IQMath/ti/_IQNtoF.c ****      * mantissa since it will always be equal to zero in this scenario.
  63:../Common/IQMath/ti/_IQNtoF.c ****      */
  64:../Common/IQMath/ti/_IQNtoF.c ****     uiq23Result += (uint_fast32_t) ui16Exp << 16;
  65:../Common/IQMath/ti/_IQNtoF.c **** 
  66:../Common/IQMath/ti/_IQNtoF.c ****     /* Return the mantissa + exp + sign result as a floating point type. */
  67:../Common/IQMath/ti/_IQNtoF.c ****     return *(float *) &uiq23Result;
  68:../Common/IQMath/ti/_IQNtoF.c **** }
  69:../Common/IQMath/ti/_IQNtoF.c **** 
  70:../Common/IQMath/ti/_IQNtoF.c **** /**
  71:../Common/IQMath/ti/_IQNtoF.c ****  * @brief Converts input to floating point using IQ30 format.
  72:../Common/IQMath/ti/_IQNtoF.c ****  *
  73:../Common/IQMath/ti/_IQNtoF.c ****  * @param a             IQ30 type value to be converted.
  74:../Common/IQMath/ti/_IQNtoF.c ****  *
  75:../Common/IQMath/ti/_IQNtoF.c ****  * @return              Conversion of input to floating point.
  76:../Common/IQMath/ti/_IQNtoF.c ****  */
  77:../Common/IQMath/ti/_IQNtoF.c **** float _IQ30toF(int32_t a)
  78:../Common/IQMath/ti/_IQNtoF.c **** {
  30              		.loc 1 78 1 view -0
  31              		.cfi_startproc
  32              		@ args = 0, pretend = 0, frame = 0
  33              		@ frame_needed = 0, uses_anonymous_args = 0
  34              		@ link register save eliminated.
  79:../Common/IQMath/ti/_IQNtoF.c ****     return __IQNtoF(a, 30);
  35              		.loc 1 79 5 view .LVU1
  36              	.LBB4:
ARM GAS  C:\Users\57308\AppData\Local\Temp\cc6zZRsl.s 			page 3


  37              	.LBI4:
  25:../Common/IQMath/ti/_IQNtoF.c **** {
  38              		.loc 1 25 23 view .LVU2
  39              	.LBB5:
  27:../Common/IQMath/ti/_IQNtoF.c ****     uint_fast32_t uiq23Result;
  40              		.loc 1 27 5 view .LVU3
  28:../Common/IQMath/ti/_IQNtoF.c ****     uint_fast32_t uiq31Input;
  41              		.loc 1 28 5 view .LVU4
  29:../Common/IQMath/ti/_IQNtoF.c **** 
  42              		.loc 1 29 5 view .LVU5
  32:../Common/IQMath/ti/_IQNtoF.c **** 
  43              		.loc 1 32 5 view .LVU6
  35:../Common/IQMath/ti/_IQNtoF.c ****         ui16Exp |= 0x8000;
  44              		.loc 1 35 5 view .LVU7
  35:../Common/IQMath/ti/_IQNtoF.c ****         ui16Exp |= 0x8000;
  45              		.loc 1 35 8 is_stmt 0 view .LVU8
  46 0000 0028     		cmp	r0, #0
  35:../Common/IQMath/ti/_IQNtoF.c ****         ui16Exp |= 0x8000;
  47              		.loc 1 35 8 view .LVU9
  48 0002 03DB     		blt	.L8
  38:../Common/IQMath/ti/_IQNtoF.c ****         return (0);
  49              		.loc 1 38 12 is_stmt 1 view .LVU10
  38:../Common/IQMath/ti/_IQNtoF.c ****         return (0);
  50              		.loc 1 38 15 is_stmt 0 view .LVU11
  51 0004 90B1     		cbz	r0, .L7
  41:../Common/IQMath/ti/_IQNtoF.c ****     }
  52              		.loc 1 41 9 is_stmt 1 view .LVU12
  53              	.LVL1:
  32:../Common/IQMath/ti/_IQNtoF.c **** 
  54              		.loc 1 32 13 is_stmt 0 view .LVU13
  55 0006 4FF48043 		mov	r3, #16384
  56 000a 05E0     		b	.L5
  57              	.LVL2:
  58              	.L8:
  36:../Common/IQMath/ti/_IQNtoF.c ****         uiq31Input = -iqNInput;
  59              		.loc 1 36 9 is_stmt 1 view .LVU14
  37:../Common/IQMath/ti/_IQNtoF.c ****     } else if (iqNInput == 0) {
  60              		.loc 1 37 9 view .LVU15
  37:../Common/IQMath/ti/_IQNtoF.c ****     } else if (iqNInput == 0) {
  61              		.loc 1 37 22 is_stmt 0 view .LVU16
  62 000c 4042     		rsbs	r0, r0, #0
  63              	.LVL3:
  36:../Common/IQMath/ti/_IQNtoF.c ****         uiq31Input = -iqNInput;
  64              		.loc 1 36 17 view .LVU17
  65 000e 4FF44043 		mov	r3, #49152
  66 0012 01E0     		b	.L5
  67              	.LVL4:
  68              	.L6:
  46:../Common/IQMath/ti/_IQNtoF.c ****         ui16Exp -= 0x0080;
  69              		.loc 1 46 9 is_stmt 1 view .LVU18
  46:../Common/IQMath/ti/_IQNtoF.c ****         ui16Exp -= 0x0080;
  70              		.loc 1 46 20 is_stmt 0 view .LVU19
  71 0014 4000     		lsls	r0, r0, #1
  72              	.LVL5:
  47:../Common/IQMath/ti/_IQNtoF.c ****     }
  73              		.loc 1 47 9 is_stmt 1 view .LVU20
  47:../Common/IQMath/ti/_IQNtoF.c ****     }
ARM GAS  C:\Users\57308\AppData\Local\Temp\cc6zZRsl.s 			page 4


  74              		.loc 1 47 17 is_stmt 0 view .LVU21
  75 0016 803B     		subs	r3, r3, #128
  76              	.LVL6:
  77              	.L5:
  45:../Common/IQMath/ti/_IQNtoF.c ****         uiq31Input <<= 1;
  78              		.loc 1 45 11 is_stmt 1 view .LVU22
  79 0018 0028     		cmp	r0, #0
  80 001a FBDA     		bge	.L6
  51:../Common/IQMath/ti/_IQNtoF.c **** 
  81              		.loc 1 51 5 view .LVU23
  51:../Common/IQMath/ti/_IQNtoF.c **** 
  82              		.loc 1 51 31 is_stmt 0 view .LVU24
  83 001c 8030     		adds	r0, r0, #128
  84              	.LVL7:
  54:../Common/IQMath/ti/_IQNtoF.c **** 
  85              		.loc 1 54 5 is_stmt 1 view .LVU25
  54:../Common/IQMath/ti/_IQNtoF.c **** 
  86              		.loc 1 54 17 is_stmt 0 view .LVU26
  87 001e C0F31620 		ubfx	r0, r0, #8, #23
  88              	.LVL8:
  64:../Common/IQMath/ti/_IQNtoF.c **** 
  89              		.loc 1 64 5 is_stmt 1 view .LVU27
  67:../Common/IQMath/ti/_IQNtoF.c **** }
  90              		.loc 1 67 5 view .LVU28
  67:../Common/IQMath/ti/_IQNtoF.c **** }
  91              		.loc 1 67 12 is_stmt 0 view .LVU29
  92 0022 00EB0343 		add	r3, r0, r3, lsl #16
  93              	.LVL9:
  67:../Common/IQMath/ti/_IQNtoF.c **** }
  94              		.loc 1 67 12 view .LVU30
  95 0026 00EE103A 		vmov	s0, r3	@ int
  96 002a 7047     		bx	lr
  97              	.LVL10:
  98              	.L7:
  39:../Common/IQMath/ti/_IQNtoF.c ****     } else {
  99              		.loc 1 39 16 view .LVU31
 100 002c 9FED010A 		vldr.32	s0, .L9
 101              	.LVL11:
  39:../Common/IQMath/ti/_IQNtoF.c ****     } else {
 102              		.loc 1 39 16 view .LVU32
 103              	.LBE5:
 104              	.LBE4:
  80:../Common/IQMath/ti/_IQNtoF.c **** }
 105              		.loc 1 80 1 view .LVU33
 106 0030 7047     		bx	lr
 107              	.L10:
 108 0032 00BF     		.align	2
 109              	.L9:
 110 0034 00000000 		.word	0
 111              		.cfi_endproc
 112              	.LFE262:
 114              		.section	.text._IQ29toF,"ax",%progbits
 115              		.align	1
 116              		.global	_IQ29toF
 117              		.syntax unified
 118              		.thumb
 119              		.thumb_func
ARM GAS  C:\Users\57308\AppData\Local\Temp\cc6zZRsl.s 			page 5


 121              	_IQ29toF:
 122              	.LVL12:
 123              	.LFB263:
  81:../Common/IQMath/ti/_IQNtoF.c **** /**
  82:../Common/IQMath/ti/_IQNtoF.c ****  * @brief Converts input to floating point using IQ29 format.
  83:../Common/IQMath/ti/_IQNtoF.c ****  *
  84:../Common/IQMath/ti/_IQNtoF.c ****  * @param a             IQ29 type value to be converted.
  85:../Common/IQMath/ti/_IQNtoF.c ****  *
  86:../Common/IQMath/ti/_IQNtoF.c ****  * @return              Conversion of input to floating point.
  87:../Common/IQMath/ti/_IQNtoF.c ****  */
  88:../Common/IQMath/ti/_IQNtoF.c **** float _IQ29toF(int32_t a)
  89:../Common/IQMath/ti/_IQNtoF.c **** {
 124              		.loc 1 89 1 is_stmt 1 view -0
 125              		.cfi_startproc
 126              		@ args = 0, pretend = 0, frame = 0
 127              		@ frame_needed = 0, uses_anonymous_args = 0
 128              		@ link register save eliminated.
  90:../Common/IQMath/ti/_IQNtoF.c ****     return __IQNtoF(a, 29);
 129              		.loc 1 90 5 view .LVU35
 130              	.LBB8:
 131              	.LBI8:
  25:../Common/IQMath/ti/_IQNtoF.c **** {
 132              		.loc 1 25 23 view .LVU36
 133              	.LBB9:
  27:../Common/IQMath/ti/_IQNtoF.c ****     uint_fast32_t uiq23Result;
 134              		.loc 1 27 5 view .LVU37
  28:../Common/IQMath/ti/_IQNtoF.c ****     uint_fast32_t uiq31Input;
 135              		.loc 1 28 5 view .LVU38
  29:../Common/IQMath/ti/_IQNtoF.c **** 
 136              		.loc 1 29 5 view .LVU39
  32:../Common/IQMath/ti/_IQNtoF.c **** 
 137              		.loc 1 32 5 view .LVU40
  35:../Common/IQMath/ti/_IQNtoF.c ****         ui16Exp |= 0x8000;
 138              		.loc 1 35 5 view .LVU41
  35:../Common/IQMath/ti/_IQNtoF.c ****         ui16Exp |= 0x8000;
 139              		.loc 1 35 8 is_stmt 0 view .LVU42
 140 0000 0028     		cmp	r0, #0
  35:../Common/IQMath/ti/_IQNtoF.c ****         ui16Exp |= 0x8000;
 141              		.loc 1 35 8 view .LVU43
 142 0002 03DB     		blt	.L18
  38:../Common/IQMath/ti/_IQNtoF.c ****         return (0);
 143              		.loc 1 38 12 is_stmt 1 view .LVU44
  38:../Common/IQMath/ti/_IQNtoF.c ****         return (0);
 144              		.loc 1 38 15 is_stmt 0 view .LVU45
 145 0004 90B1     		cbz	r0, .L17
  41:../Common/IQMath/ti/_IQNtoF.c ****     }
 146              		.loc 1 41 9 is_stmt 1 view .LVU46
 147              	.LVL13:
  32:../Common/IQMath/ti/_IQNtoF.c **** 
 148              		.loc 1 32 13 is_stmt 0 view .LVU47
 149 0006 4FF48143 		mov	r3, #16512
 150 000a 05E0     		b	.L15
 151              	.LVL14:
 152              	.L18:
  36:../Common/IQMath/ti/_IQNtoF.c ****         uiq31Input = -iqNInput;
 153              		.loc 1 36 9 is_stmt 1 view .LVU48
  37:../Common/IQMath/ti/_IQNtoF.c ****     } else if (iqNInput == 0) {
ARM GAS  C:\Users\57308\AppData\Local\Temp\cc6zZRsl.s 			page 6


 154              		.loc 1 37 9 view .LVU49
  37:../Common/IQMath/ti/_IQNtoF.c ****     } else if (iqNInput == 0) {
 155              		.loc 1 37 22 is_stmt 0 view .LVU50
 156 000c 4042     		rsbs	r0, r0, #0
 157              	.LVL15:
  36:../Common/IQMath/ti/_IQNtoF.c ****         uiq31Input = -iqNInput;
 158              		.loc 1 36 17 view .LVU51
 159 000e 4CF28003 		movw	r3, #49280
 160 0012 01E0     		b	.L15
 161              	.LVL16:
 162              	.L16:
  46:../Common/IQMath/ti/_IQNtoF.c ****         ui16Exp -= 0x0080;
 163              		.loc 1 46 9 is_stmt 1 view .LVU52
  46:../Common/IQMath/ti/_IQNtoF.c ****         ui16Exp -= 0x0080;
 164              		.loc 1 46 20 is_stmt 0 view .LVU53
 165 0014 4000     		lsls	r0, r0, #1
 166              	.LVL17:
  47:../Common/IQMath/ti/_IQNtoF.c ****     }
 167              		.loc 1 47 9 is_stmt 1 view .LVU54
  47:../Common/IQMath/ti/_IQNtoF.c ****     }
 168              		.loc 1 47 17 is_stmt 0 view .LVU55
 169 0016 803B     		subs	r3, r3, #128
 170              	.LVL18:
 171              	.L15:
  45:../Common/IQMath/ti/_IQNtoF.c ****         uiq31Input <<= 1;
 172              		.loc 1 45 11 is_stmt 1 view .LVU56
 173 0018 0028     		cmp	r0, #0
 174 001a FBDA     		bge	.L16
  51:../Common/IQMath/ti/_IQNtoF.c **** 
 175              		.loc 1 51 5 view .LVU57
  51:../Common/IQMath/ti/_IQNtoF.c **** 
 176              		.loc 1 51 31 is_stmt 0 view .LVU58
 177 001c 8030     		adds	r0, r0, #128
 178              	.LVL19:
  54:../Common/IQMath/ti/_IQNtoF.c **** 
 179              		.loc 1 54 5 is_stmt 1 view .LVU59
  54:../Common/IQMath/ti/_IQNtoF.c **** 
 180              		.loc 1 54 17 is_stmt 0 view .LVU60
 181 001e C0F31620 		ubfx	r0, r0, #8, #23
 182              	.LVL20:
  64:../Common/IQMath/ti/_IQNtoF.c **** 
 183              		.loc 1 64 5 is_stmt 1 view .LVU61
  67:../Common/IQMath/ti/_IQNtoF.c **** }
 184              		.loc 1 67 5 view .LVU62
  67:../Common/IQMath/ti/_IQNtoF.c **** }
 185              		.loc 1 67 12 is_stmt 0 view .LVU63
 186 0022 00EB0343 		add	r3, r0, r3, lsl #16
 187              	.LVL21:
  67:../Common/IQMath/ti/_IQNtoF.c **** }
 188              		.loc 1 67 12 view .LVU64
 189 0026 00EE103A 		vmov	s0, r3	@ int
 190 002a 7047     		bx	lr
 191              	.LVL22:
 192              	.L17:
  39:../Common/IQMath/ti/_IQNtoF.c ****     } else {
 193              		.loc 1 39 16 view .LVU65
 194 002c 9FED010A 		vldr.32	s0, .L19
ARM GAS  C:\Users\57308\AppData\Local\Temp\cc6zZRsl.s 			page 7


 195              	.LVL23:
  39:../Common/IQMath/ti/_IQNtoF.c ****     } else {
 196              		.loc 1 39 16 view .LVU66
 197              	.LBE9:
 198              	.LBE8:
  91:../Common/IQMath/ti/_IQNtoF.c **** }
 199              		.loc 1 91 1 view .LVU67
 200 0030 7047     		bx	lr
 201              	.L20:
 202 0032 00BF     		.align	2
 203              	.L19:
 204 0034 00000000 		.word	0
 205              		.cfi_endproc
 206              	.LFE263:
 208              		.section	.text._IQ28toF,"ax",%progbits
 209              		.align	1
 210              		.global	_IQ28toF
 211              		.syntax unified
 212              		.thumb
 213              		.thumb_func
 215              	_IQ28toF:
 216              	.LVL24:
 217              	.LFB264:
  92:../Common/IQMath/ti/_IQNtoF.c **** /**
  93:../Common/IQMath/ti/_IQNtoF.c ****  * @brief Converts input to floating point using IQ28 format.
  94:../Common/IQMath/ti/_IQNtoF.c ****  *
  95:../Common/IQMath/ti/_IQNtoF.c ****  * @param a             IQ28 type value to be converted.
  96:../Common/IQMath/ti/_IQNtoF.c ****  *
  97:../Common/IQMath/ti/_IQNtoF.c ****  * @return              Conversion of input to floating point.
  98:../Common/IQMath/ti/_IQNtoF.c ****  */
  99:../Common/IQMath/ti/_IQNtoF.c **** float _IQ28toF(int32_t a)
 100:../Common/IQMath/ti/_IQNtoF.c **** {
 218              		.loc 1 100 1 is_stmt 1 view -0
 219              		.cfi_startproc
 220              		@ args = 0, pretend = 0, frame = 0
 221              		@ frame_needed = 0, uses_anonymous_args = 0
 222              		@ link register save eliminated.
 101:../Common/IQMath/ti/_IQNtoF.c ****     return __IQNtoF(a, 28);
 223              		.loc 1 101 5 view .LVU69
 224              	.LBB12:
 225              	.LBI12:
  25:../Common/IQMath/ti/_IQNtoF.c **** {
 226              		.loc 1 25 23 view .LVU70
 227              	.LBB13:
  27:../Common/IQMath/ti/_IQNtoF.c ****     uint_fast32_t uiq23Result;
 228              		.loc 1 27 5 view .LVU71
  28:../Common/IQMath/ti/_IQNtoF.c ****     uint_fast32_t uiq31Input;
 229              		.loc 1 28 5 view .LVU72
  29:../Common/IQMath/ti/_IQNtoF.c **** 
 230              		.loc 1 29 5 view .LVU73
  32:../Common/IQMath/ti/_IQNtoF.c **** 
 231              		.loc 1 32 5 view .LVU74
  35:../Common/IQMath/ti/_IQNtoF.c ****         ui16Exp |= 0x8000;
 232              		.loc 1 35 5 view .LVU75
  35:../Common/IQMath/ti/_IQNtoF.c ****         ui16Exp |= 0x8000;
 233              		.loc 1 35 8 is_stmt 0 view .LVU76
 234 0000 0028     		cmp	r0, #0
ARM GAS  C:\Users\57308\AppData\Local\Temp\cc6zZRsl.s 			page 8


  35:../Common/IQMath/ti/_IQNtoF.c ****         ui16Exp |= 0x8000;
 235              		.loc 1 35 8 view .LVU77
 236 0002 03DB     		blt	.L28
  38:../Common/IQMath/ti/_IQNtoF.c ****         return (0);
 237              		.loc 1 38 12 is_stmt 1 view .LVU78
  38:../Common/IQMath/ti/_IQNtoF.c ****         return (0);
 238              		.loc 1 38 15 is_stmt 0 view .LVU79
 239 0004 90B1     		cbz	r0, .L27
  41:../Common/IQMath/ti/_IQNtoF.c ****     }
 240              		.loc 1 41 9 is_stmt 1 view .LVU80
 241              	.LVL25:
  32:../Common/IQMath/ti/_IQNtoF.c **** 
 242              		.loc 1 32 13 is_stmt 0 view .LVU81
 243 0006 4FF48243 		mov	r3, #16640
 244 000a 05E0     		b	.L25
 245              	.LVL26:
 246              	.L28:
  36:../Common/IQMath/ti/_IQNtoF.c ****         uiq31Input = -iqNInput;
 247              		.loc 1 36 9 is_stmt 1 view .LVU82
  37:../Common/IQMath/ti/_IQNtoF.c ****     } else if (iqNInput == 0) {
 248              		.loc 1 37 9 view .LVU83
  37:../Common/IQMath/ti/_IQNtoF.c ****     } else if (iqNInput == 0) {
 249              		.loc 1 37 22 is_stmt 0 view .LVU84
 250 000c 4042     		rsbs	r0, r0, #0
 251              	.LVL27:
  36:../Common/IQMath/ti/_IQNtoF.c ****         uiq31Input = -iqNInput;
 252              		.loc 1 36 17 view .LVU85
 253 000e 4FF44143 		mov	r3, #49408
 254 0012 01E0     		b	.L25
 255              	.LVL28:
 256              	.L26:
  46:../Common/IQMath/ti/_IQNtoF.c ****         ui16Exp -= 0x0080;
 257              		.loc 1 46 9 is_stmt 1 view .LVU86
  46:../Common/IQMath/ti/_IQNtoF.c ****         ui16Exp -= 0x0080;
 258              		.loc 1 46 20 is_stmt 0 view .LVU87
 259 0014 4000     		lsls	r0, r0, #1
 260              	.LVL29:
  47:../Common/IQMath/ti/_IQNtoF.c ****     }
 261              		.loc 1 47 9 is_stmt 1 view .LVU88
  47:../Common/IQMath/ti/_IQNtoF.c ****     }
 262              		.loc 1 47 17 is_stmt 0 view .LVU89
 263 0016 803B     		subs	r3, r3, #128
 264              	.LVL30:
 265              	.L25:
  45:../Common/IQMath/ti/_IQNtoF.c ****         uiq31Input <<= 1;
 266              		.loc 1 45 11 is_stmt 1 view .LVU90
 267 0018 0028     		cmp	r0, #0
 268 001a FBDA     		bge	.L26
  51:../Common/IQMath/ti/_IQNtoF.c **** 
 269              		.loc 1 51 5 view .LVU91
  51:../Common/IQMath/ti/_IQNtoF.c **** 
 270              		.loc 1 51 31 is_stmt 0 view .LVU92
 271 001c 8030     		adds	r0, r0, #128
 272              	.LVL31:
  54:../Common/IQMath/ti/_IQNtoF.c **** 
 273              		.loc 1 54 5 is_stmt 1 view .LVU93
  54:../Common/IQMath/ti/_IQNtoF.c **** 
ARM GAS  C:\Users\57308\AppData\Local\Temp\cc6zZRsl.s 			page 9


 274              		.loc 1 54 17 is_stmt 0 view .LVU94
 275 001e C0F31620 		ubfx	r0, r0, #8, #23
 276              	.LVL32:
  64:../Common/IQMath/ti/_IQNtoF.c **** 
 277              		.loc 1 64 5 is_stmt 1 view .LVU95
  67:../Common/IQMath/ti/_IQNtoF.c **** }
 278              		.loc 1 67 5 view .LVU96
  67:../Common/IQMath/ti/_IQNtoF.c **** }
 279              		.loc 1 67 12 is_stmt 0 view .LVU97
 280 0022 00EB0343 		add	r3, r0, r3, lsl #16
 281              	.LVL33:
  67:../Common/IQMath/ti/_IQNtoF.c **** }
 282              		.loc 1 67 12 view .LVU98
 283 0026 00EE103A 		vmov	s0, r3	@ int
 284 002a 7047     		bx	lr
 285              	.LVL34:
 286              	.L27:
  39:../Common/IQMath/ti/_IQNtoF.c ****     } else {
 287              		.loc 1 39 16 view .LVU99
 288 002c 9FED010A 		vldr.32	s0, .L29
 289              	.LVL35:
  39:../Common/IQMath/ti/_IQNtoF.c ****     } else {
 290              		.loc 1 39 16 view .LVU100
 291              	.LBE13:
 292              	.LBE12:
 102:../Common/IQMath/ti/_IQNtoF.c **** }
 293              		.loc 1 102 1 view .LVU101
 294 0030 7047     		bx	lr
 295              	.L30:
 296 0032 00BF     		.align	2
 297              	.L29:
 298 0034 00000000 		.word	0
 299              		.cfi_endproc
 300              	.LFE264:
 302              		.section	.text._IQ27toF,"ax",%progbits
 303              		.align	1
 304              		.global	_IQ27toF
 305              		.syntax unified
 306              		.thumb
 307              		.thumb_func
 309              	_IQ27toF:
 310              	.LVL36:
 311              	.LFB265:
 103:../Common/IQMath/ti/_IQNtoF.c **** /**
 104:../Common/IQMath/ti/_IQNtoF.c ****  * @brief Converts input to floating point using IQ27 format.
 105:../Common/IQMath/ti/_IQNtoF.c ****  *
 106:../Common/IQMath/ti/_IQNtoF.c ****  * @param a             IQ27 type value to be converted.
 107:../Common/IQMath/ti/_IQNtoF.c ****  *
 108:../Common/IQMath/ti/_IQNtoF.c ****  * @return              Conversion of input to floating point.
 109:../Common/IQMath/ti/_IQNtoF.c ****  */
 110:../Common/IQMath/ti/_IQNtoF.c **** float _IQ27toF(int32_t a)
 111:../Common/IQMath/ti/_IQNtoF.c **** {
 312              		.loc 1 111 1 is_stmt 1 view -0
 313              		.cfi_startproc
 314              		@ args = 0, pretend = 0, frame = 0
 315              		@ frame_needed = 0, uses_anonymous_args = 0
 316              		@ link register save eliminated.
ARM GAS  C:\Users\57308\AppData\Local\Temp\cc6zZRsl.s 			page 10


 112:../Common/IQMath/ti/_IQNtoF.c ****     return __IQNtoF(a, 27);
 317              		.loc 1 112 5 view .LVU103
 318              	.LBB16:
 319              	.LBI16:
  25:../Common/IQMath/ti/_IQNtoF.c **** {
 320              		.loc 1 25 23 view .LVU104
 321              	.LBB17:
  27:../Common/IQMath/ti/_IQNtoF.c ****     uint_fast32_t uiq23Result;
 322              		.loc 1 27 5 view .LVU105
  28:../Common/IQMath/ti/_IQNtoF.c ****     uint_fast32_t uiq31Input;
 323              		.loc 1 28 5 view .LVU106
  29:../Common/IQMath/ti/_IQNtoF.c **** 
 324              		.loc 1 29 5 view .LVU107
  32:../Common/IQMath/ti/_IQNtoF.c **** 
 325              		.loc 1 32 5 view .LVU108
  35:../Common/IQMath/ti/_IQNtoF.c ****         ui16Exp |= 0x8000;
 326              		.loc 1 35 5 view .LVU109
  35:../Common/IQMath/ti/_IQNtoF.c ****         ui16Exp |= 0x8000;
 327              		.loc 1 35 8 is_stmt 0 view .LVU110
 328 0000 0028     		cmp	r0, #0
  35:../Common/IQMath/ti/_IQNtoF.c ****         ui16Exp |= 0x8000;
 329              		.loc 1 35 8 view .LVU111
 330 0002 03DB     		blt	.L38
  38:../Common/IQMath/ti/_IQNtoF.c ****         return (0);
 331              		.loc 1 38 12 is_stmt 1 view .LVU112
  38:../Common/IQMath/ti/_IQNtoF.c ****         return (0);
 332              		.loc 1 38 15 is_stmt 0 view .LVU113
 333 0004 90B1     		cbz	r0, .L37
  41:../Common/IQMath/ti/_IQNtoF.c ****     }
 334              		.loc 1 41 9 is_stmt 1 view .LVU114
 335              	.LVL37:
  32:../Common/IQMath/ti/_IQNtoF.c **** 
 336              		.loc 1 32 13 is_stmt 0 view .LVU115
 337 0006 4FF48343 		mov	r3, #16768
 338 000a 05E0     		b	.L35
 339              	.LVL38:
 340              	.L38:
  36:../Common/IQMath/ti/_IQNtoF.c ****         uiq31Input = -iqNInput;
 341              		.loc 1 36 9 is_stmt 1 view .LVU116
  37:../Common/IQMath/ti/_IQNtoF.c ****     } else if (iqNInput == 0) {
 342              		.loc 1 37 9 view .LVU117
  37:../Common/IQMath/ti/_IQNtoF.c ****     } else if (iqNInput == 0) {
 343              		.loc 1 37 22 is_stmt 0 view .LVU118
 344 000c 4042     		rsbs	r0, r0, #0
 345              	.LVL39:
  36:../Common/IQMath/ti/_IQNtoF.c ****         uiq31Input = -iqNInput;
 346              		.loc 1 36 17 view .LVU119
 347 000e 4CF28013 		movw	r3, #49536
 348 0012 01E0     		b	.L35
 349              	.LVL40:
 350              	.L36:
  46:../Common/IQMath/ti/_IQNtoF.c ****         ui16Exp -= 0x0080;
 351              		.loc 1 46 9 is_stmt 1 view .LVU120
  46:../Common/IQMath/ti/_IQNtoF.c ****         ui16Exp -= 0x0080;
 352              		.loc 1 46 20 is_stmt 0 view .LVU121
 353 0014 4000     		lsls	r0, r0, #1
 354              	.LVL41:
ARM GAS  C:\Users\57308\AppData\Local\Temp\cc6zZRsl.s 			page 11


  47:../Common/IQMath/ti/_IQNtoF.c ****     }
 355              		.loc 1 47 9 is_stmt 1 view .LVU122
  47:../Common/IQMath/ti/_IQNtoF.c ****     }
 356              		.loc 1 47 17 is_stmt 0 view .LVU123
 357 0016 803B     		subs	r3, r3, #128
 358              	.LVL42:
 359              	.L35:
  45:../Common/IQMath/ti/_IQNtoF.c ****         uiq31Input <<= 1;
 360              		.loc 1 45 11 is_stmt 1 view .LVU124
 361 0018 0028     		cmp	r0, #0
 362 001a FBDA     		bge	.L36
  51:../Common/IQMath/ti/_IQNtoF.c **** 
 363              		.loc 1 51 5 view .LVU125
  51:../Common/IQMath/ti/_IQNtoF.c **** 
 364              		.loc 1 51 31 is_stmt 0 view .LVU126
 365 001c 8030     		adds	r0, r0, #128
 366              	.LVL43:
  54:../Common/IQMath/ti/_IQNtoF.c **** 
 367              		.loc 1 54 5 is_stmt 1 view .LVU127
  54:../Common/IQMath/ti/_IQNtoF.c **** 
 368              		.loc 1 54 17 is_stmt 0 view .LVU128
 369 001e C0F31620 		ubfx	r0, r0, #8, #23
 370              	.LVL44:
  64:../Common/IQMath/ti/_IQNtoF.c **** 
 371              		.loc 1 64 5 is_stmt 1 view .LVU129
  67:../Common/IQMath/ti/_IQNtoF.c **** }
 372              		.loc 1 67 5 view .LVU130
  67:../Common/IQMath/ti/_IQNtoF.c **** }
 373              		.loc 1 67 12 is_stmt 0 view .LVU131
 374 0022 00EB0343 		add	r3, r0, r3, lsl #16
 375              	.LVL45:
  67:../Common/IQMath/ti/_IQNtoF.c **** }
 376              		.loc 1 67 12 view .LVU132
 377 0026 00EE103A 		vmov	s0, r3	@ int
 378 002a 7047     		bx	lr
 379              	.LVL46:
 380              	.L37:
  39:../Common/IQMath/ti/_IQNtoF.c ****     } else {
 381              		.loc 1 39 16 view .LVU133
 382 002c 9FED010A 		vldr.32	s0, .L39
 383              	.LVL47:
  39:../Common/IQMath/ti/_IQNtoF.c ****     } else {
 384              		.loc 1 39 16 view .LVU134
 385              	.LBE17:
 386              	.LBE16:
 113:../Common/IQMath/ti/_IQNtoF.c **** }
 387              		.loc 1 113 1 view .LVU135
 388 0030 7047     		bx	lr
 389              	.L40:
 390 0032 00BF     		.align	2
 391              	.L39:
 392 0034 00000000 		.word	0
 393              		.cfi_endproc
 394              	.LFE265:
 396              		.section	.text._IQ26toF,"ax",%progbits
 397              		.align	1
 398              		.global	_IQ26toF
ARM GAS  C:\Users\57308\AppData\Local\Temp\cc6zZRsl.s 			page 12


 399              		.syntax unified
 400              		.thumb
 401              		.thumb_func
 403              	_IQ26toF:
 404              	.LVL48:
 405              	.LFB266:
 114:../Common/IQMath/ti/_IQNtoF.c **** /**
 115:../Common/IQMath/ti/_IQNtoF.c ****  * @brief Converts input to floating point using IQ26 format.
 116:../Common/IQMath/ti/_IQNtoF.c ****  *
 117:../Common/IQMath/ti/_IQNtoF.c ****  * @param a             IQ26 type value to be converted.
 118:../Common/IQMath/ti/_IQNtoF.c ****  *
 119:../Common/IQMath/ti/_IQNtoF.c ****  * @return              Conversion of input to floating point.
 120:../Common/IQMath/ti/_IQNtoF.c ****  */
 121:../Common/IQMath/ti/_IQNtoF.c **** float _IQ26toF(int32_t a)
 122:../Common/IQMath/ti/_IQNtoF.c **** {
 406              		.loc 1 122 1 is_stmt 1 view -0
 407              		.cfi_startproc
 408              		@ args = 0, pretend = 0, frame = 0
 409              		@ frame_needed = 0, uses_anonymous_args = 0
 410              		@ link register save eliminated.
 123:../Common/IQMath/ti/_IQNtoF.c ****     return __IQNtoF(a, 26);
 411              		.loc 1 123 5 view .LVU137
 412              	.LBB20:
 413              	.LBI20:
  25:../Common/IQMath/ti/_IQNtoF.c **** {
 414              		.loc 1 25 23 view .LVU138
 415              	.LBB21:
  27:../Common/IQMath/ti/_IQNtoF.c ****     uint_fast32_t uiq23Result;
 416              		.loc 1 27 5 view .LVU139
  28:../Common/IQMath/ti/_IQNtoF.c ****     uint_fast32_t uiq31Input;
 417              		.loc 1 28 5 view .LVU140
  29:../Common/IQMath/ti/_IQNtoF.c **** 
 418              		.loc 1 29 5 view .LVU141
  32:../Common/IQMath/ti/_IQNtoF.c **** 
 419              		.loc 1 32 5 view .LVU142
  35:../Common/IQMath/ti/_IQNtoF.c ****         ui16Exp |= 0x8000;
 420              		.loc 1 35 5 view .LVU143
  35:../Common/IQMath/ti/_IQNtoF.c ****         ui16Exp |= 0x8000;
 421              		.loc 1 35 8 is_stmt 0 view .LVU144
 422 0000 0028     		cmp	r0, #0
  35:../Common/IQMath/ti/_IQNtoF.c ****         ui16Exp |= 0x8000;
 423              		.loc 1 35 8 view .LVU145
 424 0002 03DB     		blt	.L48
  38:../Common/IQMath/ti/_IQNtoF.c ****         return (0);
 425              		.loc 1 38 12 is_stmt 1 view .LVU146
  38:../Common/IQMath/ti/_IQNtoF.c ****         return (0);
 426              		.loc 1 38 15 is_stmt 0 view .LVU147
 427 0004 90B1     		cbz	r0, .L47
  41:../Common/IQMath/ti/_IQNtoF.c ****     }
 428              		.loc 1 41 9 is_stmt 1 view .LVU148
 429              	.LVL49:
  32:../Common/IQMath/ti/_IQNtoF.c **** 
 430              		.loc 1 32 13 is_stmt 0 view .LVU149
 431 0006 4FF48443 		mov	r3, #16896
 432 000a 05E0     		b	.L45
 433              	.LVL50:
 434              	.L48:
ARM GAS  C:\Users\57308\AppData\Local\Temp\cc6zZRsl.s 			page 13


  36:../Common/IQMath/ti/_IQNtoF.c ****         uiq31Input = -iqNInput;
 435              		.loc 1 36 9 is_stmt 1 view .LVU150
  37:../Common/IQMath/ti/_IQNtoF.c ****     } else if (iqNInput == 0) {
 436              		.loc 1 37 9 view .LVU151
  37:../Common/IQMath/ti/_IQNtoF.c ****     } else if (iqNInput == 0) {
 437              		.loc 1 37 22 is_stmt 0 view .LVU152
 438 000c 4042     		rsbs	r0, r0, #0
 439              	.LVL51:
  36:../Common/IQMath/ti/_IQNtoF.c ****         uiq31Input = -iqNInput;
 440              		.loc 1 36 17 view .LVU153
 441 000e 4FF44243 		mov	r3, #49664
 442 0012 01E0     		b	.L45
 443              	.LVL52:
 444              	.L46:
  46:../Common/IQMath/ti/_IQNtoF.c ****         ui16Exp -= 0x0080;
 445              		.loc 1 46 9 is_stmt 1 view .LVU154
  46:../Common/IQMath/ti/_IQNtoF.c ****         ui16Exp -= 0x0080;
 446              		.loc 1 46 20 is_stmt 0 view .LVU155
 447 0014 4000     		lsls	r0, r0, #1
 448              	.LVL53:
  47:../Common/IQMath/ti/_IQNtoF.c ****     }
 449              		.loc 1 47 9 is_stmt 1 view .LVU156
  47:../Common/IQMath/ti/_IQNtoF.c ****     }
 450              		.loc 1 47 17 is_stmt 0 view .LVU157
 451 0016 803B     		subs	r3, r3, #128
 452              	.LVL54:
 453              	.L45:
  45:../Common/IQMath/ti/_IQNtoF.c ****         uiq31Input <<= 1;
 454              		.loc 1 45 11 is_stmt 1 view .LVU158
 455 0018 0028     		cmp	r0, #0
 456 001a FBDA     		bge	.L46
  51:../Common/IQMath/ti/_IQNtoF.c **** 
 457              		.loc 1 51 5 view .LVU159
  51:../Common/IQMath/ti/_IQNtoF.c **** 
 458              		.loc 1 51 31 is_stmt 0 view .LVU160
 459 001c 8030     		adds	r0, r0, #128
 460              	.LVL55:
  54:../Common/IQMath/ti/_IQNtoF.c **** 
 461              		.loc 1 54 5 is_stmt 1 view .LVU161
  54:../Common/IQMath/ti/_IQNtoF.c **** 
 462              		.loc 1 54 17 is_stmt 0 view .LVU162
 463 001e C0F31620 		ubfx	r0, r0, #8, #23
 464              	.LVL56:
  64:../Common/IQMath/ti/_IQNtoF.c **** 
 465              		.loc 1 64 5 is_stmt 1 view .LVU163
  67:../Common/IQMath/ti/_IQNtoF.c **** }
 466              		.loc 1 67 5 view .LVU164
  67:../Common/IQMath/ti/_IQNtoF.c **** }
 467              		.loc 1 67 12 is_stmt 0 view .LVU165
 468 0022 00EB0343 		add	r3, r0, r3, lsl #16
 469              	.LVL57:
  67:../Common/IQMath/ti/_IQNtoF.c **** }
 470              		.loc 1 67 12 view .LVU166
 471 0026 00EE103A 		vmov	s0, r3	@ int
 472 002a 7047     		bx	lr
 473              	.LVL58:
 474              	.L47:
ARM GAS  C:\Users\57308\AppData\Local\Temp\cc6zZRsl.s 			page 14


  39:../Common/IQMath/ti/_IQNtoF.c ****     } else {
 475              		.loc 1 39 16 view .LVU167
 476 002c 9FED010A 		vldr.32	s0, .L49
 477              	.LVL59:
  39:../Common/IQMath/ti/_IQNtoF.c ****     } else {
 478              		.loc 1 39 16 view .LVU168
 479              	.LBE21:
 480              	.LBE20:
 124:../Common/IQMath/ti/_IQNtoF.c **** }
 481              		.loc 1 124 1 view .LVU169
 482 0030 7047     		bx	lr
 483              	.L50:
 484 0032 00BF     		.align	2
 485              	.L49:
 486 0034 00000000 		.word	0
 487              		.cfi_endproc
 488              	.LFE266:
 490              		.section	.text._IQ25toF,"ax",%progbits
 491              		.align	1
 492              		.global	_IQ25toF
 493              		.syntax unified
 494              		.thumb
 495              		.thumb_func
 497              	_IQ25toF:
 498              	.LVL60:
 499              	.LFB267:
 125:../Common/IQMath/ti/_IQNtoF.c **** /**
 126:../Common/IQMath/ti/_IQNtoF.c ****  * @brief Converts input to floating point using IQ25 format.
 127:../Common/IQMath/ti/_IQNtoF.c ****  *
 128:../Common/IQMath/ti/_IQNtoF.c ****  * @param a             IQ25 type value to be converted.
 129:../Common/IQMath/ti/_IQNtoF.c ****  *
 130:../Common/IQMath/ti/_IQNtoF.c ****  * @return              Conversion of input to floating point.
 131:../Common/IQMath/ti/_IQNtoF.c ****  */
 132:../Common/IQMath/ti/_IQNtoF.c **** float _IQ25toF(int32_t a)
 133:../Common/IQMath/ti/_IQNtoF.c **** {
 500              		.loc 1 133 1 is_stmt 1 view -0
 501              		.cfi_startproc
 502              		@ args = 0, pretend = 0, frame = 0
 503              		@ frame_needed = 0, uses_anonymous_args = 0
 504              		@ link register save eliminated.
 134:../Common/IQMath/ti/_IQNtoF.c ****     return __IQNtoF(a, 25);
 505              		.loc 1 134 5 view .LVU171
 506              	.LBB24:
 507              	.LBI24:
  25:../Common/IQMath/ti/_IQNtoF.c **** {
 508              		.loc 1 25 23 view .LVU172
 509              	.LBB25:
  27:../Common/IQMath/ti/_IQNtoF.c ****     uint_fast32_t uiq23Result;
 510              		.loc 1 27 5 view .LVU173
  28:../Common/IQMath/ti/_IQNtoF.c ****     uint_fast32_t uiq31Input;
 511              		.loc 1 28 5 view .LVU174
  29:../Common/IQMath/ti/_IQNtoF.c **** 
 512              		.loc 1 29 5 view .LVU175
  32:../Common/IQMath/ti/_IQNtoF.c **** 
 513              		.loc 1 32 5 view .LVU176
  35:../Common/IQMath/ti/_IQNtoF.c ****         ui16Exp |= 0x8000;
 514              		.loc 1 35 5 view .LVU177
ARM GAS  C:\Users\57308\AppData\Local\Temp\cc6zZRsl.s 			page 15


  35:../Common/IQMath/ti/_IQNtoF.c ****         ui16Exp |= 0x8000;
 515              		.loc 1 35 8 is_stmt 0 view .LVU178
 516 0000 0028     		cmp	r0, #0
  35:../Common/IQMath/ti/_IQNtoF.c ****         ui16Exp |= 0x8000;
 517              		.loc 1 35 8 view .LVU179
 518 0002 03DB     		blt	.L58
  38:../Common/IQMath/ti/_IQNtoF.c ****         return (0);
 519              		.loc 1 38 12 is_stmt 1 view .LVU180
  38:../Common/IQMath/ti/_IQNtoF.c ****         return (0);
 520              		.loc 1 38 15 is_stmt 0 view .LVU181
 521 0004 90B1     		cbz	r0, .L57
  41:../Common/IQMath/ti/_IQNtoF.c ****     }
 522              		.loc 1 41 9 is_stmt 1 view .LVU182
 523              	.LVL61:
  32:../Common/IQMath/ti/_IQNtoF.c **** 
 524              		.loc 1 32 13 is_stmt 0 view .LVU183
 525 0006 4FF48543 		mov	r3, #17024
 526 000a 05E0     		b	.L55
 527              	.LVL62:
 528              	.L58:
  36:../Common/IQMath/ti/_IQNtoF.c ****         uiq31Input = -iqNInput;
 529              		.loc 1 36 9 is_stmt 1 view .LVU184
  37:../Common/IQMath/ti/_IQNtoF.c ****     } else if (iqNInput == 0) {
 530              		.loc 1 37 9 view .LVU185
  37:../Common/IQMath/ti/_IQNtoF.c ****     } else if (iqNInput == 0) {
 531              		.loc 1 37 22 is_stmt 0 view .LVU186
 532 000c 4042     		rsbs	r0, r0, #0
 533              	.LVL63:
  36:../Common/IQMath/ti/_IQNtoF.c ****         uiq31Input = -iqNInput;
 534              		.loc 1 36 17 view .LVU187
 535 000e 4CF28023 		movw	r3, #49792
 536 0012 01E0     		b	.L55
 537              	.LVL64:
 538              	.L56:
  46:../Common/IQMath/ti/_IQNtoF.c ****         ui16Exp -= 0x0080;
 539              		.loc 1 46 9 is_stmt 1 view .LVU188
  46:../Common/IQMath/ti/_IQNtoF.c ****         ui16Exp -= 0x0080;
 540              		.loc 1 46 20 is_stmt 0 view .LVU189
 541 0014 4000     		lsls	r0, r0, #1
 542              	.LVL65:
  47:../Common/IQMath/ti/_IQNtoF.c ****     }
 543              		.loc 1 47 9 is_stmt 1 view .LVU190
  47:../Common/IQMath/ti/_IQNtoF.c ****     }
 544              		.loc 1 47 17 is_stmt 0 view .LVU191
 545 0016 803B     		subs	r3, r3, #128
 546              	.LVL66:
 547              	.L55:
  45:../Common/IQMath/ti/_IQNtoF.c ****         uiq31Input <<= 1;
 548              		.loc 1 45 11 is_stmt 1 view .LVU192
 549 0018 0028     		cmp	r0, #0
 550 001a FBDA     		bge	.L56
  51:../Common/IQMath/ti/_IQNtoF.c **** 
 551              		.loc 1 51 5 view .LVU193
  51:../Common/IQMath/ti/_IQNtoF.c **** 
 552              		.loc 1 51 31 is_stmt 0 view .LVU194
 553 001c 8030     		adds	r0, r0, #128
 554              	.LVL67:
ARM GAS  C:\Users\57308\AppData\Local\Temp\cc6zZRsl.s 			page 16


  54:../Common/IQMath/ti/_IQNtoF.c **** 
 555              		.loc 1 54 5 is_stmt 1 view .LVU195
  54:../Common/IQMath/ti/_IQNtoF.c **** 
 556              		.loc 1 54 17 is_stmt 0 view .LVU196
 557 001e C0F31620 		ubfx	r0, r0, #8, #23
 558              	.LVL68:
  64:../Common/IQMath/ti/_IQNtoF.c **** 
 559              		.loc 1 64 5 is_stmt 1 view .LVU197
  67:../Common/IQMath/ti/_IQNtoF.c **** }
 560              		.loc 1 67 5 view .LVU198
  67:../Common/IQMath/ti/_IQNtoF.c **** }
 561              		.loc 1 67 12 is_stmt 0 view .LVU199
 562 0022 00EB0343 		add	r3, r0, r3, lsl #16
 563              	.LVL69:
  67:../Common/IQMath/ti/_IQNtoF.c **** }
 564              		.loc 1 67 12 view .LVU200
 565 0026 00EE103A 		vmov	s0, r3	@ int
 566 002a 7047     		bx	lr
 567              	.LVL70:
 568              	.L57:
  39:../Common/IQMath/ti/_IQNtoF.c ****     } else {
 569              		.loc 1 39 16 view .LVU201
 570 002c 9FED010A 		vldr.32	s0, .L59
 571              	.LVL71:
  39:../Common/IQMath/ti/_IQNtoF.c ****     } else {
 572              		.loc 1 39 16 view .LVU202
 573              	.LBE25:
 574              	.LBE24:
 135:../Common/IQMath/ti/_IQNtoF.c **** }
 575              		.loc 1 135 1 view .LVU203
 576 0030 7047     		bx	lr
 577              	.L60:
 578 0032 00BF     		.align	2
 579              	.L59:
 580 0034 00000000 		.word	0
 581              		.cfi_endproc
 582              	.LFE267:
 584              		.section	.text._IQ24toF,"ax",%progbits
 585              		.align	1
 586              		.global	_IQ24toF
 587              		.syntax unified
 588              		.thumb
 589              		.thumb_func
 591              	_IQ24toF:
 592              	.LVL72:
 593              	.LFB268:
 136:../Common/IQMath/ti/_IQNtoF.c **** /**
 137:../Common/IQMath/ti/_IQNtoF.c ****  * @brief Converts input to floating point using IQ24 format.
 138:../Common/IQMath/ti/_IQNtoF.c ****  *
 139:../Common/IQMath/ti/_IQNtoF.c ****  * @param a             IQ24 type value to be converted.
 140:../Common/IQMath/ti/_IQNtoF.c ****  *
 141:../Common/IQMath/ti/_IQNtoF.c ****  * @return              Conversion of input to floating point.
 142:../Common/IQMath/ti/_IQNtoF.c ****  */
 143:../Common/IQMath/ti/_IQNtoF.c **** float _IQ24toF(int32_t a)
 144:../Common/IQMath/ti/_IQNtoF.c **** {
 594              		.loc 1 144 1 is_stmt 1 view -0
 595              		.cfi_startproc
ARM GAS  C:\Users\57308\AppData\Local\Temp\cc6zZRsl.s 			page 17


 596              		@ args = 0, pretend = 0, frame = 0
 597              		@ frame_needed = 0, uses_anonymous_args = 0
 598              		@ link register save eliminated.
 145:../Common/IQMath/ti/_IQNtoF.c ****     return __IQNtoF(a, 24);
 599              		.loc 1 145 5 view .LVU205
 600              	.LBB28:
 601              	.LBI28:
  25:../Common/IQMath/ti/_IQNtoF.c **** {
 602              		.loc 1 25 23 view .LVU206
 603              	.LBB29:
  27:../Common/IQMath/ti/_IQNtoF.c ****     uint_fast32_t uiq23Result;
 604              		.loc 1 27 5 view .LVU207
  28:../Common/IQMath/ti/_IQNtoF.c ****     uint_fast32_t uiq31Input;
 605              		.loc 1 28 5 view .LVU208
  29:../Common/IQMath/ti/_IQNtoF.c **** 
 606              		.loc 1 29 5 view .LVU209
  32:../Common/IQMath/ti/_IQNtoF.c **** 
 607              		.loc 1 32 5 view .LVU210
  35:../Common/IQMath/ti/_IQNtoF.c ****         ui16Exp |= 0x8000;
 608              		.loc 1 35 5 view .LVU211
  35:../Common/IQMath/ti/_IQNtoF.c ****         ui16Exp |= 0x8000;
 609              		.loc 1 35 8 is_stmt 0 view .LVU212
 610 0000 0028     		cmp	r0, #0
  35:../Common/IQMath/ti/_IQNtoF.c ****         ui16Exp |= 0x8000;
 611              		.loc 1 35 8 view .LVU213
 612 0002 03DB     		blt	.L68
  38:../Common/IQMath/ti/_IQNtoF.c ****         return (0);
 613              		.loc 1 38 12 is_stmt 1 view .LVU214
  38:../Common/IQMath/ti/_IQNtoF.c ****         return (0);
 614              		.loc 1 38 15 is_stmt 0 view .LVU215
 615 0004 90B1     		cbz	r0, .L67
  41:../Common/IQMath/ti/_IQNtoF.c ****     }
 616              		.loc 1 41 9 is_stmt 1 view .LVU216
 617              	.LVL73:
  32:../Common/IQMath/ti/_IQNtoF.c **** 
 618              		.loc 1 32 13 is_stmt 0 view .LVU217
 619 0006 4FF48643 		mov	r3, #17152
 620 000a 05E0     		b	.L65
 621              	.LVL74:
 622              	.L68:
  36:../Common/IQMath/ti/_IQNtoF.c ****         uiq31Input = -iqNInput;
 623              		.loc 1 36 9 is_stmt 1 view .LVU218
  37:../Common/IQMath/ti/_IQNtoF.c ****     } else if (iqNInput == 0) {
 624              		.loc 1 37 9 view .LVU219
  37:../Common/IQMath/ti/_IQNtoF.c ****     } else if (iqNInput == 0) {
 625              		.loc 1 37 22 is_stmt 0 view .LVU220
 626 000c 4042     		rsbs	r0, r0, #0
 627              	.LVL75:
  36:../Common/IQMath/ti/_IQNtoF.c ****         uiq31Input = -iqNInput;
 628              		.loc 1 36 17 view .LVU221
 629 000e 4FF44343 		mov	r3, #49920
 630 0012 01E0     		b	.L65
 631              	.LVL76:
 632              	.L66:
  46:../Common/IQMath/ti/_IQNtoF.c ****         ui16Exp -= 0x0080;
 633              		.loc 1 46 9 is_stmt 1 view .LVU222
  46:../Common/IQMath/ti/_IQNtoF.c ****         ui16Exp -= 0x0080;
ARM GAS  C:\Users\57308\AppData\Local\Temp\cc6zZRsl.s 			page 18


 634              		.loc 1 46 20 is_stmt 0 view .LVU223
 635 0014 4000     		lsls	r0, r0, #1
 636              	.LVL77:
  47:../Common/IQMath/ti/_IQNtoF.c ****     }
 637              		.loc 1 47 9 is_stmt 1 view .LVU224
  47:../Common/IQMath/ti/_IQNtoF.c ****     }
 638              		.loc 1 47 17 is_stmt 0 view .LVU225
 639 0016 803B     		subs	r3, r3, #128
 640              	.LVL78:
 641              	.L65:
  45:../Common/IQMath/ti/_IQNtoF.c ****         uiq31Input <<= 1;
 642              		.loc 1 45 11 is_stmt 1 view .LVU226
 643 0018 0028     		cmp	r0, #0
 644 001a FBDA     		bge	.L66
  51:../Common/IQMath/ti/_IQNtoF.c **** 
 645              		.loc 1 51 5 view .LVU227
  51:../Common/IQMath/ti/_IQNtoF.c **** 
 646              		.loc 1 51 31 is_stmt 0 view .LVU228
 647 001c 8030     		adds	r0, r0, #128
 648              	.LVL79:
  54:../Common/IQMath/ti/_IQNtoF.c **** 
 649              		.loc 1 54 5 is_stmt 1 view .LVU229
  54:../Common/IQMath/ti/_IQNtoF.c **** 
 650              		.loc 1 54 17 is_stmt 0 view .LVU230
 651 001e C0F31620 		ubfx	r0, r0, #8, #23
 652              	.LVL80:
  64:../Common/IQMath/ti/_IQNtoF.c **** 
 653              		.loc 1 64 5 is_stmt 1 view .LVU231
  67:../Common/IQMath/ti/_IQNtoF.c **** }
 654              		.loc 1 67 5 view .LVU232
  67:../Common/IQMath/ti/_IQNtoF.c **** }
 655              		.loc 1 67 12 is_stmt 0 view .LVU233
 656 0022 00EB0343 		add	r3, r0, r3, lsl #16
 657              	.LVL81:
  67:../Common/IQMath/ti/_IQNtoF.c **** }
 658              		.loc 1 67 12 view .LVU234
 659 0026 00EE103A 		vmov	s0, r3	@ int
 660 002a 7047     		bx	lr
 661              	.LVL82:
 662              	.L67:
  39:../Common/IQMath/ti/_IQNtoF.c ****     } else {
 663              		.loc 1 39 16 view .LVU235
 664 002c 9FED010A 		vldr.32	s0, .L69
 665              	.LVL83:
  39:../Common/IQMath/ti/_IQNtoF.c ****     } else {
 666              		.loc 1 39 16 view .LVU236
 667              	.LBE29:
 668              	.LBE28:
 146:../Common/IQMath/ti/_IQNtoF.c **** }
 669              		.loc 1 146 1 view .LVU237
 670 0030 7047     		bx	lr
 671              	.L70:
 672 0032 00BF     		.align	2
 673              	.L69:
 674 0034 00000000 		.word	0
 675              		.cfi_endproc
 676              	.LFE268:
ARM GAS  C:\Users\57308\AppData\Local\Temp\cc6zZRsl.s 			page 19


 678              		.section	.text._IQ23toF,"ax",%progbits
 679              		.align	1
 680              		.global	_IQ23toF
 681              		.syntax unified
 682              		.thumb
 683              		.thumb_func
 685              	_IQ23toF:
 686              	.LVL84:
 687              	.LFB269:
 147:../Common/IQMath/ti/_IQNtoF.c **** /**
 148:../Common/IQMath/ti/_IQNtoF.c ****  * @brief Converts input to floating point using IQ23 format.
 149:../Common/IQMath/ti/_IQNtoF.c ****  *
 150:../Common/IQMath/ti/_IQNtoF.c ****  * @param a             IQ23 type value to be converted.
 151:../Common/IQMath/ti/_IQNtoF.c ****  *
 152:../Common/IQMath/ti/_IQNtoF.c ****  * @return              Conversion of input to floating point.
 153:../Common/IQMath/ti/_IQNtoF.c ****  */
 154:../Common/IQMath/ti/_IQNtoF.c **** float _IQ23toF(int32_t a)
 155:../Common/IQMath/ti/_IQNtoF.c **** {
 688              		.loc 1 155 1 is_stmt 1 view -0
 689              		.cfi_startproc
 690              		@ args = 0, pretend = 0, frame = 0
 691              		@ frame_needed = 0, uses_anonymous_args = 0
 692              		@ link register save eliminated.
 156:../Common/IQMath/ti/_IQNtoF.c ****     return __IQNtoF(a, 23);
 693              		.loc 1 156 5 view .LVU239
 694              	.LBB32:
 695              	.LBI32:
  25:../Common/IQMath/ti/_IQNtoF.c **** {
 696              		.loc 1 25 23 view .LVU240
 697              	.LBB33:
  27:../Common/IQMath/ti/_IQNtoF.c ****     uint_fast32_t uiq23Result;
 698              		.loc 1 27 5 view .LVU241
  28:../Common/IQMath/ti/_IQNtoF.c ****     uint_fast32_t uiq31Input;
 699              		.loc 1 28 5 view .LVU242
  29:../Common/IQMath/ti/_IQNtoF.c **** 
 700              		.loc 1 29 5 view .LVU243
  32:../Common/IQMath/ti/_IQNtoF.c **** 
 701              		.loc 1 32 5 view .LVU244
  35:../Common/IQMath/ti/_IQNtoF.c ****         ui16Exp |= 0x8000;
 702              		.loc 1 35 5 view .LVU245
  35:../Common/IQMath/ti/_IQNtoF.c ****         ui16Exp |= 0x8000;
 703              		.loc 1 35 8 is_stmt 0 view .LVU246
 704 0000 0028     		cmp	r0, #0
  35:../Common/IQMath/ti/_IQNtoF.c ****         ui16Exp |= 0x8000;
 705              		.loc 1 35 8 view .LVU247
 706 0002 03DB     		blt	.L78
  38:../Common/IQMath/ti/_IQNtoF.c ****         return (0);
 707              		.loc 1 38 12 is_stmt 1 view .LVU248
  38:../Common/IQMath/ti/_IQNtoF.c ****         return (0);
 708              		.loc 1 38 15 is_stmt 0 view .LVU249
 709 0004 90B1     		cbz	r0, .L77
  41:../Common/IQMath/ti/_IQNtoF.c ****     }
 710              		.loc 1 41 9 is_stmt 1 view .LVU250
 711              	.LVL85:
  32:../Common/IQMath/ti/_IQNtoF.c **** 
 712              		.loc 1 32 13 is_stmt 0 view .LVU251
 713 0006 4FF48743 		mov	r3, #17280
ARM GAS  C:\Users\57308\AppData\Local\Temp\cc6zZRsl.s 			page 20


 714 000a 05E0     		b	.L75
 715              	.LVL86:
 716              	.L78:
  36:../Common/IQMath/ti/_IQNtoF.c ****         uiq31Input = -iqNInput;
 717              		.loc 1 36 9 is_stmt 1 view .LVU252
  37:../Common/IQMath/ti/_IQNtoF.c ****     } else if (iqNInput == 0) {
 718              		.loc 1 37 9 view .LVU253
  37:../Common/IQMath/ti/_IQNtoF.c ****     } else if (iqNInput == 0) {
 719              		.loc 1 37 22 is_stmt 0 view .LVU254
 720 000c 4042     		rsbs	r0, r0, #0
 721              	.LVL87:
  36:../Common/IQMath/ti/_IQNtoF.c ****         uiq31Input = -iqNInput;
 722              		.loc 1 36 17 view .LVU255
 723 000e 4CF28033 		movw	r3, #50048
 724 0012 01E0     		b	.L75
 725              	.LVL88:
 726              	.L76:
  46:../Common/IQMath/ti/_IQNtoF.c ****         ui16Exp -= 0x0080;
 727              		.loc 1 46 9 is_stmt 1 view .LVU256
  46:../Common/IQMath/ti/_IQNtoF.c ****         ui16Exp -= 0x0080;
 728              		.loc 1 46 20 is_stmt 0 view .LVU257
 729 0014 4000     		lsls	r0, r0, #1
 730              	.LVL89:
  47:../Common/IQMath/ti/_IQNtoF.c ****     }
 731              		.loc 1 47 9 is_stmt 1 view .LVU258
  47:../Common/IQMath/ti/_IQNtoF.c ****     }
 732              		.loc 1 47 17 is_stmt 0 view .LVU259
 733 0016 803B     		subs	r3, r3, #128
 734              	.LVL90:
 735              	.L75:
  45:../Common/IQMath/ti/_IQNtoF.c ****         uiq31Input <<= 1;
 736              		.loc 1 45 11 is_stmt 1 view .LVU260
 737 0018 0028     		cmp	r0, #0
 738 001a FBDA     		bge	.L76
  51:../Common/IQMath/ti/_IQNtoF.c **** 
 739              		.loc 1 51 5 view .LVU261
  51:../Common/IQMath/ti/_IQNtoF.c **** 
 740              		.loc 1 51 31 is_stmt 0 view .LVU262
 741 001c 8030     		adds	r0, r0, #128
 742              	.LVL91:
  54:../Common/IQMath/ti/_IQNtoF.c **** 
 743              		.loc 1 54 5 is_stmt 1 view .LVU263
  54:../Common/IQMath/ti/_IQNtoF.c **** 
 744              		.loc 1 54 17 is_stmt 0 view .LVU264
 745 001e C0F31620 		ubfx	r0, r0, #8, #23
 746              	.LVL92:
  64:../Common/IQMath/ti/_IQNtoF.c **** 
 747              		.loc 1 64 5 is_stmt 1 view .LVU265
  67:../Common/IQMath/ti/_IQNtoF.c **** }
 748              		.loc 1 67 5 view .LVU266
  67:../Common/IQMath/ti/_IQNtoF.c **** }
 749              		.loc 1 67 12 is_stmt 0 view .LVU267
 750 0022 00EB0343 		add	r3, r0, r3, lsl #16
 751              	.LVL93:
  67:../Common/IQMath/ti/_IQNtoF.c **** }
 752              		.loc 1 67 12 view .LVU268
 753 0026 00EE103A 		vmov	s0, r3	@ int
ARM GAS  C:\Users\57308\AppData\Local\Temp\cc6zZRsl.s 			page 21


 754 002a 7047     		bx	lr
 755              	.LVL94:
 756              	.L77:
  39:../Common/IQMath/ti/_IQNtoF.c ****     } else {
 757              		.loc 1 39 16 view .LVU269
 758 002c 9FED010A 		vldr.32	s0, .L79
 759              	.LVL95:
  39:../Common/IQMath/ti/_IQNtoF.c ****     } else {
 760              		.loc 1 39 16 view .LVU270
 761              	.LBE33:
 762              	.LBE32:
 157:../Common/IQMath/ti/_IQNtoF.c **** }
 763              		.loc 1 157 1 view .LVU271
 764 0030 7047     		bx	lr
 765              	.L80:
 766 0032 00BF     		.align	2
 767              	.L79:
 768 0034 00000000 		.word	0
 769              		.cfi_endproc
 770              	.LFE269:
 772              		.section	.text._IQ22toF,"ax",%progbits
 773              		.align	1
 774              		.global	_IQ22toF
 775              		.syntax unified
 776              		.thumb
 777              		.thumb_func
 779              	_IQ22toF:
 780              	.LVL96:
 781              	.LFB270:
 158:../Common/IQMath/ti/_IQNtoF.c **** /**
 159:../Common/IQMath/ti/_IQNtoF.c ****  * @brief Converts input to floating point using IQ22 format.
 160:../Common/IQMath/ti/_IQNtoF.c ****  *
 161:../Common/IQMath/ti/_IQNtoF.c ****  * @param a             IQ22 type value to be converted.
 162:../Common/IQMath/ti/_IQNtoF.c ****  *
 163:../Common/IQMath/ti/_IQNtoF.c ****  * @return              Conversion of input to floating point.
 164:../Common/IQMath/ti/_IQNtoF.c ****  */
 165:../Common/IQMath/ti/_IQNtoF.c **** float _IQ22toF(int32_t a)
 166:../Common/IQMath/ti/_IQNtoF.c **** {
 782              		.loc 1 166 1 is_stmt 1 view -0
 783              		.cfi_startproc
 784              		@ args = 0, pretend = 0, frame = 0
 785              		@ frame_needed = 0, uses_anonymous_args = 0
 786              		@ link register save eliminated.
 167:../Common/IQMath/ti/_IQNtoF.c ****     return __IQNtoF(a, 22);
 787              		.loc 1 167 5 view .LVU273
 788              	.LBB36:
 789              	.LBI36:
  25:../Common/IQMath/ti/_IQNtoF.c **** {
 790              		.loc 1 25 23 view .LVU274
 791              	.LBB37:
  27:../Common/IQMath/ti/_IQNtoF.c ****     uint_fast32_t uiq23Result;
 792              		.loc 1 27 5 view .LVU275
  28:../Common/IQMath/ti/_IQNtoF.c ****     uint_fast32_t uiq31Input;
 793              		.loc 1 28 5 view .LVU276
  29:../Common/IQMath/ti/_IQNtoF.c **** 
 794              		.loc 1 29 5 view .LVU277
  32:../Common/IQMath/ti/_IQNtoF.c **** 
ARM GAS  C:\Users\57308\AppData\Local\Temp\cc6zZRsl.s 			page 22


 795              		.loc 1 32 5 view .LVU278
  35:../Common/IQMath/ti/_IQNtoF.c ****         ui16Exp |= 0x8000;
 796              		.loc 1 35 5 view .LVU279
  35:../Common/IQMath/ti/_IQNtoF.c ****         ui16Exp |= 0x8000;
 797              		.loc 1 35 8 is_stmt 0 view .LVU280
 798 0000 0028     		cmp	r0, #0
  35:../Common/IQMath/ti/_IQNtoF.c ****         ui16Exp |= 0x8000;
 799              		.loc 1 35 8 view .LVU281
 800 0002 03DB     		blt	.L88
  38:../Common/IQMath/ti/_IQNtoF.c ****         return (0);
 801              		.loc 1 38 12 is_stmt 1 view .LVU282
  38:../Common/IQMath/ti/_IQNtoF.c ****         return (0);
 802              		.loc 1 38 15 is_stmt 0 view .LVU283
 803 0004 90B1     		cbz	r0, .L87
  41:../Common/IQMath/ti/_IQNtoF.c ****     }
 804              		.loc 1 41 9 is_stmt 1 view .LVU284
 805              	.LVL97:
  32:../Common/IQMath/ti/_IQNtoF.c **** 
 806              		.loc 1 32 13 is_stmt 0 view .LVU285
 807 0006 4FF48843 		mov	r3, #17408
 808 000a 05E0     		b	.L85
 809              	.LVL98:
 810              	.L88:
  36:../Common/IQMath/ti/_IQNtoF.c ****         uiq31Input = -iqNInput;
 811              		.loc 1 36 9 is_stmt 1 view .LVU286
  37:../Common/IQMath/ti/_IQNtoF.c ****     } else if (iqNInput == 0) {
 812              		.loc 1 37 9 view .LVU287
  37:../Common/IQMath/ti/_IQNtoF.c ****     } else if (iqNInput == 0) {
 813              		.loc 1 37 22 is_stmt 0 view .LVU288
 814 000c 4042     		rsbs	r0, r0, #0
 815              	.LVL99:
  36:../Common/IQMath/ti/_IQNtoF.c ****         uiq31Input = -iqNInput;
 816              		.loc 1 36 17 view .LVU289
 817 000e 4FF44443 		mov	r3, #50176
 818 0012 01E0     		b	.L85
 819              	.LVL100:
 820              	.L86:
  46:../Common/IQMath/ti/_IQNtoF.c ****         ui16Exp -= 0x0080;
 821              		.loc 1 46 9 is_stmt 1 view .LVU290
  46:../Common/IQMath/ti/_IQNtoF.c ****         ui16Exp -= 0x0080;
 822              		.loc 1 46 20 is_stmt 0 view .LVU291
 823 0014 4000     		lsls	r0, r0, #1
 824              	.LVL101:
  47:../Common/IQMath/ti/_IQNtoF.c ****     }
 825              		.loc 1 47 9 is_stmt 1 view .LVU292
  47:../Common/IQMath/ti/_IQNtoF.c ****     }
 826              		.loc 1 47 17 is_stmt 0 view .LVU293
 827 0016 803B     		subs	r3, r3, #128
 828              	.LVL102:
 829              	.L85:
  45:../Common/IQMath/ti/_IQNtoF.c ****         uiq31Input <<= 1;
 830              		.loc 1 45 11 is_stmt 1 view .LVU294
 831 0018 0028     		cmp	r0, #0
 832 001a FBDA     		bge	.L86
  51:../Common/IQMath/ti/_IQNtoF.c **** 
 833              		.loc 1 51 5 view .LVU295
  51:../Common/IQMath/ti/_IQNtoF.c **** 
ARM GAS  C:\Users\57308\AppData\Local\Temp\cc6zZRsl.s 			page 23


 834              		.loc 1 51 31 is_stmt 0 view .LVU296
 835 001c 8030     		adds	r0, r0, #128
 836              	.LVL103:
  54:../Common/IQMath/ti/_IQNtoF.c **** 
 837              		.loc 1 54 5 is_stmt 1 view .LVU297
  54:../Common/IQMath/ti/_IQNtoF.c **** 
 838              		.loc 1 54 17 is_stmt 0 view .LVU298
 839 001e C0F31620 		ubfx	r0, r0, #8, #23
 840              	.LVL104:
  64:../Common/IQMath/ti/_IQNtoF.c **** 
 841              		.loc 1 64 5 is_stmt 1 view .LVU299
  67:../Common/IQMath/ti/_IQNtoF.c **** }
 842              		.loc 1 67 5 view .LVU300
  67:../Common/IQMath/ti/_IQNtoF.c **** }
 843              		.loc 1 67 12 is_stmt 0 view .LVU301
 844 0022 00EB0343 		add	r3, r0, r3, lsl #16
 845              	.LVL105:
  67:../Common/IQMath/ti/_IQNtoF.c **** }
 846              		.loc 1 67 12 view .LVU302
 847 0026 00EE103A 		vmov	s0, r3	@ int
 848 002a 7047     		bx	lr
 849              	.LVL106:
 850              	.L87:
  39:../Common/IQMath/ti/_IQNtoF.c ****     } else {
 851              		.loc 1 39 16 view .LVU303
 852 002c 9FED010A 		vldr.32	s0, .L89
 853              	.LVL107:
  39:../Common/IQMath/ti/_IQNtoF.c ****     } else {
 854              		.loc 1 39 16 view .LVU304
 855              	.LBE37:
 856              	.LBE36:
 168:../Common/IQMath/ti/_IQNtoF.c **** }
 857              		.loc 1 168 1 view .LVU305
 858 0030 7047     		bx	lr
 859              	.L90:
 860 0032 00BF     		.align	2
 861              	.L89:
 862 0034 00000000 		.word	0
 863              		.cfi_endproc
 864              	.LFE270:
 866              		.section	.text._IQ21toF,"ax",%progbits
 867              		.align	1
 868              		.global	_IQ21toF
 869              		.syntax unified
 870              		.thumb
 871              		.thumb_func
 873              	_IQ21toF:
 874              	.LVL108:
 875              	.LFB271:
 169:../Common/IQMath/ti/_IQNtoF.c **** /**
 170:../Common/IQMath/ti/_IQNtoF.c ****  * @brief Converts input to floating point using IQ21 format.
 171:../Common/IQMath/ti/_IQNtoF.c ****  *
 172:../Common/IQMath/ti/_IQNtoF.c ****  * @param a             IQ21 type value to be converted.
 173:../Common/IQMath/ti/_IQNtoF.c ****  *
 174:../Common/IQMath/ti/_IQNtoF.c ****  * @return              Conversion of input to floating point.
 175:../Common/IQMath/ti/_IQNtoF.c ****  */
 176:../Common/IQMath/ti/_IQNtoF.c **** float _IQ21toF(int32_t a)
ARM GAS  C:\Users\57308\AppData\Local\Temp\cc6zZRsl.s 			page 24


 177:../Common/IQMath/ti/_IQNtoF.c **** {
 876              		.loc 1 177 1 is_stmt 1 view -0
 877              		.cfi_startproc
 878              		@ args = 0, pretend = 0, frame = 0
 879              		@ frame_needed = 0, uses_anonymous_args = 0
 880              		@ link register save eliminated.
 178:../Common/IQMath/ti/_IQNtoF.c ****     return __IQNtoF(a, 21);
 881              		.loc 1 178 5 view .LVU307
 882              	.LBB40:
 883              	.LBI40:
  25:../Common/IQMath/ti/_IQNtoF.c **** {
 884              		.loc 1 25 23 view .LVU308
 885              	.LBB41:
  27:../Common/IQMath/ti/_IQNtoF.c ****     uint_fast32_t uiq23Result;
 886              		.loc 1 27 5 view .LVU309
  28:../Common/IQMath/ti/_IQNtoF.c ****     uint_fast32_t uiq31Input;
 887              		.loc 1 28 5 view .LVU310
  29:../Common/IQMath/ti/_IQNtoF.c **** 
 888              		.loc 1 29 5 view .LVU311
  32:../Common/IQMath/ti/_IQNtoF.c **** 
 889              		.loc 1 32 5 view .LVU312
  35:../Common/IQMath/ti/_IQNtoF.c ****         ui16Exp |= 0x8000;
 890              		.loc 1 35 5 view .LVU313
  35:../Common/IQMath/ti/_IQNtoF.c ****         ui16Exp |= 0x8000;
 891              		.loc 1 35 8 is_stmt 0 view .LVU314
 892 0000 0028     		cmp	r0, #0
  35:../Common/IQMath/ti/_IQNtoF.c ****         ui16Exp |= 0x8000;
 893              		.loc 1 35 8 view .LVU315
 894 0002 03DB     		blt	.L98
  38:../Common/IQMath/ti/_IQNtoF.c ****         return (0);
 895              		.loc 1 38 12 is_stmt 1 view .LVU316
  38:../Common/IQMath/ti/_IQNtoF.c ****         return (0);
 896              		.loc 1 38 15 is_stmt 0 view .LVU317
 897 0004 90B1     		cbz	r0, .L97
  41:../Common/IQMath/ti/_IQNtoF.c ****     }
 898              		.loc 1 41 9 is_stmt 1 view .LVU318
 899              	.LVL109:
  32:../Common/IQMath/ti/_IQNtoF.c **** 
 900              		.loc 1 32 13 is_stmt 0 view .LVU319
 901 0006 4FF48943 		mov	r3, #17536
 902 000a 05E0     		b	.L95
 903              	.LVL110:
 904              	.L98:
  36:../Common/IQMath/ti/_IQNtoF.c ****         uiq31Input = -iqNInput;
 905              		.loc 1 36 9 is_stmt 1 view .LVU320
  37:../Common/IQMath/ti/_IQNtoF.c ****     } else if (iqNInput == 0) {
 906              		.loc 1 37 9 view .LVU321
  37:../Common/IQMath/ti/_IQNtoF.c ****     } else if (iqNInput == 0) {
 907              		.loc 1 37 22 is_stmt 0 view .LVU322
 908 000c 4042     		rsbs	r0, r0, #0
 909              	.LVL111:
  36:../Common/IQMath/ti/_IQNtoF.c ****         uiq31Input = -iqNInput;
 910              		.loc 1 36 17 view .LVU323
 911 000e 4CF28043 		movw	r3, #50304
 912 0012 01E0     		b	.L95
 913              	.LVL112:
 914              	.L96:
ARM GAS  C:\Users\57308\AppData\Local\Temp\cc6zZRsl.s 			page 25


  46:../Common/IQMath/ti/_IQNtoF.c ****         ui16Exp -= 0x0080;
 915              		.loc 1 46 9 is_stmt 1 view .LVU324
  46:../Common/IQMath/ti/_IQNtoF.c ****         ui16Exp -= 0x0080;
 916              		.loc 1 46 20 is_stmt 0 view .LVU325
 917 0014 4000     		lsls	r0, r0, #1
 918              	.LVL113:
  47:../Common/IQMath/ti/_IQNtoF.c ****     }
 919              		.loc 1 47 9 is_stmt 1 view .LVU326
  47:../Common/IQMath/ti/_IQNtoF.c ****     }
 920              		.loc 1 47 17 is_stmt 0 view .LVU327
 921 0016 803B     		subs	r3, r3, #128
 922              	.LVL114:
 923              	.L95:
  45:../Common/IQMath/ti/_IQNtoF.c ****         uiq31Input <<= 1;
 924              		.loc 1 45 11 is_stmt 1 view .LVU328
 925 0018 0028     		cmp	r0, #0
 926 001a FBDA     		bge	.L96
  51:../Common/IQMath/ti/_IQNtoF.c **** 
 927              		.loc 1 51 5 view .LVU329
  51:../Common/IQMath/ti/_IQNtoF.c **** 
 928              		.loc 1 51 31 is_stmt 0 view .LVU330
 929 001c 8030     		adds	r0, r0, #128
 930              	.LVL115:
  54:../Common/IQMath/ti/_IQNtoF.c **** 
 931              		.loc 1 54 5 is_stmt 1 view .LVU331
  54:../Common/IQMath/ti/_IQNtoF.c **** 
 932              		.loc 1 54 17 is_stmt 0 view .LVU332
 933 001e C0F31620 		ubfx	r0, r0, #8, #23
 934              	.LVL116:
  64:../Common/IQMath/ti/_IQNtoF.c **** 
 935              		.loc 1 64 5 is_stmt 1 view .LVU333
  67:../Common/IQMath/ti/_IQNtoF.c **** }
 936              		.loc 1 67 5 view .LVU334
  67:../Common/IQMath/ti/_IQNtoF.c **** }
 937              		.loc 1 67 12 is_stmt 0 view .LVU335
 938 0022 00EB0343 		add	r3, r0, r3, lsl #16
 939              	.LVL117:
  67:../Common/IQMath/ti/_IQNtoF.c **** }
 940              		.loc 1 67 12 view .LVU336
 941 0026 00EE103A 		vmov	s0, r3	@ int
 942 002a 7047     		bx	lr
 943              	.LVL118:
 944              	.L97:
  39:../Common/IQMath/ti/_IQNtoF.c ****     } else {
 945              		.loc 1 39 16 view .LVU337
 946 002c 9FED010A 		vldr.32	s0, .L99
 947              	.LVL119:
  39:../Common/IQMath/ti/_IQNtoF.c ****     } else {
 948              		.loc 1 39 16 view .LVU338
 949              	.LBE41:
 950              	.LBE40:
 179:../Common/IQMath/ti/_IQNtoF.c **** }
 951              		.loc 1 179 1 view .LVU339
 952 0030 7047     		bx	lr
 953              	.L100:
 954 0032 00BF     		.align	2
 955              	.L99:
ARM GAS  C:\Users\57308\AppData\Local\Temp\cc6zZRsl.s 			page 26


 956 0034 00000000 		.word	0
 957              		.cfi_endproc
 958              	.LFE271:
 960              		.section	.text._IQ20toF,"ax",%progbits
 961              		.align	1
 962              		.global	_IQ20toF
 963              		.syntax unified
 964              		.thumb
 965              		.thumb_func
 967              	_IQ20toF:
 968              	.LVL120:
 969              	.LFB272:
 180:../Common/IQMath/ti/_IQNtoF.c **** /**
 181:../Common/IQMath/ti/_IQNtoF.c ****  * @brief Converts input to floating point using IQ20 format.
 182:../Common/IQMath/ti/_IQNtoF.c ****  *
 183:../Common/IQMath/ti/_IQNtoF.c ****  * @param a             IQ20 type value to be converted.
 184:../Common/IQMath/ti/_IQNtoF.c ****  *
 185:../Common/IQMath/ti/_IQNtoF.c ****  * @return              Conversion of input to floating point.
 186:../Common/IQMath/ti/_IQNtoF.c ****  */
 187:../Common/IQMath/ti/_IQNtoF.c **** float _IQ20toF(int32_t a)
 188:../Common/IQMath/ti/_IQNtoF.c **** {
 970              		.loc 1 188 1 is_stmt 1 view -0
 971              		.cfi_startproc
 972              		@ args = 0, pretend = 0, frame = 0
 973              		@ frame_needed = 0, uses_anonymous_args = 0
 974              		@ link register save eliminated.
 189:../Common/IQMath/ti/_IQNtoF.c ****     return __IQNtoF(a, 20);
 975              		.loc 1 189 5 view .LVU341
 976              	.LBB44:
 977              	.LBI44:
  25:../Common/IQMath/ti/_IQNtoF.c **** {
 978              		.loc 1 25 23 view .LVU342
 979              	.LBB45:
  27:../Common/IQMath/ti/_IQNtoF.c ****     uint_fast32_t uiq23Result;
 980              		.loc 1 27 5 view .LVU343
  28:../Common/IQMath/ti/_IQNtoF.c ****     uint_fast32_t uiq31Input;
 981              		.loc 1 28 5 view .LVU344
  29:../Common/IQMath/ti/_IQNtoF.c **** 
 982              		.loc 1 29 5 view .LVU345
  32:../Common/IQMath/ti/_IQNtoF.c **** 
 983              		.loc 1 32 5 view .LVU346
  35:../Common/IQMath/ti/_IQNtoF.c ****         ui16Exp |= 0x8000;
 984              		.loc 1 35 5 view .LVU347
  35:../Common/IQMath/ti/_IQNtoF.c ****         ui16Exp |= 0x8000;
 985              		.loc 1 35 8 is_stmt 0 view .LVU348
 986 0000 0028     		cmp	r0, #0
  35:../Common/IQMath/ti/_IQNtoF.c ****         ui16Exp |= 0x8000;
 987              		.loc 1 35 8 view .LVU349
 988 0002 03DB     		blt	.L108
  38:../Common/IQMath/ti/_IQNtoF.c ****         return (0);
 989              		.loc 1 38 12 is_stmt 1 view .LVU350
  38:../Common/IQMath/ti/_IQNtoF.c ****         return (0);
 990              		.loc 1 38 15 is_stmt 0 view .LVU351
 991 0004 90B1     		cbz	r0, .L107
  41:../Common/IQMath/ti/_IQNtoF.c ****     }
 992              		.loc 1 41 9 is_stmt 1 view .LVU352
 993              	.LVL121:
ARM GAS  C:\Users\57308\AppData\Local\Temp\cc6zZRsl.s 			page 27


  32:../Common/IQMath/ti/_IQNtoF.c **** 
 994              		.loc 1 32 13 is_stmt 0 view .LVU353
 995 0006 4FF48A43 		mov	r3, #17664
 996 000a 05E0     		b	.L105
 997              	.LVL122:
 998              	.L108:
  36:../Common/IQMath/ti/_IQNtoF.c ****         uiq31Input = -iqNInput;
 999              		.loc 1 36 9 is_stmt 1 view .LVU354
  37:../Common/IQMath/ti/_IQNtoF.c ****     } else if (iqNInput == 0) {
 1000              		.loc 1 37 9 view .LVU355
  37:../Common/IQMath/ti/_IQNtoF.c ****     } else if (iqNInput == 0) {
 1001              		.loc 1 37 22 is_stmt 0 view .LVU356
 1002 000c 4042     		rsbs	r0, r0, #0
 1003              	.LVL123:
  36:../Common/IQMath/ti/_IQNtoF.c ****         uiq31Input = -iqNInput;
 1004              		.loc 1 36 17 view .LVU357
 1005 000e 4FF44543 		mov	r3, #50432
 1006 0012 01E0     		b	.L105
 1007              	.LVL124:
 1008              	.L106:
  46:../Common/IQMath/ti/_IQNtoF.c ****         ui16Exp -= 0x0080;
 1009              		.loc 1 46 9 is_stmt 1 view .LVU358
  46:../Common/IQMath/ti/_IQNtoF.c ****         ui16Exp -= 0x0080;
 1010              		.loc 1 46 20 is_stmt 0 view .LVU359
 1011 0014 4000     		lsls	r0, r0, #1
 1012              	.LVL125:
  47:../Common/IQMath/ti/_IQNtoF.c ****     }
 1013              		.loc 1 47 9 is_stmt 1 view .LVU360
  47:../Common/IQMath/ti/_IQNtoF.c ****     }
 1014              		.loc 1 47 17 is_stmt 0 view .LVU361
 1015 0016 803B     		subs	r3, r3, #128
 1016              	.LVL126:
 1017              	.L105:
  45:../Common/IQMath/ti/_IQNtoF.c ****         uiq31Input <<= 1;
 1018              		.loc 1 45 11 is_stmt 1 view .LVU362
 1019 0018 0028     		cmp	r0, #0
 1020 001a FBDA     		bge	.L106
  51:../Common/IQMath/ti/_IQNtoF.c **** 
 1021              		.loc 1 51 5 view .LVU363
  51:../Common/IQMath/ti/_IQNtoF.c **** 
 1022              		.loc 1 51 31 is_stmt 0 view .LVU364
 1023 001c 8030     		adds	r0, r0, #128
 1024              	.LVL127:
  54:../Common/IQMath/ti/_IQNtoF.c **** 
 1025              		.loc 1 54 5 is_stmt 1 view .LVU365
  54:../Common/IQMath/ti/_IQNtoF.c **** 
 1026              		.loc 1 54 17 is_stmt 0 view .LVU366
 1027 001e C0F31620 		ubfx	r0, r0, #8, #23
 1028              	.LVL128:
  64:../Common/IQMath/ti/_IQNtoF.c **** 
 1029              		.loc 1 64 5 is_stmt 1 view .LVU367
  67:../Common/IQMath/ti/_IQNtoF.c **** }
 1030              		.loc 1 67 5 view .LVU368
  67:../Common/IQMath/ti/_IQNtoF.c **** }
 1031              		.loc 1 67 12 is_stmt 0 view .LVU369
 1032 0022 00EB0343 		add	r3, r0, r3, lsl #16
 1033              	.LVL129:
ARM GAS  C:\Users\57308\AppData\Local\Temp\cc6zZRsl.s 			page 28


  67:../Common/IQMath/ti/_IQNtoF.c **** }
 1034              		.loc 1 67 12 view .LVU370
 1035 0026 00EE103A 		vmov	s0, r3	@ int
 1036 002a 7047     		bx	lr
 1037              	.LVL130:
 1038              	.L107:
  39:../Common/IQMath/ti/_IQNtoF.c ****     } else {
 1039              		.loc 1 39 16 view .LVU371
 1040 002c 9FED010A 		vldr.32	s0, .L109
 1041              	.LVL131:
  39:../Common/IQMath/ti/_IQNtoF.c ****     } else {
 1042              		.loc 1 39 16 view .LVU372
 1043              	.LBE45:
 1044              	.LBE44:
 190:../Common/IQMath/ti/_IQNtoF.c **** }
 1045              		.loc 1 190 1 view .LVU373
 1046 0030 7047     		bx	lr
 1047              	.L110:
 1048 0032 00BF     		.align	2
 1049              	.L109:
 1050 0034 00000000 		.word	0
 1051              		.cfi_endproc
 1052              	.LFE272:
 1054              		.section	.text._IQ19toF,"ax",%progbits
 1055              		.align	1
 1056              		.global	_IQ19toF
 1057              		.syntax unified
 1058              		.thumb
 1059              		.thumb_func
 1061              	_IQ19toF:
 1062              	.LVL132:
 1063              	.LFB273:
 191:../Common/IQMath/ti/_IQNtoF.c **** /**
 192:../Common/IQMath/ti/_IQNtoF.c ****  * @brief Converts input to floating point using IQ19 format.
 193:../Common/IQMath/ti/_IQNtoF.c ****  *
 194:../Common/IQMath/ti/_IQNtoF.c ****  * @param a             IQ19 type value to be converted.
 195:../Common/IQMath/ti/_IQNtoF.c ****  *
 196:../Common/IQMath/ti/_IQNtoF.c ****  * @return              Conversion of input to floating point.
 197:../Common/IQMath/ti/_IQNtoF.c ****  */
 198:../Common/IQMath/ti/_IQNtoF.c **** float _IQ19toF(int32_t a)
 199:../Common/IQMath/ti/_IQNtoF.c **** {
 1064              		.loc 1 199 1 is_stmt 1 view -0
 1065              		.cfi_startproc
 1066              		@ args = 0, pretend = 0, frame = 0
 1067              		@ frame_needed = 0, uses_anonymous_args = 0
 1068              		@ link register save eliminated.
 200:../Common/IQMath/ti/_IQNtoF.c ****     return __IQNtoF(a, 19);
 1069              		.loc 1 200 5 view .LVU375
 1070              	.LBB48:
 1071              	.LBI48:
  25:../Common/IQMath/ti/_IQNtoF.c **** {
 1072              		.loc 1 25 23 view .LVU376
 1073              	.LBB49:
  27:../Common/IQMath/ti/_IQNtoF.c ****     uint_fast32_t uiq23Result;
 1074              		.loc 1 27 5 view .LVU377
  28:../Common/IQMath/ti/_IQNtoF.c ****     uint_fast32_t uiq31Input;
 1075              		.loc 1 28 5 view .LVU378
ARM GAS  C:\Users\57308\AppData\Local\Temp\cc6zZRsl.s 			page 29


  29:../Common/IQMath/ti/_IQNtoF.c **** 
 1076              		.loc 1 29 5 view .LVU379
  32:../Common/IQMath/ti/_IQNtoF.c **** 
 1077              		.loc 1 32 5 view .LVU380
  35:../Common/IQMath/ti/_IQNtoF.c ****         ui16Exp |= 0x8000;
 1078              		.loc 1 35 5 view .LVU381
  35:../Common/IQMath/ti/_IQNtoF.c ****         ui16Exp |= 0x8000;
 1079              		.loc 1 35 8 is_stmt 0 view .LVU382
 1080 0000 0028     		cmp	r0, #0
  35:../Common/IQMath/ti/_IQNtoF.c ****         ui16Exp |= 0x8000;
 1081              		.loc 1 35 8 view .LVU383
 1082 0002 03DB     		blt	.L118
  38:../Common/IQMath/ti/_IQNtoF.c ****         return (0);
 1083              		.loc 1 38 12 is_stmt 1 view .LVU384
  38:../Common/IQMath/ti/_IQNtoF.c ****         return (0);
 1084              		.loc 1 38 15 is_stmt 0 view .LVU385
 1085 0004 90B1     		cbz	r0, .L117
  41:../Common/IQMath/ti/_IQNtoF.c ****     }
 1086              		.loc 1 41 9 is_stmt 1 view .LVU386
 1087              	.LVL133:
  32:../Common/IQMath/ti/_IQNtoF.c **** 
 1088              		.loc 1 32 13 is_stmt 0 view .LVU387
 1089 0006 4FF48B43 		mov	r3, #17792
 1090 000a 05E0     		b	.L115
 1091              	.LVL134:
 1092              	.L118:
  36:../Common/IQMath/ti/_IQNtoF.c ****         uiq31Input = -iqNInput;
 1093              		.loc 1 36 9 is_stmt 1 view .LVU388
  37:../Common/IQMath/ti/_IQNtoF.c ****     } else if (iqNInput == 0) {
 1094              		.loc 1 37 9 view .LVU389
  37:../Common/IQMath/ti/_IQNtoF.c ****     } else if (iqNInput == 0) {
 1095              		.loc 1 37 22 is_stmt 0 view .LVU390
 1096 000c 4042     		rsbs	r0, r0, #0
 1097              	.LVL135:
  36:../Common/IQMath/ti/_IQNtoF.c ****         uiq31Input = -iqNInput;
 1098              		.loc 1 36 17 view .LVU391
 1099 000e 4CF28053 		movw	r3, #50560
 1100 0012 01E0     		b	.L115
 1101              	.LVL136:
 1102              	.L116:
  46:../Common/IQMath/ti/_IQNtoF.c ****         ui16Exp -= 0x0080;
 1103              		.loc 1 46 9 is_stmt 1 view .LVU392
  46:../Common/IQMath/ti/_IQNtoF.c ****         ui16Exp -= 0x0080;
 1104              		.loc 1 46 20 is_stmt 0 view .LVU393
 1105 0014 4000     		lsls	r0, r0, #1
 1106              	.LVL137:
  47:../Common/IQMath/ti/_IQNtoF.c ****     }
 1107              		.loc 1 47 9 is_stmt 1 view .LVU394
  47:../Common/IQMath/ti/_IQNtoF.c ****     }
 1108              		.loc 1 47 17 is_stmt 0 view .LVU395
 1109 0016 803B     		subs	r3, r3, #128
 1110              	.LVL138:
 1111              	.L115:
  45:../Common/IQMath/ti/_IQNtoF.c ****         uiq31Input <<= 1;
 1112              		.loc 1 45 11 is_stmt 1 view .LVU396
 1113 0018 0028     		cmp	r0, #0
 1114 001a FBDA     		bge	.L116
ARM GAS  C:\Users\57308\AppData\Local\Temp\cc6zZRsl.s 			page 30


  51:../Common/IQMath/ti/_IQNtoF.c **** 
 1115              		.loc 1 51 5 view .LVU397
  51:../Common/IQMath/ti/_IQNtoF.c **** 
 1116              		.loc 1 51 31 is_stmt 0 view .LVU398
 1117 001c 8030     		adds	r0, r0, #128
 1118              	.LVL139:
  54:../Common/IQMath/ti/_IQNtoF.c **** 
 1119              		.loc 1 54 5 is_stmt 1 view .LVU399
  54:../Common/IQMath/ti/_IQNtoF.c **** 
 1120              		.loc 1 54 17 is_stmt 0 view .LVU400
 1121 001e C0F31620 		ubfx	r0, r0, #8, #23
 1122              	.LVL140:
  64:../Common/IQMath/ti/_IQNtoF.c **** 
 1123              		.loc 1 64 5 is_stmt 1 view .LVU401
  67:../Common/IQMath/ti/_IQNtoF.c **** }
 1124              		.loc 1 67 5 view .LVU402
  67:../Common/IQMath/ti/_IQNtoF.c **** }
 1125              		.loc 1 67 12 is_stmt 0 view .LVU403
 1126 0022 00EB0343 		add	r3, r0, r3, lsl #16
 1127              	.LVL141:
  67:../Common/IQMath/ti/_IQNtoF.c **** }
 1128              		.loc 1 67 12 view .LVU404
 1129 0026 00EE103A 		vmov	s0, r3	@ int
 1130 002a 7047     		bx	lr
 1131              	.LVL142:
 1132              	.L117:
  39:../Common/IQMath/ti/_IQNtoF.c ****     } else {
 1133              		.loc 1 39 16 view .LVU405
 1134 002c 9FED010A 		vldr.32	s0, .L119
 1135              	.LVL143:
  39:../Common/IQMath/ti/_IQNtoF.c ****     } else {
 1136              		.loc 1 39 16 view .LVU406
 1137              	.LBE49:
 1138              	.LBE48:
 201:../Common/IQMath/ti/_IQNtoF.c **** }
 1139              		.loc 1 201 1 view .LVU407
 1140 0030 7047     		bx	lr
 1141              	.L120:
 1142 0032 00BF     		.align	2
 1143              	.L119:
 1144 0034 00000000 		.word	0
 1145              		.cfi_endproc
 1146              	.LFE273:
 1148              		.section	.text._IQ18toF,"ax",%progbits
 1149              		.align	1
 1150              		.global	_IQ18toF
 1151              		.syntax unified
 1152              		.thumb
 1153              		.thumb_func
 1155              	_IQ18toF:
 1156              	.LVL144:
 1157              	.LFB274:
 202:../Common/IQMath/ti/_IQNtoF.c **** /**
 203:../Common/IQMath/ti/_IQNtoF.c ****  * @brief Converts input to floating point using IQ18 format.
 204:../Common/IQMath/ti/_IQNtoF.c ****  *
 205:../Common/IQMath/ti/_IQNtoF.c ****  * @param a             IQ18 type value to be converted.
 206:../Common/IQMath/ti/_IQNtoF.c ****  *
ARM GAS  C:\Users\57308\AppData\Local\Temp\cc6zZRsl.s 			page 31


 207:../Common/IQMath/ti/_IQNtoF.c ****  * @return              Conversion of input to floating point.
 208:../Common/IQMath/ti/_IQNtoF.c ****  */
 209:../Common/IQMath/ti/_IQNtoF.c **** float _IQ18toF(int32_t a)
 210:../Common/IQMath/ti/_IQNtoF.c **** {
 1158              		.loc 1 210 1 is_stmt 1 view -0
 1159              		.cfi_startproc
 1160              		@ args = 0, pretend = 0, frame = 0
 1161              		@ frame_needed = 0, uses_anonymous_args = 0
 1162              		@ link register save eliminated.
 211:../Common/IQMath/ti/_IQNtoF.c ****     return __IQNtoF(a, 18);
 1163              		.loc 1 211 5 view .LVU409
 1164              	.LBB52:
 1165              	.LBI52:
  25:../Common/IQMath/ti/_IQNtoF.c **** {
 1166              		.loc 1 25 23 view .LVU410
 1167              	.LBB53:
  27:../Common/IQMath/ti/_IQNtoF.c ****     uint_fast32_t uiq23Result;
 1168              		.loc 1 27 5 view .LVU411
  28:../Common/IQMath/ti/_IQNtoF.c ****     uint_fast32_t uiq31Input;
 1169              		.loc 1 28 5 view .LVU412
  29:../Common/IQMath/ti/_IQNtoF.c **** 
 1170              		.loc 1 29 5 view .LVU413
  32:../Common/IQMath/ti/_IQNtoF.c **** 
 1171              		.loc 1 32 5 view .LVU414
  35:../Common/IQMath/ti/_IQNtoF.c ****         ui16Exp |= 0x8000;
 1172              		.loc 1 35 5 view .LVU415
  35:../Common/IQMath/ti/_IQNtoF.c ****         ui16Exp |= 0x8000;
 1173              		.loc 1 35 8 is_stmt 0 view .LVU416
 1174 0000 0028     		cmp	r0, #0
  35:../Common/IQMath/ti/_IQNtoF.c ****         ui16Exp |= 0x8000;
 1175              		.loc 1 35 8 view .LVU417
 1176 0002 03DB     		blt	.L128
  38:../Common/IQMath/ti/_IQNtoF.c ****         return (0);
 1177              		.loc 1 38 12 is_stmt 1 view .LVU418
  38:../Common/IQMath/ti/_IQNtoF.c ****         return (0);
 1178              		.loc 1 38 15 is_stmt 0 view .LVU419
 1179 0004 90B1     		cbz	r0, .L127
  41:../Common/IQMath/ti/_IQNtoF.c ****     }
 1180              		.loc 1 41 9 is_stmt 1 view .LVU420
 1181              	.LVL145:
  32:../Common/IQMath/ti/_IQNtoF.c **** 
 1182              		.loc 1 32 13 is_stmt 0 view .LVU421
 1183 0006 4FF48C43 		mov	r3, #17920
 1184 000a 05E0     		b	.L125
 1185              	.LVL146:
 1186              	.L128:
  36:../Common/IQMath/ti/_IQNtoF.c ****         uiq31Input = -iqNInput;
 1187              		.loc 1 36 9 is_stmt 1 view .LVU422
  37:../Common/IQMath/ti/_IQNtoF.c ****     } else if (iqNInput == 0) {
 1188              		.loc 1 37 9 view .LVU423
  37:../Common/IQMath/ti/_IQNtoF.c ****     } else if (iqNInput == 0) {
 1189              		.loc 1 37 22 is_stmt 0 view .LVU424
 1190 000c 4042     		rsbs	r0, r0, #0
 1191              	.LVL147:
  36:../Common/IQMath/ti/_IQNtoF.c ****         uiq31Input = -iqNInput;
 1192              		.loc 1 36 17 view .LVU425
 1193 000e 4FF44643 		mov	r3, #50688
ARM GAS  C:\Users\57308\AppData\Local\Temp\cc6zZRsl.s 			page 32


 1194 0012 01E0     		b	.L125
 1195              	.LVL148:
 1196              	.L126:
  46:../Common/IQMath/ti/_IQNtoF.c ****         ui16Exp -= 0x0080;
 1197              		.loc 1 46 9 is_stmt 1 view .LVU426
  46:../Common/IQMath/ti/_IQNtoF.c ****         ui16Exp -= 0x0080;
 1198              		.loc 1 46 20 is_stmt 0 view .LVU427
 1199 0014 4000     		lsls	r0, r0, #1
 1200              	.LVL149:
  47:../Common/IQMath/ti/_IQNtoF.c ****     }
 1201              		.loc 1 47 9 is_stmt 1 view .LVU428
  47:../Common/IQMath/ti/_IQNtoF.c ****     }
 1202              		.loc 1 47 17 is_stmt 0 view .LVU429
 1203 0016 803B     		subs	r3, r3, #128
 1204              	.LVL150:
 1205              	.L125:
  45:../Common/IQMath/ti/_IQNtoF.c ****         uiq31Input <<= 1;
 1206              		.loc 1 45 11 is_stmt 1 view .LVU430
 1207 0018 0028     		cmp	r0, #0
 1208 001a FBDA     		bge	.L126
  51:../Common/IQMath/ti/_IQNtoF.c **** 
 1209              		.loc 1 51 5 view .LVU431
  51:../Common/IQMath/ti/_IQNtoF.c **** 
 1210              		.loc 1 51 31 is_stmt 0 view .LVU432
 1211 001c 8030     		adds	r0, r0, #128
 1212              	.LVL151:
  54:../Common/IQMath/ti/_IQNtoF.c **** 
 1213              		.loc 1 54 5 is_stmt 1 view .LVU433
  54:../Common/IQMath/ti/_IQNtoF.c **** 
 1214              		.loc 1 54 17 is_stmt 0 view .LVU434
 1215 001e C0F31620 		ubfx	r0, r0, #8, #23
 1216              	.LVL152:
  64:../Common/IQMath/ti/_IQNtoF.c **** 
 1217              		.loc 1 64 5 is_stmt 1 view .LVU435
  67:../Common/IQMath/ti/_IQNtoF.c **** }
 1218              		.loc 1 67 5 view .LVU436
  67:../Common/IQMath/ti/_IQNtoF.c **** }
 1219              		.loc 1 67 12 is_stmt 0 view .LVU437
 1220 0022 00EB0343 		add	r3, r0, r3, lsl #16
 1221              	.LVL153:
  67:../Common/IQMath/ti/_IQNtoF.c **** }
 1222              		.loc 1 67 12 view .LVU438
 1223 0026 00EE103A 		vmov	s0, r3	@ int
 1224 002a 7047     		bx	lr
 1225              	.LVL154:
 1226              	.L127:
  39:../Common/IQMath/ti/_IQNtoF.c ****     } else {
 1227              		.loc 1 39 16 view .LVU439
 1228 002c 9FED010A 		vldr.32	s0, .L129
 1229              	.LVL155:
  39:../Common/IQMath/ti/_IQNtoF.c ****     } else {
 1230              		.loc 1 39 16 view .LVU440
 1231              	.LBE53:
 1232              	.LBE52:
 212:../Common/IQMath/ti/_IQNtoF.c **** }
 1233              		.loc 1 212 1 view .LVU441
 1234 0030 7047     		bx	lr
ARM GAS  C:\Users\57308\AppData\Local\Temp\cc6zZRsl.s 			page 33


 1235              	.L130:
 1236 0032 00BF     		.align	2
 1237              	.L129:
 1238 0034 00000000 		.word	0
 1239              		.cfi_endproc
 1240              	.LFE274:
 1242              		.section	.text._IQ17toF,"ax",%progbits
 1243              		.align	1
 1244              		.global	_IQ17toF
 1245              		.syntax unified
 1246              		.thumb
 1247              		.thumb_func
 1249              	_IQ17toF:
 1250              	.LVL156:
 1251              	.LFB275:
 213:../Common/IQMath/ti/_IQNtoF.c **** /**
 214:../Common/IQMath/ti/_IQNtoF.c ****  * @brief Converts input to floating point using IQ17 format.
 215:../Common/IQMath/ti/_IQNtoF.c ****  *
 216:../Common/IQMath/ti/_IQNtoF.c ****  * @param a             IQ17 type value to be converted.
 217:../Common/IQMath/ti/_IQNtoF.c ****  *
 218:../Common/IQMath/ti/_IQNtoF.c ****  * @return              Conversion of input to floating point.
 219:../Common/IQMath/ti/_IQNtoF.c ****  */
 220:../Common/IQMath/ti/_IQNtoF.c **** float _IQ17toF(int32_t a)
 221:../Common/IQMath/ti/_IQNtoF.c **** {
 1252              		.loc 1 221 1 is_stmt 1 view -0
 1253              		.cfi_startproc
 1254              		@ args = 0, pretend = 0, frame = 0
 1255              		@ frame_needed = 0, uses_anonymous_args = 0
 1256              		@ link register save eliminated.
 222:../Common/IQMath/ti/_IQNtoF.c ****     return __IQNtoF(a, 17);
 1257              		.loc 1 222 5 view .LVU443
 1258              	.LBB56:
 1259              	.LBI56:
  25:../Common/IQMath/ti/_IQNtoF.c **** {
 1260              		.loc 1 25 23 view .LVU444
 1261              	.LBB57:
  27:../Common/IQMath/ti/_IQNtoF.c ****     uint_fast32_t uiq23Result;
 1262              		.loc 1 27 5 view .LVU445
  28:../Common/IQMath/ti/_IQNtoF.c ****     uint_fast32_t uiq31Input;
 1263              		.loc 1 28 5 view .LVU446
  29:../Common/IQMath/ti/_IQNtoF.c **** 
 1264              		.loc 1 29 5 view .LVU447
  32:../Common/IQMath/ti/_IQNtoF.c **** 
 1265              		.loc 1 32 5 view .LVU448
  35:../Common/IQMath/ti/_IQNtoF.c ****         ui16Exp |= 0x8000;
 1266              		.loc 1 35 5 view .LVU449
  35:../Common/IQMath/ti/_IQNtoF.c ****         ui16Exp |= 0x8000;
 1267              		.loc 1 35 8 is_stmt 0 view .LVU450
 1268 0000 0028     		cmp	r0, #0
  35:../Common/IQMath/ti/_IQNtoF.c ****         ui16Exp |= 0x8000;
 1269              		.loc 1 35 8 view .LVU451
 1270 0002 03DB     		blt	.L138
  38:../Common/IQMath/ti/_IQNtoF.c ****         return (0);
 1271              		.loc 1 38 12 is_stmt 1 view .LVU452
  38:../Common/IQMath/ti/_IQNtoF.c ****         return (0);
 1272              		.loc 1 38 15 is_stmt 0 view .LVU453
 1273 0004 90B1     		cbz	r0, .L137
ARM GAS  C:\Users\57308\AppData\Local\Temp\cc6zZRsl.s 			page 34


  41:../Common/IQMath/ti/_IQNtoF.c ****     }
 1274              		.loc 1 41 9 is_stmt 1 view .LVU454
 1275              	.LVL157:
  32:../Common/IQMath/ti/_IQNtoF.c **** 
 1276              		.loc 1 32 13 is_stmt 0 view .LVU455
 1277 0006 4FF48D43 		mov	r3, #18048
 1278 000a 05E0     		b	.L135
 1279              	.LVL158:
 1280              	.L138:
  36:../Common/IQMath/ti/_IQNtoF.c ****         uiq31Input = -iqNInput;
 1281              		.loc 1 36 9 is_stmt 1 view .LVU456
  37:../Common/IQMath/ti/_IQNtoF.c ****     } else if (iqNInput == 0) {
 1282              		.loc 1 37 9 view .LVU457
  37:../Common/IQMath/ti/_IQNtoF.c ****     } else if (iqNInput == 0) {
 1283              		.loc 1 37 22 is_stmt 0 view .LVU458
 1284 000c 4042     		rsbs	r0, r0, #0
 1285              	.LVL159:
  36:../Common/IQMath/ti/_IQNtoF.c ****         uiq31Input = -iqNInput;
 1286              		.loc 1 36 17 view .LVU459
 1287 000e 4CF28063 		movw	r3, #50816
 1288 0012 01E0     		b	.L135
 1289              	.LVL160:
 1290              	.L136:
  46:../Common/IQMath/ti/_IQNtoF.c ****         ui16Exp -= 0x0080;
 1291              		.loc 1 46 9 is_stmt 1 view .LVU460
  46:../Common/IQMath/ti/_IQNtoF.c ****         ui16Exp -= 0x0080;
 1292              		.loc 1 46 20 is_stmt 0 view .LVU461
 1293 0014 4000     		lsls	r0, r0, #1
 1294              	.LVL161:
  47:../Common/IQMath/ti/_IQNtoF.c ****     }
 1295              		.loc 1 47 9 is_stmt 1 view .LVU462
  47:../Common/IQMath/ti/_IQNtoF.c ****     }
 1296              		.loc 1 47 17 is_stmt 0 view .LVU463
 1297 0016 803B     		subs	r3, r3, #128
 1298              	.LVL162:
 1299              	.L135:
  45:../Common/IQMath/ti/_IQNtoF.c ****         uiq31Input <<= 1;
 1300              		.loc 1 45 11 is_stmt 1 view .LVU464
 1301 0018 0028     		cmp	r0, #0
 1302 001a FBDA     		bge	.L136
  51:../Common/IQMath/ti/_IQNtoF.c **** 
 1303              		.loc 1 51 5 view .LVU465
  51:../Common/IQMath/ti/_IQNtoF.c **** 
 1304              		.loc 1 51 31 is_stmt 0 view .LVU466
 1305 001c 8030     		adds	r0, r0, #128
 1306              	.LVL163:
  54:../Common/IQMath/ti/_IQNtoF.c **** 
 1307              		.loc 1 54 5 is_stmt 1 view .LVU467
  54:../Common/IQMath/ti/_IQNtoF.c **** 
 1308              		.loc 1 54 17 is_stmt 0 view .LVU468
 1309 001e C0F31620 		ubfx	r0, r0, #8, #23
 1310              	.LVL164:
  64:../Common/IQMath/ti/_IQNtoF.c **** 
 1311              		.loc 1 64 5 is_stmt 1 view .LVU469
  67:../Common/IQMath/ti/_IQNtoF.c **** }
 1312              		.loc 1 67 5 view .LVU470
  67:../Common/IQMath/ti/_IQNtoF.c **** }
ARM GAS  C:\Users\57308\AppData\Local\Temp\cc6zZRsl.s 			page 35


 1313              		.loc 1 67 12 is_stmt 0 view .LVU471
 1314 0022 00EB0343 		add	r3, r0, r3, lsl #16
 1315              	.LVL165:
  67:../Common/IQMath/ti/_IQNtoF.c **** }
 1316              		.loc 1 67 12 view .LVU472
 1317 0026 00EE103A 		vmov	s0, r3	@ int
 1318 002a 7047     		bx	lr
 1319              	.LVL166:
 1320              	.L137:
  39:../Common/IQMath/ti/_IQNtoF.c ****     } else {
 1321              		.loc 1 39 16 view .LVU473
 1322 002c 9FED010A 		vldr.32	s0, .L139
 1323              	.LVL167:
  39:../Common/IQMath/ti/_IQNtoF.c ****     } else {
 1324              		.loc 1 39 16 view .LVU474
 1325              	.LBE57:
 1326              	.LBE56:
 223:../Common/IQMath/ti/_IQNtoF.c **** }
 1327              		.loc 1 223 1 view .LVU475
 1328 0030 7047     		bx	lr
 1329              	.L140:
 1330 0032 00BF     		.align	2
 1331              	.L139:
 1332 0034 00000000 		.word	0
 1333              		.cfi_endproc
 1334              	.LFE275:
 1336              		.section	.text._IQ16toF,"ax",%progbits
 1337              		.align	1
 1338              		.global	_IQ16toF
 1339              		.syntax unified
 1340              		.thumb
 1341              		.thumb_func
 1343              	_IQ16toF:
 1344              	.LVL168:
 1345              	.LFB276:
 224:../Common/IQMath/ti/_IQNtoF.c **** /**
 225:../Common/IQMath/ti/_IQNtoF.c ****  * @brief Converts input to floating point using IQ16 format.
 226:../Common/IQMath/ti/_IQNtoF.c ****  *
 227:../Common/IQMath/ti/_IQNtoF.c ****  * @param a             IQ16 type value to be converted.
 228:../Common/IQMath/ti/_IQNtoF.c ****  *
 229:../Common/IQMath/ti/_IQNtoF.c ****  * @return              Conversion of input to floating point.
 230:../Common/IQMath/ti/_IQNtoF.c ****  */
 231:../Common/IQMath/ti/_IQNtoF.c **** float _IQ16toF(int32_t a)
 232:../Common/IQMath/ti/_IQNtoF.c **** {
 1346              		.loc 1 232 1 is_stmt 1 view -0
 1347              		.cfi_startproc
 1348              		@ args = 0, pretend = 0, frame = 0
 1349              		@ frame_needed = 0, uses_anonymous_args = 0
 1350              		@ link register save eliminated.
 233:../Common/IQMath/ti/_IQNtoF.c ****     return __IQNtoF(a, 16);
 1351              		.loc 1 233 5 view .LVU477
 1352              	.LBB60:
 1353              	.LBI60:
  25:../Common/IQMath/ti/_IQNtoF.c **** {
 1354              		.loc 1 25 23 view .LVU478
 1355              	.LBB61:
  27:../Common/IQMath/ti/_IQNtoF.c ****     uint_fast32_t uiq23Result;
ARM GAS  C:\Users\57308\AppData\Local\Temp\cc6zZRsl.s 			page 36


 1356              		.loc 1 27 5 view .LVU479
  28:../Common/IQMath/ti/_IQNtoF.c ****     uint_fast32_t uiq31Input;
 1357              		.loc 1 28 5 view .LVU480
  29:../Common/IQMath/ti/_IQNtoF.c **** 
 1358              		.loc 1 29 5 view .LVU481
  32:../Common/IQMath/ti/_IQNtoF.c **** 
 1359              		.loc 1 32 5 view .LVU482
  35:../Common/IQMath/ti/_IQNtoF.c ****         ui16Exp |= 0x8000;
 1360              		.loc 1 35 5 view .LVU483
  35:../Common/IQMath/ti/_IQNtoF.c ****         ui16Exp |= 0x8000;
 1361              		.loc 1 35 8 is_stmt 0 view .LVU484
 1362 0000 0028     		cmp	r0, #0
  35:../Common/IQMath/ti/_IQNtoF.c ****         ui16Exp |= 0x8000;
 1363              		.loc 1 35 8 view .LVU485
 1364 0002 03DB     		blt	.L148
  38:../Common/IQMath/ti/_IQNtoF.c ****         return (0);
 1365              		.loc 1 38 12 is_stmt 1 view .LVU486
  38:../Common/IQMath/ti/_IQNtoF.c ****         return (0);
 1366              		.loc 1 38 15 is_stmt 0 view .LVU487
 1367 0004 90B1     		cbz	r0, .L147
  41:../Common/IQMath/ti/_IQNtoF.c ****     }
 1368              		.loc 1 41 9 is_stmt 1 view .LVU488
 1369              	.LVL169:
  32:../Common/IQMath/ti/_IQNtoF.c **** 
 1370              		.loc 1 32 13 is_stmt 0 view .LVU489
 1371 0006 4FF48E43 		mov	r3, #18176
 1372 000a 05E0     		b	.L145
 1373              	.LVL170:
 1374              	.L148:
  36:../Common/IQMath/ti/_IQNtoF.c ****         uiq31Input = -iqNInput;
 1375              		.loc 1 36 9 is_stmt 1 view .LVU490
  37:../Common/IQMath/ti/_IQNtoF.c ****     } else if (iqNInput == 0) {
 1376              		.loc 1 37 9 view .LVU491
  37:../Common/IQMath/ti/_IQNtoF.c ****     } else if (iqNInput == 0) {
 1377              		.loc 1 37 22 is_stmt 0 view .LVU492
 1378 000c 4042     		rsbs	r0, r0, #0
 1379              	.LVL171:
  36:../Common/IQMath/ti/_IQNtoF.c ****         uiq31Input = -iqNInput;
 1380              		.loc 1 36 17 view .LVU493
 1381 000e 4FF44743 		mov	r3, #50944
 1382 0012 01E0     		b	.L145
 1383              	.LVL172:
 1384              	.L146:
  46:../Common/IQMath/ti/_IQNtoF.c ****         ui16Exp -= 0x0080;
 1385              		.loc 1 46 9 is_stmt 1 view .LVU494
  46:../Common/IQMath/ti/_IQNtoF.c ****         ui16Exp -= 0x0080;
 1386              		.loc 1 46 20 is_stmt 0 view .LVU495
 1387 0014 4000     		lsls	r0, r0, #1
 1388              	.LVL173:
  47:../Common/IQMath/ti/_IQNtoF.c ****     }
 1389              		.loc 1 47 9 is_stmt 1 view .LVU496
  47:../Common/IQMath/ti/_IQNtoF.c ****     }
 1390              		.loc 1 47 17 is_stmt 0 view .LVU497
 1391 0016 803B     		subs	r3, r3, #128
 1392              	.LVL174:
 1393              	.L145:
  45:../Common/IQMath/ti/_IQNtoF.c ****         uiq31Input <<= 1;
ARM GAS  C:\Users\57308\AppData\Local\Temp\cc6zZRsl.s 			page 37


 1394              		.loc 1 45 11 is_stmt 1 view .LVU498
 1395 0018 0028     		cmp	r0, #0
 1396 001a FBDA     		bge	.L146
  51:../Common/IQMath/ti/_IQNtoF.c **** 
 1397              		.loc 1 51 5 view .LVU499
  51:../Common/IQMath/ti/_IQNtoF.c **** 
 1398              		.loc 1 51 31 is_stmt 0 view .LVU500
 1399 001c 8030     		adds	r0, r0, #128
 1400              	.LVL175:
  54:../Common/IQMath/ti/_IQNtoF.c **** 
 1401              		.loc 1 54 5 is_stmt 1 view .LVU501
  54:../Common/IQMath/ti/_IQNtoF.c **** 
 1402              		.loc 1 54 17 is_stmt 0 view .LVU502
 1403 001e C0F31620 		ubfx	r0, r0, #8, #23
 1404              	.LVL176:
  64:../Common/IQMath/ti/_IQNtoF.c **** 
 1405              		.loc 1 64 5 is_stmt 1 view .LVU503
  67:../Common/IQMath/ti/_IQNtoF.c **** }
 1406              		.loc 1 67 5 view .LVU504
  67:../Common/IQMath/ti/_IQNtoF.c **** }
 1407              		.loc 1 67 12 is_stmt 0 view .LVU505
 1408 0022 00EB0343 		add	r3, r0, r3, lsl #16
 1409              	.LVL177:
  67:../Common/IQMath/ti/_IQNtoF.c **** }
 1410              		.loc 1 67 12 view .LVU506
 1411 0026 00EE103A 		vmov	s0, r3	@ int
 1412 002a 7047     		bx	lr
 1413              	.LVL178:
 1414              	.L147:
  39:../Common/IQMath/ti/_IQNtoF.c ****     } else {
 1415              		.loc 1 39 16 view .LVU507
 1416 002c 9FED010A 		vldr.32	s0, .L149
 1417              	.LVL179:
  39:../Common/IQMath/ti/_IQNtoF.c ****     } else {
 1418              		.loc 1 39 16 view .LVU508
 1419              	.LBE61:
 1420              	.LBE60:
 234:../Common/IQMath/ti/_IQNtoF.c **** }
 1421              		.loc 1 234 1 view .LVU509
 1422 0030 7047     		bx	lr
 1423              	.L150:
 1424 0032 00BF     		.align	2
 1425              	.L149:
 1426 0034 00000000 		.word	0
 1427              		.cfi_endproc
 1428              	.LFE276:
 1430              		.section	.text._IQ15toF,"ax",%progbits
 1431              		.align	1
 1432              		.global	_IQ15toF
 1433              		.syntax unified
 1434              		.thumb
 1435              		.thumb_func
 1437              	_IQ15toF:
 1438              	.LVL180:
 1439              	.LFB277:
 235:../Common/IQMath/ti/_IQNtoF.c **** /**
 236:../Common/IQMath/ti/_IQNtoF.c ****  * @brief Converts input to floating point using IQ15 format.
ARM GAS  C:\Users\57308\AppData\Local\Temp\cc6zZRsl.s 			page 38


 237:../Common/IQMath/ti/_IQNtoF.c ****  *
 238:../Common/IQMath/ti/_IQNtoF.c ****  * @param a             IQ15 type value to be converted.
 239:../Common/IQMath/ti/_IQNtoF.c ****  *
 240:../Common/IQMath/ti/_IQNtoF.c ****  * @return              Conversion of input to floating point.
 241:../Common/IQMath/ti/_IQNtoF.c ****  */
 242:../Common/IQMath/ti/_IQNtoF.c **** float _IQ15toF(int32_t a)
 243:../Common/IQMath/ti/_IQNtoF.c **** {
 1440              		.loc 1 243 1 is_stmt 1 view -0
 1441              		.cfi_startproc
 1442              		@ args = 0, pretend = 0, frame = 0
 1443              		@ frame_needed = 0, uses_anonymous_args = 0
 1444              		@ link register save eliminated.
 244:../Common/IQMath/ti/_IQNtoF.c ****     return __IQNtoF(a, 15);
 1445              		.loc 1 244 5 view .LVU511
 1446              	.LBB64:
 1447              	.LBI64:
  25:../Common/IQMath/ti/_IQNtoF.c **** {
 1448              		.loc 1 25 23 view .LVU512
 1449              	.LBB65:
  27:../Common/IQMath/ti/_IQNtoF.c ****     uint_fast32_t uiq23Result;
 1450              		.loc 1 27 5 view .LVU513
  28:../Common/IQMath/ti/_IQNtoF.c ****     uint_fast32_t uiq31Input;
 1451              		.loc 1 28 5 view .LVU514
  29:../Common/IQMath/ti/_IQNtoF.c **** 
 1452              		.loc 1 29 5 view .LVU515
  32:../Common/IQMath/ti/_IQNtoF.c **** 
 1453              		.loc 1 32 5 view .LVU516
  35:../Common/IQMath/ti/_IQNtoF.c ****         ui16Exp |= 0x8000;
 1454              		.loc 1 35 5 view .LVU517
  35:../Common/IQMath/ti/_IQNtoF.c ****         ui16Exp |= 0x8000;
 1455              		.loc 1 35 8 is_stmt 0 view .LVU518
 1456 0000 0028     		cmp	r0, #0
  35:../Common/IQMath/ti/_IQNtoF.c ****         ui16Exp |= 0x8000;
 1457              		.loc 1 35 8 view .LVU519
 1458 0002 03DB     		blt	.L158
  38:../Common/IQMath/ti/_IQNtoF.c ****         return (0);
 1459              		.loc 1 38 12 is_stmt 1 view .LVU520
  38:../Common/IQMath/ti/_IQNtoF.c ****         return (0);
 1460              		.loc 1 38 15 is_stmt 0 view .LVU521
 1461 0004 90B1     		cbz	r0, .L157
  41:../Common/IQMath/ti/_IQNtoF.c ****     }
 1462              		.loc 1 41 9 is_stmt 1 view .LVU522
 1463              	.LVL181:
  32:../Common/IQMath/ti/_IQNtoF.c **** 
 1464              		.loc 1 32 13 is_stmt 0 view .LVU523
 1465 0006 4FF48F43 		mov	r3, #18304
 1466 000a 05E0     		b	.L155
 1467              	.LVL182:
 1468              	.L158:
  36:../Common/IQMath/ti/_IQNtoF.c ****         uiq31Input = -iqNInput;
 1469              		.loc 1 36 9 is_stmt 1 view .LVU524
  37:../Common/IQMath/ti/_IQNtoF.c ****     } else if (iqNInput == 0) {
 1470              		.loc 1 37 9 view .LVU525
  37:../Common/IQMath/ti/_IQNtoF.c ****     } else if (iqNInput == 0) {
 1471              		.loc 1 37 22 is_stmt 0 view .LVU526
 1472 000c 4042     		rsbs	r0, r0, #0
 1473              	.LVL183:
ARM GAS  C:\Users\57308\AppData\Local\Temp\cc6zZRsl.s 			page 39


  36:../Common/IQMath/ti/_IQNtoF.c ****         uiq31Input = -iqNInput;
 1474              		.loc 1 36 17 view .LVU527
 1475 000e 4CF28073 		movw	r3, #51072
 1476 0012 01E0     		b	.L155
 1477              	.LVL184:
 1478              	.L156:
  46:../Common/IQMath/ti/_IQNtoF.c ****         ui16Exp -= 0x0080;
 1479              		.loc 1 46 9 is_stmt 1 view .LVU528
  46:../Common/IQMath/ti/_IQNtoF.c ****         ui16Exp -= 0x0080;
 1480              		.loc 1 46 20 is_stmt 0 view .LVU529
 1481 0014 4000     		lsls	r0, r0, #1
 1482              	.LVL185:
  47:../Common/IQMath/ti/_IQNtoF.c ****     }
 1483              		.loc 1 47 9 is_stmt 1 view .LVU530
  47:../Common/IQMath/ti/_IQNtoF.c ****     }
 1484              		.loc 1 47 17 is_stmt 0 view .LVU531
 1485 0016 803B     		subs	r3, r3, #128
 1486              	.LVL186:
 1487              	.L155:
  45:../Common/IQMath/ti/_IQNtoF.c ****         uiq31Input <<= 1;
 1488              		.loc 1 45 11 is_stmt 1 view .LVU532
 1489 0018 0028     		cmp	r0, #0
 1490 001a FBDA     		bge	.L156
  51:../Common/IQMath/ti/_IQNtoF.c **** 
 1491              		.loc 1 51 5 view .LVU533
  51:../Common/IQMath/ti/_IQNtoF.c **** 
 1492              		.loc 1 51 31 is_stmt 0 view .LVU534
 1493 001c 8030     		adds	r0, r0, #128
 1494              	.LVL187:
  54:../Common/IQMath/ti/_IQNtoF.c **** 
 1495              		.loc 1 54 5 is_stmt 1 view .LVU535
  54:../Common/IQMath/ti/_IQNtoF.c **** 
 1496              		.loc 1 54 17 is_stmt 0 view .LVU536
 1497 001e C0F31620 		ubfx	r0, r0, #8, #23
 1498              	.LVL188:
  64:../Common/IQMath/ti/_IQNtoF.c **** 
 1499              		.loc 1 64 5 is_stmt 1 view .LVU537
  67:../Common/IQMath/ti/_IQNtoF.c **** }
 1500              		.loc 1 67 5 view .LVU538
  67:../Common/IQMath/ti/_IQNtoF.c **** }
 1501              		.loc 1 67 12 is_stmt 0 view .LVU539
 1502 0022 00EB0343 		add	r3, r0, r3, lsl #16
 1503              	.LVL189:
  67:../Common/IQMath/ti/_IQNtoF.c **** }
 1504              		.loc 1 67 12 view .LVU540
 1505 0026 00EE103A 		vmov	s0, r3	@ int
 1506 002a 7047     		bx	lr
 1507              	.LVL190:
 1508              	.L157:
  39:../Common/IQMath/ti/_IQNtoF.c ****     } else {
 1509              		.loc 1 39 16 view .LVU541
 1510 002c 9FED010A 		vldr.32	s0, .L159
 1511              	.LVL191:
  39:../Common/IQMath/ti/_IQNtoF.c ****     } else {
 1512              		.loc 1 39 16 view .LVU542
 1513              	.LBE65:
 1514              	.LBE64:
ARM GAS  C:\Users\57308\AppData\Local\Temp\cc6zZRsl.s 			page 40


 245:../Common/IQMath/ti/_IQNtoF.c **** }
 1515              		.loc 1 245 1 view .LVU543
 1516 0030 7047     		bx	lr
 1517              	.L160:
 1518 0032 00BF     		.align	2
 1519              	.L159:
 1520 0034 00000000 		.word	0
 1521              		.cfi_endproc
 1522              	.LFE277:
 1524              		.section	.text._IQ14toF,"ax",%progbits
 1525              		.align	1
 1526              		.global	_IQ14toF
 1527              		.syntax unified
 1528              		.thumb
 1529              		.thumb_func
 1531              	_IQ14toF:
 1532              	.LVL192:
 1533              	.LFB278:
 246:../Common/IQMath/ti/_IQNtoF.c **** /**
 247:../Common/IQMath/ti/_IQNtoF.c ****  * @brief Converts input to floating point using IQ14 format.
 248:../Common/IQMath/ti/_IQNtoF.c ****  *
 249:../Common/IQMath/ti/_IQNtoF.c ****  * @param a             IQ14 type value to be converted.
 250:../Common/IQMath/ti/_IQNtoF.c ****  *
 251:../Common/IQMath/ti/_IQNtoF.c ****  * @return              Conversion of input to floating point.
 252:../Common/IQMath/ti/_IQNtoF.c ****  */
 253:../Common/IQMath/ti/_IQNtoF.c **** float _IQ14toF(int32_t a)
 254:../Common/IQMath/ti/_IQNtoF.c **** {
 1534              		.loc 1 254 1 is_stmt 1 view -0
 1535              		.cfi_startproc
 1536              		@ args = 0, pretend = 0, frame = 0
 1537              		@ frame_needed = 0, uses_anonymous_args = 0
 1538              		@ link register save eliminated.
 255:../Common/IQMath/ti/_IQNtoF.c ****     return __IQNtoF(a, 14);
 1539              		.loc 1 255 5 view .LVU545
 1540              	.LBB68:
 1541              	.LBI68:
  25:../Common/IQMath/ti/_IQNtoF.c **** {
 1542              		.loc 1 25 23 view .LVU546
 1543              	.LBB69:
  27:../Common/IQMath/ti/_IQNtoF.c ****     uint_fast32_t uiq23Result;
 1544              		.loc 1 27 5 view .LVU547
  28:../Common/IQMath/ti/_IQNtoF.c ****     uint_fast32_t uiq31Input;
 1545              		.loc 1 28 5 view .LVU548
  29:../Common/IQMath/ti/_IQNtoF.c **** 
 1546              		.loc 1 29 5 view .LVU549
  32:../Common/IQMath/ti/_IQNtoF.c **** 
 1547              		.loc 1 32 5 view .LVU550
  35:../Common/IQMath/ti/_IQNtoF.c ****         ui16Exp |= 0x8000;
 1548              		.loc 1 35 5 view .LVU551
  35:../Common/IQMath/ti/_IQNtoF.c ****         ui16Exp |= 0x8000;
 1549              		.loc 1 35 8 is_stmt 0 view .LVU552
 1550 0000 0028     		cmp	r0, #0
  35:../Common/IQMath/ti/_IQNtoF.c ****         ui16Exp |= 0x8000;
 1551              		.loc 1 35 8 view .LVU553
 1552 0002 03DB     		blt	.L168
  38:../Common/IQMath/ti/_IQNtoF.c ****         return (0);
 1553              		.loc 1 38 12 is_stmt 1 view .LVU554
ARM GAS  C:\Users\57308\AppData\Local\Temp\cc6zZRsl.s 			page 41


  38:../Common/IQMath/ti/_IQNtoF.c ****         return (0);
 1554              		.loc 1 38 15 is_stmt 0 view .LVU555
 1555 0004 90B1     		cbz	r0, .L167
  41:../Common/IQMath/ti/_IQNtoF.c ****     }
 1556              		.loc 1 41 9 is_stmt 1 view .LVU556
 1557              	.LVL193:
  32:../Common/IQMath/ti/_IQNtoF.c **** 
 1558              		.loc 1 32 13 is_stmt 0 view .LVU557
 1559 0006 4FF49043 		mov	r3, #18432
 1560 000a 05E0     		b	.L165
 1561              	.LVL194:
 1562              	.L168:
  36:../Common/IQMath/ti/_IQNtoF.c ****         uiq31Input = -iqNInput;
 1563              		.loc 1 36 9 is_stmt 1 view .LVU558
  37:../Common/IQMath/ti/_IQNtoF.c ****     } else if (iqNInput == 0) {
 1564              		.loc 1 37 9 view .LVU559
  37:../Common/IQMath/ti/_IQNtoF.c ****     } else if (iqNInput == 0) {
 1565              		.loc 1 37 22 is_stmt 0 view .LVU560
 1566 000c 4042     		rsbs	r0, r0, #0
 1567              	.LVL195:
  36:../Common/IQMath/ti/_IQNtoF.c ****         uiq31Input = -iqNInput;
 1568              		.loc 1 36 17 view .LVU561
 1569 000e 4FF44843 		mov	r3, #51200
 1570 0012 01E0     		b	.L165
 1571              	.LVL196:
 1572              	.L166:
  46:../Common/IQMath/ti/_IQNtoF.c ****         ui16Exp -= 0x0080;
 1573              		.loc 1 46 9 is_stmt 1 view .LVU562
  46:../Common/IQMath/ti/_IQNtoF.c ****         ui16Exp -= 0x0080;
 1574              		.loc 1 46 20 is_stmt 0 view .LVU563
 1575 0014 4000     		lsls	r0, r0, #1
 1576              	.LVL197:
  47:../Common/IQMath/ti/_IQNtoF.c ****     }
 1577              		.loc 1 47 9 is_stmt 1 view .LVU564
  47:../Common/IQMath/ti/_IQNtoF.c ****     }
 1578              		.loc 1 47 17 is_stmt 0 view .LVU565
 1579 0016 803B     		subs	r3, r3, #128
 1580              	.LVL198:
 1581              	.L165:
  45:../Common/IQMath/ti/_IQNtoF.c ****         uiq31Input <<= 1;
 1582              		.loc 1 45 11 is_stmt 1 view .LVU566
 1583 0018 0028     		cmp	r0, #0
 1584 001a FBDA     		bge	.L166
  51:../Common/IQMath/ti/_IQNtoF.c **** 
 1585              		.loc 1 51 5 view .LVU567
  51:../Common/IQMath/ti/_IQNtoF.c **** 
 1586              		.loc 1 51 31 is_stmt 0 view .LVU568
 1587 001c 8030     		adds	r0, r0, #128
 1588              	.LVL199:
  54:../Common/IQMath/ti/_IQNtoF.c **** 
 1589              		.loc 1 54 5 is_stmt 1 view .LVU569
  54:../Common/IQMath/ti/_IQNtoF.c **** 
 1590              		.loc 1 54 17 is_stmt 0 view .LVU570
 1591 001e C0F31620 		ubfx	r0, r0, #8, #23
 1592              	.LVL200:
  64:../Common/IQMath/ti/_IQNtoF.c **** 
 1593              		.loc 1 64 5 is_stmt 1 view .LVU571
ARM GAS  C:\Users\57308\AppData\Local\Temp\cc6zZRsl.s 			page 42


  67:../Common/IQMath/ti/_IQNtoF.c **** }
 1594              		.loc 1 67 5 view .LVU572
  67:../Common/IQMath/ti/_IQNtoF.c **** }
 1595              		.loc 1 67 12 is_stmt 0 view .LVU573
 1596 0022 00EB0343 		add	r3, r0, r3, lsl #16
 1597              	.LVL201:
  67:../Common/IQMath/ti/_IQNtoF.c **** }
 1598              		.loc 1 67 12 view .LVU574
 1599 0026 00EE103A 		vmov	s0, r3	@ int
 1600 002a 7047     		bx	lr
 1601              	.LVL202:
 1602              	.L167:
  39:../Common/IQMath/ti/_IQNtoF.c ****     } else {
 1603              		.loc 1 39 16 view .LVU575
 1604 002c 9FED010A 		vldr.32	s0, .L169
 1605              	.LVL203:
  39:../Common/IQMath/ti/_IQNtoF.c ****     } else {
 1606              		.loc 1 39 16 view .LVU576
 1607              	.LBE69:
 1608              	.LBE68:
 256:../Common/IQMath/ti/_IQNtoF.c **** }
 1609              		.loc 1 256 1 view .LVU577
 1610 0030 7047     		bx	lr
 1611              	.L170:
 1612 0032 00BF     		.align	2
 1613              	.L169:
 1614 0034 00000000 		.word	0
 1615              		.cfi_endproc
 1616              	.LFE278:
 1618              		.section	.text._IQ13toF,"ax",%progbits
 1619              		.align	1
 1620              		.global	_IQ13toF
 1621              		.syntax unified
 1622              		.thumb
 1623              		.thumb_func
 1625              	_IQ13toF:
 1626              	.LVL204:
 1627              	.LFB279:
 257:../Common/IQMath/ti/_IQNtoF.c **** /**
 258:../Common/IQMath/ti/_IQNtoF.c ****  * @brief Converts input to floating point using IQ13 format.
 259:../Common/IQMath/ti/_IQNtoF.c ****  *
 260:../Common/IQMath/ti/_IQNtoF.c ****  * @param a             IQ13 type value to be converted.
 261:../Common/IQMath/ti/_IQNtoF.c ****  *
 262:../Common/IQMath/ti/_IQNtoF.c ****  * @return              Conversion of input to floating point.
 263:../Common/IQMath/ti/_IQNtoF.c ****  */
 264:../Common/IQMath/ti/_IQNtoF.c **** float _IQ13toF(int32_t a)
 265:../Common/IQMath/ti/_IQNtoF.c **** {
 1628              		.loc 1 265 1 is_stmt 1 view -0
 1629              		.cfi_startproc
 1630              		@ args = 0, pretend = 0, frame = 0
 1631              		@ frame_needed = 0, uses_anonymous_args = 0
 1632              		@ link register save eliminated.
 266:../Common/IQMath/ti/_IQNtoF.c ****     return __IQNtoF(a, 13);
 1633              		.loc 1 266 5 view .LVU579
 1634              	.LBB72:
 1635              	.LBI72:
  25:../Common/IQMath/ti/_IQNtoF.c **** {
ARM GAS  C:\Users\57308\AppData\Local\Temp\cc6zZRsl.s 			page 43


 1636              		.loc 1 25 23 view .LVU580
 1637              	.LBB73:
  27:../Common/IQMath/ti/_IQNtoF.c ****     uint_fast32_t uiq23Result;
 1638              		.loc 1 27 5 view .LVU581
  28:../Common/IQMath/ti/_IQNtoF.c ****     uint_fast32_t uiq31Input;
 1639              		.loc 1 28 5 view .LVU582
  29:../Common/IQMath/ti/_IQNtoF.c **** 
 1640              		.loc 1 29 5 view .LVU583
  32:../Common/IQMath/ti/_IQNtoF.c **** 
 1641              		.loc 1 32 5 view .LVU584
  35:../Common/IQMath/ti/_IQNtoF.c ****         ui16Exp |= 0x8000;
 1642              		.loc 1 35 5 view .LVU585
  35:../Common/IQMath/ti/_IQNtoF.c ****         ui16Exp |= 0x8000;
 1643              		.loc 1 35 8 is_stmt 0 view .LVU586
 1644 0000 0028     		cmp	r0, #0
  35:../Common/IQMath/ti/_IQNtoF.c ****         ui16Exp |= 0x8000;
 1645              		.loc 1 35 8 view .LVU587
 1646 0002 03DB     		blt	.L178
  38:../Common/IQMath/ti/_IQNtoF.c ****         return (0);
 1647              		.loc 1 38 12 is_stmt 1 view .LVU588
  38:../Common/IQMath/ti/_IQNtoF.c ****         return (0);
 1648              		.loc 1 38 15 is_stmt 0 view .LVU589
 1649 0004 90B1     		cbz	r0, .L177
  41:../Common/IQMath/ti/_IQNtoF.c ****     }
 1650              		.loc 1 41 9 is_stmt 1 view .LVU590
 1651              	.LVL205:
  32:../Common/IQMath/ti/_IQNtoF.c **** 
 1652              		.loc 1 32 13 is_stmt 0 view .LVU591
 1653 0006 4FF49143 		mov	r3, #18560
 1654 000a 05E0     		b	.L175
 1655              	.LVL206:
 1656              	.L178:
  36:../Common/IQMath/ti/_IQNtoF.c ****         uiq31Input = -iqNInput;
 1657              		.loc 1 36 9 is_stmt 1 view .LVU592
  37:../Common/IQMath/ti/_IQNtoF.c ****     } else if (iqNInput == 0) {
 1658              		.loc 1 37 9 view .LVU593
  37:../Common/IQMath/ti/_IQNtoF.c ****     } else if (iqNInput == 0) {
 1659              		.loc 1 37 22 is_stmt 0 view .LVU594
 1660 000c 4042     		rsbs	r0, r0, #0
 1661              	.LVL207:
  36:../Common/IQMath/ti/_IQNtoF.c ****         uiq31Input = -iqNInput;
 1662              		.loc 1 36 17 view .LVU595
 1663 000e 4CF68003 		movw	r3, #51328
 1664 0012 01E0     		b	.L175
 1665              	.LVL208:
 1666              	.L176:
  46:../Common/IQMath/ti/_IQNtoF.c ****         ui16Exp -= 0x0080;
 1667              		.loc 1 46 9 is_stmt 1 view .LVU596
  46:../Common/IQMath/ti/_IQNtoF.c ****         ui16Exp -= 0x0080;
 1668              		.loc 1 46 20 is_stmt 0 view .LVU597
 1669 0014 4000     		lsls	r0, r0, #1
 1670              	.LVL209:
  47:../Common/IQMath/ti/_IQNtoF.c ****     }
 1671              		.loc 1 47 9 is_stmt 1 view .LVU598
  47:../Common/IQMath/ti/_IQNtoF.c ****     }
 1672              		.loc 1 47 17 is_stmt 0 view .LVU599
 1673 0016 803B     		subs	r3, r3, #128
ARM GAS  C:\Users\57308\AppData\Local\Temp\cc6zZRsl.s 			page 44


 1674              	.LVL210:
 1675              	.L175:
  45:../Common/IQMath/ti/_IQNtoF.c ****         uiq31Input <<= 1;
 1676              		.loc 1 45 11 is_stmt 1 view .LVU600
 1677 0018 0028     		cmp	r0, #0
 1678 001a FBDA     		bge	.L176
  51:../Common/IQMath/ti/_IQNtoF.c **** 
 1679              		.loc 1 51 5 view .LVU601
  51:../Common/IQMath/ti/_IQNtoF.c **** 
 1680              		.loc 1 51 31 is_stmt 0 view .LVU602
 1681 001c 8030     		adds	r0, r0, #128
 1682              	.LVL211:
  54:../Common/IQMath/ti/_IQNtoF.c **** 
 1683              		.loc 1 54 5 is_stmt 1 view .LVU603
  54:../Common/IQMath/ti/_IQNtoF.c **** 
 1684              		.loc 1 54 17 is_stmt 0 view .LVU604
 1685 001e C0F31620 		ubfx	r0, r0, #8, #23
 1686              	.LVL212:
  64:../Common/IQMath/ti/_IQNtoF.c **** 
 1687              		.loc 1 64 5 is_stmt 1 view .LVU605
  67:../Common/IQMath/ti/_IQNtoF.c **** }
 1688              		.loc 1 67 5 view .LVU606
  67:../Common/IQMath/ti/_IQNtoF.c **** }
 1689              		.loc 1 67 12 is_stmt 0 view .LVU607
 1690 0022 00EB0343 		add	r3, r0, r3, lsl #16
 1691              	.LVL213:
  67:../Common/IQMath/ti/_IQNtoF.c **** }
 1692              		.loc 1 67 12 view .LVU608
 1693 0026 00EE103A 		vmov	s0, r3	@ int
 1694 002a 7047     		bx	lr
 1695              	.LVL214:
 1696              	.L177:
  39:../Common/IQMath/ti/_IQNtoF.c ****     } else {
 1697              		.loc 1 39 16 view .LVU609
 1698 002c 9FED010A 		vldr.32	s0, .L179
 1699              	.LVL215:
  39:../Common/IQMath/ti/_IQNtoF.c ****     } else {
 1700              		.loc 1 39 16 view .LVU610
 1701              	.LBE73:
 1702              	.LBE72:
 267:../Common/IQMath/ti/_IQNtoF.c **** }
 1703              		.loc 1 267 1 view .LVU611
 1704 0030 7047     		bx	lr
 1705              	.L180:
 1706 0032 00BF     		.align	2
 1707              	.L179:
 1708 0034 00000000 		.word	0
 1709              		.cfi_endproc
 1710              	.LFE279:
 1712              		.section	.text._IQ12toF,"ax",%progbits
 1713              		.align	1
 1714              		.global	_IQ12toF
 1715              		.syntax unified
 1716              		.thumb
 1717              		.thumb_func
 1719              	_IQ12toF:
 1720              	.LVL216:
ARM GAS  C:\Users\57308\AppData\Local\Temp\cc6zZRsl.s 			page 45


 1721              	.LFB280:
 268:../Common/IQMath/ti/_IQNtoF.c **** /**
 269:../Common/IQMath/ti/_IQNtoF.c ****  * @brief Converts input to floating point using IQ12 format.
 270:../Common/IQMath/ti/_IQNtoF.c ****  *
 271:../Common/IQMath/ti/_IQNtoF.c ****  * @param a             IQ12 type value to be converted.
 272:../Common/IQMath/ti/_IQNtoF.c ****  *
 273:../Common/IQMath/ti/_IQNtoF.c ****  * @return              Conversion of input to floating point.
 274:../Common/IQMath/ti/_IQNtoF.c ****  */
 275:../Common/IQMath/ti/_IQNtoF.c **** float _IQ12toF(int32_t a)
 276:../Common/IQMath/ti/_IQNtoF.c **** {
 1722              		.loc 1 276 1 is_stmt 1 view -0
 1723              		.cfi_startproc
 1724              		@ args = 0, pretend = 0, frame = 0
 1725              		@ frame_needed = 0, uses_anonymous_args = 0
 1726              		@ link register save eliminated.
 277:../Common/IQMath/ti/_IQNtoF.c ****     return __IQNtoF(a, 12);
 1727              		.loc 1 277 5 view .LVU613
 1728              	.LBB76:
 1729              	.LBI76:
  25:../Common/IQMath/ti/_IQNtoF.c **** {
 1730              		.loc 1 25 23 view .LVU614
 1731              	.LBB77:
  27:../Common/IQMath/ti/_IQNtoF.c ****     uint_fast32_t uiq23Result;
 1732              		.loc 1 27 5 view .LVU615
  28:../Common/IQMath/ti/_IQNtoF.c ****     uint_fast32_t uiq31Input;
 1733              		.loc 1 28 5 view .LVU616
  29:../Common/IQMath/ti/_IQNtoF.c **** 
 1734              		.loc 1 29 5 view .LVU617
  32:../Common/IQMath/ti/_IQNtoF.c **** 
 1735              		.loc 1 32 5 view .LVU618
  35:../Common/IQMath/ti/_IQNtoF.c ****         ui16Exp |= 0x8000;
 1736              		.loc 1 35 5 view .LVU619
  35:../Common/IQMath/ti/_IQNtoF.c ****         ui16Exp |= 0x8000;
 1737              		.loc 1 35 8 is_stmt 0 view .LVU620
 1738 0000 0028     		cmp	r0, #0
  35:../Common/IQMath/ti/_IQNtoF.c ****         ui16Exp |= 0x8000;
 1739              		.loc 1 35 8 view .LVU621
 1740 0002 03DB     		blt	.L188
  38:../Common/IQMath/ti/_IQNtoF.c ****         return (0);
 1741              		.loc 1 38 12 is_stmt 1 view .LVU622
  38:../Common/IQMath/ti/_IQNtoF.c ****         return (0);
 1742              		.loc 1 38 15 is_stmt 0 view .LVU623
 1743 0004 90B1     		cbz	r0, .L187
  41:../Common/IQMath/ti/_IQNtoF.c ****     }
 1744              		.loc 1 41 9 is_stmt 1 view .LVU624
 1745              	.LVL217:
  32:../Common/IQMath/ti/_IQNtoF.c **** 
 1746              		.loc 1 32 13 is_stmt 0 view .LVU625
 1747 0006 4FF49243 		mov	r3, #18688
 1748 000a 05E0     		b	.L185
 1749              	.LVL218:
 1750              	.L188:
  36:../Common/IQMath/ti/_IQNtoF.c ****         uiq31Input = -iqNInput;
 1751              		.loc 1 36 9 is_stmt 1 view .LVU626
  37:../Common/IQMath/ti/_IQNtoF.c ****     } else if (iqNInput == 0) {
 1752              		.loc 1 37 9 view .LVU627
  37:../Common/IQMath/ti/_IQNtoF.c ****     } else if (iqNInput == 0) {
ARM GAS  C:\Users\57308\AppData\Local\Temp\cc6zZRsl.s 			page 46


 1753              		.loc 1 37 22 is_stmt 0 view .LVU628
 1754 000c 4042     		rsbs	r0, r0, #0
 1755              	.LVL219:
  36:../Common/IQMath/ti/_IQNtoF.c ****         uiq31Input = -iqNInput;
 1756              		.loc 1 36 17 view .LVU629
 1757 000e 4FF44943 		mov	r3, #51456
 1758 0012 01E0     		b	.L185
 1759              	.LVL220:
 1760              	.L186:
  46:../Common/IQMath/ti/_IQNtoF.c ****         ui16Exp -= 0x0080;
 1761              		.loc 1 46 9 is_stmt 1 view .LVU630
  46:../Common/IQMath/ti/_IQNtoF.c ****         ui16Exp -= 0x0080;
 1762              		.loc 1 46 20 is_stmt 0 view .LVU631
 1763 0014 4000     		lsls	r0, r0, #1
 1764              	.LVL221:
  47:../Common/IQMath/ti/_IQNtoF.c ****     }
 1765              		.loc 1 47 9 is_stmt 1 view .LVU632
  47:../Common/IQMath/ti/_IQNtoF.c ****     }
 1766              		.loc 1 47 17 is_stmt 0 view .LVU633
 1767 0016 803B     		subs	r3, r3, #128
 1768              	.LVL222:
 1769              	.L185:
  45:../Common/IQMath/ti/_IQNtoF.c ****         uiq31Input <<= 1;
 1770              		.loc 1 45 11 is_stmt 1 view .LVU634
 1771 0018 0028     		cmp	r0, #0
 1772 001a FBDA     		bge	.L186
  51:../Common/IQMath/ti/_IQNtoF.c **** 
 1773              		.loc 1 51 5 view .LVU635
  51:../Common/IQMath/ti/_IQNtoF.c **** 
 1774              		.loc 1 51 31 is_stmt 0 view .LVU636
 1775 001c 8030     		adds	r0, r0, #128
 1776              	.LVL223:
  54:../Common/IQMath/ti/_IQNtoF.c **** 
 1777              		.loc 1 54 5 is_stmt 1 view .LVU637
  54:../Common/IQMath/ti/_IQNtoF.c **** 
 1778              		.loc 1 54 17 is_stmt 0 view .LVU638
 1779 001e C0F31620 		ubfx	r0, r0, #8, #23
 1780              	.LVL224:
  64:../Common/IQMath/ti/_IQNtoF.c **** 
 1781              		.loc 1 64 5 is_stmt 1 view .LVU639
  67:../Common/IQMath/ti/_IQNtoF.c **** }
 1782              		.loc 1 67 5 view .LVU640
  67:../Common/IQMath/ti/_IQNtoF.c **** }
 1783              		.loc 1 67 12 is_stmt 0 view .LVU641
 1784 0022 00EB0343 		add	r3, r0, r3, lsl #16
 1785              	.LVL225:
  67:../Common/IQMath/ti/_IQNtoF.c **** }
 1786              		.loc 1 67 12 view .LVU642
 1787 0026 00EE103A 		vmov	s0, r3	@ int
 1788 002a 7047     		bx	lr
 1789              	.LVL226:
 1790              	.L187:
  39:../Common/IQMath/ti/_IQNtoF.c ****     } else {
 1791              		.loc 1 39 16 view .LVU643
 1792 002c 9FED010A 		vldr.32	s0, .L189
 1793              	.LVL227:
  39:../Common/IQMath/ti/_IQNtoF.c ****     } else {
ARM GAS  C:\Users\57308\AppData\Local\Temp\cc6zZRsl.s 			page 47


 1794              		.loc 1 39 16 view .LVU644
 1795              	.LBE77:
 1796              	.LBE76:
 278:../Common/IQMath/ti/_IQNtoF.c **** }
 1797              		.loc 1 278 1 view .LVU645
 1798 0030 7047     		bx	lr
 1799              	.L190:
 1800 0032 00BF     		.align	2
 1801              	.L189:
 1802 0034 00000000 		.word	0
 1803              		.cfi_endproc
 1804              	.LFE280:
 1806              		.section	.text._IQ11toF,"ax",%progbits
 1807              		.align	1
 1808              		.global	_IQ11toF
 1809              		.syntax unified
 1810              		.thumb
 1811              		.thumb_func
 1813              	_IQ11toF:
 1814              	.LVL228:
 1815              	.LFB281:
 279:../Common/IQMath/ti/_IQNtoF.c **** /**
 280:../Common/IQMath/ti/_IQNtoF.c ****  * @brief Converts input to floating point using IQ11 format.
 281:../Common/IQMath/ti/_IQNtoF.c ****  *
 282:../Common/IQMath/ti/_IQNtoF.c ****  * @param a             IQ11 type value to be converted.
 283:../Common/IQMath/ti/_IQNtoF.c ****  *
 284:../Common/IQMath/ti/_IQNtoF.c ****  * @return              Conversion of input to floating point.
 285:../Common/IQMath/ti/_IQNtoF.c ****  */
 286:../Common/IQMath/ti/_IQNtoF.c **** float _IQ11toF(int32_t a)
 287:../Common/IQMath/ti/_IQNtoF.c **** {
 1816              		.loc 1 287 1 is_stmt 1 view -0
 1817              		.cfi_startproc
 1818              		@ args = 0, pretend = 0, frame = 0
 1819              		@ frame_needed = 0, uses_anonymous_args = 0
 1820              		@ link register save eliminated.
 288:../Common/IQMath/ti/_IQNtoF.c ****     return __IQNtoF(a, 11);
 1821              		.loc 1 288 5 view .LVU647
 1822              	.LBB80:
 1823              	.LBI80:
  25:../Common/IQMath/ti/_IQNtoF.c **** {
 1824              		.loc 1 25 23 view .LVU648
 1825              	.LBB81:
  27:../Common/IQMath/ti/_IQNtoF.c ****     uint_fast32_t uiq23Result;
 1826              		.loc 1 27 5 view .LVU649
  28:../Common/IQMath/ti/_IQNtoF.c ****     uint_fast32_t uiq31Input;
 1827              		.loc 1 28 5 view .LVU650
  29:../Common/IQMath/ti/_IQNtoF.c **** 
 1828              		.loc 1 29 5 view .LVU651
  32:../Common/IQMath/ti/_IQNtoF.c **** 
 1829              		.loc 1 32 5 view .LVU652
  35:../Common/IQMath/ti/_IQNtoF.c ****         ui16Exp |= 0x8000;
 1830              		.loc 1 35 5 view .LVU653
  35:../Common/IQMath/ti/_IQNtoF.c ****         ui16Exp |= 0x8000;
 1831              		.loc 1 35 8 is_stmt 0 view .LVU654
 1832 0000 0028     		cmp	r0, #0
  35:../Common/IQMath/ti/_IQNtoF.c ****         ui16Exp |= 0x8000;
 1833              		.loc 1 35 8 view .LVU655
ARM GAS  C:\Users\57308\AppData\Local\Temp\cc6zZRsl.s 			page 48


 1834 0002 03DB     		blt	.L198
  38:../Common/IQMath/ti/_IQNtoF.c ****         return (0);
 1835              		.loc 1 38 12 is_stmt 1 view .LVU656
  38:../Common/IQMath/ti/_IQNtoF.c ****         return (0);
 1836              		.loc 1 38 15 is_stmt 0 view .LVU657
 1837 0004 90B1     		cbz	r0, .L197
  41:../Common/IQMath/ti/_IQNtoF.c ****     }
 1838              		.loc 1 41 9 is_stmt 1 view .LVU658
 1839              	.LVL229:
  32:../Common/IQMath/ti/_IQNtoF.c **** 
 1840              		.loc 1 32 13 is_stmt 0 view .LVU659
 1841 0006 4FF49343 		mov	r3, #18816
 1842 000a 05E0     		b	.L195
 1843              	.LVL230:
 1844              	.L198:
  36:../Common/IQMath/ti/_IQNtoF.c ****         uiq31Input = -iqNInput;
 1845              		.loc 1 36 9 is_stmt 1 view .LVU660
  37:../Common/IQMath/ti/_IQNtoF.c ****     } else if (iqNInput == 0) {
 1846              		.loc 1 37 9 view .LVU661
  37:../Common/IQMath/ti/_IQNtoF.c ****     } else if (iqNInput == 0) {
 1847              		.loc 1 37 22 is_stmt 0 view .LVU662
 1848 000c 4042     		rsbs	r0, r0, #0
 1849              	.LVL231:
  36:../Common/IQMath/ti/_IQNtoF.c ****         uiq31Input = -iqNInput;
 1850              		.loc 1 36 17 view .LVU663
 1851 000e 4CF68013 		movw	r3, #51584
 1852 0012 01E0     		b	.L195
 1853              	.LVL232:
 1854              	.L196:
  46:../Common/IQMath/ti/_IQNtoF.c ****         ui16Exp -= 0x0080;
 1855              		.loc 1 46 9 is_stmt 1 view .LVU664
  46:../Common/IQMath/ti/_IQNtoF.c ****         ui16Exp -= 0x0080;
 1856              		.loc 1 46 20 is_stmt 0 view .LVU665
 1857 0014 4000     		lsls	r0, r0, #1
 1858              	.LVL233:
  47:../Common/IQMath/ti/_IQNtoF.c ****     }
 1859              		.loc 1 47 9 is_stmt 1 view .LVU666
  47:../Common/IQMath/ti/_IQNtoF.c ****     }
 1860              		.loc 1 47 17 is_stmt 0 view .LVU667
 1861 0016 803B     		subs	r3, r3, #128
 1862              	.LVL234:
 1863              	.L195:
  45:../Common/IQMath/ti/_IQNtoF.c ****         uiq31Input <<= 1;
 1864              		.loc 1 45 11 is_stmt 1 view .LVU668
 1865 0018 0028     		cmp	r0, #0
 1866 001a FBDA     		bge	.L196
  51:../Common/IQMath/ti/_IQNtoF.c **** 
 1867              		.loc 1 51 5 view .LVU669
  51:../Common/IQMath/ti/_IQNtoF.c **** 
 1868              		.loc 1 51 31 is_stmt 0 view .LVU670
 1869 001c 8030     		adds	r0, r0, #128
 1870              	.LVL235:
  54:../Common/IQMath/ti/_IQNtoF.c **** 
 1871              		.loc 1 54 5 is_stmt 1 view .LVU671
  54:../Common/IQMath/ti/_IQNtoF.c **** 
 1872              		.loc 1 54 17 is_stmt 0 view .LVU672
 1873 001e C0F31620 		ubfx	r0, r0, #8, #23
ARM GAS  C:\Users\57308\AppData\Local\Temp\cc6zZRsl.s 			page 49


 1874              	.LVL236:
  64:../Common/IQMath/ti/_IQNtoF.c **** 
 1875              		.loc 1 64 5 is_stmt 1 view .LVU673
  67:../Common/IQMath/ti/_IQNtoF.c **** }
 1876              		.loc 1 67 5 view .LVU674
  67:../Common/IQMath/ti/_IQNtoF.c **** }
 1877              		.loc 1 67 12 is_stmt 0 view .LVU675
 1878 0022 00EB0343 		add	r3, r0, r3, lsl #16
 1879              	.LVL237:
  67:../Common/IQMath/ti/_IQNtoF.c **** }
 1880              		.loc 1 67 12 view .LVU676
 1881 0026 00EE103A 		vmov	s0, r3	@ int
 1882 002a 7047     		bx	lr
 1883              	.LVL238:
 1884              	.L197:
  39:../Common/IQMath/ti/_IQNtoF.c ****     } else {
 1885              		.loc 1 39 16 view .LVU677
 1886 002c 9FED010A 		vldr.32	s0, .L199
 1887              	.LVL239:
  39:../Common/IQMath/ti/_IQNtoF.c ****     } else {
 1888              		.loc 1 39 16 view .LVU678
 1889              	.LBE81:
 1890              	.LBE80:
 289:../Common/IQMath/ti/_IQNtoF.c **** }
 1891              		.loc 1 289 1 view .LVU679
 1892 0030 7047     		bx	lr
 1893              	.L200:
 1894 0032 00BF     		.align	2
 1895              	.L199:
 1896 0034 00000000 		.word	0
 1897              		.cfi_endproc
 1898              	.LFE281:
 1900              		.section	.text._IQ10toF,"ax",%progbits
 1901              		.align	1
 1902              		.global	_IQ10toF
 1903              		.syntax unified
 1904              		.thumb
 1905              		.thumb_func
 1907              	_IQ10toF:
 1908              	.LVL240:
 1909              	.LFB282:
 290:../Common/IQMath/ti/_IQNtoF.c **** /**
 291:../Common/IQMath/ti/_IQNtoF.c ****  * @brief Converts input to floating point using IQ10 format.
 292:../Common/IQMath/ti/_IQNtoF.c ****  *
 293:../Common/IQMath/ti/_IQNtoF.c ****  * @param a             IQ10 type value to be converted.
 294:../Common/IQMath/ti/_IQNtoF.c ****  *
 295:../Common/IQMath/ti/_IQNtoF.c ****  * @return              Conversion of input to floating point.
 296:../Common/IQMath/ti/_IQNtoF.c ****  */
 297:../Common/IQMath/ti/_IQNtoF.c **** float _IQ10toF(int32_t a)
 298:../Common/IQMath/ti/_IQNtoF.c **** {
 1910              		.loc 1 298 1 is_stmt 1 view -0
 1911              		.cfi_startproc
 1912              		@ args = 0, pretend = 0, frame = 0
 1913              		@ frame_needed = 0, uses_anonymous_args = 0
 1914              		@ link register save eliminated.
 299:../Common/IQMath/ti/_IQNtoF.c ****     return __IQNtoF(a, 10);
 1915              		.loc 1 299 5 view .LVU681
ARM GAS  C:\Users\57308\AppData\Local\Temp\cc6zZRsl.s 			page 50


 1916              	.LBB84:
 1917              	.LBI84:
  25:../Common/IQMath/ti/_IQNtoF.c **** {
 1918              		.loc 1 25 23 view .LVU682
 1919              	.LBB85:
  27:../Common/IQMath/ti/_IQNtoF.c ****     uint_fast32_t uiq23Result;
 1920              		.loc 1 27 5 view .LVU683
  28:../Common/IQMath/ti/_IQNtoF.c ****     uint_fast32_t uiq31Input;
 1921              		.loc 1 28 5 view .LVU684
  29:../Common/IQMath/ti/_IQNtoF.c **** 
 1922              		.loc 1 29 5 view .LVU685
  32:../Common/IQMath/ti/_IQNtoF.c **** 
 1923              		.loc 1 32 5 view .LVU686
  35:../Common/IQMath/ti/_IQNtoF.c ****         ui16Exp |= 0x8000;
 1924              		.loc 1 35 5 view .LVU687
  35:../Common/IQMath/ti/_IQNtoF.c ****         ui16Exp |= 0x8000;
 1925              		.loc 1 35 8 is_stmt 0 view .LVU688
 1926 0000 0028     		cmp	r0, #0
  35:../Common/IQMath/ti/_IQNtoF.c ****         ui16Exp |= 0x8000;
 1927              		.loc 1 35 8 view .LVU689
 1928 0002 03DB     		blt	.L208
  38:../Common/IQMath/ti/_IQNtoF.c ****         return (0);
 1929              		.loc 1 38 12 is_stmt 1 view .LVU690
  38:../Common/IQMath/ti/_IQNtoF.c ****         return (0);
 1930              		.loc 1 38 15 is_stmt 0 view .LVU691
 1931 0004 90B1     		cbz	r0, .L207
  41:../Common/IQMath/ti/_IQNtoF.c ****     }
 1932              		.loc 1 41 9 is_stmt 1 view .LVU692
 1933              	.LVL241:
  32:../Common/IQMath/ti/_IQNtoF.c **** 
 1934              		.loc 1 32 13 is_stmt 0 view .LVU693
 1935 0006 4FF49443 		mov	r3, #18944
 1936 000a 05E0     		b	.L205
 1937              	.LVL242:
 1938              	.L208:
  36:../Common/IQMath/ti/_IQNtoF.c ****         uiq31Input = -iqNInput;
 1939              		.loc 1 36 9 is_stmt 1 view .LVU694
  37:../Common/IQMath/ti/_IQNtoF.c ****     } else if (iqNInput == 0) {
 1940              		.loc 1 37 9 view .LVU695
  37:../Common/IQMath/ti/_IQNtoF.c ****     } else if (iqNInput == 0) {
 1941              		.loc 1 37 22 is_stmt 0 view .LVU696
 1942 000c 4042     		rsbs	r0, r0, #0
 1943              	.LVL243:
  36:../Common/IQMath/ti/_IQNtoF.c ****         uiq31Input = -iqNInput;
 1944              		.loc 1 36 17 view .LVU697
 1945 000e 4FF44A43 		mov	r3, #51712
 1946 0012 01E0     		b	.L205
 1947              	.LVL244:
 1948              	.L206:
  46:../Common/IQMath/ti/_IQNtoF.c ****         ui16Exp -= 0x0080;
 1949              		.loc 1 46 9 is_stmt 1 view .LVU698
  46:../Common/IQMath/ti/_IQNtoF.c ****         ui16Exp -= 0x0080;
 1950              		.loc 1 46 20 is_stmt 0 view .LVU699
 1951 0014 4000     		lsls	r0, r0, #1
 1952              	.LVL245:
  47:../Common/IQMath/ti/_IQNtoF.c ****     }
 1953              		.loc 1 47 9 is_stmt 1 view .LVU700
ARM GAS  C:\Users\57308\AppData\Local\Temp\cc6zZRsl.s 			page 51


  47:../Common/IQMath/ti/_IQNtoF.c ****     }
 1954              		.loc 1 47 17 is_stmt 0 view .LVU701
 1955 0016 803B     		subs	r3, r3, #128
 1956              	.LVL246:
 1957              	.L205:
  45:../Common/IQMath/ti/_IQNtoF.c ****         uiq31Input <<= 1;
 1958              		.loc 1 45 11 is_stmt 1 view .LVU702
 1959 0018 0028     		cmp	r0, #0
 1960 001a FBDA     		bge	.L206
  51:../Common/IQMath/ti/_IQNtoF.c **** 
 1961              		.loc 1 51 5 view .LVU703
  51:../Common/IQMath/ti/_IQNtoF.c **** 
 1962              		.loc 1 51 31 is_stmt 0 view .LVU704
 1963 001c 8030     		adds	r0, r0, #128
 1964              	.LVL247:
  54:../Common/IQMath/ti/_IQNtoF.c **** 
 1965              		.loc 1 54 5 is_stmt 1 view .LVU705
  54:../Common/IQMath/ti/_IQNtoF.c **** 
 1966              		.loc 1 54 17 is_stmt 0 view .LVU706
 1967 001e C0F31620 		ubfx	r0, r0, #8, #23
 1968              	.LVL248:
  64:../Common/IQMath/ti/_IQNtoF.c **** 
 1969              		.loc 1 64 5 is_stmt 1 view .LVU707
  67:../Common/IQMath/ti/_IQNtoF.c **** }
 1970              		.loc 1 67 5 view .LVU708
  67:../Common/IQMath/ti/_IQNtoF.c **** }
 1971              		.loc 1 67 12 is_stmt 0 view .LVU709
 1972 0022 00EB0343 		add	r3, r0, r3, lsl #16
 1973              	.LVL249:
  67:../Common/IQMath/ti/_IQNtoF.c **** }
 1974              		.loc 1 67 12 view .LVU710
 1975 0026 00EE103A 		vmov	s0, r3	@ int
 1976 002a 7047     		bx	lr
 1977              	.LVL250:
 1978              	.L207:
  39:../Common/IQMath/ti/_IQNtoF.c ****     } else {
 1979              		.loc 1 39 16 view .LVU711
 1980 002c 9FED010A 		vldr.32	s0, .L209
 1981              	.LVL251:
  39:../Common/IQMath/ti/_IQNtoF.c ****     } else {
 1982              		.loc 1 39 16 view .LVU712
 1983              	.LBE85:
 1984              	.LBE84:
 300:../Common/IQMath/ti/_IQNtoF.c **** }
 1985              		.loc 1 300 1 view .LVU713
 1986 0030 7047     		bx	lr
 1987              	.L210:
 1988 0032 00BF     		.align	2
 1989              	.L209:
 1990 0034 00000000 		.word	0
 1991              		.cfi_endproc
 1992              	.LFE282:
 1994              		.section	.text._IQ9toF,"ax",%progbits
 1995              		.align	1
 1996              		.global	_IQ9toF
 1997              		.syntax unified
 1998              		.thumb
ARM GAS  C:\Users\57308\AppData\Local\Temp\cc6zZRsl.s 			page 52


 1999              		.thumb_func
 2001              	_IQ9toF:
 2002              	.LVL252:
 2003              	.LFB283:
 301:../Common/IQMath/ti/_IQNtoF.c **** /**
 302:../Common/IQMath/ti/_IQNtoF.c ****  * @brief Converts input to floating point using IQ9 format.
 303:../Common/IQMath/ti/_IQNtoF.c ****  *
 304:../Common/IQMath/ti/_IQNtoF.c ****  * @param a             IQ9 type value to be converted.
 305:../Common/IQMath/ti/_IQNtoF.c ****  *
 306:../Common/IQMath/ti/_IQNtoF.c ****  * @return              Conversion of input to floating point.
 307:../Common/IQMath/ti/_IQNtoF.c ****  */
 308:../Common/IQMath/ti/_IQNtoF.c **** float _IQ9toF(int32_t a)
 309:../Common/IQMath/ti/_IQNtoF.c **** {
 2004              		.loc 1 309 1 is_stmt 1 view -0
 2005              		.cfi_startproc
 2006              		@ args = 0, pretend = 0, frame = 0
 2007              		@ frame_needed = 0, uses_anonymous_args = 0
 2008              		@ link register save eliminated.
 310:../Common/IQMath/ti/_IQNtoF.c ****     return __IQNtoF(a, 9);
 2009              		.loc 1 310 5 view .LVU715
 2010              	.LBB88:
 2011              	.LBI88:
  25:../Common/IQMath/ti/_IQNtoF.c **** {
 2012              		.loc 1 25 23 view .LVU716
 2013              	.LBB89:
  27:../Common/IQMath/ti/_IQNtoF.c ****     uint_fast32_t uiq23Result;
 2014              		.loc 1 27 5 view .LVU717
  28:../Common/IQMath/ti/_IQNtoF.c ****     uint_fast32_t uiq31Input;
 2015              		.loc 1 28 5 view .LVU718
  29:../Common/IQMath/ti/_IQNtoF.c **** 
 2016              		.loc 1 29 5 view .LVU719
  32:../Common/IQMath/ti/_IQNtoF.c **** 
 2017              		.loc 1 32 5 view .LVU720
  35:../Common/IQMath/ti/_IQNtoF.c ****         ui16Exp |= 0x8000;
 2018              		.loc 1 35 5 view .LVU721
  35:../Common/IQMath/ti/_IQNtoF.c ****         ui16Exp |= 0x8000;
 2019              		.loc 1 35 8 is_stmt 0 view .LVU722
 2020 0000 0028     		cmp	r0, #0
  35:../Common/IQMath/ti/_IQNtoF.c ****         ui16Exp |= 0x8000;
 2021              		.loc 1 35 8 view .LVU723
 2022 0002 03DB     		blt	.L218
  38:../Common/IQMath/ti/_IQNtoF.c ****         return (0);
 2023              		.loc 1 38 12 is_stmt 1 view .LVU724
  38:../Common/IQMath/ti/_IQNtoF.c ****         return (0);
 2024              		.loc 1 38 15 is_stmt 0 view .LVU725
 2025 0004 90B1     		cbz	r0, .L217
  41:../Common/IQMath/ti/_IQNtoF.c ****     }
 2026              		.loc 1 41 9 is_stmt 1 view .LVU726
 2027              	.LVL253:
  32:../Common/IQMath/ti/_IQNtoF.c **** 
 2028              		.loc 1 32 13 is_stmt 0 view .LVU727
 2029 0006 4FF49543 		mov	r3, #19072
 2030 000a 05E0     		b	.L215
 2031              	.LVL254:
 2032              	.L218:
  36:../Common/IQMath/ti/_IQNtoF.c ****         uiq31Input = -iqNInput;
 2033              		.loc 1 36 9 is_stmt 1 view .LVU728
ARM GAS  C:\Users\57308\AppData\Local\Temp\cc6zZRsl.s 			page 53


  37:../Common/IQMath/ti/_IQNtoF.c ****     } else if (iqNInput == 0) {
 2034              		.loc 1 37 9 view .LVU729
  37:../Common/IQMath/ti/_IQNtoF.c ****     } else if (iqNInput == 0) {
 2035              		.loc 1 37 22 is_stmt 0 view .LVU730
 2036 000c 4042     		rsbs	r0, r0, #0
 2037              	.LVL255:
  36:../Common/IQMath/ti/_IQNtoF.c ****         uiq31Input = -iqNInput;
 2038              		.loc 1 36 17 view .LVU731
 2039 000e 4CF68023 		movw	r3, #51840
 2040 0012 01E0     		b	.L215
 2041              	.LVL256:
 2042              	.L216:
  46:../Common/IQMath/ti/_IQNtoF.c ****         ui16Exp -= 0x0080;
 2043              		.loc 1 46 9 is_stmt 1 view .LVU732
  46:../Common/IQMath/ti/_IQNtoF.c ****         ui16Exp -= 0x0080;
 2044              		.loc 1 46 20 is_stmt 0 view .LVU733
 2045 0014 4000     		lsls	r0, r0, #1
 2046              	.LVL257:
  47:../Common/IQMath/ti/_IQNtoF.c ****     }
 2047              		.loc 1 47 9 is_stmt 1 view .LVU734
  47:../Common/IQMath/ti/_IQNtoF.c ****     }
 2048              		.loc 1 47 17 is_stmt 0 view .LVU735
 2049 0016 803B     		subs	r3, r3, #128
 2050              	.LVL258:
 2051              	.L215:
  45:../Common/IQMath/ti/_IQNtoF.c ****         uiq31Input <<= 1;
 2052              		.loc 1 45 11 is_stmt 1 view .LVU736
 2053 0018 0028     		cmp	r0, #0
 2054 001a FBDA     		bge	.L216
  51:../Common/IQMath/ti/_IQNtoF.c **** 
 2055              		.loc 1 51 5 view .LVU737
  51:../Common/IQMath/ti/_IQNtoF.c **** 
 2056              		.loc 1 51 31 is_stmt 0 view .LVU738
 2057 001c 8030     		adds	r0, r0, #128
 2058              	.LVL259:
  54:../Common/IQMath/ti/_IQNtoF.c **** 
 2059              		.loc 1 54 5 is_stmt 1 view .LVU739
  54:../Common/IQMath/ti/_IQNtoF.c **** 
 2060              		.loc 1 54 17 is_stmt 0 view .LVU740
 2061 001e C0F31620 		ubfx	r0, r0, #8, #23
 2062              	.LVL260:
  64:../Common/IQMath/ti/_IQNtoF.c **** 
 2063              		.loc 1 64 5 is_stmt 1 view .LVU741
  67:../Common/IQMath/ti/_IQNtoF.c **** }
 2064              		.loc 1 67 5 view .LVU742
  67:../Common/IQMath/ti/_IQNtoF.c **** }
 2065              		.loc 1 67 12 is_stmt 0 view .LVU743
 2066 0022 00EB0343 		add	r3, r0, r3, lsl #16
 2067              	.LVL261:
  67:../Common/IQMath/ti/_IQNtoF.c **** }
 2068              		.loc 1 67 12 view .LVU744
 2069 0026 00EE103A 		vmov	s0, r3	@ int
 2070 002a 7047     		bx	lr
 2071              	.LVL262:
 2072              	.L217:
  39:../Common/IQMath/ti/_IQNtoF.c ****     } else {
 2073              		.loc 1 39 16 view .LVU745
ARM GAS  C:\Users\57308\AppData\Local\Temp\cc6zZRsl.s 			page 54


 2074 002c 9FED010A 		vldr.32	s0, .L219
 2075              	.LVL263:
  39:../Common/IQMath/ti/_IQNtoF.c ****     } else {
 2076              		.loc 1 39 16 view .LVU746
 2077              	.LBE89:
 2078              	.LBE88:
 311:../Common/IQMath/ti/_IQNtoF.c **** }
 2079              		.loc 1 311 1 view .LVU747
 2080 0030 7047     		bx	lr
 2081              	.L220:
 2082 0032 00BF     		.align	2
 2083              	.L219:
 2084 0034 00000000 		.word	0
 2085              		.cfi_endproc
 2086              	.LFE283:
 2088              		.section	.text._IQ8toF,"ax",%progbits
 2089              		.align	1
 2090              		.global	_IQ8toF
 2091              		.syntax unified
 2092              		.thumb
 2093              		.thumb_func
 2095              	_IQ8toF:
 2096              	.LVL264:
 2097              	.LFB284:
 312:../Common/IQMath/ti/_IQNtoF.c **** /**
 313:../Common/IQMath/ti/_IQNtoF.c ****  * @brief Converts input to floating point using IQ8 format.
 314:../Common/IQMath/ti/_IQNtoF.c ****  *
 315:../Common/IQMath/ti/_IQNtoF.c ****  * @param a             IQ8 type value to be converted.
 316:../Common/IQMath/ti/_IQNtoF.c ****  *
 317:../Common/IQMath/ti/_IQNtoF.c ****  * @return              Conversion of input to floating point.
 318:../Common/IQMath/ti/_IQNtoF.c ****  */
 319:../Common/IQMath/ti/_IQNtoF.c **** float _IQ8toF(int32_t a)
 320:../Common/IQMath/ti/_IQNtoF.c **** {
 2098              		.loc 1 320 1 is_stmt 1 view -0
 2099              		.cfi_startproc
 2100              		@ args = 0, pretend = 0, frame = 0
 2101              		@ frame_needed = 0, uses_anonymous_args = 0
 2102              		@ link register save eliminated.
 321:../Common/IQMath/ti/_IQNtoF.c ****     return __IQNtoF(a, 8);
 2103              		.loc 1 321 5 view .LVU749
 2104              	.LBB92:
 2105              	.LBI92:
  25:../Common/IQMath/ti/_IQNtoF.c **** {
 2106              		.loc 1 25 23 view .LVU750
 2107              	.LBB93:
  27:../Common/IQMath/ti/_IQNtoF.c ****     uint_fast32_t uiq23Result;
 2108              		.loc 1 27 5 view .LVU751
  28:../Common/IQMath/ti/_IQNtoF.c ****     uint_fast32_t uiq31Input;
 2109              		.loc 1 28 5 view .LVU752
  29:../Common/IQMath/ti/_IQNtoF.c **** 
 2110              		.loc 1 29 5 view .LVU753
  32:../Common/IQMath/ti/_IQNtoF.c **** 
 2111              		.loc 1 32 5 view .LVU754
  35:../Common/IQMath/ti/_IQNtoF.c ****         ui16Exp |= 0x8000;
 2112              		.loc 1 35 5 view .LVU755
  35:../Common/IQMath/ti/_IQNtoF.c ****         ui16Exp |= 0x8000;
 2113              		.loc 1 35 8 is_stmt 0 view .LVU756
ARM GAS  C:\Users\57308\AppData\Local\Temp\cc6zZRsl.s 			page 55


 2114 0000 0028     		cmp	r0, #0
  35:../Common/IQMath/ti/_IQNtoF.c ****         ui16Exp |= 0x8000;
 2115              		.loc 1 35 8 view .LVU757
 2116 0002 03DB     		blt	.L228
  38:../Common/IQMath/ti/_IQNtoF.c ****         return (0);
 2117              		.loc 1 38 12 is_stmt 1 view .LVU758
  38:../Common/IQMath/ti/_IQNtoF.c ****         return (0);
 2118              		.loc 1 38 15 is_stmt 0 view .LVU759
 2119 0004 90B1     		cbz	r0, .L227
  41:../Common/IQMath/ti/_IQNtoF.c ****     }
 2120              		.loc 1 41 9 is_stmt 1 view .LVU760
 2121              	.LVL265:
  32:../Common/IQMath/ti/_IQNtoF.c **** 
 2122              		.loc 1 32 13 is_stmt 0 view .LVU761
 2123 0006 4FF49643 		mov	r3, #19200
 2124 000a 05E0     		b	.L225
 2125              	.LVL266:
 2126              	.L228:
  36:../Common/IQMath/ti/_IQNtoF.c ****         uiq31Input = -iqNInput;
 2127              		.loc 1 36 9 is_stmt 1 view .LVU762
  37:../Common/IQMath/ti/_IQNtoF.c ****     } else if (iqNInput == 0) {
 2128              		.loc 1 37 9 view .LVU763
  37:../Common/IQMath/ti/_IQNtoF.c ****     } else if (iqNInput == 0) {
 2129              		.loc 1 37 22 is_stmt 0 view .LVU764
 2130 000c 4042     		rsbs	r0, r0, #0
 2131              	.LVL267:
  36:../Common/IQMath/ti/_IQNtoF.c ****         uiq31Input = -iqNInput;
 2132              		.loc 1 36 17 view .LVU765
 2133 000e 4FF44B43 		mov	r3, #51968
 2134 0012 01E0     		b	.L225
 2135              	.LVL268:
 2136              	.L226:
  46:../Common/IQMath/ti/_IQNtoF.c ****         ui16Exp -= 0x0080;
 2137              		.loc 1 46 9 is_stmt 1 view .LVU766
  46:../Common/IQMath/ti/_IQNtoF.c ****         ui16Exp -= 0x0080;
 2138              		.loc 1 46 20 is_stmt 0 view .LVU767
 2139 0014 4000     		lsls	r0, r0, #1
 2140              	.LVL269:
  47:../Common/IQMath/ti/_IQNtoF.c ****     }
 2141              		.loc 1 47 9 is_stmt 1 view .LVU768
  47:../Common/IQMath/ti/_IQNtoF.c ****     }
 2142              		.loc 1 47 17 is_stmt 0 view .LVU769
 2143 0016 803B     		subs	r3, r3, #128
 2144              	.LVL270:
 2145              	.L225:
  45:../Common/IQMath/ti/_IQNtoF.c ****         uiq31Input <<= 1;
 2146              		.loc 1 45 11 is_stmt 1 view .LVU770
 2147 0018 0028     		cmp	r0, #0
 2148 001a FBDA     		bge	.L226
  51:../Common/IQMath/ti/_IQNtoF.c **** 
 2149              		.loc 1 51 5 view .LVU771
  51:../Common/IQMath/ti/_IQNtoF.c **** 
 2150              		.loc 1 51 31 is_stmt 0 view .LVU772
 2151 001c 8030     		adds	r0, r0, #128
 2152              	.LVL271:
  54:../Common/IQMath/ti/_IQNtoF.c **** 
 2153              		.loc 1 54 5 is_stmt 1 view .LVU773
ARM GAS  C:\Users\57308\AppData\Local\Temp\cc6zZRsl.s 			page 56


  54:../Common/IQMath/ti/_IQNtoF.c **** 
 2154              		.loc 1 54 17 is_stmt 0 view .LVU774
 2155 001e C0F31620 		ubfx	r0, r0, #8, #23
 2156              	.LVL272:
  64:../Common/IQMath/ti/_IQNtoF.c **** 
 2157              		.loc 1 64 5 is_stmt 1 view .LVU775
  67:../Common/IQMath/ti/_IQNtoF.c **** }
 2158              		.loc 1 67 5 view .LVU776
  67:../Common/IQMath/ti/_IQNtoF.c **** }
 2159              		.loc 1 67 12 is_stmt 0 view .LVU777
 2160 0022 00EB0343 		add	r3, r0, r3, lsl #16
 2161              	.LVL273:
  67:../Common/IQMath/ti/_IQNtoF.c **** }
 2162              		.loc 1 67 12 view .LVU778
 2163 0026 00EE103A 		vmov	s0, r3	@ int
 2164 002a 7047     		bx	lr
 2165              	.LVL274:
 2166              	.L227:
  39:../Common/IQMath/ti/_IQNtoF.c ****     } else {
 2167              		.loc 1 39 16 view .LVU779
 2168 002c 9FED010A 		vldr.32	s0, .L229
 2169              	.LVL275:
  39:../Common/IQMath/ti/_IQNtoF.c ****     } else {
 2170              		.loc 1 39 16 view .LVU780
 2171              	.LBE93:
 2172              	.LBE92:
 322:../Common/IQMath/ti/_IQNtoF.c **** }
 2173              		.loc 1 322 1 view .LVU781
 2174 0030 7047     		bx	lr
 2175              	.L230:
 2176 0032 00BF     		.align	2
 2177              	.L229:
 2178 0034 00000000 		.word	0
 2179              		.cfi_endproc
 2180              	.LFE284:
 2182              		.section	.text._IQ7toF,"ax",%progbits
 2183              		.align	1
 2184              		.global	_IQ7toF
 2185              		.syntax unified
 2186              		.thumb
 2187              		.thumb_func
 2189              	_IQ7toF:
 2190              	.LVL276:
 2191              	.LFB285:
 323:../Common/IQMath/ti/_IQNtoF.c **** /**
 324:../Common/IQMath/ti/_IQNtoF.c ****  * @brief Converts input to floating point using IQ7 format.
 325:../Common/IQMath/ti/_IQNtoF.c ****  *
 326:../Common/IQMath/ti/_IQNtoF.c ****  * @param a             IQ7 type value to be converted.
 327:../Common/IQMath/ti/_IQNtoF.c ****  *
 328:../Common/IQMath/ti/_IQNtoF.c ****  * @return              Conversion of input to floating point.
 329:../Common/IQMath/ti/_IQNtoF.c ****  */
 330:../Common/IQMath/ti/_IQNtoF.c **** float _IQ7toF(int32_t a)
 331:../Common/IQMath/ti/_IQNtoF.c **** {
 2192              		.loc 1 331 1 is_stmt 1 view -0
 2193              		.cfi_startproc
 2194              		@ args = 0, pretend = 0, frame = 0
 2195              		@ frame_needed = 0, uses_anonymous_args = 0
ARM GAS  C:\Users\57308\AppData\Local\Temp\cc6zZRsl.s 			page 57


 2196              		@ link register save eliminated.
 332:../Common/IQMath/ti/_IQNtoF.c ****     return __IQNtoF(a, 7);
 2197              		.loc 1 332 5 view .LVU783
 2198              	.LBB96:
 2199              	.LBI96:
  25:../Common/IQMath/ti/_IQNtoF.c **** {
 2200              		.loc 1 25 23 view .LVU784
 2201              	.LBB97:
  27:../Common/IQMath/ti/_IQNtoF.c ****     uint_fast32_t uiq23Result;
 2202              		.loc 1 27 5 view .LVU785
  28:../Common/IQMath/ti/_IQNtoF.c ****     uint_fast32_t uiq31Input;
 2203              		.loc 1 28 5 view .LVU786
  29:../Common/IQMath/ti/_IQNtoF.c **** 
 2204              		.loc 1 29 5 view .LVU787
  32:../Common/IQMath/ti/_IQNtoF.c **** 
 2205              		.loc 1 32 5 view .LVU788
  35:../Common/IQMath/ti/_IQNtoF.c ****         ui16Exp |= 0x8000;
 2206              		.loc 1 35 5 view .LVU789
  35:../Common/IQMath/ti/_IQNtoF.c ****         ui16Exp |= 0x8000;
 2207              		.loc 1 35 8 is_stmt 0 view .LVU790
 2208 0000 0028     		cmp	r0, #0
  35:../Common/IQMath/ti/_IQNtoF.c ****         ui16Exp |= 0x8000;
 2209              		.loc 1 35 8 view .LVU791
 2210 0002 03DB     		blt	.L238
  38:../Common/IQMath/ti/_IQNtoF.c ****         return (0);
 2211              		.loc 1 38 12 is_stmt 1 view .LVU792
  38:../Common/IQMath/ti/_IQNtoF.c ****         return (0);
 2212              		.loc 1 38 15 is_stmt 0 view .LVU793
 2213 0004 90B1     		cbz	r0, .L237
  41:../Common/IQMath/ti/_IQNtoF.c ****     }
 2214              		.loc 1 41 9 is_stmt 1 view .LVU794
 2215              	.LVL277:
  32:../Common/IQMath/ti/_IQNtoF.c **** 
 2216              		.loc 1 32 13 is_stmt 0 view .LVU795
 2217 0006 4FF49743 		mov	r3, #19328
 2218 000a 05E0     		b	.L235
 2219              	.LVL278:
 2220              	.L238:
  36:../Common/IQMath/ti/_IQNtoF.c ****         uiq31Input = -iqNInput;
 2221              		.loc 1 36 9 is_stmt 1 view .LVU796
  37:../Common/IQMath/ti/_IQNtoF.c ****     } else if (iqNInput == 0) {
 2222              		.loc 1 37 9 view .LVU797
  37:../Common/IQMath/ti/_IQNtoF.c ****     } else if (iqNInput == 0) {
 2223              		.loc 1 37 22 is_stmt 0 view .LVU798
 2224 000c 4042     		rsbs	r0, r0, #0
 2225              	.LVL279:
  36:../Common/IQMath/ti/_IQNtoF.c ****         uiq31Input = -iqNInput;
 2226              		.loc 1 36 17 view .LVU799
 2227 000e 4CF68033 		movw	r3, #52096
 2228 0012 01E0     		b	.L235
 2229              	.LVL280:
 2230              	.L236:
  46:../Common/IQMath/ti/_IQNtoF.c ****         ui16Exp -= 0x0080;
 2231              		.loc 1 46 9 is_stmt 1 view .LVU800
  46:../Common/IQMath/ti/_IQNtoF.c ****         ui16Exp -= 0x0080;
 2232              		.loc 1 46 20 is_stmt 0 view .LVU801
 2233 0014 4000     		lsls	r0, r0, #1
ARM GAS  C:\Users\57308\AppData\Local\Temp\cc6zZRsl.s 			page 58


 2234              	.LVL281:
  47:../Common/IQMath/ti/_IQNtoF.c ****     }
 2235              		.loc 1 47 9 is_stmt 1 view .LVU802
  47:../Common/IQMath/ti/_IQNtoF.c ****     }
 2236              		.loc 1 47 17 is_stmt 0 view .LVU803
 2237 0016 803B     		subs	r3, r3, #128
 2238              	.LVL282:
 2239              	.L235:
  45:../Common/IQMath/ti/_IQNtoF.c ****         uiq31Input <<= 1;
 2240              		.loc 1 45 11 is_stmt 1 view .LVU804
 2241 0018 0028     		cmp	r0, #0
 2242 001a FBDA     		bge	.L236
  51:../Common/IQMath/ti/_IQNtoF.c **** 
 2243              		.loc 1 51 5 view .LVU805
  51:../Common/IQMath/ti/_IQNtoF.c **** 
 2244              		.loc 1 51 31 is_stmt 0 view .LVU806
 2245 001c 8030     		adds	r0, r0, #128
 2246              	.LVL283:
  54:../Common/IQMath/ti/_IQNtoF.c **** 
 2247              		.loc 1 54 5 is_stmt 1 view .LVU807
  54:../Common/IQMath/ti/_IQNtoF.c **** 
 2248              		.loc 1 54 17 is_stmt 0 view .LVU808
 2249 001e C0F31620 		ubfx	r0, r0, #8, #23
 2250              	.LVL284:
  64:../Common/IQMath/ti/_IQNtoF.c **** 
 2251              		.loc 1 64 5 is_stmt 1 view .LVU809
  67:../Common/IQMath/ti/_IQNtoF.c **** }
 2252              		.loc 1 67 5 view .LVU810
  67:../Common/IQMath/ti/_IQNtoF.c **** }
 2253              		.loc 1 67 12 is_stmt 0 view .LVU811
 2254 0022 00EB0343 		add	r3, r0, r3, lsl #16
 2255              	.LVL285:
  67:../Common/IQMath/ti/_IQNtoF.c **** }
 2256              		.loc 1 67 12 view .LVU812
 2257 0026 00EE103A 		vmov	s0, r3	@ int
 2258 002a 7047     		bx	lr
 2259              	.LVL286:
 2260              	.L237:
  39:../Common/IQMath/ti/_IQNtoF.c ****     } else {
 2261              		.loc 1 39 16 view .LVU813
 2262 002c 9FED010A 		vldr.32	s0, .L239
 2263              	.LVL287:
  39:../Common/IQMath/ti/_IQNtoF.c ****     } else {
 2264              		.loc 1 39 16 view .LVU814
 2265              	.LBE97:
 2266              	.LBE96:
 333:../Common/IQMath/ti/_IQNtoF.c **** }
 2267              		.loc 1 333 1 view .LVU815
 2268 0030 7047     		bx	lr
 2269              	.L240:
 2270 0032 00BF     		.align	2
 2271              	.L239:
 2272 0034 00000000 		.word	0
 2273              		.cfi_endproc
 2274              	.LFE285:
 2276              		.section	.text._IQ6toF,"ax",%progbits
 2277              		.align	1
ARM GAS  C:\Users\57308\AppData\Local\Temp\cc6zZRsl.s 			page 59


 2278              		.global	_IQ6toF
 2279              		.syntax unified
 2280              		.thumb
 2281              		.thumb_func
 2283              	_IQ6toF:
 2284              	.LVL288:
 2285              	.LFB286:
 334:../Common/IQMath/ti/_IQNtoF.c **** /**
 335:../Common/IQMath/ti/_IQNtoF.c ****  * @brief Converts input to floating point using IQ6 format.
 336:../Common/IQMath/ti/_IQNtoF.c ****  *
 337:../Common/IQMath/ti/_IQNtoF.c ****  * @param a             IQ6 type value to be converted.
 338:../Common/IQMath/ti/_IQNtoF.c ****  *
 339:../Common/IQMath/ti/_IQNtoF.c ****  * @return              Conversion of input to floating point.
 340:../Common/IQMath/ti/_IQNtoF.c ****  */
 341:../Common/IQMath/ti/_IQNtoF.c **** float _IQ6toF(int32_t a)
 342:../Common/IQMath/ti/_IQNtoF.c **** {
 2286              		.loc 1 342 1 is_stmt 1 view -0
 2287              		.cfi_startproc
 2288              		@ args = 0, pretend = 0, frame = 0
 2289              		@ frame_needed = 0, uses_anonymous_args = 0
 2290              		@ link register save eliminated.
 343:../Common/IQMath/ti/_IQNtoF.c ****     return __IQNtoF(a, 6);
 2291              		.loc 1 343 5 view .LVU817
 2292              	.LBB100:
 2293              	.LBI100:
  25:../Common/IQMath/ti/_IQNtoF.c **** {
 2294              		.loc 1 25 23 view .LVU818
 2295              	.LBB101:
  27:../Common/IQMath/ti/_IQNtoF.c ****     uint_fast32_t uiq23Result;
 2296              		.loc 1 27 5 view .LVU819
  28:../Common/IQMath/ti/_IQNtoF.c ****     uint_fast32_t uiq31Input;
 2297              		.loc 1 28 5 view .LVU820
  29:../Common/IQMath/ti/_IQNtoF.c **** 
 2298              		.loc 1 29 5 view .LVU821
  32:../Common/IQMath/ti/_IQNtoF.c **** 
 2299              		.loc 1 32 5 view .LVU822
  35:../Common/IQMath/ti/_IQNtoF.c ****         ui16Exp |= 0x8000;
 2300              		.loc 1 35 5 view .LVU823
  35:../Common/IQMath/ti/_IQNtoF.c ****         ui16Exp |= 0x8000;
 2301              		.loc 1 35 8 is_stmt 0 view .LVU824
 2302 0000 0028     		cmp	r0, #0
  35:../Common/IQMath/ti/_IQNtoF.c ****         ui16Exp |= 0x8000;
 2303              		.loc 1 35 8 view .LVU825
 2304 0002 03DB     		blt	.L248
  38:../Common/IQMath/ti/_IQNtoF.c ****         return (0);
 2305              		.loc 1 38 12 is_stmt 1 view .LVU826
  38:../Common/IQMath/ti/_IQNtoF.c ****         return (0);
 2306              		.loc 1 38 15 is_stmt 0 view .LVU827
 2307 0004 90B1     		cbz	r0, .L247
  41:../Common/IQMath/ti/_IQNtoF.c ****     }
 2308              		.loc 1 41 9 is_stmt 1 view .LVU828
 2309              	.LVL289:
  32:../Common/IQMath/ti/_IQNtoF.c **** 
 2310              		.loc 1 32 13 is_stmt 0 view .LVU829
 2311 0006 4FF49843 		mov	r3, #19456
 2312 000a 05E0     		b	.L245
 2313              	.LVL290:
ARM GAS  C:\Users\57308\AppData\Local\Temp\cc6zZRsl.s 			page 60


 2314              	.L248:
  36:../Common/IQMath/ti/_IQNtoF.c ****         uiq31Input = -iqNInput;
 2315              		.loc 1 36 9 is_stmt 1 view .LVU830
  37:../Common/IQMath/ti/_IQNtoF.c ****     } else if (iqNInput == 0) {
 2316              		.loc 1 37 9 view .LVU831
  37:../Common/IQMath/ti/_IQNtoF.c ****     } else if (iqNInput == 0) {
 2317              		.loc 1 37 22 is_stmt 0 view .LVU832
 2318 000c 4042     		rsbs	r0, r0, #0
 2319              	.LVL291:
  36:../Common/IQMath/ti/_IQNtoF.c ****         uiq31Input = -iqNInput;
 2320              		.loc 1 36 17 view .LVU833
 2321 000e 4FF44C43 		mov	r3, #52224
 2322 0012 01E0     		b	.L245
 2323              	.LVL292:
 2324              	.L246:
  46:../Common/IQMath/ti/_IQNtoF.c ****         ui16Exp -= 0x0080;
 2325              		.loc 1 46 9 is_stmt 1 view .LVU834
  46:../Common/IQMath/ti/_IQNtoF.c ****         ui16Exp -= 0x0080;
 2326              		.loc 1 46 20 is_stmt 0 view .LVU835
 2327 0014 4000     		lsls	r0, r0, #1
 2328              	.LVL293:
  47:../Common/IQMath/ti/_IQNtoF.c ****     }
 2329              		.loc 1 47 9 is_stmt 1 view .LVU836
  47:../Common/IQMath/ti/_IQNtoF.c ****     }
 2330              		.loc 1 47 17 is_stmt 0 view .LVU837
 2331 0016 803B     		subs	r3, r3, #128
 2332              	.LVL294:
 2333              	.L245:
  45:../Common/IQMath/ti/_IQNtoF.c ****         uiq31Input <<= 1;
 2334              		.loc 1 45 11 is_stmt 1 view .LVU838
 2335 0018 0028     		cmp	r0, #0
 2336 001a FBDA     		bge	.L246
  51:../Common/IQMath/ti/_IQNtoF.c **** 
 2337              		.loc 1 51 5 view .LVU839
  51:../Common/IQMath/ti/_IQNtoF.c **** 
 2338              		.loc 1 51 31 is_stmt 0 view .LVU840
 2339 001c 8030     		adds	r0, r0, #128
 2340              	.LVL295:
  54:../Common/IQMath/ti/_IQNtoF.c **** 
 2341              		.loc 1 54 5 is_stmt 1 view .LVU841
  54:../Common/IQMath/ti/_IQNtoF.c **** 
 2342              		.loc 1 54 17 is_stmt 0 view .LVU842
 2343 001e C0F31620 		ubfx	r0, r0, #8, #23
 2344              	.LVL296:
  64:../Common/IQMath/ti/_IQNtoF.c **** 
 2345              		.loc 1 64 5 is_stmt 1 view .LVU843
  67:../Common/IQMath/ti/_IQNtoF.c **** }
 2346              		.loc 1 67 5 view .LVU844
  67:../Common/IQMath/ti/_IQNtoF.c **** }
 2347              		.loc 1 67 12 is_stmt 0 view .LVU845
 2348 0022 00EB0343 		add	r3, r0, r3, lsl #16
 2349              	.LVL297:
  67:../Common/IQMath/ti/_IQNtoF.c **** }
 2350              		.loc 1 67 12 view .LVU846
 2351 0026 00EE103A 		vmov	s0, r3	@ int
 2352 002a 7047     		bx	lr
 2353              	.LVL298:
ARM GAS  C:\Users\57308\AppData\Local\Temp\cc6zZRsl.s 			page 61


 2354              	.L247:
  39:../Common/IQMath/ti/_IQNtoF.c ****     } else {
 2355              		.loc 1 39 16 view .LVU847
 2356 002c 9FED010A 		vldr.32	s0, .L249
 2357              	.LVL299:
  39:../Common/IQMath/ti/_IQNtoF.c ****     } else {
 2358              		.loc 1 39 16 view .LVU848
 2359              	.LBE101:
 2360              	.LBE100:
 344:../Common/IQMath/ti/_IQNtoF.c **** }
 2361              		.loc 1 344 1 view .LVU849
 2362 0030 7047     		bx	lr
 2363              	.L250:
 2364 0032 00BF     		.align	2
 2365              	.L249:
 2366 0034 00000000 		.word	0
 2367              		.cfi_endproc
 2368              	.LFE286:
 2370              		.section	.text._IQ5toF,"ax",%progbits
 2371              		.align	1
 2372              		.global	_IQ5toF
 2373              		.syntax unified
 2374              		.thumb
 2375              		.thumb_func
 2377              	_IQ5toF:
 2378              	.LVL300:
 2379              	.LFB287:
 345:../Common/IQMath/ti/_IQNtoF.c **** /**
 346:../Common/IQMath/ti/_IQNtoF.c ****  * @brief Converts input to floating point using IQ5 format.
 347:../Common/IQMath/ti/_IQNtoF.c ****  *
 348:../Common/IQMath/ti/_IQNtoF.c ****  * @param a             IQ5 type value to be converted.
 349:../Common/IQMath/ti/_IQNtoF.c ****  *
 350:../Common/IQMath/ti/_IQNtoF.c ****  * @return              Conversion of input to floating point.
 351:../Common/IQMath/ti/_IQNtoF.c ****  */
 352:../Common/IQMath/ti/_IQNtoF.c **** float _IQ5toF(int32_t a)
 353:../Common/IQMath/ti/_IQNtoF.c **** {
 2380              		.loc 1 353 1 is_stmt 1 view -0
 2381              		.cfi_startproc
 2382              		@ args = 0, pretend = 0, frame = 0
 2383              		@ frame_needed = 0, uses_anonymous_args = 0
 2384              		@ link register save eliminated.
 354:../Common/IQMath/ti/_IQNtoF.c ****     return __IQNtoF(a, 5);
 2385              		.loc 1 354 5 view .LVU851
 2386              	.LBB104:
 2387              	.LBI104:
  25:../Common/IQMath/ti/_IQNtoF.c **** {
 2388              		.loc 1 25 23 view .LVU852
 2389              	.LBB105:
  27:../Common/IQMath/ti/_IQNtoF.c ****     uint_fast32_t uiq23Result;
 2390              		.loc 1 27 5 view .LVU853
  28:../Common/IQMath/ti/_IQNtoF.c ****     uint_fast32_t uiq31Input;
 2391              		.loc 1 28 5 view .LVU854
  29:../Common/IQMath/ti/_IQNtoF.c **** 
 2392              		.loc 1 29 5 view .LVU855
  32:../Common/IQMath/ti/_IQNtoF.c **** 
 2393              		.loc 1 32 5 view .LVU856
  35:../Common/IQMath/ti/_IQNtoF.c ****         ui16Exp |= 0x8000;
ARM GAS  C:\Users\57308\AppData\Local\Temp\cc6zZRsl.s 			page 62


 2394              		.loc 1 35 5 view .LVU857
  35:../Common/IQMath/ti/_IQNtoF.c ****         ui16Exp |= 0x8000;
 2395              		.loc 1 35 8 is_stmt 0 view .LVU858
 2396 0000 0028     		cmp	r0, #0
  35:../Common/IQMath/ti/_IQNtoF.c ****         ui16Exp |= 0x8000;
 2397              		.loc 1 35 8 view .LVU859
 2398 0002 03DB     		blt	.L258
  38:../Common/IQMath/ti/_IQNtoF.c ****         return (0);
 2399              		.loc 1 38 12 is_stmt 1 view .LVU860
  38:../Common/IQMath/ti/_IQNtoF.c ****         return (0);
 2400              		.loc 1 38 15 is_stmt 0 view .LVU861
 2401 0004 90B1     		cbz	r0, .L257
  41:../Common/IQMath/ti/_IQNtoF.c ****     }
 2402              		.loc 1 41 9 is_stmt 1 view .LVU862
 2403              	.LVL301:
  32:../Common/IQMath/ti/_IQNtoF.c **** 
 2404              		.loc 1 32 13 is_stmt 0 view .LVU863
 2405 0006 4FF49943 		mov	r3, #19584
 2406 000a 05E0     		b	.L255
 2407              	.LVL302:
 2408              	.L258:
  36:../Common/IQMath/ti/_IQNtoF.c ****         uiq31Input = -iqNInput;
 2409              		.loc 1 36 9 is_stmt 1 view .LVU864
  37:../Common/IQMath/ti/_IQNtoF.c ****     } else if (iqNInput == 0) {
 2410              		.loc 1 37 9 view .LVU865
  37:../Common/IQMath/ti/_IQNtoF.c ****     } else if (iqNInput == 0) {
 2411              		.loc 1 37 22 is_stmt 0 view .LVU866
 2412 000c 4042     		rsbs	r0, r0, #0
 2413              	.LVL303:
  36:../Common/IQMath/ti/_IQNtoF.c ****         uiq31Input = -iqNInput;
 2414              		.loc 1 36 17 view .LVU867
 2415 000e 4CF68043 		movw	r3, #52352
 2416 0012 01E0     		b	.L255
 2417              	.LVL304:
 2418              	.L256:
  46:../Common/IQMath/ti/_IQNtoF.c ****         ui16Exp -= 0x0080;
 2419              		.loc 1 46 9 is_stmt 1 view .LVU868
  46:../Common/IQMath/ti/_IQNtoF.c ****         ui16Exp -= 0x0080;
 2420              		.loc 1 46 20 is_stmt 0 view .LVU869
 2421 0014 4000     		lsls	r0, r0, #1
 2422              	.LVL305:
  47:../Common/IQMath/ti/_IQNtoF.c ****     }
 2423              		.loc 1 47 9 is_stmt 1 view .LVU870
  47:../Common/IQMath/ti/_IQNtoF.c ****     }
 2424              		.loc 1 47 17 is_stmt 0 view .LVU871
 2425 0016 803B     		subs	r3, r3, #128
 2426              	.LVL306:
 2427              	.L255:
  45:../Common/IQMath/ti/_IQNtoF.c ****         uiq31Input <<= 1;
 2428              		.loc 1 45 11 is_stmt 1 view .LVU872
 2429 0018 0028     		cmp	r0, #0
 2430 001a FBDA     		bge	.L256
  51:../Common/IQMath/ti/_IQNtoF.c **** 
 2431              		.loc 1 51 5 view .LVU873
  51:../Common/IQMath/ti/_IQNtoF.c **** 
 2432              		.loc 1 51 31 is_stmt 0 view .LVU874
 2433 001c 8030     		adds	r0, r0, #128
ARM GAS  C:\Users\57308\AppData\Local\Temp\cc6zZRsl.s 			page 63


 2434              	.LVL307:
  54:../Common/IQMath/ti/_IQNtoF.c **** 
 2435              		.loc 1 54 5 is_stmt 1 view .LVU875
  54:../Common/IQMath/ti/_IQNtoF.c **** 
 2436              		.loc 1 54 17 is_stmt 0 view .LVU876
 2437 001e C0F31620 		ubfx	r0, r0, #8, #23
 2438              	.LVL308:
  64:../Common/IQMath/ti/_IQNtoF.c **** 
 2439              		.loc 1 64 5 is_stmt 1 view .LVU877
  67:../Common/IQMath/ti/_IQNtoF.c **** }
 2440              		.loc 1 67 5 view .LVU878
  67:../Common/IQMath/ti/_IQNtoF.c **** }
 2441              		.loc 1 67 12 is_stmt 0 view .LVU879
 2442 0022 00EB0343 		add	r3, r0, r3, lsl #16
 2443              	.LVL309:
  67:../Common/IQMath/ti/_IQNtoF.c **** }
 2444              		.loc 1 67 12 view .LVU880
 2445 0026 00EE103A 		vmov	s0, r3	@ int
 2446 002a 7047     		bx	lr
 2447              	.LVL310:
 2448              	.L257:
  39:../Common/IQMath/ti/_IQNtoF.c ****     } else {
 2449              		.loc 1 39 16 view .LVU881
 2450 002c 9FED010A 		vldr.32	s0, .L259
 2451              	.LVL311:
  39:../Common/IQMath/ti/_IQNtoF.c ****     } else {
 2452              		.loc 1 39 16 view .LVU882
 2453              	.LBE105:
 2454              	.LBE104:
 355:../Common/IQMath/ti/_IQNtoF.c **** }
 2455              		.loc 1 355 1 view .LVU883
 2456 0030 7047     		bx	lr
 2457              	.L260:
 2458 0032 00BF     		.align	2
 2459              	.L259:
 2460 0034 00000000 		.word	0
 2461              		.cfi_endproc
 2462              	.LFE287:
 2464              		.section	.text._IQ4toF,"ax",%progbits
 2465              		.align	1
 2466              		.global	_IQ4toF
 2467              		.syntax unified
 2468              		.thumb
 2469              		.thumb_func
 2471              	_IQ4toF:
 2472              	.LVL312:
 2473              	.LFB288:
 356:../Common/IQMath/ti/_IQNtoF.c **** /**
 357:../Common/IQMath/ti/_IQNtoF.c ****  * @brief Converts input to floating point using IQ4 format.
 358:../Common/IQMath/ti/_IQNtoF.c ****  *
 359:../Common/IQMath/ti/_IQNtoF.c ****  * @param a             IQ4 type value to be converted.
 360:../Common/IQMath/ti/_IQNtoF.c ****  *
 361:../Common/IQMath/ti/_IQNtoF.c ****  * @return              Conversion of input to floating point.
 362:../Common/IQMath/ti/_IQNtoF.c ****  */
 363:../Common/IQMath/ti/_IQNtoF.c **** float _IQ4toF(int32_t a)
 364:../Common/IQMath/ti/_IQNtoF.c **** {
 2474              		.loc 1 364 1 is_stmt 1 view -0
ARM GAS  C:\Users\57308\AppData\Local\Temp\cc6zZRsl.s 			page 64


 2475              		.cfi_startproc
 2476              		@ args = 0, pretend = 0, frame = 0
 2477              		@ frame_needed = 0, uses_anonymous_args = 0
 2478              		@ link register save eliminated.
 365:../Common/IQMath/ti/_IQNtoF.c ****     return __IQNtoF(a, 4);
 2479              		.loc 1 365 5 view .LVU885
 2480              	.LBB108:
 2481              	.LBI108:
  25:../Common/IQMath/ti/_IQNtoF.c **** {
 2482              		.loc 1 25 23 view .LVU886
 2483              	.LBB109:
  27:../Common/IQMath/ti/_IQNtoF.c ****     uint_fast32_t uiq23Result;
 2484              		.loc 1 27 5 view .LVU887
  28:../Common/IQMath/ti/_IQNtoF.c ****     uint_fast32_t uiq31Input;
 2485              		.loc 1 28 5 view .LVU888
  29:../Common/IQMath/ti/_IQNtoF.c **** 
 2486              		.loc 1 29 5 view .LVU889
  32:../Common/IQMath/ti/_IQNtoF.c **** 
 2487              		.loc 1 32 5 view .LVU890
  35:../Common/IQMath/ti/_IQNtoF.c ****         ui16Exp |= 0x8000;
 2488              		.loc 1 35 5 view .LVU891
  35:../Common/IQMath/ti/_IQNtoF.c ****         ui16Exp |= 0x8000;
 2489              		.loc 1 35 8 is_stmt 0 view .LVU892
 2490 0000 0028     		cmp	r0, #0
  35:../Common/IQMath/ti/_IQNtoF.c ****         ui16Exp |= 0x8000;
 2491              		.loc 1 35 8 view .LVU893
 2492 0002 03DB     		blt	.L268
  38:../Common/IQMath/ti/_IQNtoF.c ****         return (0);
 2493              		.loc 1 38 12 is_stmt 1 view .LVU894
  38:../Common/IQMath/ti/_IQNtoF.c ****         return (0);
 2494              		.loc 1 38 15 is_stmt 0 view .LVU895
 2495 0004 90B1     		cbz	r0, .L267
  41:../Common/IQMath/ti/_IQNtoF.c ****     }
 2496              		.loc 1 41 9 is_stmt 1 view .LVU896
 2497              	.LVL313:
  32:../Common/IQMath/ti/_IQNtoF.c **** 
 2498              		.loc 1 32 13 is_stmt 0 view .LVU897
 2499 0006 4FF49A43 		mov	r3, #19712
 2500 000a 05E0     		b	.L265
 2501              	.LVL314:
 2502              	.L268:
  36:../Common/IQMath/ti/_IQNtoF.c ****         uiq31Input = -iqNInput;
 2503              		.loc 1 36 9 is_stmt 1 view .LVU898
  37:../Common/IQMath/ti/_IQNtoF.c ****     } else if (iqNInput == 0) {
 2504              		.loc 1 37 9 view .LVU899
  37:../Common/IQMath/ti/_IQNtoF.c ****     } else if (iqNInput == 0) {
 2505              		.loc 1 37 22 is_stmt 0 view .LVU900
 2506 000c 4042     		rsbs	r0, r0, #0
 2507              	.LVL315:
  36:../Common/IQMath/ti/_IQNtoF.c ****         uiq31Input = -iqNInput;
 2508              		.loc 1 36 17 view .LVU901
 2509 000e 4FF44D43 		mov	r3, #52480
 2510 0012 01E0     		b	.L265
 2511              	.LVL316:
 2512              	.L266:
  46:../Common/IQMath/ti/_IQNtoF.c ****         ui16Exp -= 0x0080;
 2513              		.loc 1 46 9 is_stmt 1 view .LVU902
ARM GAS  C:\Users\57308\AppData\Local\Temp\cc6zZRsl.s 			page 65


  46:../Common/IQMath/ti/_IQNtoF.c ****         ui16Exp -= 0x0080;
 2514              		.loc 1 46 20 is_stmt 0 view .LVU903
 2515 0014 4000     		lsls	r0, r0, #1
 2516              	.LVL317:
  47:../Common/IQMath/ti/_IQNtoF.c ****     }
 2517              		.loc 1 47 9 is_stmt 1 view .LVU904
  47:../Common/IQMath/ti/_IQNtoF.c ****     }
 2518              		.loc 1 47 17 is_stmt 0 view .LVU905
 2519 0016 803B     		subs	r3, r3, #128
 2520              	.LVL318:
 2521              	.L265:
  45:../Common/IQMath/ti/_IQNtoF.c ****         uiq31Input <<= 1;
 2522              		.loc 1 45 11 is_stmt 1 view .LVU906
 2523 0018 0028     		cmp	r0, #0
 2524 001a FBDA     		bge	.L266
  51:../Common/IQMath/ti/_IQNtoF.c **** 
 2525              		.loc 1 51 5 view .LVU907
  51:../Common/IQMath/ti/_IQNtoF.c **** 
 2526              		.loc 1 51 31 is_stmt 0 view .LVU908
 2527 001c 8030     		adds	r0, r0, #128
 2528              	.LVL319:
  54:../Common/IQMath/ti/_IQNtoF.c **** 
 2529              		.loc 1 54 5 is_stmt 1 view .LVU909
  54:../Common/IQMath/ti/_IQNtoF.c **** 
 2530              		.loc 1 54 17 is_stmt 0 view .LVU910
 2531 001e C0F31620 		ubfx	r0, r0, #8, #23
 2532              	.LVL320:
  64:../Common/IQMath/ti/_IQNtoF.c **** 
 2533              		.loc 1 64 5 is_stmt 1 view .LVU911
  67:../Common/IQMath/ti/_IQNtoF.c **** }
 2534              		.loc 1 67 5 view .LVU912
  67:../Common/IQMath/ti/_IQNtoF.c **** }
 2535              		.loc 1 67 12 is_stmt 0 view .LVU913
 2536 0022 00EB0343 		add	r3, r0, r3, lsl #16
 2537              	.LVL321:
  67:../Common/IQMath/ti/_IQNtoF.c **** }
 2538              		.loc 1 67 12 view .LVU914
 2539 0026 00EE103A 		vmov	s0, r3	@ int
 2540 002a 7047     		bx	lr
 2541              	.LVL322:
 2542              	.L267:
  39:../Common/IQMath/ti/_IQNtoF.c ****     } else {
 2543              		.loc 1 39 16 view .LVU915
 2544 002c 9FED010A 		vldr.32	s0, .L269
 2545              	.LVL323:
  39:../Common/IQMath/ti/_IQNtoF.c ****     } else {
 2546              		.loc 1 39 16 view .LVU916
 2547              	.LBE109:
 2548              	.LBE108:
 366:../Common/IQMath/ti/_IQNtoF.c **** }
 2549              		.loc 1 366 1 view .LVU917
 2550 0030 7047     		bx	lr
 2551              	.L270:
 2552 0032 00BF     		.align	2
 2553              	.L269:
 2554 0034 00000000 		.word	0
 2555              		.cfi_endproc
ARM GAS  C:\Users\57308\AppData\Local\Temp\cc6zZRsl.s 			page 66


 2556              	.LFE288:
 2558              		.section	.text._IQ3toF,"ax",%progbits
 2559              		.align	1
 2560              		.global	_IQ3toF
 2561              		.syntax unified
 2562              		.thumb
 2563              		.thumb_func
 2565              	_IQ3toF:
 2566              	.LVL324:
 2567              	.LFB289:
 367:../Common/IQMath/ti/_IQNtoF.c **** /**
 368:../Common/IQMath/ti/_IQNtoF.c ****  * @brief Converts input to floating point using IQ3 format.
 369:../Common/IQMath/ti/_IQNtoF.c ****  *
 370:../Common/IQMath/ti/_IQNtoF.c ****  * @param a             IQ3 type value to be converted.
 371:../Common/IQMath/ti/_IQNtoF.c ****  *
 372:../Common/IQMath/ti/_IQNtoF.c ****  * @return              Conversion of input to floating point.
 373:../Common/IQMath/ti/_IQNtoF.c ****  */
 374:../Common/IQMath/ti/_IQNtoF.c **** float _IQ3toF(int32_t a)
 375:../Common/IQMath/ti/_IQNtoF.c **** {
 2568              		.loc 1 375 1 is_stmt 1 view -0
 2569              		.cfi_startproc
 2570              		@ args = 0, pretend = 0, frame = 0
 2571              		@ frame_needed = 0, uses_anonymous_args = 0
 2572              		@ link register save eliminated.
 376:../Common/IQMath/ti/_IQNtoF.c ****     return __IQNtoF(a, 3);
 2573              		.loc 1 376 5 view .LVU919
 2574              	.LBB112:
 2575              	.LBI112:
  25:../Common/IQMath/ti/_IQNtoF.c **** {
 2576              		.loc 1 25 23 view .LVU920
 2577              	.LBB113:
  27:../Common/IQMath/ti/_IQNtoF.c ****     uint_fast32_t uiq23Result;
 2578              		.loc 1 27 5 view .LVU921
  28:../Common/IQMath/ti/_IQNtoF.c ****     uint_fast32_t uiq31Input;
 2579              		.loc 1 28 5 view .LVU922
  29:../Common/IQMath/ti/_IQNtoF.c **** 
 2580              		.loc 1 29 5 view .LVU923
  32:../Common/IQMath/ti/_IQNtoF.c **** 
 2581              		.loc 1 32 5 view .LVU924
  35:../Common/IQMath/ti/_IQNtoF.c ****         ui16Exp |= 0x8000;
 2582              		.loc 1 35 5 view .LVU925
  35:../Common/IQMath/ti/_IQNtoF.c ****         ui16Exp |= 0x8000;
 2583              		.loc 1 35 8 is_stmt 0 view .LVU926
 2584 0000 0028     		cmp	r0, #0
  35:../Common/IQMath/ti/_IQNtoF.c ****         ui16Exp |= 0x8000;
 2585              		.loc 1 35 8 view .LVU927
 2586 0002 03DB     		blt	.L278
  38:../Common/IQMath/ti/_IQNtoF.c ****         return (0);
 2587              		.loc 1 38 12 is_stmt 1 view .LVU928
  38:../Common/IQMath/ti/_IQNtoF.c ****         return (0);
 2588              		.loc 1 38 15 is_stmt 0 view .LVU929
 2589 0004 90B1     		cbz	r0, .L277
  41:../Common/IQMath/ti/_IQNtoF.c ****     }
 2590              		.loc 1 41 9 is_stmt 1 view .LVU930
 2591              	.LVL325:
  32:../Common/IQMath/ti/_IQNtoF.c **** 
 2592              		.loc 1 32 13 is_stmt 0 view .LVU931
ARM GAS  C:\Users\57308\AppData\Local\Temp\cc6zZRsl.s 			page 67


 2593 0006 4FF49B43 		mov	r3, #19840
 2594 000a 05E0     		b	.L275
 2595              	.LVL326:
 2596              	.L278:
  36:../Common/IQMath/ti/_IQNtoF.c ****         uiq31Input = -iqNInput;
 2597              		.loc 1 36 9 is_stmt 1 view .LVU932
  37:../Common/IQMath/ti/_IQNtoF.c ****     } else if (iqNInput == 0) {
 2598              		.loc 1 37 9 view .LVU933
  37:../Common/IQMath/ti/_IQNtoF.c ****     } else if (iqNInput == 0) {
 2599              		.loc 1 37 22 is_stmt 0 view .LVU934
 2600 000c 4042     		rsbs	r0, r0, #0
 2601              	.LVL327:
  36:../Common/IQMath/ti/_IQNtoF.c ****         uiq31Input = -iqNInput;
 2602              		.loc 1 36 17 view .LVU935
 2603 000e 4CF68053 		movw	r3, #52608
 2604 0012 01E0     		b	.L275
 2605              	.LVL328:
 2606              	.L276:
  46:../Common/IQMath/ti/_IQNtoF.c ****         ui16Exp -= 0x0080;
 2607              		.loc 1 46 9 is_stmt 1 view .LVU936
  46:../Common/IQMath/ti/_IQNtoF.c ****         ui16Exp -= 0x0080;
 2608              		.loc 1 46 20 is_stmt 0 view .LVU937
 2609 0014 4000     		lsls	r0, r0, #1
 2610              	.LVL329:
  47:../Common/IQMath/ti/_IQNtoF.c ****     }
 2611              		.loc 1 47 9 is_stmt 1 view .LVU938
  47:../Common/IQMath/ti/_IQNtoF.c ****     }
 2612              		.loc 1 47 17 is_stmt 0 view .LVU939
 2613 0016 803B     		subs	r3, r3, #128
 2614              	.LVL330:
 2615              	.L275:
  45:../Common/IQMath/ti/_IQNtoF.c ****         uiq31Input <<= 1;
 2616              		.loc 1 45 11 is_stmt 1 view .LVU940
 2617 0018 0028     		cmp	r0, #0
 2618 001a FBDA     		bge	.L276
  51:../Common/IQMath/ti/_IQNtoF.c **** 
 2619              		.loc 1 51 5 view .LVU941
  51:../Common/IQMath/ti/_IQNtoF.c **** 
 2620              		.loc 1 51 31 is_stmt 0 view .LVU942
 2621 001c 8030     		adds	r0, r0, #128
 2622              	.LVL331:
  54:../Common/IQMath/ti/_IQNtoF.c **** 
 2623              		.loc 1 54 5 is_stmt 1 view .LVU943
  54:../Common/IQMath/ti/_IQNtoF.c **** 
 2624              		.loc 1 54 17 is_stmt 0 view .LVU944
 2625 001e C0F31620 		ubfx	r0, r0, #8, #23
 2626              	.LVL332:
  64:../Common/IQMath/ti/_IQNtoF.c **** 
 2627              		.loc 1 64 5 is_stmt 1 view .LVU945
  67:../Common/IQMath/ti/_IQNtoF.c **** }
 2628              		.loc 1 67 5 view .LVU946
  67:../Common/IQMath/ti/_IQNtoF.c **** }
 2629              		.loc 1 67 12 is_stmt 0 view .LVU947
 2630 0022 00EB0343 		add	r3, r0, r3, lsl #16
 2631              	.LVL333:
  67:../Common/IQMath/ti/_IQNtoF.c **** }
 2632              		.loc 1 67 12 view .LVU948
ARM GAS  C:\Users\57308\AppData\Local\Temp\cc6zZRsl.s 			page 68


 2633 0026 00EE103A 		vmov	s0, r3	@ int
 2634 002a 7047     		bx	lr
 2635              	.LVL334:
 2636              	.L277:
  39:../Common/IQMath/ti/_IQNtoF.c ****     } else {
 2637              		.loc 1 39 16 view .LVU949
 2638 002c 9FED010A 		vldr.32	s0, .L279
 2639              	.LVL335:
  39:../Common/IQMath/ti/_IQNtoF.c ****     } else {
 2640              		.loc 1 39 16 view .LVU950
 2641              	.LBE113:
 2642              	.LBE112:
 377:../Common/IQMath/ti/_IQNtoF.c **** }
 2643              		.loc 1 377 1 view .LVU951
 2644 0030 7047     		bx	lr
 2645              	.L280:
 2646 0032 00BF     		.align	2
 2647              	.L279:
 2648 0034 00000000 		.word	0
 2649              		.cfi_endproc
 2650              	.LFE289:
 2652              		.section	.text._IQ2toF,"ax",%progbits
 2653              		.align	1
 2654              		.global	_IQ2toF
 2655              		.syntax unified
 2656              		.thumb
 2657              		.thumb_func
 2659              	_IQ2toF:
 2660              	.LVL336:
 2661              	.LFB290:
 378:../Common/IQMath/ti/_IQNtoF.c **** /**
 379:../Common/IQMath/ti/_IQNtoF.c ****  * @brief Converts input to floating point using IQ2 format.
 380:../Common/IQMath/ti/_IQNtoF.c ****  *
 381:../Common/IQMath/ti/_IQNtoF.c ****  * @param a             IQ2 type value to be converted.
 382:../Common/IQMath/ti/_IQNtoF.c ****  *
 383:../Common/IQMath/ti/_IQNtoF.c ****  * @return              Conversion of input to floating point.
 384:../Common/IQMath/ti/_IQNtoF.c ****  */
 385:../Common/IQMath/ti/_IQNtoF.c **** float _IQ2toF(int32_t a)
 386:../Common/IQMath/ti/_IQNtoF.c **** {
 2662              		.loc 1 386 1 is_stmt 1 view -0
 2663              		.cfi_startproc
 2664              		@ args = 0, pretend = 0, frame = 0
 2665              		@ frame_needed = 0, uses_anonymous_args = 0
 2666              		@ link register save eliminated.
 387:../Common/IQMath/ti/_IQNtoF.c ****     return __IQNtoF(a, 2);
 2667              		.loc 1 387 5 view .LVU953
 2668              	.LBB116:
 2669              	.LBI116:
  25:../Common/IQMath/ti/_IQNtoF.c **** {
 2670              		.loc 1 25 23 view .LVU954
 2671              	.LBB117:
  27:../Common/IQMath/ti/_IQNtoF.c ****     uint_fast32_t uiq23Result;
 2672              		.loc 1 27 5 view .LVU955
  28:../Common/IQMath/ti/_IQNtoF.c ****     uint_fast32_t uiq31Input;
 2673              		.loc 1 28 5 view .LVU956
  29:../Common/IQMath/ti/_IQNtoF.c **** 
 2674              		.loc 1 29 5 view .LVU957
ARM GAS  C:\Users\57308\AppData\Local\Temp\cc6zZRsl.s 			page 69


  32:../Common/IQMath/ti/_IQNtoF.c **** 
 2675              		.loc 1 32 5 view .LVU958
  35:../Common/IQMath/ti/_IQNtoF.c ****         ui16Exp |= 0x8000;
 2676              		.loc 1 35 5 view .LVU959
  35:../Common/IQMath/ti/_IQNtoF.c ****         ui16Exp |= 0x8000;
 2677              		.loc 1 35 8 is_stmt 0 view .LVU960
 2678 0000 0028     		cmp	r0, #0
  35:../Common/IQMath/ti/_IQNtoF.c ****         ui16Exp |= 0x8000;
 2679              		.loc 1 35 8 view .LVU961
 2680 0002 03DB     		blt	.L288
  38:../Common/IQMath/ti/_IQNtoF.c ****         return (0);
 2681              		.loc 1 38 12 is_stmt 1 view .LVU962
  38:../Common/IQMath/ti/_IQNtoF.c ****         return (0);
 2682              		.loc 1 38 15 is_stmt 0 view .LVU963
 2683 0004 90B1     		cbz	r0, .L287
  41:../Common/IQMath/ti/_IQNtoF.c ****     }
 2684              		.loc 1 41 9 is_stmt 1 view .LVU964
 2685              	.LVL337:
  32:../Common/IQMath/ti/_IQNtoF.c **** 
 2686              		.loc 1 32 13 is_stmt 0 view .LVU965
 2687 0006 4FF49C43 		mov	r3, #19968
 2688 000a 05E0     		b	.L285
 2689              	.LVL338:
 2690              	.L288:
  36:../Common/IQMath/ti/_IQNtoF.c ****         uiq31Input = -iqNInput;
 2691              		.loc 1 36 9 is_stmt 1 view .LVU966
  37:../Common/IQMath/ti/_IQNtoF.c ****     } else if (iqNInput == 0) {
 2692              		.loc 1 37 9 view .LVU967
  37:../Common/IQMath/ti/_IQNtoF.c ****     } else if (iqNInput == 0) {
 2693              		.loc 1 37 22 is_stmt 0 view .LVU968
 2694 000c 4042     		rsbs	r0, r0, #0
 2695              	.LVL339:
  36:../Common/IQMath/ti/_IQNtoF.c ****         uiq31Input = -iqNInput;
 2696              		.loc 1 36 17 view .LVU969
 2697 000e 4FF44E43 		mov	r3, #52736
 2698 0012 01E0     		b	.L285
 2699              	.LVL340:
 2700              	.L286:
  46:../Common/IQMath/ti/_IQNtoF.c ****         ui16Exp -= 0x0080;
 2701              		.loc 1 46 9 is_stmt 1 view .LVU970
  46:../Common/IQMath/ti/_IQNtoF.c ****         ui16Exp -= 0x0080;
 2702              		.loc 1 46 20 is_stmt 0 view .LVU971
 2703 0014 4000     		lsls	r0, r0, #1
 2704              	.LVL341:
  47:../Common/IQMath/ti/_IQNtoF.c ****     }
 2705              		.loc 1 47 9 is_stmt 1 view .LVU972
  47:../Common/IQMath/ti/_IQNtoF.c ****     }
 2706              		.loc 1 47 17 is_stmt 0 view .LVU973
 2707 0016 803B     		subs	r3, r3, #128
 2708              	.LVL342:
 2709              	.L285:
  45:../Common/IQMath/ti/_IQNtoF.c ****         uiq31Input <<= 1;
 2710              		.loc 1 45 11 is_stmt 1 view .LVU974
 2711 0018 0028     		cmp	r0, #0
 2712 001a FBDA     		bge	.L286
  51:../Common/IQMath/ti/_IQNtoF.c **** 
 2713              		.loc 1 51 5 view .LVU975
ARM GAS  C:\Users\57308\AppData\Local\Temp\cc6zZRsl.s 			page 70


  51:../Common/IQMath/ti/_IQNtoF.c **** 
 2714              		.loc 1 51 31 is_stmt 0 view .LVU976
 2715 001c 8030     		adds	r0, r0, #128
 2716              	.LVL343:
  54:../Common/IQMath/ti/_IQNtoF.c **** 
 2717              		.loc 1 54 5 is_stmt 1 view .LVU977
  54:../Common/IQMath/ti/_IQNtoF.c **** 
 2718              		.loc 1 54 17 is_stmt 0 view .LVU978
 2719 001e C0F31620 		ubfx	r0, r0, #8, #23
 2720              	.LVL344:
  64:../Common/IQMath/ti/_IQNtoF.c **** 
 2721              		.loc 1 64 5 is_stmt 1 view .LVU979
  67:../Common/IQMath/ti/_IQNtoF.c **** }
 2722              		.loc 1 67 5 view .LVU980
  67:../Common/IQMath/ti/_IQNtoF.c **** }
 2723              		.loc 1 67 12 is_stmt 0 view .LVU981
 2724 0022 00EB0343 		add	r3, r0, r3, lsl #16
 2725              	.LVL345:
  67:../Common/IQMath/ti/_IQNtoF.c **** }
 2726              		.loc 1 67 12 view .LVU982
 2727 0026 00EE103A 		vmov	s0, r3	@ int
 2728 002a 7047     		bx	lr
 2729              	.LVL346:
 2730              	.L287:
  39:../Common/IQMath/ti/_IQNtoF.c ****     } else {
 2731              		.loc 1 39 16 view .LVU983
 2732 002c 9FED010A 		vldr.32	s0, .L289
 2733              	.LVL347:
  39:../Common/IQMath/ti/_IQNtoF.c ****     } else {
 2734              		.loc 1 39 16 view .LVU984
 2735              	.LBE117:
 2736              	.LBE116:
 388:../Common/IQMath/ti/_IQNtoF.c **** }
 2737              		.loc 1 388 1 view .LVU985
 2738 0030 7047     		bx	lr
 2739              	.L290:
 2740 0032 00BF     		.align	2
 2741              	.L289:
 2742 0034 00000000 		.word	0
 2743              		.cfi_endproc
 2744              	.LFE290:
 2746              		.section	.text._IQ1toF,"ax",%progbits
 2747              		.align	1
 2748              		.global	_IQ1toF
 2749              		.syntax unified
 2750              		.thumb
 2751              		.thumb_func
 2753              	_IQ1toF:
 2754              	.LVL348:
 2755              	.LFB291:
 389:../Common/IQMath/ti/_IQNtoF.c **** /**
 390:../Common/IQMath/ti/_IQNtoF.c ****  * @brief Converts input to floating point using IQ1 format.
 391:../Common/IQMath/ti/_IQNtoF.c ****  *
 392:../Common/IQMath/ti/_IQNtoF.c ****  * @param a             IQ1 type value to be converted.
 393:../Common/IQMath/ti/_IQNtoF.c ****  *
 394:../Common/IQMath/ti/_IQNtoF.c ****  * @return              Conversion of input to floating point.
 395:../Common/IQMath/ti/_IQNtoF.c ****  */
ARM GAS  C:\Users\57308\AppData\Local\Temp\cc6zZRsl.s 			page 71


 396:../Common/IQMath/ti/_IQNtoF.c **** float _IQ1toF(int32_t a)
 397:../Common/IQMath/ti/_IQNtoF.c **** {
 2756              		.loc 1 397 1 is_stmt 1 view -0
 2757              		.cfi_startproc
 2758              		@ args = 0, pretend = 0, frame = 0
 2759              		@ frame_needed = 0, uses_anonymous_args = 0
 2760              		@ link register save eliminated.
 398:../Common/IQMath/ti/_IQNtoF.c ****     return __IQNtoF(a, 1);
 2761              		.loc 1 398 5 view .LVU987
 2762              	.LBB120:
 2763              	.LBI120:
  25:../Common/IQMath/ti/_IQNtoF.c **** {
 2764              		.loc 1 25 23 view .LVU988
 2765              	.LBB121:
  27:../Common/IQMath/ti/_IQNtoF.c ****     uint_fast32_t uiq23Result;
 2766              		.loc 1 27 5 view .LVU989
  28:../Common/IQMath/ti/_IQNtoF.c ****     uint_fast32_t uiq31Input;
 2767              		.loc 1 28 5 view .LVU990
  29:../Common/IQMath/ti/_IQNtoF.c **** 
 2768              		.loc 1 29 5 view .LVU991
  32:../Common/IQMath/ti/_IQNtoF.c **** 
 2769              		.loc 1 32 5 view .LVU992
  35:../Common/IQMath/ti/_IQNtoF.c ****         ui16Exp |= 0x8000;
 2770              		.loc 1 35 5 view .LVU993
  35:../Common/IQMath/ti/_IQNtoF.c ****         ui16Exp |= 0x8000;
 2771              		.loc 1 35 8 is_stmt 0 view .LVU994
 2772 0000 0028     		cmp	r0, #0
  35:../Common/IQMath/ti/_IQNtoF.c ****         ui16Exp |= 0x8000;
 2773              		.loc 1 35 8 view .LVU995
 2774 0002 03DB     		blt	.L298
  38:../Common/IQMath/ti/_IQNtoF.c ****         return (0);
 2775              		.loc 1 38 12 is_stmt 1 view .LVU996
  38:../Common/IQMath/ti/_IQNtoF.c ****         return (0);
 2776              		.loc 1 38 15 is_stmt 0 view .LVU997
 2777 0004 90B1     		cbz	r0, .L297
  41:../Common/IQMath/ti/_IQNtoF.c ****     }
 2778              		.loc 1 41 9 is_stmt 1 view .LVU998
 2779              	.LVL349:
  32:../Common/IQMath/ti/_IQNtoF.c **** 
 2780              		.loc 1 32 13 is_stmt 0 view .LVU999
 2781 0006 4FF49D43 		mov	r3, #20096
 2782 000a 05E0     		b	.L295
 2783              	.LVL350:
 2784              	.L298:
  36:../Common/IQMath/ti/_IQNtoF.c ****         uiq31Input = -iqNInput;
 2785              		.loc 1 36 9 is_stmt 1 view .LVU1000
  37:../Common/IQMath/ti/_IQNtoF.c ****     } else if (iqNInput == 0) {
 2786              		.loc 1 37 9 view .LVU1001
  37:../Common/IQMath/ti/_IQNtoF.c ****     } else if (iqNInput == 0) {
 2787              		.loc 1 37 22 is_stmt 0 view .LVU1002
 2788 000c 4042     		rsbs	r0, r0, #0
 2789              	.LVL351:
  36:../Common/IQMath/ti/_IQNtoF.c ****         uiq31Input = -iqNInput;
 2790              		.loc 1 36 17 view .LVU1003
 2791 000e 4CF68063 		movw	r3, #52864
 2792 0012 01E0     		b	.L295
 2793              	.LVL352:
ARM GAS  C:\Users\57308\AppData\Local\Temp\cc6zZRsl.s 			page 72


 2794              	.L296:
  46:../Common/IQMath/ti/_IQNtoF.c ****         ui16Exp -= 0x0080;
 2795              		.loc 1 46 9 is_stmt 1 view .LVU1004
  46:../Common/IQMath/ti/_IQNtoF.c ****         ui16Exp -= 0x0080;
 2796              		.loc 1 46 20 is_stmt 0 view .LVU1005
 2797 0014 4000     		lsls	r0, r0, #1
 2798              	.LVL353:
  47:../Common/IQMath/ti/_IQNtoF.c ****     }
 2799              		.loc 1 47 9 is_stmt 1 view .LVU1006
  47:../Common/IQMath/ti/_IQNtoF.c ****     }
 2800              		.loc 1 47 17 is_stmt 0 view .LVU1007
 2801 0016 803B     		subs	r3, r3, #128
 2802              	.LVL354:
 2803              	.L295:
  45:../Common/IQMath/ti/_IQNtoF.c ****         uiq31Input <<= 1;
 2804              		.loc 1 45 11 is_stmt 1 view .LVU1008
 2805 0018 0028     		cmp	r0, #0
 2806 001a FBDA     		bge	.L296
  51:../Common/IQMath/ti/_IQNtoF.c **** 
 2807              		.loc 1 51 5 view .LVU1009
  51:../Common/IQMath/ti/_IQNtoF.c **** 
 2808              		.loc 1 51 31 is_stmt 0 view .LVU1010
 2809 001c 8030     		adds	r0, r0, #128
 2810              	.LVL355:
  54:../Common/IQMath/ti/_IQNtoF.c **** 
 2811              		.loc 1 54 5 is_stmt 1 view .LVU1011
  54:../Common/IQMath/ti/_IQNtoF.c **** 
 2812              		.loc 1 54 17 is_stmt 0 view .LVU1012
 2813 001e C0F31620 		ubfx	r0, r0, #8, #23
 2814              	.LVL356:
  64:../Common/IQMath/ti/_IQNtoF.c **** 
 2815              		.loc 1 64 5 is_stmt 1 view .LVU1013
  67:../Common/IQMath/ti/_IQNtoF.c **** }
 2816              		.loc 1 67 5 view .LVU1014
  67:../Common/IQMath/ti/_IQNtoF.c **** }
 2817              		.loc 1 67 12 is_stmt 0 view .LVU1015
 2818 0022 00EB0343 		add	r3, r0, r3, lsl #16
 2819              	.LVL357:
  67:../Common/IQMath/ti/_IQNtoF.c **** }
 2820              		.loc 1 67 12 view .LVU1016
 2821 0026 00EE103A 		vmov	s0, r3	@ int
 2822 002a 7047     		bx	lr
 2823              	.LVL358:
 2824              	.L297:
  39:../Common/IQMath/ti/_IQNtoF.c ****     } else {
 2825              		.loc 1 39 16 view .LVU1017
 2826 002c 9FED010A 		vldr.32	s0, .L299
 2827              	.LVL359:
  39:../Common/IQMath/ti/_IQNtoF.c ****     } else {
 2828              		.loc 1 39 16 view .LVU1018
 2829              	.LBE121:
 2830              	.LBE120:
 399:../Common/IQMath/ti/_IQNtoF.c **** }
 2831              		.loc 1 399 1 view .LVU1019
 2832 0030 7047     		bx	lr
 2833              	.L300:
 2834 0032 00BF     		.align	2
ARM GAS  C:\Users\57308\AppData\Local\Temp\cc6zZRsl.s 			page 73


 2835              	.L299:
 2836 0034 00000000 		.word	0
 2837              		.cfi_endproc
 2838              	.LFE291:
 2840              		.text
 2841              	.Letext0:
 2842              		.file 2 "d:\\program files\\gcc-arm-none-eabi-10.3-2021.10\\arm-none-eabi\\include\\machine\\_defa
 2843              		.file 3 "d:\\program files\\gcc-arm-none-eabi-10.3-2021.10\\arm-none-eabi\\include\\sys\\_stdint.h
 2844              		.file 4 "d:\\program files\\gcc-arm-none-eabi-10.3-2021.10\\arm-none-eabi\\include\\stdint.h"
ARM GAS  C:\Users\57308\AppData\Local\Temp\cc6zZRsl.s 			page 74

