ARM GAS  C:\Users\57308\AppData\Local\Temp\cc4OkGld.s 			page 1


   1              		.cpu cortex-m4
   2              		.arch armv7e-m
   3              		.fpu fpv4-sp-d16
   4              		.eabi_attribute 27, 1
   5              		.eabi_attribute 28, 1
   6              		.eabi_attribute 20, 1
   7              		.eabi_attribute 21, 1
   8              		.eabi_attribute 23, 3
   9              		.eabi_attribute 24, 1
  10              		.eabi_attribute 25, 1
  11              		.eabi_attribute 26, 1
  12              		.eabi_attribute 30, 1
  13              		.eabi_attribute 34, 1
  14              		.eabi_attribute 18, 4
  15              		.file	"_IQNasin_acos.c"
  16              		.text
  17              	.Ltext0:
  18              		.cfi_sections	.debug_frame
  19              		.section	.text._IQ29asin,"ax",%progbits
  20              		.align	1
  21              		.global	_IQ29asin
  22              		.syntax unified
  23              		.thumb
  24              		.thumb_func
  26              	_IQ29asin:
  27              	.LVL0:
  28              	.LFB262:
  29              		.file 1 "../Common/IQMath/ti/_IQNasin_acos.c"
   1:../Common/IQMath/ti/_IQNasin_acos.c **** /*!****************************************************************************
   2:../Common/IQMath/ti/_IQNasin_acos.c ****  *  @file       _IQNasin_acos.c
   3:../Common/IQMath/ti/_IQNasin_acos.c ****  *  @brief      Functions to compute the inverse sine of the input
   4:../Common/IQMath/ti/_IQNasin_acos.c ****  *              and return the result, in radians.
   5:../Common/IQMath/ti/_IQNasin_acos.c ****  *
   6:../Common/IQMath/ti/_IQNasin_acos.c ****  *  <hr>
   7:../Common/IQMath/ti/_IQNasin_acos.c ****  ******************************************************************************/
   8:../Common/IQMath/ti/_IQNasin_acos.c **** 
   9:../Common/IQMath/ti/_IQNasin_acos.c **** #include <stdint.h>
  10:../Common/IQMath/ti/_IQNasin_acos.c **** 
  11:../Common/IQMath/ti/_IQNasin_acos.c **** #include "./support/support.h"
  12:../Common/IQMath/ti/_IQNasin_acos.c **** #include "_IQNtables.h"
  13:../Common/IQMath/ti/_IQNasin_acos.c **** 
  14:../Common/IQMath/ti/_IQNasin_acos.c **** /* Hidden Q31 sqrt function. */
  15:../Common/IQMath/ti/_IQNasin_acos.c **** #ifndef DOXYGEN_SHOULD_SKIP_THIS
  16:../Common/IQMath/ti/_IQNasin_acos.c **** /**
  17:../Common/IQMath/ti/_IQNasin_acos.c ****  * @brief Computes the square root of the IQ31 input.
  18:../Common/IQMath/ti/_IQNasin_acos.c ****  *
  19:../Common/IQMath/ti/_IQNasin_acos.c ****  * @param iq31Input       IQ31 type input.
  20:../Common/IQMath/ti/_IQNasin_acos.c ****  *
  21:../Common/IQMath/ti/_IQNasin_acos.c ****  * @return                IQ31 type result of square root.
  22:../Common/IQMath/ti/_IQNasin_acos.c ****  */
  23:../Common/IQMath/ti/_IQNasin_acos.c **** extern int_fast32_t _IQ31sqrt(int_fast32_t iq31Input);
  24:../Common/IQMath/ti/_IQNasin_acos.c **** #endif /* DOXYGEN_SHOULD_SKIP_THIS */
  25:../Common/IQMath/ti/_IQNasin_acos.c **** 
  26:../Common/IQMath/ti/_IQNasin_acos.c **** /**
  27:../Common/IQMath/ti/_IQNasin_acos.c ****  * @brief Computes the inverse sine of the IQN input.
  28:../Common/IQMath/ti/_IQNasin_acos.c ****  *
  29:../Common/IQMath/ti/_IQNasin_acos.c ****  * @param iqNInput        IQN type input.
ARM GAS  C:\Users\57308\AppData\Local\Temp\cc4OkGld.s 			page 2


  30:../Common/IQMath/ti/_IQNasin_acos.c ****  * @param q_value         IQ format.
  31:../Common/IQMath/ti/_IQNasin_acos.c ****  *
  32:../Common/IQMath/ti/_IQNasin_acos.c ****  * @return                IQN type result of inverse sine.
  33:../Common/IQMath/ti/_IQNasin_acos.c ****  */
  34:../Common/IQMath/ti/_IQNasin_acos.c **** /*
  35:../Common/IQMath/ti/_IQNasin_acos.c ****  * Calculate asin using a 4th order Taylor series for inputs in the range of 
  36:../Common/IQMath/ti/_IQNasin_acos.c ****  * zero to 0.5. The coefficients are stored in a lookup table with 17 ranges
  37:../Common/IQMath/ti/_IQNasin_acos.c ****  * to give an accuracy of 26 bits.
  38:../Common/IQMath/ti/_IQNasin_acos.c ****  *
  39:../Common/IQMath/ti/_IQNasin_acos.c ****  * For inputs greater than 0.5 we apply the following transformation:
  40:../Common/IQMath/ti/_IQNasin_acos.c ****  *
  41:../Common/IQMath/ti/_IQNasin_acos.c ****  *     asin(x) = PI/2 - 2*asin(sqrt((1 - x)/2))
  42:../Common/IQMath/ti/_IQNasin_acos.c ****  *
  43:../Common/IQMath/ti/_IQNasin_acos.c ****  * This transformation is derived from the following trig identities:
  44:../Common/IQMath/ti/_IQNasin_acos.c ****  *
  45:../Common/IQMath/ti/_IQNasin_acos.c ****  *     (1) asin(x) = PI/2 - acos(x)
  46:../Common/IQMath/ti/_IQNasin_acos.c ****  *     (2) sin(t/2)^2 = (1 - cos(t))/2
  47:../Common/IQMath/ti/_IQNasin_acos.c ****  *     (3) cos(t) = x
  48:../Common/IQMath/ti/_IQNasin_acos.c ****  *     (4) t = acos(x)
  49:../Common/IQMath/ti/_IQNasin_acos.c ****  *
  50:../Common/IQMath/ti/_IQNasin_acos.c ****  * Identity (2) can be simplified to give equation (5):
  51:../Common/IQMath/ti/_IQNasin_acos.c ****  *
  52:../Common/IQMath/ti/_IQNasin_acos.c ****  *     (5) t = 2*asin(sqrt((1 - cos(t))/2))
  53:../Common/IQMath/ti/_IQNasin_acos.c ****  *
  54:../Common/IQMath/ti/_IQNasin_acos.c ****  * Substituing identities (3) and (4) into equation (5) gives equation (6):
  55:../Common/IQMath/ti/_IQNasin_acos.c ****  *
  56:../Common/IQMath/ti/_IQNasin_acos.c ****  *     (6) acos(x) = 2*asin(sqrt((1 - x)/2))
  57:../Common/IQMath/ti/_IQNasin_acos.c ****  *
  58:../Common/IQMath/ti/_IQNasin_acos.c ****  * The final step is substituting equation (6) into identity (1):
  59:../Common/IQMath/ti/_IQNasin_acos.c ****  *
  60:../Common/IQMath/ti/_IQNasin_acos.c ****  *     asin(x) = PI/2 - 2*asin(sqrt((1 - x)/2))
  61:../Common/IQMath/ti/_IQNasin_acos.c ****  *
  62:../Common/IQMath/ti/_IQNasin_acos.c ****  * Acos is implemented using asin and identity (1).
  63:../Common/IQMath/ti/_IQNasin_acos.c ****  */
  64:../Common/IQMath/ti/_IQNasin_acos.c ****      
  65:../Common/IQMath/ti/_IQNasin_acos.c **** #if defined (__TI_COMPILER_VERSION__)
  66:../Common/IQMath/ti/_IQNasin_acos.c ****     #pragma FUNC_ALWAYS_INLINE(__IQNasin)
  67:../Common/IQMath/ti/_IQNasin_acos.c **** #elif defined(__IAR_SYSTEMS_ICC__)
  68:../Common/IQMath/ti/_IQNasin_acos.c ****     #pragma inline=forced
  69:../Common/IQMath/ti/_IQNasin_acos.c **** #endif
  70:../Common/IQMath/ti/_IQNasin_acos.c **** __STATIC_INLINE int_fast32_t __IQNasin(int_fast32_t iqNInput, const int8_t q_value)
  71:../Common/IQMath/ti/_IQNasin_acos.c **** {
  72:../Common/IQMath/ti/_IQNasin_acos.c ****     uint8_t ui8Status = 0;
  73:../Common/IQMath/ti/_IQNasin_acos.c ****     uint_fast16_t index;
  74:../Common/IQMath/ti/_IQNasin_acos.c ****     uint_fast16_t ui16IntState;
  75:../Common/IQMath/ti/_IQNasin_acos.c ****     uint_fast16_t ui16MPYState;
  76:../Common/IQMath/ti/_IQNasin_acos.c ****     int_fast32_t iq29Result;
  77:../Common/IQMath/ti/_IQNasin_acos.c ****     const int_fast32_t *piq29Coeffs;
  78:../Common/IQMath/ti/_IQNasin_acos.c ****     uint_fast32_t uiq31Input;
  79:../Common/IQMath/ti/_IQNasin_acos.c ****     uint_fast32_t uiq31InputTemp;
  80:../Common/IQMath/ti/_IQNasin_acos.c ****     
  81:../Common/IQMath/ti/_IQNasin_acos.c ****     /*
  82:../Common/IQMath/ti/_IQNasin_acos.c ****      * Extract the sign from the input and set the following status bits:
  83:../Common/IQMath/ti/_IQNasin_acos.c ****      *
  84:../Common/IQMath/ti/_IQNasin_acos.c ****      *      ui8Status = xxxxxxTS
  85:../Common/IQMath/ti/_IQNasin_acos.c ****      *      x = unused
  86:../Common/IQMath/ti/_IQNasin_acos.c ****      *      T = transform was applied
ARM GAS  C:\Users\57308\AppData\Local\Temp\cc4OkGld.s 			page 3


  87:../Common/IQMath/ti/_IQNasin_acos.c ****      *      S = sign bit needs to be set (-y)
  88:../Common/IQMath/ti/_IQNasin_acos.c ****      */
  89:../Common/IQMath/ti/_IQNasin_acos.c ****     if (iqNInput < 0) {
  90:../Common/IQMath/ti/_IQNasin_acos.c ****         ui8Status |= 1;
  91:../Common/IQMath/ti/_IQNasin_acos.c ****         iqNInput = -iqNInput;
  92:../Common/IQMath/ti/_IQNasin_acos.c ****     }
  93:../Common/IQMath/ti/_IQNasin_acos.c ****     
  94:../Common/IQMath/ti/_IQNasin_acos.c ****     /* 
  95:../Common/IQMath/ti/_IQNasin_acos.c ****      * Check if input is within the valid input range:
  96:../Common/IQMath/ti/_IQNasin_acos.c ****      *
  97:../Common/IQMath/ti/_IQNasin_acos.c ****      *     0 <= iqNInput <= 1
  98:../Common/IQMath/ti/_IQNasin_acos.c ****      */
  99:../Common/IQMath/ti/_IQNasin_acos.c ****     if (iqNInput > ((uint_fast32_t)1 << q_value)) {
 100:../Common/IQMath/ti/_IQNasin_acos.c ****         return 0;
 101:../Common/IQMath/ti/_IQNasin_acos.c ****     }
 102:../Common/IQMath/ti/_IQNasin_acos.c ****     
 103:../Common/IQMath/ti/_IQNasin_acos.c ****     /* Convert input to unsigned iq31. */
 104:../Common/IQMath/ti/_IQNasin_acos.c ****     uiq31Input = (uint_fast32_t)iqNInput << (31 - q_value);
 105:../Common/IQMath/ti/_IQNasin_acos.c ****     
 106:../Common/IQMath/ti/_IQNasin_acos.c ****     /* 
 107:../Common/IQMath/ti/_IQNasin_acos.c ****      * Apply the transformation from asin to acos if input is greater than 0.5.
 108:../Common/IQMath/ti/_IQNasin_acos.c ****      * The first step is to calculate the following:
 109:../Common/IQMath/ti/_IQNasin_acos.c ****      *
 110:../Common/IQMath/ti/_IQNasin_acos.c ****      *     (sqrt((1 - uiq31Input)/2))
 111:../Common/IQMath/ti/_IQNasin_acos.c ****      */
 112:../Common/IQMath/ti/_IQNasin_acos.c ****     uiq31InputTemp = 0x80000000 - uiq31Input;
 113:../Common/IQMath/ti/_IQNasin_acos.c ****     if (uiq31InputTemp < 0x40000000) {
 114:../Common/IQMath/ti/_IQNasin_acos.c ****         /* Halve the result. */
 115:../Common/IQMath/ti/_IQNasin_acos.c ****         uiq31Input = uiq31InputTemp >> 1;
 116:../Common/IQMath/ti/_IQNasin_acos.c ****         
 117:../Common/IQMath/ti/_IQNasin_acos.c ****         /* Calculate sqrt((1 - uiq31Input)/2) */
 118:../Common/IQMath/ti/_IQNasin_acos.c ****         uiq31Input = _IQ31sqrt(uiq31Input);
 119:../Common/IQMath/ti/_IQNasin_acos.c ****         
 120:../Common/IQMath/ti/_IQNasin_acos.c ****         /* Flag that the transformation was used. */
 121:../Common/IQMath/ti/_IQNasin_acos.c ****         ui8Status |= 2;
 122:../Common/IQMath/ti/_IQNasin_acos.c ****     }
 123:../Common/IQMath/ti/_IQNasin_acos.c ****     
 124:../Common/IQMath/ti/_IQNasin_acos.c ****     /* Calculate the index using the left 6 most bits of the input. */
 125:../Common/IQMath/ti/_IQNasin_acos.c ****     index = (int_fast16_t)(uiq31Input >> 26) & 0x003f;
 126:../Common/IQMath/ti/_IQNasin_acos.c ****     
 127:../Common/IQMath/ti/_IQNasin_acos.c ****     /* Set the coefficient pointer. */
 128:../Common/IQMath/ti/_IQNasin_acos.c ****     piq29Coeffs = _IQ29Asin_coeffs[index];
 129:../Common/IQMath/ti/_IQNasin_acos.c ****     
 130:../Common/IQMath/ti/_IQNasin_acos.c ****     /*
 131:../Common/IQMath/ti/_IQNasin_acos.c ****      * Mark the start of any multiplies. This will disable interrupts and set
 132:../Common/IQMath/ti/_IQNasin_acos.c ****      * the multiplier to fractional mode. This is designed to reduce overhead
 133:../Common/IQMath/ti/_IQNasin_acos.c ****      * of constantly switching states when using repeated multiplies (MSP430
 134:../Common/IQMath/ti/_IQNasin_acos.c ****      * only).
 135:../Common/IQMath/ti/_IQNasin_acos.c ****      */
 136:../Common/IQMath/ti/_IQNasin_acos.c ****     __mpyf_start(&ui16IntState, &ui16MPYState);
 137:../Common/IQMath/ti/_IQNasin_acos.c ****     
 138:../Common/IQMath/ti/_IQNasin_acos.c ****     /* 
 139:../Common/IQMath/ti/_IQNasin_acos.c ****      * Calculate asin(x) using the following Taylor series:
 140:../Common/IQMath/ti/_IQNasin_acos.c ****      *
 141:../Common/IQMath/ti/_IQNasin_acos.c ****      *     asin(x) = (((c4*x + c3)*x + c2)*x + c1)*x + c0
 142:../Common/IQMath/ti/_IQNasin_acos.c ****      */
 143:../Common/IQMath/ti/_IQNasin_acos.c ****     
ARM GAS  C:\Users\57308\AppData\Local\Temp\cc4OkGld.s 			page 4


 144:../Common/IQMath/ti/_IQNasin_acos.c ****     /* c4*x */
 145:../Common/IQMath/ti/_IQNasin_acos.c ****     iq29Result = __mpyf_l(uiq31Input, *piq29Coeffs++);
 146:../Common/IQMath/ti/_IQNasin_acos.c ****     
 147:../Common/IQMath/ti/_IQNasin_acos.c ****     /* c4*x + c3 */
 148:../Common/IQMath/ti/_IQNasin_acos.c ****     iq29Result = iq29Result + *piq29Coeffs++;
 149:../Common/IQMath/ti/_IQNasin_acos.c ****     
 150:../Common/IQMath/ti/_IQNasin_acos.c ****     /* (c4*x + c3)*x */
 151:../Common/IQMath/ti/_IQNasin_acos.c ****     iq29Result = __mpyf_l(uiq31Input, iq29Result);
 152:../Common/IQMath/ti/_IQNasin_acos.c ****     
 153:../Common/IQMath/ti/_IQNasin_acos.c ****     /* (c4*x + c3)*x + c2 */
 154:../Common/IQMath/ti/_IQNasin_acos.c ****     iq29Result = iq29Result + *piq29Coeffs++;
 155:../Common/IQMath/ti/_IQNasin_acos.c ****     
 156:../Common/IQMath/ti/_IQNasin_acos.c ****     /* ((c4*x + c3)*x + c2)*x */
 157:../Common/IQMath/ti/_IQNasin_acos.c ****     iq29Result = __mpyf_l(uiq31Input, iq29Result);
 158:../Common/IQMath/ti/_IQNasin_acos.c ****     
 159:../Common/IQMath/ti/_IQNasin_acos.c ****     /* ((c4*x + c3)*x + c2)*x + c1 */
 160:../Common/IQMath/ti/_IQNasin_acos.c ****     iq29Result = iq29Result + *piq29Coeffs++;
 161:../Common/IQMath/ti/_IQNasin_acos.c ****     
 162:../Common/IQMath/ti/_IQNasin_acos.c ****     /* (((c4*x + c3)*x + c2)*x + c1)*x */
 163:../Common/IQMath/ti/_IQNasin_acos.c ****     iq29Result = __mpyf_l(uiq31Input, iq29Result);
 164:../Common/IQMath/ti/_IQNasin_acos.c ****     
 165:../Common/IQMath/ti/_IQNasin_acos.c ****     /* (((c4*x + c3)*x + c2)*x + c1)*x + c0 */
 166:../Common/IQMath/ti/_IQNasin_acos.c ****     iq29Result = iq29Result + *piq29Coeffs++;
 167:../Common/IQMath/ti/_IQNasin_acos.c ****     
 168:../Common/IQMath/ti/_IQNasin_acos.c ****     /* 
 169:../Common/IQMath/ti/_IQNasin_acos.c ****      * Mark the end of all multiplies. This restores MPY and interrupt states
 170:../Common/IQMath/ti/_IQNasin_acos.c ****      * (MSP430 only).
 171:../Common/IQMath/ti/_IQNasin_acos.c ****      */
 172:../Common/IQMath/ti/_IQNasin_acos.c ****     __mpy_stop(&ui16IntState, &ui16MPYState);
 173:../Common/IQMath/ti/_IQNasin_acos.c ****     
 174:../Common/IQMath/ti/_IQNasin_acos.c ****     /* check if we switched to acos */
 175:../Common/IQMath/ti/_IQNasin_acos.c ****     if (ui8Status & 2) {
 176:../Common/IQMath/ti/_IQNasin_acos.c ****         /* asin(x) = pi/2 - 2*iq29Result */
 177:../Common/IQMath/ti/_IQNasin_acos.c ****         iq29Result = iq29Result << 1;
 178:../Common/IQMath/ti/_IQNasin_acos.c ****         iq29Result -= iq29_halfPi;      // this is equivalent to the above
 179:../Common/IQMath/ti/_IQNasin_acos.c ****         iq29Result = -iq29Result;       // but avoids using temporary registers
 180:../Common/IQMath/ti/_IQNasin_acos.c ****     }
 181:../Common/IQMath/ti/_IQNasin_acos.c ****     
 182:../Common/IQMath/ti/_IQNasin_acos.c ****     /* Shift iq29 result to specified q_value. */
 183:../Common/IQMath/ti/_IQNasin_acos.c ****     iq29Result >>= 29 - q_value;
 184:../Common/IQMath/ti/_IQNasin_acos.c ****     
 185:../Common/IQMath/ti/_IQNasin_acos.c ****     /* Add sign to the result. */
 186:../Common/IQMath/ti/_IQNasin_acos.c ****     if (ui8Status & 1) {
 187:../Common/IQMath/ti/_IQNasin_acos.c ****         iq29Result = -iq29Result;
 188:../Common/IQMath/ti/_IQNasin_acos.c ****     }
 189:../Common/IQMath/ti/_IQNasin_acos.c ****     
 190:../Common/IQMath/ti/_IQNasin_acos.c ****     return iq29Result;
 191:../Common/IQMath/ti/_IQNasin_acos.c **** }
 192:../Common/IQMath/ti/_IQNasin_acos.c **** 
 193:../Common/IQMath/ti/_IQNasin_acos.c **** /* ASIN */
 194:../Common/IQMath/ti/_IQNasin_acos.c **** /**
 195:../Common/IQMath/ti/_IQNasin_acos.c ****  * @brief Computes the inverse sine of the IQ29 input.
 196:../Common/IQMath/ti/_IQNasin_acos.c ****  *
 197:../Common/IQMath/ti/_IQNasin_acos.c ****  * @param a               IQ29 type input.
 198:../Common/IQMath/ti/_IQNasin_acos.c ****  *
 199:../Common/IQMath/ti/_IQNasin_acos.c ****  * @return                IQ29 type result of inverse sine.
 200:../Common/IQMath/ti/_IQNasin_acos.c ****  */
ARM GAS  C:\Users\57308\AppData\Local\Temp\cc4OkGld.s 			page 5


 201:../Common/IQMath/ti/_IQNasin_acos.c **** int32_t _IQ29asin(int32_t a)
 202:../Common/IQMath/ti/_IQNasin_acos.c **** {
  30              		.loc 1 202 1 view -0
  31              		.cfi_startproc
  32              		@ args = 0, pretend = 0, frame = 0
  33              		@ frame_needed = 0, uses_anonymous_args = 0
  34              		.loc 1 202 1 is_stmt 0 view .LVU1
  35 0000 10B5     		push	{r4, lr}
  36              	.LCFI0:
  37              		.cfi_def_cfa_offset 8
  38              		.cfi_offset 4, -8
  39              		.cfi_offset 14, -4
 203:../Common/IQMath/ti/_IQNasin_acos.c ****     return __IQNasin(a, 29);
  40              		.loc 1 203 5 is_stmt 1 view .LVU2
  41              	.LVL1:
  42              	.LBB24:
  43              	.LBI24:
  70:../Common/IQMath/ti/_IQNasin_acos.c **** {
  44              		.loc 1 70 30 view .LVU3
  45              	.LBB25:
  72:../Common/IQMath/ti/_IQNasin_acos.c ****     uint_fast16_t index;
  46              		.loc 1 72 5 view .LVU4
  73:../Common/IQMath/ti/_IQNasin_acos.c ****     uint_fast16_t ui16IntState;
  47              		.loc 1 73 5 view .LVU5
  74:../Common/IQMath/ti/_IQNasin_acos.c ****     uint_fast16_t ui16MPYState;
  48              		.loc 1 74 5 view .LVU6
  75:../Common/IQMath/ti/_IQNasin_acos.c ****     int_fast32_t iq29Result;
  49              		.loc 1 75 5 view .LVU7
  76:../Common/IQMath/ti/_IQNasin_acos.c ****     const int_fast32_t *piq29Coeffs;
  50              		.loc 1 76 5 view .LVU8
  77:../Common/IQMath/ti/_IQNasin_acos.c ****     uint_fast32_t uiq31Input;
  51              		.loc 1 77 5 view .LVU9
  78:../Common/IQMath/ti/_IQNasin_acos.c ****     uint_fast32_t uiq31InputTemp;
  52              		.loc 1 78 5 view .LVU10
  79:../Common/IQMath/ti/_IQNasin_acos.c ****     
  53              		.loc 1 79 5 view .LVU11
  89:../Common/IQMath/ti/_IQNasin_acos.c ****         ui8Status |= 1;
  54              		.loc 1 89 5 view .LVU12
  89:../Common/IQMath/ti/_IQNasin_acos.c ****         ui8Status |= 1;
  55              		.loc 1 89 8 is_stmt 0 view .LVU13
  56 0002 0028     		cmp	r0, #0
  89:../Common/IQMath/ti/_IQNasin_acos.c ****         ui8Status |= 1;
  57              		.loc 1 89 8 view .LVU14
  58 0004 52DB     		blt	.L9
  72:../Common/IQMath/ti/_IQNasin_acos.c ****     uint_fast16_t index;
  59              		.loc 1 72 13 view .LVU15
  60 0006 0024     		movs	r4, #0
  61              	.LVL2:
  62              	.L2:
  99:../Common/IQMath/ti/_IQNasin_acos.c ****         return 0;
  63              		.loc 1 99 5 is_stmt 1 view .LVU16
  99:../Common/IQMath/ti/_IQNasin_acos.c ****         return 0;
  64              		.loc 1 99 8 is_stmt 0 view .LVU17
  65 0008 B0F1005F 		cmp	r0, #536870912
  66 000c 57D8     		bhi	.L7
 104:../Common/IQMath/ti/_IQNasin_acos.c ****     
  67              		.loc 1 104 5 is_stmt 1 view .LVU18
ARM GAS  C:\Users\57308\AppData\Local\Temp\cc4OkGld.s 			page 6


 104:../Common/IQMath/ti/_IQNasin_acos.c ****     
  68              		.loc 1 104 16 is_stmt 0 view .LVU19
  69 000e 8000     		lsls	r0, r0, #2
  70              	.LVL3:
 112:../Common/IQMath/ti/_IQNasin_acos.c ****     if (uiq31InputTemp < 0x40000000) {
  71              		.loc 1 112 5 is_stmt 1 view .LVU20
 112:../Common/IQMath/ti/_IQNasin_acos.c ****     if (uiq31InputTemp < 0x40000000) {
  72              		.loc 1 112 20 is_stmt 0 view .LVU21
  73 0010 C0F10043 		rsb	r3, r0, #-2147483648
  74              	.LVL4:
 113:../Common/IQMath/ti/_IQNasin_acos.c ****         /* Halve the result. */
  75              		.loc 1 113 5 is_stmt 1 view .LVU22
 113:../Common/IQMath/ti/_IQNasin_acos.c ****         /* Halve the result. */
  76              		.loc 1 113 8 is_stmt 0 view .LVU23
  77 0014 B3F1804F 		cmp	r3, #1073741824
  78 0018 4BD3     		bcc	.L10
  79              	.LVL5:
  80              	.L4:
 125:../Common/IQMath/ti/_IQNasin_acos.c ****     
  81              		.loc 1 125 5 is_stmt 1 view .LVU24
 125:../Common/IQMath/ti/_IQNasin_acos.c ****     
  82              		.loc 1 125 11 is_stmt 0 view .LVU25
  83 001a 830E     		lsrs	r3, r0, #26
  84              	.LVL6:
 128:../Common/IQMath/ti/_IQNasin_acos.c ****     
  85              		.loc 1 128 5 is_stmt 1 view .LVU26
 128:../Common/IQMath/ti/_IQNasin_acos.c ****     
  86              		.loc 1 128 17 is_stmt 0 view .LVU27
  87 001c 03EB8303 		add	r3, r3, r3, lsl #2
  88              	.LVL7:
 128:../Common/IQMath/ti/_IQNasin_acos.c ****     
  89              		.loc 1 128 17 view .LVU28
  90 0020 2849     		ldr	r1, .L11
  91 0022 01EB8302 		add	r2, r1, r3, lsl #2
  92              	.LVL8:
 136:../Common/IQMath/ti/_IQNasin_acos.c ****     
  93              		.loc 1 136 5 is_stmt 1 view .LVU29
 136:../Common/IQMath/ti/_IQNasin_acos.c ****     
  94              		.loc 1 136 5 is_stmt 0 view .LVU30
  95              	.LBE25:
  96              	.LBE24:
  97              		.file 2 "../Common/IQMath/ti/./support/RTS_support.h"
   1:../Common/IQMath/ti/./support/RTS_support.h **** #ifndef __RTS_SUPPORTH__
   2:../Common/IQMath/ti/./support/RTS_support.h **** #define __RTS_SUPPORTH__
   3:../Common/IQMath/ti/./support/RTS_support.h **** 
   4:../Common/IQMath/ti/./support/RTS_support.h **** ////////////////////////////////////////////////////////////
   5:../Common/IQMath/ti/./support/RTS_support.h **** //                                                        //
   6:../Common/IQMath/ti/./support/RTS_support.h **** //              MPY32 control functions.                  //
   7:../Common/IQMath/ti/./support/RTS_support.h **** //                                                        //
   8:../Common/IQMath/ti/./support/RTS_support.h **** ////////////////////////////////////////////////////////////
   9:../Common/IQMath/ti/./support/RTS_support.h **** #if defined (__TI_COMPILER_VERSION__)
  10:../Common/IQMath/ti/./support/RTS_support.h ****     #pragma FUNC_ALWAYS_INLINE(__mpy_start)
  11:../Common/IQMath/ti/./support/RTS_support.h **** #elif defined(__IAR_SYSTEMS_ICC__)
  12:../Common/IQMath/ti/./support/RTS_support.h ****     #pragma inline=forced
  13:../Common/IQMath/ti/./support/RTS_support.h **** #endif
  14:../Common/IQMath/ti/./support/RTS_support.h **** static inline void __mpy_start(uint_fast16_t *ui16IntState, uint_fast16_t *ui16MPYState)
  15:../Common/IQMath/ti/./support/RTS_support.h **** {
ARM GAS  C:\Users\57308\AppData\Local\Temp\cc4OkGld.s 			page 7


  16:../Common/IQMath/ti/./support/RTS_support.h ****     /* Do nothing. */
  17:../Common/IQMath/ti/./support/RTS_support.h ****     return;
  18:../Common/IQMath/ti/./support/RTS_support.h **** }
  19:../Common/IQMath/ti/./support/RTS_support.h **** 
  20:../Common/IQMath/ti/./support/RTS_support.h **** #if defined (__TI_COMPILER_VERSION__)
  21:../Common/IQMath/ti/./support/RTS_support.h ****     #pragma FUNC_ALWAYS_INLINE(__mpyf_start)
  22:../Common/IQMath/ti/./support/RTS_support.h **** #elif defined(__IAR_SYSTEMS_ICC__)
  23:../Common/IQMath/ti/./support/RTS_support.h ****     #pragma inline=forced
  24:../Common/IQMath/ti/./support/RTS_support.h **** #endif
  25:../Common/IQMath/ti/./support/RTS_support.h **** static inline void __mpyf_start(uint_fast16_t *ui16IntState, uint_fast16_t *ui16MPYState)
  26:../Common/IQMath/ti/./support/RTS_support.h **** {
  27:../Common/IQMath/ti/./support/RTS_support.h ****     /* Do nothing. */
  28:../Common/IQMath/ti/./support/RTS_support.h ****     return;
  98              		.loc 2 28 5 is_stmt 1 view .LVU31
  99              	.LBB36:
 100              	.LBB34:
 145:../Common/IQMath/ti/_IQNasin_acos.c ****     
 101              		.loc 1 145 5 view .LVU32
 145:../Common/IQMath/ti/_IQNasin_acos.c ****     
 102              		.loc 1 145 18 is_stmt 0 view .LVU33
 103 0026 51F82330 		ldr	r3, [r1, r3, lsl #2]
 104              	.LVL9:
 105              	.LBB26:
 106              	.LBI26:
  29:../Common/IQMath/ti/./support/RTS_support.h **** }
  30:../Common/IQMath/ti/./support/RTS_support.h **** 
  31:../Common/IQMath/ti/./support/RTS_support.h **** #if defined (__TI_COMPILER_VERSION__)
  32:../Common/IQMath/ti/./support/RTS_support.h ****     #pragma FUNC_ALWAYS_INLINE(__mpyfs_start)
  33:../Common/IQMath/ti/./support/RTS_support.h **** #elif defined(__IAR_SYSTEMS_ICC__)
  34:../Common/IQMath/ti/./support/RTS_support.h ****     #pragma inline=forced
  35:../Common/IQMath/ti/./support/RTS_support.h **** #endif
  36:../Common/IQMath/ti/./support/RTS_support.h **** static inline void __mpyfs_start(uint_fast16_t *ui16IntState, uint_fast16_t *ui16MPYState)
  37:../Common/IQMath/ti/./support/RTS_support.h **** {
  38:../Common/IQMath/ti/./support/RTS_support.h ****     /* Do nothing. */
  39:../Common/IQMath/ti/./support/RTS_support.h ****     return;
  40:../Common/IQMath/ti/./support/RTS_support.h **** }
  41:../Common/IQMath/ti/./support/RTS_support.h **** 
  42:../Common/IQMath/ti/./support/RTS_support.h **** #if defined (__TI_COMPILER_VERSION__)
  43:../Common/IQMath/ti/./support/RTS_support.h ****     #pragma FUNC_ALWAYS_INLINE(__mpy_clear_ctl0)
  44:../Common/IQMath/ti/./support/RTS_support.h **** #elif defined(__IAR_SYSTEMS_ICC__)
  45:../Common/IQMath/ti/./support/RTS_support.h ****     #pragma inline=forced
  46:../Common/IQMath/ti/./support/RTS_support.h **** #endif
  47:../Common/IQMath/ti/./support/RTS_support.h **** static inline void __mpy_clear_ctl0(void)
  48:../Common/IQMath/ti/./support/RTS_support.h **** {
  49:../Common/IQMath/ti/./support/RTS_support.h ****     /* Do nothing. */
  50:../Common/IQMath/ti/./support/RTS_support.h ****     return;
  51:../Common/IQMath/ti/./support/RTS_support.h **** }
  52:../Common/IQMath/ti/./support/RTS_support.h **** 
  53:../Common/IQMath/ti/./support/RTS_support.h **** #if defined (__TI_COMPILER_VERSION__)
  54:../Common/IQMath/ti/./support/RTS_support.h ****     #pragma FUNC_ALWAYS_INLINE(__mpy_set_frac)
  55:../Common/IQMath/ti/./support/RTS_support.h **** #elif defined(__IAR_SYSTEMS_ICC__)
  56:../Common/IQMath/ti/./support/RTS_support.h ****     #pragma inline=forced
  57:../Common/IQMath/ti/./support/RTS_support.h **** #endif
  58:../Common/IQMath/ti/./support/RTS_support.h **** static inline void __mpy_set_frac(void)
  59:../Common/IQMath/ti/./support/RTS_support.h **** {
  60:../Common/IQMath/ti/./support/RTS_support.h ****     /* Do nothing. */
  61:../Common/IQMath/ti/./support/RTS_support.h ****     return;
ARM GAS  C:\Users\57308\AppData\Local\Temp\cc4OkGld.s 			page 8


  62:../Common/IQMath/ti/./support/RTS_support.h **** }
  63:../Common/IQMath/ti/./support/RTS_support.h **** 
  64:../Common/IQMath/ti/./support/RTS_support.h **** #if defined (__TI_COMPILER_VERSION__)
  65:../Common/IQMath/ti/./support/RTS_support.h ****     #pragma FUNC_ALWAYS_INLINE(__mpy_stop)
  66:../Common/IQMath/ti/./support/RTS_support.h **** #elif defined(__IAR_SYSTEMS_ICC__)
  67:../Common/IQMath/ti/./support/RTS_support.h ****     #pragma inline=forced
  68:../Common/IQMath/ti/./support/RTS_support.h **** #endif
  69:../Common/IQMath/ti/./support/RTS_support.h **** static inline void __mpy_stop(uint_fast16_t *ui16IntState, uint_fast16_t *ui16MPYState)
  70:../Common/IQMath/ti/./support/RTS_support.h **** {
  71:../Common/IQMath/ti/./support/RTS_support.h ****     /* Do nothing. */
  72:../Common/IQMath/ti/./support/RTS_support.h ****     return;
  73:../Common/IQMath/ti/./support/RTS_support.h **** }
  74:../Common/IQMath/ti/./support/RTS_support.h **** 
  75:../Common/IQMath/ti/./support/RTS_support.h **** ////////////////////////////////////////////////////////////
  76:../Common/IQMath/ti/./support/RTS_support.h **** //                                                        //
  77:../Common/IQMath/ti/./support/RTS_support.h **** //                16-bit functions                        //
  78:../Common/IQMath/ti/./support/RTS_support.h **** //                                                        //
  79:../Common/IQMath/ti/./support/RTS_support.h **** ////////////////////////////////////////////////////////////
  80:../Common/IQMath/ti/./support/RTS_support.h **** #if defined (__TI_COMPILER_VERSION__)
  81:../Common/IQMath/ti/./support/RTS_support.h ****     #pragma FUNC_ALWAYS_INLINE(__mpy_w)
  82:../Common/IQMath/ti/./support/RTS_support.h **** #elif defined(__IAR_SYSTEMS_ICC__)
  83:../Common/IQMath/ti/./support/RTS_support.h ****     #pragma inline=forced
  84:../Common/IQMath/ti/./support/RTS_support.h **** #endif
  85:../Common/IQMath/ti/./support/RTS_support.h **** static inline int_fast16_t __mpy_w(int_fast16_t arg1, int_fast16_t arg2)
  86:../Common/IQMath/ti/./support/RTS_support.h **** {
  87:../Common/IQMath/ti/./support/RTS_support.h ****     return (arg1 * arg2);
  88:../Common/IQMath/ti/./support/RTS_support.h **** }
  89:../Common/IQMath/ti/./support/RTS_support.h **** 
  90:../Common/IQMath/ti/./support/RTS_support.h **** #if defined (__TI_COMPILER_VERSION__)
  91:../Common/IQMath/ti/./support/RTS_support.h ****     #pragma FUNC_ALWAYS_INLINE(__mpy_uw)
  92:../Common/IQMath/ti/./support/RTS_support.h **** #elif defined(__IAR_SYSTEMS_ICC__)
  93:../Common/IQMath/ti/./support/RTS_support.h ****     #pragma inline=forced
  94:../Common/IQMath/ti/./support/RTS_support.h **** #endif
  95:../Common/IQMath/ti/./support/RTS_support.h **** static inline uint_fast16_t __mpy_uw(uint_fast16_t arg1, uint_fast16_t arg2)
  96:../Common/IQMath/ti/./support/RTS_support.h **** {
  97:../Common/IQMath/ti/./support/RTS_support.h ****     return (arg1 * arg2);
  98:../Common/IQMath/ti/./support/RTS_support.h **** }
  99:../Common/IQMath/ti/./support/RTS_support.h **** 
 100:../Common/IQMath/ti/./support/RTS_support.h **** #if defined (__TI_COMPILER_VERSION__)
 101:../Common/IQMath/ti/./support/RTS_support.h ****     #pragma FUNC_ALWAYS_INLINE(__mpyx_w)
 102:../Common/IQMath/ti/./support/RTS_support.h **** #elif defined(__IAR_SYSTEMS_ICC__)
 103:../Common/IQMath/ti/./support/RTS_support.h ****     #pragma inline=forced
 104:../Common/IQMath/ti/./support/RTS_support.h **** #endif
 105:../Common/IQMath/ti/./support/RTS_support.h **** static inline int_fast32_t __mpyx_w(int_fast16_t arg1, int_fast16_t arg2)
 106:../Common/IQMath/ti/./support/RTS_support.h **** {
 107:../Common/IQMath/ti/./support/RTS_support.h ****     return ((int_fast32_t)arg1 * (int_fast32_t)arg2);
 108:../Common/IQMath/ti/./support/RTS_support.h **** }
 109:../Common/IQMath/ti/./support/RTS_support.h **** 
 110:../Common/IQMath/ti/./support/RTS_support.h **** #if defined (__TI_COMPILER_VERSION__)
 111:../Common/IQMath/ti/./support/RTS_support.h ****     #pragma FUNC_ALWAYS_INLINE(__mpyx_uw)
 112:../Common/IQMath/ti/./support/RTS_support.h **** #elif defined(__IAR_SYSTEMS_ICC__)
 113:../Common/IQMath/ti/./support/RTS_support.h ****     #pragma inline=forced
 114:../Common/IQMath/ti/./support/RTS_support.h **** #endif
 115:../Common/IQMath/ti/./support/RTS_support.h **** static inline uint_fast32_t __mpyx_uw(uint_fast16_t arg1, uint_fast16_t arg2)
 116:../Common/IQMath/ti/./support/RTS_support.h **** {
 117:../Common/IQMath/ti/./support/RTS_support.h ****     return ((uint_fast32_t)arg1 * (uint_fast32_t)arg2);
 118:../Common/IQMath/ti/./support/RTS_support.h **** }
ARM GAS  C:\Users\57308\AppData\Local\Temp\cc4OkGld.s 			page 9


 119:../Common/IQMath/ti/./support/RTS_support.h **** 
 120:../Common/IQMath/ti/./support/RTS_support.h **** #if defined (__TI_COMPILER_VERSION__)
 121:../Common/IQMath/ti/./support/RTS_support.h ****     #pragma FUNC_ALWAYS_INLINE(__mpyf_w)
 122:../Common/IQMath/ti/./support/RTS_support.h **** #elif defined(__IAR_SYSTEMS_ICC__)
 123:../Common/IQMath/ti/./support/RTS_support.h ****     #pragma inline=forced
 124:../Common/IQMath/ti/./support/RTS_support.h **** #endif
 125:../Common/IQMath/ti/./support/RTS_support.h **** static inline int_fast16_t __mpyf_w(int_fast16_t arg1, int_fast16_t arg2)
 126:../Common/IQMath/ti/./support/RTS_support.h **** {
 127:../Common/IQMath/ti/./support/RTS_support.h ****     return (int_fast16_t)(((int_fast32_t)arg1 * (int_fast32_t)arg2) >> 15);
 128:../Common/IQMath/ti/./support/RTS_support.h **** }
 129:../Common/IQMath/ti/./support/RTS_support.h **** 
 130:../Common/IQMath/ti/./support/RTS_support.h **** #if defined (__TI_COMPILER_VERSION__)
 131:../Common/IQMath/ti/./support/RTS_support.h ****     #pragma FUNC_ALWAYS_INLINE(__mpyf_w_reuse_arg1)
 132:../Common/IQMath/ti/./support/RTS_support.h **** #elif defined(__IAR_SYSTEMS_ICC__)
 133:../Common/IQMath/ti/./support/RTS_support.h ****     #pragma inline=forced
 134:../Common/IQMath/ti/./support/RTS_support.h **** #endif
 135:../Common/IQMath/ti/./support/RTS_support.h **** static inline int_fast16_t __mpyf_w_reuse_arg1(int_fast16_t arg1, int_fast16_t arg2)
 136:../Common/IQMath/ti/./support/RTS_support.h **** {
 137:../Common/IQMath/ti/./support/RTS_support.h ****     /* This is identical to __mpyf_w */
 138:../Common/IQMath/ti/./support/RTS_support.h ****     return (int_fast16_t)(((int_fast32_t)arg1 * (int_fast32_t)arg2) >> 15);
 139:../Common/IQMath/ti/./support/RTS_support.h **** }
 140:../Common/IQMath/ti/./support/RTS_support.h **** 
 141:../Common/IQMath/ti/./support/RTS_support.h **** #if defined (__TI_COMPILER_VERSION__)
 142:../Common/IQMath/ti/./support/RTS_support.h ****     #pragma FUNC_ALWAYS_INLINE(__mpyf_uw)
 143:../Common/IQMath/ti/./support/RTS_support.h **** #elif defined(__IAR_SYSTEMS_ICC__)
 144:../Common/IQMath/ti/./support/RTS_support.h ****     #pragma inline=forced
 145:../Common/IQMath/ti/./support/RTS_support.h **** #endif
 146:../Common/IQMath/ti/./support/RTS_support.h **** static inline uint_fast16_t __mpyf_uw(uint_fast16_t arg1, uint_fast16_t arg2)
 147:../Common/IQMath/ti/./support/RTS_support.h **** {
 148:../Common/IQMath/ti/./support/RTS_support.h ****     return (uint_fast16_t)(((uint_fast32_t)arg1 * (uint_fast32_t)arg2) >> 15);
 149:../Common/IQMath/ti/./support/RTS_support.h **** }
 150:../Common/IQMath/ti/./support/RTS_support.h **** 
 151:../Common/IQMath/ti/./support/RTS_support.h **** #if defined (__TI_COMPILER_VERSION__)
 152:../Common/IQMath/ti/./support/RTS_support.h ****     #pragma FUNC_ALWAYS_INLINE(__mpyf_uw_reuse_arg1)
 153:../Common/IQMath/ti/./support/RTS_support.h **** #elif defined(__IAR_SYSTEMS_ICC__)
 154:../Common/IQMath/ti/./support/RTS_support.h ****     #pragma inline=forced
 155:../Common/IQMath/ti/./support/RTS_support.h **** #endif
 156:../Common/IQMath/ti/./support/RTS_support.h **** static inline uint_fast16_t __mpyf_uw_reuse_arg1(uint_fast16_t arg1, uint_fast16_t arg2)
 157:../Common/IQMath/ti/./support/RTS_support.h **** {
 158:../Common/IQMath/ti/./support/RTS_support.h ****     /* This is identical to __mpyf_uw */
 159:../Common/IQMath/ti/./support/RTS_support.h ****     return (uint_fast16_t)(((uint_fast32_t)arg1 * (uint_fast32_t)arg2) >> 15);
 160:../Common/IQMath/ti/./support/RTS_support.h **** }
 161:../Common/IQMath/ti/./support/RTS_support.h **** 
 162:../Common/IQMath/ti/./support/RTS_support.h **** #if defined (__TI_COMPILER_VERSION__)
 163:../Common/IQMath/ti/./support/RTS_support.h ****     #pragma FUNC_ALWAYS_INLINE(__mpyfx_w)
 164:../Common/IQMath/ti/./support/RTS_support.h **** #elif defined(__IAR_SYSTEMS_ICC__)
 165:../Common/IQMath/ti/./support/RTS_support.h ****     #pragma inline=forced
 166:../Common/IQMath/ti/./support/RTS_support.h **** #endif
 167:../Common/IQMath/ti/./support/RTS_support.h **** static inline int_fast32_t __mpyfx_w(int_fast16_t arg1, int_fast16_t arg2)
 168:../Common/IQMath/ti/./support/RTS_support.h **** {
 169:../Common/IQMath/ti/./support/RTS_support.h ****     return (((int_fast32_t)arg1 * (int_fast32_t)arg2) << 1);
 170:../Common/IQMath/ti/./support/RTS_support.h **** }
 171:../Common/IQMath/ti/./support/RTS_support.h **** 
 172:../Common/IQMath/ti/./support/RTS_support.h **** #if defined (__TI_COMPILER_VERSION__)
 173:../Common/IQMath/ti/./support/RTS_support.h ****     #pragma FUNC_ALWAYS_INLINE(__mpyfx_uw)
 174:../Common/IQMath/ti/./support/RTS_support.h **** #elif defined(__IAR_SYSTEMS_ICC__)
 175:../Common/IQMath/ti/./support/RTS_support.h ****     #pragma inline=forced
ARM GAS  C:\Users\57308\AppData\Local\Temp\cc4OkGld.s 			page 10


 176:../Common/IQMath/ti/./support/RTS_support.h **** #endif
 177:../Common/IQMath/ti/./support/RTS_support.h **** static inline int_fast32_t __mpyfx_uw(uint_fast16_t arg1, uint_fast16_t arg2)
 178:../Common/IQMath/ti/./support/RTS_support.h **** {
 179:../Common/IQMath/ti/./support/RTS_support.h ****     return (((uint_fast32_t)arg1 * (uint_fast32_t)arg2) << 1);
 180:../Common/IQMath/ti/./support/RTS_support.h **** }
 181:../Common/IQMath/ti/./support/RTS_support.h **** 
 182:../Common/IQMath/ti/./support/RTS_support.h **** 
 183:../Common/IQMath/ti/./support/RTS_support.h **** ////////////////////////////////////////////////////////////
 184:../Common/IQMath/ti/./support/RTS_support.h **** //                                                        //
 185:../Common/IQMath/ti/./support/RTS_support.h **** //                 32-bit functions                       //
 186:../Common/IQMath/ti/./support/RTS_support.h **** //                                                        //
 187:../Common/IQMath/ti/./support/RTS_support.h **** ////////////////////////////////////////////////////////////
 188:../Common/IQMath/ti/./support/RTS_support.h **** #if defined (__TI_COMPILER_VERSION__)
 189:../Common/IQMath/ti/./support/RTS_support.h ****     #pragma FUNC_ALWAYS_INLINE(__mpy_l)
 190:../Common/IQMath/ti/./support/RTS_support.h **** #elif defined(__IAR_SYSTEMS_ICC__)
 191:../Common/IQMath/ti/./support/RTS_support.h ****     #pragma inline=forced
 192:../Common/IQMath/ti/./support/RTS_support.h **** #endif
 193:../Common/IQMath/ti/./support/RTS_support.h **** static inline int_fast32_t __mpy_l(int_fast32_t arg1, int_fast32_t arg2)
 194:../Common/IQMath/ti/./support/RTS_support.h **** {
 195:../Common/IQMath/ti/./support/RTS_support.h ****     return (arg1 * arg2);
 196:../Common/IQMath/ti/./support/RTS_support.h **** }
 197:../Common/IQMath/ti/./support/RTS_support.h **** 
 198:../Common/IQMath/ti/./support/RTS_support.h **** #if defined (__TI_COMPILER_VERSION__)
 199:../Common/IQMath/ti/./support/RTS_support.h ****     #pragma FUNC_ALWAYS_INLINE(__mpy_ul)
 200:../Common/IQMath/ti/./support/RTS_support.h **** #elif defined(__IAR_SYSTEMS_ICC__)
 201:../Common/IQMath/ti/./support/RTS_support.h ****     #pragma inline=forced
 202:../Common/IQMath/ti/./support/RTS_support.h **** #endif
 203:../Common/IQMath/ti/./support/RTS_support.h **** static inline uint_fast32_t __mpy_ul(uint_fast32_t arg1, uint_fast32_t arg2)
 204:../Common/IQMath/ti/./support/RTS_support.h **** {
 205:../Common/IQMath/ti/./support/RTS_support.h ****     return (arg1 * arg2);
 206:../Common/IQMath/ti/./support/RTS_support.h **** }
 207:../Common/IQMath/ti/./support/RTS_support.h **** 
 208:../Common/IQMath/ti/./support/RTS_support.h **** #if defined (__TI_COMPILER_VERSION__)
 209:../Common/IQMath/ti/./support/RTS_support.h ****     #pragma FUNC_ALWAYS_INLINE(__mpyx)
 210:../Common/IQMath/ti/./support/RTS_support.h **** #elif defined(__IAR_SYSTEMS_ICC__)
 211:../Common/IQMath/ti/./support/RTS_support.h ****     #pragma inline=forced
 212:../Common/IQMath/ti/./support/RTS_support.h **** #endif
 213:../Common/IQMath/ti/./support/RTS_support.h **** static inline int_fast64_t __mpyx(int_fast32_t arg1, int_fast32_t arg2)
 214:../Common/IQMath/ti/./support/RTS_support.h **** {
 215:../Common/IQMath/ti/./support/RTS_support.h ****     return ((int_fast64_t)arg1 * (int_fast64_t)arg2);
 216:../Common/IQMath/ti/./support/RTS_support.h **** }
 217:../Common/IQMath/ti/./support/RTS_support.h **** 
 218:../Common/IQMath/ti/./support/RTS_support.h **** #if defined (__TI_COMPILER_VERSION__)
 219:../Common/IQMath/ti/./support/RTS_support.h ****     #pragma FUNC_ALWAYS_INLINE(__mpyx_u)
 220:../Common/IQMath/ti/./support/RTS_support.h **** #elif defined(__IAR_SYSTEMS_ICC__)
 221:../Common/IQMath/ti/./support/RTS_support.h ****     #pragma inline=forced
 222:../Common/IQMath/ti/./support/RTS_support.h **** #endif
 223:../Common/IQMath/ti/./support/RTS_support.h **** static inline uint_fast64_t __mpyx_u(uint_fast32_t arg1, uint_fast32_t arg2)
 224:../Common/IQMath/ti/./support/RTS_support.h **** {
 225:../Common/IQMath/ti/./support/RTS_support.h ****     return ((uint_fast64_t)arg1 * (uint_fast64_t)arg2);
 226:../Common/IQMath/ti/./support/RTS_support.h **** }
 227:../Common/IQMath/ti/./support/RTS_support.h **** 
 228:../Common/IQMath/ti/./support/RTS_support.h **** #if defined (__TI_COMPILER_VERSION__)
 229:../Common/IQMath/ti/./support/RTS_support.h ****     #pragma FUNC_ALWAYS_INLINE(__mpyf_l)
 230:../Common/IQMath/ti/./support/RTS_support.h **** #elif defined(__IAR_SYSTEMS_ICC__)
 231:../Common/IQMath/ti/./support/RTS_support.h ****     #pragma inline=forced
 232:../Common/IQMath/ti/./support/RTS_support.h **** #endif
ARM GAS  C:\Users\57308\AppData\Local\Temp\cc4OkGld.s 			page 11


 233:../Common/IQMath/ti/./support/RTS_support.h **** static inline int_fast32_t __mpyf_l(int_fast32_t arg1, int_fast32_t arg2)
 107              		.loc 2 233 28 is_stmt 1 view .LVU34
 108              	.LBB27:
 234:../Common/IQMath/ti/./support/RTS_support.h **** {
 235:../Common/IQMath/ti/./support/RTS_support.h ****     return (int_fast32_t)(((int_fast64_t)arg1 * (int_fast64_t)arg2) >> 31);
 109              		.loc 2 235 5 view .LVU35
 110              		.loc 2 235 28 is_stmt 0 view .LVU36
 111 002a 4FEAE07C 		asr	ip, r0, #31
 112              		.loc 2 235 49 view .LVU37
 113 002e D917     		asrs	r1, r3, #31
 114              		.loc 2 235 47 view .LVU38
 115 0030 00FB01F1 		mul	r1, r0, r1
 116 0034 03FB0C11 		mla	r1, r3, ip, r1
 117 0038 A0FB033E 		umull	r3, lr, r0, r3
 118              	.LVL10:
 119              		.loc 2 235 47 view .LVU39
 120 003c 7144     		add	r1, r1, lr
 121              		.loc 2 235 69 view .LVU40
 122 003e DB0F     		lsrs	r3, r3, #31
 123 0040 43EA4103 		orr	r3, r3, r1, lsl #1
 124              	.LVL11:
 125              		.loc 2 235 69 view .LVU41
 126              	.LBE27:
 127              	.LBE26:
 148:../Common/IQMath/ti/_IQNasin_acos.c ****     
 128              		.loc 1 148 5 is_stmt 1 view .LVU42
 148:../Common/IQMath/ti/_IQNasin_acos.c ****     
 129              		.loc 1 148 31 is_stmt 0 view .LVU43
 130 0044 5168     		ldr	r1, [r2, #4]
 148:../Common/IQMath/ti/_IQNasin_acos.c ****     
 131              		.loc 1 148 16 view .LVU44
 132 0046 0B44     		add	r3, r3, r1
 133              	.LVL12:
 151:../Common/IQMath/ti/_IQNasin_acos.c ****     
 134              		.loc 1 151 5 is_stmt 1 view .LVU45
 135              	.LBB28:
 136              	.LBI28:
 233:../Common/IQMath/ti/./support/RTS_support.h **** {
 137              		.loc 2 233 28 view .LVU46
 138              	.LBB29:
 139              		.loc 2 235 5 view .LVU47
 140              		.loc 2 235 49 is_stmt 0 view .LVU48
 141 0048 D917     		asrs	r1, r3, #31
 142              		.loc 2 235 47 view .LVU49
 143 004a 00FB01F1 		mul	r1, r0, r1
 144 004e 03FB0C11 		mla	r1, r3, ip, r1
 145 0052 A0FB033E 		umull	r3, lr, r0, r3
 146              	.LVL13:
 147              		.loc 2 235 47 view .LVU50
 148 0056 7144     		add	r1, r1, lr
 149              		.loc 2 235 69 view .LVU51
 150 0058 DB0F     		lsrs	r3, r3, #31
 151 005a 43EA4103 		orr	r3, r3, r1, lsl #1
 152              	.LVL14:
 153              		.loc 2 235 69 view .LVU52
 154              	.LBE29:
 155              	.LBE28:
ARM GAS  C:\Users\57308\AppData\Local\Temp\cc4OkGld.s 			page 12


 154:../Common/IQMath/ti/_IQNasin_acos.c ****     
 156              		.loc 1 154 5 is_stmt 1 view .LVU53
 154:../Common/IQMath/ti/_IQNasin_acos.c ****     
 157              		.loc 1 154 31 is_stmt 0 view .LVU54
 158 005e 9168     		ldr	r1, [r2, #8]
 154:../Common/IQMath/ti/_IQNasin_acos.c ****     
 159              		.loc 1 154 16 view .LVU55
 160 0060 0B44     		add	r3, r3, r1
 161              	.LVL15:
 157:../Common/IQMath/ti/_IQNasin_acos.c ****     
 162              		.loc 1 157 5 is_stmt 1 view .LVU56
 163              	.LBB30:
 164              	.LBI30:
 233:../Common/IQMath/ti/./support/RTS_support.h **** {
 165              		.loc 2 233 28 view .LVU57
 166              	.LBB31:
 167              		.loc 2 235 5 view .LVU58
 168              		.loc 2 235 49 is_stmt 0 view .LVU59
 169 0062 D917     		asrs	r1, r3, #31
 170              		.loc 2 235 47 view .LVU60
 171 0064 00FB01F1 		mul	r1, r0, r1
 172 0068 03FB0C11 		mla	r1, r3, ip, r1
 173 006c A0FB033E 		umull	r3, lr, r0, r3
 174              	.LVL16:
 175              		.loc 2 235 47 view .LVU61
 176 0070 7144     		add	r1, r1, lr
 177              		.loc 2 235 69 view .LVU62
 178 0072 DB0F     		lsrs	r3, r3, #31
 179 0074 43EA4103 		orr	r3, r3, r1, lsl #1
 180              	.LVL17:
 181              		.loc 2 235 69 view .LVU63
 182              	.LBE31:
 183              	.LBE30:
 160:../Common/IQMath/ti/_IQNasin_acos.c ****     
 184              		.loc 1 160 5 is_stmt 1 view .LVU64
 160:../Common/IQMath/ti/_IQNasin_acos.c ****     
 185              		.loc 1 160 31 is_stmt 0 view .LVU65
 186 0078 D168     		ldr	r1, [r2, #12]
 160:../Common/IQMath/ti/_IQNasin_acos.c ****     
 187              		.loc 1 160 16 view .LVU66
 188 007a 0B44     		add	r3, r3, r1
 189              	.LVL18:
 163:../Common/IQMath/ti/_IQNasin_acos.c ****     
 190              		.loc 1 163 5 is_stmt 1 view .LVU67
 191              	.LBB32:
 192              	.LBI32:
 233:../Common/IQMath/ti/./support/RTS_support.h **** {
 193              		.loc 2 233 28 view .LVU68
 194              	.LBB33:
 195              		.loc 2 235 5 view .LVU69
 196              		.loc 2 235 49 is_stmt 0 view .LVU70
 197 007c D917     		asrs	r1, r3, #31
 198              		.loc 2 235 47 view .LVU71
 199 007e 00FB01F1 		mul	r1, r0, r1
 200 0082 03FB0C11 		mla	r1, r3, ip, r1
 201 0086 A0FB0303 		umull	r0, r3, r0, r3
 202              	.LVL19:
ARM GAS  C:\Users\57308\AppData\Local\Temp\cc4OkGld.s 			page 13


 203              		.loc 2 235 47 view .LVU72
 204 008a 0B44     		add	r3, r3, r1
 205              		.loc 2 235 69 view .LVU73
 206 008c C00F     		lsrs	r0, r0, #31
 207 008e 40EA4300 		orr	r0, r0, r3, lsl #1
 208              	.LVL20:
 209              		.loc 2 235 69 view .LVU74
 210              	.LBE33:
 211              	.LBE32:
 166:../Common/IQMath/ti/_IQNasin_acos.c ****     
 212              		.loc 1 166 5 is_stmt 1 view .LVU75
 166:../Common/IQMath/ti/_IQNasin_acos.c ****     
 213              		.loc 1 166 31 is_stmt 0 view .LVU76
 214 0092 1369     		ldr	r3, [r2, #16]
 166:../Common/IQMath/ti/_IQNasin_acos.c ****     
 215              		.loc 1 166 16 view .LVU77
 216 0094 1844     		add	r0, r0, r3
 217              	.LVL21:
 172:../Common/IQMath/ti/_IQNasin_acos.c ****     
 218              		.loc 1 172 5 is_stmt 1 view .LVU78
 172:../Common/IQMath/ti/_IQNasin_acos.c ****     
 219              		.loc 1 172 5 is_stmt 0 view .LVU79
 220              	.LBE34:
 221              	.LBE36:
  72:../Common/IQMath/ti/./support/RTS_support.h **** }
 222              		.loc 2 72 5 is_stmt 1 view .LVU80
 223              	.LBB37:
 224              	.LBB35:
 175:../Common/IQMath/ti/_IQNasin_acos.c ****         /* asin(x) = pi/2 - 2*iq29Result */
 225              		.loc 1 175 5 view .LVU81
 175:../Common/IQMath/ti/_IQNasin_acos.c ****         /* asin(x) = pi/2 - 2*iq29Result */
 226              		.loc 1 175 8 is_stmt 0 view .LVU82
 227 0096 14F0020F 		tst	r4, #2
 228 009a 02D0     		beq	.L5
 177:../Common/IQMath/ti/_IQNasin_acos.c ****         iq29Result -= iq29_halfPi;      // this is equivalent to the above
 229              		.loc 1 177 9 is_stmt 1 view .LVU83
 230              	.LVL22:
 178:../Common/IQMath/ti/_IQNasin_acos.c ****         iq29Result = -iq29Result;       // but avoids using temporary registers
 231              		.loc 1 178 9 view .LVU84
 179:../Common/IQMath/ti/_IQNasin_acos.c ****     }
 232              		.loc 1 179 9 view .LVU85
 179:../Common/IQMath/ti/_IQNasin_acos.c ****     }
 233              		.loc 1 179 20 is_stmt 0 view .LVU86
 234 009c 0A4B     		ldr	r3, .L11+4
 235 009e A3EB4000 		sub	r0, r3, r0, lsl #1
 236              	.LVL23:
 237              	.L5:
 183:../Common/IQMath/ti/_IQNasin_acos.c ****     
 238              		.loc 1 183 5 is_stmt 1 view .LVU87
 186:../Common/IQMath/ti/_IQNasin_acos.c ****         iq29Result = -iq29Result;
 239              		.loc 1 186 5 view .LVU88
 186:../Common/IQMath/ti/_IQNasin_acos.c ****         iq29Result = -iq29Result;
 240              		.loc 1 186 8 is_stmt 0 view .LVU89
 241 00a2 14F0010F 		tst	r4, #1
 242 00a6 0BD0     		beq	.L1
 187:../Common/IQMath/ti/_IQNasin_acos.c ****     }
 243              		.loc 1 187 9 is_stmt 1 view .LVU90
ARM GAS  C:\Users\57308\AppData\Local\Temp\cc4OkGld.s 			page 14


 187:../Common/IQMath/ti/_IQNasin_acos.c ****     }
 244              		.loc 1 187 20 is_stmt 0 view .LVU91
 245 00a8 4042     		rsbs	r0, r0, #0
 246              	.LVL24:
 187:../Common/IQMath/ti/_IQNasin_acos.c ****     }
 247              		.loc 1 187 20 view .LVU92
 248 00aa 09E0     		b	.L1
 249              	.LVL25:
 250              	.L9:
  90:../Common/IQMath/ti/_IQNasin_acos.c ****         iqNInput = -iqNInput;
 251              		.loc 1 90 9 is_stmt 1 view .LVU93
  91:../Common/IQMath/ti/_IQNasin_acos.c ****     }
 252              		.loc 1 91 9 view .LVU94
  91:../Common/IQMath/ti/_IQNasin_acos.c ****     }
 253              		.loc 1 91 18 is_stmt 0 view .LVU95
 254 00ac 4042     		rsbs	r0, r0, #0
 255              	.LVL26:
  90:../Common/IQMath/ti/_IQNasin_acos.c ****         iqNInput = -iqNInput;
 256              		.loc 1 90 19 view .LVU96
 257 00ae 0124     		movs	r4, #1
 258 00b0 AAE7     		b	.L2
 259              	.LVL27:
 260              	.L10:
 115:../Common/IQMath/ti/_IQNasin_acos.c ****         
 261              		.loc 1 115 9 is_stmt 1 view .LVU97
 118:../Common/IQMath/ti/_IQNasin_acos.c ****         
 262              		.loc 1 118 9 view .LVU98
 118:../Common/IQMath/ti/_IQNasin_acos.c ****         
 263              		.loc 1 118 22 is_stmt 0 view .LVU99
 264 00b2 5808     		lsrs	r0, r3, #1
 265              	.LVL28:
 118:../Common/IQMath/ti/_IQNasin_acos.c ****         
 266              		.loc 1 118 22 view .LVU100
 267 00b4 FFF7FEFF 		bl	_IQ31sqrt
 268              	.LVL29:
 121:../Common/IQMath/ti/_IQNasin_acos.c ****     }
 269              		.loc 1 121 9 is_stmt 1 view .LVU101
 121:../Common/IQMath/ti/_IQNasin_acos.c ****     }
 270              		.loc 1 121 19 is_stmt 0 view .LVU102
 271 00b8 44F00204 		orr	r4, r4, #2
 272              	.LVL30:
 121:../Common/IQMath/ti/_IQNasin_acos.c ****     }
 273              		.loc 1 121 19 view .LVU103
 274 00bc ADE7     		b	.L4
 275              	.LVL31:
 276              	.L7:
 100:../Common/IQMath/ti/_IQNasin_acos.c ****     }
 277              		.loc 1 100 16 view .LVU104
 278 00be 0020     		movs	r0, #0
 279              	.LVL32:
 280              	.L1:
 100:../Common/IQMath/ti/_IQNasin_acos.c ****     }
 281              		.loc 1 100 16 view .LVU105
 282              	.LBE35:
 283              	.LBE37:
 204:../Common/IQMath/ti/_IQNasin_acos.c **** }
 284              		.loc 1 204 1 view .LVU106
ARM GAS  C:\Users\57308\AppData\Local\Temp\cc4OkGld.s 			page 15


 285 00c0 10BD     		pop	{r4, pc}
 286              	.L12:
 287 00c2 00BF     		.align	2
 288              	.L11:
 289 00c4 00000000 		.word	_IQ29Asin_coeffs
 290 00c8 A8F64332 		.word	843314856
 291              		.cfi_endproc
 292              	.LFE262:
 294              		.section	.text._IQ28asin,"ax",%progbits
 295              		.align	1
 296              		.global	_IQ28asin
 297              		.syntax unified
 298              		.thumb
 299              		.thumb_func
 301              	_IQ28asin:
 302              	.LVL33:
 303              	.LFB263:
 205:../Common/IQMath/ti/_IQNasin_acos.c **** /**
 206:../Common/IQMath/ti/_IQNasin_acos.c ****  * @brief Computes the inverse sine of the IQ28 input.
 207:../Common/IQMath/ti/_IQNasin_acos.c ****  *
 208:../Common/IQMath/ti/_IQNasin_acos.c ****  * @param a               IQ28 type input.
 209:../Common/IQMath/ti/_IQNasin_acos.c ****  *
 210:../Common/IQMath/ti/_IQNasin_acos.c ****  * @return                IQ28 type result of inverse sine.
 211:../Common/IQMath/ti/_IQNasin_acos.c ****  */
 212:../Common/IQMath/ti/_IQNasin_acos.c **** int32_t _IQ28asin(int32_t a)
 213:../Common/IQMath/ti/_IQNasin_acos.c **** {
 304              		.loc 1 213 1 is_stmt 1 view -0
 305              		.cfi_startproc
 306              		@ args = 0, pretend = 0, frame = 0
 307              		@ frame_needed = 0, uses_anonymous_args = 0
 308              		.loc 1 213 1 is_stmt 0 view .LVU108
 309 0000 10B5     		push	{r4, lr}
 310              	.LCFI1:
 311              		.cfi_def_cfa_offset 8
 312              		.cfi_offset 4, -8
 313              		.cfi_offset 14, -4
 214:../Common/IQMath/ti/_IQNasin_acos.c ****     return __IQNasin(a, 28);
 314              		.loc 1 214 5 is_stmt 1 view .LVU109
 315              	.LVL34:
 316              	.LBB48:
 317              	.LBI48:
  70:../Common/IQMath/ti/_IQNasin_acos.c **** {
 318              		.loc 1 70 30 view .LVU110
 319              	.LBB49:
  72:../Common/IQMath/ti/_IQNasin_acos.c ****     uint_fast16_t index;
 320              		.loc 1 72 5 view .LVU111
  73:../Common/IQMath/ti/_IQNasin_acos.c ****     uint_fast16_t ui16IntState;
 321              		.loc 1 73 5 view .LVU112
  74:../Common/IQMath/ti/_IQNasin_acos.c ****     uint_fast16_t ui16MPYState;
 322              		.loc 1 74 5 view .LVU113
  75:../Common/IQMath/ti/_IQNasin_acos.c ****     int_fast32_t iq29Result;
 323              		.loc 1 75 5 view .LVU114
  76:../Common/IQMath/ti/_IQNasin_acos.c ****     const int_fast32_t *piq29Coeffs;
 324              		.loc 1 76 5 view .LVU115
  77:../Common/IQMath/ti/_IQNasin_acos.c ****     uint_fast32_t uiq31Input;
 325              		.loc 1 77 5 view .LVU116
  78:../Common/IQMath/ti/_IQNasin_acos.c ****     uint_fast32_t uiq31InputTemp;
ARM GAS  C:\Users\57308\AppData\Local\Temp\cc4OkGld.s 			page 16


 326              		.loc 1 78 5 view .LVU117
  79:../Common/IQMath/ti/_IQNasin_acos.c ****     
 327              		.loc 1 79 5 view .LVU118
  89:../Common/IQMath/ti/_IQNasin_acos.c ****         ui8Status |= 1;
 328              		.loc 1 89 5 view .LVU119
  89:../Common/IQMath/ti/_IQNasin_acos.c ****         ui8Status |= 1;
 329              		.loc 1 89 8 is_stmt 0 view .LVU120
 330 0002 0028     		cmp	r0, #0
  89:../Common/IQMath/ti/_IQNasin_acos.c ****         ui8Status |= 1;
 331              		.loc 1 89 8 view .LVU121
 332 0004 53DB     		blt	.L21
  72:../Common/IQMath/ti/_IQNasin_acos.c ****     uint_fast16_t index;
 333              		.loc 1 72 13 view .LVU122
 334 0006 0024     		movs	r4, #0
 335              	.LVL35:
 336              	.L14:
  99:../Common/IQMath/ti/_IQNasin_acos.c ****         return 0;
 337              		.loc 1 99 5 is_stmt 1 view .LVU123
  99:../Common/IQMath/ti/_IQNasin_acos.c ****         return 0;
 338              		.loc 1 99 8 is_stmt 0 view .LVU124
 339 0008 B0F1805F 		cmp	r0, #268435456
 340 000c 58D8     		bhi	.L19
 104:../Common/IQMath/ti/_IQNasin_acos.c ****     
 341              		.loc 1 104 5 is_stmt 1 view .LVU125
 104:../Common/IQMath/ti/_IQNasin_acos.c ****     
 342              		.loc 1 104 16 is_stmt 0 view .LVU126
 343 000e C000     		lsls	r0, r0, #3
 344              	.LVL36:
 112:../Common/IQMath/ti/_IQNasin_acos.c ****     if (uiq31InputTemp < 0x40000000) {
 345              		.loc 1 112 5 is_stmt 1 view .LVU127
 112:../Common/IQMath/ti/_IQNasin_acos.c ****     if (uiq31InputTemp < 0x40000000) {
 346              		.loc 1 112 20 is_stmt 0 view .LVU128
 347 0010 C0F10043 		rsb	r3, r0, #-2147483648
 348              	.LVL37:
 113:../Common/IQMath/ti/_IQNasin_acos.c ****         /* Halve the result. */
 349              		.loc 1 113 5 is_stmt 1 view .LVU129
 113:../Common/IQMath/ti/_IQNasin_acos.c ****         /* Halve the result. */
 350              		.loc 1 113 8 is_stmt 0 view .LVU130
 351 0014 B3F1804F 		cmp	r3, #1073741824
 352 0018 4CD3     		bcc	.L22
 353              	.LVL38:
 354              	.L16:
 125:../Common/IQMath/ti/_IQNasin_acos.c ****     
 355              		.loc 1 125 5 is_stmt 1 view .LVU131
 125:../Common/IQMath/ti/_IQNasin_acos.c ****     
 356              		.loc 1 125 11 is_stmt 0 view .LVU132
 357 001a 830E     		lsrs	r3, r0, #26
 358              	.LVL39:
 128:../Common/IQMath/ti/_IQNasin_acos.c ****     
 359              		.loc 1 128 5 is_stmt 1 view .LVU133
 128:../Common/IQMath/ti/_IQNasin_acos.c ****     
 360              		.loc 1 128 17 is_stmt 0 view .LVU134
 361 001c 03EB8303 		add	r3, r3, r3, lsl #2
 362              	.LVL40:
 128:../Common/IQMath/ti/_IQNasin_acos.c ****     
 363              		.loc 1 128 17 view .LVU135
 364 0020 2849     		ldr	r1, .L23
ARM GAS  C:\Users\57308\AppData\Local\Temp\cc4OkGld.s 			page 17


 365 0022 01EB8302 		add	r2, r1, r3, lsl #2
 366              	.LVL41:
 136:../Common/IQMath/ti/_IQNasin_acos.c ****     
 367              		.loc 1 136 5 is_stmt 1 view .LVU136
 136:../Common/IQMath/ti/_IQNasin_acos.c ****     
 368              		.loc 1 136 5 is_stmt 0 view .LVU137
 369              	.LBE49:
 370              	.LBE48:
  28:../Common/IQMath/ti/./support/RTS_support.h **** }
 371              		.loc 2 28 5 is_stmt 1 view .LVU138
 372              	.LBB60:
 373              	.LBB58:
 145:../Common/IQMath/ti/_IQNasin_acos.c ****     
 374              		.loc 1 145 5 view .LVU139
 145:../Common/IQMath/ti/_IQNasin_acos.c ****     
 375              		.loc 1 145 18 is_stmt 0 view .LVU140
 376 0026 51F82330 		ldr	r3, [r1, r3, lsl #2]
 377              	.LVL42:
 378              	.LBB50:
 379              	.LBI50:
 233:../Common/IQMath/ti/./support/RTS_support.h **** {
 380              		.loc 2 233 28 is_stmt 1 view .LVU141
 381              	.LBB51:
 382              		.loc 2 235 5 view .LVU142
 383              		.loc 2 235 28 is_stmt 0 view .LVU143
 384 002a 4FEAE07C 		asr	ip, r0, #31
 385              		.loc 2 235 49 view .LVU144
 386 002e D917     		asrs	r1, r3, #31
 387              		.loc 2 235 47 view .LVU145
 388 0030 00FB01F1 		mul	r1, r0, r1
 389 0034 03FB0C11 		mla	r1, r3, ip, r1
 390 0038 A0FB033E 		umull	r3, lr, r0, r3
 391              	.LVL43:
 392              		.loc 2 235 47 view .LVU146
 393 003c 7144     		add	r1, r1, lr
 394              		.loc 2 235 69 view .LVU147
 395 003e DB0F     		lsrs	r3, r3, #31
 396 0040 43EA4103 		orr	r3, r3, r1, lsl #1
 397              	.LVL44:
 398              		.loc 2 235 69 view .LVU148
 399              	.LBE51:
 400              	.LBE50:
 148:../Common/IQMath/ti/_IQNasin_acos.c ****     
 401              		.loc 1 148 5 is_stmt 1 view .LVU149
 148:../Common/IQMath/ti/_IQNasin_acos.c ****     
 402              		.loc 1 148 31 is_stmt 0 view .LVU150
 403 0044 5168     		ldr	r1, [r2, #4]
 148:../Common/IQMath/ti/_IQNasin_acos.c ****     
 404              		.loc 1 148 16 view .LVU151
 405 0046 0B44     		add	r3, r3, r1
 406              	.LVL45:
 151:../Common/IQMath/ti/_IQNasin_acos.c ****     
 407              		.loc 1 151 5 is_stmt 1 view .LVU152
 408              	.LBB52:
 409              	.LBI52:
 233:../Common/IQMath/ti/./support/RTS_support.h **** {
 410              		.loc 2 233 28 view .LVU153
ARM GAS  C:\Users\57308\AppData\Local\Temp\cc4OkGld.s 			page 18


 411              	.LBB53:
 412              		.loc 2 235 5 view .LVU154
 413              		.loc 2 235 49 is_stmt 0 view .LVU155
 414 0048 D917     		asrs	r1, r3, #31
 415              		.loc 2 235 47 view .LVU156
 416 004a 00FB01F1 		mul	r1, r0, r1
 417 004e 03FB0C11 		mla	r1, r3, ip, r1
 418 0052 A0FB033E 		umull	r3, lr, r0, r3
 419              	.LVL46:
 420              		.loc 2 235 47 view .LVU157
 421 0056 7144     		add	r1, r1, lr
 422              		.loc 2 235 69 view .LVU158
 423 0058 DB0F     		lsrs	r3, r3, #31
 424 005a 43EA4103 		orr	r3, r3, r1, lsl #1
 425              	.LVL47:
 426              		.loc 2 235 69 view .LVU159
 427              	.LBE53:
 428              	.LBE52:
 154:../Common/IQMath/ti/_IQNasin_acos.c ****     
 429              		.loc 1 154 5 is_stmt 1 view .LVU160
 154:../Common/IQMath/ti/_IQNasin_acos.c ****     
 430              		.loc 1 154 31 is_stmt 0 view .LVU161
 431 005e 9168     		ldr	r1, [r2, #8]
 154:../Common/IQMath/ti/_IQNasin_acos.c ****     
 432              		.loc 1 154 16 view .LVU162
 433 0060 0B44     		add	r3, r3, r1
 434              	.LVL48:
 157:../Common/IQMath/ti/_IQNasin_acos.c ****     
 435              		.loc 1 157 5 is_stmt 1 view .LVU163
 436              	.LBB54:
 437              	.LBI54:
 233:../Common/IQMath/ti/./support/RTS_support.h **** {
 438              		.loc 2 233 28 view .LVU164
 439              	.LBB55:
 440              		.loc 2 235 5 view .LVU165
 441              		.loc 2 235 49 is_stmt 0 view .LVU166
 442 0062 D917     		asrs	r1, r3, #31
 443              		.loc 2 235 47 view .LVU167
 444 0064 00FB01F1 		mul	r1, r0, r1
 445 0068 03FB0C11 		mla	r1, r3, ip, r1
 446 006c A0FB033E 		umull	r3, lr, r0, r3
 447              	.LVL49:
 448              		.loc 2 235 47 view .LVU168
 449 0070 7144     		add	r1, r1, lr
 450              		.loc 2 235 69 view .LVU169
 451 0072 DB0F     		lsrs	r3, r3, #31
 452 0074 43EA4103 		orr	r3, r3, r1, lsl #1
 453              	.LVL50:
 454              		.loc 2 235 69 view .LVU170
 455              	.LBE55:
 456              	.LBE54:
 160:../Common/IQMath/ti/_IQNasin_acos.c ****     
 457              		.loc 1 160 5 is_stmt 1 view .LVU171
 160:../Common/IQMath/ti/_IQNasin_acos.c ****     
 458              		.loc 1 160 31 is_stmt 0 view .LVU172
 459 0078 D168     		ldr	r1, [r2, #12]
 160:../Common/IQMath/ti/_IQNasin_acos.c ****     
ARM GAS  C:\Users\57308\AppData\Local\Temp\cc4OkGld.s 			page 19


 460              		.loc 1 160 16 view .LVU173
 461 007a 0B44     		add	r3, r3, r1
 462              	.LVL51:
 163:../Common/IQMath/ti/_IQNasin_acos.c ****     
 463              		.loc 1 163 5 is_stmt 1 view .LVU174
 464              	.LBB56:
 465              	.LBI56:
 233:../Common/IQMath/ti/./support/RTS_support.h **** {
 466              		.loc 2 233 28 view .LVU175
 467              	.LBB57:
 468              		.loc 2 235 5 view .LVU176
 469              		.loc 2 235 49 is_stmt 0 view .LVU177
 470 007c D917     		asrs	r1, r3, #31
 471              		.loc 2 235 47 view .LVU178
 472 007e 00FB01F1 		mul	r1, r0, r1
 473 0082 03FB0C11 		mla	r1, r3, ip, r1
 474 0086 A0FB0303 		umull	r0, r3, r0, r3
 475              	.LVL52:
 476              		.loc 2 235 47 view .LVU179
 477 008a 0B44     		add	r3, r3, r1
 478              		.loc 2 235 69 view .LVU180
 479 008c C00F     		lsrs	r0, r0, #31
 480 008e 40EA4300 		orr	r0, r0, r3, lsl #1
 481              	.LVL53:
 482              		.loc 2 235 69 view .LVU181
 483              	.LBE57:
 484              	.LBE56:
 166:../Common/IQMath/ti/_IQNasin_acos.c ****     
 485              		.loc 1 166 5 is_stmt 1 view .LVU182
 166:../Common/IQMath/ti/_IQNasin_acos.c ****     
 486              		.loc 1 166 31 is_stmt 0 view .LVU183
 487 0092 1369     		ldr	r3, [r2, #16]
 166:../Common/IQMath/ti/_IQNasin_acos.c ****     
 488              		.loc 1 166 16 view .LVU184
 489 0094 1844     		add	r0, r0, r3
 490              	.LVL54:
 172:../Common/IQMath/ti/_IQNasin_acos.c ****     
 491              		.loc 1 172 5 is_stmt 1 view .LVU185
 172:../Common/IQMath/ti/_IQNasin_acos.c ****     
 492              		.loc 1 172 5 is_stmt 0 view .LVU186
 493              	.LBE58:
 494              	.LBE60:
  72:../Common/IQMath/ti/./support/RTS_support.h **** }
 495              		.loc 2 72 5 is_stmt 1 view .LVU187
 496              	.LBB61:
 497              	.LBB59:
 175:../Common/IQMath/ti/_IQNasin_acos.c ****         /* asin(x) = pi/2 - 2*iq29Result */
 498              		.loc 1 175 5 view .LVU188
 175:../Common/IQMath/ti/_IQNasin_acos.c ****         /* asin(x) = pi/2 - 2*iq29Result */
 499              		.loc 1 175 8 is_stmt 0 view .LVU189
 500 0096 14F0020F 		tst	r4, #2
 501 009a 02D0     		beq	.L17
 177:../Common/IQMath/ti/_IQNasin_acos.c ****         iq29Result -= iq29_halfPi;      // this is equivalent to the above
 502              		.loc 1 177 9 is_stmt 1 view .LVU190
 503              	.LVL55:
 178:../Common/IQMath/ti/_IQNasin_acos.c ****         iq29Result = -iq29Result;       // but avoids using temporary registers
 504              		.loc 1 178 9 view .LVU191
ARM GAS  C:\Users\57308\AppData\Local\Temp\cc4OkGld.s 			page 20


 179:../Common/IQMath/ti/_IQNasin_acos.c ****     }
 505              		.loc 1 179 9 view .LVU192
 179:../Common/IQMath/ti/_IQNasin_acos.c ****     }
 506              		.loc 1 179 20 is_stmt 0 view .LVU193
 507 009c 0A4B     		ldr	r3, .L23+4
 508 009e A3EB4000 		sub	r0, r3, r0, lsl #1
 509              	.LVL56:
 510              	.L17:
 183:../Common/IQMath/ti/_IQNasin_acos.c ****     
 511              		.loc 1 183 5 is_stmt 1 view .LVU194
 183:../Common/IQMath/ti/_IQNasin_acos.c ****     
 512              		.loc 1 183 16 is_stmt 0 view .LVU195
 513 00a2 4010     		asrs	r0, r0, #1
 514              	.LVL57:
 186:../Common/IQMath/ti/_IQNasin_acos.c ****         iq29Result = -iq29Result;
 515              		.loc 1 186 5 is_stmt 1 view .LVU196
 186:../Common/IQMath/ti/_IQNasin_acos.c ****         iq29Result = -iq29Result;
 516              		.loc 1 186 8 is_stmt 0 view .LVU197
 517 00a4 14F0010F 		tst	r4, #1
 518 00a8 0BD0     		beq	.L13
 187:../Common/IQMath/ti/_IQNasin_acos.c ****     }
 519              		.loc 1 187 9 is_stmt 1 view .LVU198
 187:../Common/IQMath/ti/_IQNasin_acos.c ****     }
 520              		.loc 1 187 20 is_stmt 0 view .LVU199
 521 00aa 4042     		rsbs	r0, r0, #0
 522              	.LVL58:
 187:../Common/IQMath/ti/_IQNasin_acos.c ****     }
 523              		.loc 1 187 20 view .LVU200
 524 00ac 09E0     		b	.L13
 525              	.LVL59:
 526              	.L21:
  90:../Common/IQMath/ti/_IQNasin_acos.c ****         iqNInput = -iqNInput;
 527              		.loc 1 90 9 is_stmt 1 view .LVU201
  91:../Common/IQMath/ti/_IQNasin_acos.c ****     }
 528              		.loc 1 91 9 view .LVU202
  91:../Common/IQMath/ti/_IQNasin_acos.c ****     }
 529              		.loc 1 91 18 is_stmt 0 view .LVU203
 530 00ae 4042     		rsbs	r0, r0, #0
 531              	.LVL60:
  90:../Common/IQMath/ti/_IQNasin_acos.c ****         iqNInput = -iqNInput;
 532              		.loc 1 90 19 view .LVU204
 533 00b0 0124     		movs	r4, #1
 534 00b2 A9E7     		b	.L14
 535              	.LVL61:
 536              	.L22:
 115:../Common/IQMath/ti/_IQNasin_acos.c ****         
 537              		.loc 1 115 9 is_stmt 1 view .LVU205
 118:../Common/IQMath/ti/_IQNasin_acos.c ****         
 538              		.loc 1 118 9 view .LVU206
 118:../Common/IQMath/ti/_IQNasin_acos.c ****         
 539              		.loc 1 118 22 is_stmt 0 view .LVU207
 540 00b4 5808     		lsrs	r0, r3, #1
 541              	.LVL62:
 118:../Common/IQMath/ti/_IQNasin_acos.c ****         
 542              		.loc 1 118 22 view .LVU208
 543 00b6 FFF7FEFF 		bl	_IQ31sqrt
 544              	.LVL63:
ARM GAS  C:\Users\57308\AppData\Local\Temp\cc4OkGld.s 			page 21


 121:../Common/IQMath/ti/_IQNasin_acos.c ****     }
 545              		.loc 1 121 9 is_stmt 1 view .LVU209
 121:../Common/IQMath/ti/_IQNasin_acos.c ****     }
 546              		.loc 1 121 19 is_stmt 0 view .LVU210
 547 00ba 44F00204 		orr	r4, r4, #2
 548              	.LVL64:
 121:../Common/IQMath/ti/_IQNasin_acos.c ****     }
 549              		.loc 1 121 19 view .LVU211
 550 00be ACE7     		b	.L16
 551              	.LVL65:
 552              	.L19:
 100:../Common/IQMath/ti/_IQNasin_acos.c ****     }
 553              		.loc 1 100 16 view .LVU212
 554 00c0 0020     		movs	r0, #0
 555              	.LVL66:
 556              	.L13:
 100:../Common/IQMath/ti/_IQNasin_acos.c ****     }
 557              		.loc 1 100 16 view .LVU213
 558              	.LBE59:
 559              	.LBE61:
 215:../Common/IQMath/ti/_IQNasin_acos.c **** }
 560              		.loc 1 215 1 view .LVU214
 561 00c2 10BD     		pop	{r4, pc}
 562              	.L24:
 563              		.align	2
 564              	.L23:
 565 00c4 00000000 		.word	_IQ29Asin_coeffs
 566 00c8 A8F64332 		.word	843314856
 567              		.cfi_endproc
 568              	.LFE263:
 570              		.section	.text._IQ27asin,"ax",%progbits
 571              		.align	1
 572              		.global	_IQ27asin
 573              		.syntax unified
 574              		.thumb
 575              		.thumb_func
 577              	_IQ27asin:
 578              	.LVL67:
 579              	.LFB264:
 216:../Common/IQMath/ti/_IQNasin_acos.c **** /**
 217:../Common/IQMath/ti/_IQNasin_acos.c ****  * @brief Computes the inverse sine of the IQ27 input.
 218:../Common/IQMath/ti/_IQNasin_acos.c ****  *
 219:../Common/IQMath/ti/_IQNasin_acos.c ****  * @param a               IQ27 type input.
 220:../Common/IQMath/ti/_IQNasin_acos.c ****  *
 221:../Common/IQMath/ti/_IQNasin_acos.c ****  * @return                IQ27 type result of inverse sine.
 222:../Common/IQMath/ti/_IQNasin_acos.c ****  */
 223:../Common/IQMath/ti/_IQNasin_acos.c **** int32_t _IQ27asin(int32_t a)
 224:../Common/IQMath/ti/_IQNasin_acos.c **** {
 580              		.loc 1 224 1 is_stmt 1 view -0
 581              		.cfi_startproc
 582              		@ args = 0, pretend = 0, frame = 0
 583              		@ frame_needed = 0, uses_anonymous_args = 0
 584              		.loc 1 224 1 is_stmt 0 view .LVU216
 585 0000 10B5     		push	{r4, lr}
 586              	.LCFI2:
 587              		.cfi_def_cfa_offset 8
 588              		.cfi_offset 4, -8
ARM GAS  C:\Users\57308\AppData\Local\Temp\cc4OkGld.s 			page 22


 589              		.cfi_offset 14, -4
 225:../Common/IQMath/ti/_IQNasin_acos.c ****     return __IQNasin(a, 27);
 590              		.loc 1 225 5 is_stmt 1 view .LVU217
 591              	.LVL68:
 592              	.LBB72:
 593              	.LBI72:
  70:../Common/IQMath/ti/_IQNasin_acos.c **** {
 594              		.loc 1 70 30 view .LVU218
 595              	.LBB73:
  72:../Common/IQMath/ti/_IQNasin_acos.c ****     uint_fast16_t index;
 596              		.loc 1 72 5 view .LVU219
  73:../Common/IQMath/ti/_IQNasin_acos.c ****     uint_fast16_t ui16IntState;
 597              		.loc 1 73 5 view .LVU220
  74:../Common/IQMath/ti/_IQNasin_acos.c ****     uint_fast16_t ui16MPYState;
 598              		.loc 1 74 5 view .LVU221
  75:../Common/IQMath/ti/_IQNasin_acos.c ****     int_fast32_t iq29Result;
 599              		.loc 1 75 5 view .LVU222
  76:../Common/IQMath/ti/_IQNasin_acos.c ****     const int_fast32_t *piq29Coeffs;
 600              		.loc 1 76 5 view .LVU223
  77:../Common/IQMath/ti/_IQNasin_acos.c ****     uint_fast32_t uiq31Input;
 601              		.loc 1 77 5 view .LVU224
  78:../Common/IQMath/ti/_IQNasin_acos.c ****     uint_fast32_t uiq31InputTemp;
 602              		.loc 1 78 5 view .LVU225
  79:../Common/IQMath/ti/_IQNasin_acos.c ****     
 603              		.loc 1 79 5 view .LVU226
  89:../Common/IQMath/ti/_IQNasin_acos.c ****         ui8Status |= 1;
 604              		.loc 1 89 5 view .LVU227
  89:../Common/IQMath/ti/_IQNasin_acos.c ****         ui8Status |= 1;
 605              		.loc 1 89 8 is_stmt 0 view .LVU228
 606 0002 0028     		cmp	r0, #0
  89:../Common/IQMath/ti/_IQNasin_acos.c ****         ui8Status |= 1;
 607              		.loc 1 89 8 view .LVU229
 608 0004 53DB     		blt	.L33
  72:../Common/IQMath/ti/_IQNasin_acos.c ****     uint_fast16_t index;
 609              		.loc 1 72 13 view .LVU230
 610 0006 0024     		movs	r4, #0
 611              	.LVL69:
 612              	.L26:
  99:../Common/IQMath/ti/_IQNasin_acos.c ****         return 0;
 613              		.loc 1 99 5 is_stmt 1 view .LVU231
  99:../Common/IQMath/ti/_IQNasin_acos.c ****         return 0;
 614              		.loc 1 99 8 is_stmt 0 view .LVU232
 615 0008 B0F1006F 		cmp	r0, #134217728
 616 000c 58D8     		bhi	.L31
 104:../Common/IQMath/ti/_IQNasin_acos.c ****     
 617              		.loc 1 104 5 is_stmt 1 view .LVU233
 104:../Common/IQMath/ti/_IQNasin_acos.c ****     
 618              		.loc 1 104 16 is_stmt 0 view .LVU234
 619 000e 0001     		lsls	r0, r0, #4
 620              	.LVL70:
 112:../Common/IQMath/ti/_IQNasin_acos.c ****     if (uiq31InputTemp < 0x40000000) {
 621              		.loc 1 112 5 is_stmt 1 view .LVU235
 112:../Common/IQMath/ti/_IQNasin_acos.c ****     if (uiq31InputTemp < 0x40000000) {
 622              		.loc 1 112 20 is_stmt 0 view .LVU236
 623 0010 C0F10043 		rsb	r3, r0, #-2147483648
 624              	.LVL71:
 113:../Common/IQMath/ti/_IQNasin_acos.c ****         /* Halve the result. */
ARM GAS  C:\Users\57308\AppData\Local\Temp\cc4OkGld.s 			page 23


 625              		.loc 1 113 5 is_stmt 1 view .LVU237
 113:../Common/IQMath/ti/_IQNasin_acos.c ****         /* Halve the result. */
 626              		.loc 1 113 8 is_stmt 0 view .LVU238
 627 0014 B3F1804F 		cmp	r3, #1073741824
 628 0018 4CD3     		bcc	.L34
 629              	.LVL72:
 630              	.L28:
 125:../Common/IQMath/ti/_IQNasin_acos.c ****     
 631              		.loc 1 125 5 is_stmt 1 view .LVU239
 125:../Common/IQMath/ti/_IQNasin_acos.c ****     
 632              		.loc 1 125 11 is_stmt 0 view .LVU240
 633 001a 830E     		lsrs	r3, r0, #26
 634              	.LVL73:
 128:../Common/IQMath/ti/_IQNasin_acos.c ****     
 635              		.loc 1 128 5 is_stmt 1 view .LVU241
 128:../Common/IQMath/ti/_IQNasin_acos.c ****     
 636              		.loc 1 128 17 is_stmt 0 view .LVU242
 637 001c 03EB8303 		add	r3, r3, r3, lsl #2
 638              	.LVL74:
 128:../Common/IQMath/ti/_IQNasin_acos.c ****     
 639              		.loc 1 128 17 view .LVU243
 640 0020 2849     		ldr	r1, .L35
 641 0022 01EB8302 		add	r2, r1, r3, lsl #2
 642              	.LVL75:
 136:../Common/IQMath/ti/_IQNasin_acos.c ****     
 643              		.loc 1 136 5 is_stmt 1 view .LVU244
 136:../Common/IQMath/ti/_IQNasin_acos.c ****     
 644              		.loc 1 136 5 is_stmt 0 view .LVU245
 645              	.LBE73:
 646              	.LBE72:
  28:../Common/IQMath/ti/./support/RTS_support.h **** }
 647              		.loc 2 28 5 is_stmt 1 view .LVU246
 648              	.LBB84:
 649              	.LBB82:
 145:../Common/IQMath/ti/_IQNasin_acos.c ****     
 650              		.loc 1 145 5 view .LVU247
 145:../Common/IQMath/ti/_IQNasin_acos.c ****     
 651              		.loc 1 145 18 is_stmt 0 view .LVU248
 652 0026 51F82330 		ldr	r3, [r1, r3, lsl #2]
 653              	.LVL76:
 654              	.LBB74:
 655              	.LBI74:
 233:../Common/IQMath/ti/./support/RTS_support.h **** {
 656              		.loc 2 233 28 is_stmt 1 view .LVU249
 657              	.LBB75:
 658              		.loc 2 235 5 view .LVU250
 659              		.loc 2 235 28 is_stmt 0 view .LVU251
 660 002a 4FEAE07C 		asr	ip, r0, #31
 661              		.loc 2 235 49 view .LVU252
 662 002e D917     		asrs	r1, r3, #31
 663              		.loc 2 235 47 view .LVU253
 664 0030 00FB01F1 		mul	r1, r0, r1
 665 0034 03FB0C11 		mla	r1, r3, ip, r1
 666 0038 A0FB033E 		umull	r3, lr, r0, r3
 667              	.LVL77:
 668              		.loc 2 235 47 view .LVU254
 669 003c 7144     		add	r1, r1, lr
ARM GAS  C:\Users\57308\AppData\Local\Temp\cc4OkGld.s 			page 24


 670              		.loc 2 235 69 view .LVU255
 671 003e DB0F     		lsrs	r3, r3, #31
 672 0040 43EA4103 		orr	r3, r3, r1, lsl #1
 673              	.LVL78:
 674              		.loc 2 235 69 view .LVU256
 675              	.LBE75:
 676              	.LBE74:
 148:../Common/IQMath/ti/_IQNasin_acos.c ****     
 677              		.loc 1 148 5 is_stmt 1 view .LVU257
 148:../Common/IQMath/ti/_IQNasin_acos.c ****     
 678              		.loc 1 148 31 is_stmt 0 view .LVU258
 679 0044 5168     		ldr	r1, [r2, #4]
 148:../Common/IQMath/ti/_IQNasin_acos.c ****     
 680              		.loc 1 148 16 view .LVU259
 681 0046 0B44     		add	r3, r3, r1
 682              	.LVL79:
 151:../Common/IQMath/ti/_IQNasin_acos.c ****     
 683              		.loc 1 151 5 is_stmt 1 view .LVU260
 684              	.LBB76:
 685              	.LBI76:
 233:../Common/IQMath/ti/./support/RTS_support.h **** {
 686              		.loc 2 233 28 view .LVU261
 687              	.LBB77:
 688              		.loc 2 235 5 view .LVU262
 689              		.loc 2 235 49 is_stmt 0 view .LVU263
 690 0048 D917     		asrs	r1, r3, #31
 691              		.loc 2 235 47 view .LVU264
 692 004a 00FB01F1 		mul	r1, r0, r1
 693 004e 03FB0C11 		mla	r1, r3, ip, r1
 694 0052 A0FB033E 		umull	r3, lr, r0, r3
 695              	.LVL80:
 696              		.loc 2 235 47 view .LVU265
 697 0056 7144     		add	r1, r1, lr
 698              		.loc 2 235 69 view .LVU266
 699 0058 DB0F     		lsrs	r3, r3, #31
 700 005a 43EA4103 		orr	r3, r3, r1, lsl #1
 701              	.LVL81:
 702              		.loc 2 235 69 view .LVU267
 703              	.LBE77:
 704              	.LBE76:
 154:../Common/IQMath/ti/_IQNasin_acos.c ****     
 705              		.loc 1 154 5 is_stmt 1 view .LVU268
 154:../Common/IQMath/ti/_IQNasin_acos.c ****     
 706              		.loc 1 154 31 is_stmt 0 view .LVU269
 707 005e 9168     		ldr	r1, [r2, #8]
 154:../Common/IQMath/ti/_IQNasin_acos.c ****     
 708              		.loc 1 154 16 view .LVU270
 709 0060 0B44     		add	r3, r3, r1
 710              	.LVL82:
 157:../Common/IQMath/ti/_IQNasin_acos.c ****     
 711              		.loc 1 157 5 is_stmt 1 view .LVU271
 712              	.LBB78:
 713              	.LBI78:
 233:../Common/IQMath/ti/./support/RTS_support.h **** {
 714              		.loc 2 233 28 view .LVU272
 715              	.LBB79:
 716              		.loc 2 235 5 view .LVU273
ARM GAS  C:\Users\57308\AppData\Local\Temp\cc4OkGld.s 			page 25


 717              		.loc 2 235 49 is_stmt 0 view .LVU274
 718 0062 D917     		asrs	r1, r3, #31
 719              		.loc 2 235 47 view .LVU275
 720 0064 00FB01F1 		mul	r1, r0, r1
 721 0068 03FB0C11 		mla	r1, r3, ip, r1
 722 006c A0FB033E 		umull	r3, lr, r0, r3
 723              	.LVL83:
 724              		.loc 2 235 47 view .LVU276
 725 0070 7144     		add	r1, r1, lr
 726              		.loc 2 235 69 view .LVU277
 727 0072 DB0F     		lsrs	r3, r3, #31
 728 0074 43EA4103 		orr	r3, r3, r1, lsl #1
 729              	.LVL84:
 730              		.loc 2 235 69 view .LVU278
 731              	.LBE79:
 732              	.LBE78:
 160:../Common/IQMath/ti/_IQNasin_acos.c ****     
 733              		.loc 1 160 5 is_stmt 1 view .LVU279
 160:../Common/IQMath/ti/_IQNasin_acos.c ****     
 734              		.loc 1 160 31 is_stmt 0 view .LVU280
 735 0078 D168     		ldr	r1, [r2, #12]
 160:../Common/IQMath/ti/_IQNasin_acos.c ****     
 736              		.loc 1 160 16 view .LVU281
 737 007a 0B44     		add	r3, r3, r1
 738              	.LVL85:
 163:../Common/IQMath/ti/_IQNasin_acos.c ****     
 739              		.loc 1 163 5 is_stmt 1 view .LVU282
 740              	.LBB80:
 741              	.LBI80:
 233:../Common/IQMath/ti/./support/RTS_support.h **** {
 742              		.loc 2 233 28 view .LVU283
 743              	.LBB81:
 744              		.loc 2 235 5 view .LVU284
 745              		.loc 2 235 49 is_stmt 0 view .LVU285
 746 007c D917     		asrs	r1, r3, #31
 747              		.loc 2 235 47 view .LVU286
 748 007e 00FB01F1 		mul	r1, r0, r1
 749 0082 03FB0C11 		mla	r1, r3, ip, r1
 750 0086 A0FB0303 		umull	r0, r3, r0, r3
 751              	.LVL86:
 752              		.loc 2 235 47 view .LVU287
 753 008a 0B44     		add	r3, r3, r1
 754              		.loc 2 235 69 view .LVU288
 755 008c C00F     		lsrs	r0, r0, #31
 756 008e 40EA4300 		orr	r0, r0, r3, lsl #1
 757              	.LVL87:
 758              		.loc 2 235 69 view .LVU289
 759              	.LBE81:
 760              	.LBE80:
 166:../Common/IQMath/ti/_IQNasin_acos.c ****     
 761              		.loc 1 166 5 is_stmt 1 view .LVU290
 166:../Common/IQMath/ti/_IQNasin_acos.c ****     
 762              		.loc 1 166 31 is_stmt 0 view .LVU291
 763 0092 1369     		ldr	r3, [r2, #16]
 166:../Common/IQMath/ti/_IQNasin_acos.c ****     
 764              		.loc 1 166 16 view .LVU292
 765 0094 1844     		add	r0, r0, r3
ARM GAS  C:\Users\57308\AppData\Local\Temp\cc4OkGld.s 			page 26


 766              	.LVL88:
 172:../Common/IQMath/ti/_IQNasin_acos.c ****     
 767              		.loc 1 172 5 is_stmt 1 view .LVU293
 172:../Common/IQMath/ti/_IQNasin_acos.c ****     
 768              		.loc 1 172 5 is_stmt 0 view .LVU294
 769              	.LBE82:
 770              	.LBE84:
  72:../Common/IQMath/ti/./support/RTS_support.h **** }
 771              		.loc 2 72 5 is_stmt 1 view .LVU295
 772              	.LBB85:
 773              	.LBB83:
 175:../Common/IQMath/ti/_IQNasin_acos.c ****         /* asin(x) = pi/2 - 2*iq29Result */
 774              		.loc 1 175 5 view .LVU296
 175:../Common/IQMath/ti/_IQNasin_acos.c ****         /* asin(x) = pi/2 - 2*iq29Result */
 775              		.loc 1 175 8 is_stmt 0 view .LVU297
 776 0096 14F0020F 		tst	r4, #2
 777 009a 02D0     		beq	.L29
 177:../Common/IQMath/ti/_IQNasin_acos.c ****         iq29Result -= iq29_halfPi;      // this is equivalent to the above
 778              		.loc 1 177 9 is_stmt 1 view .LVU298
 779              	.LVL89:
 178:../Common/IQMath/ti/_IQNasin_acos.c ****         iq29Result = -iq29Result;       // but avoids using temporary registers
 780              		.loc 1 178 9 view .LVU299
 179:../Common/IQMath/ti/_IQNasin_acos.c ****     }
 781              		.loc 1 179 9 view .LVU300
 179:../Common/IQMath/ti/_IQNasin_acos.c ****     }
 782              		.loc 1 179 20 is_stmt 0 view .LVU301
 783 009c 0A4B     		ldr	r3, .L35+4
 784 009e A3EB4000 		sub	r0, r3, r0, lsl #1
 785              	.LVL90:
 786              	.L29:
 183:../Common/IQMath/ti/_IQNasin_acos.c ****     
 787              		.loc 1 183 5 is_stmt 1 view .LVU302
 183:../Common/IQMath/ti/_IQNasin_acos.c ****     
 788              		.loc 1 183 16 is_stmt 0 view .LVU303
 789 00a2 8010     		asrs	r0, r0, #2
 790              	.LVL91:
 186:../Common/IQMath/ti/_IQNasin_acos.c ****         iq29Result = -iq29Result;
 791              		.loc 1 186 5 is_stmt 1 view .LVU304
 186:../Common/IQMath/ti/_IQNasin_acos.c ****         iq29Result = -iq29Result;
 792              		.loc 1 186 8 is_stmt 0 view .LVU305
 793 00a4 14F0010F 		tst	r4, #1
 794 00a8 0BD0     		beq	.L25
 187:../Common/IQMath/ti/_IQNasin_acos.c ****     }
 795              		.loc 1 187 9 is_stmt 1 view .LVU306
 187:../Common/IQMath/ti/_IQNasin_acos.c ****     }
 796              		.loc 1 187 20 is_stmt 0 view .LVU307
 797 00aa 4042     		rsbs	r0, r0, #0
 798              	.LVL92:
 187:../Common/IQMath/ti/_IQNasin_acos.c ****     }
 799              		.loc 1 187 20 view .LVU308
 800 00ac 09E0     		b	.L25
 801              	.LVL93:
 802              	.L33:
  90:../Common/IQMath/ti/_IQNasin_acos.c ****         iqNInput = -iqNInput;
 803              		.loc 1 90 9 is_stmt 1 view .LVU309
  91:../Common/IQMath/ti/_IQNasin_acos.c ****     }
 804              		.loc 1 91 9 view .LVU310
ARM GAS  C:\Users\57308\AppData\Local\Temp\cc4OkGld.s 			page 27


  91:../Common/IQMath/ti/_IQNasin_acos.c ****     }
 805              		.loc 1 91 18 is_stmt 0 view .LVU311
 806 00ae 4042     		rsbs	r0, r0, #0
 807              	.LVL94:
  90:../Common/IQMath/ti/_IQNasin_acos.c ****         iqNInput = -iqNInput;
 808              		.loc 1 90 19 view .LVU312
 809 00b0 0124     		movs	r4, #1
 810 00b2 A9E7     		b	.L26
 811              	.LVL95:
 812              	.L34:
 115:../Common/IQMath/ti/_IQNasin_acos.c ****         
 813              		.loc 1 115 9 is_stmt 1 view .LVU313
 118:../Common/IQMath/ti/_IQNasin_acos.c ****         
 814              		.loc 1 118 9 view .LVU314
 118:../Common/IQMath/ti/_IQNasin_acos.c ****         
 815              		.loc 1 118 22 is_stmt 0 view .LVU315
 816 00b4 5808     		lsrs	r0, r3, #1
 817              	.LVL96:
 118:../Common/IQMath/ti/_IQNasin_acos.c ****         
 818              		.loc 1 118 22 view .LVU316
 819 00b6 FFF7FEFF 		bl	_IQ31sqrt
 820              	.LVL97:
 121:../Common/IQMath/ti/_IQNasin_acos.c ****     }
 821              		.loc 1 121 9 is_stmt 1 view .LVU317
 121:../Common/IQMath/ti/_IQNasin_acos.c ****     }
 822              		.loc 1 121 19 is_stmt 0 view .LVU318
 823 00ba 44F00204 		orr	r4, r4, #2
 824              	.LVL98:
 121:../Common/IQMath/ti/_IQNasin_acos.c ****     }
 825              		.loc 1 121 19 view .LVU319
 826 00be ACE7     		b	.L28
 827              	.LVL99:
 828              	.L31:
 100:../Common/IQMath/ti/_IQNasin_acos.c ****     }
 829              		.loc 1 100 16 view .LVU320
 830 00c0 0020     		movs	r0, #0
 831              	.LVL100:
 832              	.L25:
 100:../Common/IQMath/ti/_IQNasin_acos.c ****     }
 833              		.loc 1 100 16 view .LVU321
 834              	.LBE83:
 835              	.LBE85:
 226:../Common/IQMath/ti/_IQNasin_acos.c **** }
 836              		.loc 1 226 1 view .LVU322
 837 00c2 10BD     		pop	{r4, pc}
 838              	.L36:
 839              		.align	2
 840              	.L35:
 841 00c4 00000000 		.word	_IQ29Asin_coeffs
 842 00c8 A8F64332 		.word	843314856
 843              		.cfi_endproc
 844              	.LFE264:
 846              		.section	.text._IQ26asin,"ax",%progbits
 847              		.align	1
 848              		.global	_IQ26asin
 849              		.syntax unified
 850              		.thumb
ARM GAS  C:\Users\57308\AppData\Local\Temp\cc4OkGld.s 			page 28


 851              		.thumb_func
 853              	_IQ26asin:
 854              	.LVL101:
 855              	.LFB265:
 227:../Common/IQMath/ti/_IQNasin_acos.c **** /**
 228:../Common/IQMath/ti/_IQNasin_acos.c ****  * @brief Computes the inverse sine of the IQ26 input.
 229:../Common/IQMath/ti/_IQNasin_acos.c ****  *
 230:../Common/IQMath/ti/_IQNasin_acos.c ****  * @param a               IQ26 type input.
 231:../Common/IQMath/ti/_IQNasin_acos.c ****  *
 232:../Common/IQMath/ti/_IQNasin_acos.c ****  * @return                IQ26 type result of inverse sine.
 233:../Common/IQMath/ti/_IQNasin_acos.c ****  */
 234:../Common/IQMath/ti/_IQNasin_acos.c **** int32_t _IQ26asin(int32_t a)
 235:../Common/IQMath/ti/_IQNasin_acos.c **** {
 856              		.loc 1 235 1 is_stmt 1 view -0
 857              		.cfi_startproc
 858              		@ args = 0, pretend = 0, frame = 0
 859              		@ frame_needed = 0, uses_anonymous_args = 0
 860              		.loc 1 235 1 is_stmt 0 view .LVU324
 861 0000 10B5     		push	{r4, lr}
 862              	.LCFI3:
 863              		.cfi_def_cfa_offset 8
 864              		.cfi_offset 4, -8
 865              		.cfi_offset 14, -4
 236:../Common/IQMath/ti/_IQNasin_acos.c ****     return __IQNasin(a, 26);
 866              		.loc 1 236 5 is_stmt 1 view .LVU325
 867              	.LVL102:
 868              	.LBB96:
 869              	.LBI96:
  70:../Common/IQMath/ti/_IQNasin_acos.c **** {
 870              		.loc 1 70 30 view .LVU326
 871              	.LBB97:
  72:../Common/IQMath/ti/_IQNasin_acos.c ****     uint_fast16_t index;
 872              		.loc 1 72 5 view .LVU327
  73:../Common/IQMath/ti/_IQNasin_acos.c ****     uint_fast16_t ui16IntState;
 873              		.loc 1 73 5 view .LVU328
  74:../Common/IQMath/ti/_IQNasin_acos.c ****     uint_fast16_t ui16MPYState;
 874              		.loc 1 74 5 view .LVU329
  75:../Common/IQMath/ti/_IQNasin_acos.c ****     int_fast32_t iq29Result;
 875              		.loc 1 75 5 view .LVU330
  76:../Common/IQMath/ti/_IQNasin_acos.c ****     const int_fast32_t *piq29Coeffs;
 876              		.loc 1 76 5 view .LVU331
  77:../Common/IQMath/ti/_IQNasin_acos.c ****     uint_fast32_t uiq31Input;
 877              		.loc 1 77 5 view .LVU332
  78:../Common/IQMath/ti/_IQNasin_acos.c ****     uint_fast32_t uiq31InputTemp;
 878              		.loc 1 78 5 view .LVU333
  79:../Common/IQMath/ti/_IQNasin_acos.c ****     
 879              		.loc 1 79 5 view .LVU334
  89:../Common/IQMath/ti/_IQNasin_acos.c ****         ui8Status |= 1;
 880              		.loc 1 89 5 view .LVU335
  89:../Common/IQMath/ti/_IQNasin_acos.c ****         ui8Status |= 1;
 881              		.loc 1 89 8 is_stmt 0 view .LVU336
 882 0002 0028     		cmp	r0, #0
  89:../Common/IQMath/ti/_IQNasin_acos.c ****         ui8Status |= 1;
 883              		.loc 1 89 8 view .LVU337
 884 0004 53DB     		blt	.L45
  72:../Common/IQMath/ti/_IQNasin_acos.c ****     uint_fast16_t index;
 885              		.loc 1 72 13 view .LVU338
ARM GAS  C:\Users\57308\AppData\Local\Temp\cc4OkGld.s 			page 29


 886 0006 0024     		movs	r4, #0
 887              	.LVL103:
 888              	.L38:
  99:../Common/IQMath/ti/_IQNasin_acos.c ****         return 0;
 889              		.loc 1 99 5 is_stmt 1 view .LVU339
  99:../Common/IQMath/ti/_IQNasin_acos.c ****         return 0;
 890              		.loc 1 99 8 is_stmt 0 view .LVU340
 891 0008 B0F1806F 		cmp	r0, #67108864
 892 000c 58D8     		bhi	.L43
 104:../Common/IQMath/ti/_IQNasin_acos.c ****     
 893              		.loc 1 104 5 is_stmt 1 view .LVU341
 104:../Common/IQMath/ti/_IQNasin_acos.c ****     
 894              		.loc 1 104 16 is_stmt 0 view .LVU342
 895 000e 4001     		lsls	r0, r0, #5
 896              	.LVL104:
 112:../Common/IQMath/ti/_IQNasin_acos.c ****     if (uiq31InputTemp < 0x40000000) {
 897              		.loc 1 112 5 is_stmt 1 view .LVU343
 112:../Common/IQMath/ti/_IQNasin_acos.c ****     if (uiq31InputTemp < 0x40000000) {
 898              		.loc 1 112 20 is_stmt 0 view .LVU344
 899 0010 C0F10043 		rsb	r3, r0, #-2147483648
 900              	.LVL105:
 113:../Common/IQMath/ti/_IQNasin_acos.c ****         /* Halve the result. */
 901              		.loc 1 113 5 is_stmt 1 view .LVU345
 113:../Common/IQMath/ti/_IQNasin_acos.c ****         /* Halve the result. */
 902              		.loc 1 113 8 is_stmt 0 view .LVU346
 903 0014 B3F1804F 		cmp	r3, #1073741824
 904 0018 4CD3     		bcc	.L46
 905              	.LVL106:
 906              	.L40:
 125:../Common/IQMath/ti/_IQNasin_acos.c ****     
 907              		.loc 1 125 5 is_stmt 1 view .LVU347
 125:../Common/IQMath/ti/_IQNasin_acos.c ****     
 908              		.loc 1 125 11 is_stmt 0 view .LVU348
 909 001a 830E     		lsrs	r3, r0, #26
 910              	.LVL107:
 128:../Common/IQMath/ti/_IQNasin_acos.c ****     
 911              		.loc 1 128 5 is_stmt 1 view .LVU349
 128:../Common/IQMath/ti/_IQNasin_acos.c ****     
 912              		.loc 1 128 17 is_stmt 0 view .LVU350
 913 001c 03EB8303 		add	r3, r3, r3, lsl #2
 914              	.LVL108:
 128:../Common/IQMath/ti/_IQNasin_acos.c ****     
 915              		.loc 1 128 17 view .LVU351
 916 0020 2849     		ldr	r1, .L47
 917 0022 01EB8302 		add	r2, r1, r3, lsl #2
 918              	.LVL109:
 136:../Common/IQMath/ti/_IQNasin_acos.c ****     
 919              		.loc 1 136 5 is_stmt 1 view .LVU352
 136:../Common/IQMath/ti/_IQNasin_acos.c ****     
 920              		.loc 1 136 5 is_stmt 0 view .LVU353
 921              	.LBE97:
 922              	.LBE96:
  28:../Common/IQMath/ti/./support/RTS_support.h **** }
 923              		.loc 2 28 5 is_stmt 1 view .LVU354
 924              	.LBB108:
 925              	.LBB106:
 145:../Common/IQMath/ti/_IQNasin_acos.c ****     
ARM GAS  C:\Users\57308\AppData\Local\Temp\cc4OkGld.s 			page 30


 926              		.loc 1 145 5 view .LVU355
 145:../Common/IQMath/ti/_IQNasin_acos.c ****     
 927              		.loc 1 145 18 is_stmt 0 view .LVU356
 928 0026 51F82330 		ldr	r3, [r1, r3, lsl #2]
 929              	.LVL110:
 930              	.LBB98:
 931              	.LBI98:
 233:../Common/IQMath/ti/./support/RTS_support.h **** {
 932              		.loc 2 233 28 is_stmt 1 view .LVU357
 933              	.LBB99:
 934              		.loc 2 235 5 view .LVU358
 935              		.loc 2 235 28 is_stmt 0 view .LVU359
 936 002a 4FEAE07C 		asr	ip, r0, #31
 937              		.loc 2 235 49 view .LVU360
 938 002e D917     		asrs	r1, r3, #31
 939              		.loc 2 235 47 view .LVU361
 940 0030 00FB01F1 		mul	r1, r0, r1
 941 0034 03FB0C11 		mla	r1, r3, ip, r1
 942 0038 A0FB033E 		umull	r3, lr, r0, r3
 943              	.LVL111:
 944              		.loc 2 235 47 view .LVU362
 945 003c 7144     		add	r1, r1, lr
 946              		.loc 2 235 69 view .LVU363
 947 003e DB0F     		lsrs	r3, r3, #31
 948 0040 43EA4103 		orr	r3, r3, r1, lsl #1
 949              	.LVL112:
 950              		.loc 2 235 69 view .LVU364
 951              	.LBE99:
 952              	.LBE98:
 148:../Common/IQMath/ti/_IQNasin_acos.c ****     
 953              		.loc 1 148 5 is_stmt 1 view .LVU365
 148:../Common/IQMath/ti/_IQNasin_acos.c ****     
 954              		.loc 1 148 31 is_stmt 0 view .LVU366
 955 0044 5168     		ldr	r1, [r2, #4]
 148:../Common/IQMath/ti/_IQNasin_acos.c ****     
 956              		.loc 1 148 16 view .LVU367
 957 0046 0B44     		add	r3, r3, r1
 958              	.LVL113:
 151:../Common/IQMath/ti/_IQNasin_acos.c ****     
 959              		.loc 1 151 5 is_stmt 1 view .LVU368
 960              	.LBB100:
 961              	.LBI100:
 233:../Common/IQMath/ti/./support/RTS_support.h **** {
 962              		.loc 2 233 28 view .LVU369
 963              	.LBB101:
 964              		.loc 2 235 5 view .LVU370
 965              		.loc 2 235 49 is_stmt 0 view .LVU371
 966 0048 D917     		asrs	r1, r3, #31
 967              		.loc 2 235 47 view .LVU372
 968 004a 00FB01F1 		mul	r1, r0, r1
 969 004e 03FB0C11 		mla	r1, r3, ip, r1
 970 0052 A0FB033E 		umull	r3, lr, r0, r3
 971              	.LVL114:
 972              		.loc 2 235 47 view .LVU373
 973 0056 7144     		add	r1, r1, lr
 974              		.loc 2 235 69 view .LVU374
 975 0058 DB0F     		lsrs	r3, r3, #31
ARM GAS  C:\Users\57308\AppData\Local\Temp\cc4OkGld.s 			page 31


 976 005a 43EA4103 		orr	r3, r3, r1, lsl #1
 977              	.LVL115:
 978              		.loc 2 235 69 view .LVU375
 979              	.LBE101:
 980              	.LBE100:
 154:../Common/IQMath/ti/_IQNasin_acos.c ****     
 981              		.loc 1 154 5 is_stmt 1 view .LVU376
 154:../Common/IQMath/ti/_IQNasin_acos.c ****     
 982              		.loc 1 154 31 is_stmt 0 view .LVU377
 983 005e 9168     		ldr	r1, [r2, #8]
 154:../Common/IQMath/ti/_IQNasin_acos.c ****     
 984              		.loc 1 154 16 view .LVU378
 985 0060 0B44     		add	r3, r3, r1
 986              	.LVL116:
 157:../Common/IQMath/ti/_IQNasin_acos.c ****     
 987              		.loc 1 157 5 is_stmt 1 view .LVU379
 988              	.LBB102:
 989              	.LBI102:
 233:../Common/IQMath/ti/./support/RTS_support.h **** {
 990              		.loc 2 233 28 view .LVU380
 991              	.LBB103:
 992              		.loc 2 235 5 view .LVU381
 993              		.loc 2 235 49 is_stmt 0 view .LVU382
 994 0062 D917     		asrs	r1, r3, #31
 995              		.loc 2 235 47 view .LVU383
 996 0064 00FB01F1 		mul	r1, r0, r1
 997 0068 03FB0C11 		mla	r1, r3, ip, r1
 998 006c A0FB033E 		umull	r3, lr, r0, r3
 999              	.LVL117:
 1000              		.loc 2 235 47 view .LVU384
 1001 0070 7144     		add	r1, r1, lr
 1002              		.loc 2 235 69 view .LVU385
 1003 0072 DB0F     		lsrs	r3, r3, #31
 1004 0074 43EA4103 		orr	r3, r3, r1, lsl #1
 1005              	.LVL118:
 1006              		.loc 2 235 69 view .LVU386
 1007              	.LBE103:
 1008              	.LBE102:
 160:../Common/IQMath/ti/_IQNasin_acos.c ****     
 1009              		.loc 1 160 5 is_stmt 1 view .LVU387
 160:../Common/IQMath/ti/_IQNasin_acos.c ****     
 1010              		.loc 1 160 31 is_stmt 0 view .LVU388
 1011 0078 D168     		ldr	r1, [r2, #12]
 160:../Common/IQMath/ti/_IQNasin_acos.c ****     
 1012              		.loc 1 160 16 view .LVU389
 1013 007a 0B44     		add	r3, r3, r1
 1014              	.LVL119:
 163:../Common/IQMath/ti/_IQNasin_acos.c ****     
 1015              		.loc 1 163 5 is_stmt 1 view .LVU390
 1016              	.LBB104:
 1017              	.LBI104:
 233:../Common/IQMath/ti/./support/RTS_support.h **** {
 1018              		.loc 2 233 28 view .LVU391
 1019              	.LBB105:
 1020              		.loc 2 235 5 view .LVU392
 1021              		.loc 2 235 49 is_stmt 0 view .LVU393
 1022 007c D917     		asrs	r1, r3, #31
ARM GAS  C:\Users\57308\AppData\Local\Temp\cc4OkGld.s 			page 32


 1023              		.loc 2 235 47 view .LVU394
 1024 007e 00FB01F1 		mul	r1, r0, r1
 1025 0082 03FB0C11 		mla	r1, r3, ip, r1
 1026 0086 A0FB0303 		umull	r0, r3, r0, r3
 1027              	.LVL120:
 1028              		.loc 2 235 47 view .LVU395
 1029 008a 0B44     		add	r3, r3, r1
 1030              		.loc 2 235 69 view .LVU396
 1031 008c C00F     		lsrs	r0, r0, #31
 1032 008e 40EA4300 		orr	r0, r0, r3, lsl #1
 1033              	.LVL121:
 1034              		.loc 2 235 69 view .LVU397
 1035              	.LBE105:
 1036              	.LBE104:
 166:../Common/IQMath/ti/_IQNasin_acos.c ****     
 1037              		.loc 1 166 5 is_stmt 1 view .LVU398
 166:../Common/IQMath/ti/_IQNasin_acos.c ****     
 1038              		.loc 1 166 31 is_stmt 0 view .LVU399
 1039 0092 1369     		ldr	r3, [r2, #16]
 166:../Common/IQMath/ti/_IQNasin_acos.c ****     
 1040              		.loc 1 166 16 view .LVU400
 1041 0094 1844     		add	r0, r0, r3
 1042              	.LVL122:
 172:../Common/IQMath/ti/_IQNasin_acos.c ****     
 1043              		.loc 1 172 5 is_stmt 1 view .LVU401
 172:../Common/IQMath/ti/_IQNasin_acos.c ****     
 1044              		.loc 1 172 5 is_stmt 0 view .LVU402
 1045              	.LBE106:
 1046              	.LBE108:
  72:../Common/IQMath/ti/./support/RTS_support.h **** }
 1047              		.loc 2 72 5 is_stmt 1 view .LVU403
 1048              	.LBB109:
 1049              	.LBB107:
 175:../Common/IQMath/ti/_IQNasin_acos.c ****         /* asin(x) = pi/2 - 2*iq29Result */
 1050              		.loc 1 175 5 view .LVU404
 175:../Common/IQMath/ti/_IQNasin_acos.c ****         /* asin(x) = pi/2 - 2*iq29Result */
 1051              		.loc 1 175 8 is_stmt 0 view .LVU405
 1052 0096 14F0020F 		tst	r4, #2
 1053 009a 02D0     		beq	.L41
 177:../Common/IQMath/ti/_IQNasin_acos.c ****         iq29Result -= iq29_halfPi;      // this is equivalent to the above
 1054              		.loc 1 177 9 is_stmt 1 view .LVU406
 1055              	.LVL123:
 178:../Common/IQMath/ti/_IQNasin_acos.c ****         iq29Result = -iq29Result;       // but avoids using temporary registers
 1056              		.loc 1 178 9 view .LVU407
 179:../Common/IQMath/ti/_IQNasin_acos.c ****     }
 1057              		.loc 1 179 9 view .LVU408
 179:../Common/IQMath/ti/_IQNasin_acos.c ****     }
 1058              		.loc 1 179 20 is_stmt 0 view .LVU409
 1059 009c 0A4B     		ldr	r3, .L47+4
 1060 009e A3EB4000 		sub	r0, r3, r0, lsl #1
 1061              	.LVL124:
 1062              	.L41:
 183:../Common/IQMath/ti/_IQNasin_acos.c ****     
 1063              		.loc 1 183 5 is_stmt 1 view .LVU410
 183:../Common/IQMath/ti/_IQNasin_acos.c ****     
 1064              		.loc 1 183 16 is_stmt 0 view .LVU411
 1065 00a2 C010     		asrs	r0, r0, #3
ARM GAS  C:\Users\57308\AppData\Local\Temp\cc4OkGld.s 			page 33


 1066              	.LVL125:
 186:../Common/IQMath/ti/_IQNasin_acos.c ****         iq29Result = -iq29Result;
 1067              		.loc 1 186 5 is_stmt 1 view .LVU412
 186:../Common/IQMath/ti/_IQNasin_acos.c ****         iq29Result = -iq29Result;
 1068              		.loc 1 186 8 is_stmt 0 view .LVU413
 1069 00a4 14F0010F 		tst	r4, #1
 1070 00a8 0BD0     		beq	.L37
 187:../Common/IQMath/ti/_IQNasin_acos.c ****     }
 1071              		.loc 1 187 9 is_stmt 1 view .LVU414
 187:../Common/IQMath/ti/_IQNasin_acos.c ****     }
 1072              		.loc 1 187 20 is_stmt 0 view .LVU415
 1073 00aa 4042     		rsbs	r0, r0, #0
 1074              	.LVL126:
 187:../Common/IQMath/ti/_IQNasin_acos.c ****     }
 1075              		.loc 1 187 20 view .LVU416
 1076 00ac 09E0     		b	.L37
 1077              	.LVL127:
 1078              	.L45:
  90:../Common/IQMath/ti/_IQNasin_acos.c ****         iqNInput = -iqNInput;
 1079              		.loc 1 90 9 is_stmt 1 view .LVU417
  91:../Common/IQMath/ti/_IQNasin_acos.c ****     }
 1080              		.loc 1 91 9 view .LVU418
  91:../Common/IQMath/ti/_IQNasin_acos.c ****     }
 1081              		.loc 1 91 18 is_stmt 0 view .LVU419
 1082 00ae 4042     		rsbs	r0, r0, #0
 1083              	.LVL128:
  90:../Common/IQMath/ti/_IQNasin_acos.c ****         iqNInput = -iqNInput;
 1084              		.loc 1 90 19 view .LVU420
 1085 00b0 0124     		movs	r4, #1
 1086 00b2 A9E7     		b	.L38
 1087              	.LVL129:
 1088              	.L46:
 115:../Common/IQMath/ti/_IQNasin_acos.c ****         
 1089              		.loc 1 115 9 is_stmt 1 view .LVU421
 118:../Common/IQMath/ti/_IQNasin_acos.c ****         
 1090              		.loc 1 118 9 view .LVU422
 118:../Common/IQMath/ti/_IQNasin_acos.c ****         
 1091              		.loc 1 118 22 is_stmt 0 view .LVU423
 1092 00b4 5808     		lsrs	r0, r3, #1
 1093              	.LVL130:
 118:../Common/IQMath/ti/_IQNasin_acos.c ****         
 1094              		.loc 1 118 22 view .LVU424
 1095 00b6 FFF7FEFF 		bl	_IQ31sqrt
 1096              	.LVL131:
 121:../Common/IQMath/ti/_IQNasin_acos.c ****     }
 1097              		.loc 1 121 9 is_stmt 1 view .LVU425
 121:../Common/IQMath/ti/_IQNasin_acos.c ****     }
 1098              		.loc 1 121 19 is_stmt 0 view .LVU426
 1099 00ba 44F00204 		orr	r4, r4, #2
 1100              	.LVL132:
 121:../Common/IQMath/ti/_IQNasin_acos.c ****     }
 1101              		.loc 1 121 19 view .LVU427
 1102 00be ACE7     		b	.L40
 1103              	.LVL133:
 1104              	.L43:
 100:../Common/IQMath/ti/_IQNasin_acos.c ****     }
 1105              		.loc 1 100 16 view .LVU428
ARM GAS  C:\Users\57308\AppData\Local\Temp\cc4OkGld.s 			page 34


 1106 00c0 0020     		movs	r0, #0
 1107              	.LVL134:
 1108              	.L37:
 100:../Common/IQMath/ti/_IQNasin_acos.c ****     }
 1109              		.loc 1 100 16 view .LVU429
 1110              	.LBE107:
 1111              	.LBE109:
 237:../Common/IQMath/ti/_IQNasin_acos.c **** }
 1112              		.loc 1 237 1 view .LVU430
 1113 00c2 10BD     		pop	{r4, pc}
 1114              	.L48:
 1115              		.align	2
 1116              	.L47:
 1117 00c4 00000000 		.word	_IQ29Asin_coeffs
 1118 00c8 A8F64332 		.word	843314856
 1119              		.cfi_endproc
 1120              	.LFE265:
 1122              		.section	.text._IQ25asin,"ax",%progbits
 1123              		.align	1
 1124              		.global	_IQ25asin
 1125              		.syntax unified
 1126              		.thumb
 1127              		.thumb_func
 1129              	_IQ25asin:
 1130              	.LVL135:
 1131              	.LFB266:
 238:../Common/IQMath/ti/_IQNasin_acos.c **** /**
 239:../Common/IQMath/ti/_IQNasin_acos.c ****  * @brief Computes the inverse sine of the IQ25 input.
 240:../Common/IQMath/ti/_IQNasin_acos.c ****  *
 241:../Common/IQMath/ti/_IQNasin_acos.c ****  * @param a               IQ25 type input.
 242:../Common/IQMath/ti/_IQNasin_acos.c ****  *
 243:../Common/IQMath/ti/_IQNasin_acos.c ****  * @return                IQ25 type result of inverse sine.
 244:../Common/IQMath/ti/_IQNasin_acos.c ****  */
 245:../Common/IQMath/ti/_IQNasin_acos.c **** int32_t _IQ25asin(int32_t a)
 246:../Common/IQMath/ti/_IQNasin_acos.c **** {
 1132              		.loc 1 246 1 is_stmt 1 view -0
 1133              		.cfi_startproc
 1134              		@ args = 0, pretend = 0, frame = 0
 1135              		@ frame_needed = 0, uses_anonymous_args = 0
 1136              		.loc 1 246 1 is_stmt 0 view .LVU432
 1137 0000 10B5     		push	{r4, lr}
 1138              	.LCFI4:
 1139              		.cfi_def_cfa_offset 8
 1140              		.cfi_offset 4, -8
 1141              		.cfi_offset 14, -4
 247:../Common/IQMath/ti/_IQNasin_acos.c ****     return __IQNasin(a, 25);
 1142              		.loc 1 247 5 is_stmt 1 view .LVU433
 1143              	.LVL136:
 1144              	.LBB120:
 1145              	.LBI120:
  70:../Common/IQMath/ti/_IQNasin_acos.c **** {
 1146              		.loc 1 70 30 view .LVU434
 1147              	.LBB121:
  72:../Common/IQMath/ti/_IQNasin_acos.c ****     uint_fast16_t index;
 1148              		.loc 1 72 5 view .LVU435
  73:../Common/IQMath/ti/_IQNasin_acos.c ****     uint_fast16_t ui16IntState;
 1149              		.loc 1 73 5 view .LVU436
ARM GAS  C:\Users\57308\AppData\Local\Temp\cc4OkGld.s 			page 35


  74:../Common/IQMath/ti/_IQNasin_acos.c ****     uint_fast16_t ui16MPYState;
 1150              		.loc 1 74 5 view .LVU437
  75:../Common/IQMath/ti/_IQNasin_acos.c ****     int_fast32_t iq29Result;
 1151              		.loc 1 75 5 view .LVU438
  76:../Common/IQMath/ti/_IQNasin_acos.c ****     const int_fast32_t *piq29Coeffs;
 1152              		.loc 1 76 5 view .LVU439
  77:../Common/IQMath/ti/_IQNasin_acos.c ****     uint_fast32_t uiq31Input;
 1153              		.loc 1 77 5 view .LVU440
  78:../Common/IQMath/ti/_IQNasin_acos.c ****     uint_fast32_t uiq31InputTemp;
 1154              		.loc 1 78 5 view .LVU441
  79:../Common/IQMath/ti/_IQNasin_acos.c ****     
 1155              		.loc 1 79 5 view .LVU442
  89:../Common/IQMath/ti/_IQNasin_acos.c ****         ui8Status |= 1;
 1156              		.loc 1 89 5 view .LVU443
  89:../Common/IQMath/ti/_IQNasin_acos.c ****         ui8Status |= 1;
 1157              		.loc 1 89 8 is_stmt 0 view .LVU444
 1158 0002 0028     		cmp	r0, #0
  89:../Common/IQMath/ti/_IQNasin_acos.c ****         ui8Status |= 1;
 1159              		.loc 1 89 8 view .LVU445
 1160 0004 53DB     		blt	.L57
  72:../Common/IQMath/ti/_IQNasin_acos.c ****     uint_fast16_t index;
 1161              		.loc 1 72 13 view .LVU446
 1162 0006 0024     		movs	r4, #0
 1163              	.LVL137:
 1164              	.L50:
  99:../Common/IQMath/ti/_IQNasin_acos.c ****         return 0;
 1165              		.loc 1 99 5 is_stmt 1 view .LVU447
  99:../Common/IQMath/ti/_IQNasin_acos.c ****         return 0;
 1166              		.loc 1 99 8 is_stmt 0 view .LVU448
 1167 0008 B0F1007F 		cmp	r0, #33554432
 1168 000c 58D8     		bhi	.L55
 104:../Common/IQMath/ti/_IQNasin_acos.c ****     
 1169              		.loc 1 104 5 is_stmt 1 view .LVU449
 104:../Common/IQMath/ti/_IQNasin_acos.c ****     
 1170              		.loc 1 104 16 is_stmt 0 view .LVU450
 1171 000e 8001     		lsls	r0, r0, #6
 1172              	.LVL138:
 112:../Common/IQMath/ti/_IQNasin_acos.c ****     if (uiq31InputTemp < 0x40000000) {
 1173              		.loc 1 112 5 is_stmt 1 view .LVU451
 112:../Common/IQMath/ti/_IQNasin_acos.c ****     if (uiq31InputTemp < 0x40000000) {
 1174              		.loc 1 112 20 is_stmt 0 view .LVU452
 1175 0010 C0F10043 		rsb	r3, r0, #-2147483648
 1176              	.LVL139:
 113:../Common/IQMath/ti/_IQNasin_acos.c ****         /* Halve the result. */
 1177              		.loc 1 113 5 is_stmt 1 view .LVU453
 113:../Common/IQMath/ti/_IQNasin_acos.c ****         /* Halve the result. */
 1178              		.loc 1 113 8 is_stmt 0 view .LVU454
 1179 0014 B3F1804F 		cmp	r3, #1073741824
 1180 0018 4CD3     		bcc	.L58
 1181              	.LVL140:
 1182              	.L52:
 125:../Common/IQMath/ti/_IQNasin_acos.c ****     
 1183              		.loc 1 125 5 is_stmt 1 view .LVU455
 125:../Common/IQMath/ti/_IQNasin_acos.c ****     
 1184              		.loc 1 125 11 is_stmt 0 view .LVU456
 1185 001a 830E     		lsrs	r3, r0, #26
 1186              	.LVL141:
ARM GAS  C:\Users\57308\AppData\Local\Temp\cc4OkGld.s 			page 36


 128:../Common/IQMath/ti/_IQNasin_acos.c ****     
 1187              		.loc 1 128 5 is_stmt 1 view .LVU457
 128:../Common/IQMath/ti/_IQNasin_acos.c ****     
 1188              		.loc 1 128 17 is_stmt 0 view .LVU458
 1189 001c 03EB8303 		add	r3, r3, r3, lsl #2
 1190              	.LVL142:
 128:../Common/IQMath/ti/_IQNasin_acos.c ****     
 1191              		.loc 1 128 17 view .LVU459
 1192 0020 2849     		ldr	r1, .L59
 1193 0022 01EB8302 		add	r2, r1, r3, lsl #2
 1194              	.LVL143:
 136:../Common/IQMath/ti/_IQNasin_acos.c ****     
 1195              		.loc 1 136 5 is_stmt 1 view .LVU460
 136:../Common/IQMath/ti/_IQNasin_acos.c ****     
 1196              		.loc 1 136 5 is_stmt 0 view .LVU461
 1197              	.LBE121:
 1198              	.LBE120:
  28:../Common/IQMath/ti/./support/RTS_support.h **** }
 1199              		.loc 2 28 5 is_stmt 1 view .LVU462
 1200              	.LBB132:
 1201              	.LBB130:
 145:../Common/IQMath/ti/_IQNasin_acos.c ****     
 1202              		.loc 1 145 5 view .LVU463
 145:../Common/IQMath/ti/_IQNasin_acos.c ****     
 1203              		.loc 1 145 18 is_stmt 0 view .LVU464
 1204 0026 51F82330 		ldr	r3, [r1, r3, lsl #2]
 1205              	.LVL144:
 1206              	.LBB122:
 1207              	.LBI122:
 233:../Common/IQMath/ti/./support/RTS_support.h **** {
 1208              		.loc 2 233 28 is_stmt 1 view .LVU465
 1209              	.LBB123:
 1210              		.loc 2 235 5 view .LVU466
 1211              		.loc 2 235 28 is_stmt 0 view .LVU467
 1212 002a 4FEAE07C 		asr	ip, r0, #31
 1213              		.loc 2 235 49 view .LVU468
 1214 002e D917     		asrs	r1, r3, #31
 1215              		.loc 2 235 47 view .LVU469
 1216 0030 00FB01F1 		mul	r1, r0, r1
 1217 0034 03FB0C11 		mla	r1, r3, ip, r1
 1218 0038 A0FB033E 		umull	r3, lr, r0, r3
 1219              	.LVL145:
 1220              		.loc 2 235 47 view .LVU470
 1221 003c 7144     		add	r1, r1, lr
 1222              		.loc 2 235 69 view .LVU471
 1223 003e DB0F     		lsrs	r3, r3, #31
 1224 0040 43EA4103 		orr	r3, r3, r1, lsl #1
 1225              	.LVL146:
 1226              		.loc 2 235 69 view .LVU472
 1227              	.LBE123:
 1228              	.LBE122:
 148:../Common/IQMath/ti/_IQNasin_acos.c ****     
 1229              		.loc 1 148 5 is_stmt 1 view .LVU473
 148:../Common/IQMath/ti/_IQNasin_acos.c ****     
 1230              		.loc 1 148 31 is_stmt 0 view .LVU474
 1231 0044 5168     		ldr	r1, [r2, #4]
 148:../Common/IQMath/ti/_IQNasin_acos.c ****     
ARM GAS  C:\Users\57308\AppData\Local\Temp\cc4OkGld.s 			page 37


 1232              		.loc 1 148 16 view .LVU475
 1233 0046 0B44     		add	r3, r3, r1
 1234              	.LVL147:
 151:../Common/IQMath/ti/_IQNasin_acos.c ****     
 1235              		.loc 1 151 5 is_stmt 1 view .LVU476
 1236              	.LBB124:
 1237              	.LBI124:
 233:../Common/IQMath/ti/./support/RTS_support.h **** {
 1238              		.loc 2 233 28 view .LVU477
 1239              	.LBB125:
 1240              		.loc 2 235 5 view .LVU478
 1241              		.loc 2 235 49 is_stmt 0 view .LVU479
 1242 0048 D917     		asrs	r1, r3, #31
 1243              		.loc 2 235 47 view .LVU480
 1244 004a 00FB01F1 		mul	r1, r0, r1
 1245 004e 03FB0C11 		mla	r1, r3, ip, r1
 1246 0052 A0FB033E 		umull	r3, lr, r0, r3
 1247              	.LVL148:
 1248              		.loc 2 235 47 view .LVU481
 1249 0056 7144     		add	r1, r1, lr
 1250              		.loc 2 235 69 view .LVU482
 1251 0058 DB0F     		lsrs	r3, r3, #31
 1252 005a 43EA4103 		orr	r3, r3, r1, lsl #1
 1253              	.LVL149:
 1254              		.loc 2 235 69 view .LVU483
 1255              	.LBE125:
 1256              	.LBE124:
 154:../Common/IQMath/ti/_IQNasin_acos.c ****     
 1257              		.loc 1 154 5 is_stmt 1 view .LVU484
 154:../Common/IQMath/ti/_IQNasin_acos.c ****     
 1258              		.loc 1 154 31 is_stmt 0 view .LVU485
 1259 005e 9168     		ldr	r1, [r2, #8]
 154:../Common/IQMath/ti/_IQNasin_acos.c ****     
 1260              		.loc 1 154 16 view .LVU486
 1261 0060 0B44     		add	r3, r3, r1
 1262              	.LVL150:
 157:../Common/IQMath/ti/_IQNasin_acos.c ****     
 1263              		.loc 1 157 5 is_stmt 1 view .LVU487
 1264              	.LBB126:
 1265              	.LBI126:
 233:../Common/IQMath/ti/./support/RTS_support.h **** {
 1266              		.loc 2 233 28 view .LVU488
 1267              	.LBB127:
 1268              		.loc 2 235 5 view .LVU489
 1269              		.loc 2 235 49 is_stmt 0 view .LVU490
 1270 0062 D917     		asrs	r1, r3, #31
 1271              		.loc 2 235 47 view .LVU491
 1272 0064 00FB01F1 		mul	r1, r0, r1
 1273 0068 03FB0C11 		mla	r1, r3, ip, r1
 1274 006c A0FB033E 		umull	r3, lr, r0, r3
 1275              	.LVL151:
 1276              		.loc 2 235 47 view .LVU492
 1277 0070 7144     		add	r1, r1, lr
 1278              		.loc 2 235 69 view .LVU493
 1279 0072 DB0F     		lsrs	r3, r3, #31
 1280 0074 43EA4103 		orr	r3, r3, r1, lsl #1
 1281              	.LVL152:
ARM GAS  C:\Users\57308\AppData\Local\Temp\cc4OkGld.s 			page 38


 1282              		.loc 2 235 69 view .LVU494
 1283              	.LBE127:
 1284              	.LBE126:
 160:../Common/IQMath/ti/_IQNasin_acos.c ****     
 1285              		.loc 1 160 5 is_stmt 1 view .LVU495
 160:../Common/IQMath/ti/_IQNasin_acos.c ****     
 1286              		.loc 1 160 31 is_stmt 0 view .LVU496
 1287 0078 D168     		ldr	r1, [r2, #12]
 160:../Common/IQMath/ti/_IQNasin_acos.c ****     
 1288              		.loc 1 160 16 view .LVU497
 1289 007a 0B44     		add	r3, r3, r1
 1290              	.LVL153:
 163:../Common/IQMath/ti/_IQNasin_acos.c ****     
 1291              		.loc 1 163 5 is_stmt 1 view .LVU498
 1292              	.LBB128:
 1293              	.LBI128:
 233:../Common/IQMath/ti/./support/RTS_support.h **** {
 1294              		.loc 2 233 28 view .LVU499
 1295              	.LBB129:
 1296              		.loc 2 235 5 view .LVU500
 1297              		.loc 2 235 49 is_stmt 0 view .LVU501
 1298 007c D917     		asrs	r1, r3, #31
 1299              		.loc 2 235 47 view .LVU502
 1300 007e 00FB01F1 		mul	r1, r0, r1
 1301 0082 03FB0C11 		mla	r1, r3, ip, r1
 1302 0086 A0FB0303 		umull	r0, r3, r0, r3
 1303              	.LVL154:
 1304              		.loc 2 235 47 view .LVU503
 1305 008a 0B44     		add	r3, r3, r1
 1306              		.loc 2 235 69 view .LVU504
 1307 008c C00F     		lsrs	r0, r0, #31
 1308 008e 40EA4300 		orr	r0, r0, r3, lsl #1
 1309              	.LVL155:
 1310              		.loc 2 235 69 view .LVU505
 1311              	.LBE129:
 1312              	.LBE128:
 166:../Common/IQMath/ti/_IQNasin_acos.c ****     
 1313              		.loc 1 166 5 is_stmt 1 view .LVU506
 166:../Common/IQMath/ti/_IQNasin_acos.c ****     
 1314              		.loc 1 166 31 is_stmt 0 view .LVU507
 1315 0092 1369     		ldr	r3, [r2, #16]
 166:../Common/IQMath/ti/_IQNasin_acos.c ****     
 1316              		.loc 1 166 16 view .LVU508
 1317 0094 1844     		add	r0, r0, r3
 1318              	.LVL156:
 172:../Common/IQMath/ti/_IQNasin_acos.c ****     
 1319              		.loc 1 172 5 is_stmt 1 view .LVU509
 172:../Common/IQMath/ti/_IQNasin_acos.c ****     
 1320              		.loc 1 172 5 is_stmt 0 view .LVU510
 1321              	.LBE130:
 1322              	.LBE132:
  72:../Common/IQMath/ti/./support/RTS_support.h **** }
 1323              		.loc 2 72 5 is_stmt 1 view .LVU511
 1324              	.LBB133:
 1325              	.LBB131:
 175:../Common/IQMath/ti/_IQNasin_acos.c ****         /* asin(x) = pi/2 - 2*iq29Result */
 1326              		.loc 1 175 5 view .LVU512
ARM GAS  C:\Users\57308\AppData\Local\Temp\cc4OkGld.s 			page 39


 175:../Common/IQMath/ti/_IQNasin_acos.c ****         /* asin(x) = pi/2 - 2*iq29Result */
 1327              		.loc 1 175 8 is_stmt 0 view .LVU513
 1328 0096 14F0020F 		tst	r4, #2
 1329 009a 02D0     		beq	.L53
 177:../Common/IQMath/ti/_IQNasin_acos.c ****         iq29Result -= iq29_halfPi;      // this is equivalent to the above
 1330              		.loc 1 177 9 is_stmt 1 view .LVU514
 1331              	.LVL157:
 178:../Common/IQMath/ti/_IQNasin_acos.c ****         iq29Result = -iq29Result;       // but avoids using temporary registers
 1332              		.loc 1 178 9 view .LVU515
 179:../Common/IQMath/ti/_IQNasin_acos.c ****     }
 1333              		.loc 1 179 9 view .LVU516
 179:../Common/IQMath/ti/_IQNasin_acos.c ****     }
 1334              		.loc 1 179 20 is_stmt 0 view .LVU517
 1335 009c 0A4B     		ldr	r3, .L59+4
 1336 009e A3EB4000 		sub	r0, r3, r0, lsl #1
 1337              	.LVL158:
 1338              	.L53:
 183:../Common/IQMath/ti/_IQNasin_acos.c ****     
 1339              		.loc 1 183 5 is_stmt 1 view .LVU518
 183:../Common/IQMath/ti/_IQNasin_acos.c ****     
 1340              		.loc 1 183 16 is_stmt 0 view .LVU519
 1341 00a2 0011     		asrs	r0, r0, #4
 1342              	.LVL159:
 186:../Common/IQMath/ti/_IQNasin_acos.c ****         iq29Result = -iq29Result;
 1343              		.loc 1 186 5 is_stmt 1 view .LVU520
 186:../Common/IQMath/ti/_IQNasin_acos.c ****         iq29Result = -iq29Result;
 1344              		.loc 1 186 8 is_stmt 0 view .LVU521
 1345 00a4 14F0010F 		tst	r4, #1
 1346 00a8 0BD0     		beq	.L49
 187:../Common/IQMath/ti/_IQNasin_acos.c ****     }
 1347              		.loc 1 187 9 is_stmt 1 view .LVU522
 187:../Common/IQMath/ti/_IQNasin_acos.c ****     }
 1348              		.loc 1 187 20 is_stmt 0 view .LVU523
 1349 00aa 4042     		rsbs	r0, r0, #0
 1350              	.LVL160:
 187:../Common/IQMath/ti/_IQNasin_acos.c ****     }
 1351              		.loc 1 187 20 view .LVU524
 1352 00ac 09E0     		b	.L49
 1353              	.LVL161:
 1354              	.L57:
  90:../Common/IQMath/ti/_IQNasin_acos.c ****         iqNInput = -iqNInput;
 1355              		.loc 1 90 9 is_stmt 1 view .LVU525
  91:../Common/IQMath/ti/_IQNasin_acos.c ****     }
 1356              		.loc 1 91 9 view .LVU526
  91:../Common/IQMath/ti/_IQNasin_acos.c ****     }
 1357              		.loc 1 91 18 is_stmt 0 view .LVU527
 1358 00ae 4042     		rsbs	r0, r0, #0
 1359              	.LVL162:
  90:../Common/IQMath/ti/_IQNasin_acos.c ****         iqNInput = -iqNInput;
 1360              		.loc 1 90 19 view .LVU528
 1361 00b0 0124     		movs	r4, #1
 1362 00b2 A9E7     		b	.L50
 1363              	.LVL163:
 1364              	.L58:
 115:../Common/IQMath/ti/_IQNasin_acos.c ****         
 1365              		.loc 1 115 9 is_stmt 1 view .LVU529
 118:../Common/IQMath/ti/_IQNasin_acos.c ****         
ARM GAS  C:\Users\57308\AppData\Local\Temp\cc4OkGld.s 			page 40


 1366              		.loc 1 118 9 view .LVU530
 118:../Common/IQMath/ti/_IQNasin_acos.c ****         
 1367              		.loc 1 118 22 is_stmt 0 view .LVU531
 1368 00b4 5808     		lsrs	r0, r3, #1
 1369              	.LVL164:
 118:../Common/IQMath/ti/_IQNasin_acos.c ****         
 1370              		.loc 1 118 22 view .LVU532
 1371 00b6 FFF7FEFF 		bl	_IQ31sqrt
 1372              	.LVL165:
 121:../Common/IQMath/ti/_IQNasin_acos.c ****     }
 1373              		.loc 1 121 9 is_stmt 1 view .LVU533
 121:../Common/IQMath/ti/_IQNasin_acos.c ****     }
 1374              		.loc 1 121 19 is_stmt 0 view .LVU534
 1375 00ba 44F00204 		orr	r4, r4, #2
 1376              	.LVL166:
 121:../Common/IQMath/ti/_IQNasin_acos.c ****     }
 1377              		.loc 1 121 19 view .LVU535
 1378 00be ACE7     		b	.L52
 1379              	.LVL167:
 1380              	.L55:
 100:../Common/IQMath/ti/_IQNasin_acos.c ****     }
 1381              		.loc 1 100 16 view .LVU536
 1382 00c0 0020     		movs	r0, #0
 1383              	.LVL168:
 1384              	.L49:
 100:../Common/IQMath/ti/_IQNasin_acos.c ****     }
 1385              		.loc 1 100 16 view .LVU537
 1386              	.LBE131:
 1387              	.LBE133:
 248:../Common/IQMath/ti/_IQNasin_acos.c **** }
 1388              		.loc 1 248 1 view .LVU538
 1389 00c2 10BD     		pop	{r4, pc}
 1390              	.L60:
 1391              		.align	2
 1392              	.L59:
 1393 00c4 00000000 		.word	_IQ29Asin_coeffs
 1394 00c8 A8F64332 		.word	843314856
 1395              		.cfi_endproc
 1396              	.LFE266:
 1398              		.section	.text._IQ24asin,"ax",%progbits
 1399              		.align	1
 1400              		.global	_IQ24asin
 1401              		.syntax unified
 1402              		.thumb
 1403              		.thumb_func
 1405              	_IQ24asin:
 1406              	.LVL169:
 1407              	.LFB267:
 249:../Common/IQMath/ti/_IQNasin_acos.c **** /**
 250:../Common/IQMath/ti/_IQNasin_acos.c ****  * @brief Computes the inverse sine of the IQ24 input.
 251:../Common/IQMath/ti/_IQNasin_acos.c ****  *
 252:../Common/IQMath/ti/_IQNasin_acos.c ****  * @param a               IQ24 type input.
 253:../Common/IQMath/ti/_IQNasin_acos.c ****  *
 254:../Common/IQMath/ti/_IQNasin_acos.c ****  * @return                IQ24 type result of inverse sine.
 255:../Common/IQMath/ti/_IQNasin_acos.c ****  */
 256:../Common/IQMath/ti/_IQNasin_acos.c **** int32_t _IQ24asin(int32_t a)
 257:../Common/IQMath/ti/_IQNasin_acos.c **** {
ARM GAS  C:\Users\57308\AppData\Local\Temp\cc4OkGld.s 			page 41


 1408              		.loc 1 257 1 is_stmt 1 view -0
 1409              		.cfi_startproc
 1410              		@ args = 0, pretend = 0, frame = 0
 1411              		@ frame_needed = 0, uses_anonymous_args = 0
 1412              		.loc 1 257 1 is_stmt 0 view .LVU540
 1413 0000 10B5     		push	{r4, lr}
 1414              	.LCFI5:
 1415              		.cfi_def_cfa_offset 8
 1416              		.cfi_offset 4, -8
 1417              		.cfi_offset 14, -4
 258:../Common/IQMath/ti/_IQNasin_acos.c ****     return __IQNasin(a, 24);
 1418              		.loc 1 258 5 is_stmt 1 view .LVU541
 1419              	.LVL170:
 1420              	.LBB144:
 1421              	.LBI144:
  70:../Common/IQMath/ti/_IQNasin_acos.c **** {
 1422              		.loc 1 70 30 view .LVU542
 1423              	.LBB145:
  72:../Common/IQMath/ti/_IQNasin_acos.c ****     uint_fast16_t index;
 1424              		.loc 1 72 5 view .LVU543
  73:../Common/IQMath/ti/_IQNasin_acos.c ****     uint_fast16_t ui16IntState;
 1425              		.loc 1 73 5 view .LVU544
  74:../Common/IQMath/ti/_IQNasin_acos.c ****     uint_fast16_t ui16MPYState;
 1426              		.loc 1 74 5 view .LVU545
  75:../Common/IQMath/ti/_IQNasin_acos.c ****     int_fast32_t iq29Result;
 1427              		.loc 1 75 5 view .LVU546
  76:../Common/IQMath/ti/_IQNasin_acos.c ****     const int_fast32_t *piq29Coeffs;
 1428              		.loc 1 76 5 view .LVU547
  77:../Common/IQMath/ti/_IQNasin_acos.c ****     uint_fast32_t uiq31Input;
 1429              		.loc 1 77 5 view .LVU548
  78:../Common/IQMath/ti/_IQNasin_acos.c ****     uint_fast32_t uiq31InputTemp;
 1430              		.loc 1 78 5 view .LVU549
  79:../Common/IQMath/ti/_IQNasin_acos.c ****     
 1431              		.loc 1 79 5 view .LVU550
  89:../Common/IQMath/ti/_IQNasin_acos.c ****         ui8Status |= 1;
 1432              		.loc 1 89 5 view .LVU551
  89:../Common/IQMath/ti/_IQNasin_acos.c ****         ui8Status |= 1;
 1433              		.loc 1 89 8 is_stmt 0 view .LVU552
 1434 0002 0028     		cmp	r0, #0
  89:../Common/IQMath/ti/_IQNasin_acos.c ****         ui8Status |= 1;
 1435              		.loc 1 89 8 view .LVU553
 1436 0004 53DB     		blt	.L69
  72:../Common/IQMath/ti/_IQNasin_acos.c ****     uint_fast16_t index;
 1437              		.loc 1 72 13 view .LVU554
 1438 0006 0024     		movs	r4, #0
 1439              	.LVL171:
 1440              	.L62:
  99:../Common/IQMath/ti/_IQNasin_acos.c ****         return 0;
 1441              		.loc 1 99 5 is_stmt 1 view .LVU555
  99:../Common/IQMath/ti/_IQNasin_acos.c ****         return 0;
 1442              		.loc 1 99 8 is_stmt 0 view .LVU556
 1443 0008 B0F1807F 		cmp	r0, #16777216
 1444 000c 58D8     		bhi	.L67
 104:../Common/IQMath/ti/_IQNasin_acos.c ****     
 1445              		.loc 1 104 5 is_stmt 1 view .LVU557
 104:../Common/IQMath/ti/_IQNasin_acos.c ****     
 1446              		.loc 1 104 16 is_stmt 0 view .LVU558
ARM GAS  C:\Users\57308\AppData\Local\Temp\cc4OkGld.s 			page 42


 1447 000e C001     		lsls	r0, r0, #7
 1448              	.LVL172:
 112:../Common/IQMath/ti/_IQNasin_acos.c ****     if (uiq31InputTemp < 0x40000000) {
 1449              		.loc 1 112 5 is_stmt 1 view .LVU559
 112:../Common/IQMath/ti/_IQNasin_acos.c ****     if (uiq31InputTemp < 0x40000000) {
 1450              		.loc 1 112 20 is_stmt 0 view .LVU560
 1451 0010 C0F10043 		rsb	r3, r0, #-2147483648
 1452              	.LVL173:
 113:../Common/IQMath/ti/_IQNasin_acos.c ****         /* Halve the result. */
 1453              		.loc 1 113 5 is_stmt 1 view .LVU561
 113:../Common/IQMath/ti/_IQNasin_acos.c ****         /* Halve the result. */
 1454              		.loc 1 113 8 is_stmt 0 view .LVU562
 1455 0014 B3F1804F 		cmp	r3, #1073741824
 1456 0018 4CD3     		bcc	.L70
 1457              	.LVL174:
 1458              	.L64:
 125:../Common/IQMath/ti/_IQNasin_acos.c ****     
 1459              		.loc 1 125 5 is_stmt 1 view .LVU563
 125:../Common/IQMath/ti/_IQNasin_acos.c ****     
 1460              		.loc 1 125 11 is_stmt 0 view .LVU564
 1461 001a 830E     		lsrs	r3, r0, #26
 1462              	.LVL175:
 128:../Common/IQMath/ti/_IQNasin_acos.c ****     
 1463              		.loc 1 128 5 is_stmt 1 view .LVU565
 128:../Common/IQMath/ti/_IQNasin_acos.c ****     
 1464              		.loc 1 128 17 is_stmt 0 view .LVU566
 1465 001c 03EB8303 		add	r3, r3, r3, lsl #2
 1466              	.LVL176:
 128:../Common/IQMath/ti/_IQNasin_acos.c ****     
 1467              		.loc 1 128 17 view .LVU567
 1468 0020 2849     		ldr	r1, .L71
 1469 0022 01EB8302 		add	r2, r1, r3, lsl #2
 1470              	.LVL177:
 136:../Common/IQMath/ti/_IQNasin_acos.c ****     
 1471              		.loc 1 136 5 is_stmt 1 view .LVU568
 136:../Common/IQMath/ti/_IQNasin_acos.c ****     
 1472              		.loc 1 136 5 is_stmt 0 view .LVU569
 1473              	.LBE145:
 1474              	.LBE144:
  28:../Common/IQMath/ti/./support/RTS_support.h **** }
 1475              		.loc 2 28 5 is_stmt 1 view .LVU570
 1476              	.LBB156:
 1477              	.LBB154:
 145:../Common/IQMath/ti/_IQNasin_acos.c ****     
 1478              		.loc 1 145 5 view .LVU571
 145:../Common/IQMath/ti/_IQNasin_acos.c ****     
 1479              		.loc 1 145 18 is_stmt 0 view .LVU572
 1480 0026 51F82330 		ldr	r3, [r1, r3, lsl #2]
 1481              	.LVL178:
 1482              	.LBB146:
 1483              	.LBI146:
 233:../Common/IQMath/ti/./support/RTS_support.h **** {
 1484              		.loc 2 233 28 is_stmt 1 view .LVU573
 1485              	.LBB147:
 1486              		.loc 2 235 5 view .LVU574
 1487              		.loc 2 235 28 is_stmt 0 view .LVU575
 1488 002a 4FEAE07C 		asr	ip, r0, #31
ARM GAS  C:\Users\57308\AppData\Local\Temp\cc4OkGld.s 			page 43


 1489              		.loc 2 235 49 view .LVU576
 1490 002e D917     		asrs	r1, r3, #31
 1491              		.loc 2 235 47 view .LVU577
 1492 0030 00FB01F1 		mul	r1, r0, r1
 1493 0034 03FB0C11 		mla	r1, r3, ip, r1
 1494 0038 A0FB033E 		umull	r3, lr, r0, r3
 1495              	.LVL179:
 1496              		.loc 2 235 47 view .LVU578
 1497 003c 7144     		add	r1, r1, lr
 1498              		.loc 2 235 69 view .LVU579
 1499 003e DB0F     		lsrs	r3, r3, #31
 1500 0040 43EA4103 		orr	r3, r3, r1, lsl #1
 1501              	.LVL180:
 1502              		.loc 2 235 69 view .LVU580
 1503              	.LBE147:
 1504              	.LBE146:
 148:../Common/IQMath/ti/_IQNasin_acos.c ****     
 1505              		.loc 1 148 5 is_stmt 1 view .LVU581
 148:../Common/IQMath/ti/_IQNasin_acos.c ****     
 1506              		.loc 1 148 31 is_stmt 0 view .LVU582
 1507 0044 5168     		ldr	r1, [r2, #4]
 148:../Common/IQMath/ti/_IQNasin_acos.c ****     
 1508              		.loc 1 148 16 view .LVU583
 1509 0046 0B44     		add	r3, r3, r1
 1510              	.LVL181:
 151:../Common/IQMath/ti/_IQNasin_acos.c ****     
 1511              		.loc 1 151 5 is_stmt 1 view .LVU584
 1512              	.LBB148:
 1513              	.LBI148:
 233:../Common/IQMath/ti/./support/RTS_support.h **** {
 1514              		.loc 2 233 28 view .LVU585
 1515              	.LBB149:
 1516              		.loc 2 235 5 view .LVU586
 1517              		.loc 2 235 49 is_stmt 0 view .LVU587
 1518 0048 D917     		asrs	r1, r3, #31
 1519              		.loc 2 235 47 view .LVU588
 1520 004a 00FB01F1 		mul	r1, r0, r1
 1521 004e 03FB0C11 		mla	r1, r3, ip, r1
 1522 0052 A0FB033E 		umull	r3, lr, r0, r3
 1523              	.LVL182:
 1524              		.loc 2 235 47 view .LVU589
 1525 0056 7144     		add	r1, r1, lr
 1526              		.loc 2 235 69 view .LVU590
 1527 0058 DB0F     		lsrs	r3, r3, #31
 1528 005a 43EA4103 		orr	r3, r3, r1, lsl #1
 1529              	.LVL183:
 1530              		.loc 2 235 69 view .LVU591
 1531              	.LBE149:
 1532              	.LBE148:
 154:../Common/IQMath/ti/_IQNasin_acos.c ****     
 1533              		.loc 1 154 5 is_stmt 1 view .LVU592
 154:../Common/IQMath/ti/_IQNasin_acos.c ****     
 1534              		.loc 1 154 31 is_stmt 0 view .LVU593
 1535 005e 9168     		ldr	r1, [r2, #8]
 154:../Common/IQMath/ti/_IQNasin_acos.c ****     
 1536              		.loc 1 154 16 view .LVU594
 1537 0060 0B44     		add	r3, r3, r1
ARM GAS  C:\Users\57308\AppData\Local\Temp\cc4OkGld.s 			page 44


 1538              	.LVL184:
 157:../Common/IQMath/ti/_IQNasin_acos.c ****     
 1539              		.loc 1 157 5 is_stmt 1 view .LVU595
 1540              	.LBB150:
 1541              	.LBI150:
 233:../Common/IQMath/ti/./support/RTS_support.h **** {
 1542              		.loc 2 233 28 view .LVU596
 1543              	.LBB151:
 1544              		.loc 2 235 5 view .LVU597
 1545              		.loc 2 235 49 is_stmt 0 view .LVU598
 1546 0062 D917     		asrs	r1, r3, #31
 1547              		.loc 2 235 47 view .LVU599
 1548 0064 00FB01F1 		mul	r1, r0, r1
 1549 0068 03FB0C11 		mla	r1, r3, ip, r1
 1550 006c A0FB033E 		umull	r3, lr, r0, r3
 1551              	.LVL185:
 1552              		.loc 2 235 47 view .LVU600
 1553 0070 7144     		add	r1, r1, lr
 1554              		.loc 2 235 69 view .LVU601
 1555 0072 DB0F     		lsrs	r3, r3, #31
 1556 0074 43EA4103 		orr	r3, r3, r1, lsl #1
 1557              	.LVL186:
 1558              		.loc 2 235 69 view .LVU602
 1559              	.LBE151:
 1560              	.LBE150:
 160:../Common/IQMath/ti/_IQNasin_acos.c ****     
 1561              		.loc 1 160 5 is_stmt 1 view .LVU603
 160:../Common/IQMath/ti/_IQNasin_acos.c ****     
 1562              		.loc 1 160 31 is_stmt 0 view .LVU604
 1563 0078 D168     		ldr	r1, [r2, #12]
 160:../Common/IQMath/ti/_IQNasin_acos.c ****     
 1564              		.loc 1 160 16 view .LVU605
 1565 007a 0B44     		add	r3, r3, r1
 1566              	.LVL187:
 163:../Common/IQMath/ti/_IQNasin_acos.c ****     
 1567              		.loc 1 163 5 is_stmt 1 view .LVU606
 1568              	.LBB152:
 1569              	.LBI152:
 233:../Common/IQMath/ti/./support/RTS_support.h **** {
 1570              		.loc 2 233 28 view .LVU607
 1571              	.LBB153:
 1572              		.loc 2 235 5 view .LVU608
 1573              		.loc 2 235 49 is_stmt 0 view .LVU609
 1574 007c D917     		asrs	r1, r3, #31
 1575              		.loc 2 235 47 view .LVU610
 1576 007e 00FB01F1 		mul	r1, r0, r1
 1577 0082 03FB0C11 		mla	r1, r3, ip, r1
 1578 0086 A0FB0303 		umull	r0, r3, r0, r3
 1579              	.LVL188:
 1580              		.loc 2 235 47 view .LVU611
 1581 008a 0B44     		add	r3, r3, r1
 1582              		.loc 2 235 69 view .LVU612
 1583 008c C00F     		lsrs	r0, r0, #31
 1584 008e 40EA4300 		orr	r0, r0, r3, lsl #1
 1585              	.LVL189:
 1586              		.loc 2 235 69 view .LVU613
 1587              	.LBE153:
ARM GAS  C:\Users\57308\AppData\Local\Temp\cc4OkGld.s 			page 45


 1588              	.LBE152:
 166:../Common/IQMath/ti/_IQNasin_acos.c ****     
 1589              		.loc 1 166 5 is_stmt 1 view .LVU614
 166:../Common/IQMath/ti/_IQNasin_acos.c ****     
 1590              		.loc 1 166 31 is_stmt 0 view .LVU615
 1591 0092 1369     		ldr	r3, [r2, #16]
 166:../Common/IQMath/ti/_IQNasin_acos.c ****     
 1592              		.loc 1 166 16 view .LVU616
 1593 0094 1844     		add	r0, r0, r3
 1594              	.LVL190:
 172:../Common/IQMath/ti/_IQNasin_acos.c ****     
 1595              		.loc 1 172 5 is_stmt 1 view .LVU617
 172:../Common/IQMath/ti/_IQNasin_acos.c ****     
 1596              		.loc 1 172 5 is_stmt 0 view .LVU618
 1597              	.LBE154:
 1598              	.LBE156:
  72:../Common/IQMath/ti/./support/RTS_support.h **** }
 1599              		.loc 2 72 5 is_stmt 1 view .LVU619
 1600              	.LBB157:
 1601              	.LBB155:
 175:../Common/IQMath/ti/_IQNasin_acos.c ****         /* asin(x) = pi/2 - 2*iq29Result */
 1602              		.loc 1 175 5 view .LVU620
 175:../Common/IQMath/ti/_IQNasin_acos.c ****         /* asin(x) = pi/2 - 2*iq29Result */
 1603              		.loc 1 175 8 is_stmt 0 view .LVU621
 1604 0096 14F0020F 		tst	r4, #2
 1605 009a 02D0     		beq	.L65
 177:../Common/IQMath/ti/_IQNasin_acos.c ****         iq29Result -= iq29_halfPi;      // this is equivalent to the above
 1606              		.loc 1 177 9 is_stmt 1 view .LVU622
 1607              	.LVL191:
 178:../Common/IQMath/ti/_IQNasin_acos.c ****         iq29Result = -iq29Result;       // but avoids using temporary registers
 1608              		.loc 1 178 9 view .LVU623
 179:../Common/IQMath/ti/_IQNasin_acos.c ****     }
 1609              		.loc 1 179 9 view .LVU624
 179:../Common/IQMath/ti/_IQNasin_acos.c ****     }
 1610              		.loc 1 179 20 is_stmt 0 view .LVU625
 1611 009c 0A4B     		ldr	r3, .L71+4
 1612 009e A3EB4000 		sub	r0, r3, r0, lsl #1
 1613              	.LVL192:
 1614              	.L65:
 183:../Common/IQMath/ti/_IQNasin_acos.c ****     
 1615              		.loc 1 183 5 is_stmt 1 view .LVU626
 183:../Common/IQMath/ti/_IQNasin_acos.c ****     
 1616              		.loc 1 183 16 is_stmt 0 view .LVU627
 1617 00a2 4011     		asrs	r0, r0, #5
 1618              	.LVL193:
 186:../Common/IQMath/ti/_IQNasin_acos.c ****         iq29Result = -iq29Result;
 1619              		.loc 1 186 5 is_stmt 1 view .LVU628
 186:../Common/IQMath/ti/_IQNasin_acos.c ****         iq29Result = -iq29Result;
 1620              		.loc 1 186 8 is_stmt 0 view .LVU629
 1621 00a4 14F0010F 		tst	r4, #1
 1622 00a8 0BD0     		beq	.L61
 187:../Common/IQMath/ti/_IQNasin_acos.c ****     }
 1623              		.loc 1 187 9 is_stmt 1 view .LVU630
 187:../Common/IQMath/ti/_IQNasin_acos.c ****     }
 1624              		.loc 1 187 20 is_stmt 0 view .LVU631
 1625 00aa 4042     		rsbs	r0, r0, #0
 1626              	.LVL194:
ARM GAS  C:\Users\57308\AppData\Local\Temp\cc4OkGld.s 			page 46


 187:../Common/IQMath/ti/_IQNasin_acos.c ****     }
 1627              		.loc 1 187 20 view .LVU632
 1628 00ac 09E0     		b	.L61
 1629              	.LVL195:
 1630              	.L69:
  90:../Common/IQMath/ti/_IQNasin_acos.c ****         iqNInput = -iqNInput;
 1631              		.loc 1 90 9 is_stmt 1 view .LVU633
  91:../Common/IQMath/ti/_IQNasin_acos.c ****     }
 1632              		.loc 1 91 9 view .LVU634
  91:../Common/IQMath/ti/_IQNasin_acos.c ****     }
 1633              		.loc 1 91 18 is_stmt 0 view .LVU635
 1634 00ae 4042     		rsbs	r0, r0, #0
 1635              	.LVL196:
  90:../Common/IQMath/ti/_IQNasin_acos.c ****         iqNInput = -iqNInput;
 1636              		.loc 1 90 19 view .LVU636
 1637 00b0 0124     		movs	r4, #1
 1638 00b2 A9E7     		b	.L62
 1639              	.LVL197:
 1640              	.L70:
 115:../Common/IQMath/ti/_IQNasin_acos.c ****         
 1641              		.loc 1 115 9 is_stmt 1 view .LVU637
 118:../Common/IQMath/ti/_IQNasin_acos.c ****         
 1642              		.loc 1 118 9 view .LVU638
 118:../Common/IQMath/ti/_IQNasin_acos.c ****         
 1643              		.loc 1 118 22 is_stmt 0 view .LVU639
 1644 00b4 5808     		lsrs	r0, r3, #1
 1645              	.LVL198:
 118:../Common/IQMath/ti/_IQNasin_acos.c ****         
 1646              		.loc 1 118 22 view .LVU640
 1647 00b6 FFF7FEFF 		bl	_IQ31sqrt
 1648              	.LVL199:
 121:../Common/IQMath/ti/_IQNasin_acos.c ****     }
 1649              		.loc 1 121 9 is_stmt 1 view .LVU641
 121:../Common/IQMath/ti/_IQNasin_acos.c ****     }
 1650              		.loc 1 121 19 is_stmt 0 view .LVU642
 1651 00ba 44F00204 		orr	r4, r4, #2
 1652              	.LVL200:
 121:../Common/IQMath/ti/_IQNasin_acos.c ****     }
 1653              		.loc 1 121 19 view .LVU643
 1654 00be ACE7     		b	.L64
 1655              	.LVL201:
 1656              	.L67:
 100:../Common/IQMath/ti/_IQNasin_acos.c ****     }
 1657              		.loc 1 100 16 view .LVU644
 1658 00c0 0020     		movs	r0, #0
 1659              	.LVL202:
 1660              	.L61:
 100:../Common/IQMath/ti/_IQNasin_acos.c ****     }
 1661              		.loc 1 100 16 view .LVU645
 1662              	.LBE155:
 1663              	.LBE157:
 259:../Common/IQMath/ti/_IQNasin_acos.c **** }
 1664              		.loc 1 259 1 view .LVU646
 1665 00c2 10BD     		pop	{r4, pc}
 1666              	.L72:
 1667              		.align	2
 1668              	.L71:
ARM GAS  C:\Users\57308\AppData\Local\Temp\cc4OkGld.s 			page 47


 1669 00c4 00000000 		.word	_IQ29Asin_coeffs
 1670 00c8 A8F64332 		.word	843314856
 1671              		.cfi_endproc
 1672              	.LFE267:
 1674              		.section	.text._IQ23asin,"ax",%progbits
 1675              		.align	1
 1676              		.global	_IQ23asin
 1677              		.syntax unified
 1678              		.thumb
 1679              		.thumb_func
 1681              	_IQ23asin:
 1682              	.LVL203:
 1683              	.LFB268:
 260:../Common/IQMath/ti/_IQNasin_acos.c **** /**
 261:../Common/IQMath/ti/_IQNasin_acos.c ****  * @brief Computes the inverse sine of the IQ23 input.
 262:../Common/IQMath/ti/_IQNasin_acos.c ****  *
 263:../Common/IQMath/ti/_IQNasin_acos.c ****  * @param a               IQ23 type input.
 264:../Common/IQMath/ti/_IQNasin_acos.c ****  *
 265:../Common/IQMath/ti/_IQNasin_acos.c ****  * @return                IQ23 type result of inverse sine.
 266:../Common/IQMath/ti/_IQNasin_acos.c ****  */ 
 267:../Common/IQMath/ti/_IQNasin_acos.c **** int32_t _IQ23asin(int32_t a)
 268:../Common/IQMath/ti/_IQNasin_acos.c **** {
 1684              		.loc 1 268 1 is_stmt 1 view -0
 1685              		.cfi_startproc
 1686              		@ args = 0, pretend = 0, frame = 0
 1687              		@ frame_needed = 0, uses_anonymous_args = 0
 1688              		.loc 1 268 1 is_stmt 0 view .LVU648
 1689 0000 10B5     		push	{r4, lr}
 1690              	.LCFI6:
 1691              		.cfi_def_cfa_offset 8
 1692              		.cfi_offset 4, -8
 1693              		.cfi_offset 14, -4
 269:../Common/IQMath/ti/_IQNasin_acos.c ****     return __IQNasin(a, 23);
 1694              		.loc 1 269 5 is_stmt 1 view .LVU649
 1695              	.LVL204:
 1696              	.LBB168:
 1697              	.LBI168:
  70:../Common/IQMath/ti/_IQNasin_acos.c **** {
 1698              		.loc 1 70 30 view .LVU650
 1699              	.LBB169:
  72:../Common/IQMath/ti/_IQNasin_acos.c ****     uint_fast16_t index;
 1700              		.loc 1 72 5 view .LVU651
  73:../Common/IQMath/ti/_IQNasin_acos.c ****     uint_fast16_t ui16IntState;
 1701              		.loc 1 73 5 view .LVU652
  74:../Common/IQMath/ti/_IQNasin_acos.c ****     uint_fast16_t ui16MPYState;
 1702              		.loc 1 74 5 view .LVU653
  75:../Common/IQMath/ti/_IQNasin_acos.c ****     int_fast32_t iq29Result;
 1703              		.loc 1 75 5 view .LVU654
  76:../Common/IQMath/ti/_IQNasin_acos.c ****     const int_fast32_t *piq29Coeffs;
 1704              		.loc 1 76 5 view .LVU655
  77:../Common/IQMath/ti/_IQNasin_acos.c ****     uint_fast32_t uiq31Input;
 1705              		.loc 1 77 5 view .LVU656
  78:../Common/IQMath/ti/_IQNasin_acos.c ****     uint_fast32_t uiq31InputTemp;
 1706              		.loc 1 78 5 view .LVU657
  79:../Common/IQMath/ti/_IQNasin_acos.c ****     
 1707              		.loc 1 79 5 view .LVU658
  89:../Common/IQMath/ti/_IQNasin_acos.c ****         ui8Status |= 1;
ARM GAS  C:\Users\57308\AppData\Local\Temp\cc4OkGld.s 			page 48


 1708              		.loc 1 89 5 view .LVU659
  89:../Common/IQMath/ti/_IQNasin_acos.c ****         ui8Status |= 1;
 1709              		.loc 1 89 8 is_stmt 0 view .LVU660
 1710 0002 0028     		cmp	r0, #0
  89:../Common/IQMath/ti/_IQNasin_acos.c ****         ui8Status |= 1;
 1711              		.loc 1 89 8 view .LVU661
 1712 0004 53DB     		blt	.L81
  72:../Common/IQMath/ti/_IQNasin_acos.c ****     uint_fast16_t index;
 1713              		.loc 1 72 13 view .LVU662
 1714 0006 0024     		movs	r4, #0
 1715              	.LVL205:
 1716              	.L74:
  99:../Common/IQMath/ti/_IQNasin_acos.c ****         return 0;
 1717              		.loc 1 99 5 is_stmt 1 view .LVU663
  99:../Common/IQMath/ti/_IQNasin_acos.c ****         return 0;
 1718              		.loc 1 99 8 is_stmt 0 view .LVU664
 1719 0008 B0F5000F 		cmp	r0, #8388608
 1720 000c 58D8     		bhi	.L79
 104:../Common/IQMath/ti/_IQNasin_acos.c ****     
 1721              		.loc 1 104 5 is_stmt 1 view .LVU665
 104:../Common/IQMath/ti/_IQNasin_acos.c ****     
 1722              		.loc 1 104 16 is_stmt 0 view .LVU666
 1723 000e 0002     		lsls	r0, r0, #8
 1724              	.LVL206:
 112:../Common/IQMath/ti/_IQNasin_acos.c ****     if (uiq31InputTemp < 0x40000000) {
 1725              		.loc 1 112 5 is_stmt 1 view .LVU667
 112:../Common/IQMath/ti/_IQNasin_acos.c ****     if (uiq31InputTemp < 0x40000000) {
 1726              		.loc 1 112 20 is_stmt 0 view .LVU668
 1727 0010 C0F10043 		rsb	r3, r0, #-2147483648
 1728              	.LVL207:
 113:../Common/IQMath/ti/_IQNasin_acos.c ****         /* Halve the result. */
 1729              		.loc 1 113 5 is_stmt 1 view .LVU669
 113:../Common/IQMath/ti/_IQNasin_acos.c ****         /* Halve the result. */
 1730              		.loc 1 113 8 is_stmt 0 view .LVU670
 1731 0014 B3F1804F 		cmp	r3, #1073741824
 1732 0018 4CD3     		bcc	.L82
 1733              	.LVL208:
 1734              	.L76:
 125:../Common/IQMath/ti/_IQNasin_acos.c ****     
 1735              		.loc 1 125 5 is_stmt 1 view .LVU671
 125:../Common/IQMath/ti/_IQNasin_acos.c ****     
 1736              		.loc 1 125 11 is_stmt 0 view .LVU672
 1737 001a 830E     		lsrs	r3, r0, #26
 1738              	.LVL209:
 128:../Common/IQMath/ti/_IQNasin_acos.c ****     
 1739              		.loc 1 128 5 is_stmt 1 view .LVU673
 128:../Common/IQMath/ti/_IQNasin_acos.c ****     
 1740              		.loc 1 128 17 is_stmt 0 view .LVU674
 1741 001c 03EB8303 		add	r3, r3, r3, lsl #2
 1742              	.LVL210:
 128:../Common/IQMath/ti/_IQNasin_acos.c ****     
 1743              		.loc 1 128 17 view .LVU675
 1744 0020 2849     		ldr	r1, .L83
 1745 0022 01EB8302 		add	r2, r1, r3, lsl #2
 1746              	.LVL211:
 136:../Common/IQMath/ti/_IQNasin_acos.c ****     
 1747              		.loc 1 136 5 is_stmt 1 view .LVU676
ARM GAS  C:\Users\57308\AppData\Local\Temp\cc4OkGld.s 			page 49


 136:../Common/IQMath/ti/_IQNasin_acos.c ****     
 1748              		.loc 1 136 5 is_stmt 0 view .LVU677
 1749              	.LBE169:
 1750              	.LBE168:
  28:../Common/IQMath/ti/./support/RTS_support.h **** }
 1751              		.loc 2 28 5 is_stmt 1 view .LVU678
 1752              	.LBB180:
 1753              	.LBB178:
 145:../Common/IQMath/ti/_IQNasin_acos.c ****     
 1754              		.loc 1 145 5 view .LVU679
 145:../Common/IQMath/ti/_IQNasin_acos.c ****     
 1755              		.loc 1 145 18 is_stmt 0 view .LVU680
 1756 0026 51F82330 		ldr	r3, [r1, r3, lsl #2]
 1757              	.LVL212:
 1758              	.LBB170:
 1759              	.LBI170:
 233:../Common/IQMath/ti/./support/RTS_support.h **** {
 1760              		.loc 2 233 28 is_stmt 1 view .LVU681
 1761              	.LBB171:
 1762              		.loc 2 235 5 view .LVU682
 1763              		.loc 2 235 28 is_stmt 0 view .LVU683
 1764 002a 4FEAE07C 		asr	ip, r0, #31
 1765              		.loc 2 235 49 view .LVU684
 1766 002e D917     		asrs	r1, r3, #31
 1767              		.loc 2 235 47 view .LVU685
 1768 0030 00FB01F1 		mul	r1, r0, r1
 1769 0034 03FB0C11 		mla	r1, r3, ip, r1
 1770 0038 A0FB033E 		umull	r3, lr, r0, r3
 1771              	.LVL213:
 1772              		.loc 2 235 47 view .LVU686
 1773 003c 7144     		add	r1, r1, lr
 1774              		.loc 2 235 69 view .LVU687
 1775 003e DB0F     		lsrs	r3, r3, #31
 1776 0040 43EA4103 		orr	r3, r3, r1, lsl #1
 1777              	.LVL214:
 1778              		.loc 2 235 69 view .LVU688
 1779              	.LBE171:
 1780              	.LBE170:
 148:../Common/IQMath/ti/_IQNasin_acos.c ****     
 1781              		.loc 1 148 5 is_stmt 1 view .LVU689
 148:../Common/IQMath/ti/_IQNasin_acos.c ****     
 1782              		.loc 1 148 31 is_stmt 0 view .LVU690
 1783 0044 5168     		ldr	r1, [r2, #4]
 148:../Common/IQMath/ti/_IQNasin_acos.c ****     
 1784              		.loc 1 148 16 view .LVU691
 1785 0046 0B44     		add	r3, r3, r1
 1786              	.LVL215:
 151:../Common/IQMath/ti/_IQNasin_acos.c ****     
 1787              		.loc 1 151 5 is_stmt 1 view .LVU692
 1788              	.LBB172:
 1789              	.LBI172:
 233:../Common/IQMath/ti/./support/RTS_support.h **** {
 1790              		.loc 2 233 28 view .LVU693
 1791              	.LBB173:
 1792              		.loc 2 235 5 view .LVU694
 1793              		.loc 2 235 49 is_stmt 0 view .LVU695
 1794 0048 D917     		asrs	r1, r3, #31
ARM GAS  C:\Users\57308\AppData\Local\Temp\cc4OkGld.s 			page 50


 1795              		.loc 2 235 47 view .LVU696
 1796 004a 00FB01F1 		mul	r1, r0, r1
 1797 004e 03FB0C11 		mla	r1, r3, ip, r1
 1798 0052 A0FB033E 		umull	r3, lr, r0, r3
 1799              	.LVL216:
 1800              		.loc 2 235 47 view .LVU697
 1801 0056 7144     		add	r1, r1, lr
 1802              		.loc 2 235 69 view .LVU698
 1803 0058 DB0F     		lsrs	r3, r3, #31
 1804 005a 43EA4103 		orr	r3, r3, r1, lsl #1
 1805              	.LVL217:
 1806              		.loc 2 235 69 view .LVU699
 1807              	.LBE173:
 1808              	.LBE172:
 154:../Common/IQMath/ti/_IQNasin_acos.c ****     
 1809              		.loc 1 154 5 is_stmt 1 view .LVU700
 154:../Common/IQMath/ti/_IQNasin_acos.c ****     
 1810              		.loc 1 154 31 is_stmt 0 view .LVU701
 1811 005e 9168     		ldr	r1, [r2, #8]
 154:../Common/IQMath/ti/_IQNasin_acos.c ****     
 1812              		.loc 1 154 16 view .LVU702
 1813 0060 0B44     		add	r3, r3, r1
 1814              	.LVL218:
 157:../Common/IQMath/ti/_IQNasin_acos.c ****     
 1815              		.loc 1 157 5 is_stmt 1 view .LVU703
 1816              	.LBB174:
 1817              	.LBI174:
 233:../Common/IQMath/ti/./support/RTS_support.h **** {
 1818              		.loc 2 233 28 view .LVU704
 1819              	.LBB175:
 1820              		.loc 2 235 5 view .LVU705
 1821              		.loc 2 235 49 is_stmt 0 view .LVU706
 1822 0062 D917     		asrs	r1, r3, #31
 1823              		.loc 2 235 47 view .LVU707
 1824 0064 00FB01F1 		mul	r1, r0, r1
 1825 0068 03FB0C11 		mla	r1, r3, ip, r1
 1826 006c A0FB033E 		umull	r3, lr, r0, r3
 1827              	.LVL219:
 1828              		.loc 2 235 47 view .LVU708
 1829 0070 7144     		add	r1, r1, lr
 1830              		.loc 2 235 69 view .LVU709
 1831 0072 DB0F     		lsrs	r3, r3, #31
 1832 0074 43EA4103 		orr	r3, r3, r1, lsl #1
 1833              	.LVL220:
 1834              		.loc 2 235 69 view .LVU710
 1835              	.LBE175:
 1836              	.LBE174:
 160:../Common/IQMath/ti/_IQNasin_acos.c ****     
 1837              		.loc 1 160 5 is_stmt 1 view .LVU711
 160:../Common/IQMath/ti/_IQNasin_acos.c ****     
 1838              		.loc 1 160 31 is_stmt 0 view .LVU712
 1839 0078 D168     		ldr	r1, [r2, #12]
 160:../Common/IQMath/ti/_IQNasin_acos.c ****     
 1840              		.loc 1 160 16 view .LVU713
 1841 007a 0B44     		add	r3, r3, r1
 1842              	.LVL221:
 163:../Common/IQMath/ti/_IQNasin_acos.c ****     
ARM GAS  C:\Users\57308\AppData\Local\Temp\cc4OkGld.s 			page 51


 1843              		.loc 1 163 5 is_stmt 1 view .LVU714
 1844              	.LBB176:
 1845              	.LBI176:
 233:../Common/IQMath/ti/./support/RTS_support.h **** {
 1846              		.loc 2 233 28 view .LVU715
 1847              	.LBB177:
 1848              		.loc 2 235 5 view .LVU716
 1849              		.loc 2 235 49 is_stmt 0 view .LVU717
 1850 007c D917     		asrs	r1, r3, #31
 1851              		.loc 2 235 47 view .LVU718
 1852 007e 00FB01F1 		mul	r1, r0, r1
 1853 0082 03FB0C11 		mla	r1, r3, ip, r1
 1854 0086 A0FB0303 		umull	r0, r3, r0, r3
 1855              	.LVL222:
 1856              		.loc 2 235 47 view .LVU719
 1857 008a 0B44     		add	r3, r3, r1
 1858              		.loc 2 235 69 view .LVU720
 1859 008c C00F     		lsrs	r0, r0, #31
 1860 008e 40EA4300 		orr	r0, r0, r3, lsl #1
 1861              	.LVL223:
 1862              		.loc 2 235 69 view .LVU721
 1863              	.LBE177:
 1864              	.LBE176:
 166:../Common/IQMath/ti/_IQNasin_acos.c ****     
 1865              		.loc 1 166 5 is_stmt 1 view .LVU722
 166:../Common/IQMath/ti/_IQNasin_acos.c ****     
 1866              		.loc 1 166 31 is_stmt 0 view .LVU723
 1867 0092 1369     		ldr	r3, [r2, #16]
 166:../Common/IQMath/ti/_IQNasin_acos.c ****     
 1868              		.loc 1 166 16 view .LVU724
 1869 0094 1844     		add	r0, r0, r3
 1870              	.LVL224:
 172:../Common/IQMath/ti/_IQNasin_acos.c ****     
 1871              		.loc 1 172 5 is_stmt 1 view .LVU725
 172:../Common/IQMath/ti/_IQNasin_acos.c ****     
 1872              		.loc 1 172 5 is_stmt 0 view .LVU726
 1873              	.LBE178:
 1874              	.LBE180:
  72:../Common/IQMath/ti/./support/RTS_support.h **** }
 1875              		.loc 2 72 5 is_stmt 1 view .LVU727
 1876              	.LBB181:
 1877              	.LBB179:
 175:../Common/IQMath/ti/_IQNasin_acos.c ****         /* asin(x) = pi/2 - 2*iq29Result */
 1878              		.loc 1 175 5 view .LVU728
 175:../Common/IQMath/ti/_IQNasin_acos.c ****         /* asin(x) = pi/2 - 2*iq29Result */
 1879              		.loc 1 175 8 is_stmt 0 view .LVU729
 1880 0096 14F0020F 		tst	r4, #2
 1881 009a 02D0     		beq	.L77
 177:../Common/IQMath/ti/_IQNasin_acos.c ****         iq29Result -= iq29_halfPi;      // this is equivalent to the above
 1882              		.loc 1 177 9 is_stmt 1 view .LVU730
 1883              	.LVL225:
 178:../Common/IQMath/ti/_IQNasin_acos.c ****         iq29Result = -iq29Result;       // but avoids using temporary registers
 1884              		.loc 1 178 9 view .LVU731
 179:../Common/IQMath/ti/_IQNasin_acos.c ****     }
 1885              		.loc 1 179 9 view .LVU732
 179:../Common/IQMath/ti/_IQNasin_acos.c ****     }
 1886              		.loc 1 179 20 is_stmt 0 view .LVU733
ARM GAS  C:\Users\57308\AppData\Local\Temp\cc4OkGld.s 			page 52


 1887 009c 0A4B     		ldr	r3, .L83+4
 1888 009e A3EB4000 		sub	r0, r3, r0, lsl #1
 1889              	.LVL226:
 1890              	.L77:
 183:../Common/IQMath/ti/_IQNasin_acos.c ****     
 1891              		.loc 1 183 5 is_stmt 1 view .LVU734
 183:../Common/IQMath/ti/_IQNasin_acos.c ****     
 1892              		.loc 1 183 16 is_stmt 0 view .LVU735
 1893 00a2 8011     		asrs	r0, r0, #6
 1894              	.LVL227:
 186:../Common/IQMath/ti/_IQNasin_acos.c ****         iq29Result = -iq29Result;
 1895              		.loc 1 186 5 is_stmt 1 view .LVU736
 186:../Common/IQMath/ti/_IQNasin_acos.c ****         iq29Result = -iq29Result;
 1896              		.loc 1 186 8 is_stmt 0 view .LVU737
 1897 00a4 14F0010F 		tst	r4, #1
 1898 00a8 0BD0     		beq	.L73
 187:../Common/IQMath/ti/_IQNasin_acos.c ****     }
 1899              		.loc 1 187 9 is_stmt 1 view .LVU738
 187:../Common/IQMath/ti/_IQNasin_acos.c ****     }
 1900              		.loc 1 187 20 is_stmt 0 view .LVU739
 1901 00aa 4042     		rsbs	r0, r0, #0
 1902              	.LVL228:
 187:../Common/IQMath/ti/_IQNasin_acos.c ****     }
 1903              		.loc 1 187 20 view .LVU740
 1904 00ac 09E0     		b	.L73
 1905              	.LVL229:
 1906              	.L81:
  90:../Common/IQMath/ti/_IQNasin_acos.c ****         iqNInput = -iqNInput;
 1907              		.loc 1 90 9 is_stmt 1 view .LVU741
  91:../Common/IQMath/ti/_IQNasin_acos.c ****     }
 1908              		.loc 1 91 9 view .LVU742
  91:../Common/IQMath/ti/_IQNasin_acos.c ****     }
 1909              		.loc 1 91 18 is_stmt 0 view .LVU743
 1910 00ae 4042     		rsbs	r0, r0, #0
 1911              	.LVL230:
  90:../Common/IQMath/ti/_IQNasin_acos.c ****         iqNInput = -iqNInput;
 1912              		.loc 1 90 19 view .LVU744
 1913 00b0 0124     		movs	r4, #1
 1914 00b2 A9E7     		b	.L74
 1915              	.LVL231:
 1916              	.L82:
 115:../Common/IQMath/ti/_IQNasin_acos.c ****         
 1917              		.loc 1 115 9 is_stmt 1 view .LVU745
 118:../Common/IQMath/ti/_IQNasin_acos.c ****         
 1918              		.loc 1 118 9 view .LVU746
 118:../Common/IQMath/ti/_IQNasin_acos.c ****         
 1919              		.loc 1 118 22 is_stmt 0 view .LVU747
 1920 00b4 5808     		lsrs	r0, r3, #1
 1921              	.LVL232:
 118:../Common/IQMath/ti/_IQNasin_acos.c ****         
 1922              		.loc 1 118 22 view .LVU748
 1923 00b6 FFF7FEFF 		bl	_IQ31sqrt
 1924              	.LVL233:
 121:../Common/IQMath/ti/_IQNasin_acos.c ****     }
 1925              		.loc 1 121 9 is_stmt 1 view .LVU749
 121:../Common/IQMath/ti/_IQNasin_acos.c ****     }
 1926              		.loc 1 121 19 is_stmt 0 view .LVU750
ARM GAS  C:\Users\57308\AppData\Local\Temp\cc4OkGld.s 			page 53


 1927 00ba 44F00204 		orr	r4, r4, #2
 1928              	.LVL234:
 121:../Common/IQMath/ti/_IQNasin_acos.c ****     }
 1929              		.loc 1 121 19 view .LVU751
 1930 00be ACE7     		b	.L76
 1931              	.LVL235:
 1932              	.L79:
 100:../Common/IQMath/ti/_IQNasin_acos.c ****     }
 1933              		.loc 1 100 16 view .LVU752
 1934 00c0 0020     		movs	r0, #0
 1935              	.LVL236:
 1936              	.L73:
 100:../Common/IQMath/ti/_IQNasin_acos.c ****     }
 1937              		.loc 1 100 16 view .LVU753
 1938              	.LBE179:
 1939              	.LBE181:
 270:../Common/IQMath/ti/_IQNasin_acos.c **** }
 1940              		.loc 1 270 1 view .LVU754
 1941 00c2 10BD     		pop	{r4, pc}
 1942              	.L84:
 1943              		.align	2
 1944              	.L83:
 1945 00c4 00000000 		.word	_IQ29Asin_coeffs
 1946 00c8 A8F64332 		.word	843314856
 1947              		.cfi_endproc
 1948              	.LFE268:
 1950              		.section	.text._IQ22asin,"ax",%progbits
 1951              		.align	1
 1952              		.global	_IQ22asin
 1953              		.syntax unified
 1954              		.thumb
 1955              		.thumb_func
 1957              	_IQ22asin:
 1958              	.LVL237:
 1959              	.LFB269:
 271:../Common/IQMath/ti/_IQNasin_acos.c **** /**
 272:../Common/IQMath/ti/_IQNasin_acos.c ****  * @brief Computes the inverse sine of the IQ22 input.
 273:../Common/IQMath/ti/_IQNasin_acos.c ****  *
 274:../Common/IQMath/ti/_IQNasin_acos.c ****  * @param a               IQ22 type input.
 275:../Common/IQMath/ti/_IQNasin_acos.c ****  *
 276:../Common/IQMath/ti/_IQNasin_acos.c ****  * @return                IQ22 type result of inverse sine.
 277:../Common/IQMath/ti/_IQNasin_acos.c ****  */
 278:../Common/IQMath/ti/_IQNasin_acos.c **** int32_t _IQ22asin(int32_t a)
 279:../Common/IQMath/ti/_IQNasin_acos.c **** {
 1960              		.loc 1 279 1 is_stmt 1 view -0
 1961              		.cfi_startproc
 1962              		@ args = 0, pretend = 0, frame = 0
 1963              		@ frame_needed = 0, uses_anonymous_args = 0
 1964              		.loc 1 279 1 is_stmt 0 view .LVU756
 1965 0000 10B5     		push	{r4, lr}
 1966              	.LCFI7:
 1967              		.cfi_def_cfa_offset 8
 1968              		.cfi_offset 4, -8
 1969              		.cfi_offset 14, -4
 280:../Common/IQMath/ti/_IQNasin_acos.c ****     return __IQNasin(a, 22);
 1970              		.loc 1 280 5 is_stmt 1 view .LVU757
 1971              	.LVL238:
ARM GAS  C:\Users\57308\AppData\Local\Temp\cc4OkGld.s 			page 54


 1972              	.LBB192:
 1973              	.LBI192:
  70:../Common/IQMath/ti/_IQNasin_acos.c **** {
 1974              		.loc 1 70 30 view .LVU758
 1975              	.LBB193:
  72:../Common/IQMath/ti/_IQNasin_acos.c ****     uint_fast16_t index;
 1976              		.loc 1 72 5 view .LVU759
  73:../Common/IQMath/ti/_IQNasin_acos.c ****     uint_fast16_t ui16IntState;
 1977              		.loc 1 73 5 view .LVU760
  74:../Common/IQMath/ti/_IQNasin_acos.c ****     uint_fast16_t ui16MPYState;
 1978              		.loc 1 74 5 view .LVU761
  75:../Common/IQMath/ti/_IQNasin_acos.c ****     int_fast32_t iq29Result;
 1979              		.loc 1 75 5 view .LVU762
  76:../Common/IQMath/ti/_IQNasin_acos.c ****     const int_fast32_t *piq29Coeffs;
 1980              		.loc 1 76 5 view .LVU763
  77:../Common/IQMath/ti/_IQNasin_acos.c ****     uint_fast32_t uiq31Input;
 1981              		.loc 1 77 5 view .LVU764
  78:../Common/IQMath/ti/_IQNasin_acos.c ****     uint_fast32_t uiq31InputTemp;
 1982              		.loc 1 78 5 view .LVU765
  79:../Common/IQMath/ti/_IQNasin_acos.c ****     
 1983              		.loc 1 79 5 view .LVU766
  89:../Common/IQMath/ti/_IQNasin_acos.c ****         ui8Status |= 1;
 1984              		.loc 1 89 5 view .LVU767
  89:../Common/IQMath/ti/_IQNasin_acos.c ****         ui8Status |= 1;
 1985              		.loc 1 89 8 is_stmt 0 view .LVU768
 1986 0002 0028     		cmp	r0, #0
  89:../Common/IQMath/ti/_IQNasin_acos.c ****         ui8Status |= 1;
 1987              		.loc 1 89 8 view .LVU769
 1988 0004 53DB     		blt	.L93
  72:../Common/IQMath/ti/_IQNasin_acos.c ****     uint_fast16_t index;
 1989              		.loc 1 72 13 view .LVU770
 1990 0006 0024     		movs	r4, #0
 1991              	.LVL239:
 1992              	.L86:
  99:../Common/IQMath/ti/_IQNasin_acos.c ****         return 0;
 1993              		.loc 1 99 5 is_stmt 1 view .LVU771
  99:../Common/IQMath/ti/_IQNasin_acos.c ****         return 0;
 1994              		.loc 1 99 8 is_stmt 0 view .LVU772
 1995 0008 B0F5800F 		cmp	r0, #4194304
 1996 000c 58D8     		bhi	.L91
 104:../Common/IQMath/ti/_IQNasin_acos.c ****     
 1997              		.loc 1 104 5 is_stmt 1 view .LVU773
 104:../Common/IQMath/ti/_IQNasin_acos.c ****     
 1998              		.loc 1 104 16 is_stmt 0 view .LVU774
 1999 000e 4002     		lsls	r0, r0, #9
 2000              	.LVL240:
 112:../Common/IQMath/ti/_IQNasin_acos.c ****     if (uiq31InputTemp < 0x40000000) {
 2001              		.loc 1 112 5 is_stmt 1 view .LVU775
 112:../Common/IQMath/ti/_IQNasin_acos.c ****     if (uiq31InputTemp < 0x40000000) {
 2002              		.loc 1 112 20 is_stmt 0 view .LVU776
 2003 0010 C0F10043 		rsb	r3, r0, #-2147483648
 2004              	.LVL241:
 113:../Common/IQMath/ti/_IQNasin_acos.c ****         /* Halve the result. */
 2005              		.loc 1 113 5 is_stmt 1 view .LVU777
 113:../Common/IQMath/ti/_IQNasin_acos.c ****         /* Halve the result. */
 2006              		.loc 1 113 8 is_stmt 0 view .LVU778
 2007 0014 B3F1804F 		cmp	r3, #1073741824
ARM GAS  C:\Users\57308\AppData\Local\Temp\cc4OkGld.s 			page 55


 2008 0018 4CD3     		bcc	.L94
 2009              	.LVL242:
 2010              	.L88:
 125:../Common/IQMath/ti/_IQNasin_acos.c ****     
 2011              		.loc 1 125 5 is_stmt 1 view .LVU779
 125:../Common/IQMath/ti/_IQNasin_acos.c ****     
 2012              		.loc 1 125 11 is_stmt 0 view .LVU780
 2013 001a 830E     		lsrs	r3, r0, #26
 2014              	.LVL243:
 128:../Common/IQMath/ti/_IQNasin_acos.c ****     
 2015              		.loc 1 128 5 is_stmt 1 view .LVU781
 128:../Common/IQMath/ti/_IQNasin_acos.c ****     
 2016              		.loc 1 128 17 is_stmt 0 view .LVU782
 2017 001c 03EB8303 		add	r3, r3, r3, lsl #2
 2018              	.LVL244:
 128:../Common/IQMath/ti/_IQNasin_acos.c ****     
 2019              		.loc 1 128 17 view .LVU783
 2020 0020 2849     		ldr	r1, .L95
 2021 0022 01EB8302 		add	r2, r1, r3, lsl #2
 2022              	.LVL245:
 136:../Common/IQMath/ti/_IQNasin_acos.c ****     
 2023              		.loc 1 136 5 is_stmt 1 view .LVU784
 136:../Common/IQMath/ti/_IQNasin_acos.c ****     
 2024              		.loc 1 136 5 is_stmt 0 view .LVU785
 2025              	.LBE193:
 2026              	.LBE192:
  28:../Common/IQMath/ti/./support/RTS_support.h **** }
 2027              		.loc 2 28 5 is_stmt 1 view .LVU786
 2028              	.LBB204:
 2029              	.LBB202:
 145:../Common/IQMath/ti/_IQNasin_acos.c ****     
 2030              		.loc 1 145 5 view .LVU787
 145:../Common/IQMath/ti/_IQNasin_acos.c ****     
 2031              		.loc 1 145 18 is_stmt 0 view .LVU788
 2032 0026 51F82330 		ldr	r3, [r1, r3, lsl #2]
 2033              	.LVL246:
 2034              	.LBB194:
 2035              	.LBI194:
 233:../Common/IQMath/ti/./support/RTS_support.h **** {
 2036              		.loc 2 233 28 is_stmt 1 view .LVU789
 2037              	.LBB195:
 2038              		.loc 2 235 5 view .LVU790
 2039              		.loc 2 235 28 is_stmt 0 view .LVU791
 2040 002a 4FEAE07C 		asr	ip, r0, #31
 2041              		.loc 2 235 49 view .LVU792
 2042 002e D917     		asrs	r1, r3, #31
 2043              		.loc 2 235 47 view .LVU793
 2044 0030 00FB01F1 		mul	r1, r0, r1
 2045 0034 03FB0C11 		mla	r1, r3, ip, r1
 2046 0038 A0FB033E 		umull	r3, lr, r0, r3
 2047              	.LVL247:
 2048              		.loc 2 235 47 view .LVU794
 2049 003c 7144     		add	r1, r1, lr
 2050              		.loc 2 235 69 view .LVU795
 2051 003e DB0F     		lsrs	r3, r3, #31
 2052 0040 43EA4103 		orr	r3, r3, r1, lsl #1
 2053              	.LVL248:
ARM GAS  C:\Users\57308\AppData\Local\Temp\cc4OkGld.s 			page 56


 2054              		.loc 2 235 69 view .LVU796
 2055              	.LBE195:
 2056              	.LBE194:
 148:../Common/IQMath/ti/_IQNasin_acos.c ****     
 2057              		.loc 1 148 5 is_stmt 1 view .LVU797
 148:../Common/IQMath/ti/_IQNasin_acos.c ****     
 2058              		.loc 1 148 31 is_stmt 0 view .LVU798
 2059 0044 5168     		ldr	r1, [r2, #4]
 148:../Common/IQMath/ti/_IQNasin_acos.c ****     
 2060              		.loc 1 148 16 view .LVU799
 2061 0046 0B44     		add	r3, r3, r1
 2062              	.LVL249:
 151:../Common/IQMath/ti/_IQNasin_acos.c ****     
 2063              		.loc 1 151 5 is_stmt 1 view .LVU800
 2064              	.LBB196:
 2065              	.LBI196:
 233:../Common/IQMath/ti/./support/RTS_support.h **** {
 2066              		.loc 2 233 28 view .LVU801
 2067              	.LBB197:
 2068              		.loc 2 235 5 view .LVU802
 2069              		.loc 2 235 49 is_stmt 0 view .LVU803
 2070 0048 D917     		asrs	r1, r3, #31
 2071              		.loc 2 235 47 view .LVU804
 2072 004a 00FB01F1 		mul	r1, r0, r1
 2073 004e 03FB0C11 		mla	r1, r3, ip, r1
 2074 0052 A0FB033E 		umull	r3, lr, r0, r3
 2075              	.LVL250:
 2076              		.loc 2 235 47 view .LVU805
 2077 0056 7144     		add	r1, r1, lr
 2078              		.loc 2 235 69 view .LVU806
 2079 0058 DB0F     		lsrs	r3, r3, #31
 2080 005a 43EA4103 		orr	r3, r3, r1, lsl #1
 2081              	.LVL251:
 2082              		.loc 2 235 69 view .LVU807
 2083              	.LBE197:
 2084              	.LBE196:
 154:../Common/IQMath/ti/_IQNasin_acos.c ****     
 2085              		.loc 1 154 5 is_stmt 1 view .LVU808
 154:../Common/IQMath/ti/_IQNasin_acos.c ****     
 2086              		.loc 1 154 31 is_stmt 0 view .LVU809
 2087 005e 9168     		ldr	r1, [r2, #8]
 154:../Common/IQMath/ti/_IQNasin_acos.c ****     
 2088              		.loc 1 154 16 view .LVU810
 2089 0060 0B44     		add	r3, r3, r1
 2090              	.LVL252:
 157:../Common/IQMath/ti/_IQNasin_acos.c ****     
 2091              		.loc 1 157 5 is_stmt 1 view .LVU811
 2092              	.LBB198:
 2093              	.LBI198:
 233:../Common/IQMath/ti/./support/RTS_support.h **** {
 2094              		.loc 2 233 28 view .LVU812
 2095              	.LBB199:
 2096              		.loc 2 235 5 view .LVU813
 2097              		.loc 2 235 49 is_stmt 0 view .LVU814
 2098 0062 D917     		asrs	r1, r3, #31
 2099              		.loc 2 235 47 view .LVU815
 2100 0064 00FB01F1 		mul	r1, r0, r1
ARM GAS  C:\Users\57308\AppData\Local\Temp\cc4OkGld.s 			page 57


 2101 0068 03FB0C11 		mla	r1, r3, ip, r1
 2102 006c A0FB033E 		umull	r3, lr, r0, r3
 2103              	.LVL253:
 2104              		.loc 2 235 47 view .LVU816
 2105 0070 7144     		add	r1, r1, lr
 2106              		.loc 2 235 69 view .LVU817
 2107 0072 DB0F     		lsrs	r3, r3, #31
 2108 0074 43EA4103 		orr	r3, r3, r1, lsl #1
 2109              	.LVL254:
 2110              		.loc 2 235 69 view .LVU818
 2111              	.LBE199:
 2112              	.LBE198:
 160:../Common/IQMath/ti/_IQNasin_acos.c ****     
 2113              		.loc 1 160 5 is_stmt 1 view .LVU819
 160:../Common/IQMath/ti/_IQNasin_acos.c ****     
 2114              		.loc 1 160 31 is_stmt 0 view .LVU820
 2115 0078 D168     		ldr	r1, [r2, #12]
 160:../Common/IQMath/ti/_IQNasin_acos.c ****     
 2116              		.loc 1 160 16 view .LVU821
 2117 007a 0B44     		add	r3, r3, r1
 2118              	.LVL255:
 163:../Common/IQMath/ti/_IQNasin_acos.c ****     
 2119              		.loc 1 163 5 is_stmt 1 view .LVU822
 2120              	.LBB200:
 2121              	.LBI200:
 233:../Common/IQMath/ti/./support/RTS_support.h **** {
 2122              		.loc 2 233 28 view .LVU823
 2123              	.LBB201:
 2124              		.loc 2 235 5 view .LVU824
 2125              		.loc 2 235 49 is_stmt 0 view .LVU825
 2126 007c D917     		asrs	r1, r3, #31
 2127              		.loc 2 235 47 view .LVU826
 2128 007e 00FB01F1 		mul	r1, r0, r1
 2129 0082 03FB0C11 		mla	r1, r3, ip, r1
 2130 0086 A0FB0303 		umull	r0, r3, r0, r3
 2131              	.LVL256:
 2132              		.loc 2 235 47 view .LVU827
 2133 008a 0B44     		add	r3, r3, r1
 2134              		.loc 2 235 69 view .LVU828
 2135 008c C00F     		lsrs	r0, r0, #31
 2136 008e 40EA4300 		orr	r0, r0, r3, lsl #1
 2137              	.LVL257:
 2138              		.loc 2 235 69 view .LVU829
 2139              	.LBE201:
 2140              	.LBE200:
 166:../Common/IQMath/ti/_IQNasin_acos.c ****     
 2141              		.loc 1 166 5 is_stmt 1 view .LVU830
 166:../Common/IQMath/ti/_IQNasin_acos.c ****     
 2142              		.loc 1 166 31 is_stmt 0 view .LVU831
 2143 0092 1369     		ldr	r3, [r2, #16]
 166:../Common/IQMath/ti/_IQNasin_acos.c ****     
 2144              		.loc 1 166 16 view .LVU832
 2145 0094 1844     		add	r0, r0, r3
 2146              	.LVL258:
 172:../Common/IQMath/ti/_IQNasin_acos.c ****     
 2147              		.loc 1 172 5 is_stmt 1 view .LVU833
 172:../Common/IQMath/ti/_IQNasin_acos.c ****     
ARM GAS  C:\Users\57308\AppData\Local\Temp\cc4OkGld.s 			page 58


 2148              		.loc 1 172 5 is_stmt 0 view .LVU834
 2149              	.LBE202:
 2150              	.LBE204:
  72:../Common/IQMath/ti/./support/RTS_support.h **** }
 2151              		.loc 2 72 5 is_stmt 1 view .LVU835
 2152              	.LBB205:
 2153              	.LBB203:
 175:../Common/IQMath/ti/_IQNasin_acos.c ****         /* asin(x) = pi/2 - 2*iq29Result */
 2154              		.loc 1 175 5 view .LVU836
 175:../Common/IQMath/ti/_IQNasin_acos.c ****         /* asin(x) = pi/2 - 2*iq29Result */
 2155              		.loc 1 175 8 is_stmt 0 view .LVU837
 2156 0096 14F0020F 		tst	r4, #2
 2157 009a 02D0     		beq	.L89
 177:../Common/IQMath/ti/_IQNasin_acos.c ****         iq29Result -= iq29_halfPi;      // this is equivalent to the above
 2158              		.loc 1 177 9 is_stmt 1 view .LVU838
 2159              	.LVL259:
 178:../Common/IQMath/ti/_IQNasin_acos.c ****         iq29Result = -iq29Result;       // but avoids using temporary registers
 2160              		.loc 1 178 9 view .LVU839
 179:../Common/IQMath/ti/_IQNasin_acos.c ****     }
 2161              		.loc 1 179 9 view .LVU840
 179:../Common/IQMath/ti/_IQNasin_acos.c ****     }
 2162              		.loc 1 179 20 is_stmt 0 view .LVU841
 2163 009c 0A4B     		ldr	r3, .L95+4
 2164 009e A3EB4000 		sub	r0, r3, r0, lsl #1
 2165              	.LVL260:
 2166              	.L89:
 183:../Common/IQMath/ti/_IQNasin_acos.c ****     
 2167              		.loc 1 183 5 is_stmt 1 view .LVU842
 183:../Common/IQMath/ti/_IQNasin_acos.c ****     
 2168              		.loc 1 183 16 is_stmt 0 view .LVU843
 2169 00a2 C011     		asrs	r0, r0, #7
 2170              	.LVL261:
 186:../Common/IQMath/ti/_IQNasin_acos.c ****         iq29Result = -iq29Result;
 2171              		.loc 1 186 5 is_stmt 1 view .LVU844
 186:../Common/IQMath/ti/_IQNasin_acos.c ****         iq29Result = -iq29Result;
 2172              		.loc 1 186 8 is_stmt 0 view .LVU845
 2173 00a4 14F0010F 		tst	r4, #1
 2174 00a8 0BD0     		beq	.L85
 187:../Common/IQMath/ti/_IQNasin_acos.c ****     }
 2175              		.loc 1 187 9 is_stmt 1 view .LVU846
 187:../Common/IQMath/ti/_IQNasin_acos.c ****     }
 2176              		.loc 1 187 20 is_stmt 0 view .LVU847
 2177 00aa 4042     		rsbs	r0, r0, #0
 2178              	.LVL262:
 187:../Common/IQMath/ti/_IQNasin_acos.c ****     }
 2179              		.loc 1 187 20 view .LVU848
 2180 00ac 09E0     		b	.L85
 2181              	.LVL263:
 2182              	.L93:
  90:../Common/IQMath/ti/_IQNasin_acos.c ****         iqNInput = -iqNInput;
 2183              		.loc 1 90 9 is_stmt 1 view .LVU849
  91:../Common/IQMath/ti/_IQNasin_acos.c ****     }
 2184              		.loc 1 91 9 view .LVU850
  91:../Common/IQMath/ti/_IQNasin_acos.c ****     }
 2185              		.loc 1 91 18 is_stmt 0 view .LVU851
 2186 00ae 4042     		rsbs	r0, r0, #0
 2187              	.LVL264:
ARM GAS  C:\Users\57308\AppData\Local\Temp\cc4OkGld.s 			page 59


  90:../Common/IQMath/ti/_IQNasin_acos.c ****         iqNInput = -iqNInput;
 2188              		.loc 1 90 19 view .LVU852
 2189 00b0 0124     		movs	r4, #1
 2190 00b2 A9E7     		b	.L86
 2191              	.LVL265:
 2192              	.L94:
 115:../Common/IQMath/ti/_IQNasin_acos.c ****         
 2193              		.loc 1 115 9 is_stmt 1 view .LVU853
 118:../Common/IQMath/ti/_IQNasin_acos.c ****         
 2194              		.loc 1 118 9 view .LVU854
 118:../Common/IQMath/ti/_IQNasin_acos.c ****         
 2195              		.loc 1 118 22 is_stmt 0 view .LVU855
 2196 00b4 5808     		lsrs	r0, r3, #1
 2197              	.LVL266:
 118:../Common/IQMath/ti/_IQNasin_acos.c ****         
 2198              		.loc 1 118 22 view .LVU856
 2199 00b6 FFF7FEFF 		bl	_IQ31sqrt
 2200              	.LVL267:
 121:../Common/IQMath/ti/_IQNasin_acos.c ****     }
 2201              		.loc 1 121 9 is_stmt 1 view .LVU857
 121:../Common/IQMath/ti/_IQNasin_acos.c ****     }
 2202              		.loc 1 121 19 is_stmt 0 view .LVU858
 2203 00ba 44F00204 		orr	r4, r4, #2
 2204              	.LVL268:
 121:../Common/IQMath/ti/_IQNasin_acos.c ****     }
 2205              		.loc 1 121 19 view .LVU859
 2206 00be ACE7     		b	.L88
 2207              	.LVL269:
 2208              	.L91:
 100:../Common/IQMath/ti/_IQNasin_acos.c ****     }
 2209              		.loc 1 100 16 view .LVU860
 2210 00c0 0020     		movs	r0, #0
 2211              	.LVL270:
 2212              	.L85:
 100:../Common/IQMath/ti/_IQNasin_acos.c ****     }
 2213              		.loc 1 100 16 view .LVU861
 2214              	.LBE203:
 2215              	.LBE205:
 281:../Common/IQMath/ti/_IQNasin_acos.c **** }
 2216              		.loc 1 281 1 view .LVU862
 2217 00c2 10BD     		pop	{r4, pc}
 2218              	.L96:
 2219              		.align	2
 2220              	.L95:
 2221 00c4 00000000 		.word	_IQ29Asin_coeffs
 2222 00c8 A8F64332 		.word	843314856
 2223              		.cfi_endproc
 2224              	.LFE269:
 2226              		.section	.text._IQ21asin,"ax",%progbits
 2227              		.align	1
 2228              		.global	_IQ21asin
 2229              		.syntax unified
 2230              		.thumb
 2231              		.thumb_func
 2233              	_IQ21asin:
 2234              	.LVL271:
 2235              	.LFB270:
ARM GAS  C:\Users\57308\AppData\Local\Temp\cc4OkGld.s 			page 60


 282:../Common/IQMath/ti/_IQNasin_acos.c **** /**
 283:../Common/IQMath/ti/_IQNasin_acos.c ****  * @brief Computes the inverse sine of the IQ21 input.
 284:../Common/IQMath/ti/_IQNasin_acos.c ****  *
 285:../Common/IQMath/ti/_IQNasin_acos.c ****  * @param a               IQ21 type input.
 286:../Common/IQMath/ti/_IQNasin_acos.c ****  *
 287:../Common/IQMath/ti/_IQNasin_acos.c ****  * @return                IQ21 type result of inverse sine.
 288:../Common/IQMath/ti/_IQNasin_acos.c ****  */
 289:../Common/IQMath/ti/_IQNasin_acos.c **** int32_t _IQ21asin(int32_t a)
 290:../Common/IQMath/ti/_IQNasin_acos.c **** {
 2236              		.loc 1 290 1 is_stmt 1 view -0
 2237              		.cfi_startproc
 2238              		@ args = 0, pretend = 0, frame = 0
 2239              		@ frame_needed = 0, uses_anonymous_args = 0
 2240              		.loc 1 290 1 is_stmt 0 view .LVU864
 2241 0000 10B5     		push	{r4, lr}
 2242              	.LCFI8:
 2243              		.cfi_def_cfa_offset 8
 2244              		.cfi_offset 4, -8
 2245              		.cfi_offset 14, -4
 291:../Common/IQMath/ti/_IQNasin_acos.c ****     return __IQNasin(a, 21);
 2246              		.loc 1 291 5 is_stmt 1 view .LVU865
 2247              	.LVL272:
 2248              	.LBB216:
 2249              	.LBI216:
  70:../Common/IQMath/ti/_IQNasin_acos.c **** {
 2250              		.loc 1 70 30 view .LVU866
 2251              	.LBB217:
  72:../Common/IQMath/ti/_IQNasin_acos.c ****     uint_fast16_t index;
 2252              		.loc 1 72 5 view .LVU867
  73:../Common/IQMath/ti/_IQNasin_acos.c ****     uint_fast16_t ui16IntState;
 2253              		.loc 1 73 5 view .LVU868
  74:../Common/IQMath/ti/_IQNasin_acos.c ****     uint_fast16_t ui16MPYState;
 2254              		.loc 1 74 5 view .LVU869
  75:../Common/IQMath/ti/_IQNasin_acos.c ****     int_fast32_t iq29Result;
 2255              		.loc 1 75 5 view .LVU870
  76:../Common/IQMath/ti/_IQNasin_acos.c ****     const int_fast32_t *piq29Coeffs;
 2256              		.loc 1 76 5 view .LVU871
  77:../Common/IQMath/ti/_IQNasin_acos.c ****     uint_fast32_t uiq31Input;
 2257              		.loc 1 77 5 view .LVU872
  78:../Common/IQMath/ti/_IQNasin_acos.c ****     uint_fast32_t uiq31InputTemp;
 2258              		.loc 1 78 5 view .LVU873
  79:../Common/IQMath/ti/_IQNasin_acos.c ****     
 2259              		.loc 1 79 5 view .LVU874
  89:../Common/IQMath/ti/_IQNasin_acos.c ****         ui8Status |= 1;
 2260              		.loc 1 89 5 view .LVU875
  89:../Common/IQMath/ti/_IQNasin_acos.c ****         ui8Status |= 1;
 2261              		.loc 1 89 8 is_stmt 0 view .LVU876
 2262 0002 0028     		cmp	r0, #0
  89:../Common/IQMath/ti/_IQNasin_acos.c ****         ui8Status |= 1;
 2263              		.loc 1 89 8 view .LVU877
 2264 0004 53DB     		blt	.L105
  72:../Common/IQMath/ti/_IQNasin_acos.c ****     uint_fast16_t index;
 2265              		.loc 1 72 13 view .LVU878
 2266 0006 0024     		movs	r4, #0
 2267              	.LVL273:
 2268              	.L98:
  99:../Common/IQMath/ti/_IQNasin_acos.c ****         return 0;
ARM GAS  C:\Users\57308\AppData\Local\Temp\cc4OkGld.s 			page 61


 2269              		.loc 1 99 5 is_stmt 1 view .LVU879
  99:../Common/IQMath/ti/_IQNasin_acos.c ****         return 0;
 2270              		.loc 1 99 8 is_stmt 0 view .LVU880
 2271 0008 B0F5001F 		cmp	r0, #2097152
 2272 000c 58D8     		bhi	.L103
 104:../Common/IQMath/ti/_IQNasin_acos.c ****     
 2273              		.loc 1 104 5 is_stmt 1 view .LVU881
 104:../Common/IQMath/ti/_IQNasin_acos.c ****     
 2274              		.loc 1 104 16 is_stmt 0 view .LVU882
 2275 000e 8002     		lsls	r0, r0, #10
 2276              	.LVL274:
 112:../Common/IQMath/ti/_IQNasin_acos.c ****     if (uiq31InputTemp < 0x40000000) {
 2277              		.loc 1 112 5 is_stmt 1 view .LVU883
 112:../Common/IQMath/ti/_IQNasin_acos.c ****     if (uiq31InputTemp < 0x40000000) {
 2278              		.loc 1 112 20 is_stmt 0 view .LVU884
 2279 0010 C0F10043 		rsb	r3, r0, #-2147483648
 2280              	.LVL275:
 113:../Common/IQMath/ti/_IQNasin_acos.c ****         /* Halve the result. */
 2281              		.loc 1 113 5 is_stmt 1 view .LVU885
 113:../Common/IQMath/ti/_IQNasin_acos.c ****         /* Halve the result. */
 2282              		.loc 1 113 8 is_stmt 0 view .LVU886
 2283 0014 B3F1804F 		cmp	r3, #1073741824
 2284 0018 4CD3     		bcc	.L106
 2285              	.LVL276:
 2286              	.L100:
 125:../Common/IQMath/ti/_IQNasin_acos.c ****     
 2287              		.loc 1 125 5 is_stmt 1 view .LVU887
 125:../Common/IQMath/ti/_IQNasin_acos.c ****     
 2288              		.loc 1 125 11 is_stmt 0 view .LVU888
 2289 001a 830E     		lsrs	r3, r0, #26
 2290              	.LVL277:
 128:../Common/IQMath/ti/_IQNasin_acos.c ****     
 2291              		.loc 1 128 5 is_stmt 1 view .LVU889
 128:../Common/IQMath/ti/_IQNasin_acos.c ****     
 2292              		.loc 1 128 17 is_stmt 0 view .LVU890
 2293 001c 03EB8303 		add	r3, r3, r3, lsl #2
 2294              	.LVL278:
 128:../Common/IQMath/ti/_IQNasin_acos.c ****     
 2295              		.loc 1 128 17 view .LVU891
 2296 0020 2849     		ldr	r1, .L107
 2297 0022 01EB8302 		add	r2, r1, r3, lsl #2
 2298              	.LVL279:
 136:../Common/IQMath/ti/_IQNasin_acos.c ****     
 2299              		.loc 1 136 5 is_stmt 1 view .LVU892
 136:../Common/IQMath/ti/_IQNasin_acos.c ****     
 2300              		.loc 1 136 5 is_stmt 0 view .LVU893
 2301              	.LBE217:
 2302              	.LBE216:
  28:../Common/IQMath/ti/./support/RTS_support.h **** }
 2303              		.loc 2 28 5 is_stmt 1 view .LVU894
 2304              	.LBB228:
 2305              	.LBB226:
 145:../Common/IQMath/ti/_IQNasin_acos.c ****     
 2306              		.loc 1 145 5 view .LVU895
 145:../Common/IQMath/ti/_IQNasin_acos.c ****     
 2307              		.loc 1 145 18 is_stmt 0 view .LVU896
 2308 0026 51F82330 		ldr	r3, [r1, r3, lsl #2]
ARM GAS  C:\Users\57308\AppData\Local\Temp\cc4OkGld.s 			page 62


 2309              	.LVL280:
 2310              	.LBB218:
 2311              	.LBI218:
 233:../Common/IQMath/ti/./support/RTS_support.h **** {
 2312              		.loc 2 233 28 is_stmt 1 view .LVU897
 2313              	.LBB219:
 2314              		.loc 2 235 5 view .LVU898
 2315              		.loc 2 235 28 is_stmt 0 view .LVU899
 2316 002a 4FEAE07C 		asr	ip, r0, #31
 2317              		.loc 2 235 49 view .LVU900
 2318 002e D917     		asrs	r1, r3, #31
 2319              		.loc 2 235 47 view .LVU901
 2320 0030 00FB01F1 		mul	r1, r0, r1
 2321 0034 03FB0C11 		mla	r1, r3, ip, r1
 2322 0038 A0FB033E 		umull	r3, lr, r0, r3
 2323              	.LVL281:
 2324              		.loc 2 235 47 view .LVU902
 2325 003c 7144     		add	r1, r1, lr
 2326              		.loc 2 235 69 view .LVU903
 2327 003e DB0F     		lsrs	r3, r3, #31
 2328 0040 43EA4103 		orr	r3, r3, r1, lsl #1
 2329              	.LVL282:
 2330              		.loc 2 235 69 view .LVU904
 2331              	.LBE219:
 2332              	.LBE218:
 148:../Common/IQMath/ti/_IQNasin_acos.c ****     
 2333              		.loc 1 148 5 is_stmt 1 view .LVU905
 148:../Common/IQMath/ti/_IQNasin_acos.c ****     
 2334              		.loc 1 148 31 is_stmt 0 view .LVU906
 2335 0044 5168     		ldr	r1, [r2, #4]
 148:../Common/IQMath/ti/_IQNasin_acos.c ****     
 2336              		.loc 1 148 16 view .LVU907
 2337 0046 0B44     		add	r3, r3, r1
 2338              	.LVL283:
 151:../Common/IQMath/ti/_IQNasin_acos.c ****     
 2339              		.loc 1 151 5 is_stmt 1 view .LVU908
 2340              	.LBB220:
 2341              	.LBI220:
 233:../Common/IQMath/ti/./support/RTS_support.h **** {
 2342              		.loc 2 233 28 view .LVU909
 2343              	.LBB221:
 2344              		.loc 2 235 5 view .LVU910
 2345              		.loc 2 235 49 is_stmt 0 view .LVU911
 2346 0048 D917     		asrs	r1, r3, #31
 2347              		.loc 2 235 47 view .LVU912
 2348 004a 00FB01F1 		mul	r1, r0, r1
 2349 004e 03FB0C11 		mla	r1, r3, ip, r1
 2350 0052 A0FB033E 		umull	r3, lr, r0, r3
 2351              	.LVL284:
 2352              		.loc 2 235 47 view .LVU913
 2353 0056 7144     		add	r1, r1, lr
 2354              		.loc 2 235 69 view .LVU914
 2355 0058 DB0F     		lsrs	r3, r3, #31
 2356 005a 43EA4103 		orr	r3, r3, r1, lsl #1
 2357              	.LVL285:
 2358              		.loc 2 235 69 view .LVU915
 2359              	.LBE221:
ARM GAS  C:\Users\57308\AppData\Local\Temp\cc4OkGld.s 			page 63


 2360              	.LBE220:
 154:../Common/IQMath/ti/_IQNasin_acos.c ****     
 2361              		.loc 1 154 5 is_stmt 1 view .LVU916
 154:../Common/IQMath/ti/_IQNasin_acos.c ****     
 2362              		.loc 1 154 31 is_stmt 0 view .LVU917
 2363 005e 9168     		ldr	r1, [r2, #8]
 154:../Common/IQMath/ti/_IQNasin_acos.c ****     
 2364              		.loc 1 154 16 view .LVU918
 2365 0060 0B44     		add	r3, r3, r1
 2366              	.LVL286:
 157:../Common/IQMath/ti/_IQNasin_acos.c ****     
 2367              		.loc 1 157 5 is_stmt 1 view .LVU919
 2368              	.LBB222:
 2369              	.LBI222:
 233:../Common/IQMath/ti/./support/RTS_support.h **** {
 2370              		.loc 2 233 28 view .LVU920
 2371              	.LBB223:
 2372              		.loc 2 235 5 view .LVU921
 2373              		.loc 2 235 49 is_stmt 0 view .LVU922
 2374 0062 D917     		asrs	r1, r3, #31
 2375              		.loc 2 235 47 view .LVU923
 2376 0064 00FB01F1 		mul	r1, r0, r1
 2377 0068 03FB0C11 		mla	r1, r3, ip, r1
 2378 006c A0FB033E 		umull	r3, lr, r0, r3
 2379              	.LVL287:
 2380              		.loc 2 235 47 view .LVU924
 2381 0070 7144     		add	r1, r1, lr
 2382              		.loc 2 235 69 view .LVU925
 2383 0072 DB0F     		lsrs	r3, r3, #31
 2384 0074 43EA4103 		orr	r3, r3, r1, lsl #1
 2385              	.LVL288:
 2386              		.loc 2 235 69 view .LVU926
 2387              	.LBE223:
 2388              	.LBE222:
 160:../Common/IQMath/ti/_IQNasin_acos.c ****     
 2389              		.loc 1 160 5 is_stmt 1 view .LVU927
 160:../Common/IQMath/ti/_IQNasin_acos.c ****     
 2390              		.loc 1 160 31 is_stmt 0 view .LVU928
 2391 0078 D168     		ldr	r1, [r2, #12]
 160:../Common/IQMath/ti/_IQNasin_acos.c ****     
 2392              		.loc 1 160 16 view .LVU929
 2393 007a 0B44     		add	r3, r3, r1
 2394              	.LVL289:
 163:../Common/IQMath/ti/_IQNasin_acos.c ****     
 2395              		.loc 1 163 5 is_stmt 1 view .LVU930
 2396              	.LBB224:
 2397              	.LBI224:
 233:../Common/IQMath/ti/./support/RTS_support.h **** {
 2398              		.loc 2 233 28 view .LVU931
 2399              	.LBB225:
 2400              		.loc 2 235 5 view .LVU932
 2401              		.loc 2 235 49 is_stmt 0 view .LVU933
 2402 007c D917     		asrs	r1, r3, #31
 2403              		.loc 2 235 47 view .LVU934
 2404 007e 00FB01F1 		mul	r1, r0, r1
 2405 0082 03FB0C11 		mla	r1, r3, ip, r1
 2406 0086 A0FB0303 		umull	r0, r3, r0, r3
ARM GAS  C:\Users\57308\AppData\Local\Temp\cc4OkGld.s 			page 64


 2407              	.LVL290:
 2408              		.loc 2 235 47 view .LVU935
 2409 008a 0B44     		add	r3, r3, r1
 2410              		.loc 2 235 69 view .LVU936
 2411 008c C00F     		lsrs	r0, r0, #31
 2412 008e 40EA4300 		orr	r0, r0, r3, lsl #1
 2413              	.LVL291:
 2414              		.loc 2 235 69 view .LVU937
 2415              	.LBE225:
 2416              	.LBE224:
 166:../Common/IQMath/ti/_IQNasin_acos.c ****     
 2417              		.loc 1 166 5 is_stmt 1 view .LVU938
 166:../Common/IQMath/ti/_IQNasin_acos.c ****     
 2418              		.loc 1 166 31 is_stmt 0 view .LVU939
 2419 0092 1369     		ldr	r3, [r2, #16]
 166:../Common/IQMath/ti/_IQNasin_acos.c ****     
 2420              		.loc 1 166 16 view .LVU940
 2421 0094 1844     		add	r0, r0, r3
 2422              	.LVL292:
 172:../Common/IQMath/ti/_IQNasin_acos.c ****     
 2423              		.loc 1 172 5 is_stmt 1 view .LVU941
 172:../Common/IQMath/ti/_IQNasin_acos.c ****     
 2424              		.loc 1 172 5 is_stmt 0 view .LVU942
 2425              	.LBE226:
 2426              	.LBE228:
  72:../Common/IQMath/ti/./support/RTS_support.h **** }
 2427              		.loc 2 72 5 is_stmt 1 view .LVU943
 2428              	.LBB229:
 2429              	.LBB227:
 175:../Common/IQMath/ti/_IQNasin_acos.c ****         /* asin(x) = pi/2 - 2*iq29Result */
 2430              		.loc 1 175 5 view .LVU944
 175:../Common/IQMath/ti/_IQNasin_acos.c ****         /* asin(x) = pi/2 - 2*iq29Result */
 2431              		.loc 1 175 8 is_stmt 0 view .LVU945
 2432 0096 14F0020F 		tst	r4, #2
 2433 009a 02D0     		beq	.L101
 177:../Common/IQMath/ti/_IQNasin_acos.c ****         iq29Result -= iq29_halfPi;      // this is equivalent to the above
 2434              		.loc 1 177 9 is_stmt 1 view .LVU946
 2435              	.LVL293:
 178:../Common/IQMath/ti/_IQNasin_acos.c ****         iq29Result = -iq29Result;       // but avoids using temporary registers
 2436              		.loc 1 178 9 view .LVU947
 179:../Common/IQMath/ti/_IQNasin_acos.c ****     }
 2437              		.loc 1 179 9 view .LVU948
 179:../Common/IQMath/ti/_IQNasin_acos.c ****     }
 2438              		.loc 1 179 20 is_stmt 0 view .LVU949
 2439 009c 0A4B     		ldr	r3, .L107+4
 2440 009e A3EB4000 		sub	r0, r3, r0, lsl #1
 2441              	.LVL294:
 2442              	.L101:
 183:../Common/IQMath/ti/_IQNasin_acos.c ****     
 2443              		.loc 1 183 5 is_stmt 1 view .LVU950
 183:../Common/IQMath/ti/_IQNasin_acos.c ****     
 2444              		.loc 1 183 16 is_stmt 0 view .LVU951
 2445 00a2 0012     		asrs	r0, r0, #8
 2446              	.LVL295:
 186:../Common/IQMath/ti/_IQNasin_acos.c ****         iq29Result = -iq29Result;
 2447              		.loc 1 186 5 is_stmt 1 view .LVU952
 186:../Common/IQMath/ti/_IQNasin_acos.c ****         iq29Result = -iq29Result;
ARM GAS  C:\Users\57308\AppData\Local\Temp\cc4OkGld.s 			page 65


 2448              		.loc 1 186 8 is_stmt 0 view .LVU953
 2449 00a4 14F0010F 		tst	r4, #1
 2450 00a8 0BD0     		beq	.L97
 187:../Common/IQMath/ti/_IQNasin_acos.c ****     }
 2451              		.loc 1 187 9 is_stmt 1 view .LVU954
 187:../Common/IQMath/ti/_IQNasin_acos.c ****     }
 2452              		.loc 1 187 20 is_stmt 0 view .LVU955
 2453 00aa 4042     		rsbs	r0, r0, #0
 2454              	.LVL296:
 187:../Common/IQMath/ti/_IQNasin_acos.c ****     }
 2455              		.loc 1 187 20 view .LVU956
 2456 00ac 09E0     		b	.L97
 2457              	.LVL297:
 2458              	.L105:
  90:../Common/IQMath/ti/_IQNasin_acos.c ****         iqNInput = -iqNInput;
 2459              		.loc 1 90 9 is_stmt 1 view .LVU957
  91:../Common/IQMath/ti/_IQNasin_acos.c ****     }
 2460              		.loc 1 91 9 view .LVU958
  91:../Common/IQMath/ti/_IQNasin_acos.c ****     }
 2461              		.loc 1 91 18 is_stmt 0 view .LVU959
 2462 00ae 4042     		rsbs	r0, r0, #0
 2463              	.LVL298:
  90:../Common/IQMath/ti/_IQNasin_acos.c ****         iqNInput = -iqNInput;
 2464              		.loc 1 90 19 view .LVU960
 2465 00b0 0124     		movs	r4, #1
 2466 00b2 A9E7     		b	.L98
 2467              	.LVL299:
 2468              	.L106:
 115:../Common/IQMath/ti/_IQNasin_acos.c ****         
 2469              		.loc 1 115 9 is_stmt 1 view .LVU961
 118:../Common/IQMath/ti/_IQNasin_acos.c ****         
 2470              		.loc 1 118 9 view .LVU962
 118:../Common/IQMath/ti/_IQNasin_acos.c ****         
 2471              		.loc 1 118 22 is_stmt 0 view .LVU963
 2472 00b4 5808     		lsrs	r0, r3, #1
 2473              	.LVL300:
 118:../Common/IQMath/ti/_IQNasin_acos.c ****         
 2474              		.loc 1 118 22 view .LVU964
 2475 00b6 FFF7FEFF 		bl	_IQ31sqrt
 2476              	.LVL301:
 121:../Common/IQMath/ti/_IQNasin_acos.c ****     }
 2477              		.loc 1 121 9 is_stmt 1 view .LVU965
 121:../Common/IQMath/ti/_IQNasin_acos.c ****     }
 2478              		.loc 1 121 19 is_stmt 0 view .LVU966
 2479 00ba 44F00204 		orr	r4, r4, #2
 2480              	.LVL302:
 121:../Common/IQMath/ti/_IQNasin_acos.c ****     }
 2481              		.loc 1 121 19 view .LVU967
 2482 00be ACE7     		b	.L100
 2483              	.LVL303:
 2484              	.L103:
 100:../Common/IQMath/ti/_IQNasin_acos.c ****     }
 2485              		.loc 1 100 16 view .LVU968
 2486 00c0 0020     		movs	r0, #0
 2487              	.LVL304:
 2488              	.L97:
 100:../Common/IQMath/ti/_IQNasin_acos.c ****     }
ARM GAS  C:\Users\57308\AppData\Local\Temp\cc4OkGld.s 			page 66


 2489              		.loc 1 100 16 view .LVU969
 2490              	.LBE227:
 2491              	.LBE229:
 292:../Common/IQMath/ti/_IQNasin_acos.c **** }
 2492              		.loc 1 292 1 view .LVU970
 2493 00c2 10BD     		pop	{r4, pc}
 2494              	.L108:
 2495              		.align	2
 2496              	.L107:
 2497 00c4 00000000 		.word	_IQ29Asin_coeffs
 2498 00c8 A8F64332 		.word	843314856
 2499              		.cfi_endproc
 2500              	.LFE270:
 2502              		.section	.text._IQ20asin,"ax",%progbits
 2503              		.align	1
 2504              		.global	_IQ20asin
 2505              		.syntax unified
 2506              		.thumb
 2507              		.thumb_func
 2509              	_IQ20asin:
 2510              	.LVL305:
 2511              	.LFB271:
 293:../Common/IQMath/ti/_IQNasin_acos.c **** /**
 294:../Common/IQMath/ti/_IQNasin_acos.c ****  * @brief Computes the inverse sine of the IQ20 input.
 295:../Common/IQMath/ti/_IQNasin_acos.c ****  *
 296:../Common/IQMath/ti/_IQNasin_acos.c ****  * @param a               IQ20 type input.
 297:../Common/IQMath/ti/_IQNasin_acos.c ****  *
 298:../Common/IQMath/ti/_IQNasin_acos.c ****  * @return                IQ20 type result of inverse sine.
 299:../Common/IQMath/ti/_IQNasin_acos.c ****  */
 300:../Common/IQMath/ti/_IQNasin_acos.c **** int32_t _IQ20asin(int32_t a)
 301:../Common/IQMath/ti/_IQNasin_acos.c **** {
 2512              		.loc 1 301 1 is_stmt 1 view -0
 2513              		.cfi_startproc
 2514              		@ args = 0, pretend = 0, frame = 0
 2515              		@ frame_needed = 0, uses_anonymous_args = 0
 2516              		.loc 1 301 1 is_stmt 0 view .LVU972
 2517 0000 10B5     		push	{r4, lr}
 2518              	.LCFI9:
 2519              		.cfi_def_cfa_offset 8
 2520              		.cfi_offset 4, -8
 2521              		.cfi_offset 14, -4
 302:../Common/IQMath/ti/_IQNasin_acos.c ****     return __IQNasin(a, 20);
 2522              		.loc 1 302 5 is_stmt 1 view .LVU973
 2523              	.LVL306:
 2524              	.LBB240:
 2525              	.LBI240:
  70:../Common/IQMath/ti/_IQNasin_acos.c **** {
 2526              		.loc 1 70 30 view .LVU974
 2527              	.LBB241:
  72:../Common/IQMath/ti/_IQNasin_acos.c ****     uint_fast16_t index;
 2528              		.loc 1 72 5 view .LVU975
  73:../Common/IQMath/ti/_IQNasin_acos.c ****     uint_fast16_t ui16IntState;
 2529              		.loc 1 73 5 view .LVU976
  74:../Common/IQMath/ti/_IQNasin_acos.c ****     uint_fast16_t ui16MPYState;
 2530              		.loc 1 74 5 view .LVU977
  75:../Common/IQMath/ti/_IQNasin_acos.c ****     int_fast32_t iq29Result;
 2531              		.loc 1 75 5 view .LVU978
ARM GAS  C:\Users\57308\AppData\Local\Temp\cc4OkGld.s 			page 67


  76:../Common/IQMath/ti/_IQNasin_acos.c ****     const int_fast32_t *piq29Coeffs;
 2532              		.loc 1 76 5 view .LVU979
  77:../Common/IQMath/ti/_IQNasin_acos.c ****     uint_fast32_t uiq31Input;
 2533              		.loc 1 77 5 view .LVU980
  78:../Common/IQMath/ti/_IQNasin_acos.c ****     uint_fast32_t uiq31InputTemp;
 2534              		.loc 1 78 5 view .LVU981
  79:../Common/IQMath/ti/_IQNasin_acos.c ****     
 2535              		.loc 1 79 5 view .LVU982
  89:../Common/IQMath/ti/_IQNasin_acos.c ****         ui8Status |= 1;
 2536              		.loc 1 89 5 view .LVU983
  89:../Common/IQMath/ti/_IQNasin_acos.c ****         ui8Status |= 1;
 2537              		.loc 1 89 8 is_stmt 0 view .LVU984
 2538 0002 0028     		cmp	r0, #0
  89:../Common/IQMath/ti/_IQNasin_acos.c ****         ui8Status |= 1;
 2539              		.loc 1 89 8 view .LVU985
 2540 0004 53DB     		blt	.L117
  72:../Common/IQMath/ti/_IQNasin_acos.c ****     uint_fast16_t index;
 2541              		.loc 1 72 13 view .LVU986
 2542 0006 0024     		movs	r4, #0
 2543              	.LVL307:
 2544              	.L110:
  99:../Common/IQMath/ti/_IQNasin_acos.c ****         return 0;
 2545              		.loc 1 99 5 is_stmt 1 view .LVU987
  99:../Common/IQMath/ti/_IQNasin_acos.c ****         return 0;
 2546              		.loc 1 99 8 is_stmt 0 view .LVU988
 2547 0008 B0F5801F 		cmp	r0, #1048576
 2548 000c 58D8     		bhi	.L115
 104:../Common/IQMath/ti/_IQNasin_acos.c ****     
 2549              		.loc 1 104 5 is_stmt 1 view .LVU989
 104:../Common/IQMath/ti/_IQNasin_acos.c ****     
 2550              		.loc 1 104 16 is_stmt 0 view .LVU990
 2551 000e C002     		lsls	r0, r0, #11
 2552              	.LVL308:
 112:../Common/IQMath/ti/_IQNasin_acos.c ****     if (uiq31InputTemp < 0x40000000) {
 2553              		.loc 1 112 5 is_stmt 1 view .LVU991
 112:../Common/IQMath/ti/_IQNasin_acos.c ****     if (uiq31InputTemp < 0x40000000) {
 2554              		.loc 1 112 20 is_stmt 0 view .LVU992
 2555 0010 C0F10043 		rsb	r3, r0, #-2147483648
 2556              	.LVL309:
 113:../Common/IQMath/ti/_IQNasin_acos.c ****         /* Halve the result. */
 2557              		.loc 1 113 5 is_stmt 1 view .LVU993
 113:../Common/IQMath/ti/_IQNasin_acos.c ****         /* Halve the result. */
 2558              		.loc 1 113 8 is_stmt 0 view .LVU994
 2559 0014 B3F1804F 		cmp	r3, #1073741824
 2560 0018 4CD3     		bcc	.L118
 2561              	.LVL310:
 2562              	.L112:
 125:../Common/IQMath/ti/_IQNasin_acos.c ****     
 2563              		.loc 1 125 5 is_stmt 1 view .LVU995
 125:../Common/IQMath/ti/_IQNasin_acos.c ****     
 2564              		.loc 1 125 11 is_stmt 0 view .LVU996
 2565 001a 830E     		lsrs	r3, r0, #26
 2566              	.LVL311:
 128:../Common/IQMath/ti/_IQNasin_acos.c ****     
 2567              		.loc 1 128 5 is_stmt 1 view .LVU997
 128:../Common/IQMath/ti/_IQNasin_acos.c ****     
 2568              		.loc 1 128 17 is_stmt 0 view .LVU998
ARM GAS  C:\Users\57308\AppData\Local\Temp\cc4OkGld.s 			page 68


 2569 001c 03EB8303 		add	r3, r3, r3, lsl #2
 2570              	.LVL312:
 128:../Common/IQMath/ti/_IQNasin_acos.c ****     
 2571              		.loc 1 128 17 view .LVU999
 2572 0020 2849     		ldr	r1, .L119
 2573 0022 01EB8302 		add	r2, r1, r3, lsl #2
 2574              	.LVL313:
 136:../Common/IQMath/ti/_IQNasin_acos.c ****     
 2575              		.loc 1 136 5 is_stmt 1 view .LVU1000
 136:../Common/IQMath/ti/_IQNasin_acos.c ****     
 2576              		.loc 1 136 5 is_stmt 0 view .LVU1001
 2577              	.LBE241:
 2578              	.LBE240:
  28:../Common/IQMath/ti/./support/RTS_support.h **** }
 2579              		.loc 2 28 5 is_stmt 1 view .LVU1002
 2580              	.LBB252:
 2581              	.LBB250:
 145:../Common/IQMath/ti/_IQNasin_acos.c ****     
 2582              		.loc 1 145 5 view .LVU1003
 145:../Common/IQMath/ti/_IQNasin_acos.c ****     
 2583              		.loc 1 145 18 is_stmt 0 view .LVU1004
 2584 0026 51F82330 		ldr	r3, [r1, r3, lsl #2]
 2585              	.LVL314:
 2586              	.LBB242:
 2587              	.LBI242:
 233:../Common/IQMath/ti/./support/RTS_support.h **** {
 2588              		.loc 2 233 28 is_stmt 1 view .LVU1005
 2589              	.LBB243:
 2590              		.loc 2 235 5 view .LVU1006
 2591              		.loc 2 235 28 is_stmt 0 view .LVU1007
 2592 002a 4FEAE07C 		asr	ip, r0, #31
 2593              		.loc 2 235 49 view .LVU1008
 2594 002e D917     		asrs	r1, r3, #31
 2595              		.loc 2 235 47 view .LVU1009
 2596 0030 00FB01F1 		mul	r1, r0, r1
 2597 0034 03FB0C11 		mla	r1, r3, ip, r1
 2598 0038 A0FB033E 		umull	r3, lr, r0, r3
 2599              	.LVL315:
 2600              		.loc 2 235 47 view .LVU1010
 2601 003c 7144     		add	r1, r1, lr
 2602              		.loc 2 235 69 view .LVU1011
 2603 003e DB0F     		lsrs	r3, r3, #31
 2604 0040 43EA4103 		orr	r3, r3, r1, lsl #1
 2605              	.LVL316:
 2606              		.loc 2 235 69 view .LVU1012
 2607              	.LBE243:
 2608              	.LBE242:
 148:../Common/IQMath/ti/_IQNasin_acos.c ****     
 2609              		.loc 1 148 5 is_stmt 1 view .LVU1013
 148:../Common/IQMath/ti/_IQNasin_acos.c ****     
 2610              		.loc 1 148 31 is_stmt 0 view .LVU1014
 2611 0044 5168     		ldr	r1, [r2, #4]
 148:../Common/IQMath/ti/_IQNasin_acos.c ****     
 2612              		.loc 1 148 16 view .LVU1015
 2613 0046 0B44     		add	r3, r3, r1
 2614              	.LVL317:
 151:../Common/IQMath/ti/_IQNasin_acos.c ****     
ARM GAS  C:\Users\57308\AppData\Local\Temp\cc4OkGld.s 			page 69


 2615              		.loc 1 151 5 is_stmt 1 view .LVU1016
 2616              	.LBB244:
 2617              	.LBI244:
 233:../Common/IQMath/ti/./support/RTS_support.h **** {
 2618              		.loc 2 233 28 view .LVU1017
 2619              	.LBB245:
 2620              		.loc 2 235 5 view .LVU1018
 2621              		.loc 2 235 49 is_stmt 0 view .LVU1019
 2622 0048 D917     		asrs	r1, r3, #31
 2623              		.loc 2 235 47 view .LVU1020
 2624 004a 00FB01F1 		mul	r1, r0, r1
 2625 004e 03FB0C11 		mla	r1, r3, ip, r1
 2626 0052 A0FB033E 		umull	r3, lr, r0, r3
 2627              	.LVL318:
 2628              		.loc 2 235 47 view .LVU1021
 2629 0056 7144     		add	r1, r1, lr
 2630              		.loc 2 235 69 view .LVU1022
 2631 0058 DB0F     		lsrs	r3, r3, #31
 2632 005a 43EA4103 		orr	r3, r3, r1, lsl #1
 2633              	.LVL319:
 2634              		.loc 2 235 69 view .LVU1023
 2635              	.LBE245:
 2636              	.LBE244:
 154:../Common/IQMath/ti/_IQNasin_acos.c ****     
 2637              		.loc 1 154 5 is_stmt 1 view .LVU1024
 154:../Common/IQMath/ti/_IQNasin_acos.c ****     
 2638              		.loc 1 154 31 is_stmt 0 view .LVU1025
 2639 005e 9168     		ldr	r1, [r2, #8]
 154:../Common/IQMath/ti/_IQNasin_acos.c ****     
 2640              		.loc 1 154 16 view .LVU1026
 2641 0060 0B44     		add	r3, r3, r1
 2642              	.LVL320:
 157:../Common/IQMath/ti/_IQNasin_acos.c ****     
 2643              		.loc 1 157 5 is_stmt 1 view .LVU1027
 2644              	.LBB246:
 2645              	.LBI246:
 233:../Common/IQMath/ti/./support/RTS_support.h **** {
 2646              		.loc 2 233 28 view .LVU1028
 2647              	.LBB247:
 2648              		.loc 2 235 5 view .LVU1029
 2649              		.loc 2 235 49 is_stmt 0 view .LVU1030
 2650 0062 D917     		asrs	r1, r3, #31
 2651              		.loc 2 235 47 view .LVU1031
 2652 0064 00FB01F1 		mul	r1, r0, r1
 2653 0068 03FB0C11 		mla	r1, r3, ip, r1
 2654 006c A0FB033E 		umull	r3, lr, r0, r3
 2655              	.LVL321:
 2656              		.loc 2 235 47 view .LVU1032
 2657 0070 7144     		add	r1, r1, lr
 2658              		.loc 2 235 69 view .LVU1033
 2659 0072 DB0F     		lsrs	r3, r3, #31
 2660 0074 43EA4103 		orr	r3, r3, r1, lsl #1
 2661              	.LVL322:
 2662              		.loc 2 235 69 view .LVU1034
 2663              	.LBE247:
 2664              	.LBE246:
 160:../Common/IQMath/ti/_IQNasin_acos.c ****     
ARM GAS  C:\Users\57308\AppData\Local\Temp\cc4OkGld.s 			page 70


 2665              		.loc 1 160 5 is_stmt 1 view .LVU1035
 160:../Common/IQMath/ti/_IQNasin_acos.c ****     
 2666              		.loc 1 160 31 is_stmt 0 view .LVU1036
 2667 0078 D168     		ldr	r1, [r2, #12]
 160:../Common/IQMath/ti/_IQNasin_acos.c ****     
 2668              		.loc 1 160 16 view .LVU1037
 2669 007a 0B44     		add	r3, r3, r1
 2670              	.LVL323:
 163:../Common/IQMath/ti/_IQNasin_acos.c ****     
 2671              		.loc 1 163 5 is_stmt 1 view .LVU1038
 2672              	.LBB248:
 2673              	.LBI248:
 233:../Common/IQMath/ti/./support/RTS_support.h **** {
 2674              		.loc 2 233 28 view .LVU1039
 2675              	.LBB249:
 2676              		.loc 2 235 5 view .LVU1040
 2677              		.loc 2 235 49 is_stmt 0 view .LVU1041
 2678 007c D917     		asrs	r1, r3, #31
 2679              		.loc 2 235 47 view .LVU1042
 2680 007e 00FB01F1 		mul	r1, r0, r1
 2681 0082 03FB0C11 		mla	r1, r3, ip, r1
 2682 0086 A0FB0303 		umull	r0, r3, r0, r3
 2683              	.LVL324:
 2684              		.loc 2 235 47 view .LVU1043
 2685 008a 0B44     		add	r3, r3, r1
 2686              		.loc 2 235 69 view .LVU1044
 2687 008c C00F     		lsrs	r0, r0, #31
 2688 008e 40EA4300 		orr	r0, r0, r3, lsl #1
 2689              	.LVL325:
 2690              		.loc 2 235 69 view .LVU1045
 2691              	.LBE249:
 2692              	.LBE248:
 166:../Common/IQMath/ti/_IQNasin_acos.c ****     
 2693              		.loc 1 166 5 is_stmt 1 view .LVU1046
 166:../Common/IQMath/ti/_IQNasin_acos.c ****     
 2694              		.loc 1 166 31 is_stmt 0 view .LVU1047
 2695 0092 1369     		ldr	r3, [r2, #16]
 166:../Common/IQMath/ti/_IQNasin_acos.c ****     
 2696              		.loc 1 166 16 view .LVU1048
 2697 0094 1844     		add	r0, r0, r3
 2698              	.LVL326:
 172:../Common/IQMath/ti/_IQNasin_acos.c ****     
 2699              		.loc 1 172 5 is_stmt 1 view .LVU1049
 172:../Common/IQMath/ti/_IQNasin_acos.c ****     
 2700              		.loc 1 172 5 is_stmt 0 view .LVU1050
 2701              	.LBE250:
 2702              	.LBE252:
  72:../Common/IQMath/ti/./support/RTS_support.h **** }
 2703              		.loc 2 72 5 is_stmt 1 view .LVU1051
 2704              	.LBB253:
 2705              	.LBB251:
 175:../Common/IQMath/ti/_IQNasin_acos.c ****         /* asin(x) = pi/2 - 2*iq29Result */
 2706              		.loc 1 175 5 view .LVU1052
 175:../Common/IQMath/ti/_IQNasin_acos.c ****         /* asin(x) = pi/2 - 2*iq29Result */
 2707              		.loc 1 175 8 is_stmt 0 view .LVU1053
 2708 0096 14F0020F 		tst	r4, #2
 2709 009a 02D0     		beq	.L113
ARM GAS  C:\Users\57308\AppData\Local\Temp\cc4OkGld.s 			page 71


 177:../Common/IQMath/ti/_IQNasin_acos.c ****         iq29Result -= iq29_halfPi;      // this is equivalent to the above
 2710              		.loc 1 177 9 is_stmt 1 view .LVU1054
 2711              	.LVL327:
 178:../Common/IQMath/ti/_IQNasin_acos.c ****         iq29Result = -iq29Result;       // but avoids using temporary registers
 2712              		.loc 1 178 9 view .LVU1055
 179:../Common/IQMath/ti/_IQNasin_acos.c ****     }
 2713              		.loc 1 179 9 view .LVU1056
 179:../Common/IQMath/ti/_IQNasin_acos.c ****     }
 2714              		.loc 1 179 20 is_stmt 0 view .LVU1057
 2715 009c 0A4B     		ldr	r3, .L119+4
 2716 009e A3EB4000 		sub	r0, r3, r0, lsl #1
 2717              	.LVL328:
 2718              	.L113:
 183:../Common/IQMath/ti/_IQNasin_acos.c ****     
 2719              		.loc 1 183 5 is_stmt 1 view .LVU1058
 183:../Common/IQMath/ti/_IQNasin_acos.c ****     
 2720              		.loc 1 183 16 is_stmt 0 view .LVU1059
 2721 00a2 4012     		asrs	r0, r0, #9
 2722              	.LVL329:
 186:../Common/IQMath/ti/_IQNasin_acos.c ****         iq29Result = -iq29Result;
 2723              		.loc 1 186 5 is_stmt 1 view .LVU1060
 186:../Common/IQMath/ti/_IQNasin_acos.c ****         iq29Result = -iq29Result;
 2724              		.loc 1 186 8 is_stmt 0 view .LVU1061
 2725 00a4 14F0010F 		tst	r4, #1
 2726 00a8 0BD0     		beq	.L109
 187:../Common/IQMath/ti/_IQNasin_acos.c ****     }
 2727              		.loc 1 187 9 is_stmt 1 view .LVU1062
 187:../Common/IQMath/ti/_IQNasin_acos.c ****     }
 2728              		.loc 1 187 20 is_stmt 0 view .LVU1063
 2729 00aa 4042     		rsbs	r0, r0, #0
 2730              	.LVL330:
 187:../Common/IQMath/ti/_IQNasin_acos.c ****     }
 2731              		.loc 1 187 20 view .LVU1064
 2732 00ac 09E0     		b	.L109
 2733              	.LVL331:
 2734              	.L117:
  90:../Common/IQMath/ti/_IQNasin_acos.c ****         iqNInput = -iqNInput;
 2735              		.loc 1 90 9 is_stmt 1 view .LVU1065
  91:../Common/IQMath/ti/_IQNasin_acos.c ****     }
 2736              		.loc 1 91 9 view .LVU1066
  91:../Common/IQMath/ti/_IQNasin_acos.c ****     }
 2737              		.loc 1 91 18 is_stmt 0 view .LVU1067
 2738 00ae 4042     		rsbs	r0, r0, #0
 2739              	.LVL332:
  90:../Common/IQMath/ti/_IQNasin_acos.c ****         iqNInput = -iqNInput;
 2740              		.loc 1 90 19 view .LVU1068
 2741 00b0 0124     		movs	r4, #1
 2742 00b2 A9E7     		b	.L110
 2743              	.LVL333:
 2744              	.L118:
 115:../Common/IQMath/ti/_IQNasin_acos.c ****         
 2745              		.loc 1 115 9 is_stmt 1 view .LVU1069
 118:../Common/IQMath/ti/_IQNasin_acos.c ****         
 2746              		.loc 1 118 9 view .LVU1070
 118:../Common/IQMath/ti/_IQNasin_acos.c ****         
 2747              		.loc 1 118 22 is_stmt 0 view .LVU1071
 2748 00b4 5808     		lsrs	r0, r3, #1
ARM GAS  C:\Users\57308\AppData\Local\Temp\cc4OkGld.s 			page 72


 2749              	.LVL334:
 118:../Common/IQMath/ti/_IQNasin_acos.c ****         
 2750              		.loc 1 118 22 view .LVU1072
 2751 00b6 FFF7FEFF 		bl	_IQ31sqrt
 2752              	.LVL335:
 121:../Common/IQMath/ti/_IQNasin_acos.c ****     }
 2753              		.loc 1 121 9 is_stmt 1 view .LVU1073
 121:../Common/IQMath/ti/_IQNasin_acos.c ****     }
 2754              		.loc 1 121 19 is_stmt 0 view .LVU1074
 2755 00ba 44F00204 		orr	r4, r4, #2
 2756              	.LVL336:
 121:../Common/IQMath/ti/_IQNasin_acos.c ****     }
 2757              		.loc 1 121 19 view .LVU1075
 2758 00be ACE7     		b	.L112
 2759              	.LVL337:
 2760              	.L115:
 100:../Common/IQMath/ti/_IQNasin_acos.c ****     }
 2761              		.loc 1 100 16 view .LVU1076
 2762 00c0 0020     		movs	r0, #0
 2763              	.LVL338:
 2764              	.L109:
 100:../Common/IQMath/ti/_IQNasin_acos.c ****     }
 2765              		.loc 1 100 16 view .LVU1077
 2766              	.LBE251:
 2767              	.LBE253:
 303:../Common/IQMath/ti/_IQNasin_acos.c **** }
 2768              		.loc 1 303 1 view .LVU1078
 2769 00c2 10BD     		pop	{r4, pc}
 2770              	.L120:
 2771              		.align	2
 2772              	.L119:
 2773 00c4 00000000 		.word	_IQ29Asin_coeffs
 2774 00c8 A8F64332 		.word	843314856
 2775              		.cfi_endproc
 2776              	.LFE271:
 2778              		.section	.text._IQ19asin,"ax",%progbits
 2779              		.align	1
 2780              		.global	_IQ19asin
 2781              		.syntax unified
 2782              		.thumb
 2783              		.thumb_func
 2785              	_IQ19asin:
 2786              	.LVL339:
 2787              	.LFB272:
 304:../Common/IQMath/ti/_IQNasin_acos.c **** /**
 305:../Common/IQMath/ti/_IQNasin_acos.c ****  * @brief Computes the inverse sine of the IQ19 input.
 306:../Common/IQMath/ti/_IQNasin_acos.c ****  *
 307:../Common/IQMath/ti/_IQNasin_acos.c ****  * @param a               IQ19 type input.
 308:../Common/IQMath/ti/_IQNasin_acos.c ****  *
 309:../Common/IQMath/ti/_IQNasin_acos.c ****  * @return                IQ19 type result of inverse sine.
 310:../Common/IQMath/ti/_IQNasin_acos.c ****  */
 311:../Common/IQMath/ti/_IQNasin_acos.c **** int32_t _IQ19asin(int32_t a)
 312:../Common/IQMath/ti/_IQNasin_acos.c **** {
 2788              		.loc 1 312 1 is_stmt 1 view -0
 2789              		.cfi_startproc
 2790              		@ args = 0, pretend = 0, frame = 0
 2791              		@ frame_needed = 0, uses_anonymous_args = 0
ARM GAS  C:\Users\57308\AppData\Local\Temp\cc4OkGld.s 			page 73


 2792              		.loc 1 312 1 is_stmt 0 view .LVU1080
 2793 0000 10B5     		push	{r4, lr}
 2794              	.LCFI10:
 2795              		.cfi_def_cfa_offset 8
 2796              		.cfi_offset 4, -8
 2797              		.cfi_offset 14, -4
 313:../Common/IQMath/ti/_IQNasin_acos.c ****     return __IQNasin(a, 19);
 2798              		.loc 1 313 5 is_stmt 1 view .LVU1081
 2799              	.LVL340:
 2800              	.LBB264:
 2801              	.LBI264:
  70:../Common/IQMath/ti/_IQNasin_acos.c **** {
 2802              		.loc 1 70 30 view .LVU1082
 2803              	.LBB265:
  72:../Common/IQMath/ti/_IQNasin_acos.c ****     uint_fast16_t index;
 2804              		.loc 1 72 5 view .LVU1083
  73:../Common/IQMath/ti/_IQNasin_acos.c ****     uint_fast16_t ui16IntState;
 2805              		.loc 1 73 5 view .LVU1084
  74:../Common/IQMath/ti/_IQNasin_acos.c ****     uint_fast16_t ui16MPYState;
 2806              		.loc 1 74 5 view .LVU1085
  75:../Common/IQMath/ti/_IQNasin_acos.c ****     int_fast32_t iq29Result;
 2807              		.loc 1 75 5 view .LVU1086
  76:../Common/IQMath/ti/_IQNasin_acos.c ****     const int_fast32_t *piq29Coeffs;
 2808              		.loc 1 76 5 view .LVU1087
  77:../Common/IQMath/ti/_IQNasin_acos.c ****     uint_fast32_t uiq31Input;
 2809              		.loc 1 77 5 view .LVU1088
  78:../Common/IQMath/ti/_IQNasin_acos.c ****     uint_fast32_t uiq31InputTemp;
 2810              		.loc 1 78 5 view .LVU1089
  79:../Common/IQMath/ti/_IQNasin_acos.c ****     
 2811              		.loc 1 79 5 view .LVU1090
  89:../Common/IQMath/ti/_IQNasin_acos.c ****         ui8Status |= 1;
 2812              		.loc 1 89 5 view .LVU1091
  89:../Common/IQMath/ti/_IQNasin_acos.c ****         ui8Status |= 1;
 2813              		.loc 1 89 8 is_stmt 0 view .LVU1092
 2814 0002 0028     		cmp	r0, #0
  89:../Common/IQMath/ti/_IQNasin_acos.c ****         ui8Status |= 1;
 2815              		.loc 1 89 8 view .LVU1093
 2816 0004 53DB     		blt	.L129
  72:../Common/IQMath/ti/_IQNasin_acos.c ****     uint_fast16_t index;
 2817              		.loc 1 72 13 view .LVU1094
 2818 0006 0024     		movs	r4, #0
 2819              	.LVL341:
 2820              	.L122:
  99:../Common/IQMath/ti/_IQNasin_acos.c ****         return 0;
 2821              		.loc 1 99 5 is_stmt 1 view .LVU1095
  99:../Common/IQMath/ti/_IQNasin_acos.c ****         return 0;
 2822              		.loc 1 99 8 is_stmt 0 view .LVU1096
 2823 0008 B0F5002F 		cmp	r0, #524288
 2824 000c 58D8     		bhi	.L127
 104:../Common/IQMath/ti/_IQNasin_acos.c ****     
 2825              		.loc 1 104 5 is_stmt 1 view .LVU1097
 104:../Common/IQMath/ti/_IQNasin_acos.c ****     
 2826              		.loc 1 104 16 is_stmt 0 view .LVU1098
 2827 000e 0003     		lsls	r0, r0, #12
 2828              	.LVL342:
 112:../Common/IQMath/ti/_IQNasin_acos.c ****     if (uiq31InputTemp < 0x40000000) {
 2829              		.loc 1 112 5 is_stmt 1 view .LVU1099
ARM GAS  C:\Users\57308\AppData\Local\Temp\cc4OkGld.s 			page 74


 112:../Common/IQMath/ti/_IQNasin_acos.c ****     if (uiq31InputTemp < 0x40000000) {
 2830              		.loc 1 112 20 is_stmt 0 view .LVU1100
 2831 0010 C0F10043 		rsb	r3, r0, #-2147483648
 2832              	.LVL343:
 113:../Common/IQMath/ti/_IQNasin_acos.c ****         /* Halve the result. */
 2833              		.loc 1 113 5 is_stmt 1 view .LVU1101
 113:../Common/IQMath/ti/_IQNasin_acos.c ****         /* Halve the result. */
 2834              		.loc 1 113 8 is_stmt 0 view .LVU1102
 2835 0014 B3F1804F 		cmp	r3, #1073741824
 2836 0018 4CD3     		bcc	.L130
 2837              	.LVL344:
 2838              	.L124:
 125:../Common/IQMath/ti/_IQNasin_acos.c ****     
 2839              		.loc 1 125 5 is_stmt 1 view .LVU1103
 125:../Common/IQMath/ti/_IQNasin_acos.c ****     
 2840              		.loc 1 125 11 is_stmt 0 view .LVU1104
 2841 001a 830E     		lsrs	r3, r0, #26
 2842              	.LVL345:
 128:../Common/IQMath/ti/_IQNasin_acos.c ****     
 2843              		.loc 1 128 5 is_stmt 1 view .LVU1105
 128:../Common/IQMath/ti/_IQNasin_acos.c ****     
 2844              		.loc 1 128 17 is_stmt 0 view .LVU1106
 2845 001c 03EB8303 		add	r3, r3, r3, lsl #2
 2846              	.LVL346:
 128:../Common/IQMath/ti/_IQNasin_acos.c ****     
 2847              		.loc 1 128 17 view .LVU1107
 2848 0020 2849     		ldr	r1, .L131
 2849 0022 01EB8302 		add	r2, r1, r3, lsl #2
 2850              	.LVL347:
 136:../Common/IQMath/ti/_IQNasin_acos.c ****     
 2851              		.loc 1 136 5 is_stmt 1 view .LVU1108
 136:../Common/IQMath/ti/_IQNasin_acos.c ****     
 2852              		.loc 1 136 5 is_stmt 0 view .LVU1109
 2853              	.LBE265:
 2854              	.LBE264:
  28:../Common/IQMath/ti/./support/RTS_support.h **** }
 2855              		.loc 2 28 5 is_stmt 1 view .LVU1110
 2856              	.LBB276:
 2857              	.LBB274:
 145:../Common/IQMath/ti/_IQNasin_acos.c ****     
 2858              		.loc 1 145 5 view .LVU1111
 145:../Common/IQMath/ti/_IQNasin_acos.c ****     
 2859              		.loc 1 145 18 is_stmt 0 view .LVU1112
 2860 0026 51F82330 		ldr	r3, [r1, r3, lsl #2]
 2861              	.LVL348:
 2862              	.LBB266:
 2863              	.LBI266:
 233:../Common/IQMath/ti/./support/RTS_support.h **** {
 2864              		.loc 2 233 28 is_stmt 1 view .LVU1113
 2865              	.LBB267:
 2866              		.loc 2 235 5 view .LVU1114
 2867              		.loc 2 235 28 is_stmt 0 view .LVU1115
 2868 002a 4FEAE07C 		asr	ip, r0, #31
 2869              		.loc 2 235 49 view .LVU1116
 2870 002e D917     		asrs	r1, r3, #31
 2871              		.loc 2 235 47 view .LVU1117
 2872 0030 00FB01F1 		mul	r1, r0, r1
ARM GAS  C:\Users\57308\AppData\Local\Temp\cc4OkGld.s 			page 75


 2873 0034 03FB0C11 		mla	r1, r3, ip, r1
 2874 0038 A0FB033E 		umull	r3, lr, r0, r3
 2875              	.LVL349:
 2876              		.loc 2 235 47 view .LVU1118
 2877 003c 7144     		add	r1, r1, lr
 2878              		.loc 2 235 69 view .LVU1119
 2879 003e DB0F     		lsrs	r3, r3, #31
 2880 0040 43EA4103 		orr	r3, r3, r1, lsl #1
 2881              	.LVL350:
 2882              		.loc 2 235 69 view .LVU1120
 2883              	.LBE267:
 2884              	.LBE266:
 148:../Common/IQMath/ti/_IQNasin_acos.c ****     
 2885              		.loc 1 148 5 is_stmt 1 view .LVU1121
 148:../Common/IQMath/ti/_IQNasin_acos.c ****     
 2886              		.loc 1 148 31 is_stmt 0 view .LVU1122
 2887 0044 5168     		ldr	r1, [r2, #4]
 148:../Common/IQMath/ti/_IQNasin_acos.c ****     
 2888              		.loc 1 148 16 view .LVU1123
 2889 0046 0B44     		add	r3, r3, r1
 2890              	.LVL351:
 151:../Common/IQMath/ti/_IQNasin_acos.c ****     
 2891              		.loc 1 151 5 is_stmt 1 view .LVU1124
 2892              	.LBB268:
 2893              	.LBI268:
 233:../Common/IQMath/ti/./support/RTS_support.h **** {
 2894              		.loc 2 233 28 view .LVU1125
 2895              	.LBB269:
 2896              		.loc 2 235 5 view .LVU1126
 2897              		.loc 2 235 49 is_stmt 0 view .LVU1127
 2898 0048 D917     		asrs	r1, r3, #31
 2899              		.loc 2 235 47 view .LVU1128
 2900 004a 00FB01F1 		mul	r1, r0, r1
 2901 004e 03FB0C11 		mla	r1, r3, ip, r1
 2902 0052 A0FB033E 		umull	r3, lr, r0, r3
 2903              	.LVL352:
 2904              		.loc 2 235 47 view .LVU1129
 2905 0056 7144     		add	r1, r1, lr
 2906              		.loc 2 235 69 view .LVU1130
 2907 0058 DB0F     		lsrs	r3, r3, #31
 2908 005a 43EA4103 		orr	r3, r3, r1, lsl #1
 2909              	.LVL353:
 2910              		.loc 2 235 69 view .LVU1131
 2911              	.LBE269:
 2912              	.LBE268:
 154:../Common/IQMath/ti/_IQNasin_acos.c ****     
 2913              		.loc 1 154 5 is_stmt 1 view .LVU1132
 154:../Common/IQMath/ti/_IQNasin_acos.c ****     
 2914              		.loc 1 154 31 is_stmt 0 view .LVU1133
 2915 005e 9168     		ldr	r1, [r2, #8]
 154:../Common/IQMath/ti/_IQNasin_acos.c ****     
 2916              		.loc 1 154 16 view .LVU1134
 2917 0060 0B44     		add	r3, r3, r1
 2918              	.LVL354:
 157:../Common/IQMath/ti/_IQNasin_acos.c ****     
 2919              		.loc 1 157 5 is_stmt 1 view .LVU1135
 2920              	.LBB270:
ARM GAS  C:\Users\57308\AppData\Local\Temp\cc4OkGld.s 			page 76


 2921              	.LBI270:
 233:../Common/IQMath/ti/./support/RTS_support.h **** {
 2922              		.loc 2 233 28 view .LVU1136
 2923              	.LBB271:
 2924              		.loc 2 235 5 view .LVU1137
 2925              		.loc 2 235 49 is_stmt 0 view .LVU1138
 2926 0062 D917     		asrs	r1, r3, #31
 2927              		.loc 2 235 47 view .LVU1139
 2928 0064 00FB01F1 		mul	r1, r0, r1
 2929 0068 03FB0C11 		mla	r1, r3, ip, r1
 2930 006c A0FB033E 		umull	r3, lr, r0, r3
 2931              	.LVL355:
 2932              		.loc 2 235 47 view .LVU1140
 2933 0070 7144     		add	r1, r1, lr
 2934              		.loc 2 235 69 view .LVU1141
 2935 0072 DB0F     		lsrs	r3, r3, #31
 2936 0074 43EA4103 		orr	r3, r3, r1, lsl #1
 2937              	.LVL356:
 2938              		.loc 2 235 69 view .LVU1142
 2939              	.LBE271:
 2940              	.LBE270:
 160:../Common/IQMath/ti/_IQNasin_acos.c ****     
 2941              		.loc 1 160 5 is_stmt 1 view .LVU1143
 160:../Common/IQMath/ti/_IQNasin_acos.c ****     
 2942              		.loc 1 160 31 is_stmt 0 view .LVU1144
 2943 0078 D168     		ldr	r1, [r2, #12]
 160:../Common/IQMath/ti/_IQNasin_acos.c ****     
 2944              		.loc 1 160 16 view .LVU1145
 2945 007a 0B44     		add	r3, r3, r1
 2946              	.LVL357:
 163:../Common/IQMath/ti/_IQNasin_acos.c ****     
 2947              		.loc 1 163 5 is_stmt 1 view .LVU1146
 2948              	.LBB272:
 2949              	.LBI272:
 233:../Common/IQMath/ti/./support/RTS_support.h **** {
 2950              		.loc 2 233 28 view .LVU1147
 2951              	.LBB273:
 2952              		.loc 2 235 5 view .LVU1148
 2953              		.loc 2 235 49 is_stmt 0 view .LVU1149
 2954 007c D917     		asrs	r1, r3, #31
 2955              		.loc 2 235 47 view .LVU1150
 2956 007e 00FB01F1 		mul	r1, r0, r1
 2957 0082 03FB0C11 		mla	r1, r3, ip, r1
 2958 0086 A0FB0303 		umull	r0, r3, r0, r3
 2959              	.LVL358:
 2960              		.loc 2 235 47 view .LVU1151
 2961 008a 0B44     		add	r3, r3, r1
 2962              		.loc 2 235 69 view .LVU1152
 2963 008c C00F     		lsrs	r0, r0, #31
 2964 008e 40EA4300 		orr	r0, r0, r3, lsl #1
 2965              	.LVL359:
 2966              		.loc 2 235 69 view .LVU1153
 2967              	.LBE273:
 2968              	.LBE272:
 166:../Common/IQMath/ti/_IQNasin_acos.c ****     
 2969              		.loc 1 166 5 is_stmt 1 view .LVU1154
 166:../Common/IQMath/ti/_IQNasin_acos.c ****     
ARM GAS  C:\Users\57308\AppData\Local\Temp\cc4OkGld.s 			page 77


 2970              		.loc 1 166 31 is_stmt 0 view .LVU1155
 2971 0092 1369     		ldr	r3, [r2, #16]
 166:../Common/IQMath/ti/_IQNasin_acos.c ****     
 2972              		.loc 1 166 16 view .LVU1156
 2973 0094 1844     		add	r0, r0, r3
 2974              	.LVL360:
 172:../Common/IQMath/ti/_IQNasin_acos.c ****     
 2975              		.loc 1 172 5 is_stmt 1 view .LVU1157
 172:../Common/IQMath/ti/_IQNasin_acos.c ****     
 2976              		.loc 1 172 5 is_stmt 0 view .LVU1158
 2977              	.LBE274:
 2978              	.LBE276:
  72:../Common/IQMath/ti/./support/RTS_support.h **** }
 2979              		.loc 2 72 5 is_stmt 1 view .LVU1159
 2980              	.LBB277:
 2981              	.LBB275:
 175:../Common/IQMath/ti/_IQNasin_acos.c ****         /* asin(x) = pi/2 - 2*iq29Result */
 2982              		.loc 1 175 5 view .LVU1160
 175:../Common/IQMath/ti/_IQNasin_acos.c ****         /* asin(x) = pi/2 - 2*iq29Result */
 2983              		.loc 1 175 8 is_stmt 0 view .LVU1161
 2984 0096 14F0020F 		tst	r4, #2
 2985 009a 02D0     		beq	.L125
 177:../Common/IQMath/ti/_IQNasin_acos.c ****         iq29Result -= iq29_halfPi;      // this is equivalent to the above
 2986              		.loc 1 177 9 is_stmt 1 view .LVU1162
 2987              	.LVL361:
 178:../Common/IQMath/ti/_IQNasin_acos.c ****         iq29Result = -iq29Result;       // but avoids using temporary registers
 2988              		.loc 1 178 9 view .LVU1163
 179:../Common/IQMath/ti/_IQNasin_acos.c ****     }
 2989              		.loc 1 179 9 view .LVU1164
 179:../Common/IQMath/ti/_IQNasin_acos.c ****     }
 2990              		.loc 1 179 20 is_stmt 0 view .LVU1165
 2991 009c 0A4B     		ldr	r3, .L131+4
 2992 009e A3EB4000 		sub	r0, r3, r0, lsl #1
 2993              	.LVL362:
 2994              	.L125:
 183:../Common/IQMath/ti/_IQNasin_acos.c ****     
 2995              		.loc 1 183 5 is_stmt 1 view .LVU1166
 183:../Common/IQMath/ti/_IQNasin_acos.c ****     
 2996              		.loc 1 183 16 is_stmt 0 view .LVU1167
 2997 00a2 8012     		asrs	r0, r0, #10
 2998              	.LVL363:
 186:../Common/IQMath/ti/_IQNasin_acos.c ****         iq29Result = -iq29Result;
 2999              		.loc 1 186 5 is_stmt 1 view .LVU1168
 186:../Common/IQMath/ti/_IQNasin_acos.c ****         iq29Result = -iq29Result;
 3000              		.loc 1 186 8 is_stmt 0 view .LVU1169
 3001 00a4 14F0010F 		tst	r4, #1
 3002 00a8 0BD0     		beq	.L121
 187:../Common/IQMath/ti/_IQNasin_acos.c ****     }
 3003              		.loc 1 187 9 is_stmt 1 view .LVU1170
 187:../Common/IQMath/ti/_IQNasin_acos.c ****     }
 3004              		.loc 1 187 20 is_stmt 0 view .LVU1171
 3005 00aa 4042     		rsbs	r0, r0, #0
 3006              	.LVL364:
 187:../Common/IQMath/ti/_IQNasin_acos.c ****     }
 3007              		.loc 1 187 20 view .LVU1172
 3008 00ac 09E0     		b	.L121
 3009              	.LVL365:
ARM GAS  C:\Users\57308\AppData\Local\Temp\cc4OkGld.s 			page 78


 3010              	.L129:
  90:../Common/IQMath/ti/_IQNasin_acos.c ****         iqNInput = -iqNInput;
 3011              		.loc 1 90 9 is_stmt 1 view .LVU1173
  91:../Common/IQMath/ti/_IQNasin_acos.c ****     }
 3012              		.loc 1 91 9 view .LVU1174
  91:../Common/IQMath/ti/_IQNasin_acos.c ****     }
 3013              		.loc 1 91 18 is_stmt 0 view .LVU1175
 3014 00ae 4042     		rsbs	r0, r0, #0
 3015              	.LVL366:
  90:../Common/IQMath/ti/_IQNasin_acos.c ****         iqNInput = -iqNInput;
 3016              		.loc 1 90 19 view .LVU1176
 3017 00b0 0124     		movs	r4, #1
 3018 00b2 A9E7     		b	.L122
 3019              	.LVL367:
 3020              	.L130:
 115:../Common/IQMath/ti/_IQNasin_acos.c ****         
 3021              		.loc 1 115 9 is_stmt 1 view .LVU1177
 118:../Common/IQMath/ti/_IQNasin_acos.c ****         
 3022              		.loc 1 118 9 view .LVU1178
 118:../Common/IQMath/ti/_IQNasin_acos.c ****         
 3023              		.loc 1 118 22 is_stmt 0 view .LVU1179
 3024 00b4 5808     		lsrs	r0, r3, #1
 3025              	.LVL368:
 118:../Common/IQMath/ti/_IQNasin_acos.c ****         
 3026              		.loc 1 118 22 view .LVU1180
 3027 00b6 FFF7FEFF 		bl	_IQ31sqrt
 3028              	.LVL369:
 121:../Common/IQMath/ti/_IQNasin_acos.c ****     }
 3029              		.loc 1 121 9 is_stmt 1 view .LVU1181
 121:../Common/IQMath/ti/_IQNasin_acos.c ****     }
 3030              		.loc 1 121 19 is_stmt 0 view .LVU1182
 3031 00ba 44F00204 		orr	r4, r4, #2
 3032              	.LVL370:
 121:../Common/IQMath/ti/_IQNasin_acos.c ****     }
 3033              		.loc 1 121 19 view .LVU1183
 3034 00be ACE7     		b	.L124
 3035              	.LVL371:
 3036              	.L127:
 100:../Common/IQMath/ti/_IQNasin_acos.c ****     }
 3037              		.loc 1 100 16 view .LVU1184
 3038 00c0 0020     		movs	r0, #0
 3039              	.LVL372:
 3040              	.L121:
 100:../Common/IQMath/ti/_IQNasin_acos.c ****     }
 3041              		.loc 1 100 16 view .LVU1185
 3042              	.LBE275:
 3043              	.LBE277:
 314:../Common/IQMath/ti/_IQNasin_acos.c **** }
 3044              		.loc 1 314 1 view .LVU1186
 3045 00c2 10BD     		pop	{r4, pc}
 3046              	.L132:
 3047              		.align	2
 3048              	.L131:
 3049 00c4 00000000 		.word	_IQ29Asin_coeffs
 3050 00c8 A8F64332 		.word	843314856
 3051              		.cfi_endproc
 3052              	.LFE272:
ARM GAS  C:\Users\57308\AppData\Local\Temp\cc4OkGld.s 			page 79


 3054              		.section	.text._IQ18asin,"ax",%progbits
 3055              		.align	1
 3056              		.global	_IQ18asin
 3057              		.syntax unified
 3058              		.thumb
 3059              		.thumb_func
 3061              	_IQ18asin:
 3062              	.LVL373:
 3063              	.LFB273:
 315:../Common/IQMath/ti/_IQNasin_acos.c **** /**
 316:../Common/IQMath/ti/_IQNasin_acos.c ****  * @brief Computes the inverse sine of the IQ18 input.
 317:../Common/IQMath/ti/_IQNasin_acos.c ****  *
 318:../Common/IQMath/ti/_IQNasin_acos.c ****  * @param a               IQ18 type input.
 319:../Common/IQMath/ti/_IQNasin_acos.c ****  *
 320:../Common/IQMath/ti/_IQNasin_acos.c ****  * @return                IQ18 type result of inverse sine.
 321:../Common/IQMath/ti/_IQNasin_acos.c ****  */
 322:../Common/IQMath/ti/_IQNasin_acos.c **** int32_t _IQ18asin(int32_t a)
 323:../Common/IQMath/ti/_IQNasin_acos.c **** {
 3064              		.loc 1 323 1 is_stmt 1 view -0
 3065              		.cfi_startproc
 3066              		@ args = 0, pretend = 0, frame = 0
 3067              		@ frame_needed = 0, uses_anonymous_args = 0
 3068              		.loc 1 323 1 is_stmt 0 view .LVU1188
 3069 0000 10B5     		push	{r4, lr}
 3070              	.LCFI11:
 3071              		.cfi_def_cfa_offset 8
 3072              		.cfi_offset 4, -8
 3073              		.cfi_offset 14, -4
 324:../Common/IQMath/ti/_IQNasin_acos.c ****     return __IQNasin(a, 18);
 3074              		.loc 1 324 5 is_stmt 1 view .LVU1189
 3075              	.LVL374:
 3076              	.LBB288:
 3077              	.LBI288:
  70:../Common/IQMath/ti/_IQNasin_acos.c **** {
 3078              		.loc 1 70 30 view .LVU1190
 3079              	.LBB289:
  72:../Common/IQMath/ti/_IQNasin_acos.c ****     uint_fast16_t index;
 3080              		.loc 1 72 5 view .LVU1191
  73:../Common/IQMath/ti/_IQNasin_acos.c ****     uint_fast16_t ui16IntState;
 3081              		.loc 1 73 5 view .LVU1192
  74:../Common/IQMath/ti/_IQNasin_acos.c ****     uint_fast16_t ui16MPYState;
 3082              		.loc 1 74 5 view .LVU1193
  75:../Common/IQMath/ti/_IQNasin_acos.c ****     int_fast32_t iq29Result;
 3083              		.loc 1 75 5 view .LVU1194
  76:../Common/IQMath/ti/_IQNasin_acos.c ****     const int_fast32_t *piq29Coeffs;
 3084              		.loc 1 76 5 view .LVU1195
  77:../Common/IQMath/ti/_IQNasin_acos.c ****     uint_fast32_t uiq31Input;
 3085              		.loc 1 77 5 view .LVU1196
  78:../Common/IQMath/ti/_IQNasin_acos.c ****     uint_fast32_t uiq31InputTemp;
 3086              		.loc 1 78 5 view .LVU1197
  79:../Common/IQMath/ti/_IQNasin_acos.c ****     
 3087              		.loc 1 79 5 view .LVU1198
  89:../Common/IQMath/ti/_IQNasin_acos.c ****         ui8Status |= 1;
 3088              		.loc 1 89 5 view .LVU1199
  89:../Common/IQMath/ti/_IQNasin_acos.c ****         ui8Status |= 1;
 3089              		.loc 1 89 8 is_stmt 0 view .LVU1200
 3090 0002 0028     		cmp	r0, #0
ARM GAS  C:\Users\57308\AppData\Local\Temp\cc4OkGld.s 			page 80


  89:../Common/IQMath/ti/_IQNasin_acos.c ****         ui8Status |= 1;
 3091              		.loc 1 89 8 view .LVU1201
 3092 0004 53DB     		blt	.L141
  72:../Common/IQMath/ti/_IQNasin_acos.c ****     uint_fast16_t index;
 3093              		.loc 1 72 13 view .LVU1202
 3094 0006 0024     		movs	r4, #0
 3095              	.LVL375:
 3096              	.L134:
  99:../Common/IQMath/ti/_IQNasin_acos.c ****         return 0;
 3097              		.loc 1 99 5 is_stmt 1 view .LVU1203
  99:../Common/IQMath/ti/_IQNasin_acos.c ****         return 0;
 3098              		.loc 1 99 8 is_stmt 0 view .LVU1204
 3099 0008 B0F5802F 		cmp	r0, #262144
 3100 000c 58D8     		bhi	.L139
 104:../Common/IQMath/ti/_IQNasin_acos.c ****     
 3101              		.loc 1 104 5 is_stmt 1 view .LVU1205
 104:../Common/IQMath/ti/_IQNasin_acos.c ****     
 3102              		.loc 1 104 16 is_stmt 0 view .LVU1206
 3103 000e 4003     		lsls	r0, r0, #13
 3104              	.LVL376:
 112:../Common/IQMath/ti/_IQNasin_acos.c ****     if (uiq31InputTemp < 0x40000000) {
 3105              		.loc 1 112 5 is_stmt 1 view .LVU1207
 112:../Common/IQMath/ti/_IQNasin_acos.c ****     if (uiq31InputTemp < 0x40000000) {
 3106              		.loc 1 112 20 is_stmt 0 view .LVU1208
 3107 0010 C0F10043 		rsb	r3, r0, #-2147483648
 3108              	.LVL377:
 113:../Common/IQMath/ti/_IQNasin_acos.c ****         /* Halve the result. */
 3109              		.loc 1 113 5 is_stmt 1 view .LVU1209
 113:../Common/IQMath/ti/_IQNasin_acos.c ****         /* Halve the result. */
 3110              		.loc 1 113 8 is_stmt 0 view .LVU1210
 3111 0014 B3F1804F 		cmp	r3, #1073741824
 3112 0018 4CD3     		bcc	.L142
 3113              	.LVL378:
 3114              	.L136:
 125:../Common/IQMath/ti/_IQNasin_acos.c ****     
 3115              		.loc 1 125 5 is_stmt 1 view .LVU1211
 125:../Common/IQMath/ti/_IQNasin_acos.c ****     
 3116              		.loc 1 125 11 is_stmt 0 view .LVU1212
 3117 001a 830E     		lsrs	r3, r0, #26
 3118              	.LVL379:
 128:../Common/IQMath/ti/_IQNasin_acos.c ****     
 3119              		.loc 1 128 5 is_stmt 1 view .LVU1213
 128:../Common/IQMath/ti/_IQNasin_acos.c ****     
 3120              		.loc 1 128 17 is_stmt 0 view .LVU1214
 3121 001c 03EB8303 		add	r3, r3, r3, lsl #2
 3122              	.LVL380:
 128:../Common/IQMath/ti/_IQNasin_acos.c ****     
 3123              		.loc 1 128 17 view .LVU1215
 3124 0020 2849     		ldr	r1, .L143
 3125 0022 01EB8302 		add	r2, r1, r3, lsl #2
 3126              	.LVL381:
 136:../Common/IQMath/ti/_IQNasin_acos.c ****     
 3127              		.loc 1 136 5 is_stmt 1 view .LVU1216
 136:../Common/IQMath/ti/_IQNasin_acos.c ****     
 3128              		.loc 1 136 5 is_stmt 0 view .LVU1217
 3129              	.LBE289:
 3130              	.LBE288:
ARM GAS  C:\Users\57308\AppData\Local\Temp\cc4OkGld.s 			page 81


  28:../Common/IQMath/ti/./support/RTS_support.h **** }
 3131              		.loc 2 28 5 is_stmt 1 view .LVU1218
 3132              	.LBB300:
 3133              	.LBB298:
 145:../Common/IQMath/ti/_IQNasin_acos.c ****     
 3134              		.loc 1 145 5 view .LVU1219
 145:../Common/IQMath/ti/_IQNasin_acos.c ****     
 3135              		.loc 1 145 18 is_stmt 0 view .LVU1220
 3136 0026 51F82330 		ldr	r3, [r1, r3, lsl #2]
 3137              	.LVL382:
 3138              	.LBB290:
 3139              	.LBI290:
 233:../Common/IQMath/ti/./support/RTS_support.h **** {
 3140              		.loc 2 233 28 is_stmt 1 view .LVU1221
 3141              	.LBB291:
 3142              		.loc 2 235 5 view .LVU1222
 3143              		.loc 2 235 28 is_stmt 0 view .LVU1223
 3144 002a 4FEAE07C 		asr	ip, r0, #31
 3145              		.loc 2 235 49 view .LVU1224
 3146 002e D917     		asrs	r1, r3, #31
 3147              		.loc 2 235 47 view .LVU1225
 3148 0030 00FB01F1 		mul	r1, r0, r1
 3149 0034 03FB0C11 		mla	r1, r3, ip, r1
 3150 0038 A0FB033E 		umull	r3, lr, r0, r3
 3151              	.LVL383:
 3152              		.loc 2 235 47 view .LVU1226
 3153 003c 7144     		add	r1, r1, lr
 3154              		.loc 2 235 69 view .LVU1227
 3155 003e DB0F     		lsrs	r3, r3, #31
 3156 0040 43EA4103 		orr	r3, r3, r1, lsl #1
 3157              	.LVL384:
 3158              		.loc 2 235 69 view .LVU1228
 3159              	.LBE291:
 3160              	.LBE290:
 148:../Common/IQMath/ti/_IQNasin_acos.c ****     
 3161              		.loc 1 148 5 is_stmt 1 view .LVU1229
 148:../Common/IQMath/ti/_IQNasin_acos.c ****     
 3162              		.loc 1 148 31 is_stmt 0 view .LVU1230
 3163 0044 5168     		ldr	r1, [r2, #4]
 148:../Common/IQMath/ti/_IQNasin_acos.c ****     
 3164              		.loc 1 148 16 view .LVU1231
 3165 0046 0B44     		add	r3, r3, r1
 3166              	.LVL385:
 151:../Common/IQMath/ti/_IQNasin_acos.c ****     
 3167              		.loc 1 151 5 is_stmt 1 view .LVU1232
 3168              	.LBB292:
 3169              	.LBI292:
 233:../Common/IQMath/ti/./support/RTS_support.h **** {
 3170              		.loc 2 233 28 view .LVU1233
 3171              	.LBB293:
 3172              		.loc 2 235 5 view .LVU1234
 3173              		.loc 2 235 49 is_stmt 0 view .LVU1235
 3174 0048 D917     		asrs	r1, r3, #31
 3175              		.loc 2 235 47 view .LVU1236
 3176 004a 00FB01F1 		mul	r1, r0, r1
 3177 004e 03FB0C11 		mla	r1, r3, ip, r1
 3178 0052 A0FB033E 		umull	r3, lr, r0, r3
ARM GAS  C:\Users\57308\AppData\Local\Temp\cc4OkGld.s 			page 82


 3179              	.LVL386:
 3180              		.loc 2 235 47 view .LVU1237
 3181 0056 7144     		add	r1, r1, lr
 3182              		.loc 2 235 69 view .LVU1238
 3183 0058 DB0F     		lsrs	r3, r3, #31
 3184 005a 43EA4103 		orr	r3, r3, r1, lsl #1
 3185              	.LVL387:
 3186              		.loc 2 235 69 view .LVU1239
 3187              	.LBE293:
 3188              	.LBE292:
 154:../Common/IQMath/ti/_IQNasin_acos.c ****     
 3189              		.loc 1 154 5 is_stmt 1 view .LVU1240
 154:../Common/IQMath/ti/_IQNasin_acos.c ****     
 3190              		.loc 1 154 31 is_stmt 0 view .LVU1241
 3191 005e 9168     		ldr	r1, [r2, #8]
 154:../Common/IQMath/ti/_IQNasin_acos.c ****     
 3192              		.loc 1 154 16 view .LVU1242
 3193 0060 0B44     		add	r3, r3, r1
 3194              	.LVL388:
 157:../Common/IQMath/ti/_IQNasin_acos.c ****     
 3195              		.loc 1 157 5 is_stmt 1 view .LVU1243
 3196              	.LBB294:
 3197              	.LBI294:
 233:../Common/IQMath/ti/./support/RTS_support.h **** {
 3198              		.loc 2 233 28 view .LVU1244
 3199              	.LBB295:
 3200              		.loc 2 235 5 view .LVU1245
 3201              		.loc 2 235 49 is_stmt 0 view .LVU1246
 3202 0062 D917     		asrs	r1, r3, #31
 3203              		.loc 2 235 47 view .LVU1247
 3204 0064 00FB01F1 		mul	r1, r0, r1
 3205 0068 03FB0C11 		mla	r1, r3, ip, r1
 3206 006c A0FB033E 		umull	r3, lr, r0, r3
 3207              	.LVL389:
 3208              		.loc 2 235 47 view .LVU1248
 3209 0070 7144     		add	r1, r1, lr
 3210              		.loc 2 235 69 view .LVU1249
 3211 0072 DB0F     		lsrs	r3, r3, #31
 3212 0074 43EA4103 		orr	r3, r3, r1, lsl #1
 3213              	.LVL390:
 3214              		.loc 2 235 69 view .LVU1250
 3215              	.LBE295:
 3216              	.LBE294:
 160:../Common/IQMath/ti/_IQNasin_acos.c ****     
 3217              		.loc 1 160 5 is_stmt 1 view .LVU1251
 160:../Common/IQMath/ti/_IQNasin_acos.c ****     
 3218              		.loc 1 160 31 is_stmt 0 view .LVU1252
 3219 0078 D168     		ldr	r1, [r2, #12]
 160:../Common/IQMath/ti/_IQNasin_acos.c ****     
 3220              		.loc 1 160 16 view .LVU1253
 3221 007a 0B44     		add	r3, r3, r1
 3222              	.LVL391:
 163:../Common/IQMath/ti/_IQNasin_acos.c ****     
 3223              		.loc 1 163 5 is_stmt 1 view .LVU1254
 3224              	.LBB296:
 3225              	.LBI296:
 233:../Common/IQMath/ti/./support/RTS_support.h **** {
ARM GAS  C:\Users\57308\AppData\Local\Temp\cc4OkGld.s 			page 83


 3226              		.loc 2 233 28 view .LVU1255
 3227              	.LBB297:
 3228              		.loc 2 235 5 view .LVU1256
 3229              		.loc 2 235 49 is_stmt 0 view .LVU1257
 3230 007c D917     		asrs	r1, r3, #31
 3231              		.loc 2 235 47 view .LVU1258
 3232 007e 00FB01F1 		mul	r1, r0, r1
 3233 0082 03FB0C11 		mla	r1, r3, ip, r1
 3234 0086 A0FB0303 		umull	r0, r3, r0, r3
 3235              	.LVL392:
 3236              		.loc 2 235 47 view .LVU1259
 3237 008a 0B44     		add	r3, r3, r1
 3238              		.loc 2 235 69 view .LVU1260
 3239 008c C00F     		lsrs	r0, r0, #31
 3240 008e 40EA4300 		orr	r0, r0, r3, lsl #1
 3241              	.LVL393:
 3242              		.loc 2 235 69 view .LVU1261
 3243              	.LBE297:
 3244              	.LBE296:
 166:../Common/IQMath/ti/_IQNasin_acos.c ****     
 3245              		.loc 1 166 5 is_stmt 1 view .LVU1262
 166:../Common/IQMath/ti/_IQNasin_acos.c ****     
 3246              		.loc 1 166 31 is_stmt 0 view .LVU1263
 3247 0092 1369     		ldr	r3, [r2, #16]
 166:../Common/IQMath/ti/_IQNasin_acos.c ****     
 3248              		.loc 1 166 16 view .LVU1264
 3249 0094 1844     		add	r0, r0, r3
 3250              	.LVL394:
 172:../Common/IQMath/ti/_IQNasin_acos.c ****     
 3251              		.loc 1 172 5 is_stmt 1 view .LVU1265
 172:../Common/IQMath/ti/_IQNasin_acos.c ****     
 3252              		.loc 1 172 5 is_stmt 0 view .LVU1266
 3253              	.LBE298:
 3254              	.LBE300:
  72:../Common/IQMath/ti/./support/RTS_support.h **** }
 3255              		.loc 2 72 5 is_stmt 1 view .LVU1267
 3256              	.LBB301:
 3257              	.LBB299:
 175:../Common/IQMath/ti/_IQNasin_acos.c ****         /* asin(x) = pi/2 - 2*iq29Result */
 3258              		.loc 1 175 5 view .LVU1268
 175:../Common/IQMath/ti/_IQNasin_acos.c ****         /* asin(x) = pi/2 - 2*iq29Result */
 3259              		.loc 1 175 8 is_stmt 0 view .LVU1269
 3260 0096 14F0020F 		tst	r4, #2
 3261 009a 02D0     		beq	.L137
 177:../Common/IQMath/ti/_IQNasin_acos.c ****         iq29Result -= iq29_halfPi;      // this is equivalent to the above
 3262              		.loc 1 177 9 is_stmt 1 view .LVU1270
 3263              	.LVL395:
 178:../Common/IQMath/ti/_IQNasin_acos.c ****         iq29Result = -iq29Result;       // but avoids using temporary registers
 3264              		.loc 1 178 9 view .LVU1271
 179:../Common/IQMath/ti/_IQNasin_acos.c ****     }
 3265              		.loc 1 179 9 view .LVU1272
 179:../Common/IQMath/ti/_IQNasin_acos.c ****     }
 3266              		.loc 1 179 20 is_stmt 0 view .LVU1273
 3267 009c 0A4B     		ldr	r3, .L143+4
 3268 009e A3EB4000 		sub	r0, r3, r0, lsl #1
 3269              	.LVL396:
 3270              	.L137:
ARM GAS  C:\Users\57308\AppData\Local\Temp\cc4OkGld.s 			page 84


 183:../Common/IQMath/ti/_IQNasin_acos.c ****     
 3271              		.loc 1 183 5 is_stmt 1 view .LVU1274
 183:../Common/IQMath/ti/_IQNasin_acos.c ****     
 3272              		.loc 1 183 16 is_stmt 0 view .LVU1275
 3273 00a2 C012     		asrs	r0, r0, #11
 3274              	.LVL397:
 186:../Common/IQMath/ti/_IQNasin_acos.c ****         iq29Result = -iq29Result;
 3275              		.loc 1 186 5 is_stmt 1 view .LVU1276
 186:../Common/IQMath/ti/_IQNasin_acos.c ****         iq29Result = -iq29Result;
 3276              		.loc 1 186 8 is_stmt 0 view .LVU1277
 3277 00a4 14F0010F 		tst	r4, #1
 3278 00a8 0BD0     		beq	.L133
 187:../Common/IQMath/ti/_IQNasin_acos.c ****     }
 3279              		.loc 1 187 9 is_stmt 1 view .LVU1278
 187:../Common/IQMath/ti/_IQNasin_acos.c ****     }
 3280              		.loc 1 187 20 is_stmt 0 view .LVU1279
 3281 00aa 4042     		rsbs	r0, r0, #0
 3282              	.LVL398:
 187:../Common/IQMath/ti/_IQNasin_acos.c ****     }
 3283              		.loc 1 187 20 view .LVU1280
 3284 00ac 09E0     		b	.L133
 3285              	.LVL399:
 3286              	.L141:
  90:../Common/IQMath/ti/_IQNasin_acos.c ****         iqNInput = -iqNInput;
 3287              		.loc 1 90 9 is_stmt 1 view .LVU1281
  91:../Common/IQMath/ti/_IQNasin_acos.c ****     }
 3288              		.loc 1 91 9 view .LVU1282
  91:../Common/IQMath/ti/_IQNasin_acos.c ****     }
 3289              		.loc 1 91 18 is_stmt 0 view .LVU1283
 3290 00ae 4042     		rsbs	r0, r0, #0
 3291              	.LVL400:
  90:../Common/IQMath/ti/_IQNasin_acos.c ****         iqNInput = -iqNInput;
 3292              		.loc 1 90 19 view .LVU1284
 3293 00b0 0124     		movs	r4, #1
 3294 00b2 A9E7     		b	.L134
 3295              	.LVL401:
 3296              	.L142:
 115:../Common/IQMath/ti/_IQNasin_acos.c ****         
 3297              		.loc 1 115 9 is_stmt 1 view .LVU1285
 118:../Common/IQMath/ti/_IQNasin_acos.c ****         
 3298              		.loc 1 118 9 view .LVU1286
 118:../Common/IQMath/ti/_IQNasin_acos.c ****         
 3299              		.loc 1 118 22 is_stmt 0 view .LVU1287
 3300 00b4 5808     		lsrs	r0, r3, #1
 3301              	.LVL402:
 118:../Common/IQMath/ti/_IQNasin_acos.c ****         
 3302              		.loc 1 118 22 view .LVU1288
 3303 00b6 FFF7FEFF 		bl	_IQ31sqrt
 3304              	.LVL403:
 121:../Common/IQMath/ti/_IQNasin_acos.c ****     }
 3305              		.loc 1 121 9 is_stmt 1 view .LVU1289
 121:../Common/IQMath/ti/_IQNasin_acos.c ****     }
 3306              		.loc 1 121 19 is_stmt 0 view .LVU1290
 3307 00ba 44F00204 		orr	r4, r4, #2
 3308              	.LVL404:
 121:../Common/IQMath/ti/_IQNasin_acos.c ****     }
 3309              		.loc 1 121 19 view .LVU1291
ARM GAS  C:\Users\57308\AppData\Local\Temp\cc4OkGld.s 			page 85


 3310 00be ACE7     		b	.L136
 3311              	.LVL405:
 3312              	.L139:
 100:../Common/IQMath/ti/_IQNasin_acos.c ****     }
 3313              		.loc 1 100 16 view .LVU1292
 3314 00c0 0020     		movs	r0, #0
 3315              	.LVL406:
 3316              	.L133:
 100:../Common/IQMath/ti/_IQNasin_acos.c ****     }
 3317              		.loc 1 100 16 view .LVU1293
 3318              	.LBE299:
 3319              	.LBE301:
 325:../Common/IQMath/ti/_IQNasin_acos.c **** }
 3320              		.loc 1 325 1 view .LVU1294
 3321 00c2 10BD     		pop	{r4, pc}
 3322              	.L144:
 3323              		.align	2
 3324              	.L143:
 3325 00c4 00000000 		.word	_IQ29Asin_coeffs
 3326 00c8 A8F64332 		.word	843314856
 3327              		.cfi_endproc
 3328              	.LFE273:
 3330              		.section	.text._IQ17asin,"ax",%progbits
 3331              		.align	1
 3332              		.global	_IQ17asin
 3333              		.syntax unified
 3334              		.thumb
 3335              		.thumb_func
 3337              	_IQ17asin:
 3338              	.LVL407:
 3339              	.LFB274:
 326:../Common/IQMath/ti/_IQNasin_acos.c **** /**
 327:../Common/IQMath/ti/_IQNasin_acos.c ****  * @brief Computes the inverse sine of the IQ17 input.
 328:../Common/IQMath/ti/_IQNasin_acos.c ****  *
 329:../Common/IQMath/ti/_IQNasin_acos.c ****  * @param a               IQ17 type input.
 330:../Common/IQMath/ti/_IQNasin_acos.c ****  *
 331:../Common/IQMath/ti/_IQNasin_acos.c ****  * @return                IQ17 type result of inverse sine.
 332:../Common/IQMath/ti/_IQNasin_acos.c ****  */
 333:../Common/IQMath/ti/_IQNasin_acos.c **** int32_t _IQ17asin(int32_t a)
 334:../Common/IQMath/ti/_IQNasin_acos.c **** {
 3340              		.loc 1 334 1 is_stmt 1 view -0
 3341              		.cfi_startproc
 3342              		@ args = 0, pretend = 0, frame = 0
 3343              		@ frame_needed = 0, uses_anonymous_args = 0
 3344              		.loc 1 334 1 is_stmt 0 view .LVU1296
 3345 0000 10B5     		push	{r4, lr}
 3346              	.LCFI12:
 3347              		.cfi_def_cfa_offset 8
 3348              		.cfi_offset 4, -8
 3349              		.cfi_offset 14, -4
 335:../Common/IQMath/ti/_IQNasin_acos.c ****     return __IQNasin(a, 17);
 3350              		.loc 1 335 5 is_stmt 1 view .LVU1297
 3351              	.LVL408:
 3352              	.LBB312:
 3353              	.LBI312:
  70:../Common/IQMath/ti/_IQNasin_acos.c **** {
 3354              		.loc 1 70 30 view .LVU1298
ARM GAS  C:\Users\57308\AppData\Local\Temp\cc4OkGld.s 			page 86


 3355              	.LBB313:
  72:../Common/IQMath/ti/_IQNasin_acos.c ****     uint_fast16_t index;
 3356              		.loc 1 72 5 view .LVU1299
  73:../Common/IQMath/ti/_IQNasin_acos.c ****     uint_fast16_t ui16IntState;
 3357              		.loc 1 73 5 view .LVU1300
  74:../Common/IQMath/ti/_IQNasin_acos.c ****     uint_fast16_t ui16MPYState;
 3358              		.loc 1 74 5 view .LVU1301
  75:../Common/IQMath/ti/_IQNasin_acos.c ****     int_fast32_t iq29Result;
 3359              		.loc 1 75 5 view .LVU1302
  76:../Common/IQMath/ti/_IQNasin_acos.c ****     const int_fast32_t *piq29Coeffs;
 3360              		.loc 1 76 5 view .LVU1303
  77:../Common/IQMath/ti/_IQNasin_acos.c ****     uint_fast32_t uiq31Input;
 3361              		.loc 1 77 5 view .LVU1304
  78:../Common/IQMath/ti/_IQNasin_acos.c ****     uint_fast32_t uiq31InputTemp;
 3362              		.loc 1 78 5 view .LVU1305
  79:../Common/IQMath/ti/_IQNasin_acos.c ****     
 3363              		.loc 1 79 5 view .LVU1306
  89:../Common/IQMath/ti/_IQNasin_acos.c ****         ui8Status |= 1;
 3364              		.loc 1 89 5 view .LVU1307
  89:../Common/IQMath/ti/_IQNasin_acos.c ****         ui8Status |= 1;
 3365              		.loc 1 89 8 is_stmt 0 view .LVU1308
 3366 0002 0028     		cmp	r0, #0
  89:../Common/IQMath/ti/_IQNasin_acos.c ****         ui8Status |= 1;
 3367              		.loc 1 89 8 view .LVU1309
 3368 0004 53DB     		blt	.L153
  72:../Common/IQMath/ti/_IQNasin_acos.c ****     uint_fast16_t index;
 3369              		.loc 1 72 13 view .LVU1310
 3370 0006 0024     		movs	r4, #0
 3371              	.LVL409:
 3372              	.L146:
  99:../Common/IQMath/ti/_IQNasin_acos.c ****         return 0;
 3373              		.loc 1 99 5 is_stmt 1 view .LVU1311
  99:../Common/IQMath/ti/_IQNasin_acos.c ****         return 0;
 3374              		.loc 1 99 8 is_stmt 0 view .LVU1312
 3375 0008 B0F5003F 		cmp	r0, #131072
 3376 000c 58D8     		bhi	.L151
 104:../Common/IQMath/ti/_IQNasin_acos.c ****     
 3377              		.loc 1 104 5 is_stmt 1 view .LVU1313
 104:../Common/IQMath/ti/_IQNasin_acos.c ****     
 3378              		.loc 1 104 16 is_stmt 0 view .LVU1314
 3379 000e 8003     		lsls	r0, r0, #14
 3380              	.LVL410:
 112:../Common/IQMath/ti/_IQNasin_acos.c ****     if (uiq31InputTemp < 0x40000000) {
 3381              		.loc 1 112 5 is_stmt 1 view .LVU1315
 112:../Common/IQMath/ti/_IQNasin_acos.c ****     if (uiq31InputTemp < 0x40000000) {
 3382              		.loc 1 112 20 is_stmt 0 view .LVU1316
 3383 0010 C0F10043 		rsb	r3, r0, #-2147483648
 3384              	.LVL411:
 113:../Common/IQMath/ti/_IQNasin_acos.c ****         /* Halve the result. */
 3385              		.loc 1 113 5 is_stmt 1 view .LVU1317
 113:../Common/IQMath/ti/_IQNasin_acos.c ****         /* Halve the result. */
 3386              		.loc 1 113 8 is_stmt 0 view .LVU1318
 3387 0014 B3F1804F 		cmp	r3, #1073741824
 3388 0018 4CD3     		bcc	.L154
 3389              	.LVL412:
 3390              	.L148:
 125:../Common/IQMath/ti/_IQNasin_acos.c ****     
ARM GAS  C:\Users\57308\AppData\Local\Temp\cc4OkGld.s 			page 87


 3391              		.loc 1 125 5 is_stmt 1 view .LVU1319
 125:../Common/IQMath/ti/_IQNasin_acos.c ****     
 3392              		.loc 1 125 11 is_stmt 0 view .LVU1320
 3393 001a 830E     		lsrs	r3, r0, #26
 3394              	.LVL413:
 128:../Common/IQMath/ti/_IQNasin_acos.c ****     
 3395              		.loc 1 128 5 is_stmt 1 view .LVU1321
 128:../Common/IQMath/ti/_IQNasin_acos.c ****     
 3396              		.loc 1 128 17 is_stmt 0 view .LVU1322
 3397 001c 03EB8303 		add	r3, r3, r3, lsl #2
 3398              	.LVL414:
 128:../Common/IQMath/ti/_IQNasin_acos.c ****     
 3399              		.loc 1 128 17 view .LVU1323
 3400 0020 2849     		ldr	r1, .L155
 3401 0022 01EB8302 		add	r2, r1, r3, lsl #2
 3402              	.LVL415:
 136:../Common/IQMath/ti/_IQNasin_acos.c ****     
 3403              		.loc 1 136 5 is_stmt 1 view .LVU1324
 136:../Common/IQMath/ti/_IQNasin_acos.c ****     
 3404              		.loc 1 136 5 is_stmt 0 view .LVU1325
 3405              	.LBE313:
 3406              	.LBE312:
  28:../Common/IQMath/ti/./support/RTS_support.h **** }
 3407              		.loc 2 28 5 is_stmt 1 view .LVU1326
 3408              	.LBB324:
 3409              	.LBB322:
 145:../Common/IQMath/ti/_IQNasin_acos.c ****     
 3410              		.loc 1 145 5 view .LVU1327
 145:../Common/IQMath/ti/_IQNasin_acos.c ****     
 3411              		.loc 1 145 18 is_stmt 0 view .LVU1328
 3412 0026 51F82330 		ldr	r3, [r1, r3, lsl #2]
 3413              	.LVL416:
 3414              	.LBB314:
 3415              	.LBI314:
 233:../Common/IQMath/ti/./support/RTS_support.h **** {
 3416              		.loc 2 233 28 is_stmt 1 view .LVU1329
 3417              	.LBB315:
 3418              		.loc 2 235 5 view .LVU1330
 3419              		.loc 2 235 28 is_stmt 0 view .LVU1331
 3420 002a 4FEAE07C 		asr	ip, r0, #31
 3421              		.loc 2 235 49 view .LVU1332
 3422 002e D917     		asrs	r1, r3, #31
 3423              		.loc 2 235 47 view .LVU1333
 3424 0030 00FB01F1 		mul	r1, r0, r1
 3425 0034 03FB0C11 		mla	r1, r3, ip, r1
 3426 0038 A0FB033E 		umull	r3, lr, r0, r3
 3427              	.LVL417:
 3428              		.loc 2 235 47 view .LVU1334
 3429 003c 7144     		add	r1, r1, lr
 3430              		.loc 2 235 69 view .LVU1335
 3431 003e DB0F     		lsrs	r3, r3, #31
 3432 0040 43EA4103 		orr	r3, r3, r1, lsl #1
 3433              	.LVL418:
 3434              		.loc 2 235 69 view .LVU1336
 3435              	.LBE315:
 3436              	.LBE314:
 148:../Common/IQMath/ti/_IQNasin_acos.c ****     
ARM GAS  C:\Users\57308\AppData\Local\Temp\cc4OkGld.s 			page 88


 3437              		.loc 1 148 5 is_stmt 1 view .LVU1337
 148:../Common/IQMath/ti/_IQNasin_acos.c ****     
 3438              		.loc 1 148 31 is_stmt 0 view .LVU1338
 3439 0044 5168     		ldr	r1, [r2, #4]
 148:../Common/IQMath/ti/_IQNasin_acos.c ****     
 3440              		.loc 1 148 16 view .LVU1339
 3441 0046 0B44     		add	r3, r3, r1
 3442              	.LVL419:
 151:../Common/IQMath/ti/_IQNasin_acos.c ****     
 3443              		.loc 1 151 5 is_stmt 1 view .LVU1340
 3444              	.LBB316:
 3445              	.LBI316:
 233:../Common/IQMath/ti/./support/RTS_support.h **** {
 3446              		.loc 2 233 28 view .LVU1341
 3447              	.LBB317:
 3448              		.loc 2 235 5 view .LVU1342
 3449              		.loc 2 235 49 is_stmt 0 view .LVU1343
 3450 0048 D917     		asrs	r1, r3, #31
 3451              		.loc 2 235 47 view .LVU1344
 3452 004a 00FB01F1 		mul	r1, r0, r1
 3453 004e 03FB0C11 		mla	r1, r3, ip, r1
 3454 0052 A0FB033E 		umull	r3, lr, r0, r3
 3455              	.LVL420:
 3456              		.loc 2 235 47 view .LVU1345
 3457 0056 7144     		add	r1, r1, lr
 3458              		.loc 2 235 69 view .LVU1346
 3459 0058 DB0F     		lsrs	r3, r3, #31
