ARM GAS  C:\Users\57308\AppData\Local\Temp\cc4OkGld.s 			page 1


   1              		.cpu cortex-m4
   2              		.arch armv7e-m
   3              		.fpu fpv4-sp-d16
   4              		.eabi_attribute 27, 1
   5              		.eabi_attribute 28, 1
   6              		.eabi_attribute 20, 1
   7              		.eabi_attribute 21, 1
   8              		.eabi_attribute 23, 3
   9              		.eabi_attribute 24, 1
  10              		.eabi_attribute 25, 1
  11              		.eabi_attribute 26, 1
  12              		.eabi_attribute 30, 1
  13              		.eabi_attribute 34, 1
  14              		.eabi_attribute 18, 4
  15              		.file	"_IQNasin_acos.c"
  16              		.text
  17              	.Ltext0:
  18              		.cfi_sections	.debug_frame
  19              		.section	.text._IQ29asin,"ax",%progbits
  20              		.align	1
  21              		.global	_IQ29asin
  22              		.syntax unified
  23              		.thumb
  24              		.thumb_func
  26              	_IQ29asin:
  27              	.LVL0:
  28              	.LFB262:
  29              		.file 1 "../Common/IQMath/ti/_IQNasin_acos.c"
   1:../Common/IQMath/ti/_IQNasin_acos.c **** /*!****************************************************************************
   2:../Common/IQMath/ti/_IQNasin_acos.c ****  *  @file       _IQNasin_acos.c
   3:../Common/IQMath/ti/_IQNasin_acos.c ****  *  @brief      Functions to compute the inverse sine of the input
   4:../Common/IQMath/ti/_IQNasin_acos.c ****  *              and return the result, in radians.
   5:../Common/IQMath/ti/_IQNasin_acos.c ****  *
   6:../Common/IQMath/ti/_IQNasin_acos.c ****  *  <hr>
   7:../Common/IQMath/ti/_IQNasin_acos.c ****  ******************************************************************************/
   8:../Common/IQMath/ti/_IQNasin_acos.c **** 
   9:../Common/IQMath/ti/_IQNasin_acos.c **** #include <stdint.h>
  10:../Common/IQMath/ti/_IQNasin_acos.c **** 
  11:../Common/IQMath/ti/_IQNasin_acos.c **** #include "./support/support.h"
  12:../Common/IQMath/ti/_IQNasin_acos.c **** #include "_IQNtables.h"
  13:../Common/IQMath/ti/_IQNasin_acos.c **** 
  14:../Common/IQMath/ti/_IQNasin_acos.c **** /* Hidden Q31 sqrt function. */
  15:../Common/IQMath/ti/_IQNasin_acos.c **** #ifndef DOXYGEN_SHOULD_SKIP_THIS
  16:../Common/IQMath/ti/_IQNasin_acos.c **** /**
  17:../Common/IQMath/ti/_IQNasin_acos.c ****  * @brief Computes the square root of the IQ31 input.
  18:../Common/IQMath/ti/_IQNasin_acos.c ****  *
  19:../Common/IQMath/ti/_IQNasin_acos.c ****  * @param iq31Input       IQ31 type input.
  20:../Common/IQMath/ti/_IQNasin_acos.c ****  *
  21:../Common/IQMath/ti/_IQNasin_acos.c ****  * @return                IQ31 type result of square root.
  22:../Common/IQMath/ti/_IQNasin_acos.c ****  */
  23:../Common/IQMath/ti/_IQNasin_acos.c **** extern int_fast32_t _IQ31sqrt(int_fast32_t iq31Input);
  24:../Common/IQMath/ti/_IQNasin_acos.c **** #endif /* DOXYGEN_SHOULD_SKIP_THIS */
  25:../Common/IQMath/ti/_IQNasin_acos.c **** 
  26:../Common/IQMath/ti/_IQNasin_acos.c **** /**
  27:../Common/IQMath/ti/_IQNasin_acos.c ****  * @brief Computes the inverse sine of the IQN input.
  28:../Common/IQMath/ti/_IQNasin_acos.c ****  *
  29:../Common/IQMath/ti/_IQNasin_acos.c ****  * @param iqNInput        IQN type input.
ARM GAS  C:\Users\57308\AppData\Local\Temp\cc4OkGld.s 			page 2


  30:../Common/IQMath/ti/_IQNasin_acos.c ****  * @param q_value         IQ format.
  31:../Common/IQMath/ti/_IQNasin_acos.c ****  *
  32:../Common/IQMath/ti/_IQNasin_acos.c ****  * @return                IQN type result of inverse sine.
  33:../Common/IQMath/ti/_IQNasin_acos.c ****  */
  34:../Common/IQMath/ti/_IQNasin_acos.c **** /*
  35:../Common/IQMath/ti/_IQNasin_acos.c ****  * Calculate asin using a 4th order Taylor series for inputs in the range of 
  36:../Common/IQMath/ti/_IQNasin_acos.c ****  * zero to 0.5. The coefficients are stored in a lookup table with 17 ranges
  37:../Common/IQMath/ti/_IQNasin_acos.c ****  * to give an accuracy of 26 bits.
  38:../Common/IQMath/ti/_IQNasin_acos.c ****  *
  39:../Common/IQMath/ti/_IQNasin_acos.c ****  * For inputs greater than 0.5 we apply the following transformation:
  40:../Common/IQMath/ti/_IQNasin_acos.c ****  *
  41:../Common/IQMath/ti/_IQNasin_acos.c ****  *     asin(x) = PI/2 - 2*asin(sqrt((1 - x)/2))
  42:../Common/IQMath/ti/_IQNasin_acos.c ****  *
  43:../Common/IQMath/ti/_IQNasin_acos.c ****  * This transformation is derived from the following trig identities:
  44:../Common/IQMath/ti/_IQNasin_acos.c ****  *
  45:../Common/IQMath/ti/_IQNasin_acos.c ****  *     (1) asin(x) = PI/2 - acos(x)
  46:../Common/IQMath/ti/_IQNasin_acos.c ****  *     (2) sin(t/2)^2 = (1 - cos(t))/2
  47:../Common/IQMath/ti/_IQNasin_acos.c ****  *     (3) cos(t) = x
  48:../Common/IQMath/ti/_IQNasin_acos.c ****  *     (4) t = acos(x)
  49:../Common/IQMath/ti/_IQNasin_acos.c ****  *
  50:../Common/IQMath/ti/_IQNasin_acos.c ****  * Identity (2) can be simplified to give equation (5):
  51:../Common/IQMath/ti/_IQNasin_acos.c ****  *
  52:../Common/IQMath/ti/_IQNasin_acos.c ****  *     (5) t = 2*asin(sqrt((1 - cos(t))/2))
  53:../Common/IQMath/ti/_IQNasin_acos.c ****  *
  54:../Common/IQMath/ti/_IQNasin_acos.c ****  * Substituing identities (3) and (4) into equation (5) gives equation (6):
  55:../Common/IQMath/ti/_IQNasin_acos.c ****  *
  56:../Common/IQMath/ti/_IQNasin_acos.c ****  *     (6) acos(x) = 2*asin(sqrt((1 - x)/2))
  57:../Common/IQMath/ti/_IQNasin_acos.c ****  *
  58:../Common/IQMath/ti/_IQNasin_acos.c ****  * The final step is substituting equation (6) into identity (1):
  59:../Common/IQMath/ti/_IQNasin_acos.c ****  *
  60:../Common/IQMath/ti/_IQNasin_acos.c ****  *     asin(x) = PI/2 - 2*asin(sqrt((1 - x)/2))
  61:../Common/IQMath/ti/_IQNasin_acos.c ****  *
  62:../Common/IQMath/ti/_IQNasin_acos.c ****  * Acos is implemented using asin and identity (1).
  63:../Common/IQMath/ti/_IQNasin_acos.c ****  */
  64:../Common/IQMath/ti/_IQNasin_acos.c ****      
  65:../Common/IQMath/ti/_IQNasin_acos.c **** #if defined (__TI_COMPILER_VERSION__)
  66:../Common/IQMath/ti/_IQNasin_acos.c ****     #pragma FUNC_ALWAYS_INLINE(__IQNasin)
  67:../Common/IQMath/ti/_IQNasin_acos.c **** #elif defined(__IAR_SYSTEMS_ICC__)
  68:../Common/IQMath/ti/_IQNasin_acos.c ****     #pragma inline=forced
  69:../Common/IQMath/ti/_IQNasin_acos.c **** #endif
  70:../Common/IQMath/ti/_IQNasin_acos.c **** __STATIC_INLINE int_fast32_t __IQNasin(int_fast32_t iqNInput, const int8_t q_value)
  71:../Common/IQMath/ti/_IQNasin_acos.c **** {
  72:../Common/IQMath/ti/_IQNasin_acos.c ****     uint8_t ui8Status = 0;
  73:../Common/IQMath/ti/_IQNasin_acos.c ****     uint_fast16_t index;
  74:../Common/IQMath/ti/_IQNasin_acos.c ****     uint_fast16_t ui16IntState;
  75:../Common/IQMath/ti/_IQNasin_acos.c ****     uint_fast16_t ui16MPYState;
  76:../Common/IQMath/ti/_IQNasin_acos.c ****     int_fast32_t iq29Result;
  77:../Common/IQMath/ti/_IQNasin_acos.c ****     const int_fast32_t *piq29Coeffs;
  78:../Common/IQMath/ti/_IQNasin_acos.c ****     uint_fast32_t uiq31Input;
  79:../Common/IQMath/ti/_IQNasin_acos.c ****     uint_fast32_t uiq31InputTemp;
  80:../Common/IQMath/ti/_IQNasin_acos.c ****     
  81:../Common/IQMath/ti/_IQNasin_acos.c ****     /*
  82:../Common/IQMath/ti/_IQNasin_acos.c ****      * Extract the sign from the input and set the following status bits:
  83:../Common/IQMath/ti/_IQNasin_acos.c ****      *
  84:../Common/IQMath/ti/_IQNasin_acos.c ****      *      ui8Status = xxxxxxTS
  85:../Common/IQMath/ti/_IQNasin_acos.c ****      *      x = unused
  86:../Common/IQMath/ti/_IQNasin_acos.c ****      *      T = transform was applied
ARM GAS  C:\Users\57308\AppData\Local\Temp\cc4OkGld.s 			page 3


  87:../Common/IQMath/ti/_IQNasin_acos.c ****      *      S = sign bit needs to be set (-y)
  88:../Common/IQMath/ti/_IQNasin_acos.c ****      */
  89:../Common/IQMath/ti/_IQNasin_acos.c ****     if (iqNInput < 0) {
  90:../Common/IQMath/ti/_IQNasin_acos.c ****         ui8Status |= 1;
  91:../Common/IQMath/ti/_IQNasin_acos.c ****         iqNInput = -iqNInput;
  92:../Common/IQMath/ti/_IQNasin_acos.c ****     }
  93:../Common/IQMath/ti/_IQNasin_acos.c ****     
  94:../Common/IQMath/ti/_IQNasin_acos.c ****     /* 
  95:../Common/IQMath/ti/_IQNasin_acos.c ****      * Check if input is within the valid input range:
  96:../Common/IQMath/ti/_IQNasin_acos.c ****      *
  97:../Common/IQMath/ti/_IQNasin_acos.c ****      *     0 <= iqNInput <= 1
  98:../Common/IQMath/ti/_IQNasin_acos.c ****      */
  99:../Common/IQMath/ti/_IQNasin_acos.c ****     if (iqNInput > ((uint_fast32_t)1 << q_value)) {
 100:../Common/IQMath/ti/_IQNasin_acos.c ****         return 0;
 101:../Common/IQMath/ti/_IQNasin_acos.c ****     }
 102:../Common/IQMath/ti/_IQNasin_acos.c ****     
 103:../Common/IQMath/ti/_IQNasin_acos.c ****     /* Convert input to unsigned iq31. */
 104:../Common/IQMath/ti/_IQNasin_acos.c ****     uiq31Input = (uint_fast32_t)iqNInput << (31 - q_value);
 105:../Common/IQMath/ti/_IQNasin_acos.c ****     
 106:../Common/IQMath/ti/_IQNasin_acos.c ****     /* 
 107:../Common/IQMath/ti/_IQNasin_acos.c ****      * Apply the transformation from asin to acos if input is greater than 0.5.
 108:../Common/IQMath/ti/_IQNasin_acos.c ****      * The first step is to calculate the following:
 109:../Common/IQMath/ti/_IQNasin_acos.c ****      *
 110:../Common/IQMath/ti/_IQNasin_acos.c ****      *     (sqrt((1 - uiq31Input)/2))
 111:../Common/IQMath/ti/_IQNasin_acos.c ****      */
 112:../Common/IQMath/ti/_IQNasin_acos.c ****     uiq31InputTemp = 0x80000000 - uiq31Input;
 113:../Common/IQMath/ti/_IQNasin_acos.c ****     if (uiq31InputTemp < 0x40000000) {
 114:../Common/IQMath/ti/_IQNasin_acos.c ****         /* Halve the result. */
 115:../Common/IQMath/ti/_IQNasin_acos.c ****         uiq31Input = uiq31InputTemp >> 1;
 116:../Common/IQMath/ti/_IQNasin_acos.c ****         
 117:../Common/IQMath/ti/_IQNasin_acos.c ****         /* Calculate sqrt((1 - uiq31Input)/2) */
 118:../Common/IQMath/ti/_IQNasin_acos.c ****         uiq31Input = _IQ31sqrt(uiq31Input);
 119:../Common/IQMath/ti/_IQNasin_acos.c ****         
 120:../Common/IQMath/ti/_IQNasin_acos.c ****         /* Flag that the transformation was used. */
 121:../Common/IQMath/ti/_IQNasin_acos.c ****         ui8Status |= 2;
 122:../Common/IQMath/ti/_IQNasin_acos.c ****     }
 123:../Common/IQMath/ti/_IQNasin_acos.c ****     
 124:../Common/IQMath/ti/_IQNasin_acos.c ****     /* Calculate the index using the left 6 most bits of the input. */
 125:../Common/IQMath/ti/_IQNasin_acos.c ****     index = (int_fast16_t)(uiq31Input >> 26) & 0x003f;
 126:../Common/IQMath/ti/_IQNasin_acos.c ****     
 127:../Common/IQMath/ti/_IQNasin_acos.c ****     /* Set the coefficient pointer. */
 128:../Common/IQMath/ti/_IQNasin_acos.c ****     piq29Coeffs = _IQ29Asin_coeffs[index];
 129:../Common/IQMath/ti/_IQNasin_acos.c ****     
 130:../Common/IQMath/ti/_IQNasin_acos.c ****     /*
 131:../Common/IQMath/ti/_IQNasin_acos.c ****      * Mark the start of any multiplies. This will disable interrupts and set
 132:../Common/IQMath/ti/_IQNasin_acos.c ****      * the multiplier to fractional mode. This is designed to reduce overhead
 133:../Common/IQMath/ti/_IQNasin_acos.c ****      * of constantly switching states when using repeated multiplies (MSP430
 134:../Common/IQMath/ti/_IQNasin_acos.c ****      * only).
 135:../Common/IQMath/ti/_IQNasin_acos.c ****      */
 136:../Common/IQMath/ti/_IQNasin_acos.c ****     __mpyf_start(&ui16IntState, &ui16MPYState);
 137:../Common/IQMath/ti/_IQNasin_acos.c ****     
 138:../Common/IQMath/ti/_IQNasin_acos.c ****     /* 
 139:../Common/IQMath/ti/_IQNasin_acos.c ****      * Calculate asin(x) using the following Taylor series:
 140:../Common/IQMath/ti/_IQNasin_acos.c ****      *
 141:../Common/IQMath/ti/_IQNasin_acos.c ****      *     asin(x) = (((c4*x + c3)*x + c2)*x + c1)*x + c0
 142:../Common/IQMath/ti/_IQNasin_acos.c ****      */
 143:../Common/IQMath/ti/_IQNasin_acos.c ****     
ARM GAS  C:\Users\57308\AppData\Local\Temp\cc4OkGld.s 			page 4


 144:../Common/IQMath/ti/_IQNasin_acos.c ****     /* c4*x */
 145:../Common/IQMath/ti/_IQNasin_acos.c ****     iq29Result = __mpyf_l(uiq31Input, *piq29Coeffs++);
 146:../Common/IQMath/ti/_IQNasin_acos.c ****     
 147:../Common/IQMath/ti/_IQNasin_acos.c ****     /* c4*x + c3 */
 148:../Common/IQMath/ti/_IQNasin_acos.c ****     iq29Result = iq29Result + *piq29Coeffs++;
 149:../Common/IQMath/ti/_IQNasin_acos.c ****     
 150:../Common/IQMath/ti/_IQNasin_acos.c ****     /* (c4*x + c3)*x */
 151:../Common/IQMath/ti/_IQNasin_acos.c ****     iq29Result = __mpyf_l(uiq31Input, iq29Result);
 152:../Common/IQMath/ti/_IQNasin_acos.c ****     
 153:../Common/IQMath/ti/_IQNasin_acos.c ****     /* (c4*x + c3)*x + c2 */
 154:../Common/IQMath/ti/_IQNasin_acos.c ****     iq29Result = iq29Result + *piq29Coeffs++;
 155:../Common/IQMath/ti/_IQNasin_acos.c ****     
 156:../Common/IQMath/ti/_IQNasin_acos.c ****     /* ((c4*x + c3)*x + c2)*x */
 157:../Common/IQMath/ti/_IQNasin_acos.c ****     iq29Result = __mpyf_l(uiq31Input, iq29Result);
 158:../Common/IQMath/ti/_IQNasin_acos.c ****     
 159:../Common/IQMath/ti/_IQNasin_acos.c ****     /* ((c4*x + c3)*x + c2)*x + c1 */
 160:../Common/IQMath/ti/_IQNasin_acos.c ****     iq29Result = iq29Result + *piq29Coeffs++;
 161:../Common/IQMath/ti/_IQNasin_acos.c ****     
 162:../Common/IQMath/ti/_IQNasin_acos.c ****     /* (((c4*x + c3)*x + c2)*x + c1)*x */
 163:../Common/IQMath/ti/_IQNasin_acos.c ****     iq29Result = __mpyf_l(uiq31Input, iq29Result);
 164:../Common/IQMath/ti/_IQNasin_acos.c ****     
 165:../Common/IQMath/ti/_IQNasin_acos.c ****     /* (((c4*x + c3)*x + c2)*x + c1)*x + c0 */
 166:../Common/IQMath/ti/_IQNasin_acos.c ****     iq29Result = iq29Result + *piq29Coeffs++;
 167:../Common/IQMath/ti/_IQNasin_acos.c ****     
 168:../Common/IQMath/ti/_IQNasin_acos.c ****     /* 
 169:../Common/IQMath/ti/_IQNasin_acos.c ****      * Mark the end of all multiplies. This restores MPY and interrupt states
 170:../Common/IQMath/ti/_IQNasin_acos.c ****      * (MSP430 only).
 171:../Common/IQMath/ti/_IQNasin_acos.c ****      */
 172:../Common/IQMath/ti/_IQNasin_acos.c ****     __mpy_stop(&ui16IntState, &ui16MPYState);
 173:../Common/IQMath/ti/_IQNasin_acos.c ****     
 174:../Common/IQMath/ti/_IQNasin_acos.c ****     /* check if we switched to acos */
 175:../Common/IQMath/ti/_IQNasin_acos.c ****     if (ui8Status & 2) {
 176:../Common/IQMath/ti/_IQNasin_acos.c ****         /* asin(x) = pi/2 - 2*iq29Result */
 177:../Common/IQMath/ti/_IQNasin_acos.c ****         iq29Result = iq29Result << 1;
 178:../Common/IQMath/ti/_IQNasin_acos.c ****         iq29Result -= iq29_halfPi;      // this is equivalent to the above
 179:../Common/IQMath/ti/_IQNasin_acos.c ****         iq29Result = -iq29Result;       // but avoids using temporary registers
 180:../Common/IQMath/ti/_IQNasin_acos.c ****     }
 181:../Common/IQMath/ti/_IQNasin_acos.c ****     
 182:../Common/IQMath/ti/_IQNasin_acos.c ****     /* Shift iq29 result to specified q_value. */
 183:../Common/IQMath/ti/_IQNasin_acos.c ****     iq29Result >>= 29 - q_value;
 184:../Common/IQMath/ti/_IQNasin_acos.c ****     
 185:../Common/IQMath/ti/_IQNasin_acos.c ****     /* Add sign to the result. */
 186:../Common/IQMath/ti/_IQNasin_acos.c ****     if (ui8Status & 1) {
 187:../Common/IQMath/ti/_IQNasin_acos.c ****         iq29Result = -iq29Result;
 188:../Common/IQMath/ti/_IQNasin_acos.c ****     }
 189:../Common/IQMath/ti/_IQNasin_acos.c ****     
 190:../Common/IQMath/ti/_IQNasin_acos.c ****     return iq29Result;
 191:../Common/IQMath/ti/_IQNasin_acos.c **** }
 192:../Common/IQMath/ti/_IQNasin_acos.c **** 
 193:../Common/IQMath/ti/_IQNasin_acos.c **** /* ASIN */
 194:../Common/IQMath/ti/_IQNasin_acos.c **** /**
 195:../Common/IQMath/ti/_IQNasin_acos.c ****  * @brief Computes the inverse sine of the IQ29 input.
 196:../Common/IQMath/ti/_IQNasin_acos.c ****  *
 197:../Common/IQMath/ti/_IQNasin_acos.c ****  * @param a               IQ29 type input.
 198:../Common/IQMath/ti/_IQNasin_acos.c ****  *
 199:../Common/IQMath/ti/_IQNasin_acos.c ****  * @return                IQ29 type result of inverse sine.
 200:../Common/IQMath/ti/_IQNasin_acos.c ****  */
ARM GAS  C:\Users\57308\AppData\Local\Temp\cc4OkGld.s 			page 5


 201:../Common/IQMath/ti/_IQNasin_acos.c **** int32_t _IQ29asin(int32_t a)
 202:../Common/IQMath/ti/_IQNasin_acos.c **** {
  30              		.loc 1 202 1 view -0
  31              		.cfi_startproc
  32              		@ args = 0, pretend = 0, frame = 0
  33              		@ frame_needed = 0, uses_anonymous_args = 0
  34              		.loc 1 202 1 is_stmt 0 view .LVU1
  35 0000 10B5     		push	{r4, lr}
  36              	.LCFI0:
  37              		.cfi_def_cfa_offset 8
  38              		.cfi_offset 4, -8
  39              		.cfi_offset 14, -4
 203:../Common/IQMath/ti/_IQNasin_acos.c ****     return __IQNasin(a, 29);
  40              		.loc 1 203 5 is_stmt 1 view .LVU2
  41              	.LVL1:
  42              	.LBB24:
  43              	.LBI24:
  70:../Common/IQMath/ti/_IQNasin_acos.c **** {
  44              		.loc 1 70 30 view .LVU3
  45              	.LBB25:
  72:../Common/IQMath/ti/_IQNasin_acos.c ****     uint_fast16_t index;
  46              		.loc 1 72 5 view .LVU4
  73:../Common/IQMath/ti/_IQNasin_acos.c ****     uint_fast16_t ui16IntState;
  47              		.loc 1 73 5 view .LVU5
  74:../Common/IQMath/ti/_IQNasin_acos.c ****     uint_fast16_t ui16MPYState;
  48              		.loc 1 74 5 view .LVU6
  75:../Common/IQMath/ti/_IQNasin_acos.c ****     int_fast32_t iq29Result;
  49              		.loc 1 75 5 view .LVU7
  76:../Common/IQMath/ti/_IQNasin_acos.c ****     const int_fast32_t *piq29Coeffs;
  50              		.loc 1 76 5 view .LVU8
  77:../Common/IQMath/ti/_IQNasin_acos.c ****     uint_fast32_t uiq31Input;
  51              		.loc 1 77 5 view .LVU9
  78:../Common/IQMath/ti/_IQNasin_acos.c ****     uint_fast32_t uiq31InputTemp;
  52              		.loc 1 78 5 view .LVU10
  79:../Common/IQMath/ti/_IQNasin_acos.c ****     
  53              		.loc 1 79 5 view .LVU11
  89:../Common/IQMath/ti/_IQNasin_acos.c ****         ui8Status |= 1;
  54              		.loc 1 89 5 view .LVU12
  89:../Common/IQMath/ti/_IQNasin_acos.c ****         ui8Status |= 1;
  55              		.loc 1 89 8 is_stmt 0 view .LVU13
  56 0002 0028     		cmp	r0, #0
  89:../Common/IQMath/ti/_IQNasin_acos.c ****         ui8Status |= 1;
  57              		.loc 1 89 8 view .LVU14
  58 0004 52DB     		blt	.L9
  72:../Common/IQMath/ti/_IQNasin_acos.c ****     uint_fast16_t index;
  59              		.loc 1 72 13 view .LVU15
  60 0006 0024     		movs	r4, #0
  61              	.LVL2:
  62              	.L2:
  99:../Common/IQMath/ti/_IQNasin_acos.c ****         return 0;
  63              		.loc 1 99 5 is_stmt 1 view .LVU16
  99:../Common/IQMath/ti/_IQNasin_acos.c ****         return 0;
  64              		.loc 1 99 8 is_stmt 0 view .LVU17
  65 0008 B0F1005F 		cmp	r0, #536870912
  66 000c 57D8     		bhi	.L7
 104:../Common/IQMath/ti/_IQNasin_acos.c ****     
  67              		.loc 1 104 5 is_stmt 1 view .LVU18
ARM GAS  C:\Users\57308\AppData\Local\Temp\cc4OkGld.s 			page 6


 104:../Common/IQMath/ti/_IQNasin_acos.c ****     
  68              		.loc 1 104 16 is_stmt 0 view .LVU19
  69 000e 8000     		lsls	r0, r0, #2
  70              	.LVL3:
 112:../Common/IQMath/ti/_IQNasin_acos.c ****     if (uiq31InputTemp < 0x40000000) {
  71              		.loc 1 112 5 is_stmt 1 view .LVU20
 112:../Common/IQMath/ti/_IQNasin_acos.c ****     if (uiq31InputTemp < 0x40000000) {
  72              		.loc 1 112 20 is_stmt 0 view .LVU21
  73 0010 C0F10043 		rsb	r3, r0, #-2147483648
  74              	.LVL4:
 113:../Common/IQMath/ti/_IQNasin_acos.c ****         /* Halve the result. */
  75              		.loc 1 113 5 is_stmt 1 view .LVU22
 113:../Common/IQMath/ti/_IQNasin_acos.c ****         /* Halve the result. */
  76              		.loc 1 113 8 is_stmt 0 view .LVU23
  77 0014 B3F1804F 		cmp	r3, #1073741824
  78 0018 4BD3     		bcc	.L10
  79              	.LVL5:
  80              	.L4:
 125:../Common/IQMath/ti/_IQNasin_acos.c ****     
  81              		.loc 1 125 5 is_stmt 1 view .LVU24
 125:../Common/IQMath/ti/_IQNasin_acos.c ****     
  82              		.loc 1 125 11 is_stmt 0 view .LVU25
  83 001a 830E     		lsrs	r3, r0, #26
  84              	.LVL6:
 128:../Common/IQMath/ti/_IQNasin_acos.c ****     
  85              		.loc 1 128 5 is_stmt 1 view .LVU26
 128:../Common/IQMath/ti/_IQNasin_acos.c ****     
  86              		.loc 1 128 17 is_stmt 0 view .LVU27
  87 001c 03EB8303 		add	r3, r3, r3, lsl #2
  88              	.LVL7:
 128:../Common/IQMath/ti/_IQNasin_acos.c ****     
  89              		.loc 1 128 17 view .LVU28
  90 0020 2849     		ldr	r1, .L11
  91 0022 01EB8302 		add	r2, r1, r3, lsl #2
  92              	.LVL8:
 136:../Common/IQMath/ti/_IQNasin_acos.c ****     
  93              		.loc 1 136 5 is_stmt 1 view .LVU29
 136:../Common/IQMath/ti/_IQNasin_acos.c ****     
  94              		.loc 1 136 5 is_stmt 0 view .LVU30
  95              	.LBE25:
  96              	.LBE24:
  97              		.file 2 "../Common/IQMath/ti/./support/RTS_support.h"
   1:../Common/IQMath/ti/./support/RTS_support.h **** #ifndef __RTS_SUPPORTH__
   2:../Common/IQMath/ti/./support/RTS_support.h **** #define __RTS_SUPPORTH__
   3:../Common/IQMath/ti/./support/RTS_support.h **** 
   4:../Common/IQMath/ti/./support/RTS_support.h **** ////////////////////////////////////////////////////////////
   5:../Common/IQMath/ti/./support/RTS_support.h **** //                                                        //
   6:../Common/IQMath/ti/./support/RTS_support.h **** //              MPY32 control functions.                  //
   7:../Common/IQMath/ti/./support/RTS_support.h **** //                                                        //
   8:../Common/IQMath/ti/./support/RTS_support.h **** ////////////////////////////////////////////////////////////
   9:../Common/IQMath/ti/./support/RTS_support.h **** #if defined (__TI_COMPILER_VERSION__)
  10:../Common/IQMath/ti/./support/RTS_support.h ****     #pragma FUNC_ALWAYS_INLINE(__mpy_start)
  11:../Common/IQMath/ti/./support/RTS_support.h **** #elif defined(__IAR_SYSTEMS_ICC__)
  12:../Common/IQMath/ti/./support/RTS_support.h ****     #pragma inline=forced
  13:../Common/IQMath/ti/./support/RTS_support.h **** #endif
  14:../Common/IQMath/ti/./support/RTS_support.h **** static inline void __mpy_start(uint_fast16_t *ui16IntState, uint_fast16_t *ui16MPYState)
  15:../Common/IQMath/ti/./support/RTS_support.h **** {
ARM GAS  C:\Users\57308\AppData\Local\Temp\cc4OkGld.s 			page 7


  16:../Common/IQMath/ti/./support/RTS_support.h ****     /* Do nothing. */
  17:../Common/IQMath/ti/./support/RTS_support.h ****     return;
  18:../Common/IQMath/ti/./support/RTS_support.h **** }
  19:../Common/IQMath/ti/./support/RTS_support.h **** 
  20:../Common/IQMath/ti/./support/RTS_support.h **** #if defined (__TI_COMPILER_VERSION__)
  21:../Common/IQMath/ti/./support/RTS_support.h ****     #pragma FUNC_ALWAYS_INLINE(__mpyf_start)
  22:../Common/IQMath/ti/./support/RTS_support.h **** #elif defined(__IAR_SYSTEMS_ICC__)
  23:../Common/IQMath/ti/./support/RTS_support.h ****     #pragma inline=forced
  24:../Common/IQMath/ti/./support/RTS_support.h **** #endif
  25:../Common/IQMath/ti/./support/RTS_support.h **** static inline void __mpyf_start(uint_fast16_t *ui16IntState, uint_fast16_t *ui16MPYState)
  26:../Common/IQMath/ti/./support/RTS_support.h **** {
  27:../Common/IQMath/ti/./support/RTS_support.h ****     /* Do nothing. */
  28:../Common/IQMath/ti/./support/RTS_support.h ****     return;
  98              		.loc 2 28 5 is_stmt 1 view .LVU31
  99              	.LBB36:
 100              	.LBB34:
 145:../Common/IQMath/ti/_IQNasin_acos.c ****     
 101              		.loc 1 145 5 view .LVU32
 145:../Common/IQMath/ti/_IQNasin_acos.c ****     
 102              		.loc 1 145 18 is_stmt 0 view .LVU33
 103 0026 51F82330 		ldr	r3, [r1, r3, lsl #2]
 104              	.LVL9:
 105              	.LBB26:
 106              	.LBI26:
  29:../Common/IQMath/ti/./support/RTS_support.h **** }
  30:../Common/IQMath/ti/./support/RTS_support.h **** 
  31:../Common/IQMath/ti/./support/RTS_support.h **** #if defined (__TI_COMPILER_VERSION__)
  32:../Common/IQMath/ti/./support/RTS_support.h ****     #pragma FUNC_ALWAYS_INLINE(__mpyfs_start)
  33:../Common/IQMath/ti/./support/RTS_support.h **** #elif defined(__IAR_SYSTEMS_ICC__)
  34:../Common/IQMath/ti/./support/RTS_support.h ****     #pragma inline=forced
  35:../Common/IQMath/ti/./support/RTS_support.h **** #endif
  36:../Common/IQMath/ti/./support/RTS_support.h **** static inline void __mpyfs_start(uint_fast16_t *ui16IntState, uint_fast16_t *ui16MPYState)
  37:../Common/IQMath/ti/./support/RTS_support.h **** {
  38:../Common/IQMath/ti/./support/RTS_support.h ****     /* Do nothing. */
  39:../Common/IQMath/ti/./support/RTS_support.h ****     return;
  40:../Common/IQMath/ti/./support/RTS_support.h **** }
  41:../Common/IQMath/ti/./support/RTS_support.h **** 
  42:../Common/IQMath/ti/./support/RTS_support.h **** #if defined (__TI_COMPILER_VERSION__)
  43:../Common/IQMath/ti/./support/RTS_support.h ****     #pragma FUNC_ALWAYS_INLINE(__mpy_clear_ctl0)
  44:../Common/IQMath/ti/./support/RTS_support.h **** #elif defined(__IAR_SYSTEMS_ICC__)
  45:../Common/IQMath/ti/./support/RTS_support.h ****     #pragma inline=forced
  46:../Common/IQMath/ti/./support/RTS_support.h **** #endif
  47:../Common/IQMath/ti/./support/RTS_support.h **** static inline void __mpy_clear_ctl0(void)
  48:../Common/IQMath/ti/./support/RTS_support.h **** {
  49:../Common/IQMath/ti/./support/RTS_support.h ****     /* Do nothing. */
  50:../Common/IQMath/ti/./support/RTS_support.h ****     return;
  51:../Common/IQMath/ti/./support/RTS_support.h **** }
  52:../Common/IQMath/ti/./support/RTS_support.h **** 
  53:../Common/IQMath/ti/./support/RTS_support.h **** #if defined (__TI_COMPILER_VERSION__)
  54:../Common/IQMath/ti/./support/RTS_support.h ****     #pragma FUNC_ALWAYS_INLINE(__mpy_set_frac)
  55:../Common/IQMath/ti/./support/RTS_support.h **** #elif defined(__IAR_SYSTEMS_ICC__)
  56:../Common/IQMath/ti/./support/RTS_support.h ****     #pragma inline=forced
  57:../Common/IQMath/ti/./support/RTS_support.h **** #endif
  58:../Common/IQMath/ti/./support/RTS_support.h **** static inline void __mpy_set_frac(void)
  59:../Common/IQMath/ti/./support/RTS_support.h **** {
  60:../Common/IQMath/ti/./support/RTS_support.h ****     /* Do nothing. */
  61:../Common/IQMath/ti/./support/RTS_support.h ****     return;
ARM GAS  C:\Users\57308\AppData\Local\Temp\cc4OkGld.s 			page 8


  62:../Common/IQMath/ti/./support/RTS_support.h **** }
  63:../Common/IQMath/ti/./support/RTS_support.h **** 
  64:../Common/IQMath/ti/./support/RTS_support.h **** #if defined (__TI_COMPILER_VERSION__)
  65:../Common/IQMath/ti/./support/RTS_support.h ****     #pragma FUNC_ALWAYS_INLINE(__mpy_stop)
  66:../Common/IQMath/ti/./support/RTS_support.h **** #elif defined(__IAR_SYSTEMS_ICC__)
  67:../Common/IQMath/ti/./support/RTS_support.h ****     #pragma inline=forced
  68:../Common/IQMath/ti/./support/RTS_support.h **** #endif
  69:../Common/IQMath/ti/./support/RTS_support.h **** static inline void __mpy_stop(uint_fast16_t *ui16IntState, uint_fast16_t *ui16MPYState)
  70:../Common/IQMath/ti/./support/RTS_support.h **** {
  71:../Common/IQMath/ti/./support/RTS_support.h ****     /* Do nothing. */
  72:../Common/IQMath/ti/./support/RTS_support.h ****     return;
  73:../Common/IQMath/ti/./support/RTS_support.h **** }
  74:../Common/IQMath/ti/./support/RTS_support.h **** 
  75:../Common/IQMath/ti/./support/RTS_support.h **** ////////////////////////////////////////////////////////////
  76:../Common/IQMath/ti/./support/RTS_support.h **** //                                                        //
  77:../Common/IQMath/ti/./support/RTS_support.h **** //                16-bit functions                        //
  78:../Common/IQMath/ti/./support/RTS_support.h **** //                                                        //
  79:../Common/IQMath/ti/./support/RTS_support.h **** ////////////////////////////////////////////////////////////
  80:../Common/IQMath/ti/./support/RTS_support.h **** #if defined (__TI_COMPILER_VERSION__)
  81:../Common/IQMath/ti/./support/RTS_support.h ****     #pragma FUNC_ALWAYS_INLINE(__mpy_w)
  82:../Common/IQMath/ti/./support/RTS_support.h **** #elif defined(__IAR_SYSTEMS_ICC__)
  83:../Common/IQMath/ti/./support/RTS_support.h ****     #pragma inline=forced
  84:../Common/IQMath/ti/./support/RTS_support.h **** #endif
  85:../Common/IQMath/ti/./support/RTS_support.h **** static inline int_fast16_t __mpy_w(int_fast16_t arg1, int_fast16_t arg2)
  86:../Common/IQMath/ti/./support/RTS_support.h **** {
  87:../Common/IQMath/ti/./support/RTS_support.h ****     return (arg1 * arg2);
  88:../Common/IQMath/ti/./support/RTS_support.h **** }
  89:../Common/IQMath/ti/./support/RTS_support.h **** 
  90:../Common/IQMath/ti/./support/RTS_support.h **** #if defined (__TI_COMPILER_VERSION__)
  91:../Common/IQMath/ti/./support/RTS_support.h ****     #pragma FUNC_ALWAYS_INLINE(__mpy_uw)
  92:../Common/IQMath/ti/./support/RTS_support.h **** #elif defined(__IAR_SYSTEMS_ICC__)
  93:../Common/IQMath/ti/./support/RTS_support.h ****     #pragma inline=forced
  94:../Common/IQMath/ti/./support/RTS_support.h **** #endif
  95:../Common/IQMath/ti/./support/RTS_support.h **** static inline uint_fast16_t __mpy_uw(uint_fast16_t arg1, uint_fast16_t arg2)
  96:../Common/IQMath/ti/./support/RTS_support.h **** {
  97:../Common/IQMath/ti/./support/RTS_support.h ****     return (arg1 * arg2);
  98:../Common/IQMath/ti/./support/RTS_support.h **** }
  99:../Common/IQMath/ti/./support/RTS_support.h **** 
 100:../Common/IQMath/ti/./support/RTS_support.h **** #if defined (__TI_COMPILER_VERSION__)
 101:../Common/IQMath/ti/./support/RTS_support.h ****     #pragma FUNC_ALWAYS_INLINE(__mpyx_w)
 102:../Common/IQMath/ti/./support/RTS_support.h **** #elif defined(__IAR_SYSTEMS_ICC__)
 103:../Common/IQMath/ti/./support/RTS_support.h ****     #pragma inline=forced
 104:../Common/IQMath/ti/./support/RTS_support.h **** #endif
 105:../Common/IQMath/ti/./support/RTS_support.h **** static inline int_fast32_t __mpyx_w(int_fast16_t arg1, int_fast16_t arg2)
 106:../Common/IQMath/ti/./support/RTS_support.h **** {
 107:../Common/IQMath/ti/./support/RTS_support.h ****     return ((int_fast32_t)arg1 * (int_fast32_t)arg2);
 108:../Common/IQMath/ti/./support/RTS_support.h **** }
 109:../Common/IQMath/ti/./support/RTS_support.h **** 
 110:../Common/IQMath/ti/./support/RTS_support.h **** #if defined (__TI_COMPILER_VERSION__)
 111:../Common/IQMath/ti/./support/RTS_support.h ****     #pragma FUNC_ALWAYS_INLINE(__mpyx_uw)
 112:../Common/IQMath/ti/./support/RTS_support.h **** #elif defined(__IAR_SYSTEMS_ICC__)
 113:../Common/IQMath/ti/./support/RTS_support.h ****     #pragma inline=forced
 114:../Common/IQMath/ti/./support/RTS_support.h **** #endif
 115:../Common/IQMath/ti/./support/RTS_support.h **** static inline uint_fast32_t __mpyx_uw(uint_fast16_t arg1, uint_fast16_t arg2)
 116:../Common/IQMath/ti/./support/RTS_support.h **** {
 117:../Common/IQMath/ti/./support/RTS_support.h ****     return ((uint_fast32_t)arg1 * (uint_fast32_t)arg2);
 118:../Common/IQMath/ti/./support/RTS_support.h **** }
ARM GAS  C:\Users\57308\AppData\Local\Temp\cc4OkGld.s 			page 9


 119:../Common/IQMath/ti/./support/RTS_support.h **** 
 120:../Common/IQMath/ti/./support/RTS_support.h **** #if defined (__TI_COMPILER_VERSION__)
 121:../Common/IQMath/ti/./support/RTS_support.h ****     #pragma FUNC_ALWAYS_INLINE(__mpyf_w)
 122:../Common/IQMath/ti/./support/RTS_support.h **** #elif defined(__IAR_SYSTEMS_ICC__)
 123:../Common/IQMath/ti/./support/RTS_support.h ****     #pragma inline=forced
 124:../Common/IQMath/ti/./support/RTS_support.h **** #endif
 125:../Common/IQMath/ti/./support/RTS_support.h **** static inline int_fast16_t __mpyf_w(int_fast16_t arg1, int_fast16_t arg2)
 126:../Common/IQMath/ti/./support/RTS_support.h **** {
 127:../Common/IQMath/ti/./support/RTS_support.h ****     return (int_fast16_t)(((int_fast32_t)arg1 * (int_fast32_t)arg2) >> 15);
 128:../Common/IQMath/ti/./support/RTS_support.h **** }
 129:../Common/IQMath/ti/./support/RTS_support.h **** 
 130:../Common/IQMath/ti/./support/RTS_support.h **** #if defined (__TI_COMPILER_VERSION__)
 131:../Common/IQMath/ti/./support/RTS_support.h ****     #pragma FUNC_ALWAYS_INLINE(__mpyf_w_reuse_arg1)
 132:../Common/IQMath/ti/./support/RTS_support.h **** #elif defined(__IAR_SYSTEMS_ICC__)
 133:../Common/IQMath/ti/./support/RTS_support.h ****     #pragma inline=forced
 134:../Common/IQMath/ti/./support/RTS_support.h **** #endif
 135:../Common/IQMath/ti/./support/RTS_support.h **** static inline int_fast16_t __mpyf_w_reuse_arg1(int_fast16_t arg1, int_fast16_t arg2)
 136:../Common/IQMath/ti/./support/RTS_support.h **** {
 137:../Common/IQMath/ti/./support/RTS_support.h ****     /* This is identical to __mpyf_w */
 138:../Common/IQMath/ti/./support/RTS_support.h ****     return (int_fast16_t)(((int_fast32_t)arg1 * (int_fast32_t)arg2) >> 15);
 139:../Common/IQMath/ti/./support/RTS_support.h **** }
 140:../Common/IQMath/ti/./support/RTS_support.h **** 
 141:../Common/IQMath/ti/./support/RTS_support.h **** #if defined (__TI_COMPILER_VERSION__)
 142:../Common/IQMath/ti/./support/RTS_support.h ****     #pragma FUNC_ALWAYS_INLINE(__mpyf_uw)
 143:../Common/IQMath/ti/./support/RTS_support.h **** #elif defined(__IAR_SYSTEMS_ICC__)
 144:../Common/IQMath/ti/./support/RTS_support.h ****     #pragma inline=forced
 145:../Common/IQMath/ti/./support/RTS_support.h **** #endif
 146:../Common/IQMath/ti/./support/RTS_support.h **** static inline uint_fast16_t __mpyf_uw(uint_fast16_t arg1, uint_fast16_t arg2)
 147:../Common/IQMath/ti/./support/RTS_support.h **** {
 148:../Common/IQMath/ti/./support/RTS_support.h ****     return (uint_fast16_t)(((uint_fast32_t)arg1 * (uint_fast32_t)arg2) >> 15);
 149:../Common/IQMath/ti/./support/RTS_support.h **** }
 150:../Common/IQMath/ti/./support/RTS_support.h **** 
 151:../Common/IQMath/ti/./support/RTS_support.h **** #if defined (__TI_COMPILER_VERSION__)
 152:../Common/IQMath/ti/./support/RTS_support.h ****     #pragma FUNC_ALWAYS_INLINE(__mpyf_uw_reuse_arg1)
 153:../Common/IQMath/ti/./support/RTS_support.h **** #elif defined(__IAR_SYSTEMS_ICC__)
 154:../Common/IQMath/ti/./support/RTS_support.h ****     #pragma inline=forced
 155:../Common/IQMath/ti/./support/RTS_support.h **** #endif
 156:../Common/IQMath/ti/./support/RTS_support.h **** static inline uint_fast16_t __mpyf_uw_reuse_arg1(uint_fast16_t arg1, uint_fast16_t arg2)
 157:../Common/IQMath/ti/./support/RTS_support.h **** {
 158:../Common/IQMath/ti/./support/RTS_support.h ****     /* This is identical to __mpyf_uw */
 159:../Common/IQMath/ti/./support/RTS_support.h ****     return (uint_fast16_t)(((uint_fast32_t)arg1 * (uint_fast32_t)arg2) >> 15);
 160:../Common/IQMath/ti/./support/RTS_support.h **** }
 161:../Common/IQMath/ti/./support/RTS_support.h **** 
 162:../Common/IQMath/ti/./support/RTS_support.h **** #if defined (__TI_COMPILER_VERSION__)
 163:../Common/IQMath/ti/./support/RTS_support.h ****     #pragma FUNC_ALWAYS_INLINE(__mpyfx_w)
 164:../Common/IQMath/ti/./support/RTS_support.h **** #elif defined(__IAR_SYSTEMS_ICC__)
 165:../Common/IQMath/ti/./support/RTS_support.h ****     #pragma inline=forced
 166:../Common/IQMath/ti/./support/RTS_support.h **** #endif
 167:../Common/IQMath/ti/./support/RTS_support.h **** static inline int_fast32_t __mpyfx_w(int_fast16_t arg1, int_fast16_t arg2)
 168:../Common/IQMath/ti/./support/RTS_support.h **** {
 169:../Common/IQMath/ti/./support/RTS_support.h ****     return (((int_fast32_t)arg1 * (int_fast32_t)arg2) << 1);
 170:../Common/IQMath/ti/./support/RTS_support.h **** }
 171:../Common/IQMath/ti/./support/RTS_support.h **** 
 172:../Common/IQMath/ti/./support/RTS_support.h **** #if defined (__TI_COMPILER_VERSION__)
 173:../Common/IQMath/ti/./support/RTS_support.h ****     #pragma FUNC_ALWAYS_INLINE(__mpyfx_uw)
 174:../Common/IQMath/ti/./support/RTS_support.h **** #elif defined(__IAR_SYSTEMS_ICC__)
 175:../Common/IQMath/ti/./support/RTS_support.h ****     #pragma inline=forced
ARM GAS  C:\Users\57308\AppData\Local\Temp\cc4OkGld.s 			page 10


 176:../Common/IQMath/ti/./support/RTS_support.h **** #endif
 177:../Common/IQMath/ti/./support/RTS_support.h **** static inline int_fast32_t __mpyfx_uw(uint_fast16_t arg1, uint_fast16_t arg2)
 178:../Common/IQMath/ti/./support/RTS_support.h **** {
 179:../Common/IQMath/ti/./support/RTS_support.h ****     return (((uint_fast32_t)arg1 * (uint_fast32_t)arg2) << 1);
 180:../Common/IQMath/ti/./support/RTS_support.h **** }
 181:../Common/IQMath/ti/./support/RTS_support.h **** 
 182:../Common/IQMath/ti/./support/RTS_support.h **** 
 183:../Common/IQMath/ti/./support/RTS_support.h **** ////////////////////////////////////////////////////////////
 184:../Common/IQMath/ti/./support/RTS_support.h **** //                                                        //
 185:../Common/IQMath/ti/./support/RTS_support.h **** //                 32-bit functions                       //
 186:../Common/IQMath/ti/./support/RTS_support.h **** //                                                        //
 187:../Common/IQMath/ti/./support/RTS_support.h **** ////////////////////////////////////////////////////////////
 188:../Common/IQMath/ti/./support/RTS_support.h **** #if defined (__TI_COMPILER_VERSION__)
 189:../Common/IQMath/ti/./support/RTS_support.h ****     #pragma FUNC_ALWAYS_INLINE(__mpy_l)
 190:../Common/IQMath/ti/./support/RTS_support.h **** #elif defined(__IAR_SYSTEMS_ICC__)
 191:../Common/IQMath/ti/./support/RTS_support.h ****     #pragma inline=forced
 192:../Common/IQMath/ti/./support/RTS_support.h **** #endif
 193:../Common/IQMath/ti/./support/RTS_support.h **** static inline int_fast32_t __mpy_l(int_fast32_t arg1, int_fast32_t arg2)
 194:../Common/IQMath/ti/./support/RTS_support.h **** {
 195:../Common/IQMath/ti/./support/RTS_support.h ****     return (arg1 * arg2);
 196:../Common/IQMath/ti/./support/RTS_support.h **** }
 197:../Common/IQMath/ti/./support/RTS_support.h **** 
 198:../Common/IQMath/ti/./support/RTS_support.h **** #if defined (__TI_COMPILER_VERSION__)
 199:../Common/IQMath/ti/./support/RTS_support.h ****     #pragma FUNC_ALWAYS_INLINE(__mpy_ul)
 200:../Common/IQMath/ti/./support/RTS_support.h **** #elif defined(__IAR_SYSTEMS_ICC__)
 201:../Common/IQMath/ti/./support/RTS_support.h ****     #pragma inline=forced
 202:../Common/IQMath/ti/./support/RTS_support.h **** #endif
 203:../Common/IQMath/ti/./support/RTS_support.h **** static inline uint_fast32_t __mpy_ul(uint_fast32_t arg1, uint_fast32_t arg2)
 204:../Common/IQMath/ti/./support/RTS_support.h **** {
 205:../Common/IQMath/ti/./support/RTS_support.h ****     return (arg1 * arg2);
 206:../Common/IQMath/ti/./support/RTS_support.h **** }
 207:../Common/IQMath/ti/./support/RTS_support.h **** 
 208:../Common/IQMath/ti/./support/RTS_support.h **** #if defined (__TI_COMPILER_VERSION__)
 209:../Common/IQMath/ti/./support/RTS_support.h ****     #pragma FUNC_ALWAYS_INLINE(__mpyx)
 210:../Common/IQMath/ti/./support/RTS_support.h **** #elif defined(__IAR_SYSTEMS_ICC__)
 211:../Common/IQMath/ti/./support/RTS_support.h ****     #pragma inline=forced
 212:../Common/IQMath/ti/./support/RTS_support.h **** #endif
 213:../Common/IQMath/ti/./support/RTS_support.h **** static inline int_fast64_t __mpyx(int_fast32_t arg1, int_fast32_t arg2)
 214:../Common/IQMath/ti/./support/RTS_support.h **** {
 215:../Common/IQMath/ti/./support/RTS_support.h ****     return ((int_fast64_t)arg1 * (int_fast64_t)arg2);
 216:../Common/IQMath/ti/./support/RTS_support.h **** }
 217:../Common/IQMath/ti/./support/RTS_support.h **** 
 218:../Common/IQMath/ti/./support/RTS_support.h **** #if defined (__TI_COMPILER_VERSION__)
 219:../Common/IQMath/ti/./support/RTS_support.h ****     #pragma FUNC_ALWAYS_INLINE(__mpyx_u)
 220:../Common/IQMath/ti/./support/RTS_support.h **** #elif defined(__IAR_SYSTEMS_ICC__)
 221:../Common/IQMath/ti/./support/RTS_support.h ****     #pragma inline=forced
 222:../Common/IQMath/ti/./support/RTS_support.h **** #endif
 223:../Common/IQMath/ti/./support/RTS_support.h **** static inline uint_fast64_t __mpyx_u(uint_fast32_t arg1, uint_fast32_t arg2)
 224:../Common/IQMath/ti/./support/RTS_support.h **** {
 225:../Common/IQMath/ti/./support/RTS_support.h ****     return ((uint_fast64_t)arg1 * (uint_fast64_t)arg2);
 226:../Common/IQMath/ti/./support/RTS_support.h **** }
 227:../Common/IQMath/ti/./support/RTS_support.h **** 
 228:../Common/IQMath/ti/./support/RTS_support.h **** #if defined (__TI_COMPILER_VERSION__)
 229:../Common/IQMath/ti/./support/RTS_support.h ****     #pragma FUNC_ALWAYS_INLINE(__mpyf_l)
 230:../Common/IQMath/ti/./support/RTS_support.h **** #elif defined(__IAR_SYSTEMS_ICC__)
 231:../Common/IQMath/ti/./support/RTS_support.h ****     #pragma inline=forced
 232:../Common/IQMath/ti/./support/RTS_support.h **** #endif
ARM GAS  C:\Users\57308\AppData\Local\Temp\cc4OkGld.s 			page 11


 233:../Common/IQMath/ti/./support/RTS_support.h **** static inline int_fast32_t __mpyf_l(int_fast32_t arg1, int_fast32_t arg2)
 107              		.loc 2 233 28 is_stmt 1 view .LVU34
 108              	.LBB27:
 234:../Common/IQMath/ti/./support/RTS_support.h **** {
 235:../Common/IQMath/ti/./support/RTS_support.h ****     return (int_fast32_t)(((int_fast64_t)arg1 * (int_fast64_t)arg2) >> 31);
 109              		.loc 2 235 5 view .LVU35
 110              		.loc 2 235 28 is_stmt 0 view .LVU36
 111 002a 4FEAE07C 		asr	ip, r0, #31
 112              		.loc 2 235 49 view .LVU37
 113 002e D917     		asrs	r1, r3, #31
 114              		.loc 2 235 47 view .LVU38
 115 0030 00FB01F1 		mul	r1, r0, r1
 116 0034 03FB0C11 		mla	r1, r3, ip, r1
 117 0038 A0FB033E 		umull	r3, lr, r0, r3
 118              	.LVL10:
 119              		.loc 2 235 47 view .LVU39
 120 003c 7144     		add	r1, r1, lr
 121              		.loc 2 235 69 view .LVU40
 122 003e DB0F     		lsrs	r3, r3, #31
 123 0040 43EA4103 		orr	r3, r3, r1, lsl #1
 124              	.LVL11:
 125              		.loc 2 235 69 view .LVU41
 126              	.LBE27:
 127              	.LBE26:
 148:../Common/IQMath/ti/_IQNasin_acos.c ****     
 128              		.loc 1 148 5 is_stmt 1 view .LVU42
 148:../Common/IQMath/ti/_IQNasin_acos.c ****     
 129              		.loc 1 148 31 is_stmt 0 view .LVU43
 130 0044 5168     		ldr	r1, [r2, #4]
 148:../Common/IQMath/ti/_IQNasin_acos.c ****     
 131              		.loc 1 148 16 view .LVU44
 132 0046 0B44     		add	r3, r3, r1
 133              	.LVL12:
 151:../Common/IQMath/ti/_IQNasin_acos.c ****     
 134              		.loc 1 151 5 is_stmt 1 view .LVU45
 135              	.LBB28:
 136              	.LBI28:
 233:../Common/IQMath/ti/./support/RTS_support.h **** {
 137              		.loc 2 233 28 view .LVU46
 138              	.LBB29:
 139              		.loc 2 235 5 view .LVU47
 140              		.loc 2 235 49 is_stmt 0 view .LVU48
 141 0048 D917     		asrs	r1, r3, #31
 142              		.loc 2 235 47 view .LVU49
 143 004a 00FB01F1 		mul	r1, r0, r1
 144 004e 03FB0C11 		mla	r1, r3, ip, r1
 145 0052 A0FB033E 		umull	r3, lr, r0, r3
 146              	.LVL13:
 147              		.loc 2 235 47 view .LVU50
 148 0056 7144     		add	r1, r1, lr
 149              		.loc 2 235 69 view .LVU51
 150 0058 DB0F     		lsrs	r3, r3, #31
 151 005a 43EA4103 		orr	r3, r3, r1, lsl #1
 152              	.LVL14:
 153              		.loc 2 235 69 view .LVU52
 154              	.LBE29:
 155              	.LBE28:
ARM GAS  C:\Users\57308\AppData\Local\Temp\cc4OkGld.s 			page 12


 154:../Common/IQMath/ti/_IQNasin_acos.c ****     
 156              		.loc 1 154 5 is_stmt 1 view .LVU53
 154:../Common/IQMath/ti/_IQNasin_acos.c ****     
 157              		.loc 1 154 31 is_stmt 0 view .LVU54
 158 005e 9168     		ldr	r1, [r2, #8]
 154:../Common/IQMath/ti/_IQNasin_acos.c ****     
 159              		.loc 1 154 16 view .LVU55
 160 0060 0B44     		add	r3, r3, r1
 161              	.LVL15:
 157:../Common/IQMath/ti/_IQNasin_acos.c ****     
 162              		.loc 1 157 5 is_stmt 1 view .LVU56
 163              	.LBB30:
 164              	.LBI30:
 233:../Common/IQMath/ti/./support/RTS_support.h **** {
 165              		.loc 2 233 28 view .LVU57
 166              	.LBB31:
 167              		.loc 2 235 5 view .LVU58
 168              		.loc 2 235 49 is_stmt 0 view .LVU59
 169 0062 D917     		asrs	r1, r3, #31
 170              		.loc 2 235 47 view .LVU60
 171 0064 00FB01F1 		mul	r1, r0, r1
 172 0068 03FB0C11 		mla	r1, r3, ip, r1
 173 006c A0FB033E 		umull	r3, lr, r0, r3
 174              	.LVL16:
 175              		.loc 2 235 47 view .LVU61
 176 0070 7144     		add	r1, r1, lr
 177              		.loc 2 235 69 view .LVU62
 178 0072 DB0F     		lsrs	r3, r3, #31
 179 0074 43EA4103 		orr	r3, r3, r1, lsl #1
 180              	.LVL17:
 181              		.loc 2 235 69 view .LVU63
 182              	.LBE31:
 183              	.LBE30:
 160:../Common/IQMath/ti/_IQNasin_acos.c ****     
 184              		.loc 1 160 5 is_stmt 1 view .LVU64
 160:../Common/IQMath/ti/_IQNasin_acos.c ****     
 185              		.loc 1 160 31 is_stmt 0 view .LVU65
 186 0078 D168     		ldr	r1, [r2, #12]
 160:../Common/IQMath/ti/_IQNasin_acos.c ****     
 187              		.loc 1 160 16 view .LVU66
 188 007a 0B44     		add	r3, r3, r1
 189              	.LVL18:
 163:../Common/IQMath/ti/_IQNasin_acos.c ****     
 190              		.loc 1 163 5 is_stmt 1 view .LVU67
 191              	.LBB32:
 192              	.LBI32:
 233:../Common/IQMath/ti/./support/RTS_support.h **** {
 193              		.loc 2 233 28 view .LVU68
 194              	.LBB33:
 195              		.loc 2 235 5 view .LVU69
 196              		.loc 2 235 49 is_stmt 0 view .LVU70
 197 007c D917     		asrs	r1, r3, #31
 198              		.loc 2 235 47 view .LVU71
 199 007e 00FB01F1 		mul	r1, r0, r1
 200 0082 03FB0C11 		mla	r1, r3, ip, r1
 201 0086 A0FB0303 		umull	r0, r3, r0, r3
 202              	.LVL19:
ARM GAS  C:\Users\57308\AppData\Local\Temp\cc4OkGld.s 			page 13


 203              		.loc 2 235 47 view .LVU72
 204 008a 0B44     		add	r3, r3, r1
 205              		.loc 2 235 69 view .LVU73
 206 008c C00F     		lsrs	r0, r0, #31
 207 008e 40EA4300 		orr	r0, r0, r3, lsl #1
 208              	.LVL20:
 209              		.loc 2 235 69 view .LVU74
 210              	.LBE33:
 211              	.LBE32:
 166:../Common/IQMath/ti/_IQNasin_acos.c ****     
 212              		.loc 1 166 5 is_stmt 1 view .LVU75
 166:../Common/IQMath/ti/_IQNasin_acos.c ****     
 213              		.loc 1 166 31 is_stmt 0 view .LVU76
 214 0092 1369     		ldr	r3, [r2, #16]
 166:../Common/IQMath/ti/_IQNasin_acos.c ****     
 215              		.loc 1 166 16 view .LVU77
 216 0094 1844     		add	r0, r0, r3
 217              	.LVL21:
 172:../Common/IQMath/ti/_IQNasin_acos.c ****     
 218              		.loc 1 172 5 is_stmt 1 view .LVU78
 172:../Common/IQMath/ti/_IQNasin_acos.c ****     
 219              		.loc 1 172 5 is_stmt 0 view .LVU79
 220              	.LBE34:
 221              	.LBE36:
  72:../Common/IQMath/ti/./support/RTS_support.h **** }
 222              		.loc 2 72 5 is_stmt 1 view .LVU80
 223              	.LBB37:
 224              	.LBB35:
 175:../Common/IQMath/ti/_IQNasin_acos.c ****         /* asin(x) = pi/2 - 2*iq29Result */
 225              		.loc 1 175 5 view .LVU81
 175:../Common/IQMath/ti/_IQNasin_acos.c ****         /* asin(x) = pi/2 - 2*iq29Result */
 226              		.loc 1 175 8 is_stmt 0 view .LVU82
 227 0096 14F0020F 		tst	r4, #2
 228 009a 02D0     		beq	.L5
 177:../Common/IQMath/ti/_IQNasin_acos.c ****         iq29Result -= iq29_halfPi;      // this is equivalent to the above
 229              		.loc 1 177 9 is_stmt 1 view .LVU83
 230              	.LVL22:
 178:../Common/IQMath/ti/_IQNasin_acos.c ****         iq29Result = -iq29Result;       // but avoids using temporary registers
 231              		.loc 1 178 9 view .LVU84
 179:../Common/IQMath/ti/_IQNasin_acos.c ****     }
 232              		.loc 1 179 9 view .LVU85
 179:../Common/IQMath/ti/_IQNasin_acos.c ****     }
 233              		.loc 1 179 20 is_stmt 0 view .LVU86
 234 009c 0A4B     		ldr	r3, .L11+4
 235 009e A3EB4000 		sub	r0, r3, r0, lsl #1
 236              	.LVL23:
 237              	.L5:
 183:../Common/IQMath/ti/_IQNasin_acos.c ****     
 238              		.loc 1 183 5 is_stmt 1 view .LVU87
 186:../Common/IQMath/ti/_IQNasin_acos.c ****         iq29Result = -iq29Result;
 239              		.loc 1 186 5 view .LVU88
 186:../Common/IQMath/ti/_IQNasin_acos.c ****         iq29Result = -iq29Result;
 240              		.loc 1 186 8 is_stmt 0 view .LVU89
 241 00a2 14F0010F 		tst	r4, #1
 242 00a6 0BD0     		beq	.L1
 187:../Common/IQMath/ti/_IQNasin_acos.c ****     }
 243              		.loc 1 187 9 is_stmt 1 view .LVU90
ARM GAS  C:\Users\57308\AppData\Local\Temp\cc4OkGld.s 			page 14


 187:../Common/IQMath/ti/_IQNasin_acos.c ****     }
 244              		.loc 1 187 20 is_stmt 0 view .LVU91
 245 00a8 4042     		rsbs	r0, r0, #0
 246              	.LVL24:
 187:../Common/IQMath/ti/_IQNasin_acos.c ****     }
 247              		.loc 1 187 20 view .LVU92
 248 00aa 09E0     		b	.L1
 249              	.LVL25:
 250              	.L9:
  90:../Common/IQMath/ti/_IQNasin_acos.c ****         iqNInput = -iqNInput;
 251              		.loc 1 90 9 is_stmt 1 view .LVU93
  91:../Common/IQMath/ti/_IQNasin_acos.c ****     }
 252              		.loc 1 91 9 view .LVU94
  91:../Common/IQMath/ti/_IQNasin_acos.c ****     }
 253              		.loc 1 91 18 is_stmt 0 view .LVU95
 254 00ac 4042     		rsbs	r0, r0, #0
 255              	.LVL26:
  90:../Common/IQMath/ti/_IQNasin_acos.c ****         iqNInput = -iqNInput;
 256              		.loc 1 90 19 view .LVU96
 257 00ae 0124     		movs	r4, #1
 258 00b0 AAE7     		b	.L2
 259              	.LVL27:
 260              	.L10:
 115:../Common/IQMath/ti/_IQNasin_acos.c ****         
 261              		.loc 1 115 9 is_stmt 1 view .LVU97
 118:../Common/IQMath/ti/_IQNasin_acos.c ****         
 262              		.loc 1 118 9 view .LVU98
 118:../Common/IQMath/ti/_IQNasin_acos.c ****         
 263              		.loc 1 118 22 is_stmt 0 view .LVU99
 264 00b2 5808     		lsrs	r0, r3, #1
 265              	.LVL28:
 118:../Common/IQMath/ti/_IQNasin_acos.c ****         
 266              		.loc 1 118 22 view .LVU100
 267 00b4 FFF7FEFF 		bl	_IQ31sqrt
 268              	.LVL29:
 121:../Common/IQMath/ti/_IQNasin_acos.c ****     }
 269              		.loc 1 121 9 is_stmt 1 view .LVU101
 121:../Common/IQMath/ti/_IQNasin_acos.c ****     }
 270              		.loc 1 121 19 is_stmt 0 view .LVU102
 271 00b8 44F00204 		orr	r4, r4, #2
 272              	.LVL30:
 121:../Common/IQMath/ti/_IQNasin_acos.c ****     }
 273              		.loc 1 121 19 view .LVU103
 274 00bc ADE7     		b	.L4
 275              	.LVL31:
 276              	.L7:
 100:../Common/IQMath/ti/_IQNasin_acos.c ****     }
 277              		.loc 1 100 16 view .LVU104
 278 00be 0020     		movs	r0, #0
 279              	.LVL32:
 280              	.L1:
 100:../Common/IQMath/ti/_IQNasin_acos.c ****     }
 281              		.loc 1 100 16 view .LVU105
 282              	.LBE35:
 283              	.LBE37:
 204:../Common/IQMath/ti/_IQNasin_acos.c **** }
 284              		.loc 1 204 1 view .LVU106
ARM GAS  C:\Users\57308\AppData\Local\Temp\cc4OkGld.s 			page 15


 285 00c0 10BD     		pop	{r4, pc}
 286              	.L12:
 287 00c2 00BF     		.align	2
 288              	.L11:
 289 00c4 00000000 		.word	_IQ29Asin_coeffs
 290 00c8 A8F64332 		.word	843314856
 291              		.cfi_endproc
 292              	.LFE262:
 294              		.section	.text._IQ28asin,"ax",%progbits
 295              		.align	1
 296              		.global	_IQ28asin
 297              		.syntax unified
 298              		.thumb
 299              		.thumb_func
 301              	_IQ28asin:
 302              	.LVL33:
 303              	.LFB263:
 205:../Common/IQMath/ti/_IQNasin_acos.c **** /**
 206:../Common/IQMath/ti/_IQNasin_acos.c ****  * @brief Computes the inverse sine of the IQ28 input.
 207:../Common/IQMath/ti/_IQNasin_acos.c ****  *
 208:../Common/IQMath/ti/_IQNasin_acos.c ****  * @param a               IQ28 type input.
 209:../Common/IQMath/ti/_IQNasin_acos.c ****  *
 210:../Common/IQMath/ti/_IQNasin_acos.c ****  * @return                IQ28 type result of inverse sine.
 211:../Common/IQMath/ti/_IQNasin_acos.c ****  */
 212:../Common/IQMath/ti/_IQNasin_acos.c **** int32_t _IQ28asin(int32_t a)
 213:../Common/IQMath/ti/_IQNasin_acos.c **** {
 304              		.loc 1 213 1 is_stmt 1 view -0
 305              		.cfi_startproc
 306              		@ args = 0, pretend = 0, frame = 0
 307              		@ frame_needed = 0, uses_anonymous_args = 0
 308              		.loc 1 213 1 is_stmt 0 view .LVU108
 309 0000 10B5     		push	{r4, lr}
 310              	.LCFI1:
 311              		.cfi_def_cfa_offset 8
 312              		.cfi_offset 4, -8
 313              		.cfi_offset 14, -4
 214:../Common/IQMath/ti/_IQNasin_acos.c ****     return __IQNasin(a, 28);
 314              		.loc 1 214 5 is_stmt 1 view .LVU109
 315              	.LVL34:
 316              	.LBB48:
 317              	.LBI48:
  70:../Common/IQMath/ti/_IQNasin_acos.c **** {
 318              		.loc 1 70 30 view .LVU110
 319              	.LBB49:
  72:../Common/IQMath/ti/_IQNasin_acos.c ****     uint_fast16_t index;
 320              		.loc 1 72 5 view .LVU111
  73:../Common/IQMath/ti/_IQNasin_acos.c ****     uint_fast16_t ui16IntState;
 321              		.loc 1 73 5 view .LVU112
  74:../Common/IQMath/ti/_IQNasin_acos.c ****     uint_fast16_t ui16MPYState;
 322              		.loc 1 74 5 view .LVU113
  75:../Common/IQMath/ti/_IQNasin_acos.c ****     int_fast32_t iq29Result;
 323              		.loc 1 75 5 view .LVU114
  76:../Common/IQMath/ti/_IQNasin_acos.c ****     const int_fast32_t *piq29Coeffs;
 324              		.loc 1 76 5 view .LVU115
  77:../Common/IQMath/ti/_IQNasin_acos.c ****     uint_fast32_t uiq31Input;
 325              		.loc 1 77 5 view .LVU116
  78:../Common/IQMath/ti/_IQNasin_acos.c ****     uint_fast32_t uiq31InputTemp;
ARM GAS  C:\Users\57308\AppData\Local\Temp\cc4OkGld.s 			page 16


 326              		.loc 1 78 5 view .LVU117
  79:../Common/IQMath/ti/_IQNasin_acos.c ****     
 327              		.loc 1 79 5 view .LVU118
  89:../Common/IQMath/ti/_IQNasin_acos.c ****         ui8Status |= 1;
 328              		.loc 1 89 5 view .LVU119
  89:../Common/IQMath/ti/_IQNasin_acos.c ****         ui8Status |= 1;
 329              		.loc 1 89 8 is_stmt 0 view .LVU120
 330 0002 0028     		cmp	r0, #0
  89:../Common/IQMath/ti/_IQNasin_acos.c ****         ui8Status |= 1;
 331              		.loc 1 89 8 view .LVU121
 332 0004 53DB     		blt	.L21
  72:../Common/IQMath/ti/_IQNasin_acos.c ****     uint_fast16_t index;
 333              		.loc 1 72 13 view .LVU122
 334 0006 0024     		movs	r4, #0
 335              	.LVL35:
 336              	.L14:
  99:../Common/IQMath/ti/_IQNasin_acos.c ****         return 0;
 337              		.loc 1 99 5 is_stmt 1 view .LVU123
  99:../Common/IQMath/ti/_IQNasin_acos.c ****         return 0;
 338              		.loc 1 99 8 is_stmt 0 view .LVU124
 339 0008 B0F1805F 		cmp	r0, #268435456
 340 000c 58D8     		bhi	.L19
 104:../Common/IQMath/ti/_IQNasin_acos.c ****     
 341              		.loc 1 104 5 is_stmt 1 view .LVU125
 104:../Common/IQMath/ti/_IQNasin_acos.c ****     
 342              		.loc 1 104 16 is_stmt 0 view .LVU126
 343 000e C000     		lsls	r0, r0, #3
 344              	.LVL36:
 112:../Common/IQMath/ti/_IQNasin_acos.c ****     if (uiq31InputTemp < 0x40000000) {
 345              		.loc 1 112 5 is_stmt 1 view .LVU127
 112:../Common/IQMath/ti/_IQNasin_acos.c ****     if (uiq31InputTemp < 0x40000000) {
 346              		.loc 1 112 20 is_stmt 0 view .LVU128
 347 0010 C0F10043 		rsb	r3, r0, #-2147483648
 348              	.LVL37:
 113:../Common/IQMath/ti/_IQNasin_acos.c ****         /* Halve the result. */
 349              		.loc 1 113 5 is_stmt 1 view .LVU129
 113:../Common/IQMath/ti/_IQNasin_acos.c ****         /* Halve the result. */
 350              		.loc 1 113 8 is_stmt 0 view .LVU130
 351 0014 B3F1804F 		cmp	r3, #1073741824
 352 0018 4CD3     		bcc	.L22
 353              	.LVL38:
 354              	.L16:
 125:../Common/IQMath/ti/_IQNasin_acos.c ****     
 355              		.loc 1 125 5 is_stmt 1 view .LVU131
 125:../Common/IQMath/ti/_IQNasin_acos.c ****     
 356              		.loc 1 125 11 is_stmt 0 view .LVU132
 357 001a 830E     		lsrs	r3, r0, #26
 358              	.LVL39:
 128:../Common/IQMath/ti/_IQNasin_acos.c ****     
 359              		.loc 1 128 5 is_stmt 1 view .LVU133
 128:../Common/IQMath/ti/_IQNasin_acos.c ****     
 360              		.loc 1 128 17 is_stmt 0 view .LVU134
 361 001c 03EB8303 		add	r3, r3, r3, lsl #2
 362              	.LVL40:
 128:../Common/IQMath/ti/_IQNasin_acos.c ****     
 363              		.loc 1 128 17 view .LVU135
 364 0020 2849     		ldr	r1, .L23
ARM GAS  C:\Users\57308\AppData\Local\Temp\cc4OkGld.s 			page 17


 365 0022 01EB8302 		add	r2, r1, r3, lsl #2
 366              	.LVL41:
 136:../Common/IQMath/ti/_IQNasin_acos.c ****     
 367              		.loc 1 136 5 is_stmt 1 view .LVU136
 136:../Common/IQMath/ti/_IQNasin_acos.c ****     
 368              		.loc 1 136 5 is_stmt 0 view .LVU137
 369              	.LBE49:
 370              	.LBE48:
  28:../Common/IQMath/ti/./support/RTS_support.h **** }
 371              		.loc 2 28 5 is_stmt 1 view .LVU138
 372              	.LBB60:
 373              	.LBB58:
 145:../Common/IQMath/ti/_IQNasin_acos.c ****     
 374              		.loc 1 145 5 view .LVU139
 145:../Common/IQMath/ti/_IQNasin_acos.c ****     
 375              		.loc 1 145 18 is_stmt 0 view .LVU140
 376 0026 51F82330 		ldr	r3, [r1, r3, lsl #2]
 377              	.LVL42:
 378              	.LBB50:
 379              	.LBI50:
 233:../Common/IQMath/ti/./support/RTS_support.h **** {
 380              		.loc 2 233 28 is_stmt 1 view .LVU141
 381              	.LBB51:
 382              		.loc 2 235 5 view .LVU142
 383              		.loc 2 235 28 is_stmt 0 view .LVU143
 384 002a 4FEAE07C 		asr	ip, r0, #31
 385              		.loc 2 235 49 view .LVU144
 386 002e D917     		asrs	r1, r3, #31
 387              		.loc 2 235 47 view .LVU145
 388 0030 00FB01F1 		mul	r1, r0, r1
 389 0034 03FB0C11 		mla	r1, r3, ip, r1
 390 0038 A0FB033E 		umull	r3, lr, r0, r3
 391              	.LVL43:
 392              		.loc 2 235 47 view .LVU146
 393 003c 7144     		add	r1, r1, lr
 394              		.loc 2 235 69 view .LVU147
 395 003e DB0F     		lsrs	r3, r3, #31
 396 0040 43EA4103 		orr	r3, r3, r1, lsl #1
 397              	.LVL44:
 398              		.loc 2 235 69 view .LVU148
 399              	.LBE51:
 400              	.LBE50:
 148:../Common/IQMath/ti/_IQNasin_acos.c ****     
 401              		.loc 1 148 5 is_stmt 1 view .LVU149
 148:../Common/IQMath/ti/_IQNasin_acos.c ****     
 402              		.loc 1 148 31 is_stmt 0 view .LVU150
 403 0044 5168     		ldr	r1, [r2, #4]
 148:../Common/IQMath/ti/_IQNasin_acos.c ****     
 404              		.loc 1 148 16 view .LVU151
 405 0046 0B44     		add	r3, r3, r1
 406              	.LVL45:
 151:../Common/IQMath/ti/_IQNasin_acos.c ****     
 407              		.loc 1 151 5 is_stmt 1 view .LVU152
 408              	.LBB52:
 409              	.LBI52:
 233:../Common/IQMath/ti/./support/RTS_support.h **** {
 410              		.loc 2 233 28 view .LVU153
ARM GAS  C:\Users\57308\AppData\Local\Temp\cc4OkGld.s 			page 18


 411              	.LBB53:
 412              		.loc 2 235 5 view .LVU154
 413              		.loc 2 235 49 is_stmt 0 view .LVU155
 414 0048 D917     		asrs	r1, r3, #31
 415              		.loc 2 235 47 view .LVU156
 416 004a 00FB01F1 		mul	r1, r0, r1
 417 004e 03FB0C11 		mla	r1, r3, ip, r1
 418 0052 A0FB033E 		umull	r3, lr, r0, r3
 419              	.LVL46:
 420              		.loc 2 235 47 view .LVU157
 421 0056 7144     		add	r1, r1, lr
 422              		.loc 2 235 69 view .LVU158
 423 0058 DB0F     		lsrs	r3, r3, #31
 424 005a 43EA4103 		orr	r3, r3, r1, lsl #1
 425              	.LVL47:
 426              		.loc 2 235 69 view .LVU159
 427              	.LBE53:
 428              	.LBE52:
 154:../Common/IQMath/ti/_IQNasin_acos.c ****     
 429              		.loc 1 154 5 is_stmt 1 view .LVU160
 154:../Common/IQMath/ti/_IQNasin_acos.c ****     
 430              		.loc 1 154 31 is_stmt 0 view .LVU161
 431 005e 9168     		ldr	r1, [r2, #8]
 154:../Common/IQMath/ti/_IQNasin_acos.c ****     
 432              		.loc 1 154 16 view .LVU162
 433 0060 0B44     		add	r3, r3, r1
 434              	.LVL48:
 157:../Common/IQMath/ti/_IQNasin_acos.c ****     
 435              		.loc 1 157 5 is_stmt 1 view .LVU163
 436              	.LBB54:
 437              	.LBI54:
 233:../Common/IQMath/ti/./support/RTS_support.h **** {
 438              		.loc 2 233 28 view .LVU164
 439              	.LBB55:
 440              		.loc 2 235 5 view .LVU165
 441              		.loc 2 235 49 is_stmt 0 view .LVU166
 442 0062 D917     		asrs	r1, r3, #31
 443              		.loc 2 235 47 view .LVU167
 444 0064 00FB01F1 		mul	r1, r0, r1
 445 0068 03FB0C11 		mla	r1, r3, ip, r1
 446 006c A0FB033E 		umull	r3, lr, r0, r3
 447              	.LVL49:
 448              		.loc 2 235 47 view .LVU168
 449 0070 7144     		add	r1, r1, lr
 450              		.loc 2 235 69 view .LVU169
 451 0072 DB0F     		lsrs	r3, r3, #31
 452 0074 43EA4103 		orr	r3, r3, r1, lsl #1
 453              	.LVL50:
 454              		.loc 2 235 69 view .LVU170
 455              	.LBE55:
 456              	.LBE54:
 160:../Common/IQMath/ti/_IQNasin_acos.c ****     
 457              		.loc 1 160 5 is_stmt 1 view .LVU171
 160:../Common/IQMath/ti/_IQNasin_acos.c ****     
 458              		.loc 1 160 31 is_stmt 0 view .LVU172
 459 0078 D168     		ldr	r1, [r2, #12]
 160:../Common/IQMath/ti/_IQNasin_acos.c ****     
ARM GAS  C:\Users\57308\AppData\Local\Temp\cc4OkGld.s 			page 19


 460              		.loc 1 160 16 view .LVU173
 461 007a 0B44     		add	r3, r3, r1
 462              	.LVL51:
 163:../Common/IQMath/ti/_IQNasin_acos.c ****     
 463              		.loc 1 163 5 is_stmt 1 view .LVU174
 464              	.LBB56:
 465              	.LBI56:
 233:../Common/IQMath/ti/./support/RTS_support.h **** {
 466              		.loc 2 233 28 view .LVU175
 467              	.LBB57:
 468              		.loc 2 235 5 view .LVU176
 469              		.loc 2 235 49 is_stmt 0 view .LVU177
 470 007c D917     		asrs	r1, r3, #31
 471              		.loc 2 235 47 view .LVU178
 472 007e 00FB01F1 		mul	r1, r0, r1
 473 0082 03FB0C11 		mla	r1, r3, ip, r1
 474 0086 A0FB0303 		umull	r0, r3, r0, r3
 475              	.LVL52:
 476              		.loc 2 235 47 view .LVU179
 477 008a 0B44     		add	r3, r3, r1
 478              		.loc 2 235 69 view .LVU180
 479 008c C00F     		lsrs	r0, r0, #31
 480 008e 40EA4300 		orr	r0, r0, r3, lsl #1
 481              	.LVL53:
 482              		.loc 2 235 69 view .LVU181
 483              	.LBE57:
 484              	.LBE56:
 166:../Common/IQMath/ti/_IQNasin_acos.c ****     
 485              		.loc 1 166 5 is_stmt 1 view .LVU182
 166:../Common/IQMath/ti/_IQNasin_acos.c ****     
 486              		.loc 1 166 31 is_stmt 0 view .LVU183
 487 0092 1369     		ldr	r3, [r2, #16]
 166:../Common/IQMath/ti/_IQNasin_acos.c ****     
 488              		.loc 1 166 16 view .LVU184
 489 0094 1844     		add	r0, r0, r3
 490              	.LVL54:
 172:../Common/IQMath/ti/_IQNasin_acos.c ****     
 491              		.loc 1 172 5 is_stmt 1 view .LVU185
 172:../Common/IQMath/ti/_IQNasin_acos.c ****     
 492              		.loc 1 172 5 is_stmt 0 view .LVU186
 493              	.LBE58:
 494              	.LBE60:
  72:../Common/IQMath/ti/./support/RTS_support.h **** }
 495              		.loc 2 72 5 is_stmt 1 view .LVU187
 496              	.LBB61:
 497              	.LBB59:
 175:../Common/IQMath/ti/_IQNasin_acos.c ****         /* asin(x) = pi/2 - 2*iq29Result */
 498              		.loc 1 175 5 view .LVU188
 175:../Common/IQMath/ti/_IQNasin_acos.c ****         /* asin(x) = pi/2 - 2*iq29Result */
 499              		.loc 1 175 8 is_stmt 0 view .LVU189
 500 0096 14F0020F 		tst	r4, #2
 501 009a 02D0     		beq	.L17
 177:../Common/IQMath/ti/_IQNasin_acos.c ****         iq29Result -= iq29_halfPi;      // this is equivalent to the above
 502              		.loc 1 177 9 is_stmt 1 view .LVU190
 503              	.LVL55:
 178:../Common/IQMath/ti/_IQNasin_acos.c ****         iq29Result = -iq29Result;       // but avoids using temporary registers
 504              		.loc 1 178 9 view .LVU191
ARM GAS  C:\Users\57308\AppData\Local\Temp\cc4OkGld.s 			page 20


 179:../Common/IQMath/ti/_IQNasin_acos.c ****     }
 505              		.loc 1 179 9 view .LVU192
 179:../Common/IQMath/ti/_IQNasin_acos.c ****     }
 506              		.loc 1 179 20 is_stmt 0 view .LVU193
 507 009c 0A4B     		ldr	r3, .L23+4
 508 009e A3EB4000 		sub	r0, r3, r0, lsl #1
 509              	.LVL56:
 510              	.L17:
 183:../Common/IQMath/ti/_IQNasin_acos.c ****     
 511              		.loc 1 183 5 is_stmt 1 view .LVU194
 183:../Common/IQMath/ti/_IQNasin_acos.c ****     
 512              		.loc 1 183 16 is_stmt 0 view .LVU195
 513 00a2 4010     		asrs	r0, r0, #1
 514              	.LVL57:
 186:../Common/IQMath/ti/_IQNasin_acos.c ****         iq29Result = -iq29Result;
 515              		.loc 1 186 5 is_stmt 1 view .LVU196
 186:../Common/IQMath/ti/_IQNasin_acos.c ****         iq29Result = -iq29Result;
 516              		.loc 1 186 8 is_stmt 0 view .LVU197
 517 00a4 14F0010F 		tst	r4, #1
 518 00a8 0BD0     		beq	.L13
 187:../Common/IQMath/ti/_IQNasin_acos.c ****     }
 519              		.loc 1 187 9 is_stmt 1 view .LVU198
 187:../Common/IQMath/ti/_IQNasin_acos.c ****     }
 520              		.loc 1 187 20 is_stmt 0 view .LVU199
 521 00aa 4042     		rsbs	r0, r0, #0
 522              	.LVL58:
 187:../Common/IQMath/ti/_IQNasin_acos.c ****     }
 523              		.loc 1 187 20 view .LVU200
 524 00ac 09E0     		b	.L13
 525              	.LVL59:
 526              	.L21:
  90:../Common/IQMath/ti/_IQNasin_acos.c ****         iqNInput = -iqNInput;
 527              		.loc 1 90 9 is_stmt 1 view .LVU201
  91:../Common/IQMath/ti/_IQNasin_acos.c ****     }
 528              		.loc 1 91 9 view .LVU202
  91:../Common/IQMath/ti/_IQNasin_acos.c ****     }
 529              		.loc 1 91 18 is_stmt 0 view .LVU203
 530 00ae 4042     		rsbs	r0, r0, #0
 531              	.LVL60:
  90:../Common/IQMath/ti/_IQNasin_acos.c ****         iqNInput = -iqNInput;
 532              		.loc 1 90 19 view .LVU204
 533 00b0 0124     		movs	r4, #1
 534 00b2 A9E7     		b	.L14
 535              	.LVL61:
 536              	.L22:
 115:../Common/IQMath/ti/_IQNasin_acos.c ****         
 537              		.loc 1 115 9 is_stmt 1 view .LVU205
 118:../Common/IQMath/ti/_IQNasin_acos.c ****         
 538              		.loc 1 118 9 view .LVU206
 118:../Common/IQMath/ti/_IQNasin_acos.c ****         
 539              		.loc 1 118 22 is_stmt 0 view .LVU207
 540 00b4 5808     		lsrs	r0, r3, #1
 541              	.LVL62:
 118:../Common/IQMath/ti/_IQNasin_acos.c ****         
 542              		.loc 1 118 22 view .LVU208
 543 00b6 FFF7FEFF 		bl	_IQ31sqrt
 544              	.LVL63:
ARM GAS  C:\Users\57308\AppData\Local\Temp\cc4OkGld.s 			page 21


 121:../Common/IQMath/ti/_IQNasin_acos.c ****     }
 545              		.loc 1 121 9 is_stmt 1 view .LVU209
 121:../Common/IQMath/ti/_IQNasin_acos.c ****     }
 546              		.loc 1 121 19 is_stmt 0 view .LVU210
 547 00ba 44F00204 		orr	r4, r4, #2
 548              	.LVL64:
 121:../Common/IQMath/ti/_IQNasin_acos.c ****     }
 549              		.loc 1 121 19 view .LVU211
 550 00be ACE7     		b	.L16
 551              	.LVL65:
 552              	.L19:
 100:../Common/IQMath/ti/_IQNasin_acos.c ****     }
 553              		.loc 1 100 16 view .LVU212
 554 00c0 0020     		movs	r0, #0
 555              	.LVL66:
 556              	.L13:
 100:../Common/IQMath/ti/_IQNasin_acos.c ****     }
 557              		.loc 1 100 16 view .LVU213
 558              	.LBE59:
 559              	.LBE61:
 215:../Common/IQMath/ti/_IQNasin_acos.c **** }
 560              		.loc 1 215 1 view .LVU214
 561 00c2 10BD     		pop	{r4, pc}
 562              	.L24:
 563              		.align	2
 564              	.L23:
 565 00c4 00000000 		.word	_IQ29Asin_coeffs
 566 00c8 A8F64332 		.word	843314856
 567              		.cfi_endproc
 568              	.LFE263:
 570              		.section	.text._IQ27asin,"ax",%progbits
 571              		.align	1
 572              		.global	_IQ27asin
 573              		.syntax unified
 574              		.thumb
 575              		.thumb_func
 577              	_IQ27asin:
 578              	.LVL67:
 579              	.LFB264:
 216:../Common/IQMath/ti/_IQNasin_acos.c **** /**
 217:../Common/IQMath/ti/_IQNasin_acos.c ****  * @brief Computes the inverse sine of the IQ27 input.
 218:../Common/IQMath/ti/_IQNasin_acos.c ****  *
 219:../Common/IQMath/ti/_IQNasin_acos.c ****  * @param a               IQ27 type input.
 220:../Common/IQMath/ti/_IQNasin_acos.c ****  *
 221:../Common/IQMath/ti/_IQNasin_acos.c ****  * @return                IQ27 type result of inverse sine.
 222:../Common/IQMath/ti/_IQNasin_acos.c ****  */
 223:../Common/IQMath/ti/_IQNasin_acos.c **** int32_t _IQ27asin(int32_t a)
 224:../Common/IQMath/ti/_IQNasin_acos.c **** {
 580              		.loc 1 224 1 is_stmt 1 view -0
 581              		.cfi_startproc
 582              		@ args = 0, pretend = 0, frame = 0
 583              		@ frame_needed = 0, uses_anonymous_args = 0
 584              		.loc 1 224 1 is_stmt 0 view .LVU216
 585 0000 10B5     		push	{r4, lr}
 586              	.LCFI2:
 587              		.cfi_def_cfa_offset 8
 588              		.cfi_offset 4, -8
ARM GAS  C:\Users\57308\AppData\Local\Temp\cc4OkGld.s 			page 22


 589              		.cfi_offset 14, -4
 225:../Common/IQMath/ti/_IQNasin_acos.c ****     return __IQNasin(a, 27);
 590              		.loc 1 225 5 is_stmt 1 view .LVU217
 591              	.LVL68:
 592              	.LBB72:
 593              	.LBI72:
  70:../Common/IQMath/ti/_IQNasin_acos.c **** {
 594              		.loc 1 70 30 view .LVU218
 595              	.LBB73:
  72:../Common/IQMath/ti/_IQNasin_acos.c ****     uint_fast16_t index;
 596              		.loc 1 72 5 view .LVU219
  73:../Common/IQMath/ti/_IQNasin_acos.c ****     uint_fast16_t ui16IntState;
 597              		.loc 1 73 5 view .LVU220
  74:../Common/IQMath/ti/_IQNasin_acos.c ****     uint_fast16_t ui16MPYState;
 598              		.loc 1 74 5 view .LVU221
  75:../Common/IQMath/ti/_IQNasin_acos.c ****     int_fast32_t iq29Result;
 599              		.loc 1 75 5 view .LVU222
  76:../Common/IQMath/ti/_IQNasin_acos.c ****     const int_fast32_t *piq29Coeffs;
 600              		.loc 1 76 5 view .LVU223
  77:../Common/IQMath/ti/_IQNasin_acos.c ****     uint_fast32_t uiq31Input;
 601              		.loc 1 77 5 view .LVU224
  78:../Common/IQMath/ti/_IQNasin_acos.c ****     uint_fast32_t uiq31InputTemp;
 602              		.loc 1 78 5 view .LVU225
  79:../Common/IQMath/ti/_IQNasin_acos.c ****     
 603              		.loc 1 79 5 view .LVU226
  89:../Common/IQMath/ti/_IQNasin_acos.c ****         ui8Status |= 1;
 604              		.loc 1 89 5 view .LVU227
  89:../Common/IQMath/ti/_IQNasin_acos.c ****         ui8Status |= 1;
 605              		.loc 1 89 8 is_stmt 0 view .LVU228
 606 0002 0028     		cmp	r0, #0
  89:../Common/IQMath/ti/_IQNasin_acos.c ****         ui8Status |= 1;
 607              		.loc 1 89 8 view .LVU229
 608 0004 53DB     		blt	.L33
  72:../Common/IQMath/ti/_IQNasin_acos.c ****     uint_fast16_t index;
 609              		.loc 1 72 13 view .LVU230
 610 0006 0024     		movs	r4, #0
 611              	.LVL69:
 612              	.L26:
  99:../Common/IQMath/ti/_IQNasin_acos.c ****         return 0;
 613              		.loc 1 99 5 is_stmt 1 view .LVU231
  99:../Common/IQMath/ti/_IQNasin_acos.c ****         return 0;
 614              		.loc 1 99 8 is_stmt 0 view .LVU232
 615 0008 B0F1006F 		cmp	r0, #134217728
 616 000c 58D8     		bhi	.L31
 104:../Common/IQMath/ti/_IQNasin_acos.c ****     
 617              		.loc 1 104 5 is_stmt 1 view .LVU233
 104:../Common/IQMath/ti/_IQNasin_acos.c ****     
 618              		.loc 1 104 16 is_stmt 0 view .LVU234
 619 000e 0001     		lsls	r0, r0, #4
 620              	.LVL70:
 112:../Common/IQMath/ti/_IQNasin_acos.c ****     if (uiq31InputTemp < 0x40000000) {
 621              		.loc 1 112 5 is_stmt 1 view .LVU235
 112:../Common/IQMath/ti/_IQNasin_acos.c ****     if (uiq31InputTemp < 0x40000000) {
 622              		.loc 1 112 20 is_stmt 0 view .LVU236
 623 0010 C0F10043 		rsb	r3, r0, #-2147483648
 624              	.LVL71:
 113:../Common/IQMath/ti/_IQNasin_acos.c ****         /* Halve the result. */
ARM GAS  C:\Users\57308\AppData\Local\Temp\cc4OkGld.s 			page 23


 625              		.loc 1 113 5 is_stmt 1 view .LVU237
 113:../Common/IQMath/ti/_IQNasin_acos.c ****         /* Halve the result. */
 626              		.loc 1 113 8 is_stmt 0 view .LVU238
 627 0014 B3F1804F 		cmp	r3, #1073741824
 628 0018 4CD3     		bcc	.L34
 629              	.LVL72:
 630              	.L28:
 125:../Common/IQMath/ti/_IQNasin_acos.c ****     
 631              		.loc 1 125 5 is_stmt 1 view .LVU239
 125:../Common/IQMath/ti/_IQNasin_acos.c ****     
 632              		.loc 1 125 11 is_stmt 0 view .LVU240
 633 001a 830E     		lsrs	r3, r0, #26
 634              	.LVL73:
 128:../Common/IQMath/ti/_IQNasin_acos.c ****     
 635              		.loc 1 128 5 is_stmt 1 view .LVU241
 128:../Common/IQMath/ti/_IQNasin_acos.c ****     
 636              		.loc 1 128 17 is_stmt 0 view .LVU242
 637 001c 03EB8303 		add	r3, r3, r3, lsl #2
 638              	.LVL74:
 128:../Common/IQMath/ti/_IQNasin_acos.c ****     
 639              		.loc 1 128 17 view .LVU243
 640 0020 2849     		ldr	r1, .L35
 641 0022 01EB8302 		add	r2, r1, r3, lsl #2
 642              	.LVL75:
 136:../Common/IQMath/ti/_IQNasin_acos.c ****     
 643              		.loc 1 136 5 is_stmt 1 view .LVU244
 136:../Common/IQMath/ti/_IQNasin_acos.c ****     
 644              		.loc 1 136 5 is_stmt 0 view .LVU245
 645              	.LBE73:
 646              	.LBE72:
  28:../Common/IQMath/ti/./support/RTS_support.h **** }
 647              		.loc 2 28 5 is_stmt 1 view .LVU246
 648              	.LBB84:
 649              	.LBB82:
 145:../Common/IQMath/ti/_IQNasin_acos.c ****     
 650              		.loc 1 145 5 view .LVU247
 145:../Common/IQMath/ti/_IQNasin_acos.c ****     
 651              		.loc 1 145 18 is_stmt 0 view .LVU248
 652 0026 51F82330 		ldr	r3, [r1, r3, lsl #2]
 653              	.LVL76:
 654              	.LBB74:
 655              	.LBI74:
 233:../Common/IQMath/ti/./support/RTS_support.h **** {
 656              		.loc 2 233 28 is_stmt 1 view .LVU249
 657              	.LBB75:
 658              		.loc 2 235 5 view .LVU250
 659              		.loc 2 235 28 is_stmt 0 view .LVU251
 660 002a 4FEAE07C 		asr	ip, r0, #31
 661              		.loc 2 235 49 view .LVU252
 662 002e D917     		asrs	r1, r3, #31
 663              		.loc 2 235 47 view .LVU253
 664 0030 00FB01F1 		mul	r1, r0, r1
 665 0034 03FB0C11 		mla	r1, r3, ip, r1
 666 0038 A0FB033E 		umull	r3, lr, r0, r3
 667              	.LVL77:
 668              		.loc 2 235 47 view .LVU254
 669 003c 7144     		add	r1, r1, lr
ARM GAS  C:\Users\57308\AppData\Local\Temp\cc4OkGld.s 			page 24


 670              		.loc 2 235 69 view .LVU255
 671 003e DB0F     		lsrs	r3, r3, #31
 672 0040 43EA4103 		orr	r3, r3, r1, lsl #1
 673              	.LVL78:
 674              		.loc 2 235 69 view .LVU256
 675              	.LBE75:
 676              	.LBE74:
 148:../Common/IQMath/ti/_IQNasin_acos.c ****     
 677              		.loc 1 148 5 is_stmt 1 view .LVU257
 148:../Common/IQMath/ti/_IQNasin_acos.c ****     
 678              		.loc 1 148 31 is_stmt 0 view .LVU258
 679 0044 5168     		ldr	r1, [r2, #4]
 148:../Common/IQMath/ti/_IQNasin_acos.c ****     
 680              		.loc 1 148 16 view .LVU259
 681 0046 0B44     		add	r3, r3, r1
 682              	.LVL79:
 151:../Common/IQMath/ti/_IQNasin_acos.c ****     
 683              		.loc 1 151 5 is_stmt 1 view .LVU260
 684              	.LBB76:
 685              	.LBI76:
 233:../Common/IQMath/ti/./support/RTS_support.h **** {
 686              		.loc 2 233 28 view .LVU261
 687              	.LBB77:
 688              		.loc 2 235 5 view .LVU262
 689              		.loc 2 235 49 is_stmt 0 view .LVU263
 690 0048 D917     		asrs	r1, r3, #31
 691              		.loc 2 235 47 view .LVU264
 692 004a 00FB01F1 		mul	r1, r0, r1
 693 004e 03FB0C11 		mla	r1, r3, ip, r1
 694 0052 A0FB033E 		umull	r3, lr, r0, r3
 695              	.LVL80:
 696              		.loc 2 235 47 view .LVU265
 697 0056 7144     		add	r1, r1, lr
 698              		.loc 2 235 69 view .LVU266
 699 0058 DB0F     		lsrs	r3, r3, #31
 700 005a 43EA4103 		orr	r3, r3, r1, lsl #1
 701              	.LVL81:
 702              		.loc 2 235 69 view .LVU267
 703              	.LBE77:
 704              	.LBE76:
 154:../Common/IQMath/ti/_IQNasin_acos.c ****     
 705              		.loc 1 154 5 is_stmt 1 view .LVU268
 154:../Common/IQMath/ti/_IQNasin_acos.c ****     
 706              		.loc 1 154 31 is_stmt 0 view .LVU269
 707 005e 9168     		ldr	r1, [r2, #8]
 154:../Common/IQMath/ti/_IQNasin_acos.c ****     
 708              		.loc 1 154 16 view .LVU270
 709 0060 0B44     		add	r3, r3, r1
 710              	.LVL82:
 157:../Common/IQMath/ti/_IQNasin_acos.c ****     
 711              		.loc 1 157 5 is_stmt 1 view .LVU271
 712              	.LBB78:
 713              	.LBI78:
 233:../Common/IQMath/ti/./support/RTS_support.h **** {
 714              		.loc 2 233 28 view .LVU272
 715              	.LBB79:
 716              		.loc 2 235 5 view .LVU273
ARM GAS  C:\Users\57308\AppData\Local\Temp\cc4OkGld.s 			page 25


 717              		.loc 2 235 49 is_stmt 0 view .LVU274
 718 0062 D917     		asrs	r1, r3, #31
 719              		.loc 2 235 47 view .LVU275
 720 0064 00FB01F1 		mul	r1, r0, r1
 721 0068 03FB0C11 		mla	r1, r3, ip, r1
 722 006c A0FB033E 		umull	r3, lr, r0, r3
 723              	.LVL83:
 724              		.loc 2 235 47 view .LVU276
 725 0070 7144     		add	r1, r1, lr
 726              		.loc 2 235 69 view .LVU277
 727 0072 DB0F     		lsrs	r3, r3, #31
 728 0074 43EA4103 		orr	r3, r3, r1, lsl #1
 729              	.LVL84:
 730              		.loc 2 235 69 view .LVU278
 731              	.LBE79:
 732              	.LBE78:
 160:../Common/IQMath/ti/_IQNasin_acos.c ****     
 733              		.loc 1 160 5 is_stmt 1 view .LVU279
 160:../Common/IQMath/ti/_IQNasin_acos.c ****     
 734              		.loc 1 160 31 is_stmt 0 view .LVU280
 735 0078 D168     		ldr	r1, [r2, #12]
 160:../Common/IQMath/ti/_IQNasin_acos.c ****     
 736              		.loc 1 160 16 view .LVU281
 737 007a 0B44     		add	r3, r3, r1
 738              	.LVL85:
 163:../Common/IQMath/ti/_IQNasin_acos.c ****     
 739              		.loc 1 163 5 is_stmt 1 view .LVU282
 740              	.LBB80:
 741              	.LBI80:
 233:../Common/IQMath/ti/./support/RTS_support.h **** {
 742              		.loc 2 233 28 view .LVU283
 743              	.LBB81:
 744              		.loc 2 235 5 view .LVU284
 745              		.loc 2 235 49 is_stmt 0 view .LVU285
 746 007c D917     		asrs	r1, r3, #31
 747              		.loc 2 235 47 view .LVU286
 748 007e 00FB01F1 		mul	r1, r0, r1
 749 0082 03FB0C11 		mla	r1, r3, ip, r1
 750 0086 A0FB0303 		umull	r0, r3, r0, r3
 751              	.LVL86:
 752              		.loc 2 235 47 view .LVU287
 753 008a 0B44     		add	r3, r3, r1
 754              		.loc 2 235 69 view .LVU288
 755 008c C00F     		lsrs	r0, r0, #31
 756 008e 40EA4300 		orr	r0, r0, r3, lsl #1
 757              	.LVL87:
 758              		.loc 2 235 69 view .LVU289
 759              	.LBE81:
 760              	.LBE80:
 166:../Common/IQMath/ti/_IQNasin_acos.c ****     
 761              		.loc 1 166 5 is_stmt 1 view .LVU290
 166:../Common/IQMath/ti/_IQNasin_acos.c ****     
 762              		.loc 1 166 31 is_stmt 0 view .LVU291
 763 0092 1369     		ldr	r3, [r2, #16]
 166:../Common/IQMath/ti/_IQNasin_acos.c ****     
 764              		.loc 1 166 16 view .LVU292
 765 0094 1844     		add	r0, r0, r3
ARM GAS  C:\Users\57308\AppData\Local\Temp\cc4OkGld.s 			page 26


 766              	.LVL88:
 172:../Common/IQMath/ti/_IQNasin_acos.c ****     
 767              		.loc 1 172 5 is_stmt 1 view .LVU293
 172:../Common/IQMath/ti/_IQNasin_acos.c ****     
 768              		.loc 1 172 5 is_stmt 0 view .LVU294
 769              	.LBE82:
 770              	.LBE84:
  72:../Common/IQMath/ti/./support/RTS_support.h **** }
 771              		.loc 2 72 5 is_stmt 1 view .LVU295
 772              	.LBB85:
 773              	.LBB83:
 175:../Common/IQMath/ti/_IQNasin_acos.c ****         /* asin(x) = pi/2 - 2*iq29Result */
 774              		.loc 1 175 5 view .LVU296
 175:../Common/IQMath/ti/_IQNasin_acos.c ****         /* asin(x) = pi/2 - 2*iq29Result */
 775              		.loc 1 175 8 is_stmt 0 view .LVU297
 776 0096 14F0020F 		tst	r4, #2
 777 009a 02D0     		beq	.L29
 177:../Common/IQMath/ti/_IQNasin_acos.c ****         iq29Result -= iq29_halfPi;      // this is equivalent to the above
 778              		.loc 1 177 9 is_stmt 1 view .LVU298
 779              	.LVL89:
 178:../Common/IQMath/ti/_IQNasin_acos.c ****         iq29Result = -iq29Result;       // but avoids using temporary registers
 780              		.loc 1 178 9 view .LVU299
 179:../Common/IQMath/ti/_IQNasin_acos.c ****     }
 781              		.loc 1 179 9 view .LVU300
 179:../Common/IQMath/ti/_IQNasin_acos.c ****     }
 782              		.loc 1 179 20 is_stmt 0 view .LVU301
 783 009c 0A4B     		ldr	r3, .L35+4
 784 009e A3EB4000 		sub	r0, r3, r0, lsl #1
 785              	.LVL90:
 786              	.L29:
 183:../Common/IQMath/ti/_IQNasin_acos.c ****     
 787              		.loc 1 183 5 is_stmt 1 view .LVU302
 183:../Common/IQMath/ti/_IQNasin_acos.c ****     
 788              		.loc 1 183 16 is_stmt 0 view .LVU303
 789 00a2 8010     		asrs	r0, r0, #2
 790              	.LVL91:
 186:../Common/IQMath/ti/_IQNasin_acos.c ****         iq29Result = -iq29Result;
 791              		.loc 1 186 5 is_stmt 1 view .LVU304
 186:../Common/IQMath/ti/_IQNasin_acos.c ****         iq29Result = -iq29Result;
 792              		.loc 1 186 8 is_stmt 0 view .LVU305
 793 00a4 14F0010F 		tst	r4, #1
 794 00a8 0BD0     		beq	.L25
 187:../Common/IQMath/ti/_IQNasin_acos.c ****     }
 795              		.loc 1 187 9 is_stmt 1 view .LVU306
 187:../Common/IQMath/ti/_IQNasin_acos.c ****     }
 796              		.loc 1 187 20 is_stmt 0 view .LVU307
 797 00aa 4042     		rsbs	r0, r0, #0
 798              	.LVL92:
 187:../Common/IQMath/ti/_IQNasin_acos.c ****     }
 799              		.loc 1 187 20 view .LVU308
 800 00ac 09E0     		b	.L25
 801              	.LVL93:
 802              	.L33:
  90:../Common/IQMath/ti/_IQNasin_acos.c ****         iqNInput = -iqNInput;
 803              		.loc 1 90 9 is_stmt 1 view .LVU309
  91:../Common/IQMath/ti/_IQNasin_acos.c ****     }
 804              		.loc 1 91 9 view .LVU310
ARM GAS  C:\Users\57308\AppData\Local\Temp\cc4OkGld.s 			page 27


  91:../Common/IQMath/ti/_IQNasin_acos.c ****     }
 805              		.loc 1 91 18 is_stmt 0 view .LVU311
 806 00ae 4042     		rsbs	r0, r0, #0
 807              	.LVL94:
  90:../Common/IQMath/ti/_IQNasin_acos.c ****         iqNInput = -iqNInput;
 808              		.loc 1 90 19 view .LVU312
 809 00b0 0124     		movs	r4, #1
 810 00b2 A9E7     		b	.L26
 811              	.LVL95:
 812              	.L34:
 115:../Common/IQMath/ti/_IQNasin_acos.c ****         
 813              		.loc 1 115 9 is_stmt 1 view .LVU313
 118:../Common/IQMath/ti/_IQNasin_acos.c ****         
 814              		.loc 1 118 9 view .LVU314
 118:../Common/IQMath/ti/_IQNasin_acos.c ****         
 815              		.loc 1 118 22 is_stmt 0 view .LVU315
 816 00b4 5808     		lsrs	r0, r3, #1
 817              	.LVL96:
 118:../Common/IQMath/ti/_IQNasin_acos.c ****         
 818              		.loc 1 118 22 view .LVU316
 819 00b6 FFF7FEFF 		bl	_IQ31sqrt
 820              	.LVL97:
 121:../Common/IQMath/ti/_IQNasin_acos.c ****     }
 821              		.loc 1 121 9 is_stmt 1 view .LVU317
 121:../Common/IQMath/ti/_IQNasin_acos.c ****     }
 822              		.loc 1 121 19 is_stmt 0 view .LVU318
 823 00ba 44F00204 		orr	r4, r4, #2
 824              	.LVL98:
 121:../Common/IQMath/ti/_IQNasin_acos.c ****     }
 825              		.loc 1 121 19 view .LVU319
 826 00be ACE7     		b	.L28
 827              	.LVL99:
 828              	.L31:
 100:../Common/IQMath/ti/_IQNasin_acos.c ****     }
 829              		.loc 1 100 16 view .LVU320
 830 00c0 0020     		movs	r0, #0
 831              	.LVL100:
 832              	.L25:
 100:../Common/IQMath/ti/_IQNasin_acos.c ****     }
 833              		.loc 1 100 16 view .LVU321
 834              	.LBE83:
 835              	.LBE85:
 226:../Common/IQMath/ti/_IQNasin_acos.c **** }
 836              		.loc 1 226 1 view .LVU322
 837 00c2 10BD     		pop	{r4, pc}
 838              	.L36:
 839              		.align	2
 840              	.L35:
 841 00c4 00000000 		.word	_IQ29Asin_coeffs
 842 00c8 A8F64332 		.word	843314856
 843              		.cfi_endproc
 844              	.LFE264:
 846              		.section	.text._IQ26asin,"ax",%progbits
 847              		.align	1
 848              		.global	_IQ26asin
 849              		.syntax unified
 850              		.thumb
ARM GAS  C:\Users\57308\AppData\Local\Temp\cc4OkGld.s 			page 28


 851              		.thumb_func
 853              	_IQ26asin:
 854              	.LVL101:
 855              	.LFB265:
 227:../Common/IQMath/ti/_IQNasin_acos.c **** /**
 228:../Common/IQMath/ti/_IQNasin_acos.c ****  * @brief Computes the inverse sine of the IQ26 input.
 229:../Common/IQMath/ti/_IQNasin_acos.c ****  *
 230:../Common/IQMath/ti/_IQNasin_acos.c ****  * @param a               IQ26 type input.
 231:../Common/IQMath/ti/_IQNasin_acos.c ****  *
 232:../Common/IQMath/ti/_IQNasin_acos.c ****  * @return                IQ26 type result of inverse sine.
 233:../Common/IQMath/ti/_IQNasin_acos.c ****  */
 234:../Common/IQMath/ti/_IQNasin_acos.c **** int32_t _IQ26asin(int32_t a)
 235:../Common/IQMath/ti/_IQNasin_acos.c **** {
 856              		.loc 1 235 1 is_stmt 1 view -0
 857              		.cfi_startproc
 858              		@ args = 0, pretend = 0, frame = 0
 859              		@ frame_needed = 0, uses_anonymous_args = 0
 860              		.loc 1 235 1 is_stmt 0 view .LVU324
 861 0000 10B5     		push	{r4, lr}
 862              	.LCFI3:
 863              		.cfi_def_cfa_offset 8
 864              		.cfi_offset 4, -8
 865              		.cfi_offset 14, -4
 236:../Common/IQMath/ti/_IQNasin_acos.c ****     return __IQNasin(a, 26);
 866              		.loc 1 236 5 is_stmt 1 view .LVU325
 867              	.LVL102:
 868              	.LBB96:
 869              	.LBI96:
  70:../Common/IQMath/ti/_IQNasin_acos.c **** {
 870              		.loc 1 70 30 view .LVU326
 871              	.LBB97:
  72:../Common/IQMath/ti/_IQNasin_acos.c ****     uint_fast16_t index;
 872              		.loc 1 72 5 view .LVU327
  73:../Common/IQMath/ti/_IQNasin_acos.c ****     uint_fast16_t ui16IntState;
 873              		.loc 1 73 5 view .LVU328
  74:../Common/IQMath/ti/_IQNasin_acos.c ****     uint_fast16_t ui16MPYState;
 874              		.loc 1 74 5 view .LVU329
  75:../Common/IQMath/ti/_IQNasin_acos.c ****     int_fast32_t iq29Result;
 875              		.loc 1 75 5 view .LVU330
  76:../Common/IQMath/ti/_IQNasin_acos.c ****     const int_fast32_t *piq29Coeffs;
 876              		.loc 1 76 5 view .LVU331
  77:../Common/IQMath/ti/_IQNasin_acos.c ****     uint_fast32_t uiq31Input;
 877              		.loc 1 77 5 view .LVU332
  78:../Common/IQMath/ti/_IQNasin_acos.c ****     uint_fast32_t uiq31InputTemp;
 878              		.loc 1 78 5 view .LVU333
  79:../Common/IQMath/ti/_IQNasin_acos.c ****     
 879              		.loc 1 79 5 view .LVU334
  89:../Common/IQMath/ti/_IQNasin_acos.c ****         ui8Status |= 1;
 880              		.loc 1 89 5 view .LVU335
  89:../Common/IQMath/ti/_IQNasin_acos.c ****         ui8Status |= 1;
 881              		.loc 1 89 8 is_stmt 0 view .LVU336
 882 0002 0028     		cmp	r0, #0
  89:../Common/IQMath/ti/_IQNasin_acos.c ****         ui8Status |= 1;
 883              		.loc 1 89 8 view .LVU337
 884 0004 53DB     		blt	.L45
  72:../Common/IQMath/ti/_IQNasin_acos.c ****     uint_fast16_t index;
 885              		.loc 1 72 13 view .LVU338
ARM GAS  C:\Users\57308\AppData\Local\Temp\cc4OkGld.s 			page 29


 886 0006 0024     		movs	r4, #0
 887              	.LVL103:
 888              	.L38:
  99:../Common/IQMath/ti/_IQNasin_acos.c ****         return 0;
 889              		.loc 1 99 5 is_stmt 1 view .LVU339
  99:../Common/IQMath/ti/_IQNasin_acos.c ****         return 0;
 890              		.loc 1 99 8 is_stmt 0 view .LVU340
 891 0008 B0F1806F 		cmp	r0, #67108864
 892 000c 58D8     		bhi	.L43
 104:../Common/IQMath/ti/_IQNasin_acos.c ****     
 893              		.loc 1 104 5 is_stmt 1 view .LVU341
 104:../Common/IQMath/ti/_IQNasin_acos.c ****     
 894              		.loc 1 104 16 is_stmt 0 view .LVU342
 895 000e 4001     		lsls	r0, r0, #5
 896              	.LVL104:
 112:../Common/IQMath/ti/_IQNasin_acos.c ****     if (uiq31InputTemp < 0x40000000) {
 897              		.loc 1 112 5 is_stmt 1 view .LVU343
 112:../Common/IQMath/ti/_IQNasin_acos.c ****     if (uiq31InputTemp < 0x40000000) {
 898              		.loc 1 112 20 is_stmt 0 view .LVU344
 899 0010 C0F10043 		rsb	r3, r0, #-2147483648
 900              	.LVL105:
 113:../Common/IQMath/ti/_IQNasin_acos.c ****         /* Halve the result. */
 901              		.loc 1 113 5 is_stmt 1 view .LVU345
 113:../Common/IQMath/ti/_IQNasin_acos.c ****         /* Halve the result. */
 902              		.loc 1 113 8 is_stmt 0 view .LVU346
 903 0014 B3F1804F 		cmp	r3, #1073741824
 904 0018 4CD3     		bcc	.L46
 905              	.LVL106:
 906              	.L40:
 125:../Common/IQMath/ti/_IQNasin_acos.c ****     
 907              		.loc 1 125 5 is_stmt 1 view .LVU347
 125:../Common/IQMath/ti/_IQNasin_acos.c ****     
 908              		.loc 1 125 11 is_stmt 0 view .LVU348
 909 001a 830E     		lsrs	r3, r0, #26
 910              	.LVL107:
 128:../Common/IQMath/ti/_IQNasin_acos.c ****     
 911              		.loc 1 128 5 is_stmt 1 view .LVU349
 128:../Common/IQMath/ti/_IQNasin_acos.c ****     
 912              		.loc 1 128 17 is_stmt 0 view .LVU350
 913 001c 03EB8303 		add	r3, r3, r3, lsl #2
 914              	.LVL108:
 128:../Common/IQMath/ti/_IQNasin_acos.c ****     
 915              		.loc 1 128 17 view .LVU351
 916 0020 2849     		ldr	r1, .L47
 917 0022 01EB8302 		add	r2, r1, r3, lsl #2
 918              	.LVL109:
 136:../Common/IQMath/ti/_IQNasin_acos.c ****     
 919              		.loc 1 136 5 is_stmt 1 view .LVU352
 136:../Common/IQMath/ti/_IQNasin_acos.c ****     
 920              		.loc 1 136 5 is_stmt 0 view .LVU353
 921              	.LBE97:
 922              	.LBE96:
  28:../Common/IQMath/ti/./support/RTS_support.h **** }
 923              		.loc 2 28 5 is_stmt 1 view .LVU354
 924              	.LBB108:
 925              	.LBB106:
 145:../Common/IQMath/ti/_IQNasin_acos.c ****     
ARM GAS  C:\Users\57308\AppData\Local\Temp\cc4OkGld.s 			page 30


 926              		.loc 1 145 5 view .LVU355
 145:../Common/IQMath/ti/_IQNasin_acos.c ****     
 927              		.loc 1 145 18 is_stmt 0 view .LVU356
 928 0026 51F82330 		ldr	r3, [r1, r3, lsl #2]
 929              	.LVL110:
 930              	.LBB98:
 931              	.LBI98:
 233:../Common/IQMath/ti/./support/RTS_support.h **** {
 932              		.loc 2 233 28 is_stmt 1 view .LVU357
 933              	.LBB99:
 934              		.loc 2 235 5 view .LVU358
 935              		.loc 2 235 28 is_stmt 0 view .LVU359
 936 002a 4FEAE07C 		asr	ip, r0, #31
 937              		.loc 2 235 49 view .LVU360
 938 002e D917     		asrs	r1, r3, #31
 939              		.loc 2 235 47 view .LVU361
 940 0030 00FB01F1 		mul	r1, r0, r1
 941 0034 03FB0C11 		mla	r1, r3, ip, r1
 942 0038 A0FB033E 		umull	r3, lr, r0, r3
 943              	.LVL111:
 944              		.loc 2 235 47 view .LVU362
 945 003c 7144     		add	r1, r1, lr
 946              		.loc 2 235 69 view .LVU363
 947 003e DB0F     		lsrs	r3, r3, #31
 948 0040 43EA4103 		orr	r3, r3, r1, lsl #1
 949              	.LVL112:
 950              		.loc 2 235 69 view .LVU364
 951              	.LBE99:
 952              	.LBE98:
 148:../Common/IQMath/ti/_IQNasin_acos.c ****     
 953              		.loc 1 148 5 is_stmt 1 view .LVU365
 148:../Common/IQMath/ti/_IQNasin_acos.c ****     
 954              		.loc 1 148 31 is_stmt 0 view .LVU366
 955 0044 5168     		ldr	r1, [r2, #4]
 148:../Common/IQMath/ti/_IQNasin_acos.c ****     
 956              		.loc 1 148 16 view .LVU367
 957 0046 0B44     		add	r3, r3, r1
 958              	.LVL113:
 151:../Common/IQMath/ti/_IQNasin_acos.c ****     
 959              		.loc 1 151 5 is_stmt 1 view .LVU368
 960              	.LBB100:
 961              	.LBI100:
 233:../Common/IQMath/ti/./support/RTS_support.h **** {
 962              		.loc 2 233 28 view .LVU369
 963              	.LBB101:
 964              		.loc 2 235 5 view .LVU370
 965              		.loc 2 235 49 is_stmt 0 view .LVU371
 966 0048 D917     		asrs	r1, r3, #31
 967              		.loc 2 235 47 view .LVU372
 968 004a 00FB01F1 		mul	r1, r0, r1
 969 004e 03FB0C11 		mla	r1, r3, ip, r1
 970 0052 A0FB033E 		umull	r3, lr, r0, r3
 971              	.LVL114:
 972              		.loc 2 235 47 view .LVU373
 973 0056 7144     		add	r1, r1, lr
 974              		.loc 2 235 69 view .LVU374
 975 0058 DB0F     		lsrs	r3, r3, #31
ARM GAS  C:\Users\57308\AppData\Local\Temp\cc4OkGld.s 			page 31


 976 005a 43EA4103 		orr	r3, r3, r1, lsl #1
 977              	.LVL115:
 978              		.loc 2 235 69 view .LVU375
 979              	.LBE101:
 980              	.LBE100:
 154:../Common/IQMath/ti/_IQNasin_acos.c ****     
 981              		.loc 1 154 5 is_stmt 1 view .LVU376
 154:../Common/IQMath/ti/_IQNasin_acos.c ****     
 982              		.loc 1 154 31 is_stmt 0 view .LVU377
 983 005e 9168     		ldr	r1, [r2, #8]
 154:../Common/IQMath/ti/_IQNasin_acos.c ****     
 984              		.loc 1 154 16 view .LVU378
 985 0060 0B44     		add	r3, r3, r1
 986              	.LVL116:
 157:../Common/IQMath/ti/_IQNasin_acos.c ****     
 987              		.loc 1 157 5 is_stmt 1 view .LVU379
 988              	.LBB102:
 989              	.LBI102:
 233:../Common/IQMath/ti/./support/RTS_support.h **** {
 990              		.loc 2 233 28 view .LVU380
 991              	.LBB103:
 992              		.loc 2 235 5 view .LVU381
 993              		.loc 2 235 49 is_stmt 0 view .LVU382
 994 0062 D917     		asrs	r1, r3, #31
 995              		.loc 2 235 47 view .LVU383
 996 0064 00FB01F1 		mul	r1, r0, r1
 997 0068 03FB0C11 		mla	r1, r3, ip, r1
 998 006c A0FB033E 		umull	r3, lr, r0, r3
 999              	.LVL117:
 1000              		.loc 2 235 47 view .LVU384
 1001 0070 7144     		add	r1, r1, lr
 1002              		.loc 2 235 69 view .LVU385
 1003 0072 DB0F     		lsrs	r3, r3, #31
 1004 0074 43EA4103 		orr	r3, r3, r1, lsl #1
 1005              	.LVL118:
 1006              		.loc 2 235 69 view .LVU386
 1007              	.LBE103:
 1008              	.LBE102:
 160:../Common/IQMath/ti/_IQNasin_acos.c ****     
 1009              		.loc 1 160 5 is_stmt 1 view .LVU387
 160:../Common/IQMath/ti/_IQNasin_acos.c ****     
 1010              		.loc 1 160 31 is_stmt 0 view .LVU388
 1011 0078 D168     		ldr	r1, [r2, #12]
 160:../Common/IQMath/ti/_IQNasin_acos.c ****     
 1012              		.loc 1 160 16 view .LVU389
 1013 007a 0B44     		add	r3, r3, r1
 1014              	.LVL119:
 163:../Common/IQMath/ti/_IQNasin_acos.c ****     
 1015              		.loc 1 163 5 is_stmt 1 view .LVU390
 1016              	.LBB104:
 1017              	.LBI104:
 233:../Common/IQMath/ti/./support/RTS_support.h **** {
 1018              		.loc 2 233 28 view .LVU391
 1019              	.LBB105:
 1020              		.loc 2 235 5 view .LVU392
 1021              		.loc 2 235 49 is_stmt 0 view .LVU393
 1022 007c D917     		asrs	r1, r3, #31
ARM GAS  C:\Users\57308\AppData\Local\Temp\cc4OkGld.s 			page 32


 1023              		.loc 2 235 47 view .LVU394
 1024 007e 00FB01F1 		mul	r1, r0, r1
 1025 0082 03FB0C11 		mla	r1, r3, ip, r1
 1026 0086 A0FB0303 		umull	r0, r3, r0, r3
 1027              	.LVL120:
 1028              		.loc 2 235 47 view .LVU395
 1029 008a 0B44     		add	r3, r3, r1
 1030              		.loc 2 235 69 view .LVU396
 1031 008c C00F     		lsrs	r0, r0, #31
 1032 008e 40EA4300 		orr	r0, r0, r3, lsl #1
 1033              	.LVL121:
 1034              		.loc 2 235 69 view .LVU397
 1035              	.LBE105:
 1036              	.LBE104:
 166:../Common/IQMath/ti/_IQNasin_acos.c ****     
 1037              		.loc 1 166 5 is_stmt 1 view .LVU398
 166:../Common/IQMath/ti/_IQNasin_acos.c ****     
 1038              		.loc 1 166 31 is_stmt 0 view .LVU399
 1039 0092 1369     		ldr	r3, [r2, #16]
 166:../Common/IQMath/ti/_IQNasin_acos.c ****     
 1040              		.loc 1 166 16 view .LVU400
 1041 0094 1844     		add	r0, r0, r3
 1042              	.LVL122:
 172:../Common/IQMath/ti/_IQNasin_acos.c ****     
 1043              		.loc 1 172 5 is_stmt 1 view .LVU401
 172:../Common/IQMath/ti/_IQNasin_acos.c ****     
 1044              		.loc 1 172 5 is_stmt 0 view .LVU402
 1045              	.LBE106:
 1046              	.LBE108:
  72:../Common/IQMath/ti/./support/RTS_support.h **** }
 1047              		.loc 2 72 5 is_stmt 1 view .LVU403
 1048              	.LBB109:
 1049              	.LBB107:
 175:../Common/IQMath/ti/_IQNasin_acos.c ****         /* asin(x) = pi/2 - 2*iq29Result */
 1050              		.loc 1 175 5 view .LVU404
 175:../Common/IQMath/ti/_IQNasin_acos.c ****         /* asin(x) = pi/2 - 2*iq29Result */
 1051              		.loc 1 175 8 is_stmt 0 view .LVU405
 1052 0096 14F0020F 		tst	r4, #2
 1053 009a 02D0     		beq	.L41
 177:../Common/IQMath/ti/_IQNasin_acos.c ****         iq29Result -= iq29_halfPi;      // this is equivalent to the above
 1054              		.loc 1 177 9 is_stmt 1 view .LVU406
 1055              	.LVL123:
 178:../Common/IQMath/ti/_IQNasin_acos.c ****         iq29Result = -iq29Result;       // but avoids using temporary registers
 1056              		.loc 1 178 9 view .LVU407
 179:../Common/IQMath/ti/_IQNasin_acos.c ****     }
 1057              		.loc 1 179 9 view .LVU408
 179:../Common/IQMath/ti/_IQNasin_acos.c ****     }
 1058              		.loc 1 179 20 is_stmt 0 view .LVU409
 1059 009c 0A4B     		ldr	r3, .L47+4
 1060 009e A3EB4000 		sub	r0, r3, r0, lsl #1
 1061              	.LVL124:
 1062              	.L41:
 183:../Common/IQMath/ti/_IQNasin_acos.c ****     
 1063              		.loc 1 183 5 is_stmt 1 view .LVU410
 183:../Common/IQMath/ti/_IQNasin_acos.c ****     
 1064              		.loc 1 183 16 is_stmt 0 view .LVU411
 1065 00a2 C010     		asrs	r0, r0, #3
ARM GAS  C:\Users\57308\AppData\Local\Temp\cc4OkGld.s 			page 33


 1066              	.LVL125:
 186:../Common/IQMath/ti/_IQNasin_acos.c ****         iq29Result = -iq29Result;
 1067              		.loc 1 186 5 is_stmt 1 view .LVU412
 186:../Common/IQMath/ti/_IQNasin_acos.c ****         iq29Result = -iq29Result;
 1068              		.loc 1 186 8 is_stmt 0 view .LVU413
 1069 00a4 14F0010F 		tst	r4, #1
 1070 00a8 0BD0     		beq	.L37
 187:../Common/IQMath/ti/_IQNasin_acos.c ****     }
 1071              		.loc 1 187 9 is_stmt 1 view .LVU414
 187:../Common/IQMath/ti/_IQNasin_acos.c ****     }
 1072              		.loc 1 187 20 is_stmt 0 view .LVU415
 1073 00aa 4042     		rsbs	r0, r0, #0
 1074              	.LVL126:
 187:../Common/IQMath/ti/_IQNasin_acos.c ****     }
 1075              		.loc 1 187 20 view .LVU416
 1076 00ac 09E0     		b	.L37
 1077              	.LVL127:
 1078              	.L45:
  90:../Common/IQMath/ti/_IQNasin_acos.c ****         iqNInput = -iqNInput;
 1079              		.loc 1 90 9 is_stmt 1 view .LVU417
  91:../Common/IQMath/ti/_IQNasin_acos.c ****     }
 1080              		.loc 1 91 9 view .LVU418
  91:../Common/IQMath/ti/_IQNasin_acos.c ****     }
 1081              		.loc 1 91 18 is_stmt 0 view .LVU419
 1082 00ae 4042     		rsbs	r0, r0, #0
 1083              	.LVL128:
  90:../Common/IQMath/ti/_IQNasin_acos.c ****         iqNInput = -iqNInput;
 1084              		.loc 1 90 19 view .LVU420
 1085 00b0 0124     		movs	r4, #1
 1086 00b2 A9E7     		b	.L38
 1087              	.LVL129:
 1088              	.L46:
 115:../Common/IQMath/ti/_IQNasin_acos.c ****         
 1089              		.loc 1 115 9 is_stmt 1 view .LVU421
 118:../Common/IQMath/ti/_IQNasin_acos.c ****         
 1090              		.loc 1 118 9 view .LVU422
 118:../Common/IQMath/ti/_IQNasin_acos.c ****         
 1091              		.loc 1 118 22 is_stmt 0 view .LVU423
 1092 00b4 5808     		lsrs	r0, r3, #1
 1093              	.LVL130:
 118:../Common/IQMath/ti/_IQNasin_acos.c ****         
 1094              		.loc 1 118 22 view .LVU424
 1095 00b6 FFF7FEFF 		bl	_IQ31sqrt
 1096              	.LVL131:
 121:../Common/IQMath/ti/_IQNasin_acos.c ****     }
 1097              		.loc 1 121 9 is_stmt 1 view .LVU425
 121:../Common/IQMath/ti/_IQNasin_acos.c ****     }
 1098              		.loc 1 121 19 is_stmt 0 view .LVU426
 1099 00ba 44F00204 		orr	r4, r4, #2
 1100              	.LVL132:
 121:../Common/IQMath/ti/_IQNasin_acos.c ****     }
 1101              		.loc 1 121 19 view .LVU427
 1102 00be ACE7     		b	.L40
 1103              	.LVL133:
 1104              	.L43:
 100:../Common/IQMath/ti/_IQNasin_acos.c ****     }
 1105              		.loc 1 100 16 view .LVU428
ARM GAS  C:\Users\57308\AppData\Local\Temp\cc4OkGld.s 			page 34


 1106 00c0 0020     		movs	r0, #0
 1107              	.LVL134:
 1108              	.L37:
 100:../Common/IQMath/ti/_IQNasin_acos.c ****     }
 1109              		.loc 1 100 16 view .LVU429
 1110              	.LBE107:
 1111              	.LBE109:
 237:../Common/IQMath/ti/_IQNasin_acos.c **** }
 1112              		.loc 1 237 1 view .LVU430
 1113 00c2 10BD     		pop	{r4, pc}
 1114              	.L48:
 1115              		.align	2
 1116              	.L47:
 1117 00c4 00000000 		.word	_IQ29Asin_coeffs
 1118 00c8 A8F64332 		.word	843314856
 1119              		.cfi_endproc
 1120              	.LFE265:
 1122              		.section	.text._IQ25asin,"ax",%progbits
 1123              		.align	1
 1124              		.global	_IQ25asin
 1125              		.syntax unified
 1126              		.thumb
 1127              		.thumb_func
 1129              	_IQ25asin:
 1130              	.LVL135:
 1131              	.LFB266:
 238:../Common/IQMath/ti/_IQNasin_acos.c **** /**
 239:../Common/IQMath/ti/_IQNasin_acos.c ****  * @brief Computes the inverse sine of the IQ25 input.
 240:../Common/IQMath/ti/_IQNasin_acos.c ****  *
 241:../Common/IQMath/ti/_IQNasin_acos.c ****  * @param a               IQ25 type input.
 242:../Common/IQMath/ti/_IQNasin_acos.c ****  *
 243:../Common/IQMath/ti/_IQNasin_acos.c ****  * @return                IQ25 type result of inverse sine.
 244:../Common/IQMath/ti/_IQNasin_acos.c ****  */
 245:../Common/IQMath/ti/_IQNasin_acos.c **** int32_t _IQ25asin(int32_t a)
 246:../Common/IQMath/ti/_IQNasin_acos.c **** {
 1132              		.loc 1 246 1 is_stmt 1 view -0
 1133              		.cfi_startproc
 1134              		@ args = 0, pretend = 0, frame = 0
 1135              		@ frame_needed = 0, uses_anonymous_args = 0
 1136              		.loc 1 246 1 is_stmt 0 view .LVU432
 1137 0000 10B5     		push	{r4, lr}
 1138              	.LCFI4:
 1139              		.cfi_def_cfa_offset 8
 1140              		.cfi_offset 4, -8
 1141              		.cfi_offset 14, -4
 247:../Common/IQMath/ti/_IQNasin_acos.c ****     return __IQNasin(a, 25);
 1142              		.loc 1 247 5 is_stmt 1 view .LVU433
 1143              	.LVL136:
 1144              	.LBB120:
 1145              	.LBI120:
  70:../Common/IQMath/ti/_IQNasin_acos.c **** {
 1146              		.loc 1 70 30 view .LVU434
 1147              	.LBB121:
  72:../Common/IQMath/ti/_IQNasin_acos.c ****     uint_fast16_t index;
 1148              		.loc 1 72 5 view .LVU435
  73:../Common/IQMath/ti/_IQNasin_acos.c ****     uint_fast16_t ui16IntState;
 1149              		.loc 1 73 5 view .LVU436
ARM GAS  C:\Users\57308\AppData\Local\Temp\cc4OkGld.s 			page 35


  74:../Common/IQMath/ti/_IQNasin_acos.c ****     uint_fast16_t ui16MPYState;
 1150              		.loc 1 74 5 view .LVU437
  75:../Common/IQMath/ti/_IQNasin_acos.c ****     int_fast32_t iq29Result;
 1151              		.loc 1 75 5 view .LVU438
  76:../Common/IQMath/ti/_IQNasin_acos.c ****     const int_fast32_t *piq29Coeffs;
 1152              		.loc 1 76 5 view .LVU439
  77:../Common/IQMath/ti/_IQNasin_acos.c ****     uint_fast32_t uiq31Input;
 1153              		.loc 1 77 5 view .LVU440
  78:../Common/IQMath/ti/_IQNasin_acos.c ****     uint_fast32_t uiq31InputTemp;
 1154              		.loc 1 78 5 view .LVU441
  79:../Common/IQMath/ti/_IQNasin_acos.c ****     
 1155              		.loc 1 79 5 view .LVU442
  89:../Common/IQMath/ti/_IQNasin_acos.c ****         ui8Status |= 1;
 1156              		.loc 1 89 5 view .LVU443
  89:../Common/IQMath/ti/_IQNasin_acos.c ****         ui8Status |= 1;
 1157              		.loc 1 89 8 is_stmt 0 view .LVU444
 1158 0002 0028     		cmp	r0, #0
  89:../Common/IQMath/ti/_IQNasin_acos.c ****         ui8Status |= 1;
 1159              		.loc 1 89 8 view .LVU445
 1160 0004 53DB     		blt	.L57
  72:../Common/IQMath/ti/_IQNasin_acos.c ****     uint_fast16_t index;
 1161              		.loc 1 72 13 view .LVU446
 1162 0006 0024     		movs	r4, #0
 1163              	.LVL137:
 1164              	.L50:
  99:../Common/IQMath/ti/_IQNasin_acos.c ****         return 0;
 1165              		.loc 1 99 5 is_stmt 1 view .LVU447
  99:../Common/IQMath/ti/_IQNasin_acos.c ****         return 0;
 1166              		.loc 1 99 8 is_stmt 0 view .LVU448
 1167 0008 B0F1007F 		cmp	r0, #33554432
 1168 000c 58D8     		bhi	.L55
 104:../Common/IQMath/ti/_IQNasin_acos.c ****     
 1169              		.loc 1 104 5 is_stmt 1 view .LVU449
 104:../Common/IQMath/ti/_IQNasin_acos.c ****     
 1170              		.loc 1 104 16 is_stmt 0 view .LVU450
 1171 000e 8001     		lsls	r0, r0, #6
 1172              	.LVL138:
 112:../Common/IQMath/ti/_IQNasin_acos.c ****     if (uiq31InputTemp < 0x40000000) {
 1173              		.loc 1 112 5 is_stmt 1 view .LVU451
 112:../Common/IQMath/ti/_IQNasin_acos.c ****     if (uiq31InputTemp < 0x40000000) {
 1174              		.loc 1 112 20 is_stmt 0 view .LVU452
 1175 0010 C0F10043 		rsb	r3, r0, #-2147483648
 1176              	.LVL139:
 113:../Common/IQMath/ti/_IQNasin_acos.c ****         /* Halve the result. */
 1177              		.loc 1 113 5 is_stmt 1 view .LVU453
 113:../Common/IQMath/ti/_IQNasin_acos.c ****         /* Halve the result. */
 1178              		.loc 1 113 8 is_stmt 0 view .LVU454
 1179 0014 B3F1804F 		cmp	r3, #1073741824
 1180 0018 4CD3     		bcc	.L58
 1181              	.LVL140:
 1182              	.L52:
 125:../Common/IQMath/ti/_IQNasin_acos.c ****     
 1183              		.loc 1 125 5 is_stmt 1 view .LVU455
 125:../Common/IQMath/ti/_IQNasin_acos.c ****     
 1184              		.loc 1 125 11 is_stmt 0 view .LVU456
 1185 001a 830E     		lsrs	r3, r0, #26
 1186              	.LVL141:
ARM GAS  C:\Users\57308\AppData\Local\Temp\cc4OkGld.s 			page 36


 128:../Common/IQMath/ti/_IQNasin_acos.c ****     
 1187              		.loc 1 128 5 is_stmt 1 view .LVU457
 128:../Common/IQMath/ti/_IQNasin_acos.c ****     
 1188              		.loc 1 128 17 is_stmt 0 view .LVU458
 1189 001c 03EB8303 		add	r3, r3, r3, lsl #2
 1190              	.LVL142:
 128:../Common/IQMath/ti/_IQNasin_acos.c ****     
 1191              		.loc 1 128 17 view .LVU459
 1192 0020 2849     		ldr	r1, .L59
 1193 0022 01EB8302 		add	r2, r1, r3, lsl #2
 1194              	.LVL143:
 136:../Common/IQMath/ti/_IQNasin_acos.c ****     
 1195              		.loc 1 136 5 is_stmt 1 view .LVU460
 136:../Common/IQMath/ti/_IQNasin_acos.c ****     
 1196              		.loc 1 136 5 is_stmt 0 view .LVU461
 1197              	.LBE121:
 1198              	.LBE120:
  28:../Common/IQMath/ti/./support/RTS_support.h **** }
 1199              		.loc 2 28 5 is_stmt 1 view .LVU462
 1200              	.LBB132:
 1201              	.LBB130:
 145:../Common/IQMath/ti/_IQNasin_acos.c ****     
 1202              		.loc 1 145 5 view .LVU463
 145:../Common/IQMath/ti/_IQNasin_acos.c ****     
 1203              		.loc 1 145 18 is_stmt 0 view .LVU464
 1204 0026 51F82330 		ldr	r3, [r1, r3, lsl #2]
 1205              	.LVL144:
 1206              	.LBB122:
 1207              	.LBI122:
 233:../Common/IQMath/ti/./support/RTS_support.h **** {
 1208              		.loc 2 233 28 is_stmt 1 view .LVU465
 1209              	.LBB123:
 1210              		.loc 2 235 5 view .LVU466
 1211              		.loc 2 235 28 is_stmt 0 view .LVU467
 1212 002a 4FEAE07C 		asr	ip, r0, #31
 1213              		.loc 2 235 49 view .LVU468
 1214 002e D917     		asrs	r1, r3, #31
 1215              		.loc 2 235 47 view .LVU469
 1216 0030 00FB01F1 		mul	r1, r0, r1
 1217 0034 03FB0C11 		mla	r1, r3, ip, r1
 1218 0038 A0FB033E 		umull	r3, lr, r0, r3
 1219              	.LVL145:
 1220              		.loc 2 235 47 view .LVU470
 1221 003c 7144     		add	r1, r1, lr
 1222              		.loc 2 235 69 view .LVU471
 1223 003e DB0F     		lsrs	r3, r3, #31
 1224 0040 43EA4103 		orr	r3, r3, r1, lsl #1
 1225              	.LVL146:
 1226              		.loc 2 235 69 view .LVU472
 1227              	.LBE123:
 1228              	.LBE122:
 148:../Common/IQMath/ti/_IQNasin_acos.c ****     
 1229              		.loc 1 148 5 is_stmt 1 view .LVU473
 148:../Common/IQMath/ti/_IQNasin_acos.c ****     
 1230              		.loc 1 148 31 is_stmt 0 view .LVU474
 1231 0044 5168     		ldr	r1, [r2, #4]
 148:../Common/IQMath/ti/_IQNasin_acos.c ****     
ARM GAS  C:\Users\57308\AppData\Local\Temp\cc4OkGld.s 			page 37


 1232              		.loc 1 148 16 view .LVU475
 1233 0046 0B44     		add	r3, r3, r1
 1234              	.LVL147:
 151:../Common/IQMath/ti/_IQNasin_acos.c ****     
 1235              		.loc 1 151 5 is_stmt 1 view .LVU476
 1236              	.LBB124:
 1237              	.LBI124:
 233:../Common/IQMath/ti/./support/RTS_support.h **** {
 1238              		.loc 2 233 28 view .LVU477
 1239              	.LBB125:
 1240              		.loc 2 235 5 view .LVU478
 1241              		.loc 2 235 49 is_stmt 0 view .LVU479
 1242 0048 D917     		asrs	r1, r3, #31
 1243              		.loc 2 235 47 view .LVU480
 1244 004a 00FB01F1 		mul	r1, r0, r1
 1245 004e 03FB0C11 		mla	r1, r3, ip, r1
 1246 0052 A0FB033E 		umull	r3, lr, r0, r3
 1247              	.LVL148:
 1248              		.loc 2 235 47 view .LVU481
 1249 0056 7144     		add	r1, r1, lr
 1250              		.loc 2 235 69 view .LVU482
 1251 0058 DB0F     		lsrs	r3, r3, #31
 1252 005a 43EA4103 		orr	r3, r3, r1, lsl #1
 1253              	.LVL149:
 1254              		.loc 2 235 69 view .LVU483
 1255              	.LBE125:
 1256              	.LBE124:
 154:../Common/IQMath/ti/_IQNasin_acos.c ****     
 1257              		.loc 1 154 5 is_stmt 1 view .LVU484
 154:../Common/IQMath/ti/_IQNasin_acos.c ****     
 1258              		.loc 1 154 31 is_stmt 0 view .LVU485
 1259 005e 9168     		ldr	r1, [r2, #8]
 154:../Common/IQMath/ti/_IQNasin_acos.c ****     
 1260              		.loc 1 154 16 view .LVU486
 1261 0060 0B44     		add	r3, r3, r1
 1262              	.LVL150:
 157:../Common/IQMath/ti/_IQNasin_acos.c ****     
 1263              		.loc 1 157 5 is_stmt 1 view .LVU487
 1264              	.LBB126:
 1265              	.LBI126:
 233:../Common/IQMath/ti/./support/RTS_support.h **** {
 1266              		.loc 2 233 28 view .LVU488
 1267              	.LBB127:
 1268              		.loc 2 235 5 view .LVU489
 1269              		.loc 2 235 49 is_stmt 0 view .LVU490
 1270 0062 D917     		asrs	r1, r3, #31
 1271              		.loc 2 235 47 view .LVU491
 1272 0064 00FB01F1 		mul	r1, r0, r1
 1273 0068 03FB0C11 		mla	r1, r3, ip, r1
 1274 006c A0FB033E 		umull	r3, lr, r0, r3
 1275              	.LVL151:
 1276              		.loc 2 235 47 view .LVU492
 1277 0070 7144     		add	r1, r1, lr
 1278              		.loc 2 235 69 view .LVU493
 1279 0072 DB0F     		lsrs	r3, r3, #31
 1280 0074 43EA4103 		orr	r3, r3, r1, lsl #1
 1281              	.LVL152:
ARM GAS  C:\Users\57308\AppData\Local\Temp\cc4OkGld.s 			page 38


 1282              		.loc 2 235 69 view .LVU494
 1283              	.LBE127:
 1284              	.LBE126:
 160:../Common/IQMath/ti/_IQNasin_acos.c ****     
 1285              		.loc 1 160 5 is_stmt 1 view .LVU495
 160:../Common/IQMath/ti/_IQNasin_acos.c ****     
 1286              		.loc 1 160 31 is_stmt 0 view .LVU496
 1287 0078 D168     		ldr	r1, [r2, #12]
 160:../Common/IQMath/ti/_IQNasin_acos.c ****     
 1288              		.loc 1 160 16 view .LVU497
 1289 007a 0B44     		add	r3, r3, r1
 1290              	.LVL153:
 163:../Common/IQMath/ti/_IQNasin_acos.c ****     
 1291              		.loc 1 163 5 is_stmt 1 view .LVU498
 1292              	.LBB128:
 1293              	.LBI128:
 233:../Common/IQMath/ti/./support/RTS_support.h **** {
 1294              		.loc 2 233 28 view .LVU499
 1295              	.LBB129:
 1296              		.loc 2 235 5 view .LVU500
 1297              		.loc 2 235 49 is_stmt 0 view .LVU501
 1298 007c D917     		asrs	r1, r3, #31
 1299              		.loc 2 235 47 view .LVU502
 1300 007e 00FB01F1 		mul	r1, r0, r1
 1301 0082 03FB0C11 		mla	r1, r3, ip, r1
 1302 0086 A0FB0303 		umull	r0, r3, r0, r3
 1303              	.LVL154:
 1304              		.loc 2 235 47 view .LVU503
 1305 008a 0B44     		add	r3, r3, r1
 1306              		.loc 2 235 69 view .LVU504
 1307 008c C00F     		lsrs	r0, r0, #31
 1308 008e 40EA4300 		orr	r0, r0, r3, lsl #1
 1309              	.LVL155:
 1310              		.loc 2 235 69 view .LVU505
 1311              	.LBE129:
 1312              	.LBE128:
 166:../Common/IQMath/ti/_IQNasin_acos.c ****     
 1313              		.loc 1 166 5 is_stmt 1 view .LVU506
 166:../Common/IQMath/ti/_IQNasin_acos.c ****     
 1314              		.loc 1 166 31 is_stmt 0 view .LVU507
 1315 0092 1369     		ldr	r3, [r2, #16]
 166:../Common/IQMath/ti/_IQNasin_acos.c ****     
 1316              		.loc 1 166 16 view .LVU508
 1317 0094 1844     		add	r0, r0, r3
 1318              	.LVL156:
 172:../Common/IQMath/ti/_IQNasin_acos.c ****     
 1319              		.loc 1 172 5 is_stmt 1 view .LVU509
 172:../Common/IQMath/ti/_IQNasin_acos.c ****     
 1320              		.loc 1 172 5 is_stmt 0 view .LVU510
 1321              	.LBE130:
 1322              	.LBE132:
  72:../Common/IQMath/ti/./support/RTS_support.h **** }
 1323              		.loc 2 72 5 is_stmt 1 view .LVU511
 1324              	.LBB133:
 1325              	.LBB131:
 175:../Common/IQMath/ti/_IQNasin_acos.c ****         /* asin(x) = pi/2 - 2*iq29Result */
 1326              		.loc 1 175 5 view .LVU512
ARM GAS  C:\Users\57308\AppData\Local\Temp\cc4OkGld.s 			page 39


 175:../Common/IQMath/ti/_IQNasin_acos.c ****         /* asin(x) = pi/2 - 2*iq29Result */
 1327              		.loc 1 175 8 is_stmt 0 view .LVU513
 1328 0096 14F0020F 		tst	r4, #2
 1329 009a 02D0     		beq	.L53
 177:../Common/IQMath/ti/_IQNasin_acos.c ****         iq29Result -= iq29_halfPi;      // this is equivalent to the above
 1330              		.loc 1 177 9 is_stmt 1 view .LVU514
 1331              	.LVL157:
 178:../Common/IQMath/ti/_IQNasin_acos.c ****         iq29Result = -iq29Result;       // but avoids using temporary registers
 1332              		.loc 1 178 9 view .LVU515
 179:../Common/IQMath/ti/_IQNasin_acos.c ****     }
 1333              		.loc 1 179 9 view .LVU516
 179:../Common/IQMath/ti/_IQNasin_acos.c ****     }
 1334              		.loc 1 179 20 is_stmt 0 view .LVU517
 1335 009c 0A4B     		ldr	r3, .L59+4
 1336 009e A3EB4000 		sub	r0, r3, r0, lsl #1
 1337              	.LVL158:
 1338              	.L53:
 183:../Common/IQMath/ti/_IQNasin_acos.c ****     
 1339              		.loc 1 183 5 is_stmt 1 view .LVU518
 183:../Common/IQMath/ti/_IQNasin_acos.c ****     
 1340              		.loc 1 183 16 is_stmt 0 view .LVU519
 1341 00a2 0011     		asrs	r0, r0, #4
 1342              	.LVL159:
 186:../Common/IQMath/ti/_IQNasin_acos.c ****         iq29Result = -iq29Result;
 1343              		.loc 1 186 5 is_stmt 1 view .LVU520
 186:../Common/IQMath/ti/_IQNasin_acos.c ****         iq29Result = -iq29Result;
 1344              		.loc 1 186 8 is_stmt 0 view .LVU521
 1345 00a4 14F0010F 		tst	r4, #1
 1346 00a8 0BD0     		beq	.L49
 187:../Common/IQMath/ti/_IQNasin_acos.c ****     }
 1347              		.loc 1 187 9 is_stmt 1 view .LVU522
 187:../Common/IQMath/ti/_IQNasin_acos.c ****     }
 1348              		.loc 1 187 20 is_stmt 0 view .LVU523
 1349 00aa 4042     		rsbs	r0, r0, #0
 1350              	.LVL160:
 187:../Common/IQMath/ti/_IQNasin_acos.c ****     }
 1351              		.loc 1 187 20 view .LVU524
 1352 00ac 09E0     		b	.L49
 1353              	.LVL161:
 1354              	.L57:
  90:../Common/IQMath/ti/_IQNasin_acos.c ****         iqNInput = -iqNInput;
 1355              		.loc 1 90 9 is_stmt 1 view .LVU525
  91:../Common/IQMath/ti/_IQNasin_acos.c ****     }
 1356              		.loc 1 91 9 view .LVU526
  91:../Common/IQMath/ti/_IQNasin_acos.c ****     }
 1357              		.loc 1 91 18 is_stmt 0 view .LVU527
 1358 00ae 4042     		rsbs	r0, r0, #0
 1359              	.LVL162:
  90:../Common/IQMath/ti/_IQNasin_acos.c ****         iqNInput = -iqNInput;
 1360              		.loc 1 90 19 view .LVU528
 1361 00b0 0124     		movs	r4, #1
 1362 00b2 A9E7     		b	.L50
 1363              	.LVL163:
 1364              	.L58:
 115:../Common/IQMath/ti/_IQNasin_acos.c ****         
 1365              		.loc 1 115 9 is_stmt 1 view .LVU529
 118:../Common/IQMath/ti/_IQNasin_acos.c ****         
ARM GAS  C:\Users\57308\AppData\Local\Temp\cc4OkGld.s 			page 40


 1366              		.loc 1 118 9 view .LVU530
 118:../Common/IQMath/ti/_IQNasin_acos.c ****         
 1367              		.loc 1 118 22 is_stmt 0 view .LVU531
 1368 00b4 5808     		lsrs	r0, r3, #1
 1369              	.LVL164:
 118:../Common/IQMath/ti/_IQNasin_acos.c ****         
 1370              		.loc 1 118 22 view .LVU532
 1371 00b6 FFF7FEFF 		bl	_IQ31sqrt
 1372              	.LVL165:
 121:../Common/IQMath/ti/_IQNasin_acos.c ****     }
 1373              		.loc 1 121 9 is_stmt 1 view .LVU533
 121:../Common/IQMath/ti/_IQNasin_acos.c ****     }
 1374              		.loc 1 121 19 is_stmt 0 view .LVU534
 1375 00ba 44F00204 		orr	r4, r4, #2
 1376              	.LVL166:
 121:../Common/IQMath/ti/_IQNasin_acos.c ****     }
 1377              		.loc 1 121 19 view .LVU535
 1378 00be ACE7     		b	.L52
 1379              	.LVL167:
 1380              	.L55:
 100:../Common/IQMath/ti/_IQNasin_acos.c ****     }
 1381              		.loc 1 100 16 view .LVU536
 1382 00c0 0020     		movs	r0, #0
 1383              	.LVL168:
 1384              	.L49:
 100:../Common/IQMath/ti/_IQNasin_acos.c ****     }
 1385              		.loc 1 100 16 view .LVU537
 1386              	.LBE131:
 1387              	.LBE133:
 248:../Common/IQMath/ti/_IQNasin_acos.c **** }
 1388              		.loc 1 248 1 view .LVU538
 1389 00c2 10BD     		pop	{r4, pc}
 1390              	.L60:
 1391              		.align	2
 1392              	.L59:
 1393 00c4 00000000 		.word	_IQ29Asin_coeffs
 1394 00c8 A8F64332 		.word	843314856
 1395              		.cfi_endproc
 1396              	.LFE266:
 1398              		.section	.text._IQ24asin,"ax",%progbits
 1399              		.align	1
 1400              		.global	_IQ24asin
 1401              		.syntax unified
 1402              		.thumb
 1403              		.thumb_func
 1405              	_IQ24asin:
 1406              	.LVL169:
 1407              	.LFB267:
 249:../Common/IQMath/ti/_IQNasin_acos.c **** /**
 250:../Common/IQMath/ti/_IQNasin_acos.c ****  * @brief Computes the inverse sine of the IQ24 input.
 251:../Common/IQMath/ti/_IQNasin_acos.c ****  *
 252:../Common/IQMath/ti/_IQNasin_acos.c ****  * @param a               IQ24 type input.
 253:../Common/IQMath/ti/_IQNasin_acos.c ****  *
 254:../Common/IQMath/ti/_IQNasin_acos.c ****  * @return                IQ24 type result of inverse sine.
 255:../Common/IQMath/ti/_IQNasin_acos.c ****  */
 256:../Common/IQMath/ti/_IQNasin_acos.c **** int32_t _IQ24asin(int32_t a)
 257:../Common/IQMath/ti/_IQNasin_acos.c **** {
ARM GAS  C:\Users\57308\AppData\Local\Temp\cc4OkGld.s 			page 41


 1408              		.loc 1 257 1 is_stmt 1 view -0
 1409              		.cfi_startproc
 1410              		@ args = 0, pretend = 0, frame = 0
 1411              		@ frame_needed = 0, uses_anonymous_args = 0
 1412              		.loc 1 257 1 is_stmt 0 view .LVU540
 1413 0000 10B5     		push	{r4, lr}
 1414              	.LCFI5:
 1415              		.cfi_def_cfa_offset 8
 1416              		.cfi_offset 4, -8
 1417              		.cfi_offset 14, -4
 258:../Common/IQMath/ti/_IQNasin_acos.c ****     return __IQNasin(a, 24);
 1418              		.loc 1 258 5 is_stmt 1 view .LVU541
 1419              	.LVL170:
 1420              	.LBB144:
 1421              	.LBI144:
  70:../Common/IQMath/ti/_IQNasin_acos.c **** {
 1422              		.loc 1 70 30 view .LVU542
 1423              	.LBB145:
  72:../Common/IQMath/ti/_IQNasin_acos.c ****     uint_fast16_t index;
 1424              		.loc 1 72 5 view .LVU543
  73:../Common/IQMath/ti/_IQNasin_acos.c ****     uint_fast16_t ui16IntState;
 1425              		.loc 1 73 5 view .LVU544
  74:../Common/IQMath/ti/_IQNasin_acos.c ****     uint_fast16_t ui16MPYState;
 1426              		.loc 1 74 5 view .LVU545
  75:../Common/IQMath/ti/_IQNasin_acos.c ****     int_fast32_t iq29Result;
 1427              		.loc 1 75 5 view .LVU546
  76:../Common/IQMath/ti/_IQNasin_acos.c ****     const int_fast32_t *piq29Coeffs;
 1428              		.loc 1 76 5 view .LVU547
  77:../Common/IQMath/ti/_IQNasin_acos.c ****     uint_fast32_t uiq31Input;
 1429              		.loc 1 77 5 view .LVU548
  78:../Common/IQMath/ti/_IQNasin_acos.c ****     uint_fast32_t uiq31InputTemp;
 1430              		.loc 1 78 5 view .LVU549
  79:../Common/IQMath/ti/_IQNasin_acos.c ****     
 1431              		.loc 1 79 5 view .LVU550
  89:../Common/IQMath/ti/_IQNasin_acos.c ****         ui8Status |= 1;
 1432              		.loc 1 89 5 view .LVU551
  89:../Common/IQMath/ti/_IQNasin_acos.c ****         ui8Status |= 1;
 1433              		.loc 1 89 8 is_stmt 0 view .LVU552
 1434 0002 0028     		cmp	r0, #0
  89:../Common/IQMath/ti/_IQNasin_acos.c ****         ui8Status |= 1;
 1435              		.loc 1 89 8 view .LVU553
 1436 0004 53DB     		blt	.L69
  72:../Common/IQMath/ti/_IQNasin_acos.c ****     uint_fast16_t index;
 1437              		.loc 1 72 13 view .LVU554
 1438 0006 0024     		movs	r4, #0
 1439              	.LVL171:
 1440              	.L62:
  99:../Common/IQMath/ti/_IQNasin_acos.c ****         return 0;
 1441              		.loc 1 99 5 is_stmt 1 view .LVU555
  99:../Common/IQMath/ti/_IQNasin_acos.c ****         return 0;
 1442              		.loc 1 99 8 is_stmt 0 view .LVU556
 1443 0008 B0F1807F 		cmp	r0, #16777216
 1444 000c 58D8     		bhi	.L67
 104:../Common/IQMath/ti/_IQNasin_acos.c ****     
 1445              		.loc 1 104 5 is_stmt 1 view .LVU557
 104:../Common/IQMath/ti/_IQNasin_acos.c ****     
 1446              		.loc 1 104 16 is_stmt 0 view .LVU558
ARM GAS  C:\Users\57308\AppData\Local\Temp\cc4OkGld.s 			page 42


 1447 000e C001     		lsls	r0, r0, #7
 1448              	.LVL172:
 112:../Common/IQMath/ti/_IQNasin_acos.c ****     if (uiq31InputTemp < 0x40000000) {
 1449              		.loc 1 112 5 is_stmt 1 view .LVU559
 112:../Common/IQMath/ti/_IQNasin_acos.c ****     if (uiq31InputTemp < 0x40000000) {
 1450              		.loc 1 112 20 is_stmt 0 view .LVU560
 1451 0010 C0F10043 		rsb	r3, r0, #-2147483648
 1452              	.LVL173:
 113:../Common/IQMath/ti/_IQNasin_acos.c ****         /* Halve the result. */
 1453              		.loc 1 113 5 is_stmt 1 view .LVU561
 113:../Common/IQMath/ti/_IQNasin_acos.c ****         /* Halve the result. */
 1454              		.loc 1 113 8 is_stmt 0 view .LVU562
 1455 0014 B3F1804F 		cmp	r3, #1073741824
 1456 0018 4CD3     		bcc	.L70
 1457              	.LVL174:
 1458              	.L64:
 125:../Common/IQMath/ti/_IQNasin_acos.c ****     
 1459              		.loc 1 125 5 is_stmt 1 view .LVU563
 125:../Common/IQMath/ti/_IQNasin_acos.c ****     
 1460              		.loc 1 125 11 is_stmt 0 view .LVU564
 1461 001a 830E     		lsrs	r3, r0, #26
 1462              	.LVL175:
 128:../Common/IQMath/ti/_IQNasin_acos.c ****     
 1463              		.loc 1 128 5 is_stmt 1 view .LVU565
 128:../Common/IQMath/ti/_IQNasin_acos.c ****     
 1464              		.loc 1 128 17 is_stmt 0 view .LVU566
 1465 001c 03EB8303 		add	r3, r3, r3, lsl #2
 1466              	.LVL176:
 128:../Common/IQMath/ti/_IQNasin_acos.c ****     
 1467              		.loc 1 128 17 view .LVU567
 1468 0020 2849     		ldr	r1, .L71
 1469 0022 01EB8302 		add	r2, r1, r3, lsl #2
 1470              	.LVL177:
 136:../Common/IQMath/ti/_IQNasin_acos.c ****     
 1471              		.loc 1 136 5 is_stmt 1 view .LVU568
 136:../Common/IQMath/ti/_IQNasin_acos.c ****     
 1472              		.loc 1 136 5 is_stmt 0 view .LVU569
 1473              	.LBE145:
 1474              	.LBE144:
  28:../Common/IQMath/ti/./support/RTS_support.h **** }
 1475              		.loc 2 28 5 is_stmt 1 view .LVU570
 1476              	.LBB156:
 1477              	.LBB154:
 145:../Common/IQMath/ti/_IQNasin_acos.c ****     
 1478              		.loc 1 145 5 view .LVU571
 145:../Common/IQMath/ti/_IQNasin_acos.c ****     
 1479              		.loc 1 145 18 is_stmt 0 view .LVU572
 1480 0026 51F82330 		ldr	r3, [r1, r3, lsl #2]
 1481              	.LVL178:
 1482              	.LBB146:
 1483              	.LBI146:
 233:../Common/IQMath/ti/./support/RTS_support.h **** {
 1484              		.loc 2 233 28 is_stmt 1 view .LVU573
 1485              	.LBB147:
 1486              		.loc 2 235 5 view .LVU574
 1487              		.loc 2 235 28 is_stmt 0 view .LVU575
 1488 002a 4FEAE07C 		asr	ip, r0, #31
ARM GAS  C:\Users\57308\AppData\Local\Temp\cc4OkGld.s 			page 43


 1489              		.loc 2 235 49 view .LVU576
 1490 002e D917     		asrs	r1, r3, #31
 1491              		.loc 2 235 47 view .LVU577
 1492 0030 00FB01F1 		mul	r1, r0, r1
 1493 0034 03FB0C11 		mla	r1, r3, ip, r1
 1494 0038 A0FB033E 		umull	r3, lr, r0, r3
 1495              	.LVL179:
 1496              		.loc 2 235 47 view .LVU578
 1497 003c 7144     		add	r1, r1, lr
 1498              		.loc 2 235 69 view .LVU579
 1499 003e DB0F     		lsrs	r3, r3, #31
 1500 0040 43EA4103 		orr	r3, r3, r1, lsl #1
 1501              	.LVL180:
 1502              		.loc 2 235 69 view .LVU580
 1503              	.LBE147:
 1504              	.LBE146:
 148:../Common/IQMath/ti/_IQNasin_acos.c ****     
 1505              		.loc 1 148 5 is_stmt 1 view .LVU581
 148:../Common/IQMath/ti/_IQNasin_acos.c ****     
 1506              		.loc 1 148 31 is_stmt 0 view .LVU582
 1507 0044 5168     		ldr	r1, [r2, #4]
 148:../Common/IQMath/ti/_IQNasin_acos.c ****     
 1508              		.loc 1 148 16 view .LVU583
 1509 0046 0B44     		add	r3, r3, r1
 1510              	.LVL181:
 151:../Common/IQMath/ti/_IQNasin_acos.c ****     
 1511              		.loc 1 151 5 is_stmt 1 view .LVU584
 1512              	.LBB148:
 1513              	.LBI148:
 233:../Common/IQMath/ti/./support/RTS_support.h **** {
 1514              		.loc 2 233 28 view .LVU585
 1515              	.LBB149:
 1516              		.loc 2 235 5 view .LVU586
 1517              		.loc 2 235 49 is_stmt 0 view .LVU587
 1518 0048 D917     		asrs	r1, r3, #31
 1519              		.loc 2 235 47 view .LVU588
 1520 004a 00FB01F1 		mul	r1, r0, r1
 1521 004e 03FB0C11 		mla	r1, r3, ip, r1
 1522 0052 A0FB033E 		umull	r3, lr, r0, r3
 1523              	.LVL182:
 1524              		.loc 2 235 47 view .LVU589
 1525 0056 7144     		add	r1, r1, lr
 1526              		.loc 2 235 69 view .LVU590
 1527 0058 DB0F     		lsrs	r3, r3, #31
 1528 005a 43EA4103 		orr	r3, r3, r1, lsl #1
 1529              	.LVL183:
 1530              		.loc 2 235 69 view .LVU591
 1531              	.LBE149:
 1532              	.LBE148:
 154:../Common/IQMath/ti/_IQNasin_acos.c ****     
 1533              		.loc 1 154 5 is_stmt 1 view .LVU592
 154:../Common/IQMath/ti/_IQNasin_acos.c ****     
 1534              		.loc 1 154 31 is_stmt 0 view .LVU593
 1535 005e 9168     		ldr	r1, [r2, #8]
 154:../Common/IQMath/ti/_IQNasin_acos.c ****     
 1536              		.loc 1 154 16 view .LVU594
 1537 0060 0B44     		add	r3, r3, r1
ARM GAS  C:\Users\57308\AppData\Local\Temp\cc4OkGld.s 			page 44


 1538              	.LVL184:
 157:../Common/IQMath/ti/_IQNasin_acos.c ****     
 1539              		.loc 1 157 5 is_stmt 1 view .LVU595
 1540              	.LBB150:
 1541              	.LBI150:
 233:../Common/IQMath/ti/./support/RTS_support.h **** {
 1542              		.loc 2 233 28 view .LVU596
 1543              	.LBB151:
 1544              		.loc 2 235 5 view .LVU597
 1545              		.loc 2 235 49 is_stmt 0 view .LVU598
 1546 0062 D917     		asrs	r1, r3, #31
 1547              		.loc 2 235 47 view .LVU599
 1548 0064 00FB01F1 		mul	r1, r0, r1
 1549 0068 03FB0C11 		mla	r1, r3, ip, r1
 1550 006c A0FB033E 		umull	r3, lr, r0, r3
 1551              	.LVL185:
 1552              		.loc 2 235 47 view .LVU600
 1553 0070 7144     		add	r1, r1, lr
 1554              		.loc 2 235 69 view .LVU601
 1555 0072 DB0F     		lsrs	r3, r3, #31
 1556 0074 43EA4103 		orr	r3, r3, r1, lsl #1
 1557              	.LVL186:
 1558              		.loc 2 235 69 view .LVU602
 1559              	.LBE151:
 1560              	.LBE150:
 160:../Common/IQMath/ti/_IQNasin_acos.c ****     
 1561              		.loc 1 160 5 is_stmt 1 view .LVU603
 160:../Common/IQMath/ti/_IQNasin_acos.c ****     
 1562              		.loc 1 160 31 is_stmt 0 view .LVU604
 1563 0078 D168     		ldr	r1, [r2, #12]
 160:../Common/IQMath/ti/_IQNasin_acos.c ****     
 1564              		.loc 1 160 16 view .LVU605
 1565 007a 0B44     		add	r3, r3, r1
 1566              	.LVL187:
 163:../Common/IQMath/ti/_IQNasin_acos.c ****     
 1567              		.loc 1 163 5 is_stmt 1 view .LVU606
 1568              	.LBB152:
 1569              	.LBI152:
 233:../Common/IQMath/ti/./support/RTS_support.h **** {
 1570              		.loc 2 233 28 view .LVU607
 1571              	.LBB153:
 1572              		.loc 2 235 5 view .LVU608
 1573              		.loc 2 235 49 is_stmt 0 view .LVU609
 1574 007c D917     		asrs	r1, r3, #31
 1575              		.loc 2 235 47 view .LVU610
 1576 007e 00FB01F1 		mul	r1, r0, r1
 1577 0082 03FB0C11 		mla	r1, r3, ip, r1
 1578 0086 A0FB0303 		umull	r0, r3, r0, r3
 1579              	.LVL188:
 1580              		.loc 2 235 47 view .LVU611
 1581 008a 0B44     		add	r3, r3, r1
 1582              		.loc 2 235 69 view .LVU612
 1583 008c C00F     		lsrs	r0, r0, #31
 1584 008e 40EA4300 		orr	r0, r0, r3, lsl #1
 1585              	.LVL189:
 1586              		.loc 2 235 69 view .LVU613
 1587              	.LBE153:
ARM GAS  C:\Users\57308\AppData\Local\Temp\cc4OkGld.s 			page 45


 1588              	.LBE152:
 166:../Common/IQMath/ti/_IQNasin_acos.c ****     
 1589              		.loc 1 166 5 is_stmt 1 view .LVU614
 166:../Common/IQMath/ti/_IQNasin_acos.c ****     
 1590              		.loc 1 166 31 is_stmt 0 view .LVU615
 1591 0092 1369     		ldr	r3, [r2, #16]
 166:../Common/IQMath/ti/_IQNasin_acos.c ****     
 1592              		.loc 1 166 16 view .LVU616
 1593 0094 1844     		add	r0, r0, r3
 1594              	.LVL190:
 172:../Common/IQMath/ti/_IQNasin_acos.c ****     
 1595              		.loc 1 172 5 is_stmt 1 view .LVU617
 172:../Common/IQMath/ti/_IQNasin_acos.c ****     
 1596              		.loc 1 172 5 is_stmt 0 view .LVU618
 1597              	.LBE154:
 1598              	.LBE156:
  72:../Common/IQMath/ti/./support/RTS_support.h **** }
 1599              		.loc 2 72 5 is_stmt 1 view .LVU619
 1600              	.LBB157:
 1601              	.LBB155:
 175:../Common/IQMath/ti/_IQNasin_acos.c ****         /* asin(x) = pi/2 - 2*iq29Result */
 1602              		.loc 1 175 5 view .LVU620
 175:../Common/IQMath/ti/_IQNasin_acos.c ****         /* asin(x) = pi/2 - 2*iq29Result */
 1603              		.loc 1 175 8 is_stmt 0 view .LVU621
 1604 0096 14F0020F 		tst	r4, #2
 1605 009a 02D0     		beq	.L65
 177:../Common/IQMath/ti/_IQNasin_acos.c ****         iq29Result -= iq29_halfPi;      // this is equivalent to the above
 1606              		.loc 1 177 9 is_stmt 1 view .LVU622
 1607              	.LVL191:
 178:../Common/IQMath/ti/_IQNasin_acos.c ****         iq29Result = -iq29Result;       // but avoids using temporary registers
 1608              		.loc 1 178 9 view .LVU623
 179:../Common/IQMath/ti/_IQNasin_acos.c ****     }
 1609              		.loc 1 179 9 view .LVU624
 179:../Common/IQMath/ti/_IQNasin_acos.c ****     }
 1610              		.loc 1 179 20 is_stmt 0 view .LVU625
 1611 009c 0A4B     		ldr	r3, .L71+4
 1612 009e A3EB4000 		sub	r0, r3, r0, lsl #1
 1613              	.LVL192:
 1614              	.L65:
 183:../Common/IQMath/ti/_IQNasin_acos.c ****     
 1615              		.loc 1 183 5 is_stmt 1 view .LVU626
 183:../Common/IQMath/ti/_IQNasin_acos.c ****     
 1616              		.loc 1 183 16 is_stmt 0 view .LVU627
 1617 00a2 4011     		asrs	r0, r0, #5
 1618              	.LVL193:
 186:../Common/IQMath/ti/_IQNasin_acos.c ****         iq29Result = -iq29Result;
 1619              		.loc 1 186 5 is_stmt 1 view .LVU628
 186:../Common/IQMath/ti/_IQNasin_acos.c ****         iq29Result = -iq29Result;
 1620              		.loc 1 186 8 is_stmt 0 view .LVU629
 1621 00a4 14F0010F 		tst	r4, #1
 1622 00a8 0BD0     		beq	.L61
 187:../Common/IQMath/ti/_IQNasin_acos.c ****     }
 1623              		.loc 1 187 9 is_stmt 1 view .LVU630
 187:../Common/IQMath/ti/_IQNasin_acos.c ****     }
 1624              		.loc 1 187 20 is_stmt 0 view .LVU631
 1625 00aa 4042     		rsbs	r0, r0, #0
 1626              	.LVL194:
ARM GAS  C:\Users\57308\AppData\Local\Temp\cc4OkGld.s 			page 46


 187:../Common/IQMath/ti/_IQNasin_acos.c ****     }
 1627              		.loc 1 187 20 view .LVU632
 1628 00ac 09E0     		b	.L61
 1629              	.LVL195:
 1630              	.L69:
  90:../Common/IQMath/ti/_IQNasin_acos.c ****         iqNInput = -iqNInput;
 1631              		.loc 1 90 9 is_stmt 1 view .LVU633
  91:../Common/IQMath/ti/_IQNasin_acos.c ****     }
 1632              		.loc 1 91 9 view .LVU634
  91:../Common/IQMath/ti/_IQNasin_acos.c ****     }
 1633              		.loc 1 91 18 is_stmt 0 view .LVU635
 1634 00ae 4042     		rsbs	r0, r0, #0
 1635              	.LVL196:
  90:../Common/IQMath/ti/_IQNasin_acos.c ****         iqNInput = -iqNInput;
 1636              		.loc 1 90 19 view .LVU636
 1637 00b0 0124     		movs	r4, #1
 1638 00b2 A9E7     		b	.L62
 1639              	.LVL197:
 1640              	.L70:
 115:../Common/IQMath/ti/_IQNasin_acos.c ****         
 1641              		.loc 1 115 9 is_stmt 1 view .LVU637
 118:../Common/IQMath/ti/_IQNasin_acos.c ****         
 1642              		.loc 1 118 9 view .LVU638
 118:../Common/IQMath/ti/_IQNasin_acos.c ****         
 1643              		.loc 1 118 22 is_stmt 0 view .LVU639
 1644 00b4 5808     		lsrs	r0, r3, #1
 1645              	.LVL198:
 118:../Common/IQMath/ti/_IQNasin_acos.c ****         
 1646              		.loc 1 118 22 view .LVU640
 1647 00b6 FFF7FEFF 		bl	_IQ31sqrt
 1648              	.LVL199:
 121:../Common/IQMath/ti/_IQNasin_acos.c ****     }
 1649              		.loc 1 121 9 is_stmt 1 view .LVU641
 121:../Common/IQMath/ti/_IQNasin_acos.c ****     }
 1650              		.loc 1 121 19 is_stmt 0 view .LVU642
 1651 00ba 44F00204 		orr	r4, r4, #2
 1652              	.LVL200:
 121:../Common/IQMath/ti/_IQNasin_acos.c ****     }
 1653              		.loc 1 121 19 view .LVU643
 1654 00be ACE7     		b	.L64
 1655              	.LVL201:
 1656              	.L67:
 100:../Common/IQMath/ti/_IQNasin_acos.c ****     }
 1657              		.loc 1 100 16 view .LVU644
 1658 00c0 0020     		movs	r0, #0
 1659              	.LVL202:
 1660              	.L61:
 100:../Common/IQMath/ti/_IQNasin_acos.c ****     }
 1661              		.loc 1 100 16 view .LVU645
 1662              	.LBE155:
 1663              	.LBE157:
 259:../Common/IQMath/ti/_IQNasin_acos.c **** }
 1664              		.loc 1 259 1 view .LVU646
 1665 00c2 10BD     		pop	{r4, pc}
 1666              	.L72:
 1667              		.align	2
 1668              	.L71:
ARM GAS  C:\Users\57308\AppData\Local\Temp\cc4OkGld.s 			page 47


 1669 00c4 00000000 		.word	_IQ29Asin_coeffs
 1670 00c8 A8F64332 		.word	843314856
 1671              		.cfi_endproc
 1672              	.LFE267:
 1674              		.section	.text._IQ23asin,"ax",%progbits
 1675              		.align	1
 1676              		.global	_IQ23asin
 1677              		.syntax unified
 1678              		.thumb
 1679              		.thumb_func
 1681              	_IQ23asin:
 1682              	.LVL203:
 1683              	.LFB268:
 260:../Common/IQMath/ti/_IQNasin_acos.c **** /**
 261:../Common/IQMath/ti/_IQNasin_acos.c ****  * @brief Computes the inverse sine of the IQ23 input.
 262:../Common/IQMath/ti/_IQNasin_acos.c ****  *
 263:../Common/IQMath/ti/_IQNasin_acos.c ****  * @param a               IQ23 type input.
 264:../Common/IQMath/ti/_IQNasin_acos.c ****  *
 265:../Common/IQMath/ti/_IQNasin_acos.c ****  * @return                IQ23 type result of inverse sine.
 266:../Common/IQMath/ti/_IQNasin_acos.c ****  */ 
 267:../Common/IQMath/ti/_IQNasin_acos.c **** int32_t _IQ23asin(int32_t a)
 268:../Common/IQMath/ti/_IQNasin_acos.c **** {
 1684              		.loc 1 268 1 is_stmt 1 view -0
 1685              		.cfi_startproc
 1686              		@ args = 0, pretend = 0, frame = 0
 1687              		@ frame_needed = 0, uses_anonymous_args = 0
 1688              		.loc 1 268 1 is_stmt 0 view .LVU648
 1689 0000 10B5     		push	{r4, lr}
 1690              	.LCFI6:
 1691              		.cfi_def_cfa_offset 8
 1692              		.cfi_offset 4, -8
 1693              		.cfi_offset 14, -4
 269:../Common/IQMath/ti/_IQNasin_acos.c ****     return __IQNasin(a, 23);
 1694              		.loc 1 269 5 is_stmt 1 view .LVU649
 1695              	.LVL204:
 1696              	.LBB168:
 1697              	.LBI168:
  70:../Common/IQMath/ti/_IQNasin_acos.c **** {
 1698              		.loc 1 70 30 view .LVU650
 1699              	.LBB169:
  72:../Common/IQMath/ti/_IQNasin_acos.c ****     uint_fast16_t index;
 1700              		.loc 1 72 5 view .LVU651
  73:../Common/IQMath/ti/_IQNasin_acos.c ****     uint_fast16_t ui16IntState;
 1701              		.loc 1 73 5 view .LVU652
  74:../Common/IQMath/ti/_IQNasin_acos.c ****     uint_fast16_t ui16MPYState;
 1702              		.loc 1 74 5 view .LVU653
  75:../Common/IQMath/ti/_IQNasin_acos.c ****     int_fast32_t iq29Result;
 1703              		.loc 1 75 5 view .LVU654
  76:../Common/IQMath/ti/_IQNasin_acos.c ****     const int_fast32_t *piq29Coeffs;
 1704              		.loc 1 76 5 view .LVU655
  77:../Common/IQMath/ti/_IQNasin_acos.c ****     uint_fast32_t uiq31Input;
 1705              		.loc 1 77 5 view .LVU656
  78:../Common/IQMath/ti/_IQNasin_acos.c ****     uint_fast32_t uiq31InputTemp;
 1706              		.loc 1 78 5 view .LVU657
  79:../Common/IQMath/ti/_IQNasin_acos.c ****     
 1707              		.loc 1 79 5 view .LVU658
  89:../Common/IQMath/ti/_IQNasin_acos.c ****         ui8Status |= 1;
ARM GAS  C:\Users\57308\AppData\Local\Temp\cc4OkGld.s 			page 48


 1708              		.loc 1 89 5 view .LVU659
  89:../Common/IQMath/ti/_IQNasin_acos.c ****         ui8Status |= 1;
 1709              		.loc 1 89 8 is_stmt 0 view .LVU660
 1710 0002 0028     		cmp	r0, #0
  89:../Common/IQMath/ti/_IQNasin_acos.c ****         ui8Status |= 1;
 1711              		.loc 1 89 8 view .LVU661
 1712 0004 53DB     		blt	.L81
  72:../Common/IQMath/ti/_IQNasin_acos.c ****     uint_fast16_t index;
 1713              		.loc 1 72 13 view .LVU662
 1714 0006 0024     		movs	r4, #0
 1715              	.LVL205:
 1716              	.L74:
  99:../Common/IQMath/ti/_IQNasin_acos.c ****         return 0;
 1717              		.loc 1 99 5 is_stmt 1 view .LVU663
  99:../Common/IQMath/ti/_IQNasin_acos.c ****         return 0;
 1718              		.loc 1 99 8 is_stmt 0 view .LVU664
 1719 0008 B0F5000F 		cmp	r0, #8388608
 1720 000c 58D8     		bhi	.L79
 104:../Common/IQMath/ti/_IQNasin_acos.c ****     
 1721              		.loc 1 104 5 is_stmt 1 view .LVU665
 104:../Common/IQMath/ti/_IQNasin_acos.c ****     
 1722              		.loc 1 104 16 is_stmt 0 view .LVU666
 1723 000e 0002     		lsls	r0, r0, #8
 1724              	.LVL206:
 112:../Common/IQMath/ti/_IQNasin_acos.c ****     if (uiq31InputTemp < 0x40000000) {
 1725              		.loc 1 112 5 is_stmt 1 view .LVU667
 112:../Common/IQMath/ti/_IQNasin_acos.c ****     if (uiq31InputTemp < 0x40000000) {
 1726              		.loc 1 112 20 is_stmt 0 view .LVU668
 1727 0010 C0F10043 		rsb	r3, r0, #-2147483648
 1728              	.LVL207:
 113:../Common/IQMath/ti/_IQNasin_acos.c ****         /* Halve the result. */
 1729              		.loc 1 113 5 is_stmt 1 view .LVU669
 113:../Common/IQMath/ti/_IQNasin_acos.c ****         /* Halve the result. */
 1730              		.loc 1 113 8 is_stmt 0 view .LVU670
 1731 0014 B3F1804F 		cmp	r3, #1073741824
 1732 0018 4CD3     		bcc	.L82
 1733              	.LVL208:
 1734              	.L76:
 125:../Common/IQMath/ti/_IQNasin_acos.c ****     
 1735              		.loc 1 125 5 is_stmt 1 view .LVU671
 125:../Common/IQMath/ti/_IQNasin_acos.c ****     
 1736              		.loc 1 125 11 is_stmt 0 view .LVU672
 1737 001a 830E     		lsrs	r3, r0, #26
 1738              	.LVL209:
 128:../Common/IQMath/ti/_IQNasin_acos.c ****     
 1739              		.loc 1 128 5 is_stmt 1 view .LVU673
 128:../Common/IQMath/ti/_IQNasin_acos.c ****     
 1740              		.loc 1 128 17 is_stmt 0 view .LVU674
 1741 001c 03EB8303 		add	r3, r3, r3, lsl #2
 1742              	.LVL210:
 128:../Common/IQMath/ti/_IQNasin_acos.c ****     
 1743              		.loc 1 128 17 view .LVU675
 1744 0020 2849     		ldr	r1, .L83
 1745 0022 01EB8302 		add	r2, r1, r3, lsl #2
 1746              	.LVL211:
 136:../Common/IQMath/ti/_IQNasin_acos.c ****     
 1747              		.loc 1 136 5 is_stmt 1 view .LVU676
ARM GAS  C:\Users\57308\AppData\Local\Temp\cc4OkGld.s 			page 49


 136:../Common/IQMath/ti/_IQNasin_acos.c ****     
 1748              		.loc 1 136 5 is_stmt 0 view .LVU677
 1749              	.LBE169:
 1750              	.LBE168:
  28:../Common/IQMath/ti/./support/RTS_support.h **** }
 1751              		.loc 2 28 5 is_stmt 1 view .LVU678
 1752              	.LBB180:
 1753              	.LBB178:
 145:../Common/IQMath/ti/_IQNasin_acos.c ****     
 1754              		.loc 1 145 5 view .LVU679
 145:../Common/IQMath/ti/_IQNasin_acos.c ****     
 1755              		.loc 1 145 18 is_stmt 0 view .LVU680
 1756 0026 51F82330 		ldr	r3, [r1, r3, lsl #2]
 1757              	.LVL212:
 1758              	.LBB170:
 1759              	.LBI170:
 233:../Common/IQMath/ti/./support/RTS_support.h **** {
 1760              		.loc 2 233 28 is_stmt 1 view .LVU681
 1761              	.LBB171:
 1762              		.loc 2 235 5 view .LVU682
 1763              		.loc 2 235 28 is_stmt 0 view .LVU683
 1764 002a 4FEAE07C 		asr	ip, r0, #31
 1765              		.loc 2 235 49 view .LVU684
 1766 002e D917     		asrs	r1, r3, #31
 1767              		.loc 2 235 47 view .LVU685
 1768 0030 00FB01F1 		mul	r1, r0, r1
 1769 0034 03FB0C11 		mla	r1, r3, ip, r1
 1770 0038 A0FB033E 		umull	r3, lr, r0, r3
 1771              	.LVL213:
 1772              		.loc 2 235 47 view .LVU686
 1773 003c 7144     		add	r1, r1, lr
 1774              		.loc 2 235 69 view .LVU687
 1775 003e DB0F     		lsrs	r3, r3, #31
 1776 0040 43EA4103 		orr	r3, r3, r1, lsl #1
 1777              	.LVL214:
 1778              		.loc 2 235 69 view .LVU688
 1779              	.LBE171:
 1780              	.LBE170:
 148:../Common/IQMath/ti/_IQNasin_acos.c ****     
 1781              		.loc 1 148 5 is_stmt 1 view .LVU689
 148:../Common/IQMath/ti/_IQNasin_acos.c ****     
 1782              		.loc 1 148 31 is_stmt 0 view .LVU690
 1783 0044 5168     		ldr	r1, [r2, #4]
 148:../Common/IQMath/ti/_IQNasin_acos.c ****     
 1784              		.loc 1 148 16 view .LVU691
 1785 0046 0B44     		add	r3, r3, r1
 1786              	.LVL215:
 151:../Common/IQMath/ti/_IQNasin_acos.c ****     
 1787              		.loc 1 151 5 is_stmt 1 view .LVU692
 1788              	.LBB172:
 1789              	.LBI172:
 233:../Common/IQMath/ti/./support/RTS_support.h **** {
 1790              		.loc 2 233 28 view .LVU693
 1791              	.LBB173:
 1792              		.loc 2 235 5 view .LVU694
 1793              		.loc 2 235 49 is_stmt 0 view .LVU695
 1794 0048 D917     		asrs	r1, r3, #31
ARM GAS  C:\Users\57308\AppData\Local\Temp\cc4OkGld.s 			page 50


 1795              		.loc 2 235 47 view .LVU696
 1796 004a 00FB01F1 		mul	r1, r0, r1
 1797 004e 03FB0C11 		mla	r1, r3, ip, r1
 1798 0052 A0FB033E 		umull	r3, lr, r0, r3
 1799              	.LVL216:
 1800              		.loc 2 235 47 view .LVU697
 1801 0056 7144     		add	r1, r1, lr
 1802              		.loc 2 235 69 view .LVU698
 1803 0058 DB0F     		lsrs	r3, r3, #31
 1804 005a 43EA4103 		orr	r3, r3, r1, lsl #1
 1805              	.LVL217:
 1806              		.loc 2 235 69 view .LVU699
 1807              	.LBE173:
 1808              	.LBE172:
 154:../Common/IQMath/ti/_IQNasin_acos.c ****     
 1809              		.loc 1 154 5 is_stmt 1 view .LVU700
 154:../Common/IQMath/ti/_IQNasin_acos.c ****     
 1810              		.loc 1 154 31 is_stmt 0 view .LVU701
 1811 005e 9168     		ldr	r1, [r2, #8]
 154:../Common/IQMath/ti/_IQNasin_acos.c ****     
 1812              		.loc 1 154 16 view .LVU702
 1813 0060 0B44     		add	r3, r3, r1
 1814              	.LVL218:
 157:../Common/IQMath/ti/_IQNasin_acos.c ****     
 1815              		.loc 1 157 5 is_stmt 1 view .LVU703
 1816              	.LBB174:
 1817              	.LBI174:
 233:../Common/IQMath/ti/./support/RTS_support.h **** {
 1818              		.loc 2 233 28 view .LVU704
 1819              	.LBB175:
 1820              		.loc 2 235 5 view .LVU705
 1821              		.loc 2 235 49 is_stmt 0 view .LVU706
 1822 0062 D917     		asrs	r1, r3, #31
 1823              		.loc 2 235 47 view .LVU707
 1824 0064 00FB01F1 		mul	r1, r0, r1
 1825 0068 03FB0C11 		mla	r1, r3, ip, r1
 1826 006c A0FB033E 		umull	r3, lr, r0, r3
 1827              	.LVL219:
 1828              		.loc 2 235 47 view .LVU708
 1829 0070 7144     		add	r1, r1, lr
 1830              		.loc 2 235 69 view .LVU709
 1831 0072 DB0F     		lsrs	r3, r3, #31
 1832 0074 43EA4103 		orr	r3, r3, r1, lsl #1
 1833              	.LVL220:
 1834              		.loc 2 235 69 view .LVU710
 1835              	.LBE175:
 1836              	.LBE174:
 160:../Common/IQMath/ti/_IQNasin_acos.c ****     
 1837              		.loc 1 160 5 is_stmt 1 view .LVU711
 160:../Common/IQMath/ti/_IQNasin_acos.c ****     
 1838              		.loc 1 160 31 is_stmt 0 view .LVU712
 1839 0078 D168     		ldr	r1, [r2, #12]
 160:../Common/IQMath/ti/_IQNasin_acos.c ****     
 1840              		.loc 1 160 16 view .LVU713
 1841 007a 0B44     		add	r3, r3, r1
 1842              	.LVL221:
 163:../Common/IQMath/ti/_IQNasin_acos.c ****     
ARM GAS  C:\Users\57308\AppData\Local\Temp\cc4OkGld.s 			page 51


 1843              		.loc 1 163 5 is_stmt 1 view .LVU714
 1844              	.LBB176:
 1845              	.LBI176:
 233:../Common/IQMath/ti/./support/RTS_support.h **** {
 1846              		.loc 2 233 28 view .LVU715
 1847              	.LBB177:
 1848              		.loc 2 235 5 view .LVU716
 1849              		.loc 2 235 49 is_stmt 0 view .LVU717
 1850 007c D917     		asrs	r1, r3, #31
 1851              		.loc 2 235 47 view .LVU718
 1852 007e 00FB01F1 		mul	r1, r0, r1
 1853 0082 03FB0C11 		mla	r1, r3, ip, r1
 1854 0086 A0FB0303 		umull	r0, r3, r0, r3
 1855              	.LVL222:
 1856              		.loc 2 235 47 view .LVU719
 1857 008a 0B44     		add	r3, r3, r1
 1858              		.loc 2 235 69 view .LVU720
 1859 008c C00F     		lsrs	r0, r0, #31
 1860 008e 40EA4300 		orr	r0, r0, r3, lsl #1
 1861              	.LVL223:
 1862              		.loc 2 235 69 view .LVU721
 1863              	.LBE177:
 1864              	.LBE176:
 166:../Common/IQMath/ti/_IQNasin_acos.c ****     
 1865              		.loc 1 166 5 is_stmt 1 view .LVU722
 166:../Common/IQMath/ti/_IQNasin_acos.c ****     
 1866              		.loc 1 166 31 is_stmt 0 view .LVU723
 1867 0092 1369     		ldr	r3, [r2, #16]
 166:../Common/IQMath/ti/_IQNasin_acos.c ****     
 1868              		.loc 1 166 16 view .LVU724
 1869 0094 1844     		add	r0, r0, r3
 1870              	.LVL224:
 172:../Common/IQMath/ti/_IQNasin_acos.c ****     
 1871              		.loc 1 172 5 is_stmt 1 view .LVU725
 172:../Common/IQMath/ti/_IQNasin_acos.c ****     
 1872              		.loc 1 172 5 is_stmt 0 view .LVU726
 1873              	.LBE178:
 1874              	.LBE180:
  72:../Common/IQMath/ti/./support/RTS_support.h **** }
 1875              		.loc 2 72 5 is_stmt 1 view .LVU727
 1876              	.LBB181:
 1877              	.LBB179:
 175:../Common/IQMath/ti/_IQNasin_acos.c ****         /* asin(x) = pi/2 - 2*iq29Result */
 1878              		.loc 1 175 5 view .LVU728
 175:../Common/IQMath/ti/_IQNasin_acos.c ****         /* asin(x) = pi/2 - 2*iq29Result */
 1879              		.loc 1 175 8 is_stmt 0 view .LVU729
 1880 0096 14F0020F 		tst	r4, #2
 1881 009a 02D0     		beq	.L77
 177:../Common/IQMath/ti/_IQNasin_acos.c ****         iq29Result -= iq29_halfPi;      // this is equivalent to the above
 1882              		.loc 1 177 9 is_stmt 1 view .LVU730
 1883              	.LVL225:
 178:../Common/IQMath/ti/_IQNasin_acos.c ****         iq29Result = -iq29Result;       // but avoids using temporary registers
 1884              		.loc 1 178 9 view .LVU731
 179:../Common/IQMath/ti/_IQNasin_acos.c ****     }
 1885              		.loc 1 179 9 view .LVU732
 179:../Common/IQMath/ti/_IQNasin_acos.c ****     }
 1886              		.loc 1 179 20 is_stmt 0 view .LVU733
ARM GAS  C:\Users\57308\AppData\Local\Temp\cc4OkGld.s 			page 52


 1887 009c 0A4B     		ldr	r3, .L83+4
 1888 009e A3EB4000 		sub	r0, r3, r0, lsl #1
 1889              	.LVL226:
 1890              	.L77:
 183:../Common/IQMath/ti/_IQNasin_acos.c ****     
 1891              		.loc 1 183 5 is_stmt 1 view .LVU734
 183:../Common/IQMath/ti/_IQNasin_acos.c ****     
 1892              		.loc 1 183 16 is_stmt 0 view .LVU735
 1893 00a2 8011     		asrs	r0, r0, #6
 1894              	.LVL227:
 186:../Common/IQMath/ti/_IQNasin_acos.c ****         iq29Result = -iq29Result;
 1895              		.loc 1 186 5 is_stmt 1 view .LVU736
 186:../Common/IQMath/ti/_IQNasin_acos.c ****         iq29Result = -iq29Result;
 1896              		.loc 1 186 8 is_stmt 0 view .LVU737
 1897 00a4 14F0010F 		tst	r4, #1
 1898 00a8 0BD0     		beq	.L73
 187:../Common/IQMath/ti/_IQNasin_acos.c ****     }
 1899              		.loc 1 187 9 is_stmt 1 view .LVU738
 187:../Common/IQMath/ti/_IQNasin_acos.c ****     }
 1900              		.loc 1 187 20 is_stmt 0 view .LVU739
 1901 00aa 4042     		rsbs	r0, r0, #0
 1902              	.LVL228:
 187:../Common/IQMath/ti/_IQNasin_acos.c ****     }
 1903              		.loc 1 187 20 view .LVU740
 1904 00ac 09E0     		b	.L73
 1905              	.LVL229:
 1906              	.L81:
  90:../Common/IQMath/ti/_IQNasin_acos.c ****         iqNInput = -iqNInput;
 1907              		.loc 1 90 9 is_stmt 1 view .LVU741
  91:../Common/IQMath/ti/_IQNasin_acos.c ****     }
 1908              		.loc 1 91 9 view .LVU742
  91:../Common/IQMath/ti/_IQNasin_acos.c ****     }
 1909              		.loc 1 91 18 is_stmt 0 view .LVU743
 1910 00ae 4042     		rsbs	r0, r0, #0
 1911              	.LVL230:
  90:../Common/IQMath/ti/_IQNasin_acos.c ****         iqNInput = -iqNInput;
 1912              		.loc 1 90 19 view .LVU744
 1913 00b0 0124     		movs	r4, #1
 1914 00b2 A9E7     		b	.L74
 1915              	.LVL231:
 1916              	.L82:
 115:../Common/IQMath/ti/_IQNasin_acos.c ****         
 1917              		.loc 1 115 9 is_stmt 1 view .LVU745
 118:../Common/IQMath/ti/_IQNasin_acos.c ****         
 1918              		.loc 1 118 9 view .LVU746
 118:../Common/IQMath/ti/_IQNasin_acos.c ****         
 1919              		.loc 1 118 22 is_stmt 0 view .LVU747
 1920 00b4 5808     		lsrs	r0, r3, #1
 1921              	.LVL232:
 118:../Common/IQMath/ti/_IQNasin_acos.c ****         
 1922              		.loc 1 118 22 view .LVU748
 1923 00b6 FFF7FEFF 		bl	_IQ31sqrt
 1924              	.LVL233:
 121:../Common/IQMath/ti/_IQNasin_acos.c ****     }
 1925              		.loc 1 121 9 is_stmt 1 view .LVU749
 121:../Common/IQMath/ti/_IQNasin_acos.c ****     }
 1926              		.loc 1 121 19 is_stmt 0 view .LVU750
ARM GAS  C:\Users\57308\AppData\Local\Temp\cc4OkGld.s 			page 53


 1927 00ba 44F00204 		orr	r4, r4, #2
 1928              	.LVL234:
 121:../Common/IQMath/ti/_IQNasin_acos.c ****     }
 1929              		.loc 1 121 19 view .LVU751
 1930 00be ACE7     		b	.L76
 1931              	.LVL235:
 1932              	.L79:
 100:../Common/IQMath/ti/_IQNasin_acos.c ****     }
 1933              		.loc 1 100 16 view .LVU752
 1934 00c0 0020     		movs	r0, #0
 1935              	.LVL236:
 1936              	.L73:
 100:../Common/IQMath/ti/_IQNasin_acos.c ****     }
 1937              		.loc 1 100 16 view .LVU753
 1938              	.LBE179:
 1939              	.LBE181:
 270:../Common/IQMath/ti/_IQNasin_acos.c **** }
 1940              		.loc 1 270 1 view .LVU754
 1941 00c2 10BD     		pop	{r4, pc}
 1942              	.L84:
 1943              		.align	2
 1944              	.L83:
 1945 00c4 00000000 		.word	_IQ29Asin_coeffs
 1946 00c8 A8F64332 		.word	843314856
 1947              		.cfi_endproc
 1948              	.LFE268:
 1950              		.section	.text._IQ22asin,"ax",%progbits
 1951              		.align	1
 1952              		.global	_IQ22asin
 1953              		.syntax unified
 1954              		.thumb
 1955              		.thumb_func
 1957              	_IQ22asin:
 1958              	.LVL237:
 1959              	.LFB269:
 271:../Common/IQMath/ti/_IQNasin_acos.c **** /**
 272:../Common/IQMath/ti/_IQNasin_acos.c ****  * @brief Computes the inverse sine of the IQ22 input.
 273:../Common/IQMath/ti/_IQNasin_acos.c ****  *
 274:../Common/IQMath/ti/_IQNasin_acos.c ****  * @param a               IQ22 type input.
 275:../Common/IQMath/ti/_IQNasin_acos.c ****  *
 276:../Common/IQMath/ti/_IQNasin_acos.c ****  * @return                IQ22 type result of inverse sine.
 277:../Common/IQMath/ti/_IQNasin_acos.c ****  */
 278:../Common/IQMath/ti/_IQNasin_acos.c **** int32_t _IQ22asin(int32_t a)
 279:../Common/IQMath/ti/_IQNasin_acos.c **** {
 1960              		.loc 1 279 1 is_stmt 1 view -0
 1961              		.cfi_startproc
 1962              		@ args = 0, pretend = 0, frame = 0
 1963              		@ frame_needed = 0, uses_anonymous_args = 0
 1964              		.loc 1 279 1 is_stmt 0 view .LVU756
 1965 0000 10B5     		push	{r4, lr}
 1966              	.LCFI7:
 1967              		.cfi_def_cfa_offset 8
 1968              		.cfi_offset 4, -8
 1969              		.cfi_offset 14, -4
 280:../Common/IQMath/ti/_IQNasin_acos.c ****     return __IQNasin(a, 22);
 1970              		.loc 1 280 5 is_stmt 1 view .LVU757
 1971              	.LVL238:
ARM GAS  C:\Users\57308\AppData\Local\Temp\cc4OkGld.s 			page 54


 1972              	.LBB192:
 1973              	.LBI192:
  70:../Common/IQMath/ti/_IQNasin_acos.c **** {
 1974              		.loc 1 70 30 view .LVU758
 1975              	.LBB193:
  72:../Common/IQMath/ti/_IQNasin_acos.c ****     uint_fast16_t index;
 1976              		.loc 1 72 5 view .LVU759
  73:../Common/IQMath/ti/_IQNasin_acos.c ****     uint_fast16_t ui16IntState;
 1977              		.loc 1 73 5 view .LVU760
  74:../Common/IQMath/ti/_IQNasin_acos.c ****     uint_fast16_t ui16MPYState;
 1978              		.loc 1 74 5 view .LVU761
  75:../Common/IQMath/ti/_IQNasin_acos.c ****     int_fast32_t iq29Result;
 1979              		.loc 1 75 5 view .LVU762
  76:../Common/IQMath/ti/_IQNasin_acos.c ****     const int_fast32_t *piq29Coeffs;
 1980              		.loc 1 76 5 view .LVU763
  77:../Common/IQMath/ti/_IQNasin_acos.c ****     uint_fast32_t uiq31Input;
 1981              		.loc 1 77 5 view .LVU764
  78:../Common/IQMath/ti/_IQNasin_acos.c ****     uint_fast32_t uiq31InputTemp;
 1982              		.loc 1 78 5 view .LVU765
  79:../Common/IQMath/ti/_IQNasin_acos.c ****     
 1983              		.loc 1 79 5 view .LVU766
  89:../Common/IQMath/ti/_IQNasin_acos.c ****         ui8Status |= 1;
 1984              		.loc 1 89 5 view .LVU767
  89:../Common/IQMath/ti/_IQNasin_acos.c ****         ui8Status |= 1;
 1985              		.loc 1 89 8 is_stmt 0 view .LVU768
 1986 0002 0028     		cmp	r0, #0
  89:../Common/IQMath/ti/_IQNasin_acos.c ****         ui8Status |= 1;
 1987              		.loc 1 89 8 view .LVU769
 1988 0004 53DB     		blt	.L93
  72:../Common/IQMath/ti/_IQNasin_acos.c ****     uint_fast16_t index;
 1989              		.loc 1 72 13 view .LVU770
 1990 0006 0024     		movs	r4, #0
 1991              	.LVL239:
 1992              	.L86:
  99:../Common/IQMath/ti/_IQNasin_acos.c ****         return 0;
 1993              		.loc 1 99 5 is_stmt 1 view .LVU771
  99:../Common/IQMath/ti/_IQNasin_acos.c ****         return 0;
 1994              		.loc 1 99 8 is_stmt 0 view .LVU772
 1995 0008 B0F5800F 		cmp	r0, #4194304
 1996 000c 58D8     		bhi	.L91
 104:../Common/IQMath/ti/_IQNasin_acos.c ****     
 1997              		.loc 1 104 5 is_stmt 1 view .LVU773
 104:../Common/IQMath/ti/_IQNasin_acos.c ****     
 1998              		.loc 1 104 16 is_stmt 0 view .LVU774
 1999 000e 4002     		lsls	r0, r0, #9
 2000              	.LVL240:
 112:../Common/IQMath/ti/_IQNasin_acos.c ****     if (uiq31InputTemp < 0x40000000) {
 2001              		.loc 1 112 5 is_stmt 1 view .LVU775
 112:../Common/IQMath/ti/_IQNasin_acos.c ****     if (uiq31InputTemp < 0x40000000) {
 2002              		.loc 1 112 20 is_stmt 0 view .LVU776
 2003 0010 C0F10043 		rsb	r3, r0, #-2147483648
 2004              	.LVL241:
 113:../Common/IQMath/ti/_IQNasin_acos.c ****         /* Halve the result. */
 2005              		.loc 1 113 5 is_stmt 1 view .LVU777
 113:../Common/IQMath/ti/_IQNasin_acos.c ****         /* Halve the result. */
 2006              		.loc 1 113 8 is_stmt 0 view .LVU778
 2007 0014 B3F1804F 		cmp	r3, #1073741824
ARM GAS  C:\Users\57308\AppData\Local\Temp\cc4OkGld.s 			page 55


 2008 0018 4CD3     		bcc	.L94
 2009              	.LVL242:
 2010              	.L88:
 125:../Common/IQMath/ti/_IQNasin_acos.c ****     
 2011              		.loc 1 125 5 is_stmt 1 view .LVU779
 125:../Common/IQMath/ti/_IQNasin_acos.c ****     
 2012              		.loc 1 125 11 is_stmt 0 view .LVU780
 2013 001a 830E     		lsrs	r3, r0, #26
 2014              	.LVL243:
 128:../Common/IQMath/ti/_IQNasin_acos.c ****     
 2015              		.loc 1 128 5 is_stmt 1 view .LVU781
 128:../Common/IQMath/ti/_IQNasin_acos.c ****     
 2016              		.loc 1 128 17 is_stmt 0 view .LVU782
 2017 001c 03EB8303 		add	r3, r3, r3, lsl #2
 2018              	.LVL244:
 128:../Common/IQMath/ti/_IQNasin_acos.c ****     
 2019              		.loc 1 128 17 view .LVU783
 2020 0020 2849     		ldr	r1, .L95
 2021 0022 01EB8302 		add	r2, r1, r3, lsl #2
 2022              	.LVL245:
 136:../Common/IQMath/ti/_IQNasin_acos.c ****     
 2023              		.loc 1 136 5 is_stmt 1 view .LVU784
 136:../Common/IQMath/ti/_IQNasin_acos.c ****     
 2024              		.loc 1 136 5 is_stmt 0 view .LVU785
 2025              	.LBE193:
 2026              	.LBE192:
  28:../Common/IQMath/ti/./support/RTS_support.h **** }
 2027              		.loc 2 28 5 is_stmt 1 view .LVU786
 2028              	.LBB204:
 2029              	.LBB202:
 145:../Common/IQMath/ti/_IQNasin_acos.c ****     
 2030              		.loc 1 145 5 view .LVU787
 145:../Common/IQMath/ti/_IQNasin_acos.c ****     
 2031              		.loc 1 145 18 is_stmt 0 view .LVU788
 2032 0026 51F82330 		ldr	r3, [r1, r3, lsl #2]
 2033              	.LVL246:
 2034              	.LBB194:
 2035              	.LBI194:
 233:../Common/IQMath/ti/./support/RTS_support.h **** {
 2036              		.loc 2 233 28 is_stmt 1 view .LVU789
 2037              	.LBB195:
 2038              		.loc 2 235 5 view .LVU790
 2039              		.loc 2 235 28 is_stmt 0 view .LVU791
 2040 002a 4FEAE07C 		asr	ip, r0, #31
 2041              		.loc 2 235 49 view .LVU792
 2042 002e D917     		asrs	r1, r3, #31
 2043              		.loc 2 235 47 view .LVU793
 2044 0030 00FB01F1 		mul	r1, r0, r1
 2045 0034 03FB0C11 		mla	r1, r3, ip, r1
 2046 0038 A0FB033E 		umull	r3, lr, r0, r3
 2047              	.LVL247:
 2048              		.loc 2 235 47 view .LVU794
 2049 003c 7144     		add	r1, r1, lr
 2050              		.loc 2 235 69 view .LVU795
 2051 003e DB0F     		lsrs	r3, r3, #31
 2052 0040 43EA4103 		orr	r3, r3, r1, lsl #1
 2053              	.LVL248:
ARM GAS  C:\Users\57308\AppData\Local\Temp\cc4OkGld.s 			page 56


 2054              		.loc 2 235 69 view .LVU796
 2055              	.LBE195:
 2056              	.LBE194:
 148:../Common/IQMath/ti/_IQNasin_acos.c ****     
 2057              		.loc 1 148 5 is_stmt 1 view .LVU797
 148:../Common/IQMath/ti/_IQNasin_acos.c ****     
 2058              		.loc 1 148 31 is_stmt 0 view .LVU798
 2059 0044 5168     		ldr	r1, [r2, #4]
 148:../Common/IQMath/ti/_IQNasin_acos.c ****     
 2060              		.loc 1 148 16 view .LVU799
 2061 0046 0B44     		add	r3, r3, r1
 2062              	.LVL249:
 151:../Common/IQMath/ti/_IQNasin_acos.c ****     
 2063              		.loc 1 151 5 is_stmt 1 view .LVU800
 2064              	.LBB196:
 2065              	.LBI196:
 233:../Common/IQMath/ti/./support/RTS_support.h **** {
 2066              		.loc 2 233 28 view .LVU801
 2067              	.LBB197:
 2068              		.loc 2 235 5 view .LVU802
 2069              		.loc 2 235 49 is_stmt 0 view .LVU803
 2070 0048 D917     		asrs	r1, r3, #31
 2071              		.loc 2 235 47 view .LVU804
 2072 004a 00FB01F1 		mul	r1, r0, r1
 2073 004e 03FB0C11 		mla	r1, r3, ip, r1
 2074 0052 A0FB033E 		umull	r3, lr, r0, r3
 2075              	.LVL250:
 2076              		.loc 2 235 47 view .LVU805
 2077 0056 7144     		add	r1, r1, lr
 2078              		.loc 2 235 69 view .LVU806
 2079 0058 DB0F     		lsrs	r3, r3, #31
 2080 005a 43EA4103 		orr	r3, r3, r1, lsl #1
 2081              	.LVL251:
 2082              		.loc 2 235 69 view .LVU807
 2083              	.LBE197:
 2084              	.LBE196:
 154:../Common/IQMath/ti/_IQNasin_acos.c ****     
 2085              		.loc 1 154 5 is_stmt 1 view .LVU808
 154:../Common/IQMath/ti/_IQNasin_acos.c ****     
 2086              		.loc 1 154 31 is_stmt 0 view .LVU809
 2087 005e 9168     		ldr	r1, [r2, #8]
 154:../Common/IQMath/ti/_IQNasin_acos.c ****     
 2088              		.loc 1 154 16 view .LVU810
 2089 0060 0B44     		add	r3, r3, r1
 2090              	.LVL252:
 157:../Common/IQMath/ti/_IQNasin_acos.c ****     
 2091              		.loc 1 157 5 is_stmt 1 view .LVU811
 2092              	.LBB198:
 2093              	.LBI198:
 233:../Common/IQMath/ti/./support/RTS_support.h **** {
 2094              		.loc 2 233 28 view .LVU812
 2095              	.LBB199:
 2096              		.loc 2 235 5 view .LVU813
 2097              		.loc 2 235 49 is_stmt 0 view .LVU814
 2098 0062 D917     		asrs	r1, r3, #31
 2099              		.loc 2 235 47 view .LVU815
 2100 0064 00FB01F1 		mul	r1, r0, r1
ARM GAS  C:\Users\57308\AppData\Local\Temp\cc4OkGld.s 			page 57


 2101 0068 03FB0C11 		mla	r1, r3, ip, r1
 2102 006c A0FB033E 		umull	r3, lr, r0, r3
 2103              	.LVL253:
 2104              		.loc 2 235 47 view .LVU816
 2105 0070 7144     		add	r1, r1, lr
 2106              		.loc 2 235 69 view .LVU817
 2107 0072 DB0F     		lsrs	r3, r3, #31
 2108 0074 43EA4103 		orr	r3, r3, r1, lsl #1
 2109              	.LVL254:
 2110              		.loc 2 235 69 view .LVU818
 2111              	.LBE199:
 2112              	.LBE198:
 160:../Common/IQMath/ti/_IQNasin_acos.c ****     
 2113              		.loc 1 160 5 is_stmt 1 view .LVU819
 160:../Common/IQMath/ti/_IQNasin_acos.c ****     
 2114              		.loc 1 160 31 is_stmt 0 view .LVU820
 2115 0078 D168     		ldr	r1, [r2, #12]
 160:../Common/IQMath/ti/_IQNasin_acos.c ****     
 2116              		.loc 1 160 16 view .LVU821
 2117 007a 0B44     		add	r3, r3, r1
 2118              	.LVL255:
 163:../Common/IQMath/ti/_IQNasin_acos.c ****     
 2119              		.loc 1 163 5 is_stmt 1 view .LVU822
 2120              	.LBB200:
 2121              	.LBI200:
 233:../Common/IQMath/ti/./support/RTS_support.h **** {
 2122              		.loc 2 233 28 view .LVU823
 2123              	.LBB201:
 2124              		.loc 2 235 5 view .LVU824
 2125              		.loc 2 235 49 is_stmt 0 view .LVU825
 2126 007c D917     		asrs	r1, r3, #31
 2127              		.loc 2 235 47 view .LVU826
 2128 007e 00FB01F1 		mul	r1, r0, r1
 2129 0082 03FB0C11 		mla	r1, r3, ip, r1
 2130 0086 A0FB0303 		umull	r0, r3, r0, r3
 2131              	.LVL256:
 2132              		.loc 2 235 47 view .LVU827
 2133 008a 0B44     		add	r3, r3, r1
 2134              		.loc 2 235 69 view .LVU828
 2135 008c C00F     		lsrs	r0, r0, #31
 2136 008e 40EA4300 		orr	r0, r0, r3, lsl #1
 2137              	.LVL257:
 2138              		.loc 2 235 69 view .LVU829
 2139              	.LBE201:
 2140              	.LBE200:
 166:../Common/IQMath/ti/_IQNasin_acos.c ****     
 2141              		.loc 1 166 5 is_stmt 1 view .LVU830
 166:../Common/IQMath/ti/_IQNasin_acos.c ****     
 2142              		.loc 1 166 31 is_stmt 0 view .LVU831
 2143 0092 1369     		ldr	r3, [r2, #16]
 166:../Common/IQMath/ti/_IQNasin_acos.c ****     
 2144              		.loc 1 166 16 view .LVU832
 2145 0094 1844     		add	r0, r0, r3
 2146              	.LVL258:
 172:../Common/IQMath/ti/_IQNasin_acos.c ****     
 2147              		.loc 1 172 5 is_stmt 1 view .LVU833
 172:../Common/IQMath/ti/_IQNasin_acos.c ****     
ARM GAS  C:\Users\57308\AppData\Local\Temp\cc4OkGld.s 			page 58


 2148              		.loc 1 172 5 is_stmt 0 view .LVU834
 2149              	.LBE202:
 2150              	.LBE204:
  72:../Common/IQMath/ti/./support/RTS_support.h **** }
 2151              		.loc 2 72 5 is_stmt 1 view .LVU835
 2152              	.LBB205:
 2153              	.LBB203:
 175:../Common/IQMath/ti/_IQNasin_acos.c ****         /* asin(x) = pi/2 - 2*iq29Result */
 2154              		.loc 1 175 5 view .LVU836
 175:../Common/IQMath/ti/_IQNasin_acos.c ****         /* asin(x) = pi/2 - 2*iq29Result */
 2155              		.loc 1 175 8 is_stmt 0 view .LVU837
 2156 0096 14F0020F 		tst	r4, #2
 2157 009a 02D0     		beq	.L89
 177:../Common/IQMath/ti/_IQNasin_acos.c ****         iq29Result -= iq29_halfPi;      // this is equivalent to the above
 2158              		.loc 1 177 9 is_stmt 1 view .LVU838
 2159              	.LVL259:
 178:../Common/IQMath/ti/_IQNasin_acos.c ****         iq29Result = -iq29Result;       // but avoids using temporary registers
 2160              		.loc 1 178 9 view .LVU839
 179:../Common/IQMath/ti/_IQNasin_acos.c ****     }
 2161              		.loc 1 179 9 view .LVU840
 179:../Common/IQMath/ti/_IQNasin_acos.c ****     }
 2162              		.loc 1 179 20 is_stmt 0 view .LVU841
 2163 009c 0A4B     		ldr	r3, .L95+4
 2164 009e A3EB4000 		sub	r0, r3, r0, lsl #1
 2165              	.LVL260:
 2166              	.L89:
 183:../Common/IQMath/ti/_IQNasin_acos.c ****     
 2167              		.loc 1 183 5 is_stmt 1 view .LVU842
 183:../Common/IQMath/ti/_IQNasin_acos.c ****     
 2168              		.loc 1 183 16 is_stmt 0 view .LVU843
 2169 00a2 C011     		asrs	r0, r0, #7
 2170              	.LVL261:
 186:../Common/IQMath/ti/_IQNasin_acos.c ****         iq29Result = -iq29Result;
 2171              		.loc 1 186 5 is_stmt 1 view .LVU844
 186:../Common/IQMath/ti/_IQNasin_acos.c ****         iq29Result = -iq29Result;
 2172              		.loc 1 186 8 is_stmt 0 view .LVU845
 2173 00a4 14F0010F 		tst	r4, #1
 2174 00a8 0BD0     		beq	.L85
 187:../Common/IQMath/ti/_IQNasin_acos.c ****     }
 2175              		.loc 1 187 9 is_stmt 1 view .LVU846
 187:../Common/IQMath/ti/_IQNasin_acos.c ****     }
 2176              		.loc 1 187 20 is_stmt 0 view .LVU847
 2177 00aa 4042     		rsbs	r0, r0, #0
 2178              	.LVL262:
 187:../Common/IQMath/ti/_IQNasin_acos.c ****     }
 2179              		.loc 1 187 20 view .LVU848
 2180 00ac 09E0     		b	.L85
 2181              	.LVL263:
 2182              	.L93:
  90:../Common/IQMath/ti/_IQNasin_acos.c ****         iqNInput = -iqNInput;
 2183              		.loc 1 90 9 is_stmt 1 view .LVU849
  91:../Common/IQMath/ti/_IQNasin_acos.c ****     }
 2184              		.loc 1 91 9 view .LVU850
  91:../Common/IQMath/ti/_IQNasin_acos.c ****     }
 2185              		.loc 1 91 18 is_stmt 0 view .LVU851
 2186 00ae 4042     		rsbs	r0, r0, #0
 2187              	.LVL264:
ARM GAS  C:\Users\57308\AppData\Local\Temp\cc4OkGld.s 			page 59


  90:../Common/IQMath/ti/_IQNasin_acos.c ****         iqNInput = -iqNInput;
 2188              		.loc 1 90 19 view .LVU852
 2189 00b0 0124     		movs	r4, #1
 2190 00b2 A9E7     		b	.L86
 2191              	.LVL265:
 2192              	.L94:
 115:../Common/IQMath/ti/_IQNasin_acos.c ****         
 2193              		.loc 1 115 9 is_stmt 1 view .LVU853
 118:../Common/IQMath/ti/_IQNasin_acos.c ****         
 2194              		.loc 1 118 9 view .LVU854
 118:../Common/IQMath/ti/_IQNasin_acos.c ****         
 2195              		.loc 1 118 22 is_stmt 0 view .LVU855
 2196 00b4 5808     		lsrs	r0, r3, #1
 2197              	.LVL266:
 118:../Common/IQMath/ti/_IQNasin_acos.c ****         
 2198              		.loc 1 118 22 view .LVU856
 2199 00b6 FFF7FEFF 		bl	_IQ31sqrt
 2200              	.LVL267:
 121:../Common/IQMath/ti/_IQNasin_acos.c ****     }
 2201              		.loc 1 121 9 is_stmt 1 view .LVU857
 121:../Common/IQMath/ti/_IQNasin_acos.c ****     }
 2202              		.loc 1 121 19 is_stmt 0 view .LVU858
 2203 00ba 44F00204 		orr	r4, r4, #2
 2204              	.LVL268:
 121:../Common/IQMath/ti/_IQNasin_acos.c ****     }
 2205              		.loc 1 121 19 view .LVU859
 2206 00be ACE7     		b	.L88
 2207              	.LVL269:
 2208              	.L91:
 100:../Common/IQMath/ti/_IQNasin_acos.c ****     }
 2209              		.loc 1 100 16 view .LVU860
 2210 00c0 0020     		movs	r0, #0
 2211              	.LVL270:
 2212              	.L85:
 100:../Common/IQMath/ti/_IQNasin_acos.c ****     }
 2213              		.loc 1 100 16 view .LVU861
 2214              	.LBE203:
 2215              	.LBE205:
 281:../Common/IQMath/ti/_IQNasin_acos.c **** }
 2216              		.loc 1 281 1 view .LVU862
 2217 00c2 10BD     		pop	{r4, pc}
 2218              	.L96:
 2219              		.align	2
 2220              	.L95:
 2221 00c4 00000000 		.word	_IQ29Asin_coeffs
 2222 00c8 A8F64332 		.word	843314856
 2223              		.cfi_endproc
 2224              	.LFE269:
 2226              		.section	.text._IQ21asin,"ax",%progbits
 2227              		.align	1
 2228              		.global	_IQ21asin
 2229              		.syntax unified
 2230              		.thumb
 2231              		.thumb_func
 2233              	_IQ21asin:
 2234              	.LVL271:
 2235              	.LFB270:
ARM GAS  C:\Users\57308\AppData\Local\Temp\cc4OkGld.s 			page 60


 282:../Common/IQMath/ti/_IQNasin_acos.c **** /**
 283:../Common/IQMath/ti/_IQNasin_acos.c ****  * @brief Computes the inverse sine of the IQ21 input.
 284:../Common/IQMath/ti/_IQNasin_acos.c ****  *
 285:../Common/IQMath/ti/_IQNasin_acos.c ****  * @param a               IQ21 type input.
 286:../Common/IQMath/ti/_IQNasin_acos.c ****  *
 287:../Common/IQMath/ti/_IQNasin_acos.c ****  * @return                IQ21 type result of inverse sine.
 288:../Common/IQMath/ti/_IQNasin_acos.c ****  */
 289:../Common/IQMath/ti/_IQNasin_acos.c **** int32_t _IQ21asin(int32_t a)
 290:../Common/IQMath/ti/_IQNasin_acos.c **** {
 2236              		.loc 1 290 1 is_stmt 1 view -0
 2237              		.cfi_startproc
 2238              		@ args = 0, pretend = 0, frame = 0
 2239              		@ frame_needed = 0, uses_anonymous_args = 0
 2240              		.loc 1 290 1 is_stmt 0 view .LVU864
 2241 0000 10B5     		push	{r4, lr}
 2242              	.LCFI8:
 2243              		.cfi_def_cfa_offset 8
 2244              		.cfi_offset 4, -8
 2245              		.cfi_offset 14, -4
 291:../Common/IQMath/ti/_IQNasin_acos.c ****     return __IQNasin(a, 21);
 2246              		.loc 1 291 5 is_stmt 1 view .LVU865
 2247              	.LVL272:
 2248              	.LBB216:
 2249              	.LBI216:
  70:../Common/IQMath/ti/_IQNasin_acos.c **** {
 2250              		.loc 1 70 30 view .LVU866
 2251              	.LBB217:
  72:../Common/IQMath/ti/_IQNasin_acos.c ****     uint_fast16_t index;
 2252              		.loc 1 72 5 view .LVU867
  73:../Common/IQMath/ti/_IQNasin_acos.c ****     uint_fast16_t ui16IntState;
 2253              		.loc 1 73 5 view .LVU868
  74:../Common/IQMath/ti/_IQNasin_acos.c ****     uint_fast16_t ui16MPYState;
 2254              		.loc 1 74 5 view .LVU869
  75:../Common/IQMath/ti/_IQNasin_acos.c ****     int_fast32_t iq29Result;
 2255              		.loc 1 75 5 view .LVU870
  76:../Common/IQMath/ti/_IQNasin_acos.c ****     const int_fast32_t *piq29Coeffs;
 2256              		.loc 1 76 5 view .LVU871
  77:../Common/IQMath/ti/_IQNasin_acos.c ****     uint_fast32_t uiq31Input;
 2257              		.loc 1 77 5 view .LVU872
  78:../Common/IQMath/ti/_IQNasin_acos.c ****     uint_fast32_t uiq31InputTemp;
 2258              		.loc 1 78 5 view .LVU873
  79:../Common/IQMath/ti/_IQNasin_acos.c ****     
 2259              		.loc 1 79 5 view .LVU874
  89:../Common/IQMath/ti/_IQNasin_acos.c ****         ui8Status |= 1;
 2260              		.loc 1 89 5 view .LVU875
  89:../Common/IQMath/ti/_IQNasin_acos.c ****         ui8Status |= 1;
 2261              		.loc 1 89 8 is_stmt 0 view .LVU876
 2262 0002 0028     		cmp	r0, #0
  89:../Common/IQMath/ti/_IQNasin_acos.c ****         ui8Status |= 1;
 2263              		.loc 1 89 8 view .LVU877
 2264 0004 53DB     		blt	.L105
  72:../Common/IQMath/ti/_IQNasin_acos.c ****     uint_fast16_t index;
 2265              		.loc 1 72 13 view .LVU878
 2266 0006 0024     		movs	r4, #0
 2267              	.LVL273:
 2268              	.L98:
  99:../Common/IQMath/ti/_IQNasin_acos.c ****         return 0;
ARM GAS  C:\Users\57308\AppData\Local\Temp\cc4OkGld.s 			page 61


 2269              		.loc 1 99 5 is_stmt 1 view .LVU879
  99:../Common/IQMath/ti/_IQNasin_acos.c ****         return 0;
 2270              		.loc 1 99 8 is_stmt 0 view .LVU880
 2271 0008 B0F5001F 		cmp	r0, #2097152
 2272 000c 58D8     		bhi	.L103
 104:../Common/IQMath/ti/_IQNasin_acos.c ****     
 2273              		.loc 1 104 5 is_stmt 1 view .LVU881
 104:../Common/IQMath/ti/_IQNasin_acos.c ****     
 2274              		.loc 1 104 16 is_stmt 0 view .LVU882
 2275 000e 8002     		lsls	r0, r0, #10
 2276              	.LVL274:
 112:../Common/IQMath/ti/_IQNasin_acos.c ****     if (uiq31InputTemp < 0x40000000) {
 2277              		.loc 1 112 5 is_stmt 1 view .LVU883
 112:../Common/IQMath/ti/_IQNasin_acos.c ****     if (uiq31InputTemp < 0x40000000) {
 2278              		.loc 1 112 20 is_stmt 0 view .LVU884
 2279 0010 C0F10043 		rsb	r3, r0, #-2147483648
 2280              	.LVL275:
 113:../Common/IQMath/ti/_IQNasin_acos.c ****         /* Halve the result. */
 2281              		.loc 1 113 5 is_stmt 1 view .LVU885
 113:../Common/IQMath/ti/_IQNasin_acos.c ****         /* Halve the result. */
 2282              		.loc 1 113 8 is_stmt 0 view .LVU886
 2283 0014 B3F1804F 		cmp	r3, #1073741824
 2284 0018 4CD3     		bcc	.L106
 2285              	.LVL276:
 2286              	.L100:
 125:../Common/IQMath/ti/_IQNasin_acos.c ****     
 2287              		.loc 1 125 5 is_stmt 1 view .LVU887
 125:../Common/IQMath/ti/_IQNasin_acos.c ****     
 2288              		.loc 1 125 11 is_stmt 0 view .LVU888
 2289 001a 830E     		lsrs	r3, r0, #26
 2290              	.LVL277:
 128:../Common/IQMath/ti/_IQNasin_acos.c ****     
 2291              		.loc 1 128 5 is_stmt 1 view .LVU889
 128:../Common/IQMath/ti/_IQNasin_acos.c ****     
 2292              		.loc 1 128 17 is_stmt 0 view .LVU890
 2293 001c 03EB8303 		add	r3, r3, r3, lsl #2
 2294              	.LVL278:
 128:../Common/IQMath/ti/_IQNasin_acos.c ****     
 2295              		.loc 1 128 17 view .LVU891
 2296 0020 2849     		ldr	r1, .L107
 2297 0022 01EB8302 		add	r2, r1, r3, lsl #2
 2298              	.LVL279:
 136:../Common/IQMath/ti/_IQNasin_acos.c ****     
 2299              		.loc 1 136 5 is_stmt 1 view .LVU892
 136:../Common/IQMath/ti/_IQNasin_acos.c ****     
 2300              		.loc 1 136 5 is_stmt 0 view .LVU893
 2301              	.LBE217:
 2302              	.LBE216:
  28:../Common/IQMath/ti/./support/RTS_support.h **** }
 2303              		.loc 2 28 5 is_stmt 1 view .LVU894
 2304              	.LBB228:
 2305              	.LBB226:
 145:../Common/IQMath/ti/_IQNasin_acos.c ****     
 2306              		.loc 1 145 5 view .LVU895
 145:../Common/IQMath/ti/_IQNasin_acos.c ****     
 2307              		.loc 1 145 18 is_stmt 0 view .LVU896
 2308 0026 51F82330 		ldr	r3, [r1, r3, lsl #2]
ARM GAS  C:\Users\57308\AppData\Local\Temp\cc4OkGld.s 			page 62


 2309              	.LVL280:
 2310              	.LBB218:
 2311              	.LBI218:
 233:../Common/IQMath/ti/./support/RTS_support.h **** {
 2312              		.loc 2 233 28 is_stmt 1 view .LVU897
 2313              	.LBB219:
 2314              		.loc 2 235 5 view .LVU898
 2315              		.loc 2 235 28 is_stmt 0 view .LVU899
 2316 002a 4FEAE07C 		asr	ip, r0, #31
 2317              		.loc 2 235 49 view .LVU900
 2318 002e D917     		asrs	r1, r3, #31
 2319              		.loc 2 235 47 view .LVU901
 2320 0030 00FB01F1 		mul	r1, r0, r1
 2321 0034 03FB0C11 		mla	r1, r3, ip, r1
 2322 0038 A0FB033E 		umull	r3, lr, r0, r3
 2323              	.LVL281:
 2324              		.loc 2 235 47 view .LVU902
 2325 003c 7144     		add	r1, r1, lr
 2326              		.loc 2 235 69 view .LVU903
 2327 003e DB0F     		lsrs	r3, r3, #31
 2328 0040 43EA4103 		orr	r3, r3, r1, lsl #1
 2329              	.LVL282:
 2330              		.loc 2 235 69 view .LVU904
 2331              	.LBE219:
 2332              	.LBE218:
 148:../Common/IQMath/ti/_IQNasin_acos.c ****     
 2333              		.loc 1 148 5 is_stmt 1 view .LVU905
 148:../Common/IQMath/ti/_IQNasin_acos.c ****     
 2334              		.loc 1 148 31 is_stmt 0 view .LVU906
 2335 0044 5168     		ldr	r1, [r2, #4]
 148:../Common/IQMath/ti/_IQNasin_acos.c ****     
 2336              		.loc 1 148 16 view .LVU907
 2337 0046 0B44     		add	r3, r3, r1
 2338              	.LVL283:
 151:../Common/IQMath/ti/_IQNasin_acos.c ****     
 2339              		.loc 1 151 5 is_stmt 1 view .LVU908
 2340              	.LBB220:
 2341              	.LBI220:
 233:../Common/IQMath/ti/./support/RTS_support.h **** {
 2342              		.loc 2 233 28 view .LVU909
 2343              	.LBB221:
 2344              		.loc 2 235 5 view .LVU910
 2345              		.loc 2 235 49 is_stmt 0 view .LVU911
 2346 0048 D917     		asrs	r1, r3, #31
 2347              		.loc 2 235 47 view .LVU912
 2348 004a 00FB01F1 		mul	r1, r0, r1
 2349 004e 03FB0C11 		mla	r1, r3, ip, r1
 2350 0052 A0FB033E 		umull	r3, lr, r0, r3
 2351              	.LVL284:
 2352              		.loc 2 235 47 view .LVU913
 2353 0056 7144     		add	r1, r1, lr
 2354              		.loc 2 235 69 view .LVU914
 2355 0058 DB0F     		lsrs	r3, r3, #31
 2356 005a 43EA4103 		orr	r3, r3, r1, lsl #1
 2357              	.LVL285:
 2358              		.loc 2 235 69 view .LVU915
 2359              	.LBE221:
ARM GAS  C:\Users\57308\AppData\Local\Temp\cc4OkGld.s 			page 63


 2360              	.LBE220:
 154:../Common/IQMath/ti/_IQNasin_acos.c ****     
 2361              		.loc 1 154 5 is_stmt 1 view .LVU916
 154:../Common/IQMath/ti/_IQNasin_acos.c ****     
 2362              		.loc 1 154 31 is_stmt 0 view .LVU917
 2363 005e 9168     		ldr	r1, [r2, #8]
 154:../Common/IQMath/ti/_IQNasin_acos.c ****     
 2364              		.loc 1 154 16 view .LVU918
 2365 0060 0B44     		add	r3, r3, r1
 2366              	.LVL286:
 157:../Common/IQMath/ti/_IQNasin_acos.c ****     
 2367              		.loc 1 157 5 is_stmt 1 view .LVU919
 2368              	.LBB222:
 2369              	.LBI222:
 233:../Common/IQMath/ti/./support/RTS_support.h **** {
 2370              		.loc 2 233 28 view .LVU920
 2371              	.LBB223:
 2372              		.loc 2 235 5 view .LVU921
 2373              		.loc 2 235 49 is_stmt 0 view .LVU922
 2374 0062 D917     		asrs	r1, r3, #31
 2375              		.loc 2 235 47 view .LVU923
 2376 0064 00FB01F1 		mul	r1, r0, r1
 2377 0068 03FB0C11 		mla	r1, r3, ip, r1
 2378 006c A0FB033E 		umull	r3, lr, r0, r3
 2379              	.LVL287:
 2380              		.loc 2 235 47 view .LVU924
 2381 0070 7144     		add	r1, r1, lr
 2382              		.loc 2 235 69 view .LVU925
 2383 0072 DB0F     		lsrs	r3, r3, #31
 2384 0074 43EA4103 		orr	r3, r3, r1, lsl #1
 2385              	.LVL288:
 2386              		.loc 2 235 69 view .LVU926
 2387              	.LBE223:
 2388              	.LBE222:
 160:../Common/IQMath/ti/_IQNasin_acos.c ****     
 2389              		.loc 1 160 5 is_stmt 1 view .LVU927
 160:../Common/IQMath/ti/_IQNasin_acos.c ****     
 2390              		.loc 1 160 31 is_stmt 0 view .LVU928
 2391 0078 D168     		ldr	r1, [r2, #12]
 160:../Common/IQMath/ti/_IQNasin_acos.c ****     
 2392              		.loc 1 160 16 view .LVU929
 2393 007a 0B44     		add	r3, r3, r1
 2394              	.LVL289:
 163:../Common/IQMath/ti/_IQNasin_acos.c ****     
 2395              		.loc 1 163 5 is_stmt 1 view .LVU930
 2396              	.LBB224:
 2397              	.LBI224:
 233:../Common/IQMath/ti/./support/RTS_support.h **** {
 2398              		.loc 2 233 28 view .LVU931
 2399              	.LBB225:
 2400              		.loc 2 235 5 view .LVU932
 2401              		.loc 2 235 49 is_stmt 0 view .LVU933
 2402 007c D917     		asrs	r1, r3, #31
 2403              		.loc 2 235 47 view .LVU934
 2404 007e 00FB01F1 		mul	r1, r0, r1
 2405 0082 03FB0C11 		mla	r1, r3, ip, r1
 2406 0086 A0FB0303 		umull	r0, r3, r0, r3
ARM GAS  C:\Users\57308\AppData\Local\Temp\cc4OkGld.s 			page 64


 2407              	.LVL290:
 2408              		.loc 2 235 47 view .LVU935
 2409 008a 0B44     		add	r3, r3, r1
 2410              		.loc 2 235 69 view .LVU936
 2411 008c C00F     		lsrs	r0, r0, #31
 2412 008e 40EA4300 		orr	r0, r0, r3, lsl #1
 2413              	.LVL291:
 2414              		.loc 2 235 69 view .LVU937
 2415              	.LBE225:
 2416              	.LBE224:
 166:../Common/IQMath/ti/_IQNasin_acos.c ****     
 2417              		.loc 1 166 5 is_stmt 1 view .LVU938
 166:../Common/IQMath/ti/_IQNasin_acos.c ****     
 2418              		.loc 1 166 31 is_stmt 0 view .LVU939
 2419 0092 1369     		ldr	r3, [r2, #16]
 166:../Common/IQMath/ti/_IQNasin_acos.c ****     
 2420              		.loc 1 166 16 view .LVU940
 2421 0094 1844     		add	r0, r0, r3
 2422              	.LVL292:
 172:../Common/IQMath/ti/_IQNasin_acos.c ****     
 2423              		.loc 1 172 5 is_stmt 1 view .LVU941
 172:../Common/IQMath/ti/_IQNasin_acos.c ****     
 2424              		.loc 1 172 5 is_stmt 0 view .LVU942
 2425              	.LBE226:
 2426              	.LBE228:
  72:../Common/IQMath/ti/./support/RTS_support.h **** }
 2427              		.loc 2 72 5 is_stmt 1 view .LVU943
 2428              	.LBB229:
 2429              	.LBB227:
 175:../Common/IQMath/ti/_IQNasin_acos.c ****         /* asin(x) = pi/2 - 2*iq29Result */
 2430              		.loc 1 175 5 view .LVU944
 175:../Common/IQMath/ti/_IQNasin_acos.c ****         /* asin(x) = pi/2 - 2*iq29Result */
 2431              		.loc 1 175 8 is_stmt 0 view .LVU945
 2432 0096 14F0020F 		tst	r4, #2
 2433 009a 02D0     		beq	.L101
 177:../Common/IQMath/ti/_IQNasin_acos.c ****         iq29Result -= iq29_halfPi;      // this is equivalent to the above
 2434              		.loc 1 177 9 is_stmt 1 view .LVU946
 2435              	.LVL293:
 178:../Common/IQMath/ti/_IQNasin_acos.c ****         iq29Result = -iq29Result;       // but avoids using temporary registers
 2436              		.loc 1 178 9 view .LVU947
 179:../Common/IQMath/ti/_IQNasin_acos.c ****     }
 2437              		.loc 1 179 9 view .LVU948
 179:../Common/IQMath/ti/_IQNasin_acos.c ****     }
 2438              		.loc 1 179 20 is_stmt 0 view .LVU949
 2439 009c 0A4B     		ldr	r3, .L107+4
 2440 009e A3EB4000 		sub	r0, r3, r0, lsl #1
 2441              	.LVL294:
 2442              	.L101:
 183:../Common/IQMath/ti/_IQNasin_acos.c ****     
 2443              		.loc 1 183 5 is_stmt 1 view .LVU950
 183:../Common/IQMath/ti/_IQNasin_acos.c ****     
 2444              		.loc 1 183 16 is_stmt 0 view .LVU951
 2445 00a2 0012     		asrs	r0, r0, #8
 2446              	.LVL295:
 186:../Common/IQMath/ti/_IQNasin_acos.c ****         iq29Result = -iq29Result;
 2447              		.loc 1 186 5 is_stmt 1 view .LVU952
 186:../Common/IQMath/ti/_IQNasin_acos.c ****         iq29Result = -iq29Result;
ARM GAS  C:\Users\57308\AppData\Local\Temp\cc4OkGld.s 			page 65


 2448              		.loc 1 186 8 is_stmt 0 view .LVU953
 2449 00a4 14F0010F 		tst	r4, #1
 2450 00a8 0BD0     		beq	.L97
 187:../Common/IQMath/ti/_IQNasin_acos.c ****     }
 2451              		.loc 1 187 9 is_stmt 1 view .LVU954
 187:../Common/IQMath/ti/_IQNasin_acos.c ****     }
 2452              		.loc 1 187 20 is_stmt 0 view .LVU955
 2453 00aa 4042     		rsbs	r0, r0, #0
 2454              	.LVL296:
 187:../Common/IQMath/ti/_IQNasin_acos.c ****     }
 2455              		.loc 1 187 20 view .LVU956
 2456 00ac 09E0     		b	.L97
 2457              	.LVL297:
 2458              	.L105:
  90:../Common/IQMath/ti/_IQNasin_acos.c ****         iqNInput = -iqNInput;
 2459              		.loc 1 90 9 is_stmt 1 view .LVU957
  91:../Common/IQMath/ti/_IQNasin_acos.c ****     }
 2460              		.loc 1 91 9 view .LVU958
  91:../Common/IQMath/ti/_IQNasin_acos.c ****     }
 2461              		.loc 1 91 18 is_stmt 0 view .LVU959
 2462 00ae 4042     		rsbs	r0, r0, #0
 2463              	.LVL298:
  90:../Common/IQMath/ti/_IQNasin_acos.c ****         iqNInput = -iqNInput;
 2464              		.loc 1 90 19 view .LVU960
 2465 00b0 0124     		movs	r4, #1
 2466 00b2 A9E7     		b	.L98
 2467              	.LVL299:
 2468              	.L106:
 115:../Common/IQMath/ti/_IQNasin_acos.c ****         
 2469              		.loc 1 115 9 is_stmt 1 view .LVU961
 118:../Common/IQMath/ti/_IQNasin_acos.c ****         
 2470              		.loc 1 118 9 view .LVU962
 118:../Common/IQMath/ti/_IQNasin_acos.c ****         
 2471              		.loc 1 118 22 is_stmt 0 view .LVU963
 2472 00b4 5808     		lsrs	r0, r3, #1
 2473              	.LVL300:
 118:../Common/IQMath/ti/_IQNasin_acos.c ****         
 2474              		.loc 1 118 22 view .LVU964
 2475 00b6 FFF7FEFF 		bl	_IQ31sqrt
 2476              	.LVL301:
 121:../Common/IQMath/ti/_IQNasin_acos.c ****     }
 2477              		.loc 1 121 9 is_stmt 1 view .LVU965
 121:../Common/IQMath/ti/_IQNasin_acos.c ****     }
 2478              		.loc 1 121 19 is_stmt 0 view .LVU966
 2479 00ba 44F00204 		orr	r4, r4, #2
 2480              	.LVL302:
 121:../Common/IQMath/ti/_IQNasin_acos.c ****     }
 2481              		.loc 1 121 19 view .LVU967
 2482 00be ACE7     		b	.L100
 2483              	.LVL303:
 2484              	.L103:
 100:../Common/IQMath/ti/_IQNasin_acos.c ****     }
 2485              		.loc 1 100 16 view .LVU968
 2486 00c0 0020     		movs	r0, #0
 2487              	.LVL304:
 2488              	.L97:
 100:../Common/IQMath/ti/_IQNasin_acos.c ****     }
ARM GAS  C:\Users\57308\AppData\Local\Temp\cc4OkGld.s 			page 66


 2489              		.loc 1 100 16 view .LVU969
 2490              	.LBE227:
 2491              	.LBE229:
 292:../Common/IQMath/ti/_IQNasin_acos.c **** }
 2492              		.loc 1 292 1 view .LVU970
 2493 00c2 10BD     		pop	{r4, pc}
 2494              	.L108:
 2495              		.align	2
 2496              	.L107:
 2497 00c4 00000000 		.word	_IQ29Asin_coeffs
 2498 00c8 A8F64332 		.word	843314856
 2499              		.cfi_endproc
 2500              	.LFE270:
 2502              		.section	.text._IQ20asin,"ax",%progbits
 2503              		.align	1
 2504              		.global	_IQ20asin
 2505              		.syntax unified
 2506              		.thumb
 2507              		.thumb_func
 2509              	_IQ20asin:
 2510              	.LVL305:
 2511              	.LFB271:
 293:../Common/IQMath/ti/_IQNasin_acos.c **** /**
 294:../Common/IQMath/ti/_IQNasin_acos.c ****  * @brief Computes the inverse sine of the IQ20 input.
 295:../Common/IQMath/ti/_IQNasin_acos.c ****  *
 296:../Common/IQMath/ti/_IQNasin_acos.c ****  * @param a               IQ20 type input.
 297:../Common/IQMath/ti/_IQNasin_acos.c ****  *
 298:../Common/IQMath/ti/_IQNasin_acos.c ****  * @return                IQ20 type result of inverse sine.
 299:../Common/IQMath/ti/_IQNasin_acos.c ****  */
 300:../Common/IQMath/ti/_IQNasin_acos.c **** int32_t _IQ20asin(int32_t a)
 301:../Common/IQMath/ti/_IQNasin_acos.c **** {
 2512              		.loc 1 301 1 is_stmt 1 view -0
 2513              		.cfi_startproc
 2514              		@ args = 0, pretend = 0, frame = 0
 2515              		@ frame_needed = 0, uses_anonymous_args = 0
 2516              		.loc 1 301 1 is_stmt 0 view .LVU972
 2517 0000 10B5     		push	{r4, lr}
 2518              	.LCFI9:
 2519              		.cfi_def_cfa_offset 8
 2520              		.cfi_offset 4, -8
 2521              		.cfi_offset 14, -4
 302:../Common/IQMath/ti/_IQNasin_acos.c ****     return __IQNasin(a, 20);
 2522              		.loc 1 302 5 is_stmt 1 view .LVU973
 2523              	.LVL306:
 2524              	.LBB240:
 2525              	.LBI240:
  70:../Common/IQMath/ti/_IQNasin_acos.c **** {
 2526              		.loc 1 70 30 view .LVU974
 2527              	.LBB241:
  72:../Common/IQMath/ti/_IQNasin_acos.c ****     uint_fast16_t index;
 2528              		.loc 1 72 5 view .LVU975
  73:../Common/IQMath/ti/_IQNasin_acos.c ****     uint_fast16_t ui16IntState;
 2529              		.loc 1 73 5 view .LVU976
  74:../Common/IQMath/ti/_IQNasin_acos.c ****     uint_fast16_t ui16MPYState;
 2530              		.loc 1 74 5 view .LVU977
  75:../Common/IQMath/ti/_IQNasin_acos.c ****     int_fast32_t iq29Result;
 2531              		.loc 1 75 5 view .LVU978
ARM GAS  C:\Users\57308\AppData\Local\Temp\cc4OkGld.s 			page 67


  76:../Common/IQMath/ti/_IQNasin_acos.c ****     const int_fast32_t *piq29Coeffs;
 2532              		.loc 1 76 5 view .LVU979
  77:../Common/IQMath/ti/_IQNasin_acos.c ****     uint_fast32_t uiq31Input;
 2533              		.loc 1 77 5 view .LVU980
  78:../Common/IQMath/ti/_IQNasin_acos.c ****     uint_fast32_t uiq31InputTemp;
 2534              		.loc 1 78 5 view .LVU981
  79:../Common/IQMath/ti/_IQNasin_acos.c ****     
 2535              		.loc 1 79 5 view .LVU982
  89:../Common/IQMath/ti/_IQNasin_acos.c ****         ui8Status |= 1;
 2536              		.loc 1 89 5 view .LVU983
  89:../Common/IQMath/ti/_IQNasin_acos.c ****         ui8Status |= 1;
 2537              		.loc 1 89 8 is_stmt 0 view .LVU984
 2538 0002 0028     		cmp	r0, #0
  89:../Common/IQMath/ti/_IQNasin_acos.c ****         ui8Status |= 1;
 2539              		.loc 1 89 8 view .LVU985
 2540 0004 53DB     		blt	.L117
  72:../Common/IQMath/ti/_IQNasin_acos.c ****     uint_fast16_t index;
 2541              		.loc 1 72 13 view .LVU986
 2542 0006 0024     		movs	r4, #0
 2543              	.LVL307:
 2544              	.L110:
  99:../Common/IQMath/ti/_IQNasin_acos.c ****         return 0;
 2545              		.loc 1 99 5 is_stmt 1 view .LVU987
  99:../Common/IQMath/ti/_IQNasin_acos.c ****         return 0;
 2546              		.loc 1 99 8 is_stmt 0 view .LVU988
 2547 0008 B0F5801F 		cmp	r0, #1048576
 2548 000c 58D8     		bhi	.L115
 104:../Common/IQMath/ti/_IQNasin_acos.c ****     
 2549              		.loc 1 104 5 is_stmt 1 view .LVU989
 104:../Common/IQMath/ti/_IQNasin_acos.c ****     
 2550              		.loc 1 104 16 is_stmt 0 view .LVU990
 2551 000e C002     		lsls	r0, r0, #11
 2552              	.LVL308:
 112:../Common/IQMath/ti/_IQNasin_acos.c ****     if (uiq31InputTemp < 0x40000000) {
 2553              		.loc 1 112 5 is_stmt 1 view .LVU991
 112:../Common/IQMath/ti/_IQNasin_acos.c ****     if (uiq31InputTemp < 0x40000000) {
 2554              		.loc 1 112 20 is_stmt 0 view .LVU992
 2555 0010 C0F10043 		rsb	r3, r0, #-2147483648
 2556              	.LVL309:
 113:../Common/IQMath/ti/_IQNasin_acos.c ****         /* Halve the result. */
 2557              		.loc 1 113 5 is_stmt 1 view .LVU993
 113:../Common/IQMath/ti/_IQNasin_acos.c ****         /* Halve the result. */
 2558              		.loc 1 113 8 is_stmt 0 view .LVU994
 2559 0014 B3F1804F 		cmp	r3, #1073741824
 2560 0018 4CD3     		bcc	.L118
 2561              	.LVL310:
 2562              	.L112:
 125:../Common/IQMath/ti/_IQNasin_acos.c ****     
 2563              		.loc 1 125 5 is_stmt 1 view .LVU995
 125:../Common/IQMath/ti/_IQNasin_acos.c ****     
 2564              		.loc 1 125 11 is_stmt 0 view .LVU996
 2565 001a 830E     		lsrs	r3, r0, #26
 2566              	.LVL311:
 128:../Common/IQMath/ti/_IQNasin_acos.c ****     
 2567              		.loc 1 128 5 is_stmt 1 view .LVU997
 128:../Common/IQMath/ti/_IQNasin_acos.c ****     
 2568              		.loc 1 128 17 is_stmt 0 view .LVU998
ARM GAS  C:\Users\57308\AppData\Local\Temp\cc4OkGld.s 			page 68


 2569 001c 03EB8303 		add	r3, r3, r3, lsl #2
 2570              	.LVL312:
 128:../Common/IQMath/ti/_IQNasin_acos.c ****     
 2571              		.loc 1 128 17 view .LVU999
 2572 0020 2849     		ldr	r1, .L119
 2573 0022 01EB8302 		add	r2, r1, r3, lsl #2
 2574              	.LVL313:
 136:../Common/IQMath/ti/_IQNasin_acos.c ****     
 2575              		.loc 1 136 5 is_stmt 1 view .LVU1000
 136:../Common/IQMath/ti/_IQNasin_acos.c ****     
 2576              		.loc 1 136 5 is_stmt 0 view .LVU1001
 2577              	.LBE241:
 2578              	.LBE240:
  28:../Common/IQMath/ti/./support/RTS_support.h **** }
 2579              		.loc 2 28 5 is_stmt 1 view .LVU1002
 2580              	.LBB252:
 2581              	.LBB250:
 145:../Common/IQMath/ti/_IQNasin_acos.c ****     
 2582              		.loc 1 145 5 view .LVU1003
 145:../Common/IQMath/ti/_IQNasin_acos.c ****     
 2583              		.loc 1 145 18 is_stmt 0 view .LVU1004
 2584 0026 51F82330 		ldr	r3, [r1, r3, lsl #2]
 2585              	.LVL314:
 2586              	.LBB242:
 2587              	.LBI242:
 233:../Common/IQMath/ti/./support/RTS_support.h **** {
 2588              		.loc 2 233 28 is_stmt 1 view .LVU1005
 2589              	.LBB243:
 2590              		.loc 2 235 5 view .LVU1006
 2591              		.loc 2 235 28 is_stmt 0 view .LVU1007
 2592 002a 4FEAE07C 		asr	ip, r0, #31
 2593              		.loc 2 235 49 view .LVU1008
 2594 002e D917     		asrs	r1, r3, #31
 2595              		.loc 2 235 47 view .LVU1009
 2596 0030 00FB01F1 		mul	r1, r0, r1
 2597 0034 03FB0C11 		mla	r1, r3, ip, r1
 2598 0038 A0FB033E 		umull	r3, lr, r0, r3
 2599              	.LVL315:
 2600              		.loc 2 235 47 view .LVU1010
 2601 003c 7144     		add	r1, r1, lr
 2602              		.loc 2 235 69 view .LVU1011
 2603 003e DB0F     		lsrs	r3, r3, #31
 2604 0040 43EA4103 		orr	r3, r3, r1, lsl #1
 2605              	.LVL316:
 2606              		.loc 2 235 69 view .LVU1012
 2607              	.LBE243:
 2608              	.LBE242:
 148:../Common/IQMath/ti/_IQNasin_acos.c ****     
 2609              		.loc 1 148 5 is_stmt 1 view .LVU1013
 148:../Common/IQMath/ti/_IQNasin_acos.c ****     
 2610              		.loc 1 148 31 is_stmt 0 view .LVU1014
 2611 0044 5168     		ldr	r1, [r2, #4]
 148:../Common/IQMath/ti/_IQNasin_acos.c ****     
 2612              		.loc 1 148 16 view .LVU1015
 2613 0046 0B44     		add	r3, r3, r1
 2614              	.LVL317:
 151:../Common/IQMath/ti/_IQNasin_acos.c ****     
ARM GAS  C:\Users\57308\AppData\Local\Temp\cc4OkGld.s 			page 69


 2615              		.loc 1 151 5 is_stmt 1 view .LVU1016
 2616              	.LBB244:
 2617              	.LBI244:
 233:../Common/IQMath/ti/./support/RTS_support.h **** {
 2618              		.loc 2 233 28 view .LVU1017
 2619              	.LBB245:
 2620              		.loc 2 235 5 view .LVU1018
 2621              		.loc 2 235 49 is_stmt 0 view .LVU1019
 2622 0048 D917     		asrs	r1, r3, #31
 2623              		.loc 2 235 47 view .LVU1020
 2624 004a 00FB01F1 		mul	r1, r0, r1
 2625 004e 03FB0C11 		mla	r1, r3, ip, r1
 2626 0052 A0FB033E 		umull	r3, lr, r0, r3
 2627              	.LVL318:
 2628              		.loc 2 235 47 view .LVU1021
 2629 0056 7144     		add	r1, r1, lr
 2630              		.loc 2 235 69 view .LVU1022
 2631 0058 DB0F     		lsrs	r3, r3, #31
 2632 005a 43EA4103 		orr	r3, r3, r1, lsl #1
 2633              	.LVL319:
 2634              		.loc 2 235 69 view .LVU1023
 2635              	.LBE245:
 2636              	.LBE244:
 154:../Common/IQMath/ti/_IQNasin_acos.c ****     
 2637              		.loc 1 154 5 is_stmt 1 view .LVU1024
 154:../Common/IQMath/ti/_IQNasin_acos.c ****     
 2638              		.loc 1 154 31 is_stmt 0 view .LVU1025
 2639 005e 9168     		ldr	r1, [r2, #8]
 154:../Common/IQMath/ti/_IQNasin_acos.c ****     
 2640              		.loc 1 154 16 view .LVU1026
 2641 0060 0B44     		add	r3, r3, r1
 2642              	.LVL320:
 157:../Common/IQMath/ti/_IQNasin_acos.c ****     
 2643              		.loc 1 157 5 is_stmt 1 view .LVU1027
 2644              	.LBB246:
 2645              	.LBI246:
 233:../Common/IQMath/ti/./support/RTS_support.h **** {
 2646              		.loc 2 233 28 view .LVU1028
 2647              	.LBB247:
 2648              		.loc 2 235 5 view .LVU1029
 2649              		.loc 2 235 49 is_stmt 0 view .LVU1030
 2650 0062 D917     		asrs	r1, r3, #31
 2651              		.loc 2 235 47 view .LVU1031
 2652 0064 00FB01F1 		mul	r1, r0, r1
 2653 0068 03FB0C11 		mla	r1, r3, ip, r1
 2654 006c A0FB033E 		umull	r3, lr, r0, r3
 2655              	.LVL321:
 2656              		.loc 2 235 47 view .LVU1032
 2657 0070 7144     		add	r1, r1, lr
 2658              		.loc 2 235 69 view .LVU1033
 2659 0072 DB0F     		lsrs	r3, r3, #31
 2660 0074 43EA4103 		orr	r3, r3, r1, lsl #1
 2661              	.LVL322:
 2662              		.loc 2 235 69 view .LVU1034
 2663              	.LBE247:
 2664              	.LBE246:
 160:../Common/IQMath/ti/_IQNasin_acos.c ****     
ARM GAS  C:\Users\57308\AppData\Local\Temp\cc4OkGld.s 			page 70


 2665              		.loc 1 160 5 is_stmt 1 view .LVU1035
 160:../Common/IQMath/ti/_IQNasin_acos.c ****     
 2666              		.loc 1 160 31 is_stmt 0 view .LVU1036
 2667 0078 D168     		ldr	r1, [r2, #12]
 160:../Common/IQMath/ti/_IQNasin_acos.c ****     
 2668              		.loc 1 160 16 view .LVU1037
 2669 007a 0B44     		add	r3, r3, r1
 2670              	.LVL323:
 163:../Common/IQMath/ti/_IQNasin_acos.c ****     
 2671              		.loc 1 163 5 is_stmt 1 view .LVU1038
 2672              	.LBB248:
 2673              	.LBI248:
 233:../Common/IQMath/ti/./support/RTS_support.h **** {
 2674              		.loc 2 233 28 view .LVU1039
 2675              	.LBB249:
 2676              		.loc 2 235 5 view .LVU1040
 2677              		.loc 2 235 49 is_stmt 0 view .LVU1041
 2678 007c D917     		asrs	r1, r3, #31
 2679              		.loc 2 235 47 view .LVU1042
 2680 007e 00FB01F1 		mul	r1, r0, r1
 2681 0082 03FB0C11 		mla	r1, r3, ip, r1
 2682 0086 A0FB0303 		umull	r0, r3, r0, r3
 2683              	.LVL324:
 2684              		.loc 2 235 47 view .LVU1043
 2685 008a 0B44     		add	r3, r3, r1
 2686              		.loc 2 235 69 view .LVU1044
 2687 008c C00F     		lsrs	r0, r0, #31
 2688 008e 40EA4300 		orr	r0, r0, r3, lsl #1
 2689              	.LVL325:
 2690              		.loc 2 235 69 view .LVU1045
 2691              	.LBE249:
 2692              	.LBE248:
 166:../Common/IQMath/ti/_IQNasin_acos.c ****     
 2693              		.loc 1 166 5 is_stmt 1 view .LVU1046
 166:../Common/IQMath/ti/_IQNasin_acos.c ****     
 2694              		.loc 1 166 31 is_stmt 0 view .LVU1047
 2695 0092 1369     		ldr	r3, [r2, #16]
 166:../Common/IQMath/ti/_IQNasin_acos.c ****     
 2696              		.loc 1 166 16 view .LVU1048
 2697 0094 1844     		add	r0, r0, r3
 2698              	.LVL326:
 172:../Common/IQMath/ti/_IQNasin_acos.c ****     
 2699              		.loc 1 172 5 is_stmt 1 view .LVU1049
 172:../Common/IQMath/ti/_IQNasin_acos.c ****     
 2700              		.loc 1 172 5 is_stmt 0 view .LVU1050
 2701              	.LBE250:
 2702              	.LBE252:
  72:../Common/IQMath/ti/./support/RTS_support.h **** }
 2703              		.loc 2 72 5 is_stmt 1 view .LVU1051
 2704              	.LBB253:
 2705              	.LBB251:
 175:../Common/IQMath/ti/_IQNasin_acos.c ****         /* asin(x) = pi/2 - 2*iq29Result */
 2706              		.loc 1 175 5 view .LVU1052
 175:../Common/IQMath/ti/_IQNasin_acos.c ****         /* asin(x) = pi/2 - 2*iq29Result */
 2707              		.loc 1 175 8 is_stmt 0 view .LVU1053
 2708 0096 14F0020F 		tst	r4, #2
 2709 009a 02D0     		beq	.L113
ARM GAS  C:\Users\57308\AppData\Local\Temp\cc4OkGld.s 			page 71


 177:../Common/IQMath/ti/_IQNasin_acos.c ****         iq29Result -= iq29_halfPi;      // this is equivalent to the above
 2710              		.loc 1 177 9 is_stmt 1 view .LVU1054
 2711              	.LVL327:
 178:../Common/IQMath/ti/_IQNasin_acos.c ****         iq29Result = -iq29Result;       // but avoids using temporary registers
 2712              		.loc 1 178 9 view .LVU1055
 179:../Common/IQMath/ti/_IQNasin_acos.c ****     }
 2713              		.loc 1 179 9 view .LVU1056
 179:../Common/IQMath/ti/_IQNasin_acos.c ****     }
 2714              		.loc 1 179 20 is_stmt 0 view .LVU1057
 2715 009c 0A4B     		ldr	r3, .L119+4
 2716 009e A3EB4000 		sub	r0, r3, r0, lsl #1
 2717              	.LVL328:
 2718              	.L113:
 183:../Common/IQMath/ti/_IQNasin_acos.c ****     
 2719              		.loc 1 183 5 is_stmt 1 view .LVU1058
 183:../Common/IQMath/ti/_IQNasin_acos.c ****     
 2720              		.loc 1 183 16 is_stmt 0 view .LVU1059
 2721 00a2 4012     		asrs	r0, r0, #9
 2722              	.LVL329:
 186:../Common/IQMath/ti/_IQNasin_acos.c ****         iq29Result = -iq29Result;
 2723              		.loc 1 186 5 is_stmt 1 view .LVU1060
 186:../Common/IQMath/ti/_IQNasin_acos.c ****         iq29Result = -iq29Result;
 2724              		.loc 1 186 8 is_stmt 0 view .LVU1061
 2725 00a4 14F0010F 		tst	r4, #1
 2726 00a8 0BD0     		beq	.L109
 187:../Common/IQMath/ti/_IQNasin_acos.c ****     }
 2727              		.loc 1 187 9 is_stmt 1 view .LVU1062
 187:../Common/IQMath/ti/_IQNasin_acos.c ****     }
 2728              		.loc 1 187 20 is_stmt 0 view .LVU1063
 2729 00aa 4042     		rsbs	r0, r0, #0
 2730              	.LVL330:
 187:../Common/IQMath/ti/_IQNasin_acos.c ****     }
 2731              		.loc 1 187 20 view .LVU1064
 2732 00ac 09E0     		b	.L109
 2733              	.LVL331:
 2734              	.L117:
  90:../Common/IQMath/ti/_IQNasin_acos.c ****         iqNInput = -iqNInput;
 2735              		.loc 1 90 9 is_stmt 1 view .LVU1065
  91:../Common/IQMath/ti/_IQNasin_acos.c ****     }
 2736              		.loc 1 91 9 view .LVU1066
  91:../Common/IQMath/ti/_IQNasin_acos.c ****     }
 2737              		.loc 1 91 18 is_stmt 0 view .LVU1067
 2738 00ae 4042     		rsbs	r0, r0, #0
 2739              	.LVL332:
  90:../Common/IQMath/ti/_IQNasin_acos.c ****         iqNInput = -iqNInput;
 2740              		.loc 1 90 19 view .LVU1068
 2741 00b0 0124     		movs	r4, #1
 2742 00b2 A9E7     		b	.L110
 2743              	.LVL333:
 2744              	.L118:
 115:../Common/IQMath/ti/_IQNasin_acos.c ****         
 2745              		.loc 1 115 9 is_stmt 1 view .LVU1069
 118:../Common/IQMath/ti/_IQNasin_acos.c ****         
 2746              		.loc 1 118 9 view .LVU1070
 118:../Common/IQMath/ti/_IQNasin_acos.c ****         
 2747              		.loc 1 118 22 is_stmt 0 view .LVU1071
 2748 00b4 5808     		lsrs	r0, r3, #1
ARM GAS  C:\Users\57308\AppData\Local\Temp\cc4OkGld.s 			page 72


 2749              	.LVL334:
 118:../Common/IQMath/ti/_IQNasin_acos.c ****         
 2750              		.loc 1 118 22 view .LVU1072
 2751 00b6 FFF7FEFF 		bl	_IQ31sqrt
 2752              	.LVL335:
 121:../Common/IQMath/ti/_IQNasin_acos.c ****     }
 2753              		.loc 1 121 9 is_stmt 1 view .LVU1073
 121:../Common/IQMath/ti/_IQNasin_acos.c ****     }
 2754              		.loc 1 121 19 is_stmt 0 view .LVU1074
 2755 00ba 44F00204 		orr	r4, r4, #2
 2756              	.LVL336:
 121:../Common/IQMath/ti/_IQNasin_acos.c ****     }
 2757              		.loc 1 121 19 view .LVU1075
 2758 00be ACE7     		b	.L112
 2759              	.LVL337:
 2760              	.L115:
 100:../Common/IQMath/ti/_IQNasin_acos.c ****     }
 2761              		.loc 1 100 16 view .LVU1076
 2762 00c0 0020     		movs	r0, #0
 2763              	.LVL338:
 2764              	.L109:
 100:../Common/IQMath/ti/_IQNasin_acos.c ****     }
 2765              		.loc 1 100 16 view .LVU1077
 2766              	.LBE251:
 2767              	.LBE253:
 303:../Common/IQMath/ti/_IQNasin_acos.c **** }
 2768              		.loc 1 303 1 view .LVU1078
 2769 00c2 10BD     		pop	{r4, pc}
 2770              	.L120:
 2771              		.align	2
 2772              	.L119:
 2773 00c4 00000000 		.word	_IQ29Asin_coeffs
 2774 00c8 A8F64332 		.word	843314856
 2775              		.cfi_endproc
 2776              	.LFE271:
 2778              		.section	.text._IQ19asin,"ax",%progbits
 2779              		.align	1
 2780              		.global	_IQ19asin
 2781              		.syntax unified
 2782              		.thumb
 2783              		.thumb_func
 2785              	_IQ19asin:
 2786              	.LVL339:
 2787              	.LFB272:
 304:../Common/IQMath/ti/_IQNasin_acos.c **** /**
 305:../Common/IQMath/ti/_IQNasin_acos.c ****  * @brief Computes the inverse sine of the IQ19 input.
 306:../Common/IQMath/ti/_IQNasin_acos.c ****  *
 307:../Common/IQMath/ti/_IQNasin_acos.c ****  * @param a               IQ19 type input.
 308:../Common/IQMath/ti/_IQNasin_acos.c ****  *
 309:../Common/IQMath/ti/_IQNasin_acos.c ****  * @return                IQ19 type result of inverse sine.
 310:../Common/IQMath/ti/_IQNasin_acos.c ****  */
 311:../Common/IQMath/ti/_IQNasin_acos.c **** int32_t _IQ19asin(int32_t a)
 312:../Common/IQMath/ti/_IQNasin_acos.c **** {
 2788              		.loc 1 312 1 is_stmt 1 view -0
 2789              		.cfi_startproc
 2790              		@ args = 0, pretend = 0, frame = 0
 2791              		@ frame_needed = 0, uses_anonymous_args = 0
ARM GAS  C:\Users\57308\AppData\Local\Temp\cc4OkGld.s 			page 73


 2792              		.loc 1 312 1 is_stmt 0 view .LVU1080
 2793 0000 10B5     		push	{r4, lr}
 2794              	.LCFI10:
 2795              		.cfi_def_cfa_offset 8
 2796              		.cfi_offset 4, -8
 2797              		.cfi_offset 14, -4
 313:../Common/IQMath/ti/_IQNasin_acos.c ****     return __IQNasin(a, 19);
 2798              		.loc 1 313 5 is_stmt 1 view .LVU1081
 2799              	.LVL340:
 2800              	.LBB264:
 2801              	.LBI264:
  70:../Common/IQMath/ti/_IQNasin_acos.c **** {
 2802              		.loc 1 70 30 view .LVU1082
 2803              	.LBB265:
  72:../Common/IQMath/ti/_IQNasin_acos.c ****     uint_fast16_t index;
 2804              		.loc 1 72 5 view .LVU1083
  73:../Common/IQMath/ti/_IQNasin_acos.c ****     uint_fast16_t ui16IntState;
 2805              		.loc 1 73 5 view .LVU1084
  74:../Common/IQMath/ti/_IQNasin_acos.c ****     uint_fast16_t ui16MPYState;
 2806              		.loc 1 74 5 view .LVU1085
  75:../Common/IQMath/ti/_IQNasin_acos.c ****     int_fast32_t iq29Result;
 2807              		.loc 1 75 5 view .LVU1086
  76:../Common/IQMath/ti/_IQNasin_acos.c ****     const int_fast32_t *piq29Coeffs;
 2808              		.loc 1 76 5 view .LVU1087
  77:../Common/IQMath/ti/_IQNasin_acos.c ****     uint_fast32_t uiq31Input;
 2809              		.loc 1 77 5 view .LVU1088
  78:../Common/IQMath/ti/_IQNasin_acos.c ****     uint_fast32_t uiq31InputTemp;
 2810              		.loc 1 78 5 view .LVU1089
  79:../Common/IQMath/ti/_IQNasin_acos.c ****     
 2811              		.loc 1 79 5 view .LVU1090
  89:../Common/IQMath/ti/_IQNasin_acos.c ****         ui8Status |= 1;
 2812              		.loc 1 89 5 view .LVU1091
  89:../Common/IQMath/ti/_IQNasin_acos.c ****         ui8Status |= 1;
 2813              		.loc 1 89 8 is_stmt 0 view .LVU1092
 2814 0002 0028     		cmp	r0, #0
  89:../Common/IQMath/ti/_IQNasin_acos.c ****         ui8Status |= 1;
 2815              		.loc 1 89 8 view .LVU1093
 2816 0004 53DB     		blt	.L129
  72:../Common/IQMath/ti/_IQNasin_acos.c ****     uint_fast16_t index;
 2817              		.loc 1 72 13 view .LVU1094
 2818 0006 0024     		movs	r4, #0
 2819              	.LVL341:
 2820              	.L122:
  99:../Common/IQMath/ti/_IQNasin_acos.c ****         return 0;
 2821              		.loc 1 99 5 is_stmt 1 view .LVU1095
  99:../Common/IQMath/ti/_IQNasin_acos.c ****         return 0;
 2822              		.loc 1 99 8 is_stmt 0 view .LVU1096
 2823 0008 B0F5002F 		cmp	r0, #524288
 2824 000c 58D8     		bhi	.L127
 104:../Common/IQMath/ti/_IQNasin_acos.c ****     
 2825              		.loc 1 104 5 is_stmt 1 view .LVU1097
 104:../Common/IQMath/ti/_IQNasin_acos.c ****     
 2826              		.loc 1 104 16 is_stmt 0 view .LVU1098
 2827 000e 0003     		lsls	r0, r0, #12
 2828              	.LVL342:
 112:../Common/IQMath/ti/_IQNasin_acos.c ****     if (uiq31InputTemp < 0x40000000) {
 2829              		.loc 1 112 5 is_stmt 1 view .LVU1099
ARM GAS  C:\Users\57308\AppData\Local\Temp\cc4OkGld.s 			page 74


 112:../Common/IQMath/ti/_IQNasin_acos.c ****     if (uiq31InputTemp < 0x40000000) {
 2830              		.loc 1 112 20 is_stmt 0 view .LVU1100
 2831 0010 C0F10043 		rsb	r3, r0, #-2147483648
 2832              	.LVL343:
 113:../Common/IQMath/ti/_IQNasin_acos.c ****         /* Halve the result. */
 2833              		.loc 1 113 5 is_stmt 1 view .LVU1101
 113:../Common/IQMath/ti/_IQNasin_acos.c ****         /* Halve the result. */
 2834              		.loc 1 113 8 is_stmt 0 view .LVU1102
 2835 0014 B3F1804F 		cmp	r3, #1073741824
 2836 0018 4CD3     		bcc	.L130
 2837              	.LVL344:
 2838              	.L124:
 125:../Common/IQMath/ti/_IQNasin_acos.c ****     
 2839              		.loc 1 125 5 is_stmt 1 view .LVU1103
 125:../Common/IQMath/ti/_IQNasin_acos.c ****     
 2840              		.loc 1 125 11 is_stmt 0 view .LVU1104
 2841 001a 830E     		lsrs	r3, r0, #26
 2842              	.LVL345:
 128:../Common/IQMath/ti/_IQNasin_acos.c ****     
 2843              		.loc 1 128 5 is_stmt 1 view .LVU1105
 128:../Common/IQMath/ti/_IQNasin_acos.c ****     
 2844              		.loc 1 128 17 is_stmt 0 view .LVU1106
 2845 001c 03EB8303 		add	r3, r3, r3, lsl #2
 2846              	.LVL346:
 128:../Common/IQMath/ti/_IQNasin_acos.c ****     
 2847              		.loc 1 128 17 view .LVU1107
 2848 0020 2849     		ldr	r1, .L131
 2849 0022 01EB8302 		add	r2, r1, r3, lsl #2
 2850              	.LVL347:
 136:../Common/IQMath/ti/_IQNasin_acos.c ****     
 2851              		.loc 1 136 5 is_stmt 1 view .LVU1108
 136:../Common/IQMath/ti/_IQNasin_acos.c ****     
 2852              		.loc 1 136 5 is_stmt 0 view .LVU1109
 2853              	.LBE265:
 2854              	.LBE264:
  28:../Common/IQMath/ti/./support/RTS_support.h **** }
 2855              		.loc 2 28 5 is_stmt 1 view .LVU1110
 2856              	.LBB276:
 2857              	.LBB274:
 145:../Common/IQMath/ti/_IQNasin_acos.c ****     
 2858              		.loc 1 145 5 view .LVU1111
 145:../Common/IQMath/ti/_IQNasin_acos.c ****     
 2859              		.loc 1 145 18 is_stmt 0 view .LVU1112
 2860 0026 51F82330 		ldr	r3, [r1, r3, lsl #2]
 2861              	.LVL348:
 2862              	.LBB266:
 2863              	.LBI266:
 233:../Common/IQMath/ti/./support/RTS_support.h **** {
 2864              		.loc 2 233 28 is_stmt 1 view .LVU1113
 2865              	.LBB267:
 2866              		.loc 2 235 5 view .LVU1114
 2867              		.loc 2 235 28 is_stmt 0 view .LVU1115
 2868 002a 4FEAE07C 		asr	ip, r0, #31
 2869              		.loc 2 235 49 view .LVU1116
 2870 002e D917     		asrs	r1, r3, #31
 2871              		.loc 2 235 47 view .LVU1117
 2872 0030 00FB01F1 		mul	r1, r0, r1
ARM GAS  C:\Users\57308\AppData\Local\Temp\cc4OkGld.s 			page 75


 2873 0034 03FB0C11 		mla	r1, r3, ip, r1
 2874 0038 A0FB033E 		umull	r3, lr, r0, r3
 2875              	.LVL349:
 2876              		.loc 2 235 47 view .LVU1118
 2877 003c 7144     		add	r1, r1, lr
 2878              		.loc 2 235 69 view .LVU1119
 2879 003e DB0F     		lsrs	r3, r3, #31
 2880 0040 43EA4103 		orr	r3, r3, r1, lsl #1
 2881              	.LVL350:
 2882              		.loc 2 235 69 view .LVU1120
 2883              	.LBE267:
 2884              	.LBE266:
 148:../Common/IQMath/ti/_IQNasin_acos.c ****     
 2885              		.loc 1 148 5 is_stmt 1 view .LVU1121
 148:../Common/IQMath/ti/_IQNasin_acos.c ****     
 2886              		.loc 1 148 31 is_stmt 0 view .LVU1122
 2887 0044 5168     		ldr	r1, [r2, #4]
 148:../Common/IQMath/ti/_IQNasin_acos.c ****     
 2888              		.loc 1 148 16 view .LVU1123
 2889 0046 0B44     		add	r3, r3, r1
 2890              	.LVL351:
 151:../Common/IQMath/ti/_IQNasin_acos.c ****     
 2891              		.loc 1 151 5 is_stmt 1 view .LVU1124
 2892              	.LBB268:
 2893              	.LBI268:
 233:../Common/IQMath/ti/./support/RTS_support.h **** {
 2894              		.loc 2 233 28 view .LVU1125
 2895              	.LBB269:
 2896              		.loc 2 235 5 view .LVU1126
 2897              		.loc 2 235 49 is_stmt 0 view .LVU1127
 2898 0048 D917     		asrs	r1, r3, #31
 2899              		.loc 2 235 47 view .LVU1128
 2900 004a 00FB01F1 		mul	r1, r0, r1
 2901 004e 03FB0C11 		mla	r1, r3, ip, r1
 2902 0052 A0FB033E 		umull	r3, lr, r0, r3
 2903              	.LVL352:
 2904              		.loc 2 235 47 view .LVU1129
 2905 0056 7144     		add	r1, r1, lr
 2906              		.loc 2 235 69 view .LVU1130
 2907 0058 DB0F     		lsrs	r3, r3, #31
 2908 005a 43EA4103 		orr	r3, r3, r1, lsl #1
 2909              	.LVL353:
 2910              		.loc 2 235 69 view .LVU1131
 2911              	.LBE269:
 2912              	.LBE268:
 154:../Common/IQMath/ti/_IQNasin_acos.c ****     
 2913              		.loc 1 154 5 is_stmt 1 view .LVU1132
 154:../Common/IQMath/ti/_IQNasin_acos.c ****     
 2914              		.loc 1 154 31 is_stmt 0 view .LVU1133
 2915 005e 9168     		ldr	r1, [r2, #8]
 154:../Common/IQMath/ti/_IQNasin_acos.c ****     
 2916              		.loc 1 154 16 view .LVU1134
 2917 0060 0B44     		add	r3, r3, r1
 2918              	.LVL354:
 157:../Common/IQMath/ti/_IQNasin_acos.c ****     
 2919              		.loc 1 157 5 is_stmt 1 view .LVU1135
 2920              	.LBB270:
ARM GAS  C:\Users\57308\AppData\Local\Temp\cc4OkGld.s 			page 76


 2921              	.LBI270:
 233:../Common/IQMath/ti/./support/RTS_support.h **** {
 2922              		.loc 2 233 28 view .LVU1136
 2923              	.LBB271:
 2924              		.loc 2 235 5 view .LVU1137
 2925              		.loc 2 235 49 is_stmt 0 view .LVU1138
 2926 0062 D917     		asrs	r1, r3, #31
 2927              		.loc 2 235 47 view .LVU1139
 2928 0064 00FB01F1 		mul	r1, r0, r1
 2929 0068 03FB0C11 		mla	r1, r3, ip, r1
 2930 006c A0FB033E 		umull	r3, lr, r0, r3
 2931              	.LVL355:
 2932              		.loc 2 235 47 view .LVU1140
 2933 0070 7144     		add	r1, r1, lr
 2934              		.loc 2 235 69 view .LVU1141
 2935 0072 DB0F     		lsrs	r3, r3, #31
 2936 0074 43EA4103 		orr	r3, r3, r1, lsl #1
 2937              	.LVL356:
 2938              		.loc 2 235 69 view .LVU1142
 2939              	.LBE271:
 2940              	.LBE270:
 160:../Common/IQMath/ti/_IQNasin_acos.c ****     
 2941              		.loc 1 160 5 is_stmt 1 view .LVU1143
 160:../Common/IQMath/ti/_IQNasin_acos.c ****     
 2942              		.loc 1 160 31 is_stmt 0 view .LVU1144
 2943 0078 D168     		ldr	r1, [r2, #12]
 160:../Common/IQMath/ti/_IQNasin_acos.c ****     
 2944              		.loc 1 160 16 view .LVU1145
 2945 007a 0B44     		add	r3, r3, r1
 2946              	.LVL357:
 163:../Common/IQMath/ti/_IQNasin_acos.c ****     
 2947              		.loc 1 163 5 is_stmt 1 view .LVU1146
 2948              	.LBB272:
 2949              	.LBI272:
 233:../Common/IQMath/ti/./support/RTS_support.h **** {
 2950              		.loc 2 233 28 view .LVU1147
 2951              	.LBB273:
 2952              		.loc 2 235 5 view .LVU1148
 2953              		.loc 2 235 49 is_stmt 0 view .LVU1149
 2954 007c D917     		asrs	r1, r3, #31
 2955              		.loc 2 235 47 view .LVU1150
 2956 007e 00FB01F1 		mul	r1, r0, r1
 2957 0082 03FB0C11 		mla	r1, r3, ip, r1
 2958 0086 A0FB0303 		umull	r0, r3, r0, r3
 2959              	.LVL358:
 2960              		.loc 2 235 47 view .LVU1151
 2961 008a 0B44     		add	r3, r3, r1
 2962              		.loc 2 235 69 view .LVU1152
 2963 008c C00F     		lsrs	r0, r0, #31
 2964 008e 40EA4300 		orr	r0, r0, r3, lsl #1
 2965              	.LVL359:
 2966              		.loc 2 235 69 view .LVU1153
 2967              	.LBE273:
 2968              	.LBE272:
 166:../Common/IQMath/ti/_IQNasin_acos.c ****     
 2969              		.loc 1 166 5 is_stmt 1 view .LVU1154
 166:../Common/IQMath/ti/_IQNasin_acos.c ****     
ARM GAS  C:\Users\57308\AppData\Local\Temp\cc4OkGld.s 			page 77


 2970              		.loc 1 166 31 is_stmt 0 view .LVU1155
 2971 0092 1369     		ldr	r3, [r2, #16]
 166:../Common/IQMath/ti/_IQNasin_acos.c ****     
 2972              		.loc 1 166 16 view .LVU1156
 2973 0094 1844     		add	r0, r0, r3
 2974              	.LVL360:
 172:../Common/IQMath/ti/_IQNasin_acos.c ****     
 2975              		.loc 1 172 5 is_stmt 1 view .LVU1157
 172:../Common/IQMath/ti/_IQNasin_acos.c ****     
 2976              		.loc 1 172 5 is_stmt 0 view .LVU1158
 2977              	.LBE274:
 2978              	.LBE276:
  72:../Common/IQMath/ti/./support/RTS_support.h **** }
 2979              		.loc 2 72 5 is_stmt 1 view .LVU1159
 2980              	.LBB277:
 2981              	.LBB275:
 175:../Common/IQMath/ti/_IQNasin_acos.c ****         /* asin(x) = pi/2 - 2*iq29Result */
 2982              		.loc 1 175 5 view .LVU1160
 175:../Common/IQMath/ti/_IQNasin_acos.c ****         /* asin(x) = pi/2 - 2*iq29Result */
 2983              		.loc 1 175 8 is_stmt 0 view .LVU1161
 2984 0096 14F0020F 		tst	r4, #2
 2985 009a 02D0     		beq	.L125
 177:../Common/IQMath/ti/_IQNasin_acos.c ****         iq29Result -= iq29_halfPi;      // this is equivalent to the above
 2986              		.loc 1 177 9 is_stmt 1 view .LVU1162
 2987              	.LVL361:
 178:../Common/IQMath/ti/_IQNasin_acos.c ****         iq29Result = -iq29Result;       // but avoids using temporary registers
 2988              		.loc 1 178 9 view .LVU1163
 179:../Common/IQMath/ti/_IQNasin_acos.c ****     }
 2989              		.loc 1 179 9 view .LVU1164
 179:../Common/IQMath/ti/_IQNasin_acos.c ****     }
 2990              		.loc 1 179 20 is_stmt 0 view .LVU1165
 2991 009c 0A4B     		ldr	r3, .L131+4
 2992 009e A3EB4000 		sub	r0, r3, r0, lsl #1
 2993              	.LVL362:
 2994              	.L125:
 183:../Common/IQMath/ti/_IQNasin_acos.c ****     
 2995              		.loc 1 183 5 is_stmt 1 view .LVU1166
 183:../Common/IQMath/ti/_IQNasin_acos.c ****     
 2996              		.loc 1 183 16 is_stmt 0 view .LVU1167
 2997 00a2 8012     		asrs	r0, r0, #10
 2998              	.LVL363:
 186:../Common/IQMath/ti/_IQNasin_acos.c ****         iq29Result = -iq29Result;
 2999              		.loc 1 186 5 is_stmt 1 view .LVU1168
 186:../Common/IQMath/ti/_IQNasin_acos.c ****         iq29Result = -iq29Result;
 3000              		.loc 1 186 8 is_stmt 0 view .LVU1169
 3001 00a4 14F0010F 		tst	r4, #1
 3002 00a8 0BD0     		beq	.L121
 187:../Common/IQMath/ti/_IQNasin_acos.c ****     }
 3003              		.loc 1 187 9 is_stmt 1 view .LVU1170
 187:../Common/IQMath/ti/_IQNasin_acos.c ****     }
 3004              		.loc 1 187 20 is_stmt 0 view .LVU1171
 3005 00aa 4042     		rsbs	r0, r0, #0
 3006              	.LVL364:
 187:../Common/IQMath/ti/_IQNasin_acos.c ****     }
 3007              		.loc 1 187 20 view .LVU1172
 3008 00ac 09E0     		b	.L121
 3009              	.LVL365:
ARM GAS  C:\Users\57308\AppData\Local\Temp\cc4OkGld.s 			page 78


 3010              	.L129:
  90:../Common/IQMath/ti/_IQNasin_acos.c ****         iqNInput = -iqNInput;
 3011              		.loc 1 90 9 is_stmt 1 view .LVU1173
  91:../Common/IQMath/ti/_IQNasin_acos.c ****     }
 3012              		.loc 1 91 9 view .LVU1174
  91:../Common/IQMath/ti/_IQNasin_acos.c ****     }
 3013              		.loc 1 91 18 is_stmt 0 view .LVU1175
 3014 00ae 4042     		rsbs	r0, r0, #0
 3015              	.LVL366:
  90:../Common/IQMath/ti/_IQNasin_acos.c ****         iqNInput = -iqNInput;
 3016              		.loc 1 90 19 view .LVU1176
 3017 00b0 0124     		movs	r4, #1
 3018 00b2 A9E7     		b	.L122
 3019              	.LVL367:
 3020              	.L130:
 115:../Common/IQMath/ti/_IQNasin_acos.c ****         
 3021              		.loc 1 115 9 is_stmt 1 view .LVU1177
 118:../Common/IQMath/ti/_IQNasin_acos.c ****         
 3022              		.loc 1 118 9 view .LVU1178
 118:../Common/IQMath/ti/_IQNasin_acos.c ****         
 3023              		.loc 1 118 22 is_stmt 0 view .LVU1179
 3024 00b4 5808     		lsrs	r0, r3, #1
 3025              	.LVL368:
 118:../Common/IQMath/ti/_IQNasin_acos.c ****         
 3026              		.loc 1 118 22 view .LVU1180
 3027 00b6 FFF7FEFF 		bl	_IQ31sqrt
 3028              	.LVL369:
 121:../Common/IQMath/ti/_IQNasin_acos.c ****     }
 3029              		.loc 1 121 9 is_stmt 1 view .LVU1181
 121:../Common/IQMath/ti/_IQNasin_acos.c ****     }
 3030              		.loc 1 121 19 is_stmt 0 view .LVU1182
 3031 00ba 44F00204 		orr	r4, r4, #2
 3032              	.LVL370:
 121:../Common/IQMath/ti/_IQNasin_acos.c ****     }
 3033              		.loc 1 121 19 view .LVU1183
 3034 00be ACE7     		b	.L124
 3035              	.LVL371:
 3036              	.L127:
 100:../Common/IQMath/ti/_IQNasin_acos.c ****     }
 3037              		.loc 1 100 16 view .LVU1184
 3038 00c0 0020     		movs	r0, #0
 3039              	.LVL372:
 3040              	.L121:
 100:../Common/IQMath/ti/_IQNasin_acos.c ****     }
 3041              		.loc 1 100 16 view .LVU1185
 3042              	.LBE275:
 3043              	.LBE277:
 314:../Common/IQMath/ti/_IQNasin_acos.c **** }
 3044              		.loc 1 314 1 view .LVU1186
 3045 00c2 10BD     		pop	{r4, pc}
 3046              	.L132:
 3047              		.align	2
 3048              	.L131:
 3049 00c4 00000000 		.word	_IQ29Asin_coeffs
 3050 00c8 A8F64332 		.word	843314856
 3051              		.cfi_endproc
 3052              	.LFE272:
ARM GAS  C:\Users\57308\AppData\Local\Temp\cc4OkGld.s 			page 79


 3054              		.section	.text._IQ18asin,"ax",%progbits
 3055              		.align	1
 3056              		.global	_IQ18asin
 3057              		.syntax unified
 3058              		.thumb
 3059              		.thumb_func
 3061              	_IQ18asin:
 3062              	.LVL373:
 3063              	.LFB273:
 315:../Common/IQMath/ti/_IQNasin_acos.c **** /**
 316:../Common/IQMath/ti/_IQNasin_acos.c ****  * @brief Computes the inverse sine of the IQ18 input.
 317:../Common/IQMath/ti/_IQNasin_acos.c ****  *
 318:../Common/IQMath/ti/_IQNasin_acos.c ****  * @param a               IQ18 type input.
 319:../Common/IQMath/ti/_IQNasin_acos.c ****  *
 320:../Common/IQMath/ti/_IQNasin_acos.c ****  * @return                IQ18 type result of inverse sine.
 321:../Common/IQMath/ti/_IQNasin_acos.c ****  */
 322:../Common/IQMath/ti/_IQNasin_acos.c **** int32_t _IQ18asin(int32_t a)
 323:../Common/IQMath/ti/_IQNasin_acos.c **** {
 3064              		.loc 1 323 1 is_stmt 1 view -0
 3065              		.cfi_startproc
 3066              		@ args = 0, pretend = 0, frame = 0
 3067              		@ frame_needed = 0, uses_anonymous_args = 0
 3068              		.loc 1 323 1 is_stmt 0 view .LVU1188
 3069 0000 10B5     		push	{r4, lr}
 3070              	.LCFI11:
 3071              		.cfi_def_cfa_offset 8
 3072              		.cfi_offset 4, -8
 3073              		.cfi_offset 14, -4
 324:../Common/IQMath/ti/_IQNasin_acos.c ****     return __IQNasin(a, 18);
 3074              		.loc 1 324 5 is_stmt 1 view .LVU1189
 3075              	.LVL374:
 3076              	.LBB288:
 3077              	.LBI288:
  70:../Common/IQMath/ti/_IQNasin_acos.c **** {
 3078              		.loc 1 70 30 view .LVU1190
 3079              	.LBB289:
  72:../Common/IQMath/ti/_IQNasin_acos.c ****     uint_fast16_t index;
 3080              		.loc 1 72 5 view .LVU1191
  73:../Common/IQMath/ti/_IQNasin_acos.c ****     uint_fast16_t ui16IntState;
 3081              		.loc 1 73 5 view .LVU1192
  74:../Common/IQMath/ti/_IQNasin_acos.c ****     uint_fast16_t ui16MPYState;
 3082              		.loc 1 74 5 view .LVU1193
  75:../Common/IQMath/ti/_IQNasin_acos.c ****     int_fast32_t iq29Result;
 3083              		.loc 1 75 5 view .LVU1194
  76:../Common/IQMath/ti/_IQNasin_acos.c ****     const int_fast32_t *piq29Coeffs;
 3084              		.loc 1 76 5 view .LVU1195
  77:../Common/IQMath/ti/_IQNasin_acos.c ****     uint_fast32_t uiq31Input;
 3085              		.loc 1 77 5 view .LVU1196
  78:../Common/IQMath/ti/_IQNasin_acos.c ****     uint_fast32_t uiq31InputTemp;
 3086              		.loc 1 78 5 view .LVU1197
  79:../Common/IQMath/ti/_IQNasin_acos.c ****     
 3087              		.loc 1 79 5 view .LVU1198
  89:../Common/IQMath/ti/_IQNasin_acos.c ****         ui8Status |= 1;
 3088              		.loc 1 89 5 view .LVU1199
  89:../Common/IQMath/ti/_IQNasin_acos.c ****         ui8Status |= 1;
 3089              		.loc 1 89 8 is_stmt 0 view .LVU1200
 3090 0002 0028     		cmp	r0, #0
ARM GAS  C:\Users\57308\AppData\Local\Temp\cc4OkGld.s 			page 80


  89:../Common/IQMath/ti/_IQNasin_acos.c ****         ui8Status |= 1;
 3091              		.loc 1 89 8 view .LVU1201
 3092 0004 53DB     		blt	.L141
  72:../Common/IQMath/ti/_IQNasin_acos.c ****     uint_fast16_t index;
 3093              		.loc 1 72 13 view .LVU1202
 3094 0006 0024     		movs	r4, #0
 3095              	.LVL375:
 3096              	.L134:
  99:../Common/IQMath/ti/_IQNasin_acos.c ****         return 0;
 3097              		.loc 1 99 5 is_stmt 1 view .LVU1203
  99:../Common/IQMath/ti/_IQNasin_acos.c ****         return 0;
 3098              		.loc 1 99 8 is_stmt 0 view .LVU1204
 3099 0008 B0F5802F 		cmp	r0, #262144
 3100 000c 58D8     		bhi	.L139
 104:../Common/IQMath/ti/_IQNasin_acos.c ****     
 3101              		.loc 1 104 5 is_stmt 1 view .LVU1205
 104:../Common/IQMath/ti/_IQNasin_acos.c ****     
 3102              		.loc 1 104 16 is_stmt 0 view .LVU1206
 3103 000e 4003     		lsls	r0, r0, #13
 3104              	.LVL376:
 112:../Common/IQMath/ti/_IQNasin_acos.c ****     if (uiq31InputTemp < 0x40000000) {
 3105              		.loc 1 112 5 is_stmt 1 view .LVU1207
 112:../Common/IQMath/ti/_IQNasin_acos.c ****     if (uiq31InputTemp < 0x40000000) {
 3106              		.loc 1 112 20 is_stmt 0 view .LVU1208
 3107 0010 C0F10043 		rsb	r3, r0, #-2147483648
 3108              	.LVL377:
 113:../Common/IQMath/ti/_IQNasin_acos.c ****         /* Halve the result. */
 3109              		.loc 1 113 5 is_stmt 1 view .LVU1209
 113:../Common/IQMath/ti/_IQNasin_acos.c ****         /* Halve the result. */
 3110              		.loc 1 113 8 is_stmt 0 view .LVU1210
 3111 0014 B3F1804F 		cmp	r3, #1073741824
 3112 0018 4CD3     		bcc	.L142
 3113              	.LVL378:
 3114              	.L136:
 125:../Common/IQMath/ti/_IQNasin_acos.c ****     
 3115              		.loc 1 125 5 is_stmt 1 view .LVU1211
 125:../Common/IQMath/ti/_IQNasin_acos.c ****     
 3116              		.loc 1 125 11 is_stmt 0 view .LVU1212
 3117 001a 830E     		lsrs	r3, r0, #26
 3118              	.LVL379:
 128:../Common/IQMath/ti/_IQNasin_acos.c ****     
 3119              		.loc 1 128 5 is_stmt 1 view .LVU1213
 128:../Common/IQMath/ti/_IQNasin_acos.c ****     
 3120              		.loc 1 128 17 is_stmt 0 view .LVU1214
 3121 001c 03EB8303 		add	r3, r3, r3, lsl #2
 3122              	.LVL380:
 128:../Common/IQMath/ti/_IQNasin_acos.c ****     
 3123              		.loc 1 128 17 view .LVU1215
 3124 0020 2849     		ldr	r1, .L143
 3125 0022 01EB8302 		add	r2, r1, r3, lsl #2
 3126              	.LVL381:
 136:../Common/IQMath/ti/_IQNasin_acos.c ****     
 3127              		.loc 1 136 5 is_stmt 1 view .LVU1216
 136:../Common/IQMath/ti/_IQNasin_acos.c ****     
 3128              		.loc 1 136 5 is_stmt 0 view .LVU1217
 3129              	.LBE289:
 3130              	.LBE288:
ARM GAS  C:\Users\57308\AppData\Local\Temp\cc4OkGld.s 			page 81


  28:../Common/IQMath/ti/./support/RTS_support.h **** }
 3131              		.loc 2 28 5 is_stmt 1 view .LVU1218
 3132              	.LBB300:
 3133              	.LBB298:
 145:../Common/IQMath/ti/_IQNasin_acos.c ****     
 3134              		.loc 1 145 5 view .LVU1219
 145:../Common/IQMath/ti/_IQNasin_acos.c ****     
 3135              		.loc 1 145 18 is_stmt 0 view .LVU1220
 3136 0026 51F82330 		ldr	r3, [r1, r3, lsl #2]
 3137              	.LVL382:
 3138              	.LBB290:
 3139              	.LBI290:
 233:../Common/IQMath/ti/./support/RTS_support.h **** {
 3140              		.loc 2 233 28 is_stmt 1 view .LVU1221
 3141              	.LBB291:
 3142              		.loc 2 235 5 view .LVU1222
 3143              		.loc 2 235 28 is_stmt 0 view .LVU1223
 3144 002a 4FEAE07C 		asr	ip, r0, #31
 3145              		.loc 2 235 49 view .LVU1224
 3146 002e D917     		asrs	r1, r3, #31
 3147              		.loc 2 235 47 view .LVU1225
 3148 0030 00FB01F1 		mul	r1, r0, r1
 3149 0034 03FB0C11 		mla	r1, r3, ip, r1
 3150 0038 A0FB033E 		umull	r3, lr, r0, r3
 3151              	.LVL383:
 3152              		.loc 2 235 47 view .LVU1226
 3153 003c 7144     		add	r1, r1, lr
 3154              		.loc 2 235 69 view .LVU1227
 3155 003e DB0F     		lsrs	r3, r3, #31
 3156 0040 43EA4103 		orr	r3, r3, r1, lsl #1
 3157              	.LVL384:
 3158              		.loc 2 235 69 view .LVU1228
 3159              	.LBE291:
 3160              	.LBE290:
 148:../Common/IQMath/ti/_IQNasin_acos.c ****     
 3161              		.loc 1 148 5 is_stmt 1 view .LVU1229
 148:../Common/IQMath/ti/_IQNasin_acos.c ****     
 3162              		.loc 1 148 31 is_stmt 0 view .LVU1230
 3163 0044 5168     		ldr	r1, [r2, #4]
 148:../Common/IQMath/ti/_IQNasin_acos.c ****     
 3164              		.loc 1 148 16 view .LVU1231
 3165 0046 0B44     		add	r3, r3, r1
 3166              	.LVL385:
 151:../Common/IQMath/ti/_IQNasin_acos.c ****     
 3167              		.loc 1 151 5 is_stmt 1 view .LVU1232
 3168              	.LBB292:
 3169              	.LBI292:
 233:../Common/IQMath/ti/./support/RTS_support.h **** {
 3170              		.loc 2 233 28 view .LVU1233
 3171              	.LBB293:
 3172              		.loc 2 235 5 view .LVU1234
 3173              		.loc 2 235 49 is_stmt 0 view .LVU1235
 3174 0048 D917     		asrs	r1, r3, #31
 3175              		.loc 2 235 47 view .LVU1236
 3176 004a 00FB01F1 		mul	r1, r0, r1
 3177 004e 03FB0C11 		mla	r1, r3, ip, r1
 3178 0052 A0FB033E 		umull	r3, lr, r0, r3
ARM GAS  C:\Users\57308\AppData\Local\Temp\cc4OkGld.s 			page 82


 3179              	.LVL386:
 3180              		.loc 2 235 47 view .LVU1237
 3181 0056 7144     		add	r1, r1, lr
 3182              		.loc 2 235 69 view .LVU1238
 3183 0058 DB0F     		lsrs	r3, r3, #31
 3184 005a 43EA4103 		orr	r3, r3, r1, lsl #1
 3185              	.LVL387:
 3186              		.loc 2 235 69 view .LVU1239
 3187              	.LBE293:
 3188              	.LBE292:
 154:../Common/IQMath/ti/_IQNasin_acos.c ****     
 3189              		.loc 1 154 5 is_stmt 1 view .LVU1240
 154:../Common/IQMath/ti/_IQNasin_acos.c ****     
 3190              		.loc 1 154 31 is_stmt 0 view .LVU1241
 3191 005e 9168     		ldr	r1, [r2, #8]
 154:../Common/IQMath/ti/_IQNasin_acos.c ****     
 3192              		.loc 1 154 16 view .LVU1242
 3193 0060 0B44     		add	r3, r3, r1
 3194              	.LVL388:
 157:../Common/IQMath/ti/_IQNasin_acos.c ****     
 3195              		.loc 1 157 5 is_stmt 1 view .LVU1243
 3196              	.LBB294:
 3197              	.LBI294:
 233:../Common/IQMath/ti/./support/RTS_support.h **** {
 3198              		.loc 2 233 28 view .LVU1244
 3199              	.LBB295:
 3200              		.loc 2 235 5 view .LVU1245
 3201              		.loc 2 235 49 is_stmt 0 view .LVU1246
 3202 0062 D917     		asrs	r1, r3, #31
 3203              		.loc 2 235 47 view .LVU1247
 3204 0064 00FB01F1 		mul	r1, r0, r1
 3205 0068 03FB0C11 		mla	r1, r3, ip, r1
 3206 006c A0FB033E 		umull	r3, lr, r0, r3
 3207              	.LVL389:
 3208              		.loc 2 235 47 view .LVU1248
 3209 0070 7144     		add	r1, r1, lr
 3210              		.loc 2 235 69 view .LVU1249
 3211 0072 DB0F     		lsrs	r3, r3, #31
 3212 0074 43EA4103 		orr	r3, r3, r1, lsl #1
 3213              	.LVL390:
 3214              		.loc 2 235 69 view .LVU1250
 3215              	.LBE295:
 3216              	.LBE294:
 160:../Common/IQMath/ti/_IQNasin_acos.c ****     
 3217              		.loc 1 160 5 is_stmt 1 view .LVU1251
 160:../Common/IQMath/ti/_IQNasin_acos.c ****     
 3218              		.loc 1 160 31 is_stmt 0 view .LVU1252
 3219 0078 D168     		ldr	r1, [r2, #12]
 160:../Common/IQMath/ti/_IQNasin_acos.c ****     
 3220              		.loc 1 160 16 view .LVU1253
 3221 007a 0B44     		add	r3, r3, r1
 3222              	.LVL391:
 163:../Common/IQMath/ti/_IQNasin_acos.c ****     
 3223              		.loc 1 163 5 is_stmt 1 view .LVU1254
 3224              	.LBB296:
 3225              	.LBI296:
 233:../Common/IQMath/ti/./support/RTS_support.h **** {
ARM GAS  C:\Users\57308\AppData\Local\Temp\cc4OkGld.s 			page 83


 3226              		.loc 2 233 28 view .LVU1255
 3227              	.LBB297:
 3228              		.loc 2 235 5 view .LVU1256
 3229              		.loc 2 235 49 is_stmt 0 view .LVU1257
 3230 007c D917     		asrs	r1, r3, #31
 3231              		.loc 2 235 47 view .LVU1258
 3232 007e 00FB01F1 		mul	r1, r0, r1
 3233 0082 03FB0C11 		mla	r1, r3, ip, r1
 3234 0086 A0FB0303 		umull	r0, r3, r0, r3
 3235              	.LVL392:
 3236              		.loc 2 235 47 view .LVU1259
 3237 008a 0B44     		add	r3, r3, r1
 3238              		.loc 2 235 69 view .LVU1260
 3239 008c C00F     		lsrs	r0, r0, #31
 3240 008e 40EA4300 		orr	r0, r0, r3, lsl #1
 3241              	.LVL393:
 3242              		.loc 2 235 69 view .LVU1261
 3243              	.LBE297:
 3244              	.LBE296:
 166:../Common/IQMath/ti/_IQNasin_acos.c ****     
 3245              		.loc 1 166 5 is_stmt 1 view .LVU1262
 166:../Common/IQMath/ti/_IQNasin_acos.c ****     
 3246              		.loc 1 166 31 is_stmt 0 view .LVU1263
 3247 0092 1369     		ldr	r3, [r2, #16]
 166:../Common/IQMath/ti/_IQNasin_acos.c ****     
 3248              		.loc 1 166 16 view .LVU1264
 3249 0094 1844     		add	r0, r0, r3
 3250              	.LVL394:
 172:../Common/IQMath/ti/_IQNasin_acos.c ****     
 3251              		.loc 1 172 5 is_stmt 1 view .LVU1265
 172:../Common/IQMath/ti/_IQNasin_acos.c ****     
 3252              		.loc 1 172 5 is_stmt 0 view .LVU1266
 3253              	.LBE298:
 3254              	.LBE300:
  72:../Common/IQMath/ti/./support/RTS_support.h **** }
 3255              		.loc 2 72 5 is_stmt 1 view .LVU1267
 3256              	.LBB301:
 3257              	.LBB299:
 175:../Common/IQMath/ti/_IQNasin_acos.c ****         /* asin(x) = pi/2 - 2*iq29Result */
 3258              		.loc 1 175 5 view .LVU1268
 175:../Common/IQMath/ti/_IQNasin_acos.c ****         /* asin(x) = pi/2 - 2*iq29Result */
 3259              		.loc 1 175 8 is_stmt 0 view .LVU1269
 3260 0096 14F0020F 		tst	r4, #2
 3261 009a 02D0     		beq	.L137
 177:../Common/IQMath/ti/_IQNasin_acos.c ****         iq29Result -= iq29_halfPi;      // this is equivalent to the above
 3262              		.loc 1 177 9 is_stmt 1 view .LVU1270
 3263              	.LVL395:
 178:../Common/IQMath/ti/_IQNasin_acos.c ****         iq29Result = -iq29Result;       // but avoids using temporary registers
 3264              		.loc 1 178 9 view .LVU1271
 179:../Common/IQMath/ti/_IQNasin_acos.c ****     }
 3265              		.loc 1 179 9 view .LVU1272
 179:../Common/IQMath/ti/_IQNasin_acos.c ****     }
 3266              		.loc 1 179 20 is_stmt 0 view .LVU1273
 3267 009c 0A4B     		ldr	r3, .L143+4
 3268 009e A3EB4000 		sub	r0, r3, r0, lsl #1
 3269              	.LVL396:
 3270              	.L137:
ARM GAS  C:\Users\57308\AppData\Local\Temp\cc4OkGld.s 			page 84


 183:../Common/IQMath/ti/_IQNasin_acos.c ****     
 3271              		.loc 1 183 5 is_stmt 1 view .LVU1274
 183:../Common/IQMath/ti/_IQNasin_acos.c ****     
 3272              		.loc 1 183 16 is_stmt 0 view .LVU1275
 3273 00a2 C012     		asrs	r0, r0, #11
 3274              	.LVL397:
 186:../Common/IQMath/ti/_IQNasin_acos.c ****         iq29Result = -iq29Result;
 3275              		.loc 1 186 5 is_stmt 1 view .LVU1276
 186:../Common/IQMath/ti/_IQNasin_acos.c ****         iq29Result = -iq29Result;
 3276              		.loc 1 186 8 is_stmt 0 view .LVU1277
 3277 00a4 14F0010F 		tst	r4, #1
 3278 00a8 0BD0     		beq	.L133
 187:../Common/IQMath/ti/_IQNasin_acos.c ****     }
 3279              		.loc 1 187 9 is_stmt 1 view .LVU1278
 187:../Common/IQMath/ti/_IQNasin_acos.c ****     }
 3280              		.loc 1 187 20 is_stmt 0 view .LVU1279
 3281 00aa 4042     		rsbs	r0, r0, #0
 3282              	.LVL398:
 187:../Common/IQMath/ti/_IQNasin_acos.c ****     }
 3283              		.loc 1 187 20 view .LVU1280
 3284 00ac 09E0     		b	.L133
 3285              	.LVL399:
 3286              	.L141:
  90:../Common/IQMath/ti/_IQNasin_acos.c ****         iqNInput = -iqNInput;
 3287              		.loc 1 90 9 is_stmt 1 view .LVU1281
  91:../Common/IQMath/ti/_IQNasin_acos.c ****     }
 3288              		.loc 1 91 9 view .LVU1282
  91:../Common/IQMath/ti/_IQNasin_acos.c ****     }
 3289              		.loc 1 91 18 is_stmt 0 view .LVU1283
 3290 00ae 4042     		rsbs	r0, r0, #0
 3291              	.LVL400:
  90:../Common/IQMath/ti/_IQNasin_acos.c ****         iqNInput = -iqNInput;
 3292              		.loc 1 90 19 view .LVU1284
 3293 00b0 0124     		movs	r4, #1
 3294 00b2 A9E7     		b	.L134
 3295              	.LVL401:
 3296              	.L142:
 115:../Common/IQMath/ti/_IQNasin_acos.c ****         
 3297              		.loc 1 115 9 is_stmt 1 view .LVU1285
 118:../Common/IQMath/ti/_IQNasin_acos.c ****         
 3298              		.loc 1 118 9 view .LVU1286
 118:../Common/IQMath/ti/_IQNasin_acos.c ****         
 3299              		.loc 1 118 22 is_stmt 0 view .LVU1287
 3300 00b4 5808     		lsrs	r0, r3, #1
 3301              	.LVL402:
 118:../Common/IQMath/ti/_IQNasin_acos.c ****         
 3302              		.loc 1 118 22 view .LVU1288
 3303 00b6 FFF7FEFF 		bl	_IQ31sqrt
 3304              	.LVL403:
 121:../Common/IQMath/ti/_IQNasin_acos.c ****     }
 3305              		.loc 1 121 9 is_stmt 1 view .LVU1289
 121:../Common/IQMath/ti/_IQNasin_acos.c ****     }
 3306              		.loc 1 121 19 is_stmt 0 view .LVU1290
 3307 00ba 44F00204 		orr	r4, r4, #2
 3308              	.LVL404:
 121:../Common/IQMath/ti/_IQNasin_acos.c ****     }
 3309              		.loc 1 121 19 view .LVU1291
ARM GAS  C:\Users\57308\AppData\Local\Temp\cc4OkGld.s 			page 85


 3310 00be ACE7     		b	.L136
 3311              	.LVL405:
 3312              	.L139:
 100:../Common/IQMath/ti/_IQNasin_acos.c ****     }
 3313              		.loc 1 100 16 view .LVU1292
 3314 00c0 0020     		movs	r0, #0
 3315              	.LVL406:
 3316              	.L133:
 100:../Common/IQMath/ti/_IQNasin_acos.c ****     }
 3317              		.loc 1 100 16 view .LVU1293
 3318              	.LBE299:
 3319              	.LBE301:
 325:../Common/IQMath/ti/_IQNasin_acos.c **** }
 3320              		.loc 1 325 1 view .LVU1294
 3321 00c2 10BD     		pop	{r4, pc}
 3322              	.L144:
 3323              		.align	2
 3324              	.L143:
 3325 00c4 00000000 		.word	_IQ29Asin_coeffs
 3326 00c8 A8F64332 		.word	843314856
 3327              		.cfi_endproc
 3328              	.LFE273:
 3330              		.section	.text._IQ17asin,"ax",%progbits
 3331              		.align	1
 3332              		.global	_IQ17asin
 3333              		.syntax unified
 3334              		.thumb
 3335              		.thumb_func
 3337              	_IQ17asin:
 3338              	.LVL407:
 3339              	.LFB274:
 326:../Common/IQMath/ti/_IQNasin_acos.c **** /**
 327:../Common/IQMath/ti/_IQNasin_acos.c ****  * @brief Computes the inverse sine of the IQ17 input.
 328:../Common/IQMath/ti/_IQNasin_acos.c ****  *
 329:../Common/IQMath/ti/_IQNasin_acos.c ****  * @param a               IQ17 type input.
 330:../Common/IQMath/ti/_IQNasin_acos.c ****  *
 331:../Common/IQMath/ti/_IQNasin_acos.c ****  * @return                IQ17 type result of inverse sine.
 332:../Common/IQMath/ti/_IQNasin_acos.c ****  */
 333:../Common/IQMath/ti/_IQNasin_acos.c **** int32_t _IQ17asin(int32_t a)
 334:../Common/IQMath/ti/_IQNasin_acos.c **** {
 3340              		.loc 1 334 1 is_stmt 1 view -0
 3341              		.cfi_startproc
 3342              		@ args = 0, pretend = 0, frame = 0
 3343              		@ frame_needed = 0, uses_anonymous_args = 0
 3344              		.loc 1 334 1 is_stmt 0 view .LVU1296
 3345 0000 10B5     		push	{r4, lr}
 3346              	.LCFI12:
 3347              		.cfi_def_cfa_offset 8
 3348              		.cfi_offset 4, -8
 3349              		.cfi_offset 14, -4
 335:../Common/IQMath/ti/_IQNasin_acos.c ****     return __IQNasin(a, 17);
 3350              		.loc 1 335 5 is_stmt 1 view .LVU1297
 3351              	.LVL408:
 3352              	.LBB312:
 3353              	.LBI312:
  70:../Common/IQMath/ti/_IQNasin_acos.c **** {
 3354              		.loc 1 70 30 view .LVU1298
ARM GAS  C:\Users\57308\AppData\Local\Temp\cc4OkGld.s 			page 86


 3355              	.LBB313:
  72:../Common/IQMath/ti/_IQNasin_acos.c ****     uint_fast16_t index;
 3356              		.loc 1 72 5 view .LVU1299
  73:../Common/IQMath/ti/_IQNasin_acos.c ****     uint_fast16_t ui16IntState;
 3357              		.loc 1 73 5 view .LVU1300
  74:../Common/IQMath/ti/_IQNasin_acos.c ****     uint_fast16_t ui16MPYState;
 3358              		.loc 1 74 5 view .LVU1301
  75:../Common/IQMath/ti/_IQNasin_acos.c ****     int_fast32_t iq29Result;
 3359              		.loc 1 75 5 view .LVU1302
  76:../Common/IQMath/ti/_IQNasin_acos.c ****     const int_fast32_t *piq29Coeffs;
 3360              		.loc 1 76 5 view .LVU1303
  77:../Common/IQMath/ti/_IQNasin_acos.c ****     uint_fast32_t uiq31Input;
 3361              		.loc 1 77 5 view .LVU1304
  78:../Common/IQMath/ti/_IQNasin_acos.c ****     uint_fast32_t uiq31InputTemp;
 3362              		.loc 1 78 5 view .LVU1305
  79:../Common/IQMath/ti/_IQNasin_acos.c ****     
 3363              		.loc 1 79 5 view .LVU1306
  89:../Common/IQMath/ti/_IQNasin_acos.c ****         ui8Status |= 1;
 3364              		.loc 1 89 5 view .LVU1307
  89:../Common/IQMath/ti/_IQNasin_acos.c ****         ui8Status |= 1;
 3365              		.loc 1 89 8 is_stmt 0 view .LVU1308
 3366 0002 0028     		cmp	r0, #0
  89:../Common/IQMath/ti/_IQNasin_acos.c ****         ui8Status |= 1;
 3367              		.loc 1 89 8 view .LVU1309
 3368 0004 53DB     		blt	.L153
  72:../Common/IQMath/ti/_IQNasin_acos.c ****     uint_fast16_t index;
 3369              		.loc 1 72 13 view .LVU1310
 3370 0006 0024     		movs	r4, #0
 3371              	.LVL409:
 3372              	.L146:
  99:../Common/IQMath/ti/_IQNasin_acos.c ****         return 0;
 3373              		.loc 1 99 5 is_stmt 1 view .LVU1311
  99:../Common/IQMath/ti/_IQNasin_acos.c ****         return 0;
 3374              		.loc 1 99 8 is_stmt 0 view .LVU1312
 3375 0008 B0F5003F 		cmp	r0, #131072
 3376 000c 58D8     		bhi	.L151
 104:../Common/IQMath/ti/_IQNasin_acos.c ****     
 3377              		.loc 1 104 5 is_stmt 1 view .LVU1313
 104:../Common/IQMath/ti/_IQNasin_acos.c ****     
 3378              		.loc 1 104 16 is_stmt 0 view .LVU1314
 3379 000e 8003     		lsls	r0, r0, #14
 3380              	.LVL410:
 112:../Common/IQMath/ti/_IQNasin_acos.c ****     if (uiq31InputTemp < 0x40000000) {
 3381              		.loc 1 112 5 is_stmt 1 view .LVU1315
 112:../Common/IQMath/ti/_IQNasin_acos.c ****     if (uiq31InputTemp < 0x40000000) {
 3382              		.loc 1 112 20 is_stmt 0 view .LVU1316
 3383 0010 C0F10043 		rsb	r3, r0, #-2147483648
 3384              	.LVL411:
 113:../Common/IQMath/ti/_IQNasin_acos.c ****         /* Halve the result. */
 3385              		.loc 1 113 5 is_stmt 1 view .LVU1317
 113:../Common/IQMath/ti/_IQNasin_acos.c ****         /* Halve the result. */
 3386              		.loc 1 113 8 is_stmt 0 view .LVU1318
 3387 0014 B3F1804F 		cmp	r3, #1073741824
 3388 0018 4CD3     		bcc	.L154
 3389              	.LVL412:
 3390              	.L148:
 125:../Common/IQMath/ti/_IQNasin_acos.c ****     
ARM GAS  C:\Users\57308\AppData\Local\Temp\cc4OkGld.s 			page 87


 3391              		.loc 1 125 5 is_stmt 1 view .LVU1319
 125:../Common/IQMath/ti/_IQNasin_acos.c ****     
 3392              		.loc 1 125 11 is_stmt 0 view .LVU1320
 3393 001a 830E     		lsrs	r3, r0, #26
 3394              	.LVL413:
 128:../Common/IQMath/ti/_IQNasin_acos.c ****     
 3395              		.loc 1 128 5 is_stmt 1 view .LVU1321
 128:../Common/IQMath/ti/_IQNasin_acos.c ****     
 3396              		.loc 1 128 17 is_stmt 0 view .LVU1322
 3397 001c 03EB8303 		add	r3, r3, r3, lsl #2
 3398              	.LVL414:
 128:../Common/IQMath/ti/_IQNasin_acos.c ****     
 3399              		.loc 1 128 17 view .LVU1323
 3400 0020 2849     		ldr	r1, .L155
 3401 0022 01EB8302 		add	r2, r1, r3, lsl #2
 3402              	.LVL415:
 136:../Common/IQMath/ti/_IQNasin_acos.c ****     
 3403              		.loc 1 136 5 is_stmt 1 view .LVU1324
 136:../Common/IQMath/ti/_IQNasin_acos.c ****     
 3404              		.loc 1 136 5 is_stmt 0 view .LVU1325
 3405              	.LBE313:
 3406              	.LBE312:
  28:../Common/IQMath/ti/./support/RTS_support.h **** }
 3407              		.loc 2 28 5 is_stmt 1 view .LVU1326
 3408              	.LBB324:
 3409              	.LBB322:
 145:../Common/IQMath/ti/_IQNasin_acos.c ****     
 3410              		.loc 1 145 5 view .LVU1327
 145:../Common/IQMath/ti/_IQNasin_acos.c ****     
 3411              		.loc 1 145 18 is_stmt 0 view .LVU1328
 3412 0026 51F82330 		ldr	r3, [r1, r3, lsl #2]
 3413              	.LVL416:
 3414              	.LBB314:
 3415              	.LBI314:
 233:../Common/IQMath/ti/./support/RTS_support.h **** {
 3416              		.loc 2 233 28 is_stmt 1 view .LVU1329
 3417              	.LBB315:
 3418              		.loc 2 235 5 view .LVU1330
 3419              		.loc 2 235 28 is_stmt 0 view .LVU1331
 3420 002a 4FEAE07C 		asr	ip, r0, #31
 3421              		.loc 2 235 49 view .LVU1332
 3422 002e D917     		asrs	r1, r3, #31
 3423              		.loc 2 235 47 view .LVU1333
 3424 0030 00FB01F1 		mul	r1, r0, r1
 3425 0034 03FB0C11 		mla	r1, r3, ip, r1
 3426 0038 A0FB033E 		umull	r3, lr, r0, r3
 3427              	.LVL417:
 3428              		.loc 2 235 47 view .LVU1334
 3429 003c 7144     		add	r1, r1, lr
 3430              		.loc 2 235 69 view .LVU1335
 3431 003e DB0F     		lsrs	r3, r3, #31
 3432 0040 43EA4103 		orr	r3, r3, r1, lsl #1
 3433              	.LVL418:
 3434              		.loc 2 235 69 view .LVU1336
 3435              	.LBE315:
 3436              	.LBE314:
 148:../Common/IQMath/ti/_IQNasin_acos.c ****     
ARM GAS  C:\Users\57308\AppData\Local\Temp\cc4OkGld.s 			page 88


 3437              		.loc 1 148 5 is_stmt 1 view .LVU1337
 148:../Common/IQMath/ti/_IQNasin_acos.c ****     
 3438              		.loc 1 148 31 is_stmt 0 view .LVU1338
 3439 0044 5168     		ldr	r1, [r2, #4]
 148:../Common/IQMath/ti/_IQNasin_acos.c ****     
 3440              		.loc 1 148 16 view .LVU1339
 3441 0046 0B44     		add	r3, r3, r1
 3442              	.LVL419:
 151:../Common/IQMath/ti/_IQNasin_acos.c ****     
 3443              		.loc 1 151 5 is_stmt 1 view .LVU1340
 3444              	.LBB316:
 3445              	.LBI316:
 233:../Common/IQMath/ti/./support/RTS_support.h **** {
 3446              		.loc 2 233 28 view .LVU1341
 3447              	.LBB317:
 3448              		.loc 2 235 5 view .LVU1342
 3449              		.loc 2 235 49 is_stmt 0 view .LVU1343
 3450 0048 D917     		asrs	r1, r3, #31
 3451              		.loc 2 235 47 view .LVU1344
 3452 004a 00FB01F1 		mul	r1, r0, r1
 3453 004e 03FB0C11 		mla	r1, r3, ip, r1
 3454 0052 A0FB033E 		umull	r3, lr, r0, r3
 3455              	.LVL420:
 3456              		.loc 2 235 47 view .LVU1345
 3457 0056 7144     		add	r1, r1, lr
 3458              		.loc 2 235 69 view .LVU1346
 3459 0058 DB0F     		lsrs	r3, r3, #31
 3460 005a 43EA4103 		orr	r3, r3, r1, lsl #1
 3461              	.LVL421:
 3462              		.loc 2 235 69 view .LVU1347
 3463              	.LBE317:
 3464              	.LBE316:
 154:../Common/IQMath/ti/_IQNasin_acos.c ****     
 3465              		.loc 1 154 5 is_stmt 1 view .LVU1348
 154:../Common/IQMath/ti/_IQNasin_acos.c ****     
 3466              		.loc 1 154 31 is_stmt 0 view .LVU1349
 3467 005e 9168     		ldr	r1, [r2, #8]
 154:../Common/IQMath/ti/_IQNasin_acos.c ****     
 3468              		.loc 1 154 16 view .LVU1350
 3469 0060 0B44     		add	r3, r3, r1
 3470              	.LVL422:
 157:../Common/IQMath/ti/_IQNasin_acos.c ****     
 3471              		.loc 1 157 5 is_stmt 1 view .LVU1351
 3472              	.LBB318:
 3473              	.LBI318:
 233:../Common/IQMath/ti/./support/RTS_support.h **** {
 3474              		.loc 2 233 28 view .LVU1352
 3475              	.LBB319:
 3476              		.loc 2 235 5 view .LVU1353
 3477              		.loc 2 235 49 is_stmt 0 view .LVU1354
 3478 0062 D917     		asrs	r1, r3, #31
 3479              		.loc 2 235 47 view .LVU1355
 3480 0064 00FB01F1 		mul	r1, r0, r1
 3481 0068 03FB0C11 		mla	r1, r3, ip, r1
 3482 006c A0FB033E 		umull	r3, lr, r0, r3
 3483              	.LVL423:
 3484              		.loc 2 235 47 view .LVU1356
ARM GAS  C:\Users\57308\AppData\Local\Temp\cc4OkGld.s 			page 89


 3485 0070 7144     		add	r1, r1, lr
 3486              		.loc 2 235 69 view .LVU1357
 3487 0072 DB0F     		lsrs	r3, r3, #31
 3488 0074 43EA4103 		orr	r3, r3, r1, lsl #1
 3489              	.LVL424:
 3490              		.loc 2 235 69 view .LVU1358
 3491              	.LBE319:
 3492              	.LBE318:
 160:../Common/IQMath/ti/_IQNasin_acos.c ****     
 3493              		.loc 1 160 5 is_stmt 1 view .LVU1359
 160:../Common/IQMath/ti/_IQNasin_acos.c ****     
 3494              		.loc 1 160 31 is_stmt 0 view .LVU1360
 3495 0078 D168     		ldr	r1, [r2, #12]
 160:../Common/IQMath/ti/_IQNasin_acos.c ****     
 3496              		.loc 1 160 16 view .LVU1361
 3497 007a 0B44     		add	r3, r3, r1
 3498              	.LVL425:
 163:../Common/IQMath/ti/_IQNasin_acos.c ****     
 3499              		.loc 1 163 5 is_stmt 1 view .LVU1362
 3500              	.LBB320:
 3501              	.LBI320:
 233:../Common/IQMath/ti/./support/RTS_support.h **** {
 3502              		.loc 2 233 28 view .LVU1363
 3503              	.LBB321:
 3504              		.loc 2 235 5 view .LVU1364
 3505              		.loc 2 235 49 is_stmt 0 view .LVU1365
 3506 007c D917     		asrs	r1, r3, #31
 3507              		.loc 2 235 47 view .LVU1366
 3508 007e 00FB01F1 		mul	r1, r0, r1
 3509 0082 03FB0C11 		mla	r1, r3, ip, r1
 3510 0086 A0FB0303 		umull	r0, r3, r0, r3
 3511              	.LVL426:
 3512              		.loc 2 235 47 view .LVU1367
 3513 008a 0B44     		add	r3, r3, r1
 3514              		.loc 2 235 69 view .LVU1368
 3515 008c C00F     		lsrs	r0, r0, #31
 3516 008e 40EA4300 		orr	r0, r0, r3, lsl #1
 3517              	.LVL427:
 3518              		.loc 2 235 69 view .LVU1369
 3519              	.LBE321:
 3520              	.LBE320:
 166:../Common/IQMath/ti/_IQNasin_acos.c ****     
 3521              		.loc 1 166 5 is_stmt 1 view .LVU1370
 166:../Common/IQMath/ti/_IQNasin_acos.c ****     
 3522              		.loc 1 166 31 is_stmt 0 view .LVU1371
 3523 0092 1369     		ldr	r3, [r2, #16]
 166:../Common/IQMath/ti/_IQNasin_acos.c ****     
 3524              		.loc 1 166 16 view .LVU1372
 3525 0094 1844     		add	r0, r0, r3
 3526              	.LVL428:
 172:../Common/IQMath/ti/_IQNasin_acos.c ****     
 3527              		.loc 1 172 5 is_stmt 1 view .LVU1373
 172:../Common/IQMath/ti/_IQNasin_acos.c ****     
 3528              		.loc 1 172 5 is_stmt 0 view .LVU1374
 3529              	.LBE322:
 3530              	.LBE324:
  72:../Common/IQMath/ti/./support/RTS_support.h **** }
ARM GAS  C:\Users\57308\AppData\Local\Temp\cc4OkGld.s 			page 90


 3531              		.loc 2 72 5 is_stmt 1 view .LVU1375
 3532              	.LBB325:
 3533              	.LBB323:
 175:../Common/IQMath/ti/_IQNasin_acos.c ****         /* asin(x) = pi/2 - 2*iq29Result */
 3534              		.loc 1 175 5 view .LVU1376
 175:../Common/IQMath/ti/_IQNasin_acos.c ****         /* asin(x) = pi/2 - 2*iq29Result */
 3535              		.loc 1 175 8 is_stmt 0 view .LVU1377
 3536 0096 14F0020F 		tst	r4, #2
 3537 009a 02D0     		beq	.L149
 177:../Common/IQMath/ti/_IQNasin_acos.c ****         iq29Result -= iq29_halfPi;      // this is equivalent to the above
 3538              		.loc 1 177 9 is_stmt 1 view .LVU1378
 3539              	.LVL429:
 178:../Common/IQMath/ti/_IQNasin_acos.c ****         iq29Result = -iq29Result;       // but avoids using temporary registers
 3540              		.loc 1 178 9 view .LVU1379
 179:../Common/IQMath/ti/_IQNasin_acos.c ****     }
 3541              		.loc 1 179 9 view .LVU1380
 179:../Common/IQMath/ti/_IQNasin_acos.c ****     }
 3542              		.loc 1 179 20 is_stmt 0 view .LVU1381
 3543 009c 0A4B     		ldr	r3, .L155+4
 3544 009e A3EB4000 		sub	r0, r3, r0, lsl #1
 3545              	.LVL430:
 3546              	.L149:
 183:../Common/IQMath/ti/_IQNasin_acos.c ****     
 3547              		.loc 1 183 5 is_stmt 1 view .LVU1382
 183:../Common/IQMath/ti/_IQNasin_acos.c ****     
 3548              		.loc 1 183 16 is_stmt 0 view .LVU1383
 3549 00a2 0013     		asrs	r0, r0, #12
 3550              	.LVL431:
 186:../Common/IQMath/ti/_IQNasin_acos.c ****         iq29Result = -iq29Result;
 3551              		.loc 1 186 5 is_stmt 1 view .LVU1384
 186:../Common/IQMath/ti/_IQNasin_acos.c ****         iq29Result = -iq29Result;
 3552              		.loc 1 186 8 is_stmt 0 view .LVU1385
 3553 00a4 14F0010F 		tst	r4, #1
 3554 00a8 0BD0     		beq	.L145
 187:../Common/IQMath/ti/_IQNasin_acos.c ****     }
 3555              		.loc 1 187 9 is_stmt 1 view .LVU1386
 187:../Common/IQMath/ti/_IQNasin_acos.c ****     }
 3556              		.loc 1 187 20 is_stmt 0 view .LVU1387
 3557 00aa 4042     		rsbs	r0, r0, #0
 3558              	.LVL432:
 187:../Common/IQMath/ti/_IQNasin_acos.c ****     }
 3559              		.loc 1 187 20 view .LVU1388
 3560 00ac 09E0     		b	.L145
 3561              	.LVL433:
 3562              	.L153:
  90:../Common/IQMath/ti/_IQNasin_acos.c ****         iqNInput = -iqNInput;
 3563              		.loc 1 90 9 is_stmt 1 view .LVU1389
  91:../Common/IQMath/ti/_IQNasin_acos.c ****     }
 3564              		.loc 1 91 9 view .LVU1390
  91:../Common/IQMath/ti/_IQNasin_acos.c ****     }
 3565              		.loc 1 91 18 is_stmt 0 view .LVU1391
 3566 00ae 4042     		rsbs	r0, r0, #0
 3567              	.LVL434:
  90:../Common/IQMath/ti/_IQNasin_acos.c ****         iqNInput = -iqNInput;
 3568              		.loc 1 90 19 view .LVU1392
 3569 00b0 0124     		movs	r4, #1
 3570 00b2 A9E7     		b	.L146
ARM GAS  C:\Users\57308\AppData\Local\Temp\cc4OkGld.s 			page 91


 3571              	.LVL435:
 3572              	.L154:
 115:../Common/IQMath/ti/_IQNasin_acos.c ****         
 3573              		.loc 1 115 9 is_stmt 1 view .LVU1393
 118:../Common/IQMath/ti/_IQNasin_acos.c ****         
 3574              		.loc 1 118 9 view .LVU1394
 118:../Common/IQMath/ti/_IQNasin_acos.c ****         
 3575              		.loc 1 118 22 is_stmt 0 view .LVU1395
 3576 00b4 5808     		lsrs	r0, r3, #1
 3577              	.LVL436:
 118:../Common/IQMath/ti/_IQNasin_acos.c ****         
 3578              		.loc 1 118 22 view .LVU1396
 3579 00b6 FFF7FEFF 		bl	_IQ31sqrt
 3580              	.LVL437:
 121:../Common/IQMath/ti/_IQNasin_acos.c ****     }
 3581              		.loc 1 121 9 is_stmt 1 view .LVU1397
 121:../Common/IQMath/ti/_IQNasin_acos.c ****     }
 3582              		.loc 1 121 19 is_stmt 0 view .LVU1398
 3583 00ba 44F00204 		orr	r4, r4, #2
 3584              	.LVL438:
 121:../Common/IQMath/ti/_IQNasin_acos.c ****     }
 3585              		.loc 1 121 19 view .LVU1399
 3586 00be ACE7     		b	.L148
 3587              	.LVL439:
 3588              	.L151:
 100:../Common/IQMath/ti/_IQNasin_acos.c ****     }
 3589              		.loc 1 100 16 view .LVU1400
 3590 00c0 0020     		movs	r0, #0
 3591              	.LVL440:
 3592              	.L145:
 100:../Common/IQMath/ti/_IQNasin_acos.c ****     }
 3593              		.loc 1 100 16 view .LVU1401
 3594              	.LBE323:
 3595              	.LBE325:
 336:../Common/IQMath/ti/_IQNasin_acos.c **** }
 3596              		.loc 1 336 1 view .LVU1402
 3597 00c2 10BD     		pop	{r4, pc}
 3598              	.L156:
 3599              		.align	2
 3600              	.L155:
 3601 00c4 00000000 		.word	_IQ29Asin_coeffs
 3602 00c8 A8F64332 		.word	843314856
 3603              		.cfi_endproc
 3604              	.LFE274:
 3606              		.section	.text._IQ16asin,"ax",%progbits
 3607              		.align	1
 3608              		.global	_IQ16asin
 3609              		.syntax unified
 3610              		.thumb
 3611              		.thumb_func
 3613              	_IQ16asin:
 3614              	.LVL441:
 3615              	.LFB275:
 337:../Common/IQMath/ti/_IQNasin_acos.c **** /**
 338:../Common/IQMath/ti/_IQNasin_acos.c ****  * @brief Computes the inverse sine of the IQ16 input.
 339:../Common/IQMath/ti/_IQNasin_acos.c ****  *
 340:../Common/IQMath/ti/_IQNasin_acos.c ****  * @param a               IQ16 type input.
ARM GAS  C:\Users\57308\AppData\Local\Temp\cc4OkGld.s 			page 92


 341:../Common/IQMath/ti/_IQNasin_acos.c ****  *
 342:../Common/IQMath/ti/_IQNasin_acos.c ****  * @return                IQ16 type result of inverse sine.
 343:../Common/IQMath/ti/_IQNasin_acos.c ****  */
 344:../Common/IQMath/ti/_IQNasin_acos.c **** int32_t _IQ16asin(int32_t a)
 345:../Common/IQMath/ti/_IQNasin_acos.c **** {
 3616              		.loc 1 345 1 is_stmt 1 view -0
 3617              		.cfi_startproc
 3618              		@ args = 0, pretend = 0, frame = 0
 3619              		@ frame_needed = 0, uses_anonymous_args = 0
 3620              		.loc 1 345 1 is_stmt 0 view .LVU1404
 3621 0000 10B5     		push	{r4, lr}
 3622              	.LCFI13:
 3623              		.cfi_def_cfa_offset 8
 3624              		.cfi_offset 4, -8
 3625              		.cfi_offset 14, -4
 346:../Common/IQMath/ti/_IQNasin_acos.c ****     return __IQNasin(a, 16);
 3626              		.loc 1 346 5 is_stmt 1 view .LVU1405
 3627              	.LVL442:
 3628              	.LBB336:
 3629              	.LBI336:
  70:../Common/IQMath/ti/_IQNasin_acos.c **** {
 3630              		.loc 1 70 30 view .LVU1406
 3631              	.LBB337:
  72:../Common/IQMath/ti/_IQNasin_acos.c ****     uint_fast16_t index;
 3632              		.loc 1 72 5 view .LVU1407
  73:../Common/IQMath/ti/_IQNasin_acos.c ****     uint_fast16_t ui16IntState;
 3633              		.loc 1 73 5 view .LVU1408
  74:../Common/IQMath/ti/_IQNasin_acos.c ****     uint_fast16_t ui16MPYState;
 3634              		.loc 1 74 5 view .LVU1409
  75:../Common/IQMath/ti/_IQNasin_acos.c ****     int_fast32_t iq29Result;
 3635              		.loc 1 75 5 view .LVU1410
  76:../Common/IQMath/ti/_IQNasin_acos.c ****     const int_fast32_t *piq29Coeffs;
 3636              		.loc 1 76 5 view .LVU1411
  77:../Common/IQMath/ti/_IQNasin_acos.c ****     uint_fast32_t uiq31Input;
 3637              		.loc 1 77 5 view .LVU1412
  78:../Common/IQMath/ti/_IQNasin_acos.c ****     uint_fast32_t uiq31InputTemp;
 3638              		.loc 1 78 5 view .LVU1413
  79:../Common/IQMath/ti/_IQNasin_acos.c ****     
 3639              		.loc 1 79 5 view .LVU1414
  89:../Common/IQMath/ti/_IQNasin_acos.c ****         ui8Status |= 1;
 3640              		.loc 1 89 5 view .LVU1415
  89:../Common/IQMath/ti/_IQNasin_acos.c ****         ui8Status |= 1;
 3641              		.loc 1 89 8 is_stmt 0 view .LVU1416
 3642 0002 0028     		cmp	r0, #0
  89:../Common/IQMath/ti/_IQNasin_acos.c ****         ui8Status |= 1;
 3643              		.loc 1 89 8 view .LVU1417
 3644 0004 53DB     		blt	.L165
  72:../Common/IQMath/ti/_IQNasin_acos.c ****     uint_fast16_t index;
 3645              		.loc 1 72 13 view .LVU1418
 3646 0006 0024     		movs	r4, #0
 3647              	.LVL443:
 3648              	.L158:
  99:../Common/IQMath/ti/_IQNasin_acos.c ****         return 0;
 3649              		.loc 1 99 5 is_stmt 1 view .LVU1419
  99:../Common/IQMath/ti/_IQNasin_acos.c ****         return 0;
 3650              		.loc 1 99 8 is_stmt 0 view .LVU1420
 3651 0008 B0F5803F 		cmp	r0, #65536
ARM GAS  C:\Users\57308\AppData\Local\Temp\cc4OkGld.s 			page 93


 3652 000c 58D8     		bhi	.L163
 104:../Common/IQMath/ti/_IQNasin_acos.c ****     
 3653              		.loc 1 104 5 is_stmt 1 view .LVU1421
 104:../Common/IQMath/ti/_IQNasin_acos.c ****     
 3654              		.loc 1 104 16 is_stmt 0 view .LVU1422
 3655 000e C003     		lsls	r0, r0, #15
 3656              	.LVL444:
 112:../Common/IQMath/ti/_IQNasin_acos.c ****     if (uiq31InputTemp < 0x40000000) {
 3657              		.loc 1 112 5 is_stmt 1 view .LVU1423
 112:../Common/IQMath/ti/_IQNasin_acos.c ****     if (uiq31InputTemp < 0x40000000) {
 3658              		.loc 1 112 20 is_stmt 0 view .LVU1424
 3659 0010 C0F10043 		rsb	r3, r0, #-2147483648
 3660              	.LVL445:
 113:../Common/IQMath/ti/_IQNasin_acos.c ****         /* Halve the result. */
 3661              		.loc 1 113 5 is_stmt 1 view .LVU1425
 113:../Common/IQMath/ti/_IQNasin_acos.c ****         /* Halve the result. */
 3662              		.loc 1 113 8 is_stmt 0 view .LVU1426
 3663 0014 B3F1804F 		cmp	r3, #1073741824
 3664 0018 4CD3     		bcc	.L166
 3665              	.LVL446:
 3666              	.L160:
 125:../Common/IQMath/ti/_IQNasin_acos.c ****     
 3667              		.loc 1 125 5 is_stmt 1 view .LVU1427
 125:../Common/IQMath/ti/_IQNasin_acos.c ****     
 3668              		.loc 1 125 11 is_stmt 0 view .LVU1428
 3669 001a 830E     		lsrs	r3, r0, #26
 3670              	.LVL447:
 128:../Common/IQMath/ti/_IQNasin_acos.c ****     
 3671              		.loc 1 128 5 is_stmt 1 view .LVU1429
 128:../Common/IQMath/ti/_IQNasin_acos.c ****     
 3672              		.loc 1 128 17 is_stmt 0 view .LVU1430
 3673 001c 03EB8303 		add	r3, r3, r3, lsl #2
 3674              	.LVL448:
 128:../Common/IQMath/ti/_IQNasin_acos.c ****     
 3675              		.loc 1 128 17 view .LVU1431
 3676 0020 2849     		ldr	r1, .L167
 3677 0022 01EB8302 		add	r2, r1, r3, lsl #2
 3678              	.LVL449:
 136:../Common/IQMath/ti/_IQNasin_acos.c ****     
 3679              		.loc 1 136 5 is_stmt 1 view .LVU1432
 136:../Common/IQMath/ti/_IQNasin_acos.c ****     
 3680              		.loc 1 136 5 is_stmt 0 view .LVU1433
 3681              	.LBE337:
 3682              	.LBE336:
  28:../Common/IQMath/ti/./support/RTS_support.h **** }
 3683              		.loc 2 28 5 is_stmt 1 view .LVU1434
 3684              	.LBB348:
 3685              	.LBB346:
 145:../Common/IQMath/ti/_IQNasin_acos.c ****     
 3686              		.loc 1 145 5 view .LVU1435
 145:../Common/IQMath/ti/_IQNasin_acos.c ****     
 3687              		.loc 1 145 18 is_stmt 0 view .LVU1436
 3688 0026 51F82330 		ldr	r3, [r1, r3, lsl #2]
 3689              	.LVL450:
 3690              	.LBB338:
 3691              	.LBI338:
 233:../Common/IQMath/ti/./support/RTS_support.h **** {
ARM GAS  C:\Users\57308\AppData\Local\Temp\cc4OkGld.s 			page 94


 3692              		.loc 2 233 28 is_stmt 1 view .LVU1437
 3693              	.LBB339:
 3694              		.loc 2 235 5 view .LVU1438
 3695              		.loc 2 235 28 is_stmt 0 view .LVU1439
 3696 002a 4FEAE07C 		asr	ip, r0, #31
 3697              		.loc 2 235 49 view .LVU1440
 3698 002e D917     		asrs	r1, r3, #31
 3699              		.loc 2 235 47 view .LVU1441
 3700 0030 00FB01F1 		mul	r1, r0, r1
 3701 0034 03FB0C11 		mla	r1, r3, ip, r1
 3702 0038 A0FB033E 		umull	r3, lr, r0, r3
 3703              	.LVL451:
 3704              		.loc 2 235 47 view .LVU1442
 3705 003c 7144     		add	r1, r1, lr
 3706              		.loc 2 235 69 view .LVU1443
 3707 003e DB0F     		lsrs	r3, r3, #31
 3708 0040 43EA4103 		orr	r3, r3, r1, lsl #1
 3709              	.LVL452:
 3710              		.loc 2 235 69 view .LVU1444
 3711              	.LBE339:
 3712              	.LBE338:
 148:../Common/IQMath/ti/_IQNasin_acos.c ****     
 3713              		.loc 1 148 5 is_stmt 1 view .LVU1445
 148:../Common/IQMath/ti/_IQNasin_acos.c ****     
 3714              		.loc 1 148 31 is_stmt 0 view .LVU1446
 3715 0044 5168     		ldr	r1, [r2, #4]
 148:../Common/IQMath/ti/_IQNasin_acos.c ****     
 3716              		.loc 1 148 16 view .LVU1447
 3717 0046 0B44     		add	r3, r3, r1
 3718              	.LVL453:
 151:../Common/IQMath/ti/_IQNasin_acos.c ****     
 3719              		.loc 1 151 5 is_stmt 1 view .LVU1448
 3720              	.LBB340:
 3721              	.LBI340:
 233:../Common/IQMath/ti/./support/RTS_support.h **** {
 3722              		.loc 2 233 28 view .LVU1449
 3723              	.LBB341:
 3724              		.loc 2 235 5 view .LVU1450
 3725              		.loc 2 235 49 is_stmt 0 view .LVU1451
 3726 0048 D917     		asrs	r1, r3, #31
 3727              		.loc 2 235 47 view .LVU1452
 3728 004a 00FB01F1 		mul	r1, r0, r1
 3729 004e 03FB0C11 		mla	r1, r3, ip, r1
 3730 0052 A0FB033E 		umull	r3, lr, r0, r3
 3731              	.LVL454:
 3732              		.loc 2 235 47 view .LVU1453
 3733 0056 7144     		add	r1, r1, lr
 3734              		.loc 2 235 69 view .LVU1454
 3735 0058 DB0F     		lsrs	r3, r3, #31
 3736 005a 43EA4103 		orr	r3, r3, r1, lsl #1
 3737              	.LVL455:
 3738              		.loc 2 235 69 view .LVU1455
 3739              	.LBE341:
 3740              	.LBE340:
 154:../Common/IQMath/ti/_IQNasin_acos.c ****     
 3741              		.loc 1 154 5 is_stmt 1 view .LVU1456
 154:../Common/IQMath/ti/_IQNasin_acos.c ****     
ARM GAS  C:\Users\57308\AppData\Local\Temp\cc4OkGld.s 			page 95


 3742              		.loc 1 154 31 is_stmt 0 view .LVU1457
 3743 005e 9168     		ldr	r1, [r2, #8]
 154:../Common/IQMath/ti/_IQNasin_acos.c ****     
 3744              		.loc 1 154 16 view .LVU1458
 3745 0060 0B44     		add	r3, r3, r1
 3746              	.LVL456:
 157:../Common/IQMath/ti/_IQNasin_acos.c ****     
 3747              		.loc 1 157 5 is_stmt 1 view .LVU1459
 3748              	.LBB342:
 3749              	.LBI342:
 233:../Common/IQMath/ti/./support/RTS_support.h **** {
 3750              		.loc 2 233 28 view .LVU1460
 3751              	.LBB343:
 3752              		.loc 2 235 5 view .LVU1461
 3753              		.loc 2 235 49 is_stmt 0 view .LVU1462
 3754 0062 D917     		asrs	r1, r3, #31
 3755              		.loc 2 235 47 view .LVU1463
 3756 0064 00FB01F1 		mul	r1, r0, r1
 3757 0068 03FB0C11 		mla	r1, r3, ip, r1
 3758 006c A0FB033E 		umull	r3, lr, r0, r3
 3759              	.LVL457:
 3760              		.loc 2 235 47 view .LVU1464
 3761 0070 7144     		add	r1, r1, lr
 3762              		.loc 2 235 69 view .LVU1465
 3763 0072 DB0F     		lsrs	r3, r3, #31
 3764 0074 43EA4103 		orr	r3, r3, r1, lsl #1
 3765              	.LVL458:
 3766              		.loc 2 235 69 view .LVU1466
 3767              	.LBE343:
 3768              	.LBE342:
 160:../Common/IQMath/ti/_IQNasin_acos.c ****     
 3769              		.loc 1 160 5 is_stmt 1 view .LVU1467
 160:../Common/IQMath/ti/_IQNasin_acos.c ****     
 3770              		.loc 1 160 31 is_stmt 0 view .LVU1468
 3771 0078 D168     		ldr	r1, [r2, #12]
 160:../Common/IQMath/ti/_IQNasin_acos.c ****     
 3772              		.loc 1 160 16 view .LVU1469
 3773 007a 0B44     		add	r3, r3, r1
 3774              	.LVL459:
 163:../Common/IQMath/ti/_IQNasin_acos.c ****     
 3775              		.loc 1 163 5 is_stmt 1 view .LVU1470
 3776              	.LBB344:
 3777              	.LBI344:
 233:../Common/IQMath/ti/./support/RTS_support.h **** {
 3778              		.loc 2 233 28 view .LVU1471
 3779              	.LBB345:
 3780              		.loc 2 235 5 view .LVU1472
 3781              		.loc 2 235 49 is_stmt 0 view .LVU1473
 3782 007c D917     		asrs	r1, r3, #31
 3783              		.loc 2 235 47 view .LVU1474
 3784 007e 00FB01F1 		mul	r1, r0, r1
 3785 0082 03FB0C11 		mla	r1, r3, ip, r1
 3786 0086 A0FB0303 		umull	r0, r3, r0, r3
 3787              	.LVL460:
 3788              		.loc 2 235 47 view .LVU1475
 3789 008a 0B44     		add	r3, r3, r1
 3790              		.loc 2 235 69 view .LVU1476
ARM GAS  C:\Users\57308\AppData\Local\Temp\cc4OkGld.s 			page 96


 3791 008c C00F     		lsrs	r0, r0, #31
 3792 008e 40EA4300 		orr	r0, r0, r3, lsl #1
 3793              	.LVL461:
 3794              		.loc 2 235 69 view .LVU1477
 3795              	.LBE345:
 3796              	.LBE344:
 166:../Common/IQMath/ti/_IQNasin_acos.c ****     
 3797              		.loc 1 166 5 is_stmt 1 view .LVU1478
 166:../Common/IQMath/ti/_IQNasin_acos.c ****     
 3798              		.loc 1 166 31 is_stmt 0 view .LVU1479
 3799 0092 1369     		ldr	r3, [r2, #16]
 166:../Common/IQMath/ti/_IQNasin_acos.c ****     
 3800              		.loc 1 166 16 view .LVU1480
 3801 0094 1844     		add	r0, r0, r3
 3802              	.LVL462:
 172:../Common/IQMath/ti/_IQNasin_acos.c ****     
 3803              		.loc 1 172 5 is_stmt 1 view .LVU1481
 172:../Common/IQMath/ti/_IQNasin_acos.c ****     
 3804              		.loc 1 172 5 is_stmt 0 view .LVU1482
 3805              	.LBE346:
 3806              	.LBE348:
  72:../Common/IQMath/ti/./support/RTS_support.h **** }
 3807              		.loc 2 72 5 is_stmt 1 view .LVU1483
 3808              	.LBB349:
 3809              	.LBB347:
 175:../Common/IQMath/ti/_IQNasin_acos.c ****         /* asin(x) = pi/2 - 2*iq29Result */
 3810              		.loc 1 175 5 view .LVU1484
 175:../Common/IQMath/ti/_IQNasin_acos.c ****         /* asin(x) = pi/2 - 2*iq29Result */
 3811              		.loc 1 175 8 is_stmt 0 view .LVU1485
 3812 0096 14F0020F 		tst	r4, #2
 3813 009a 02D0     		beq	.L161
 177:../Common/IQMath/ti/_IQNasin_acos.c ****         iq29Result -= iq29_halfPi;      // this is equivalent to the above
 3814              		.loc 1 177 9 is_stmt 1 view .LVU1486
 3815              	.LVL463:
 178:../Common/IQMath/ti/_IQNasin_acos.c ****         iq29Result = -iq29Result;       // but avoids using temporary registers
 3816              		.loc 1 178 9 view .LVU1487
 179:../Common/IQMath/ti/_IQNasin_acos.c ****     }
 3817              		.loc 1 179 9 view .LVU1488
 179:../Common/IQMath/ti/_IQNasin_acos.c ****     }
 3818              		.loc 1 179 20 is_stmt 0 view .LVU1489
 3819 009c 0A4B     		ldr	r3, .L167+4
 3820 009e A3EB4000 		sub	r0, r3, r0, lsl #1
 3821              	.LVL464:
 3822              	.L161:
 183:../Common/IQMath/ti/_IQNasin_acos.c ****     
 3823              		.loc 1 183 5 is_stmt 1 view .LVU1490
 183:../Common/IQMath/ti/_IQNasin_acos.c ****     
 3824              		.loc 1 183 16 is_stmt 0 view .LVU1491
 3825 00a2 4013     		asrs	r0, r0, #13
 3826              	.LVL465:
 186:../Common/IQMath/ti/_IQNasin_acos.c ****         iq29Result = -iq29Result;
 3827              		.loc 1 186 5 is_stmt 1 view .LVU1492
 186:../Common/IQMath/ti/_IQNasin_acos.c ****         iq29Result = -iq29Result;
 3828              		.loc 1 186 8 is_stmt 0 view .LVU1493
 3829 00a4 14F0010F 		tst	r4, #1
 3830 00a8 0BD0     		beq	.L157
 187:../Common/IQMath/ti/_IQNasin_acos.c ****     }
ARM GAS  C:\Users\57308\AppData\Local\Temp\cc4OkGld.s 			page 97


 3831              		.loc 1 187 9 is_stmt 1 view .LVU1494
 187:../Common/IQMath/ti/_IQNasin_acos.c ****     }
 3832              		.loc 1 187 20 is_stmt 0 view .LVU1495
 3833 00aa 4042     		rsbs	r0, r0, #0
 3834              	.LVL466:
 187:../Common/IQMath/ti/_IQNasin_acos.c ****     }
 3835              		.loc 1 187 20 view .LVU1496
 3836 00ac 09E0     		b	.L157
 3837              	.LVL467:
 3838              	.L165:
  90:../Common/IQMath/ti/_IQNasin_acos.c ****         iqNInput = -iqNInput;
 3839              		.loc 1 90 9 is_stmt 1 view .LVU1497
  91:../Common/IQMath/ti/_IQNasin_acos.c ****     }
 3840              		.loc 1 91 9 view .LVU1498
  91:../Common/IQMath/ti/_IQNasin_acos.c ****     }
 3841              		.loc 1 91 18 is_stmt 0 view .LVU1499
 3842 00ae 4042     		rsbs	r0, r0, #0
 3843              	.LVL468:
  90:../Common/IQMath/ti/_IQNasin_acos.c ****         iqNInput = -iqNInput;
 3844              		.loc 1 90 19 view .LVU1500
 3845 00b0 0124     		movs	r4, #1
 3846 00b2 A9E7     		b	.L158
 3847              	.LVL469:
 3848              	.L166:
 115:../Common/IQMath/ti/_IQNasin_acos.c ****         
 3849              		.loc 1 115 9 is_stmt 1 view .LVU1501
 118:../Common/IQMath/ti/_IQNasin_acos.c ****         
 3850              		.loc 1 118 9 view .LVU1502
 118:../Common/IQMath/ti/_IQNasin_acos.c ****         
 3851              		.loc 1 118 22 is_stmt 0 view .LVU1503
 3852 00b4 5808     		lsrs	r0, r3, #1
 3853              	.LVL470:
 118:../Common/IQMath/ti/_IQNasin_acos.c ****         
 3854              		.loc 1 118 22 view .LVU1504
 3855 00b6 FFF7FEFF 		bl	_IQ31sqrt
 3856              	.LVL471:
 121:../Common/IQMath/ti/_IQNasin_acos.c ****     }
 3857              		.loc 1 121 9 is_stmt 1 view .LVU1505
 121:../Common/IQMath/ti/_IQNasin_acos.c ****     }
 3858              		.loc 1 121 19 is_stmt 0 view .LVU1506
 3859 00ba 44F00204 		orr	r4, r4, #2
 3860              	.LVL472:
 121:../Common/IQMath/ti/_IQNasin_acos.c ****     }
 3861              		.loc 1 121 19 view .LVU1507
 3862 00be ACE7     		b	.L160
 3863              	.LVL473:
 3864              	.L163:
 100:../Common/IQMath/ti/_IQNasin_acos.c ****     }
 3865              		.loc 1 100 16 view .LVU1508
 3866 00c0 0020     		movs	r0, #0
 3867              	.LVL474:
 3868              	.L157:
 100:../Common/IQMath/ti/_IQNasin_acos.c ****     }
 3869              		.loc 1 100 16 view .LVU1509
 3870              	.LBE347:
 3871              	.LBE349:
 347:../Common/IQMath/ti/_IQNasin_acos.c **** }
ARM GAS  C:\Users\57308\AppData\Local\Temp\cc4OkGld.s 			page 98


 3872              		.loc 1 347 1 view .LVU1510
 3873 00c2 10BD     		pop	{r4, pc}
 3874              	.L168:
 3875              		.align	2
 3876              	.L167:
 3877 00c4 00000000 		.word	_IQ29Asin_coeffs
 3878 00c8 A8F64332 		.word	843314856
 3879              		.cfi_endproc
 3880              	.LFE275:
 3882              		.section	.text._IQ15asin,"ax",%progbits
 3883              		.align	1
 3884              		.global	_IQ15asin
 3885              		.syntax unified
 3886              		.thumb
 3887              		.thumb_func
 3889              	_IQ15asin:
 3890              	.LVL475:
 3891              	.LFB276:
 348:../Common/IQMath/ti/_IQNasin_acos.c **** /**
 349:../Common/IQMath/ti/_IQNasin_acos.c ****  * @brief Computes the inverse sine of the IQ15 input.
 350:../Common/IQMath/ti/_IQNasin_acos.c ****  *
 351:../Common/IQMath/ti/_IQNasin_acos.c ****  * @param a               IQ15 type input.
 352:../Common/IQMath/ti/_IQNasin_acos.c ****  *
 353:../Common/IQMath/ti/_IQNasin_acos.c ****  * @return                IQ15 type result of inverse sine.
 354:../Common/IQMath/ti/_IQNasin_acos.c ****  */
 355:../Common/IQMath/ti/_IQNasin_acos.c **** int32_t _IQ15asin(int32_t a)
 356:../Common/IQMath/ti/_IQNasin_acos.c **** {
 3892              		.loc 1 356 1 is_stmt 1 view -0
 3893              		.cfi_startproc
 3894              		@ args = 0, pretend = 0, frame = 0
 3895              		@ frame_needed = 0, uses_anonymous_args = 0
 3896              		.loc 1 356 1 is_stmt 0 view .LVU1512
 3897 0000 10B5     		push	{r4, lr}
 3898              	.LCFI14:
 3899              		.cfi_def_cfa_offset 8
 3900              		.cfi_offset 4, -8
 3901              		.cfi_offset 14, -4
 357:../Common/IQMath/ti/_IQNasin_acos.c ****     return __IQNasin(a, 15);
 3902              		.loc 1 357 5 is_stmt 1 view .LVU1513
 3903              	.LVL476:
 3904              	.LBB360:
 3905              	.LBI360:
  70:../Common/IQMath/ti/_IQNasin_acos.c **** {
 3906              		.loc 1 70 30 view .LVU1514
 3907              	.LBB361:
  72:../Common/IQMath/ti/_IQNasin_acos.c ****     uint_fast16_t index;
 3908              		.loc 1 72 5 view .LVU1515
  73:../Common/IQMath/ti/_IQNasin_acos.c ****     uint_fast16_t ui16IntState;
 3909              		.loc 1 73 5 view .LVU1516
  74:../Common/IQMath/ti/_IQNasin_acos.c ****     uint_fast16_t ui16MPYState;
 3910              		.loc 1 74 5 view .LVU1517
  75:../Common/IQMath/ti/_IQNasin_acos.c ****     int_fast32_t iq29Result;
 3911              		.loc 1 75 5 view .LVU1518
  76:../Common/IQMath/ti/_IQNasin_acos.c ****     const int_fast32_t *piq29Coeffs;
 3912              		.loc 1 76 5 view .LVU1519
  77:../Common/IQMath/ti/_IQNasin_acos.c ****     uint_fast32_t uiq31Input;
 3913              		.loc 1 77 5 view .LVU1520
ARM GAS  C:\Users\57308\AppData\Local\Temp\cc4OkGld.s 			page 99


  78:../Common/IQMath/ti/_IQNasin_acos.c ****     uint_fast32_t uiq31InputTemp;
 3914              		.loc 1 78 5 view .LVU1521
  79:../Common/IQMath/ti/_IQNasin_acos.c ****     
 3915              		.loc 1 79 5 view .LVU1522
  89:../Common/IQMath/ti/_IQNasin_acos.c ****         ui8Status |= 1;
 3916              		.loc 1 89 5 view .LVU1523
  89:../Common/IQMath/ti/_IQNasin_acos.c ****         ui8Status |= 1;
 3917              		.loc 1 89 8 is_stmt 0 view .LVU1524
 3918 0002 0028     		cmp	r0, #0
  89:../Common/IQMath/ti/_IQNasin_acos.c ****         ui8Status |= 1;
 3919              		.loc 1 89 8 view .LVU1525
 3920 0004 53DB     		blt	.L177
  72:../Common/IQMath/ti/_IQNasin_acos.c ****     uint_fast16_t index;
 3921              		.loc 1 72 13 view .LVU1526
 3922 0006 0024     		movs	r4, #0
 3923              	.LVL477:
 3924              	.L170:
  99:../Common/IQMath/ti/_IQNasin_acos.c ****         return 0;
 3925              		.loc 1 99 5 is_stmt 1 view .LVU1527
  99:../Common/IQMath/ti/_IQNasin_acos.c ****         return 0;
 3926              		.loc 1 99 8 is_stmt 0 view .LVU1528
 3927 0008 B0F5004F 		cmp	r0, #32768
 3928 000c 58D8     		bhi	.L175
 104:../Common/IQMath/ti/_IQNasin_acos.c ****     
 3929              		.loc 1 104 5 is_stmt 1 view .LVU1529
 104:../Common/IQMath/ti/_IQNasin_acos.c ****     
 3930              		.loc 1 104 16 is_stmt 0 view .LVU1530
 3931 000e 0004     		lsls	r0, r0, #16
 3932              	.LVL478:
 112:../Common/IQMath/ti/_IQNasin_acos.c ****     if (uiq31InputTemp < 0x40000000) {
 3933              		.loc 1 112 5 is_stmt 1 view .LVU1531
 112:../Common/IQMath/ti/_IQNasin_acos.c ****     if (uiq31InputTemp < 0x40000000) {
 3934              		.loc 1 112 20 is_stmt 0 view .LVU1532
 3935 0010 C0F10043 		rsb	r3, r0, #-2147483648
 3936              	.LVL479:
 113:../Common/IQMath/ti/_IQNasin_acos.c ****         /* Halve the result. */
 3937              		.loc 1 113 5 is_stmt 1 view .LVU1533
 113:../Common/IQMath/ti/_IQNasin_acos.c ****         /* Halve the result. */
 3938              		.loc 1 113 8 is_stmt 0 view .LVU1534
 3939 0014 B3F1804F 		cmp	r3, #1073741824
 3940 0018 4CD3     		bcc	.L178
 3941              	.LVL480:
 3942              	.L172:
 125:../Common/IQMath/ti/_IQNasin_acos.c ****     
 3943              		.loc 1 125 5 is_stmt 1 view .LVU1535
 125:../Common/IQMath/ti/_IQNasin_acos.c ****     
 3944              		.loc 1 125 11 is_stmt 0 view .LVU1536
 3945 001a 830E     		lsrs	r3, r0, #26
 3946              	.LVL481:
 128:../Common/IQMath/ti/_IQNasin_acos.c ****     
 3947              		.loc 1 128 5 is_stmt 1 view .LVU1537
 128:../Common/IQMath/ti/_IQNasin_acos.c ****     
 3948              		.loc 1 128 17 is_stmt 0 view .LVU1538
 3949 001c 03EB8303 		add	r3, r3, r3, lsl #2
 3950              	.LVL482:
 128:../Common/IQMath/ti/_IQNasin_acos.c ****     
 3951              		.loc 1 128 17 view .LVU1539
ARM GAS  C:\Users\57308\AppData\Local\Temp\cc4OkGld.s 			page 100


 3952 0020 2849     		ldr	r1, .L179
 3953 0022 01EB8302 		add	r2, r1, r3, lsl #2
 3954              	.LVL483:
 136:../Common/IQMath/ti/_IQNasin_acos.c ****     
 3955              		.loc 1 136 5 is_stmt 1 view .LVU1540
 136:../Common/IQMath/ti/_IQNasin_acos.c ****     
 3956              		.loc 1 136 5 is_stmt 0 view .LVU1541
 3957              	.LBE361:
 3958              	.LBE360:
  28:../Common/IQMath/ti/./support/RTS_support.h **** }
 3959              		.loc 2 28 5 is_stmt 1 view .LVU1542
 3960              	.LBB372:
 3961              	.LBB370:
 145:../Common/IQMath/ti/_IQNasin_acos.c ****     
 3962              		.loc 1 145 5 view .LVU1543
 145:../Common/IQMath/ti/_IQNasin_acos.c ****     
 3963              		.loc 1 145 18 is_stmt 0 view .LVU1544
 3964 0026 51F82330 		ldr	r3, [r1, r3, lsl #2]
 3965              	.LVL484:
 3966              	.LBB362:
 3967              	.LBI362:
 233:../Common/IQMath/ti/./support/RTS_support.h **** {
 3968              		.loc 2 233 28 is_stmt 1 view .LVU1545
 3969              	.LBB363:
 3970              		.loc 2 235 5 view .LVU1546
 3971              		.loc 2 235 28 is_stmt 0 view .LVU1547
 3972 002a 4FEAE07C 		asr	ip, r0, #31
 3973              		.loc 2 235 49 view .LVU1548
 3974 002e D917     		asrs	r1, r3, #31
 3975              		.loc 2 235 47 view .LVU1549
 3976 0030 00FB01F1 		mul	r1, r0, r1
 3977 0034 03FB0C11 		mla	r1, r3, ip, r1
 3978 0038 A0FB033E 		umull	r3, lr, r0, r3
 3979              	.LVL485:
 3980              		.loc 2 235 47 view .LVU1550
 3981 003c 7144     		add	r1, r1, lr
 3982              		.loc 2 235 69 view .LVU1551
 3983 003e DB0F     		lsrs	r3, r3, #31
 3984 0040 43EA4103 		orr	r3, r3, r1, lsl #1
 3985              	.LVL486:
 3986              		.loc 2 235 69 view .LVU1552
 3987              	.LBE363:
 3988              	.LBE362:
 148:../Common/IQMath/ti/_IQNasin_acos.c ****     
 3989              		.loc 1 148 5 is_stmt 1 view .LVU1553
 148:../Common/IQMath/ti/_IQNasin_acos.c ****     
 3990              		.loc 1 148 31 is_stmt 0 view .LVU1554
 3991 0044 5168     		ldr	r1, [r2, #4]
 148:../Common/IQMath/ti/_IQNasin_acos.c ****     
 3992              		.loc 1 148 16 view .LVU1555
 3993 0046 0B44     		add	r3, r3, r1
 3994              	.LVL487:
 151:../Common/IQMath/ti/_IQNasin_acos.c ****     
 3995              		.loc 1 151 5 is_stmt 1 view .LVU1556
 3996              	.LBB364:
 3997              	.LBI364:
 233:../Common/IQMath/ti/./support/RTS_support.h **** {
ARM GAS  C:\Users\57308\AppData\Local\Temp\cc4OkGld.s 			page 101


 3998              		.loc 2 233 28 view .LVU1557
 3999              	.LBB365:
 4000              		.loc 2 235 5 view .LVU1558
 4001              		.loc 2 235 49 is_stmt 0 view .LVU1559
 4002 0048 D917     		asrs	r1, r3, #31
 4003              		.loc 2 235 47 view .LVU1560
 4004 004a 00FB01F1 		mul	r1, r0, r1
 4005 004e 03FB0C11 		mla	r1, r3, ip, r1
 4006 0052 A0FB033E 		umull	r3, lr, r0, r3
 4007              	.LVL488:
 4008              		.loc 2 235 47 view .LVU1561
 4009 0056 7144     		add	r1, r1, lr
 4010              		.loc 2 235 69 view .LVU1562
 4011 0058 DB0F     		lsrs	r3, r3, #31
 4012 005a 43EA4103 		orr	r3, r3, r1, lsl #1
 4013              	.LVL489:
 4014              		.loc 2 235 69 view .LVU1563
 4015              	.LBE365:
 4016              	.LBE364:
 154:../Common/IQMath/ti/_IQNasin_acos.c ****     
 4017              		.loc 1 154 5 is_stmt 1 view .LVU1564
 154:../Common/IQMath/ti/_IQNasin_acos.c ****     
 4018              		.loc 1 154 31 is_stmt 0 view .LVU1565
 4019 005e 9168     		ldr	r1, [r2, #8]
 154:../Common/IQMath/ti/_IQNasin_acos.c ****     
 4020              		.loc 1 154 16 view .LVU1566
 4021 0060 0B44     		add	r3, r3, r1
 4022              	.LVL490:
 157:../Common/IQMath/ti/_IQNasin_acos.c ****     
 4023              		.loc 1 157 5 is_stmt 1 view .LVU1567
 4024              	.LBB366:
 4025              	.LBI366:
 233:../Common/IQMath/ti/./support/RTS_support.h **** {
 4026              		.loc 2 233 28 view .LVU1568
 4027              	.LBB367:
 4028              		.loc 2 235 5 view .LVU1569
 4029              		.loc 2 235 49 is_stmt 0 view .LVU1570
 4030 0062 D917     		asrs	r1, r3, #31
 4031              		.loc 2 235 47 view .LVU1571
 4032 0064 00FB01F1 		mul	r1, r0, r1
 4033 0068 03FB0C11 		mla	r1, r3, ip, r1
 4034 006c A0FB033E 		umull	r3, lr, r0, r3
 4035              	.LVL491:
 4036              		.loc 2 235 47 view .LVU1572
 4037 0070 7144     		add	r1, r1, lr
 4038              		.loc 2 235 69 view .LVU1573
 4039 0072 DB0F     		lsrs	r3, r3, #31
 4040 0074 43EA4103 		orr	r3, r3, r1, lsl #1
 4041              	.LVL492:
 4042              		.loc 2 235 69 view .LVU1574
 4043              	.LBE367:
 4044              	.LBE366:
 160:../Common/IQMath/ti/_IQNasin_acos.c ****     
 4045              		.loc 1 160 5 is_stmt 1 view .LVU1575
 160:../Common/IQMath/ti/_IQNasin_acos.c ****     
 4046              		.loc 1 160 31 is_stmt 0 view .LVU1576
 4047 0078 D168     		ldr	r1, [r2, #12]
ARM GAS  C:\Users\57308\AppData\Local\Temp\cc4OkGld.s 			page 102


 160:../Common/IQMath/ti/_IQNasin_acos.c ****     
 4048              		.loc 1 160 16 view .LVU1577
 4049 007a 0B44     		add	r3, r3, r1
 4050              	.LVL493:
 163:../Common/IQMath/ti/_IQNasin_acos.c ****     
 4051              		.loc 1 163 5 is_stmt 1 view .LVU1578
 4052              	.LBB368:
 4053              	.LBI368:
 233:../Common/IQMath/ti/./support/RTS_support.h **** {
 4054              		.loc 2 233 28 view .LVU1579
 4055              	.LBB369:
 4056              		.loc 2 235 5 view .LVU1580
 4057              		.loc 2 235 49 is_stmt 0 view .LVU1581
 4058 007c D917     		asrs	r1, r3, #31
 4059              		.loc 2 235 47 view .LVU1582
 4060 007e 00FB01F1 		mul	r1, r0, r1
 4061 0082 03FB0C11 		mla	r1, r3, ip, r1
 4062 0086 A0FB0303 		umull	r0, r3, r0, r3
 4063              	.LVL494:
 4064              		.loc 2 235 47 view .LVU1583
 4065 008a 0B44     		add	r3, r3, r1
 4066              		.loc 2 235 69 view .LVU1584
 4067 008c C00F     		lsrs	r0, r0, #31
 4068 008e 40EA4300 		orr	r0, r0, r3, lsl #1
 4069              	.LVL495:
 4070              		.loc 2 235 69 view .LVU1585
 4071              	.LBE369:
 4072              	.LBE368:
 166:../Common/IQMath/ti/_IQNasin_acos.c ****     
 4073              		.loc 1 166 5 is_stmt 1 view .LVU1586
 166:../Common/IQMath/ti/_IQNasin_acos.c ****     
 4074              		.loc 1 166 31 is_stmt 0 view .LVU1587
 4075 0092 1369     		ldr	r3, [r2, #16]
 166:../Common/IQMath/ti/_IQNasin_acos.c ****     
 4076              		.loc 1 166 16 view .LVU1588
 4077 0094 1844     		add	r0, r0, r3
 4078              	.LVL496:
 172:../Common/IQMath/ti/_IQNasin_acos.c ****     
 4079              		.loc 1 172 5 is_stmt 1 view .LVU1589
 172:../Common/IQMath/ti/_IQNasin_acos.c ****     
 4080              		.loc 1 172 5 is_stmt 0 view .LVU1590
 4081              	.LBE370:
 4082              	.LBE372:
  72:../Common/IQMath/ti/./support/RTS_support.h **** }
 4083              		.loc 2 72 5 is_stmt 1 view .LVU1591
 4084              	.LBB373:
 4085              	.LBB371:
 175:../Common/IQMath/ti/_IQNasin_acos.c ****         /* asin(x) = pi/2 - 2*iq29Result */
 4086              		.loc 1 175 5 view .LVU1592
 175:../Common/IQMath/ti/_IQNasin_acos.c ****         /* asin(x) = pi/2 - 2*iq29Result */
 4087              		.loc 1 175 8 is_stmt 0 view .LVU1593
 4088 0096 14F0020F 		tst	r4, #2
 4089 009a 02D0     		beq	.L173
 177:../Common/IQMath/ti/_IQNasin_acos.c ****         iq29Result -= iq29_halfPi;      // this is equivalent to the above
 4090              		.loc 1 177 9 is_stmt 1 view .LVU1594
 4091              	.LVL497:
 178:../Common/IQMath/ti/_IQNasin_acos.c ****         iq29Result = -iq29Result;       // but avoids using temporary registers
ARM GAS  C:\Users\57308\AppData\Local\Temp\cc4OkGld.s 			page 103


 4092              		.loc 1 178 9 view .LVU1595
 179:../Common/IQMath/ti/_IQNasin_acos.c ****     }
 4093              		.loc 1 179 9 view .LVU1596
 179:../Common/IQMath/ti/_IQNasin_acos.c ****     }
 4094              		.loc 1 179 20 is_stmt 0 view .LVU1597
 4095 009c 0A4B     		ldr	r3, .L179+4
 4096 009e A3EB4000 		sub	r0, r3, r0, lsl #1
 4097              	.LVL498:
 4098              	.L173:
 183:../Common/IQMath/ti/_IQNasin_acos.c ****     
 4099              		.loc 1 183 5 is_stmt 1 view .LVU1598
 183:../Common/IQMath/ti/_IQNasin_acos.c ****     
 4100              		.loc 1 183 16 is_stmt 0 view .LVU1599
 4101 00a2 8013     		asrs	r0, r0, #14
 4102              	.LVL499:
 186:../Common/IQMath/ti/_IQNasin_acos.c ****         iq29Result = -iq29Result;
 4103              		.loc 1 186 5 is_stmt 1 view .LVU1600
 186:../Common/IQMath/ti/_IQNasin_acos.c ****         iq29Result = -iq29Result;
 4104              		.loc 1 186 8 is_stmt 0 view .LVU1601
 4105 00a4 14F0010F 		tst	r4, #1
 4106 00a8 0BD0     		beq	.L169
 187:../Common/IQMath/ti/_IQNasin_acos.c ****     }
 4107              		.loc 1 187 9 is_stmt 1 view .LVU1602
 187:../Common/IQMath/ti/_IQNasin_acos.c ****     }
 4108              		.loc 1 187 20 is_stmt 0 view .LVU1603
 4109 00aa 4042     		rsbs	r0, r0, #0
 4110              	.LVL500:
 187:../Common/IQMath/ti/_IQNasin_acos.c ****     }
 4111              		.loc 1 187 20 view .LVU1604
 4112 00ac 09E0     		b	.L169
 4113              	.LVL501:
 4114              	.L177:
  90:../Common/IQMath/ti/_IQNasin_acos.c ****         iqNInput = -iqNInput;
 4115              		.loc 1 90 9 is_stmt 1 view .LVU1605
  91:../Common/IQMath/ti/_IQNasin_acos.c ****     }
 4116              		.loc 1 91 9 view .LVU1606
  91:../Common/IQMath/ti/_IQNasin_acos.c ****     }
 4117              		.loc 1 91 18 is_stmt 0 view .LVU1607
 4118 00ae 4042     		rsbs	r0, r0, #0
 4119              	.LVL502:
  90:../Common/IQMath/ti/_IQNasin_acos.c ****         iqNInput = -iqNInput;
 4120              		.loc 1 90 19 view .LVU1608
 4121 00b0 0124     		movs	r4, #1
 4122 00b2 A9E7     		b	.L170
 4123              	.LVL503:
 4124              	.L178:
 115:../Common/IQMath/ti/_IQNasin_acos.c ****         
 4125              		.loc 1 115 9 is_stmt 1 view .LVU1609
 118:../Common/IQMath/ti/_IQNasin_acos.c ****         
 4126              		.loc 1 118 9 view .LVU1610
 118:../Common/IQMath/ti/_IQNasin_acos.c ****         
 4127              		.loc 1 118 22 is_stmt 0 view .LVU1611
 4128 00b4 5808     		lsrs	r0, r3, #1
 4129              	.LVL504:
 118:../Common/IQMath/ti/_IQNasin_acos.c ****         
 4130              		.loc 1 118 22 view .LVU1612
 4131 00b6 FFF7FEFF 		bl	_IQ31sqrt
ARM GAS  C:\Users\57308\AppData\Local\Temp\cc4OkGld.s 			page 104


 4132              	.LVL505:
 121:../Common/IQMath/ti/_IQNasin_acos.c ****     }
 4133              		.loc 1 121 9 is_stmt 1 view .LVU1613
 121:../Common/IQMath/ti/_IQNasin_acos.c ****     }
 4134              		.loc 1 121 19 is_stmt 0 view .LVU1614
 4135 00ba 44F00204 		orr	r4, r4, #2
 4136              	.LVL506:
 121:../Common/IQMath/ti/_IQNasin_acos.c ****     }
 4137              		.loc 1 121 19 view .LVU1615
 4138 00be ACE7     		b	.L172
 4139              	.LVL507:
 4140              	.L175:
 100:../Common/IQMath/ti/_IQNasin_acos.c ****     }
 4141              		.loc 1 100 16 view .LVU1616
 4142 00c0 0020     		movs	r0, #0
 4143              	.LVL508:
 4144              	.L169:
 100:../Common/IQMath/ti/_IQNasin_acos.c ****     }
 4145              		.loc 1 100 16 view .LVU1617
 4146              	.LBE371:
 4147              	.LBE373:
 358:../Common/IQMath/ti/_IQNasin_acos.c **** }
 4148              		.loc 1 358 1 view .LVU1618
 4149 00c2 10BD     		pop	{r4, pc}
 4150              	.L180:
 4151              		.align	2
 4152              	.L179:
 4153 00c4 00000000 		.word	_IQ29Asin_coeffs
 4154 00c8 A8F64332 		.word	843314856
 4155              		.cfi_endproc
 4156              	.LFE276:
 4158              		.section	.text._IQ14asin,"ax",%progbits
 4159              		.align	1
 4160              		.global	_IQ14asin
 4161              		.syntax unified
 4162              		.thumb
 4163              		.thumb_func
 4165              	_IQ14asin:
 4166              	.LVL509:
 4167              	.LFB277:
 359:../Common/IQMath/ti/_IQNasin_acos.c **** /**
 360:../Common/IQMath/ti/_IQNasin_acos.c ****  * @brief Computes the inverse sine of the IQ14 input.
 361:../Common/IQMath/ti/_IQNasin_acos.c ****  *
 362:../Common/IQMath/ti/_IQNasin_acos.c ****  * @param a               IQ14 type input.
 363:../Common/IQMath/ti/_IQNasin_acos.c ****  *
 364:../Common/IQMath/ti/_IQNasin_acos.c ****  * @return                IQ14 type result of inverse sine.
 365:../Common/IQMath/ti/_IQNasin_acos.c ****  */
 366:../Common/IQMath/ti/_IQNasin_acos.c **** int32_t _IQ14asin(int32_t a)
 367:../Common/IQMath/ti/_IQNasin_acos.c **** {
 4168              		.loc 1 367 1 is_stmt 1 view -0
 4169              		.cfi_startproc
 4170              		@ args = 0, pretend = 0, frame = 0
 4171              		@ frame_needed = 0, uses_anonymous_args = 0
 4172              		.loc 1 367 1 is_stmt 0 view .LVU1620
 4173 0000 10B5     		push	{r4, lr}
 4174              	.LCFI15:
 4175              		.cfi_def_cfa_offset 8
ARM GAS  C:\Users\57308\AppData\Local\Temp\cc4OkGld.s 			page 105


 4176              		.cfi_offset 4, -8
 4177              		.cfi_offset 14, -4
 368:../Common/IQMath/ti/_IQNasin_acos.c ****     return __IQNasin(a, 14);
 4178              		.loc 1 368 5 is_stmt 1 view .LVU1621
 4179              	.LVL510:
 4180              	.LBB384:
 4181              	.LBI384:
  70:../Common/IQMath/ti/_IQNasin_acos.c **** {
 4182              		.loc 1 70 30 view .LVU1622
 4183              	.LBB385:
  72:../Common/IQMath/ti/_IQNasin_acos.c ****     uint_fast16_t index;
 4184              		.loc 1 72 5 view .LVU1623
  73:../Common/IQMath/ti/_IQNasin_acos.c ****     uint_fast16_t ui16IntState;
 4185              		.loc 1 73 5 view .LVU1624
  74:../Common/IQMath/ti/_IQNasin_acos.c ****     uint_fast16_t ui16MPYState;
 4186              		.loc 1 74 5 view .LVU1625
  75:../Common/IQMath/ti/_IQNasin_acos.c ****     int_fast32_t iq29Result;
 4187              		.loc 1 75 5 view .LVU1626
  76:../Common/IQMath/ti/_IQNasin_acos.c ****     const int_fast32_t *piq29Coeffs;
 4188              		.loc 1 76 5 view .LVU1627
  77:../Common/IQMath/ti/_IQNasin_acos.c ****     uint_fast32_t uiq31Input;
 4189              		.loc 1 77 5 view .LVU1628
  78:../Common/IQMath/ti/_IQNasin_acos.c ****     uint_fast32_t uiq31InputTemp;
 4190              		.loc 1 78 5 view .LVU1629
  79:../Common/IQMath/ti/_IQNasin_acos.c ****     
 4191              		.loc 1 79 5 view .LVU1630
  89:../Common/IQMath/ti/_IQNasin_acos.c ****         ui8Status |= 1;
 4192              		.loc 1 89 5 view .LVU1631
  89:../Common/IQMath/ti/_IQNasin_acos.c ****         ui8Status |= 1;
 4193              		.loc 1 89 8 is_stmt 0 view .LVU1632
 4194 0002 0028     		cmp	r0, #0
  89:../Common/IQMath/ti/_IQNasin_acos.c ****         ui8Status |= 1;
 4195              		.loc 1 89 8 view .LVU1633
 4196 0004 53DB     		blt	.L189
  72:../Common/IQMath/ti/_IQNasin_acos.c ****     uint_fast16_t index;
 4197              		.loc 1 72 13 view .LVU1634
 4198 0006 0024     		movs	r4, #0
 4199              	.LVL511:
 4200              	.L182:
  99:../Common/IQMath/ti/_IQNasin_acos.c ****         return 0;
 4201              		.loc 1 99 5 is_stmt 1 view .LVU1635
  99:../Common/IQMath/ti/_IQNasin_acos.c ****         return 0;
 4202              		.loc 1 99 8 is_stmt 0 view .LVU1636
 4203 0008 B0F5804F 		cmp	r0, #16384
 4204 000c 58D8     		bhi	.L187
 104:../Common/IQMath/ti/_IQNasin_acos.c ****     
 4205              		.loc 1 104 5 is_stmt 1 view .LVU1637
 104:../Common/IQMath/ti/_IQNasin_acos.c ****     
 4206              		.loc 1 104 16 is_stmt 0 view .LVU1638
 4207 000e 4004     		lsls	r0, r0, #17
 4208              	.LVL512:
 112:../Common/IQMath/ti/_IQNasin_acos.c ****     if (uiq31InputTemp < 0x40000000) {
 4209              		.loc 1 112 5 is_stmt 1 view .LVU1639
 112:../Common/IQMath/ti/_IQNasin_acos.c ****     if (uiq31InputTemp < 0x40000000) {
 4210              		.loc 1 112 20 is_stmt 0 view .LVU1640
 4211 0010 C0F10043 		rsb	r3, r0, #-2147483648
 4212              	.LVL513:
ARM GAS  C:\Users\57308\AppData\Local\Temp\cc4OkGld.s 			page 106


 113:../Common/IQMath/ti/_IQNasin_acos.c ****         /* Halve the result. */
 4213              		.loc 1 113 5 is_stmt 1 view .LVU1641
 113:../Common/IQMath/ti/_IQNasin_acos.c ****         /* Halve the result. */
 4214              		.loc 1 113 8 is_stmt 0 view .LVU1642
 4215 0014 B3F1804F 		cmp	r3, #1073741824
 4216 0018 4CD3     		bcc	.L190
 4217              	.LVL514:
 4218              	.L184:
 125:../Common/IQMath/ti/_IQNasin_acos.c ****     
 4219              		.loc 1 125 5 is_stmt 1 view .LVU1643
 125:../Common/IQMath/ti/_IQNasin_acos.c ****     
 4220              		.loc 1 125 11 is_stmt 0 view .LVU1644
 4221 001a 830E     		lsrs	r3, r0, #26
 4222              	.LVL515:
 128:../Common/IQMath/ti/_IQNasin_acos.c ****     
 4223              		.loc 1 128 5 is_stmt 1 view .LVU1645
 128:../Common/IQMath/ti/_IQNasin_acos.c ****     
 4224              		.loc 1 128 17 is_stmt 0 view .LVU1646
 4225 001c 03EB8303 		add	r3, r3, r3, lsl #2
 4226              	.LVL516:
 128:../Common/IQMath/ti/_IQNasin_acos.c ****     
 4227              		.loc 1 128 17 view .LVU1647
 4228 0020 2849     		ldr	r1, .L191
 4229 0022 01EB8302 		add	r2, r1, r3, lsl #2
 4230              	.LVL517:
 136:../Common/IQMath/ti/_IQNasin_acos.c ****     
 4231              		.loc 1 136 5 is_stmt 1 view .LVU1648
 136:../Common/IQMath/ti/_IQNasin_acos.c ****     
 4232              		.loc 1 136 5 is_stmt 0 view .LVU1649
 4233              	.LBE385:
 4234              	.LBE384:
  28:../Common/IQMath/ti/./support/RTS_support.h **** }
 4235              		.loc 2 28 5 is_stmt 1 view .LVU1650
 4236              	.LBB396:
 4237              	.LBB394:
 145:../Common/IQMath/ti/_IQNasin_acos.c ****     
 4238              		.loc 1 145 5 view .LVU1651
 145:../Common/IQMath/ti/_IQNasin_acos.c ****     
 4239              		.loc 1 145 18 is_stmt 0 view .LVU1652
 4240 0026 51F82330 		ldr	r3, [r1, r3, lsl #2]
 4241              	.LVL518:
 4242              	.LBB386:
 4243              	.LBI386:
 233:../Common/IQMath/ti/./support/RTS_support.h **** {
 4244              		.loc 2 233 28 is_stmt 1 view .LVU1653
 4245              	.LBB387:
 4246              		.loc 2 235 5 view .LVU1654
 4247              		.loc 2 235 28 is_stmt 0 view .LVU1655
 4248 002a 4FEAE07C 		asr	ip, r0, #31
 4249              		.loc 2 235 49 view .LVU1656
 4250 002e D917     		asrs	r1, r3, #31
 4251              		.loc 2 235 47 view .LVU1657
 4252 0030 00FB01F1 		mul	r1, r0, r1
 4253 0034 03FB0C11 		mla	r1, r3, ip, r1
 4254 0038 A0FB033E 		umull	r3, lr, r0, r3
 4255              	.LVL519:
 4256              		.loc 2 235 47 view .LVU1658
ARM GAS  C:\Users\57308\AppData\Local\Temp\cc4OkGld.s 			page 107


 4257 003c 7144     		add	r1, r1, lr
 4258              		.loc 2 235 69 view .LVU1659
 4259 003e DB0F     		lsrs	r3, r3, #31
 4260 0040 43EA4103 		orr	r3, r3, r1, lsl #1
 4261              	.LVL520:
 4262              		.loc 2 235 69 view .LVU1660
 4263              	.LBE387:
 4264              	.LBE386:
 148:../Common/IQMath/ti/_IQNasin_acos.c ****     
 4265              		.loc 1 148 5 is_stmt 1 view .LVU1661
 148:../Common/IQMath/ti/_IQNasin_acos.c ****     
 4266              		.loc 1 148 31 is_stmt 0 view .LVU1662
 4267 0044 5168     		ldr	r1, [r2, #4]
 148:../Common/IQMath/ti/_IQNasin_acos.c ****     
 4268              		.loc 1 148 16 view .LVU1663
 4269 0046 0B44     		add	r3, r3, r1
 4270              	.LVL521:
 151:../Common/IQMath/ti/_IQNasin_acos.c ****     
 4271              		.loc 1 151 5 is_stmt 1 view .LVU1664
 4272              	.LBB388:
 4273              	.LBI388:
 233:../Common/IQMath/ti/./support/RTS_support.h **** {
 4274              		.loc 2 233 28 view .LVU1665
 4275              	.LBB389:
 4276              		.loc 2 235 5 view .LVU1666
 4277              		.loc 2 235 49 is_stmt 0 view .LVU1667
 4278 0048 D917     		asrs	r1, r3, #31
 4279              		.loc 2 235 47 view .LVU1668
 4280 004a 00FB01F1 		mul	r1, r0, r1
 4281 004e 03FB0C11 		mla	r1, r3, ip, r1
 4282 0052 A0FB033E 		umull	r3, lr, r0, r3
 4283              	.LVL522:
 4284              		.loc 2 235 47 view .LVU1669
 4285 0056 7144     		add	r1, r1, lr
 4286              		.loc 2 235 69 view .LVU1670
 4287 0058 DB0F     		lsrs	r3, r3, #31
 4288 005a 43EA4103 		orr	r3, r3, r1, lsl #1
 4289              	.LVL523:
 4290              		.loc 2 235 69 view .LVU1671
 4291              	.LBE389:
 4292              	.LBE388:
 154:../Common/IQMath/ti/_IQNasin_acos.c ****     
 4293              		.loc 1 154 5 is_stmt 1 view .LVU1672
 154:../Common/IQMath/ti/_IQNasin_acos.c ****     
 4294              		.loc 1 154 31 is_stmt 0 view .LVU1673
 4295 005e 9168     		ldr	r1, [r2, #8]
 154:../Common/IQMath/ti/_IQNasin_acos.c ****     
 4296              		.loc 1 154 16 view .LVU1674
 4297 0060 0B44     		add	r3, r3, r1
 4298              	.LVL524:
 157:../Common/IQMath/ti/_IQNasin_acos.c ****     
 4299              		.loc 1 157 5 is_stmt 1 view .LVU1675
 4300              	.LBB390:
 4301              	.LBI390:
 233:../Common/IQMath/ti/./support/RTS_support.h **** {
 4302              		.loc 2 233 28 view .LVU1676
 4303              	.LBB391:
ARM GAS  C:\Users\57308\AppData\Local\Temp\cc4OkGld.s 			page 108


 4304              		.loc 2 235 5 view .LVU1677
 4305              		.loc 2 235 49 is_stmt 0 view .LVU1678
 4306 0062 D917     		asrs	r1, r3, #31
 4307              		.loc 2 235 47 view .LVU1679
 4308 0064 00FB01F1 		mul	r1, r0, r1
 4309 0068 03FB0C11 		mla	r1, r3, ip, r1
 4310 006c A0FB033E 		umull	r3, lr, r0, r3
 4311              	.LVL525:
 4312              		.loc 2 235 47 view .LVU1680
 4313 0070 7144     		add	r1, r1, lr
 4314              		.loc 2 235 69 view .LVU1681
 4315 0072 DB0F     		lsrs	r3, r3, #31
 4316 0074 43EA4103 		orr	r3, r3, r1, lsl #1
 4317              	.LVL526:
 4318              		.loc 2 235 69 view .LVU1682
 4319              	.LBE391:
 4320              	.LBE390:
 160:../Common/IQMath/ti/_IQNasin_acos.c ****     
 4321              		.loc 1 160 5 is_stmt 1 view .LVU1683
 160:../Common/IQMath/ti/_IQNasin_acos.c ****     
 4322              		.loc 1 160 31 is_stmt 0 view .LVU1684
 4323 0078 D168     		ldr	r1, [r2, #12]
 160:../Common/IQMath/ti/_IQNasin_acos.c ****     
 4324              		.loc 1 160 16 view .LVU1685
 4325 007a 0B44     		add	r3, r3, r1
 4326              	.LVL527:
 163:../Common/IQMath/ti/_IQNasin_acos.c ****     
 4327              		.loc 1 163 5 is_stmt 1 view .LVU1686
 4328              	.LBB392:
 4329              	.LBI392:
 233:../Common/IQMath/ti/./support/RTS_support.h **** {
 4330              		.loc 2 233 28 view .LVU1687
 4331              	.LBB393:
 4332              		.loc 2 235 5 view .LVU1688
 4333              		.loc 2 235 49 is_stmt 0 view .LVU1689
 4334 007c D917     		asrs	r1, r3, #31
 4335              		.loc 2 235 47 view .LVU1690
 4336 007e 00FB01F1 		mul	r1, r0, r1
 4337 0082 03FB0C11 		mla	r1, r3, ip, r1
 4338 0086 A0FB0303 		umull	r0, r3, r0, r3
 4339              	.LVL528:
 4340              		.loc 2 235 47 view .LVU1691
 4341 008a 0B44     		add	r3, r3, r1
 4342              		.loc 2 235 69 view .LVU1692
 4343 008c C00F     		lsrs	r0, r0, #31
 4344 008e 40EA4300 		orr	r0, r0, r3, lsl #1
 4345              	.LVL529:
 4346              		.loc 2 235 69 view .LVU1693
 4347              	.LBE393:
 4348              	.LBE392:
 166:../Common/IQMath/ti/_IQNasin_acos.c ****     
 4349              		.loc 1 166 5 is_stmt 1 view .LVU1694
 166:../Common/IQMath/ti/_IQNasin_acos.c ****     
 4350              		.loc 1 166 31 is_stmt 0 view .LVU1695
 4351 0092 1369     		ldr	r3, [r2, #16]
 166:../Common/IQMath/ti/_IQNasin_acos.c ****     
 4352              		.loc 1 166 16 view .LVU1696
ARM GAS  C:\Users\57308\AppData\Local\Temp\cc4OkGld.s 			page 109


 4353 0094 1844     		add	r0, r0, r3
 4354              	.LVL530:
 172:../Common/IQMath/ti/_IQNasin_acos.c ****     
 4355              		.loc 1 172 5 is_stmt 1 view .LVU1697
 172:../Common/IQMath/ti/_IQNasin_acos.c ****     
 4356              		.loc 1 172 5 is_stmt 0 view .LVU1698
 4357              	.LBE394:
 4358              	.LBE396:
  72:../Common/IQMath/ti/./support/RTS_support.h **** }
 4359              		.loc 2 72 5 is_stmt 1 view .LVU1699
 4360              	.LBB397:
 4361              	.LBB395:
 175:../Common/IQMath/ti/_IQNasin_acos.c ****         /* asin(x) = pi/2 - 2*iq29Result */
 4362              		.loc 1 175 5 view .LVU1700
 175:../Common/IQMath/ti/_IQNasin_acos.c ****         /* asin(x) = pi/2 - 2*iq29Result */
 4363              		.loc 1 175 8 is_stmt 0 view .LVU1701
 4364 0096 14F0020F 		tst	r4, #2
 4365 009a 02D0     		beq	.L185
 177:../Common/IQMath/ti/_IQNasin_acos.c ****         iq29Result -= iq29_halfPi;      // this is equivalent to the above
 4366              		.loc 1 177 9 is_stmt 1 view .LVU1702
 4367              	.LVL531:
 178:../Common/IQMath/ti/_IQNasin_acos.c ****         iq29Result = -iq29Result;       // but avoids using temporary registers
 4368              		.loc 1 178 9 view .LVU1703
 179:../Common/IQMath/ti/_IQNasin_acos.c ****     }
 4369              		.loc 1 179 9 view .LVU1704
 179:../Common/IQMath/ti/_IQNasin_acos.c ****     }
 4370              		.loc 1 179 20 is_stmt 0 view .LVU1705
 4371 009c 0A4B     		ldr	r3, .L191+4
 4372 009e A3EB4000 		sub	r0, r3, r0, lsl #1
 4373              	.LVL532:
 4374              	.L185:
 183:../Common/IQMath/ti/_IQNasin_acos.c ****     
 4375              		.loc 1 183 5 is_stmt 1 view .LVU1706
 183:../Common/IQMath/ti/_IQNasin_acos.c ****     
 4376              		.loc 1 183 16 is_stmt 0 view .LVU1707
 4377 00a2 C013     		asrs	r0, r0, #15
 4378              	.LVL533:
 186:../Common/IQMath/ti/_IQNasin_acos.c ****         iq29Result = -iq29Result;
 4379              		.loc 1 186 5 is_stmt 1 view .LVU1708
 186:../Common/IQMath/ti/_IQNasin_acos.c ****         iq29Result = -iq29Result;
 4380              		.loc 1 186 8 is_stmt 0 view .LVU1709
 4381 00a4 14F0010F 		tst	r4, #1
 4382 00a8 0BD0     		beq	.L181
 187:../Common/IQMath/ti/_IQNasin_acos.c ****     }
 4383              		.loc 1 187 9 is_stmt 1 view .LVU1710
 187:../Common/IQMath/ti/_IQNasin_acos.c ****     }
 4384              		.loc 1 187 20 is_stmt 0 view .LVU1711
 4385 00aa 4042     		rsbs	r0, r0, #0
 4386              	.LVL534:
 187:../Common/IQMath/ti/_IQNasin_acos.c ****     }
 4387              		.loc 1 187 20 view .LVU1712
 4388 00ac 09E0     		b	.L181
 4389              	.LVL535:
 4390              	.L189:
  90:../Common/IQMath/ti/_IQNasin_acos.c ****         iqNInput = -iqNInput;
 4391              		.loc 1 90 9 is_stmt 1 view .LVU1713
  91:../Common/IQMath/ti/_IQNasin_acos.c ****     }
ARM GAS  C:\Users\57308\AppData\Local\Temp\cc4OkGld.s 			page 110


 4392              		.loc 1 91 9 view .LVU1714
  91:../Common/IQMath/ti/_IQNasin_acos.c ****     }
 4393              		.loc 1 91 18 is_stmt 0 view .LVU1715
 4394 00ae 4042     		rsbs	r0, r0, #0
 4395              	.LVL536:
  90:../Common/IQMath/ti/_IQNasin_acos.c ****         iqNInput = -iqNInput;
 4396              		.loc 1 90 19 view .LVU1716
 4397 00b0 0124     		movs	r4, #1
 4398 00b2 A9E7     		b	.L182
 4399              	.LVL537:
 4400              	.L190:
 115:../Common/IQMath/ti/_IQNasin_acos.c ****         
 4401              		.loc 1 115 9 is_stmt 1 view .LVU1717
 118:../Common/IQMath/ti/_IQNasin_acos.c ****         
 4402              		.loc 1 118 9 view .LVU1718
 118:../Common/IQMath/ti/_IQNasin_acos.c ****         
 4403              		.loc 1 118 22 is_stmt 0 view .LVU1719
 4404 00b4 5808     		lsrs	r0, r3, #1
 4405              	.LVL538:
 118:../Common/IQMath/ti/_IQNasin_acos.c ****         
 4406              		.loc 1 118 22 view .LVU1720
 4407 00b6 FFF7FEFF 		bl	_IQ31sqrt
 4408              	.LVL539:
 121:../Common/IQMath/ti/_IQNasin_acos.c ****     }
 4409              		.loc 1 121 9 is_stmt 1 view .LVU1721
 121:../Common/IQMath/ti/_IQNasin_acos.c ****     }
 4410              		.loc 1 121 19 is_stmt 0 view .LVU1722
 4411 00ba 44F00204 		orr	r4, r4, #2
 4412              	.LVL540:
 121:../Common/IQMath/ti/_IQNasin_acos.c ****     }
 4413              		.loc 1 121 19 view .LVU1723
 4414 00be ACE7     		b	.L184
 4415              	.LVL541:
 4416              	.L187:
 100:../Common/IQMath/ti/_IQNasin_acos.c ****     }
 4417              		.loc 1 100 16 view .LVU1724
 4418 00c0 0020     		movs	r0, #0
 4419              	.LVL542:
 4420              	.L181:
 100:../Common/IQMath/ti/_IQNasin_acos.c ****     }
 4421              		.loc 1 100 16 view .LVU1725
 4422              	.LBE395:
 4423              	.LBE397:
 369:../Common/IQMath/ti/_IQNasin_acos.c **** }
 4424              		.loc 1 369 1 view .LVU1726
 4425 00c2 10BD     		pop	{r4, pc}
 4426              	.L192:
 4427              		.align	2
 4428              	.L191:
 4429 00c4 00000000 		.word	_IQ29Asin_coeffs
 4430 00c8 A8F64332 		.word	843314856
 4431              		.cfi_endproc
 4432              	.LFE277:
 4434              		.section	.text._IQ13asin,"ax",%progbits
 4435              		.align	1
 4436              		.global	_IQ13asin
 4437              		.syntax unified
ARM GAS  C:\Users\57308\AppData\Local\Temp\cc4OkGld.s 			page 111


 4438              		.thumb
 4439              		.thumb_func
 4441              	_IQ13asin:
 4442              	.LVL543:
 4443              	.LFB278:
 370:../Common/IQMath/ti/_IQNasin_acos.c **** /**
 371:../Common/IQMath/ti/_IQNasin_acos.c ****  * @brief Computes the inverse sine of the IQ13 input.
 372:../Common/IQMath/ti/_IQNasin_acos.c ****  *
 373:../Common/IQMath/ti/_IQNasin_acos.c ****  * @param a               IQ13 type input.
 374:../Common/IQMath/ti/_IQNasin_acos.c ****  *
 375:../Common/IQMath/ti/_IQNasin_acos.c ****  * @return                IQ13 type result of inverse sine.
 376:../Common/IQMath/ti/_IQNasin_acos.c ****  */
 377:../Common/IQMath/ti/_IQNasin_acos.c **** int32_t _IQ13asin(int32_t a)
 378:../Common/IQMath/ti/_IQNasin_acos.c **** {
 4444              		.loc 1 378 1 is_stmt 1 view -0
 4445              		.cfi_startproc
 4446              		@ args = 0, pretend = 0, frame = 0
 4447              		@ frame_needed = 0, uses_anonymous_args = 0
 4448              		.loc 1 378 1 is_stmt 0 view .LVU1728
 4449 0000 10B5     		push	{r4, lr}
 4450              	.LCFI16:
 4451              		.cfi_def_cfa_offset 8
 4452              		.cfi_offset 4, -8
 4453              		.cfi_offset 14, -4
 379:../Common/IQMath/ti/_IQNasin_acos.c ****     return __IQNasin(a, 13);
 4454              		.loc 1 379 5 is_stmt 1 view .LVU1729
 4455              	.LVL544:
 4456              	.LBB408:
 4457              	.LBI408:
  70:../Common/IQMath/ti/_IQNasin_acos.c **** {
 4458              		.loc 1 70 30 view .LVU1730
 4459              	.LBB409:
  72:../Common/IQMath/ti/_IQNasin_acos.c ****     uint_fast16_t index;
 4460              		.loc 1 72 5 view .LVU1731
  73:../Common/IQMath/ti/_IQNasin_acos.c ****     uint_fast16_t ui16IntState;
 4461              		.loc 1 73 5 view .LVU1732
  74:../Common/IQMath/ti/_IQNasin_acos.c ****     uint_fast16_t ui16MPYState;
 4462              		.loc 1 74 5 view .LVU1733
  75:../Common/IQMath/ti/_IQNasin_acos.c ****     int_fast32_t iq29Result;
 4463              		.loc 1 75 5 view .LVU1734
  76:../Common/IQMath/ti/_IQNasin_acos.c ****     const int_fast32_t *piq29Coeffs;
 4464              		.loc 1 76 5 view .LVU1735
  77:../Common/IQMath/ti/_IQNasin_acos.c ****     uint_fast32_t uiq31Input;
 4465              		.loc 1 77 5 view .LVU1736
  78:../Common/IQMath/ti/_IQNasin_acos.c ****     uint_fast32_t uiq31InputTemp;
 4466              		.loc 1 78 5 view .LVU1737
  79:../Common/IQMath/ti/_IQNasin_acos.c ****     
 4467              		.loc 1 79 5 view .LVU1738
  89:../Common/IQMath/ti/_IQNasin_acos.c ****         ui8Status |= 1;
 4468              		.loc 1 89 5 view .LVU1739
  89:../Common/IQMath/ti/_IQNasin_acos.c ****         ui8Status |= 1;
 4469              		.loc 1 89 8 is_stmt 0 view .LVU1740
 4470 0002 0028     		cmp	r0, #0
  89:../Common/IQMath/ti/_IQNasin_acos.c ****         ui8Status |= 1;
 4471              		.loc 1 89 8 view .LVU1741
 4472 0004 53DB     		blt	.L201
  72:../Common/IQMath/ti/_IQNasin_acos.c ****     uint_fast16_t index;
ARM GAS  C:\Users\57308\AppData\Local\Temp\cc4OkGld.s 			page 112


 4473              		.loc 1 72 13 view .LVU1742
 4474 0006 0024     		movs	r4, #0
 4475              	.LVL545:
 4476              	.L194:
  99:../Common/IQMath/ti/_IQNasin_acos.c ****         return 0;
 4477              		.loc 1 99 5 is_stmt 1 view .LVU1743
  99:../Common/IQMath/ti/_IQNasin_acos.c ****         return 0;
 4478              		.loc 1 99 8 is_stmt 0 view .LVU1744
 4479 0008 B0F5005F 		cmp	r0, #8192
 4480 000c 58D8     		bhi	.L199
 104:../Common/IQMath/ti/_IQNasin_acos.c ****     
 4481              		.loc 1 104 5 is_stmt 1 view .LVU1745
 104:../Common/IQMath/ti/_IQNasin_acos.c ****     
 4482              		.loc 1 104 16 is_stmt 0 view .LVU1746
 4483 000e 8004     		lsls	r0, r0, #18
 4484              	.LVL546:
 112:../Common/IQMath/ti/_IQNasin_acos.c ****     if (uiq31InputTemp < 0x40000000) {
 4485              		.loc 1 112 5 is_stmt 1 view .LVU1747
 112:../Common/IQMath/ti/_IQNasin_acos.c ****     if (uiq31InputTemp < 0x40000000) {
 4486              		.loc 1 112 20 is_stmt 0 view .LVU1748
 4487 0010 C0F10043 		rsb	r3, r0, #-2147483648
 4488              	.LVL547:
 113:../Common/IQMath/ti/_IQNasin_acos.c ****         /* Halve the result. */
 4489              		.loc 1 113 5 is_stmt 1 view .LVU1749
 113:../Common/IQMath/ti/_IQNasin_acos.c ****         /* Halve the result. */
 4490              		.loc 1 113 8 is_stmt 0 view .LVU1750
 4491 0014 B3F1804F 		cmp	r3, #1073741824
 4492 0018 4CD3     		bcc	.L202
 4493              	.LVL548:
 4494              	.L196:
 125:../Common/IQMath/ti/_IQNasin_acos.c ****     
 4495              		.loc 1 125 5 is_stmt 1 view .LVU1751
 125:../Common/IQMath/ti/_IQNasin_acos.c ****     
 4496              		.loc 1 125 11 is_stmt 0 view .LVU1752
 4497 001a 830E     		lsrs	r3, r0, #26
 4498              	.LVL549:
 128:../Common/IQMath/ti/_IQNasin_acos.c ****     
 4499              		.loc 1 128 5 is_stmt 1 view .LVU1753
 128:../Common/IQMath/ti/_IQNasin_acos.c ****     
 4500              		.loc 1 128 17 is_stmt 0 view .LVU1754
 4501 001c 03EB8303 		add	r3, r3, r3, lsl #2
 4502              	.LVL550:
 128:../Common/IQMath/ti/_IQNasin_acos.c ****     
 4503              		.loc 1 128 17 view .LVU1755
 4504 0020 2849     		ldr	r1, .L203
 4505 0022 01EB8302 		add	r2, r1, r3, lsl #2
 4506              	.LVL551:
 136:../Common/IQMath/ti/_IQNasin_acos.c ****     
 4507              		.loc 1 136 5 is_stmt 1 view .LVU1756
 136:../Common/IQMath/ti/_IQNasin_acos.c ****     
 4508              		.loc 1 136 5 is_stmt 0 view .LVU1757
 4509              	.LBE409:
 4510              	.LBE408:
  28:../Common/IQMath/ti/./support/RTS_support.h **** }
 4511              		.loc 2 28 5 is_stmt 1 view .LVU1758
 4512              	.LBB420:
 4513              	.LBB418:
ARM GAS  C:\Users\57308\AppData\Local\Temp\cc4OkGld.s 			page 113


 145:../Common/IQMath/ti/_IQNasin_acos.c ****     
 4514              		.loc 1 145 5 view .LVU1759
 145:../Common/IQMath/ti/_IQNasin_acos.c ****     
 4515              		.loc 1 145 18 is_stmt 0 view .LVU1760
 4516 0026 51F82330 		ldr	r3, [r1, r3, lsl #2]
 4517              	.LVL552:
 4518              	.LBB410:
 4519              	.LBI410:
 233:../Common/IQMath/ti/./support/RTS_support.h **** {
 4520              		.loc 2 233 28 is_stmt 1 view .LVU1761
 4521              	.LBB411:
 4522              		.loc 2 235 5 view .LVU1762
 4523              		.loc 2 235 28 is_stmt 0 view .LVU1763
 4524 002a 4FEAE07C 		asr	ip, r0, #31
 4525              		.loc 2 235 49 view .LVU1764
 4526 002e D917     		asrs	r1, r3, #31
 4527              		.loc 2 235 47 view .LVU1765
 4528 0030 00FB01F1 		mul	r1, r0, r1
 4529 0034 03FB0C11 		mla	r1, r3, ip, r1
 4530 0038 A0FB033E 		umull	r3, lr, r0, r3
 4531              	.LVL553:
 4532              		.loc 2 235 47 view .LVU1766
 4533 003c 7144     		add	r1, r1, lr
 4534              		.loc 2 235 69 view .LVU1767
 4535 003e DB0F     		lsrs	r3, r3, #31
 4536 0040 43EA4103 		orr	r3, r3, r1, lsl #1
 4537              	.LVL554:
 4538              		.loc 2 235 69 view .LVU1768
 4539              	.LBE411:
 4540              	.LBE410:
 148:../Common/IQMath/ti/_IQNasin_acos.c ****     
 4541              		.loc 1 148 5 is_stmt 1 view .LVU1769
 148:../Common/IQMath/ti/_IQNasin_acos.c ****     
 4542              		.loc 1 148 31 is_stmt 0 view .LVU1770
 4543 0044 5168     		ldr	r1, [r2, #4]
 148:../Common/IQMath/ti/_IQNasin_acos.c ****     
 4544              		.loc 1 148 16 view .LVU1771
 4545 0046 0B44     		add	r3, r3, r1
 4546              	.LVL555:
 151:../Common/IQMath/ti/_IQNasin_acos.c ****     
 4547              		.loc 1 151 5 is_stmt 1 view .LVU1772
 4548              	.LBB412:
 4549              	.LBI412:
 233:../Common/IQMath/ti/./support/RTS_support.h **** {
 4550              		.loc 2 233 28 view .LVU1773
 4551              	.LBB413:
 4552              		.loc 2 235 5 view .LVU1774
 4553              		.loc 2 235 49 is_stmt 0 view .LVU1775
 4554 0048 D917     		asrs	r1, r3, #31
 4555              		.loc 2 235 47 view .LVU1776
 4556 004a 00FB01F1 		mul	r1, r0, r1
 4557 004e 03FB0C11 		mla	r1, r3, ip, r1
 4558 0052 A0FB033E 		umull	r3, lr, r0, r3
 4559              	.LVL556:
 4560              		.loc 2 235 47 view .LVU1777
 4561 0056 7144     		add	r1, r1, lr
 4562              		.loc 2 235 69 view .LVU1778
ARM GAS  C:\Users\57308\AppData\Local\Temp\cc4OkGld.s 			page 114


 4563 0058 DB0F     		lsrs	r3, r3, #31
 4564 005a 43EA4103 		orr	r3, r3, r1, lsl #1
 4565              	.LVL557:
 4566              		.loc 2 235 69 view .LVU1779
 4567              	.LBE413:
 4568              	.LBE412:
 154:../Common/IQMath/ti/_IQNasin_acos.c ****     
 4569              		.loc 1 154 5 is_stmt 1 view .LVU1780
 154:../Common/IQMath/ti/_IQNasin_acos.c ****     
 4570              		.loc 1 154 31 is_stmt 0 view .LVU1781
 4571 005e 9168     		ldr	r1, [r2, #8]
 154:../Common/IQMath/ti/_IQNasin_acos.c ****     
 4572              		.loc 1 154 16 view .LVU1782
 4573 0060 0B44     		add	r3, r3, r1
 4574              	.LVL558:
 157:../Common/IQMath/ti/_IQNasin_acos.c ****     
 4575              		.loc 1 157 5 is_stmt 1 view .LVU1783
 4576              	.LBB414:
 4577              	.LBI414:
 233:../Common/IQMath/ti/./support/RTS_support.h **** {
 4578              		.loc 2 233 28 view .LVU1784
 4579              	.LBB415:
 4580              		.loc 2 235 5 view .LVU1785
 4581              		.loc 2 235 49 is_stmt 0 view .LVU1786
 4582 0062 D917     		asrs	r1, r3, #31
 4583              		.loc 2 235 47 view .LVU1787
 4584 0064 00FB01F1 		mul	r1, r0, r1
 4585 0068 03FB0C11 		mla	r1, r3, ip, r1
 4586 006c A0FB033E 		umull	r3, lr, r0, r3
 4587              	.LVL559:
 4588              		.loc 2 235 47 view .LVU1788
 4589 0070 7144     		add	r1, r1, lr
 4590              		.loc 2 235 69 view .LVU1789
 4591 0072 DB0F     		lsrs	r3, r3, #31
 4592 0074 43EA4103 		orr	r3, r3, r1, lsl #1
 4593              	.LVL560:
 4594              		.loc 2 235 69 view .LVU1790
 4595              	.LBE415:
 4596              	.LBE414:
 160:../Common/IQMath/ti/_IQNasin_acos.c ****     
 4597              		.loc 1 160 5 is_stmt 1 view .LVU1791
 160:../Common/IQMath/ti/_IQNasin_acos.c ****     
 4598              		.loc 1 160 31 is_stmt 0 view .LVU1792
 4599 0078 D168     		ldr	r1, [r2, #12]
 160:../Common/IQMath/ti/_IQNasin_acos.c ****     
 4600              		.loc 1 160 16 view .LVU1793
 4601 007a 0B44     		add	r3, r3, r1
 4602              	.LVL561:
 163:../Common/IQMath/ti/_IQNasin_acos.c ****     
 4603              		.loc 1 163 5 is_stmt 1 view .LVU1794
 4604              	.LBB416:
 4605              	.LBI416:
 233:../Common/IQMath/ti/./support/RTS_support.h **** {
 4606              		.loc 2 233 28 view .LVU1795
 4607              	.LBB417:
 4608              		.loc 2 235 5 view .LVU1796
 4609              		.loc 2 235 49 is_stmt 0 view .LVU1797
ARM GAS  C:\Users\57308\AppData\Local\Temp\cc4OkGld.s 			page 115


 4610 007c D917     		asrs	r1, r3, #31
 4611              		.loc 2 235 47 view .LVU1798
 4612 007e 00FB01F1 		mul	r1, r0, r1
 4613 0082 03FB0C11 		mla	r1, r3, ip, r1
 4614 0086 A0FB0303 		umull	r0, r3, r0, r3
 4615              	.LVL562:
 4616              		.loc 2 235 47 view .LVU1799
 4617 008a 0B44     		add	r3, r3, r1
 4618              		.loc 2 235 69 view .LVU1800
 4619 008c C00F     		lsrs	r0, r0, #31
 4620 008e 40EA4300 		orr	r0, r0, r3, lsl #1
 4621              	.LVL563:
 4622              		.loc 2 235 69 view .LVU1801
 4623              	.LBE417:
 4624              	.LBE416:
 166:../Common/IQMath/ti/_IQNasin_acos.c ****     
 4625              		.loc 1 166 5 is_stmt 1 view .LVU1802
 166:../Common/IQMath/ti/_IQNasin_acos.c ****     
 4626              		.loc 1 166 31 is_stmt 0 view .LVU1803
 4627 0092 1369     		ldr	r3, [r2, #16]
 166:../Common/IQMath/ti/_IQNasin_acos.c ****     
 4628              		.loc 1 166 16 view .LVU1804
 4629 0094 1844     		add	r0, r0, r3
 4630              	.LVL564:
 172:../Common/IQMath/ti/_IQNasin_acos.c ****     
 4631              		.loc 1 172 5 is_stmt 1 view .LVU1805
 172:../Common/IQMath/ti/_IQNasin_acos.c ****     
 4632              		.loc 1 172 5 is_stmt 0 view .LVU1806
 4633              	.LBE418:
 4634              	.LBE420:
  72:../Common/IQMath/ti/./support/RTS_support.h **** }
 4635              		.loc 2 72 5 is_stmt 1 view .LVU1807
 4636              	.LBB421:
 4637              	.LBB419:
 175:../Common/IQMath/ti/_IQNasin_acos.c ****         /* asin(x) = pi/2 - 2*iq29Result */
 4638              		.loc 1 175 5 view .LVU1808
 175:../Common/IQMath/ti/_IQNasin_acos.c ****         /* asin(x) = pi/2 - 2*iq29Result */
 4639              		.loc 1 175 8 is_stmt 0 view .LVU1809
 4640 0096 14F0020F 		tst	r4, #2
 4641 009a 02D0     		beq	.L197
 177:../Common/IQMath/ti/_IQNasin_acos.c ****         iq29Result -= iq29_halfPi;      // this is equivalent to the above
 4642              		.loc 1 177 9 is_stmt 1 view .LVU1810
 4643              	.LVL565:
 178:../Common/IQMath/ti/_IQNasin_acos.c ****         iq29Result = -iq29Result;       // but avoids using temporary registers
 4644              		.loc 1 178 9 view .LVU1811
 179:../Common/IQMath/ti/_IQNasin_acos.c ****     }
 4645              		.loc 1 179 9 view .LVU1812
 179:../Common/IQMath/ti/_IQNasin_acos.c ****     }
 4646              		.loc 1 179 20 is_stmt 0 view .LVU1813
 4647 009c 0A4B     		ldr	r3, .L203+4
 4648 009e A3EB4000 		sub	r0, r3, r0, lsl #1
 4649              	.LVL566:
 4650              	.L197:
 183:../Common/IQMath/ti/_IQNasin_acos.c ****     
 4651              		.loc 1 183 5 is_stmt 1 view .LVU1814
 183:../Common/IQMath/ti/_IQNasin_acos.c ****     
 4652              		.loc 1 183 16 is_stmt 0 view .LVU1815
ARM GAS  C:\Users\57308\AppData\Local\Temp\cc4OkGld.s 			page 116


 4653 00a2 0014     		asrs	r0, r0, #16
 4654              	.LVL567:
 186:../Common/IQMath/ti/_IQNasin_acos.c ****         iq29Result = -iq29Result;
 4655              		.loc 1 186 5 is_stmt 1 view .LVU1816
 186:../Common/IQMath/ti/_IQNasin_acos.c ****         iq29Result = -iq29Result;
 4656              		.loc 1 186 8 is_stmt 0 view .LVU1817
 4657 00a4 14F0010F 		tst	r4, #1
 4658 00a8 0BD0     		beq	.L193
 187:../Common/IQMath/ti/_IQNasin_acos.c ****     }
 4659              		.loc 1 187 9 is_stmt 1 view .LVU1818
 187:../Common/IQMath/ti/_IQNasin_acos.c ****     }
 4660              		.loc 1 187 20 is_stmt 0 view .LVU1819
 4661 00aa 4042     		rsbs	r0, r0, #0
 4662              	.LVL568:
 187:../Common/IQMath/ti/_IQNasin_acos.c ****     }
 4663              		.loc 1 187 20 view .LVU1820
 4664 00ac 09E0     		b	.L193
 4665              	.LVL569:
 4666              	.L201:
  90:../Common/IQMath/ti/_IQNasin_acos.c ****         iqNInput = -iqNInput;
 4667              		.loc 1 90 9 is_stmt 1 view .LVU1821
  91:../Common/IQMath/ti/_IQNasin_acos.c ****     }
 4668              		.loc 1 91 9 view .LVU1822
  91:../Common/IQMath/ti/_IQNasin_acos.c ****     }
 4669              		.loc 1 91 18 is_stmt 0 view .LVU1823
 4670 00ae 4042     		rsbs	r0, r0, #0
 4671              	.LVL570:
  90:../Common/IQMath/ti/_IQNasin_acos.c ****         iqNInput = -iqNInput;
 4672              		.loc 1 90 19 view .LVU1824
 4673 00b0 0124     		movs	r4, #1
 4674 00b2 A9E7     		b	.L194
 4675              	.LVL571:
 4676              	.L202:
 115:../Common/IQMath/ti/_IQNasin_acos.c ****         
 4677              		.loc 1 115 9 is_stmt 1 view .LVU1825
 118:../Common/IQMath/ti/_IQNasin_acos.c ****         
 4678              		.loc 1 118 9 view .LVU1826
 118:../Common/IQMath/ti/_IQNasin_acos.c ****         
 4679              		.loc 1 118 22 is_stmt 0 view .LVU1827
 4680 00b4 5808     		lsrs	r0, r3, #1
 4681              	.LVL572:
 118:../Common/IQMath/ti/_IQNasin_acos.c ****         
 4682              		.loc 1 118 22 view .LVU1828
 4683 00b6 FFF7FEFF 		bl	_IQ31sqrt
 4684              	.LVL573:
 121:../Common/IQMath/ti/_IQNasin_acos.c ****     }
 4685              		.loc 1 121 9 is_stmt 1 view .LVU1829
 121:../Common/IQMath/ti/_IQNasin_acos.c ****     }
 4686              		.loc 1 121 19 is_stmt 0 view .LVU1830
 4687 00ba 44F00204 		orr	r4, r4, #2
 4688              	.LVL574:
 121:../Common/IQMath/ti/_IQNasin_acos.c ****     }
 4689              		.loc 1 121 19 view .LVU1831
 4690 00be ACE7     		b	.L196
 4691              	.LVL575:
 4692              	.L199:
 100:../Common/IQMath/ti/_IQNasin_acos.c ****     }
ARM GAS  C:\Users\57308\AppData\Local\Temp\cc4OkGld.s 			page 117


 4693              		.loc 1 100 16 view .LVU1832
 4694 00c0 0020     		movs	r0, #0
 4695              	.LVL576:
 4696              	.L193:
 100:../Common/IQMath/ti/_IQNasin_acos.c ****     }
 4697              		.loc 1 100 16 view .LVU1833
 4698              	.LBE419:
 4699              	.LBE421:
 380:../Common/IQMath/ti/_IQNasin_acos.c **** }
 4700              		.loc 1 380 1 view .LVU1834
 4701 00c2 10BD     		pop	{r4, pc}
 4702              	.L204:
 4703              		.align	2
 4704              	.L203:
 4705 00c4 00000000 		.word	_IQ29Asin_coeffs
 4706 00c8 A8F64332 		.word	843314856
 4707              		.cfi_endproc
 4708              	.LFE278:
 4710              		.section	.text._IQ12asin,"ax",%progbits
 4711              		.align	1
 4712              		.global	_IQ12asin
 4713              		.syntax unified
 4714              		.thumb
 4715              		.thumb_func
 4717              	_IQ12asin:
 4718              	.LVL577:
 4719              	.LFB279:
 381:../Common/IQMath/ti/_IQNasin_acos.c **** /**
 382:../Common/IQMath/ti/_IQNasin_acos.c ****  * @brief Computes the inverse sine of the IQ12 input.
 383:../Common/IQMath/ti/_IQNasin_acos.c ****  *
 384:../Common/IQMath/ti/_IQNasin_acos.c ****  * @param a               IQ12 type input.
 385:../Common/IQMath/ti/_IQNasin_acos.c ****  *
 386:../Common/IQMath/ti/_IQNasin_acos.c ****  * @return                IQ12 type result of inverse sine.
 387:../Common/IQMath/ti/_IQNasin_acos.c ****  */
 388:../Common/IQMath/ti/_IQNasin_acos.c **** int32_t _IQ12asin(int32_t a)
 389:../Common/IQMath/ti/_IQNasin_acos.c **** {
 4720              		.loc 1 389 1 is_stmt 1 view -0
 4721              		.cfi_startproc
 4722              		@ args = 0, pretend = 0, frame = 0
 4723              		@ frame_needed = 0, uses_anonymous_args = 0
 4724              		.loc 1 389 1 is_stmt 0 view .LVU1836
 4725 0000 10B5     		push	{r4, lr}
 4726              	.LCFI17:
 4727              		.cfi_def_cfa_offset 8
 4728              		.cfi_offset 4, -8
 4729              		.cfi_offset 14, -4
 390:../Common/IQMath/ti/_IQNasin_acos.c ****     return __IQNasin(a, 12);
 4730              		.loc 1 390 5 is_stmt 1 view .LVU1837
 4731              	.LVL578:
 4732              	.LBB432:
 4733              	.LBI432:
  70:../Common/IQMath/ti/_IQNasin_acos.c **** {
 4734              		.loc 1 70 30 view .LVU1838
 4735              	.LBB433:
  72:../Common/IQMath/ti/_IQNasin_acos.c ****     uint_fast16_t index;
 4736              		.loc 1 72 5 view .LVU1839
  73:../Common/IQMath/ti/_IQNasin_acos.c ****     uint_fast16_t ui16IntState;
ARM GAS  C:\Users\57308\AppData\Local\Temp\cc4OkGld.s 			page 118


 4737              		.loc 1 73 5 view .LVU1840
  74:../Common/IQMath/ti/_IQNasin_acos.c ****     uint_fast16_t ui16MPYState;
 4738              		.loc 1 74 5 view .LVU1841
  75:../Common/IQMath/ti/_IQNasin_acos.c ****     int_fast32_t iq29Result;
 4739              		.loc 1 75 5 view .LVU1842
  76:../Common/IQMath/ti/_IQNasin_acos.c ****     const int_fast32_t *piq29Coeffs;
 4740              		.loc 1 76 5 view .LVU1843
  77:../Common/IQMath/ti/_IQNasin_acos.c ****     uint_fast32_t uiq31Input;
 4741              		.loc 1 77 5 view .LVU1844
  78:../Common/IQMath/ti/_IQNasin_acos.c ****     uint_fast32_t uiq31InputTemp;
 4742              		.loc 1 78 5 view .LVU1845
  79:../Common/IQMath/ti/_IQNasin_acos.c ****     
 4743              		.loc 1 79 5 view .LVU1846
  89:../Common/IQMath/ti/_IQNasin_acos.c ****         ui8Status |= 1;
 4744              		.loc 1 89 5 view .LVU1847
  89:../Common/IQMath/ti/_IQNasin_acos.c ****         ui8Status |= 1;
 4745              		.loc 1 89 8 is_stmt 0 view .LVU1848
 4746 0002 0028     		cmp	r0, #0
  89:../Common/IQMath/ti/_IQNasin_acos.c ****         ui8Status |= 1;
 4747              		.loc 1 89 8 view .LVU1849
 4748 0004 53DB     		blt	.L213
  72:../Common/IQMath/ti/_IQNasin_acos.c ****     uint_fast16_t index;
 4749              		.loc 1 72 13 view .LVU1850
 4750 0006 0024     		movs	r4, #0
 4751              	.LVL579:
 4752              	.L206:
  99:../Common/IQMath/ti/_IQNasin_acos.c ****         return 0;
 4753              		.loc 1 99 5 is_stmt 1 view .LVU1851
  99:../Common/IQMath/ti/_IQNasin_acos.c ****         return 0;
 4754              		.loc 1 99 8 is_stmt 0 view .LVU1852
 4755 0008 B0F5805F 		cmp	r0, #4096
 4756 000c 58D8     		bhi	.L211
 104:../Common/IQMath/ti/_IQNasin_acos.c ****     
 4757              		.loc 1 104 5 is_stmt 1 view .LVU1853
 104:../Common/IQMath/ti/_IQNasin_acos.c ****     
 4758              		.loc 1 104 16 is_stmt 0 view .LVU1854
 4759 000e C004     		lsls	r0, r0, #19
 4760              	.LVL580:
 112:../Common/IQMath/ti/_IQNasin_acos.c ****     if (uiq31InputTemp < 0x40000000) {
 4761              		.loc 1 112 5 is_stmt 1 view .LVU1855
 112:../Common/IQMath/ti/_IQNasin_acos.c ****     if (uiq31InputTemp < 0x40000000) {
 4762              		.loc 1 112 20 is_stmt 0 view .LVU1856
 4763 0010 C0F10043 		rsb	r3, r0, #-2147483648
 4764              	.LVL581:
 113:../Common/IQMath/ti/_IQNasin_acos.c ****         /* Halve the result. */
 4765              		.loc 1 113 5 is_stmt 1 view .LVU1857
 113:../Common/IQMath/ti/_IQNasin_acos.c ****         /* Halve the result. */
 4766              		.loc 1 113 8 is_stmt 0 view .LVU1858
 4767 0014 B3F1804F 		cmp	r3, #1073741824
 4768 0018 4CD3     		bcc	.L214
 4769              	.LVL582:
 4770              	.L208:
 125:../Common/IQMath/ti/_IQNasin_acos.c ****     
 4771              		.loc 1 125 5 is_stmt 1 view .LVU1859
 125:../Common/IQMath/ti/_IQNasin_acos.c ****     
 4772              		.loc 1 125 11 is_stmt 0 view .LVU1860
 4773 001a 830E     		lsrs	r3, r0, #26
ARM GAS  C:\Users\57308\AppData\Local\Temp\cc4OkGld.s 			page 119


 4774              	.LVL583:
 128:../Common/IQMath/ti/_IQNasin_acos.c ****     
 4775              		.loc 1 128 5 is_stmt 1 view .LVU1861
 128:../Common/IQMath/ti/_IQNasin_acos.c ****     
 4776              		.loc 1 128 17 is_stmt 0 view .LVU1862
 4777 001c 03EB8303 		add	r3, r3, r3, lsl #2
 4778              	.LVL584:
 128:../Common/IQMath/ti/_IQNasin_acos.c ****     
 4779              		.loc 1 128 17 view .LVU1863
 4780 0020 2849     		ldr	r1, .L215
 4781 0022 01EB8302 		add	r2, r1, r3, lsl #2
 4782              	.LVL585:
 136:../Common/IQMath/ti/_IQNasin_acos.c ****     
 4783              		.loc 1 136 5 is_stmt 1 view .LVU1864
 136:../Common/IQMath/ti/_IQNasin_acos.c ****     
 4784              		.loc 1 136 5 is_stmt 0 view .LVU1865
 4785              	.LBE433:
 4786              	.LBE432:
  28:../Common/IQMath/ti/./support/RTS_support.h **** }
 4787              		.loc 2 28 5 is_stmt 1 view .LVU1866
 4788              	.LBB444:
 4789              	.LBB442:
 145:../Common/IQMath/ti/_IQNasin_acos.c ****     
 4790              		.loc 1 145 5 view .LVU1867
 145:../Common/IQMath/ti/_IQNasin_acos.c ****     
 4791              		.loc 1 145 18 is_stmt 0 view .LVU1868
 4792 0026 51F82330 		ldr	r3, [r1, r3, lsl #2]
 4793              	.LVL586:
 4794              	.LBB434:
 4795              	.LBI434:
 233:../Common/IQMath/ti/./support/RTS_support.h **** {
 4796              		.loc 2 233 28 is_stmt 1 view .LVU1869
 4797              	.LBB435:
 4798              		.loc 2 235 5 view .LVU1870
 4799              		.loc 2 235 28 is_stmt 0 view .LVU1871
 4800 002a 4FEAE07C 		asr	ip, r0, #31
 4801              		.loc 2 235 49 view .LVU1872
 4802 002e D917     		asrs	r1, r3, #31
 4803              		.loc 2 235 47 view .LVU1873
 4804 0030 00FB01F1 		mul	r1, r0, r1
 4805 0034 03FB0C11 		mla	r1, r3, ip, r1
 4806 0038 A0FB033E 		umull	r3, lr, r0, r3
 4807              	.LVL587:
 4808              		.loc 2 235 47 view .LVU1874
 4809 003c 7144     		add	r1, r1, lr
 4810              		.loc 2 235 69 view .LVU1875
 4811 003e DB0F     		lsrs	r3, r3, #31
 4812 0040 43EA4103 		orr	r3, r3, r1, lsl #1
 4813              	.LVL588:
 4814              		.loc 2 235 69 view .LVU1876
 4815              	.LBE435:
 4816              	.LBE434:
 148:../Common/IQMath/ti/_IQNasin_acos.c ****     
 4817              		.loc 1 148 5 is_stmt 1 view .LVU1877
 148:../Common/IQMath/ti/_IQNasin_acos.c ****     
 4818              		.loc 1 148 31 is_stmt 0 view .LVU1878
 4819 0044 5168     		ldr	r1, [r2, #4]
ARM GAS  C:\Users\57308\AppData\Local\Temp\cc4OkGld.s 			page 120


 148:../Common/IQMath/ti/_IQNasin_acos.c ****     
 4820              		.loc 1 148 16 view .LVU1879
 4821 0046 0B44     		add	r3, r3, r1
 4822              	.LVL589:
 151:../Common/IQMath/ti/_IQNasin_acos.c ****     
 4823              		.loc 1 151 5 is_stmt 1 view .LVU1880
 4824              	.LBB436:
 4825              	.LBI436:
 233:../Common/IQMath/ti/./support/RTS_support.h **** {
 4826              		.loc 2 233 28 view .LVU1881
 4827              	.LBB437:
 4828              		.loc 2 235 5 view .LVU1882
 4829              		.loc 2 235 49 is_stmt 0 view .LVU1883
 4830 0048 D917     		asrs	r1, r3, #31
 4831              		.loc 2 235 47 view .LVU1884
 4832 004a 00FB01F1 		mul	r1, r0, r1
 4833 004e 03FB0C11 		mla	r1, r3, ip, r1
 4834 0052 A0FB033E 		umull	r3, lr, r0, r3
 4835              	.LVL590:
 4836              		.loc 2 235 47 view .LVU1885
 4837 0056 7144     		add	r1, r1, lr
 4838              		.loc 2 235 69 view .LVU1886
 4839 0058 DB0F     		lsrs	r3, r3, #31
 4840 005a 43EA4103 		orr	r3, r3, r1, lsl #1
 4841              	.LVL591:
 4842              		.loc 2 235 69 view .LVU1887
 4843              	.LBE437:
 4844              	.LBE436:
 154:../Common/IQMath/ti/_IQNasin_acos.c ****     
 4845              		.loc 1 154 5 is_stmt 1 view .LVU1888
 154:../Common/IQMath/ti/_IQNasin_acos.c ****     
 4846              		.loc 1 154 31 is_stmt 0 view .LVU1889
 4847 005e 9168     		ldr	r1, [r2, #8]
 154:../Common/IQMath/ti/_IQNasin_acos.c ****     
 4848              		.loc 1 154 16 view .LVU1890
 4849 0060 0B44     		add	r3, r3, r1
 4850              	.LVL592:
 157:../Common/IQMath/ti/_IQNasin_acos.c ****     
 4851              		.loc 1 157 5 is_stmt 1 view .LVU1891
 4852              	.LBB438:
 4853              	.LBI438:
 233:../Common/IQMath/ti/./support/RTS_support.h **** {
 4854              		.loc 2 233 28 view .LVU1892
 4855              	.LBB439:
 4856              		.loc 2 235 5 view .LVU1893
 4857              		.loc 2 235 49 is_stmt 0 view .LVU1894
 4858 0062 D917     		asrs	r1, r3, #31
 4859              		.loc 2 235 47 view .LVU1895
 4860 0064 00FB01F1 		mul	r1, r0, r1
 4861 0068 03FB0C11 		mla	r1, r3, ip, r1
 4862 006c A0FB033E 		umull	r3, lr, r0, r3
 4863              	.LVL593:
 4864              		.loc 2 235 47 view .LVU1896
 4865 0070 7144     		add	r1, r1, lr
 4866              		.loc 2 235 69 view .LVU1897
 4867 0072 DB0F     		lsrs	r3, r3, #31
 4868 0074 43EA4103 		orr	r3, r3, r1, lsl #1
ARM GAS  C:\Users\57308\AppData\Local\Temp\cc4OkGld.s 			page 121


 4869              	.LVL594:
 4870              		.loc 2 235 69 view .LVU1898
 4871              	.LBE439:
 4872              	.LBE438:
 160:../Common/IQMath/ti/_IQNasin_acos.c ****     
 4873              		.loc 1 160 5 is_stmt 1 view .LVU1899
 160:../Common/IQMath/ti/_IQNasin_acos.c ****     
 4874              		.loc 1 160 31 is_stmt 0 view .LVU1900
 4875 0078 D168     		ldr	r1, [r2, #12]
 160:../Common/IQMath/ti/_IQNasin_acos.c ****     
 4876              		.loc 1 160 16 view .LVU1901
 4877 007a 0B44     		add	r3, r3, r1
 4878              	.LVL595:
 163:../Common/IQMath/ti/_IQNasin_acos.c ****     
 4879              		.loc 1 163 5 is_stmt 1 view .LVU1902
 4880              	.LBB440:
 4881              	.LBI440:
 233:../Common/IQMath/ti/./support/RTS_support.h **** {
 4882              		.loc 2 233 28 view .LVU1903
 4883              	.LBB441:
 4884              		.loc 2 235 5 view .LVU1904
 4885              		.loc 2 235 49 is_stmt 0 view .LVU1905
 4886 007c D917     		asrs	r1, r3, #31
 4887              		.loc 2 235 47 view .LVU1906
 4888 007e 00FB01F1 		mul	r1, r0, r1
 4889 0082 03FB0C11 		mla	r1, r3, ip, r1
 4890 0086 A0FB0303 		umull	r0, r3, r0, r3
 4891              	.LVL596:
 4892              		.loc 2 235 47 view .LVU1907
 4893 008a 0B44     		add	r3, r3, r1
 4894              		.loc 2 235 69 view .LVU1908
 4895 008c C00F     		lsrs	r0, r0, #31
 4896 008e 40EA4300 		orr	r0, r0, r3, lsl #1
 4897              	.LVL597:
 4898              		.loc 2 235 69 view .LVU1909
 4899              	.LBE441:
 4900              	.LBE440:
 166:../Common/IQMath/ti/_IQNasin_acos.c ****     
 4901              		.loc 1 166 5 is_stmt 1 view .LVU1910
 166:../Common/IQMath/ti/_IQNasin_acos.c ****     
 4902              		.loc 1 166 31 is_stmt 0 view .LVU1911
 4903 0092 1369     		ldr	r3, [r2, #16]
 166:../Common/IQMath/ti/_IQNasin_acos.c ****     
 4904              		.loc 1 166 16 view .LVU1912
 4905 0094 1844     		add	r0, r0, r3
 4906              	.LVL598:
 172:../Common/IQMath/ti/_IQNasin_acos.c ****     
 4907              		.loc 1 172 5 is_stmt 1 view .LVU1913
 172:../Common/IQMath/ti/_IQNasin_acos.c ****     
 4908              		.loc 1 172 5 is_stmt 0 view .LVU1914
 4909              	.LBE442:
 4910              	.LBE444:
  72:../Common/IQMath/ti/./support/RTS_support.h **** }
 4911              		.loc 2 72 5 is_stmt 1 view .LVU1915
 4912              	.LBB445:
 4913              	.LBB443:
 175:../Common/IQMath/ti/_IQNasin_acos.c ****         /* asin(x) = pi/2 - 2*iq29Result */
ARM GAS  C:\Users\57308\AppData\Local\Temp\cc4OkGld.s 			page 122


 4914              		.loc 1 175 5 view .LVU1916
 175:../Common/IQMath/ti/_IQNasin_acos.c ****         /* asin(x) = pi/2 - 2*iq29Result */
 4915              		.loc 1 175 8 is_stmt 0 view .LVU1917
 4916 0096 14F0020F 		tst	r4, #2
 4917 009a 02D0     		beq	.L209
 177:../Common/IQMath/ti/_IQNasin_acos.c ****         iq29Result -= iq29_halfPi;      // this is equivalent to the above
 4918              		.loc 1 177 9 is_stmt 1 view .LVU1918
 4919              	.LVL599:
 178:../Common/IQMath/ti/_IQNasin_acos.c ****         iq29Result = -iq29Result;       // but avoids using temporary registers
 4920              		.loc 1 178 9 view .LVU1919
 179:../Common/IQMath/ti/_IQNasin_acos.c ****     }
 4921              		.loc 1 179 9 view .LVU1920
 179:../Common/IQMath/ti/_IQNasin_acos.c ****     }
 4922              		.loc 1 179 20 is_stmt 0 view .LVU1921
 4923 009c 0A4B     		ldr	r3, .L215+4
 4924 009e A3EB4000 		sub	r0, r3, r0, lsl #1
 4925              	.LVL600:
 4926              	.L209:
 183:../Common/IQMath/ti/_IQNasin_acos.c ****     
 4927              		.loc 1 183 5 is_stmt 1 view .LVU1922
 183:../Common/IQMath/ti/_IQNasin_acos.c ****     
 4928              		.loc 1 183 16 is_stmt 0 view .LVU1923
 4929 00a2 4014     		asrs	r0, r0, #17
 4930              	.LVL601:
 186:../Common/IQMath/ti/_IQNasin_acos.c ****         iq29Result = -iq29Result;
 4931              		.loc 1 186 5 is_stmt 1 view .LVU1924
 186:../Common/IQMath/ti/_IQNasin_acos.c ****         iq29Result = -iq29Result;
 4932              		.loc 1 186 8 is_stmt 0 view .LVU1925
 4933 00a4 14F0010F 		tst	r4, #1
 4934 00a8 0BD0     		beq	.L205
 187:../Common/IQMath/ti/_IQNasin_acos.c ****     }
 4935              		.loc 1 187 9 is_stmt 1 view .LVU1926
 187:../Common/IQMath/ti/_IQNasin_acos.c ****     }
 4936              		.loc 1 187 20 is_stmt 0 view .LVU1927
 4937 00aa 4042     		rsbs	r0, r0, #0
 4938              	.LVL602:
 187:../Common/IQMath/ti/_IQNasin_acos.c ****     }
 4939              		.loc 1 187 20 view .LVU1928
 4940 00ac 09E0     		b	.L205
 4941              	.LVL603:
 4942              	.L213:
  90:../Common/IQMath/ti/_IQNasin_acos.c ****         iqNInput = -iqNInput;
 4943              		.loc 1 90 9 is_stmt 1 view .LVU1929
  91:../Common/IQMath/ti/_IQNasin_acos.c ****     }
 4944              		.loc 1 91 9 view .LVU1930
  91:../Common/IQMath/ti/_IQNasin_acos.c ****     }
 4945              		.loc 1 91 18 is_stmt 0 view .LVU1931
 4946 00ae 4042     		rsbs	r0, r0, #0
 4947              	.LVL604:
  90:../Common/IQMath/ti/_IQNasin_acos.c ****         iqNInput = -iqNInput;
 4948              		.loc 1 90 19 view .LVU1932
 4949 00b0 0124     		movs	r4, #1
 4950 00b2 A9E7     		b	.L206
 4951              	.LVL605:
 4952              	.L214:
 115:../Common/IQMath/ti/_IQNasin_acos.c ****         
 4953              		.loc 1 115 9 is_stmt 1 view .LVU1933
ARM GAS  C:\Users\57308\AppData\Local\Temp\cc4OkGld.s 			page 123


 118:../Common/IQMath/ti/_IQNasin_acos.c ****         
 4954              		.loc 1 118 9 view .LVU1934
 118:../Common/IQMath/ti/_IQNasin_acos.c ****         
 4955              		.loc 1 118 22 is_stmt 0 view .LVU1935
 4956 00b4 5808     		lsrs	r0, r3, #1
 4957              	.LVL606:
 118:../Common/IQMath/ti/_IQNasin_acos.c ****         
 4958              		.loc 1 118 22 view .LVU1936
 4959 00b6 FFF7FEFF 		bl	_IQ31sqrt
 4960              	.LVL607:
 121:../Common/IQMath/ti/_IQNasin_acos.c ****     }
 4961              		.loc 1 121 9 is_stmt 1 view .LVU1937
 121:../Common/IQMath/ti/_IQNasin_acos.c ****     }
 4962              		.loc 1 121 19 is_stmt 0 view .LVU1938
 4963 00ba 44F00204 		orr	r4, r4, #2
 4964              	.LVL608:
 121:../Common/IQMath/ti/_IQNasin_acos.c ****     }
 4965              		.loc 1 121 19 view .LVU1939
 4966 00be ACE7     		b	.L208
 4967              	.LVL609:
 4968              	.L211:
 100:../Common/IQMath/ti/_IQNasin_acos.c ****     }
 4969              		.loc 1 100 16 view .LVU1940
 4970 00c0 0020     		movs	r0, #0
 4971              	.LVL610:
 4972              	.L205:
 100:../Common/IQMath/ti/_IQNasin_acos.c ****     }
 4973              		.loc 1 100 16 view .LVU1941
 4974              	.LBE443:
 4975              	.LBE445:
 391:../Common/IQMath/ti/_IQNasin_acos.c **** }
 4976              		.loc 1 391 1 view .LVU1942
 4977 00c2 10BD     		pop	{r4, pc}
 4978              	.L216:
 4979              		.align	2
 4980              	.L215:
 4981 00c4 00000000 		.word	_IQ29Asin_coeffs
 4982 00c8 A8F64332 		.word	843314856
 4983              		.cfi_endproc
 4984              	.LFE279:
 4986              		.section	.text._IQ11asin,"ax",%progbits
 4987              		.align	1
 4988              		.global	_IQ11asin
 4989              		.syntax unified
 4990              		.thumb
 4991              		.thumb_func
 4993              	_IQ11asin:
 4994              	.LVL611:
 4995              	.LFB280:
 392:../Common/IQMath/ti/_IQNasin_acos.c **** /**
 393:../Common/IQMath/ti/_IQNasin_acos.c ****  * @brief Computes the inverse sine of the IQ11 input.
 394:../Common/IQMath/ti/_IQNasin_acos.c ****  *
 395:../Common/IQMath/ti/_IQNasin_acos.c ****  * @param a               IQ11 type input.
 396:../Common/IQMath/ti/_IQNasin_acos.c ****  *
 397:../Common/IQMath/ti/_IQNasin_acos.c ****  * @return                IQ11 type result of inverse sine.
 398:../Common/IQMath/ti/_IQNasin_acos.c ****  */
 399:../Common/IQMath/ti/_IQNasin_acos.c **** int32_t _IQ11asin(int32_t a)
ARM GAS  C:\Users\57308\AppData\Local\Temp\cc4OkGld.s 			page 124


 400:../Common/IQMath/ti/_IQNasin_acos.c **** {
 4996              		.loc 1 400 1 is_stmt 1 view -0
 4997              		.cfi_startproc
 4998              		@ args = 0, pretend = 0, frame = 0
 4999              		@ frame_needed = 0, uses_anonymous_args = 0
 5000              		.loc 1 400 1 is_stmt 0 view .LVU1944
 5001 0000 10B5     		push	{r4, lr}
 5002              	.LCFI18:
 5003              		.cfi_def_cfa_offset 8
 5004              		.cfi_offset 4, -8
 5005              		.cfi_offset 14, -4
 401:../Common/IQMath/ti/_IQNasin_acos.c ****     return __IQNasin(a, 11);
 5006              		.loc 1 401 5 is_stmt 1 view .LVU1945
 5007              	.LVL612:
 5008              	.LBB456:
 5009              	.LBI456:
  70:../Common/IQMath/ti/_IQNasin_acos.c **** {
 5010              		.loc 1 70 30 view .LVU1946
 5011              	.LBB457:
  72:../Common/IQMath/ti/_IQNasin_acos.c ****     uint_fast16_t index;
 5012              		.loc 1 72 5 view .LVU1947
  73:../Common/IQMath/ti/_IQNasin_acos.c ****     uint_fast16_t ui16IntState;
 5013              		.loc 1 73 5 view .LVU1948
  74:../Common/IQMath/ti/_IQNasin_acos.c ****     uint_fast16_t ui16MPYState;
 5014              		.loc 1 74 5 view .LVU1949
  75:../Common/IQMath/ti/_IQNasin_acos.c ****     int_fast32_t iq29Result;
 5015              		.loc 1 75 5 view .LVU1950
  76:../Common/IQMath/ti/_IQNasin_acos.c ****     const int_fast32_t *piq29Coeffs;
 5016              		.loc 1 76 5 view .LVU1951
  77:../Common/IQMath/ti/_IQNasin_acos.c ****     uint_fast32_t uiq31Input;
 5017              		.loc 1 77 5 view .LVU1952
  78:../Common/IQMath/ti/_IQNasin_acos.c ****     uint_fast32_t uiq31InputTemp;
 5018              		.loc 1 78 5 view .LVU1953
  79:../Common/IQMath/ti/_IQNasin_acos.c ****     
 5019              		.loc 1 79 5 view .LVU1954
  89:../Common/IQMath/ti/_IQNasin_acos.c ****         ui8Status |= 1;
 5020              		.loc 1 89 5 view .LVU1955
  89:../Common/IQMath/ti/_IQNasin_acos.c ****         ui8Status |= 1;
 5021              		.loc 1 89 8 is_stmt 0 view .LVU1956
 5022 0002 0028     		cmp	r0, #0
  89:../Common/IQMath/ti/_IQNasin_acos.c ****         ui8Status |= 1;
 5023              		.loc 1 89 8 view .LVU1957
 5024 0004 53DB     		blt	.L225
  72:../Common/IQMath/ti/_IQNasin_acos.c ****     uint_fast16_t index;
 5025              		.loc 1 72 13 view .LVU1958
 5026 0006 0024     		movs	r4, #0
 5027              	.LVL613:
 5028              	.L218:
  99:../Common/IQMath/ti/_IQNasin_acos.c ****         return 0;
 5029              		.loc 1 99 5 is_stmt 1 view .LVU1959
  99:../Common/IQMath/ti/_IQNasin_acos.c ****         return 0;
 5030              		.loc 1 99 8 is_stmt 0 view .LVU1960
 5031 0008 B0F5006F 		cmp	r0, #2048
 5032 000c 58D8     		bhi	.L223
 104:../Common/IQMath/ti/_IQNasin_acos.c ****     
 5033              		.loc 1 104 5 is_stmt 1 view .LVU1961
 104:../Common/IQMath/ti/_IQNasin_acos.c ****     
ARM GAS  C:\Users\57308\AppData\Local\Temp\cc4OkGld.s 			page 125


 5034              		.loc 1 104 16 is_stmt 0 view .LVU1962
 5035 000e 0005     		lsls	r0, r0, #20
 5036              	.LVL614:
 112:../Common/IQMath/ti/_IQNasin_acos.c ****     if (uiq31InputTemp < 0x40000000) {
 5037              		.loc 1 112 5 is_stmt 1 view .LVU1963
 112:../Common/IQMath/ti/_IQNasin_acos.c ****     if (uiq31InputTemp < 0x40000000) {
 5038              		.loc 1 112 20 is_stmt 0 view .LVU1964
 5039 0010 C0F10043 		rsb	r3, r0, #-2147483648
 5040              	.LVL615:
 113:../Common/IQMath/ti/_IQNasin_acos.c ****         /* Halve the result. */
 5041              		.loc 1 113 5 is_stmt 1 view .LVU1965
 113:../Common/IQMath/ti/_IQNasin_acos.c ****         /* Halve the result. */
 5042              		.loc 1 113 8 is_stmt 0 view .LVU1966
 5043 0014 B3F1804F 		cmp	r3, #1073741824
 5044 0018 4CD3     		bcc	.L226
 5045              	.LVL616:
 5046              	.L220:
 125:../Common/IQMath/ti/_IQNasin_acos.c ****     
 5047              		.loc 1 125 5 is_stmt 1 view .LVU1967
 125:../Common/IQMath/ti/_IQNasin_acos.c ****     
 5048              		.loc 1 125 11 is_stmt 0 view .LVU1968
 5049 001a 830E     		lsrs	r3, r0, #26
 5050              	.LVL617:
 128:../Common/IQMath/ti/_IQNasin_acos.c ****     
 5051              		.loc 1 128 5 is_stmt 1 view .LVU1969
 128:../Common/IQMath/ti/_IQNasin_acos.c ****     
 5052              		.loc 1 128 17 is_stmt 0 view .LVU1970
 5053 001c 03EB8303 		add	r3, r3, r3, lsl #2
 5054              	.LVL618:
 128:../Common/IQMath/ti/_IQNasin_acos.c ****     
 5055              		.loc 1 128 17 view .LVU1971
 5056 0020 2849     		ldr	r1, .L227
 5057 0022 01EB8302 		add	r2, r1, r3, lsl #2
 5058              	.LVL619:
 136:../Common/IQMath/ti/_IQNasin_acos.c ****     
 5059              		.loc 1 136 5 is_stmt 1 view .LVU1972
 136:../Common/IQMath/ti/_IQNasin_acos.c ****     
 5060              		.loc 1 136 5 is_stmt 0 view .LVU1973
 5061              	.LBE457:
 5062              	.LBE456:
  28:../Common/IQMath/ti/./support/RTS_support.h **** }
 5063              		.loc 2 28 5 is_stmt 1 view .LVU1974
 5064              	.LBB468:
 5065              	.LBB466:
 145:../Common/IQMath/ti/_IQNasin_acos.c ****     
 5066              		.loc 1 145 5 view .LVU1975
 145:../Common/IQMath/ti/_IQNasin_acos.c ****     
 5067              		.loc 1 145 18 is_stmt 0 view .LVU1976
 5068 0026 51F82330 		ldr	r3, [r1, r3, lsl #2]
 5069              	.LVL620:
 5070              	.LBB458:
 5071              	.LBI458:
 233:../Common/IQMath/ti/./support/RTS_support.h **** {
 5072              		.loc 2 233 28 is_stmt 1 view .LVU1977
 5073              	.LBB459:
 5074              		.loc 2 235 5 view .LVU1978
 5075              		.loc 2 235 28 is_stmt 0 view .LVU1979
ARM GAS  C:\Users\57308\AppData\Local\Temp\cc4OkGld.s 			page 126


 5076 002a 4FEAE07C 		asr	ip, r0, #31
 5077              		.loc 2 235 49 view .LVU1980
 5078 002e D917     		asrs	r1, r3, #31
 5079              		.loc 2 235 47 view .LVU1981
 5080 0030 00FB01F1 		mul	r1, r0, r1
 5081 0034 03FB0C11 		mla	r1, r3, ip, r1
 5082 0038 A0FB033E 		umull	r3, lr, r0, r3
 5083              	.LVL621:
 5084              		.loc 2 235 47 view .LVU1982
 5085 003c 7144     		add	r1, r1, lr
 5086              		.loc 2 235 69 view .LVU1983
 5087 003e DB0F     		lsrs	r3, r3, #31
 5088 0040 43EA4103 		orr	r3, r3, r1, lsl #1
 5089              	.LVL622:
 5090              		.loc 2 235 69 view .LVU1984
 5091              	.LBE459:
 5092              	.LBE458:
 148:../Common/IQMath/ti/_IQNasin_acos.c ****     
 5093              		.loc 1 148 5 is_stmt 1 view .LVU1985
 148:../Common/IQMath/ti/_IQNasin_acos.c ****     
 5094              		.loc 1 148 31 is_stmt 0 view .LVU1986
 5095 0044 5168     		ldr	r1, [r2, #4]
 148:../Common/IQMath/ti/_IQNasin_acos.c ****     
 5096              		.loc 1 148 16 view .LVU1987
 5097 0046 0B44     		add	r3, r3, r1
 5098              	.LVL623:
 151:../Common/IQMath/ti/_IQNasin_acos.c ****     
 5099              		.loc 1 151 5 is_stmt 1 view .LVU1988
 5100              	.LBB460:
 5101              	.LBI460:
 233:../Common/IQMath/ti/./support/RTS_support.h **** {
 5102              		.loc 2 233 28 view .LVU1989
 5103              	.LBB461:
 5104              		.loc 2 235 5 view .LVU1990
 5105              		.loc 2 235 49 is_stmt 0 view .LVU1991
 5106 0048 D917     		asrs	r1, r3, #31
 5107              		.loc 2 235 47 view .LVU1992
 5108 004a 00FB01F1 		mul	r1, r0, r1
 5109 004e 03FB0C11 		mla	r1, r3, ip, r1
 5110 0052 A0FB033E 		umull	r3, lr, r0, r3
 5111              	.LVL624:
 5112              		.loc 2 235 47 view .LVU1993
 5113 0056 7144     		add	r1, r1, lr
 5114              		.loc 2 235 69 view .LVU1994
 5115 0058 DB0F     		lsrs	r3, r3, #31
 5116 005a 43EA4103 		orr	r3, r3, r1, lsl #1
 5117              	.LVL625:
 5118              		.loc 2 235 69 view .LVU1995
 5119              	.LBE461:
 5120              	.LBE460:
 154:../Common/IQMath/ti/_IQNasin_acos.c ****     
 5121              		.loc 1 154 5 is_stmt 1 view .LVU1996
 154:../Common/IQMath/ti/_IQNasin_acos.c ****     
 5122              		.loc 1 154 31 is_stmt 0 view .LVU1997
 5123 005e 9168     		ldr	r1, [r2, #8]
 154:../Common/IQMath/ti/_IQNasin_acos.c ****     
 5124              		.loc 1 154 16 view .LVU1998
ARM GAS  C:\Users\57308\AppData\Local\Temp\cc4OkGld.s 			page 127


 5125 0060 0B44     		add	r3, r3, r1
 5126              	.LVL626:
 157:../Common/IQMath/ti/_IQNasin_acos.c ****     
 5127              		.loc 1 157 5 is_stmt 1 view .LVU1999
 5128              	.LBB462:
 5129              	.LBI462:
 233:../Common/IQMath/ti/./support/RTS_support.h **** {
 5130              		.loc 2 233 28 view .LVU2000
 5131              	.LBB463:
 5132              		.loc 2 235 5 view .LVU2001
 5133              		.loc 2 235 49 is_stmt 0 view .LVU2002
 5134 0062 D917     		asrs	r1, r3, #31
 5135              		.loc 2 235 47 view .LVU2003
 5136 0064 00FB01F1 		mul	r1, r0, r1
 5137 0068 03FB0C11 		mla	r1, r3, ip, r1
 5138 006c A0FB033E 		umull	r3, lr, r0, r3
 5139              	.LVL627:
 5140              		.loc 2 235 47 view .LVU2004
 5141 0070 7144     		add	r1, r1, lr
 5142              		.loc 2 235 69 view .LVU2005
 5143 0072 DB0F     		lsrs	r3, r3, #31
 5144 0074 43EA4103 		orr	r3, r3, r1, lsl #1
 5145              	.LVL628:
 5146              		.loc 2 235 69 view .LVU2006
 5147              	.LBE463:
 5148              	.LBE462:
 160:../Common/IQMath/ti/_IQNasin_acos.c ****     
 5149              		.loc 1 160 5 is_stmt 1 view .LVU2007
 160:../Common/IQMath/ti/_IQNasin_acos.c ****     
 5150              		.loc 1 160 31 is_stmt 0 view .LVU2008
 5151 0078 D168     		ldr	r1, [r2, #12]
 160:../Common/IQMath/ti/_IQNasin_acos.c ****     
 5152              		.loc 1 160 16 view .LVU2009
 5153 007a 0B44     		add	r3, r3, r1
 5154              	.LVL629:
 163:../Common/IQMath/ti/_IQNasin_acos.c ****     
 5155              		.loc 1 163 5 is_stmt 1 view .LVU2010
 5156              	.LBB464:
 5157              	.LBI464:
 233:../Common/IQMath/ti/./support/RTS_support.h **** {
 5158              		.loc 2 233 28 view .LVU2011
 5159              	.LBB465:
 5160              		.loc 2 235 5 view .LVU2012
 5161              		.loc 2 235 49 is_stmt 0 view .LVU2013
 5162 007c D917     		asrs	r1, r3, #31
 5163              		.loc 2 235 47 view .LVU2014
 5164 007e 00FB01F1 		mul	r1, r0, r1
 5165 0082 03FB0C11 		mla	r1, r3, ip, r1
 5166 0086 A0FB0303 		umull	r0, r3, r0, r3
 5167              	.LVL630:
 5168              		.loc 2 235 47 view .LVU2015
 5169 008a 0B44     		add	r3, r3, r1
 5170              		.loc 2 235 69 view .LVU2016
 5171 008c C00F     		lsrs	r0, r0, #31
 5172 008e 40EA4300 		orr	r0, r0, r3, lsl #1
 5173              	.LVL631:
 5174              		.loc 2 235 69 view .LVU2017
ARM GAS  C:\Users\57308\AppData\Local\Temp\cc4OkGld.s 			page 128


 5175              	.LBE465:
 5176              	.LBE464:
 166:../Common/IQMath/ti/_IQNasin_acos.c ****     
 5177              		.loc 1 166 5 is_stmt 1 view .LVU2018
 166:../Common/IQMath/ti/_IQNasin_acos.c ****     
 5178              		.loc 1 166 31 is_stmt 0 view .LVU2019
 5179 0092 1369     		ldr	r3, [r2, #16]
 166:../Common/IQMath/ti/_IQNasin_acos.c ****     
 5180              		.loc 1 166 16 view .LVU2020
 5181 0094 1844     		add	r0, r0, r3
 5182              	.LVL632:
 172:../Common/IQMath/ti/_IQNasin_acos.c ****     
 5183              		.loc 1 172 5 is_stmt 1 view .LVU2021
 172:../Common/IQMath/ti/_IQNasin_acos.c ****     
 5184              		.loc 1 172 5 is_stmt 0 view .LVU2022
 5185              	.LBE466:
 5186              	.LBE468:
  72:../Common/IQMath/ti/./support/RTS_support.h **** }
 5187              		.loc 2 72 5 is_stmt 1 view .LVU2023
 5188              	.LBB469:
 5189              	.LBB467:
 175:../Common/IQMath/ti/_IQNasin_acos.c ****         /* asin(x) = pi/2 - 2*iq29Result */
 5190              		.loc 1 175 5 view .LVU2024
 175:../Common/IQMath/ti/_IQNasin_acos.c ****         /* asin(x) = pi/2 - 2*iq29Result */
 5191              		.loc 1 175 8 is_stmt 0 view .LVU2025
 5192 0096 14F0020F 		tst	r4, #2
 5193 009a 02D0     		beq	.L221
 177:../Common/IQMath/ti/_IQNasin_acos.c ****         iq29Result -= iq29_halfPi;      // this is equivalent to the above
 5194              		.loc 1 177 9 is_stmt 1 view .LVU2026
 5195              	.LVL633:
 178:../Common/IQMath/ti/_IQNasin_acos.c ****         iq29Result = -iq29Result;       // but avoids using temporary registers
 5196              		.loc 1 178 9 view .LVU2027
 179:../Common/IQMath/ti/_IQNasin_acos.c ****     }
 5197              		.loc 1 179 9 view .LVU2028
 179:../Common/IQMath/ti/_IQNasin_acos.c ****     }
 5198              		.loc 1 179 20 is_stmt 0 view .LVU2029
 5199 009c 0A4B     		ldr	r3, .L227+4
 5200 009e A3EB4000 		sub	r0, r3, r0, lsl #1
 5201              	.LVL634:
 5202              	.L221:
 183:../Common/IQMath/ti/_IQNasin_acos.c ****     
 5203              		.loc 1 183 5 is_stmt 1 view .LVU2030
 183:../Common/IQMath/ti/_IQNasin_acos.c ****     
 5204              		.loc 1 183 16 is_stmt 0 view .LVU2031
 5205 00a2 8014     		asrs	r0, r0, #18
 5206              	.LVL635:
 186:../Common/IQMath/ti/_IQNasin_acos.c ****         iq29Result = -iq29Result;
 5207              		.loc 1 186 5 is_stmt 1 view .LVU2032
 186:../Common/IQMath/ti/_IQNasin_acos.c ****         iq29Result = -iq29Result;
 5208              		.loc 1 186 8 is_stmt 0 view .LVU2033
 5209 00a4 14F0010F 		tst	r4, #1
 5210 00a8 0BD0     		beq	.L217
 187:../Common/IQMath/ti/_IQNasin_acos.c ****     }
 5211              		.loc 1 187 9 is_stmt 1 view .LVU2034
 187:../Common/IQMath/ti/_IQNasin_acos.c ****     }
 5212              		.loc 1 187 20 is_stmt 0 view .LVU2035
 5213 00aa 4042     		rsbs	r0, r0, #0
ARM GAS  C:\Users\57308\AppData\Local\Temp\cc4OkGld.s 			page 129


 5214              	.LVL636:
 187:../Common/IQMath/ti/_IQNasin_acos.c ****     }
 5215              		.loc 1 187 20 view .LVU2036
 5216 00ac 09E0     		b	.L217
 5217              	.LVL637:
 5218              	.L225:
  90:../Common/IQMath/ti/_IQNasin_acos.c ****         iqNInput = -iqNInput;
 5219              		.loc 1 90 9 is_stmt 1 view .LVU2037
  91:../Common/IQMath/ti/_IQNasin_acos.c ****     }
 5220              		.loc 1 91 9 view .LVU2038
  91:../Common/IQMath/ti/_IQNasin_acos.c ****     }
 5221              		.loc 1 91 18 is_stmt 0 view .LVU2039
 5222 00ae 4042     		rsbs	r0, r0, #0
 5223              	.LVL638:
  90:../Common/IQMath/ti/_IQNasin_acos.c ****         iqNInput = -iqNInput;
 5224              		.loc 1 90 19 view .LVU2040
 5225 00b0 0124     		movs	r4, #1
 5226 00b2 A9E7     		b	.L218
 5227              	.LVL639:
 5228              	.L226:
 115:../Common/IQMath/ti/_IQNasin_acos.c ****         
 5229              		.loc 1 115 9 is_stmt 1 view .LVU2041
 118:../Common/IQMath/ti/_IQNasin_acos.c ****         
 5230              		.loc 1 118 9 view .LVU2042
 118:../Common/IQMath/ti/_IQNasin_acos.c ****         
 5231              		.loc 1 118 22 is_stmt 0 view .LVU2043
 5232 00b4 5808     		lsrs	r0, r3, #1
 5233              	.LVL640:
 118:../Common/IQMath/ti/_IQNasin_acos.c ****         
 5234              		.loc 1 118 22 view .LVU2044
 5235 00b6 FFF7FEFF 		bl	_IQ31sqrt
 5236              	.LVL641:
 121:../Common/IQMath/ti/_IQNasin_acos.c ****     }
 5237              		.loc 1 121 9 is_stmt 1 view .LVU2045
 121:../Common/IQMath/ti/_IQNasin_acos.c ****     }
 5238              		.loc 1 121 19 is_stmt 0 view .LVU2046
 5239 00ba 44F00204 		orr	r4, r4, #2
 5240              	.LVL642:
 121:../Common/IQMath/ti/_IQNasin_acos.c ****     }
 5241              		.loc 1 121 19 view .LVU2047
 5242 00be ACE7     		b	.L220
 5243              	.LVL643:
 5244              	.L223:
 100:../Common/IQMath/ti/_IQNasin_acos.c ****     }
 5245              		.loc 1 100 16 view .LVU2048
 5246 00c0 0020     		movs	r0, #0
 5247              	.LVL644:
 5248              	.L217:
 100:../Common/IQMath/ti/_IQNasin_acos.c ****     }
 5249              		.loc 1 100 16 view .LVU2049
 5250              	.LBE467:
 5251              	.LBE469:
 402:../Common/IQMath/ti/_IQNasin_acos.c **** }
 5252              		.loc 1 402 1 view .LVU2050
 5253 00c2 10BD     		pop	{r4, pc}
 5254              	.L228:
 5255              		.align	2
ARM GAS  C:\Users\57308\AppData\Local\Temp\cc4OkGld.s 			page 130


 5256              	.L227:
 5257 00c4 00000000 		.word	_IQ29Asin_coeffs
 5258 00c8 A8F64332 		.word	843314856
 5259              		.cfi_endproc
 5260              	.LFE280:
 5262              		.section	.text._IQ10asin,"ax",%progbits
 5263              		.align	1
 5264              		.global	_IQ10asin
 5265              		.syntax unified
 5266              		.thumb
 5267              		.thumb_func
 5269              	_IQ10asin:
 5270              	.LVL645:
 5271              	.LFB281:
 403:../Common/IQMath/ti/_IQNasin_acos.c **** /**
 404:../Common/IQMath/ti/_IQNasin_acos.c ****  * @brief Computes the inverse sine of the IQ10 input.
 405:../Common/IQMath/ti/_IQNasin_acos.c ****  *
 406:../Common/IQMath/ti/_IQNasin_acos.c ****  * @param a               IQ10 type input.
 407:../Common/IQMath/ti/_IQNasin_acos.c ****  *
 408:../Common/IQMath/ti/_IQNasin_acos.c ****  * @return                IQ10 type result of inverse sine.
 409:../Common/IQMath/ti/_IQNasin_acos.c ****  */
 410:../Common/IQMath/ti/_IQNasin_acos.c **** int32_t _IQ10asin(int32_t a)
 411:../Common/IQMath/ti/_IQNasin_acos.c **** {
 5272              		.loc 1 411 1 is_stmt 1 view -0
 5273              		.cfi_startproc
 5274              		@ args = 0, pretend = 0, frame = 0
 5275              		@ frame_needed = 0, uses_anonymous_args = 0
 5276              		.loc 1 411 1 is_stmt 0 view .LVU2052
 5277 0000 10B5     		push	{r4, lr}
 5278              	.LCFI19:
 5279              		.cfi_def_cfa_offset 8
 5280              		.cfi_offset 4, -8
 5281              		.cfi_offset 14, -4
 412:../Common/IQMath/ti/_IQNasin_acos.c ****     return __IQNasin(a, 10);
 5282              		.loc 1 412 5 is_stmt 1 view .LVU2053
 5283              	.LVL646:
 5284              	.LBB480:
 5285              	.LBI480:
  70:../Common/IQMath/ti/_IQNasin_acos.c **** {
 5286              		.loc 1 70 30 view .LVU2054
 5287              	.LBB481:
  72:../Common/IQMath/ti/_IQNasin_acos.c ****     uint_fast16_t index;
 5288              		.loc 1 72 5 view .LVU2055
  73:../Common/IQMath/ti/_IQNasin_acos.c ****     uint_fast16_t ui16IntState;
 5289              		.loc 1 73 5 view .LVU2056
  74:../Common/IQMath/ti/_IQNasin_acos.c ****     uint_fast16_t ui16MPYState;
 5290              		.loc 1 74 5 view .LVU2057
  75:../Common/IQMath/ti/_IQNasin_acos.c ****     int_fast32_t iq29Result;
 5291              		.loc 1 75 5 view .LVU2058
  76:../Common/IQMath/ti/_IQNasin_acos.c ****     const int_fast32_t *piq29Coeffs;
 5292              		.loc 1 76 5 view .LVU2059
  77:../Common/IQMath/ti/_IQNasin_acos.c ****     uint_fast32_t uiq31Input;
 5293              		.loc 1 77 5 view .LVU2060
  78:../Common/IQMath/ti/_IQNasin_acos.c ****     uint_fast32_t uiq31InputTemp;
 5294              		.loc 1 78 5 view .LVU2061
  79:../Common/IQMath/ti/_IQNasin_acos.c ****     
 5295              		.loc 1 79 5 view .LVU2062
ARM GAS  C:\Users\57308\AppData\Local\Temp\cc4OkGld.s 			page 131


  89:../Common/IQMath/ti/_IQNasin_acos.c ****         ui8Status |= 1;
 5296              		.loc 1 89 5 view .LVU2063
  89:../Common/IQMath/ti/_IQNasin_acos.c ****         ui8Status |= 1;
 5297              		.loc 1 89 8 is_stmt 0 view .LVU2064
 5298 0002 0028     		cmp	r0, #0
  89:../Common/IQMath/ti/_IQNasin_acos.c ****         ui8Status |= 1;
 5299              		.loc 1 89 8 view .LVU2065
 5300 0004 53DB     		blt	.L237
  72:../Common/IQMath/ti/_IQNasin_acos.c ****     uint_fast16_t index;
 5301              		.loc 1 72 13 view .LVU2066
 5302 0006 0024     		movs	r4, #0
 5303              	.LVL647:
 5304              	.L230:
  99:../Common/IQMath/ti/_IQNasin_acos.c ****         return 0;
 5305              		.loc 1 99 5 is_stmt 1 view .LVU2067
  99:../Common/IQMath/ti/_IQNasin_acos.c ****         return 0;
 5306              		.loc 1 99 8 is_stmt 0 view .LVU2068
 5307 0008 B0F5806F 		cmp	r0, #1024
 5308 000c 58D8     		bhi	.L235
 104:../Common/IQMath/ti/_IQNasin_acos.c ****     
 5309              		.loc 1 104 5 is_stmt 1 view .LVU2069
 104:../Common/IQMath/ti/_IQNasin_acos.c ****     
 5310              		.loc 1 104 16 is_stmt 0 view .LVU2070
 5311 000e 4005     		lsls	r0, r0, #21
 5312              	.LVL648:
 112:../Common/IQMath/ti/_IQNasin_acos.c ****     if (uiq31InputTemp < 0x40000000) {
 5313              		.loc 1 112 5 is_stmt 1 view .LVU2071
 112:../Common/IQMath/ti/_IQNasin_acos.c ****     if (uiq31InputTemp < 0x40000000) {
 5314              		.loc 1 112 20 is_stmt 0 view .LVU2072
 5315 0010 C0F10043 		rsb	r3, r0, #-2147483648
 5316              	.LVL649:
 113:../Common/IQMath/ti/_IQNasin_acos.c ****         /* Halve the result. */
 5317              		.loc 1 113 5 is_stmt 1 view .LVU2073
 113:../Common/IQMath/ti/_IQNasin_acos.c ****         /* Halve the result. */
 5318              		.loc 1 113 8 is_stmt 0 view .LVU2074
 5319 0014 B3F1804F 		cmp	r3, #1073741824
 5320 0018 4CD3     		bcc	.L238
 5321              	.LVL650:
 5322              	.L232:
 125:../Common/IQMath/ti/_IQNasin_acos.c ****     
 5323              		.loc 1 125 5 is_stmt 1 view .LVU2075
 125:../Common/IQMath/ti/_IQNasin_acos.c ****     
 5324              		.loc 1 125 11 is_stmt 0 view .LVU2076
 5325 001a 830E     		lsrs	r3, r0, #26
 5326              	.LVL651:
 128:../Common/IQMath/ti/_IQNasin_acos.c ****     
 5327              		.loc 1 128 5 is_stmt 1 view .LVU2077
 128:../Common/IQMath/ti/_IQNasin_acos.c ****     
 5328              		.loc 1 128 17 is_stmt 0 view .LVU2078
 5329 001c 03EB8303 		add	r3, r3, r3, lsl #2
 5330              	.LVL652:
 128:../Common/IQMath/ti/_IQNasin_acos.c ****     
 5331              		.loc 1 128 17 view .LVU2079
 5332 0020 2849     		ldr	r1, .L239
 5333 0022 01EB8302 		add	r2, r1, r3, lsl #2
 5334              	.LVL653:
 136:../Common/IQMath/ti/_IQNasin_acos.c ****     
ARM GAS  C:\Users\57308\AppData\Local\Temp\cc4OkGld.s 			page 132


 5335              		.loc 1 136 5 is_stmt 1 view .LVU2080
 136:../Common/IQMath/ti/_IQNasin_acos.c ****     
 5336              		.loc 1 136 5 is_stmt 0 view .LVU2081
 5337              	.LBE481:
 5338              	.LBE480:
  28:../Common/IQMath/ti/./support/RTS_support.h **** }
 5339              		.loc 2 28 5 is_stmt 1 view .LVU2082
 5340              	.LBB492:
 5341              	.LBB490:
 145:../Common/IQMath/ti/_IQNasin_acos.c ****     
 5342              		.loc 1 145 5 view .LVU2083
 145:../Common/IQMath/ti/_IQNasin_acos.c ****     
 5343              		.loc 1 145 18 is_stmt 0 view .LVU2084
 5344 0026 51F82330 		ldr	r3, [r1, r3, lsl #2]
 5345              	.LVL654:
 5346              	.LBB482:
 5347              	.LBI482:
 233:../Common/IQMath/ti/./support/RTS_support.h **** {
 5348              		.loc 2 233 28 is_stmt 1 view .LVU2085
 5349              	.LBB483:
 5350              		.loc 2 235 5 view .LVU2086
 5351              		.loc 2 235 28 is_stmt 0 view .LVU2087
 5352 002a 4FEAE07C 		asr	ip, r0, #31
 5353              		.loc 2 235 49 view .LVU2088
 5354 002e D917     		asrs	r1, r3, #31
 5355              		.loc 2 235 47 view .LVU2089
 5356 0030 00FB01F1 		mul	r1, r0, r1
 5357 0034 03FB0C11 		mla	r1, r3, ip, r1
 5358 0038 A0FB033E 		umull	r3, lr, r0, r3
 5359              	.LVL655:
 5360              		.loc 2 235 47 view .LVU2090
 5361 003c 7144     		add	r1, r1, lr
 5362              		.loc 2 235 69 view .LVU2091
 5363 003e DB0F     		lsrs	r3, r3, #31
 5364 0040 43EA4103 		orr	r3, r3, r1, lsl #1
 5365              	.LVL656:
 5366              		.loc 2 235 69 view .LVU2092
 5367              	.LBE483:
 5368              	.LBE482:
 148:../Common/IQMath/ti/_IQNasin_acos.c ****     
 5369              		.loc 1 148 5 is_stmt 1 view .LVU2093
 148:../Common/IQMath/ti/_IQNasin_acos.c ****     
 5370              		.loc 1 148 31 is_stmt 0 view .LVU2094
 5371 0044 5168     		ldr	r1, [r2, #4]
 148:../Common/IQMath/ti/_IQNasin_acos.c ****     
 5372              		.loc 1 148 16 view .LVU2095
 5373 0046 0B44     		add	r3, r3, r1
 5374              	.LVL657:
 151:../Common/IQMath/ti/_IQNasin_acos.c ****     
 5375              		.loc 1 151 5 is_stmt 1 view .LVU2096
 5376              	.LBB484:
 5377              	.LBI484:
 233:../Common/IQMath/ti/./support/RTS_support.h **** {
 5378              		.loc 2 233 28 view .LVU2097
 5379              	.LBB485:
 5380              		.loc 2 235 5 view .LVU2098
 5381              		.loc 2 235 49 is_stmt 0 view .LVU2099
ARM GAS  C:\Users\57308\AppData\Local\Temp\cc4OkGld.s 			page 133


 5382 0048 D917     		asrs	r1, r3, #31
 5383              		.loc 2 235 47 view .LVU2100
 5384 004a 00FB01F1 		mul	r1, r0, r1
 5385 004e 03FB0C11 		mla	r1, r3, ip, r1
 5386 0052 A0FB033E 		umull	r3, lr, r0, r3
 5387              	.LVL658:
 5388              		.loc 2 235 47 view .LVU2101
 5389 0056 7144     		add	r1, r1, lr
 5390              		.loc 2 235 69 view .LVU2102
 5391 0058 DB0F     		lsrs	r3, r3, #31
 5392 005a 43EA4103 		orr	r3, r3, r1, lsl #1
 5393              	.LVL659:
 5394              		.loc 2 235 69 view .LVU2103
 5395              	.LBE485:
 5396              	.LBE484:
 154:../Common/IQMath/ti/_IQNasin_acos.c ****     
 5397              		.loc 1 154 5 is_stmt 1 view .LVU2104
 154:../Common/IQMath/ti/_IQNasin_acos.c ****     
 5398              		.loc 1 154 31 is_stmt 0 view .LVU2105
 5399 005e 9168     		ldr	r1, [r2, #8]
 154:../Common/IQMath/ti/_IQNasin_acos.c ****     
 5400              		.loc 1 154 16 view .LVU2106
 5401 0060 0B44     		add	r3, r3, r1
 5402              	.LVL660:
 157:../Common/IQMath/ti/_IQNasin_acos.c ****     
 5403              		.loc 1 157 5 is_stmt 1 view .LVU2107
 5404              	.LBB486:
 5405              	.LBI486:
 233:../Common/IQMath/ti/./support/RTS_support.h **** {
 5406              		.loc 2 233 28 view .LVU2108
 5407              	.LBB487:
 5408              		.loc 2 235 5 view .LVU2109
 5409              		.loc 2 235 49 is_stmt 0 view .LVU2110
 5410 0062 D917     		asrs	r1, r3, #31
 5411              		.loc 2 235 47 view .LVU2111
 5412 0064 00FB01F1 		mul	r1, r0, r1
 5413 0068 03FB0C11 		mla	r1, r3, ip, r1
 5414 006c A0FB033E 		umull	r3, lr, r0, r3
 5415              	.LVL661:
 5416              		.loc 2 235 47 view .LVU2112
 5417 0070 7144     		add	r1, r1, lr
 5418              		.loc 2 235 69 view .LVU2113
 5419 0072 DB0F     		lsrs	r3, r3, #31
 5420 0074 43EA4103 		orr	r3, r3, r1, lsl #1
 5421              	.LVL662:
 5422              		.loc 2 235 69 view .LVU2114
 5423              	.LBE487:
 5424              	.LBE486:
 160:../Common/IQMath/ti/_IQNasin_acos.c ****     
 5425              		.loc 1 160 5 is_stmt 1 view .LVU2115
 160:../Common/IQMath/ti/_IQNasin_acos.c ****     
 5426              		.loc 1 160 31 is_stmt 0 view .LVU2116
 5427 0078 D168     		ldr	r1, [r2, #12]
 160:../Common/IQMath/ti/_IQNasin_acos.c ****     
 5428              		.loc 1 160 16 view .LVU2117
 5429 007a 0B44     		add	r3, r3, r1
 5430              	.LVL663:
ARM GAS  C:\Users\57308\AppData\Local\Temp\cc4OkGld.s 			page 134


 163:../Common/IQMath/ti/_IQNasin_acos.c ****     
 5431              		.loc 1 163 5 is_stmt 1 view .LVU2118
 5432              	.LBB488:
 5433              	.LBI488:
 233:../Common/IQMath/ti/./support/RTS_support.h **** {
 5434              		.loc 2 233 28 view .LVU2119
 5435              	.LBB489:
 5436              		.loc 2 235 5 view .LVU2120
 5437              		.loc 2 235 49 is_stmt 0 view .LVU2121
 5438 007c D917     		asrs	r1, r3, #31
 5439              		.loc 2 235 47 view .LVU2122
 5440 007e 00FB01F1 		mul	r1, r0, r1
 5441 0082 03FB0C11 		mla	r1, r3, ip, r1
 5442 0086 A0FB0303 		umull	r0, r3, r0, r3
 5443              	.LVL664:
 5444              		.loc 2 235 47 view .LVU2123
 5445 008a 0B44     		add	r3, r3, r1
 5446              		.loc 2 235 69 view .LVU2124
 5447 008c C00F     		lsrs	r0, r0, #31
 5448 008e 40EA4300 		orr	r0, r0, r3, lsl #1
 5449              	.LVL665:
 5450              		.loc 2 235 69 view .LVU2125
 5451              	.LBE489:
 5452              	.LBE488:
 166:../Common/IQMath/ti/_IQNasin_acos.c ****     
 5453              		.loc 1 166 5 is_stmt 1 view .LVU2126
 166:../Common/IQMath/ti/_IQNasin_acos.c ****     
 5454              		.loc 1 166 31 is_stmt 0 view .LVU2127
 5455 0092 1369     		ldr	r3, [r2, #16]
 166:../Common/IQMath/ti/_IQNasin_acos.c ****     
 5456              		.loc 1 166 16 view .LVU2128
 5457 0094 1844     		add	r0, r0, r3
 5458              	.LVL666:
 172:../Common/IQMath/ti/_IQNasin_acos.c ****     
 5459              		.loc 1 172 5 is_stmt 1 view .LVU2129
 172:../Common/IQMath/ti/_IQNasin_acos.c ****     
 5460              		.loc 1 172 5 is_stmt 0 view .LVU2130
 5461              	.LBE490:
 5462              	.LBE492:
  72:../Common/IQMath/ti/./support/RTS_support.h **** }
 5463              		.loc 2 72 5 is_stmt 1 view .LVU2131
 5464              	.LBB493:
 5465              	.LBB491:
 175:../Common/IQMath/ti/_IQNasin_acos.c ****         /* asin(x) = pi/2 - 2*iq29Result */
 5466              		.loc 1 175 5 view .LVU2132
 175:../Common/IQMath/ti/_IQNasin_acos.c ****         /* asin(x) = pi/2 - 2*iq29Result */
 5467              		.loc 1 175 8 is_stmt 0 view .LVU2133
 5468 0096 14F0020F 		tst	r4, #2
 5469 009a 02D0     		beq	.L233
 177:../Common/IQMath/ti/_IQNasin_acos.c ****         iq29Result -= iq29_halfPi;      // this is equivalent to the above
 5470              		.loc 1 177 9 is_stmt 1 view .LVU2134
 5471              	.LVL667:
 178:../Common/IQMath/ti/_IQNasin_acos.c ****         iq29Result = -iq29Result;       // but avoids using temporary registers
 5472              		.loc 1 178 9 view .LVU2135
 179:../Common/IQMath/ti/_IQNasin_acos.c ****     }
 5473              		.loc 1 179 9 view .LVU2136
 179:../Common/IQMath/ti/_IQNasin_acos.c ****     }
ARM GAS  C:\Users\57308\AppData\Local\Temp\cc4OkGld.s 			page 135


 5474              		.loc 1 179 20 is_stmt 0 view .LVU2137
 5475 009c 0A4B     		ldr	r3, .L239+4
 5476 009e A3EB4000 		sub	r0, r3, r0, lsl #1
 5477              	.LVL668:
 5478              	.L233:
 183:../Common/IQMath/ti/_IQNasin_acos.c ****     
 5479              		.loc 1 183 5 is_stmt 1 view .LVU2138
 183:../Common/IQMath/ti/_IQNasin_acos.c ****     
 5480              		.loc 1 183 16 is_stmt 0 view .LVU2139
 5481 00a2 C014     		asrs	r0, r0, #19
 5482              	.LVL669:
 186:../Common/IQMath/ti/_IQNasin_acos.c ****         iq29Result = -iq29Result;
 5483              		.loc 1 186 5 is_stmt 1 view .LVU2140
 186:../Common/IQMath/ti/_IQNasin_acos.c ****         iq29Result = -iq29Result;
 5484              		.loc 1 186 8 is_stmt 0 view .LVU2141
 5485 00a4 14F0010F 		tst	r4, #1
 5486 00a8 0BD0     		beq	.L229
 187:../Common/IQMath/ti/_IQNasin_acos.c ****     }
 5487              		.loc 1 187 9 is_stmt 1 view .LVU2142
 187:../Common/IQMath/ti/_IQNasin_acos.c ****     }
 5488              		.loc 1 187 20 is_stmt 0 view .LVU2143
 5489 00aa 4042     		rsbs	r0, r0, #0
 5490              	.LVL670:
 187:../Common/IQMath/ti/_IQNasin_acos.c ****     }
 5491              		.loc 1 187 20 view .LVU2144
 5492 00ac 09E0     		b	.L229
 5493              	.LVL671:
 5494              	.L237:
  90:../Common/IQMath/ti/_IQNasin_acos.c ****         iqNInput = -iqNInput;
 5495              		.loc 1 90 9 is_stmt 1 view .LVU2145
  91:../Common/IQMath/ti/_IQNasin_acos.c ****     }
 5496              		.loc 1 91 9 view .LVU2146
  91:../Common/IQMath/ti/_IQNasin_acos.c ****     }
 5497              		.loc 1 91 18 is_stmt 0 view .LVU2147
 5498 00ae 4042     		rsbs	r0, r0, #0
 5499              	.LVL672:
  90:../Common/IQMath/ti/_IQNasin_acos.c ****         iqNInput = -iqNInput;
 5500              		.loc 1 90 19 view .LVU2148
 5501 00b0 0124     		movs	r4, #1
 5502 00b2 A9E7     		b	.L230
 5503              	.LVL673:
 5504              	.L238:
 115:../Common/IQMath/ti/_IQNasin_acos.c ****         
 5505              		.loc 1 115 9 is_stmt 1 view .LVU2149
 118:../Common/IQMath/ti/_IQNasin_acos.c ****         
 5506              		.loc 1 118 9 view .LVU2150
 118:../Common/IQMath/ti/_IQNasin_acos.c ****         
 5507              		.loc 1 118 22 is_stmt 0 view .LVU2151
 5508 00b4 5808     		lsrs	r0, r3, #1
 5509              	.LVL674:
 118:../Common/IQMath/ti/_IQNasin_acos.c ****         
 5510              		.loc 1 118 22 view .LVU2152
 5511 00b6 FFF7FEFF 		bl	_IQ31sqrt
 5512              	.LVL675:
 121:../Common/IQMath/ti/_IQNasin_acos.c ****     }
 5513              		.loc 1 121 9 is_stmt 1 view .LVU2153
 121:../Common/IQMath/ti/_IQNasin_acos.c ****     }
ARM GAS  C:\Users\57308\AppData\Local\Temp\cc4OkGld.s 			page 136


 5514              		.loc 1 121 19 is_stmt 0 view .LVU2154
 5515 00ba 44F00204 		orr	r4, r4, #2
 5516              	.LVL676:
 121:../Common/IQMath/ti/_IQNasin_acos.c ****     }
 5517              		.loc 1 121 19 view .LVU2155
 5518 00be ACE7     		b	.L232
 5519              	.LVL677:
 5520              	.L235:
 100:../Common/IQMath/ti/_IQNasin_acos.c ****     }
 5521              		.loc 1 100 16 view .LVU2156
 5522 00c0 0020     		movs	r0, #0
 5523              	.LVL678:
 5524              	.L229:
 100:../Common/IQMath/ti/_IQNasin_acos.c ****     }
 5525              		.loc 1 100 16 view .LVU2157
 5526              	.LBE491:
 5527              	.LBE493:
 413:../Common/IQMath/ti/_IQNasin_acos.c **** }
 5528              		.loc 1 413 1 view .LVU2158
 5529 00c2 10BD     		pop	{r4, pc}
 5530              	.L240:
 5531              		.align	2
 5532              	.L239:
 5533 00c4 00000000 		.word	_IQ29Asin_coeffs
 5534 00c8 A8F64332 		.word	843314856
 5535              		.cfi_endproc
 5536              	.LFE281:
 5538              		.section	.text._IQ9asin,"ax",%progbits
 5539              		.align	1
 5540              		.global	_IQ9asin
 5541              		.syntax unified
 5542              		.thumb
 5543              		.thumb_func
 5545              	_IQ9asin:
 5546              	.LVL679:
 5547              	.LFB282:
 414:../Common/IQMath/ti/_IQNasin_acos.c **** /**
 415:../Common/IQMath/ti/_IQNasin_acos.c ****  * @brief Computes the inverse sine of the IQ9 input.
 416:../Common/IQMath/ti/_IQNasin_acos.c ****  *
 417:../Common/IQMath/ti/_IQNasin_acos.c ****  * @param a               IQ9 type input.
 418:../Common/IQMath/ti/_IQNasin_acos.c ****  *
 419:../Common/IQMath/ti/_IQNasin_acos.c ****  * @return                IQ9 type result of inverse sine.
 420:../Common/IQMath/ti/_IQNasin_acos.c ****  */
 421:../Common/IQMath/ti/_IQNasin_acos.c **** int32_t _IQ9asin(int32_t a)
 422:../Common/IQMath/ti/_IQNasin_acos.c **** {
 5548              		.loc 1 422 1 is_stmt 1 view -0
 5549              		.cfi_startproc
 5550              		@ args = 0, pretend = 0, frame = 0
 5551              		@ frame_needed = 0, uses_anonymous_args = 0
 5552              		.loc 1 422 1 is_stmt 0 view .LVU2160
 5553 0000 10B5     		push	{r4, lr}
 5554              	.LCFI20:
 5555              		.cfi_def_cfa_offset 8
 5556              		.cfi_offset 4, -8
 5557              		.cfi_offset 14, -4
 423:../Common/IQMath/ti/_IQNasin_acos.c ****     return __IQNasin(a, 9);
 5558              		.loc 1 423 5 is_stmt 1 view .LVU2161
ARM GAS  C:\Users\57308\AppData\Local\Temp\cc4OkGld.s 			page 137


 5559              	.LVL680:
 5560              	.LBB504:
 5561              	.LBI504:
  70:../Common/IQMath/ti/_IQNasin_acos.c **** {
 5562              		.loc 1 70 30 view .LVU2162
 5563              	.LBB505:
  72:../Common/IQMath/ti/_IQNasin_acos.c ****     uint_fast16_t index;
 5564              		.loc 1 72 5 view .LVU2163
  73:../Common/IQMath/ti/_IQNasin_acos.c ****     uint_fast16_t ui16IntState;
 5565              		.loc 1 73 5 view .LVU2164
  74:../Common/IQMath/ti/_IQNasin_acos.c ****     uint_fast16_t ui16MPYState;
 5566              		.loc 1 74 5 view .LVU2165
  75:../Common/IQMath/ti/_IQNasin_acos.c ****     int_fast32_t iq29Result;
 5567              		.loc 1 75 5 view .LVU2166
  76:../Common/IQMath/ti/_IQNasin_acos.c ****     const int_fast32_t *piq29Coeffs;
 5568              		.loc 1 76 5 view .LVU2167
  77:../Common/IQMath/ti/_IQNasin_acos.c ****     uint_fast32_t uiq31Input;
 5569              		.loc 1 77 5 view .LVU2168
  78:../Common/IQMath/ti/_IQNasin_acos.c ****     uint_fast32_t uiq31InputTemp;
 5570              		.loc 1 78 5 view .LVU2169
  79:../Common/IQMath/ti/_IQNasin_acos.c ****     
 5571              		.loc 1 79 5 view .LVU2170
  89:../Common/IQMath/ti/_IQNasin_acos.c ****         ui8Status |= 1;
 5572              		.loc 1 89 5 view .LVU2171
  89:../Common/IQMath/ti/_IQNasin_acos.c ****         ui8Status |= 1;
 5573              		.loc 1 89 8 is_stmt 0 view .LVU2172
 5574 0002 0028     		cmp	r0, #0
  89:../Common/IQMath/ti/_IQNasin_acos.c ****         ui8Status |= 1;
 5575              		.loc 1 89 8 view .LVU2173
 5576 0004 53DB     		blt	.L249
  72:../Common/IQMath/ti/_IQNasin_acos.c ****     uint_fast16_t index;
 5577              		.loc 1 72 13 view .LVU2174
 5578 0006 0024     		movs	r4, #0
 5579              	.LVL681:
 5580              	.L242:
  99:../Common/IQMath/ti/_IQNasin_acos.c ****         return 0;
 5581              		.loc 1 99 5 is_stmt 1 view .LVU2175
  99:../Common/IQMath/ti/_IQNasin_acos.c ****         return 0;
 5582              		.loc 1 99 8 is_stmt 0 view .LVU2176
 5583 0008 B0F5007F 		cmp	r0, #512
 5584 000c 58D8     		bhi	.L247
 104:../Common/IQMath/ti/_IQNasin_acos.c ****     
 5585              		.loc 1 104 5 is_stmt 1 view .LVU2177
 104:../Common/IQMath/ti/_IQNasin_acos.c ****     
 5586              		.loc 1 104 16 is_stmt 0 view .LVU2178
 5587 000e 8005     		lsls	r0, r0, #22
 5588              	.LVL682:
 112:../Common/IQMath/ti/_IQNasin_acos.c ****     if (uiq31InputTemp < 0x40000000) {
 5589              		.loc 1 112 5 is_stmt 1 view .LVU2179
 112:../Common/IQMath/ti/_IQNasin_acos.c ****     if (uiq31InputTemp < 0x40000000) {
 5590              		.loc 1 112 20 is_stmt 0 view .LVU2180
 5591 0010 C0F10043 		rsb	r3, r0, #-2147483648
 5592              	.LVL683:
 113:../Common/IQMath/ti/_IQNasin_acos.c ****         /* Halve the result. */
 5593              		.loc 1 113 5 is_stmt 1 view .LVU2181
 113:../Common/IQMath/ti/_IQNasin_acos.c ****         /* Halve the result. */
 5594              		.loc 1 113 8 is_stmt 0 view .LVU2182
ARM GAS  C:\Users\57308\AppData\Local\Temp\cc4OkGld.s 			page 138


 5595 0014 B3F1804F 		cmp	r3, #1073741824
 5596 0018 4CD3     		bcc	.L250
 5597              	.LVL684:
 5598              	.L244:
 125:../Common/IQMath/ti/_IQNasin_acos.c ****     
 5599              		.loc 1 125 5 is_stmt 1 view .LVU2183
 125:../Common/IQMath/ti/_IQNasin_acos.c ****     
 5600              		.loc 1 125 11 is_stmt 0 view .LVU2184
 5601 001a 830E     		lsrs	r3, r0, #26
 5602              	.LVL685:
 128:../Common/IQMath/ti/_IQNasin_acos.c ****     
 5603              		.loc 1 128 5 is_stmt 1 view .LVU2185
 128:../Common/IQMath/ti/_IQNasin_acos.c ****     
 5604              		.loc 1 128 17 is_stmt 0 view .LVU2186
 5605 001c 03EB8303 		add	r3, r3, r3, lsl #2
 5606              	.LVL686:
 128:../Common/IQMath/ti/_IQNasin_acos.c ****     
 5607              		.loc 1 128 17 view .LVU2187
 5608 0020 2849     		ldr	r1, .L251
 5609 0022 01EB8302 		add	r2, r1, r3, lsl #2
 5610              	.LVL687:
 136:../Common/IQMath/ti/_IQNasin_acos.c ****     
 5611              		.loc 1 136 5 is_stmt 1 view .LVU2188
 136:../Common/IQMath/ti/_IQNasin_acos.c ****     
 5612              		.loc 1 136 5 is_stmt 0 view .LVU2189
 5613              	.LBE505:
 5614              	.LBE504:
  28:../Common/IQMath/ti/./support/RTS_support.h **** }
 5615              		.loc 2 28 5 is_stmt 1 view .LVU2190
 5616              	.LBB516:
 5617              	.LBB514:
 145:../Common/IQMath/ti/_IQNasin_acos.c ****     
 5618              		.loc 1 145 5 view .LVU2191
 145:../Common/IQMath/ti/_IQNasin_acos.c ****     
 5619              		.loc 1 145 18 is_stmt 0 view .LVU2192
 5620 0026 51F82330 		ldr	r3, [r1, r3, lsl #2]
 5621              	.LVL688:
 5622              	.LBB506:
 5623              	.LBI506:
 233:../Common/IQMath/ti/./support/RTS_support.h **** {
 5624              		.loc 2 233 28 is_stmt 1 view .LVU2193
 5625              	.LBB507:
 5626              		.loc 2 235 5 view .LVU2194
 5627              		.loc 2 235 28 is_stmt 0 view .LVU2195
 5628 002a 4FEAE07C 		asr	ip, r0, #31
 5629              		.loc 2 235 49 view .LVU2196
 5630 002e D917     		asrs	r1, r3, #31
 5631              		.loc 2 235 47 view .LVU2197
 5632 0030 00FB01F1 		mul	r1, r0, r1
 5633 0034 03FB0C11 		mla	r1, r3, ip, r1
 5634 0038 A0FB033E 		umull	r3, lr, r0, r3
 5635              	.LVL689:
 5636              		.loc 2 235 47 view .LVU2198
 5637 003c 7144     		add	r1, r1, lr
 5638              		.loc 2 235 69 view .LVU2199
 5639 003e DB0F     		lsrs	r3, r3, #31
 5640 0040 43EA4103 		orr	r3, r3, r1, lsl #1
ARM GAS  C:\Users\57308\AppData\Local\Temp\cc4OkGld.s 			page 139


 5641              	.LVL690:
 5642              		.loc 2 235 69 view .LVU2200
 5643              	.LBE507:
 5644              	.LBE506:
 148:../Common/IQMath/ti/_IQNasin_acos.c ****     
 5645              		.loc 1 148 5 is_stmt 1 view .LVU2201
 148:../Common/IQMath/ti/_IQNasin_acos.c ****     
 5646              		.loc 1 148 31 is_stmt 0 view .LVU2202
 5647 0044 5168     		ldr	r1, [r2, #4]
 148:../Common/IQMath/ti/_IQNasin_acos.c ****     
 5648              		.loc 1 148 16 view .LVU2203
 5649 0046 0B44     		add	r3, r3, r1
 5650              	.LVL691:
 151:../Common/IQMath/ti/_IQNasin_acos.c ****     
 5651              		.loc 1 151 5 is_stmt 1 view .LVU2204
 5652              	.LBB508:
 5653              	.LBI508:
 233:../Common/IQMath/ti/./support/RTS_support.h **** {
 5654              		.loc 2 233 28 view .LVU2205
 5655              	.LBB509:
 5656              		.loc 2 235 5 view .LVU2206
 5657              		.loc 2 235 49 is_stmt 0 view .LVU2207
 5658 0048 D917     		asrs	r1, r3, #31
 5659              		.loc 2 235 47 view .LVU2208
 5660 004a 00FB01F1 		mul	r1, r0, r1
 5661 004e 03FB0C11 		mla	r1, r3, ip, r1
 5662 0052 A0FB033E 		umull	r3, lr, r0, r3
 5663              	.LVL692:
 5664              		.loc 2 235 47 view .LVU2209
 5665 0056 7144     		add	r1, r1, lr
 5666              		.loc 2 235 69 view .LVU2210
 5667 0058 DB0F     		lsrs	r3, r3, #31
 5668 005a 43EA4103 		orr	r3, r3, r1, lsl #1
 5669              	.LVL693:
 5670              		.loc 2 235 69 view .LVU2211
 5671              	.LBE509:
 5672              	.LBE508:
 154:../Common/IQMath/ti/_IQNasin_acos.c ****     
 5673              		.loc 1 154 5 is_stmt 1 view .LVU2212
 154:../Common/IQMath/ti/_IQNasin_acos.c ****     
 5674              		.loc 1 154 31 is_stmt 0 view .LVU2213
 5675 005e 9168     		ldr	r1, [r2, #8]
 154:../Common/IQMath/ti/_IQNasin_acos.c ****     
 5676              		.loc 1 154 16 view .LVU2214
 5677 0060 0B44     		add	r3, r3, r1
 5678              	.LVL694:
 157:../Common/IQMath/ti/_IQNasin_acos.c ****     
 5679              		.loc 1 157 5 is_stmt 1 view .LVU2215
 5680              	.LBB510:
 5681              	.LBI510:
 233:../Common/IQMath/ti/./support/RTS_support.h **** {
 5682              		.loc 2 233 28 view .LVU2216
 5683              	.LBB511:
 5684              		.loc 2 235 5 view .LVU2217
 5685              		.loc 2 235 49 is_stmt 0 view .LVU2218
 5686 0062 D917     		asrs	r1, r3, #31
 5687              		.loc 2 235 47 view .LVU2219
ARM GAS  C:\Users\57308\AppData\Local\Temp\cc4OkGld.s 			page 140


 5688 0064 00FB01F1 		mul	r1, r0, r1
 5689 0068 03FB0C11 		mla	r1, r3, ip, r1
 5690 006c A0FB033E 		umull	r3, lr, r0, r3
 5691              	.LVL695:
 5692              		.loc 2 235 47 view .LVU2220
 5693 0070 7144     		add	r1, r1, lr
 5694              		.loc 2 235 69 view .LVU2221
 5695 0072 DB0F     		lsrs	r3, r3, #31
 5696 0074 43EA4103 		orr	r3, r3, r1, lsl #1
 5697              	.LVL696:
 5698              		.loc 2 235 69 view .LVU2222
 5699              	.LBE511:
 5700              	.LBE510:
 160:../Common/IQMath/ti/_IQNasin_acos.c ****     
 5701              		.loc 1 160 5 is_stmt 1 view .LVU2223
 160:../Common/IQMath/ti/_IQNasin_acos.c ****     
 5702              		.loc 1 160 31 is_stmt 0 view .LVU2224
 5703 0078 D168     		ldr	r1, [r2, #12]
 160:../Common/IQMath/ti/_IQNasin_acos.c ****     
 5704              		.loc 1 160 16 view .LVU2225
 5705 007a 0B44     		add	r3, r3, r1
 5706              	.LVL697:
 163:../Common/IQMath/ti/_IQNasin_acos.c ****     
 5707              		.loc 1 163 5 is_stmt 1 view .LVU2226
 5708              	.LBB512:
 5709              	.LBI512:
 233:../Common/IQMath/ti/./support/RTS_support.h **** {
 5710              		.loc 2 233 28 view .LVU2227
 5711              	.LBB513:
 5712              		.loc 2 235 5 view .LVU2228
 5713              		.loc 2 235 49 is_stmt 0 view .LVU2229
 5714 007c D917     		asrs	r1, r3, #31
 5715              		.loc 2 235 47 view .LVU2230
 5716 007e 00FB01F1 		mul	r1, r0, r1
 5717 0082 03FB0C11 		mla	r1, r3, ip, r1
 5718 0086 A0FB0303 		umull	r0, r3, r0, r3
 5719              	.LVL698:
 5720              		.loc 2 235 47 view .LVU2231
 5721 008a 0B44     		add	r3, r3, r1
 5722              		.loc 2 235 69 view .LVU2232
 5723 008c C00F     		lsrs	r0, r0, #31
 5724 008e 40EA4300 		orr	r0, r0, r3, lsl #1
 5725              	.LVL699:
 5726              		.loc 2 235 69 view .LVU2233
 5727              	.LBE513:
 5728              	.LBE512:
 166:../Common/IQMath/ti/_IQNasin_acos.c ****     
 5729              		.loc 1 166 5 is_stmt 1 view .LVU2234
 166:../Common/IQMath/ti/_IQNasin_acos.c ****     
 5730              		.loc 1 166 31 is_stmt 0 view .LVU2235
 5731 0092 1369     		ldr	r3, [r2, #16]
 166:../Common/IQMath/ti/_IQNasin_acos.c ****     
 5732              		.loc 1 166 16 view .LVU2236
 5733 0094 1844     		add	r0, r0, r3
 5734              	.LVL700:
 172:../Common/IQMath/ti/_IQNasin_acos.c ****     
 5735              		.loc 1 172 5 is_stmt 1 view .LVU2237
ARM GAS  C:\Users\57308\AppData\Local\Temp\cc4OkGld.s 			page 141


 172:../Common/IQMath/ti/_IQNasin_acos.c ****     
 5736              		.loc 1 172 5 is_stmt 0 view .LVU2238
 5737              	.LBE514:
 5738              	.LBE516:
  72:../Common/IQMath/ti/./support/RTS_support.h **** }
 5739              		.loc 2 72 5 is_stmt 1 view .LVU2239
 5740              	.LBB517:
 5741              	.LBB515:
 175:../Common/IQMath/ti/_IQNasin_acos.c ****         /* asin(x) = pi/2 - 2*iq29Result */
 5742              		.loc 1 175 5 view .LVU2240
 175:../Common/IQMath/ti/_IQNasin_acos.c ****         /* asin(x) = pi/2 - 2*iq29Result */
 5743              		.loc 1 175 8 is_stmt 0 view .LVU2241
 5744 0096 14F0020F 		tst	r4, #2
 5745 009a 02D0     		beq	.L245
 177:../Common/IQMath/ti/_IQNasin_acos.c ****         iq29Result -= iq29_halfPi;      // this is equivalent to the above
 5746              		.loc 1 177 9 is_stmt 1 view .LVU2242
 5747              	.LVL701:
 178:../Common/IQMath/ti/_IQNasin_acos.c ****         iq29Result = -iq29Result;       // but avoids using temporary registers
 5748              		.loc 1 178 9 view .LVU2243
 179:../Common/IQMath/ti/_IQNasin_acos.c ****     }
 5749              		.loc 1 179 9 view .LVU2244
 179:../Common/IQMath/ti/_IQNasin_acos.c ****     }
 5750              		.loc 1 179 20 is_stmt 0 view .LVU2245
 5751 009c 0A4B     		ldr	r3, .L251+4
 5752 009e A3EB4000 		sub	r0, r3, r0, lsl #1
 5753              	.LVL702:
 5754              	.L245:
 183:../Common/IQMath/ti/_IQNasin_acos.c ****     
 5755              		.loc 1 183 5 is_stmt 1 view .LVU2246
 183:../Common/IQMath/ti/_IQNasin_acos.c ****     
 5756              		.loc 1 183 16 is_stmt 0 view .LVU2247
 5757 00a2 0015     		asrs	r0, r0, #20
 5758              	.LVL703:
 186:../Common/IQMath/ti/_IQNasin_acos.c ****         iq29Result = -iq29Result;
 5759              		.loc 1 186 5 is_stmt 1 view .LVU2248
 186:../Common/IQMath/ti/_IQNasin_acos.c ****         iq29Result = -iq29Result;
 5760              		.loc 1 186 8 is_stmt 0 view .LVU2249
 5761 00a4 14F0010F 		tst	r4, #1
 5762 00a8 0BD0     		beq	.L241
 187:../Common/IQMath/ti/_IQNasin_acos.c ****     }
 5763              		.loc 1 187 9 is_stmt 1 view .LVU2250
 187:../Common/IQMath/ti/_IQNasin_acos.c ****     }
 5764              		.loc 1 187 20 is_stmt 0 view .LVU2251
 5765 00aa 4042     		rsbs	r0, r0, #0
 5766              	.LVL704:
 187:../Common/IQMath/ti/_IQNasin_acos.c ****     }
 5767              		.loc 1 187 20 view .LVU2252
 5768 00ac 09E0     		b	.L241
 5769              	.LVL705:
 5770              	.L249:
  90:../Common/IQMath/ti/_IQNasin_acos.c ****         iqNInput = -iqNInput;
 5771              		.loc 1 90 9 is_stmt 1 view .LVU2253
  91:../Common/IQMath/ti/_IQNasin_acos.c ****     }
 5772              		.loc 1 91 9 view .LVU2254
  91:../Common/IQMath/ti/_IQNasin_acos.c ****     }
 5773              		.loc 1 91 18 is_stmt 0 view .LVU2255
 5774 00ae 4042     		rsbs	r0, r0, #0
ARM GAS  C:\Users\57308\AppData\Local\Temp\cc4OkGld.s 			page 142


 5775              	.LVL706:
  90:../Common/IQMath/ti/_IQNasin_acos.c ****         iqNInput = -iqNInput;
 5776              		.loc 1 90 19 view .LVU2256
 5777 00b0 0124     		movs	r4, #1
 5778 00b2 A9E7     		b	.L242
 5779              	.LVL707:
 5780              	.L250:
 115:../Common/IQMath/ti/_IQNasin_acos.c ****         
 5781              		.loc 1 115 9 is_stmt 1 view .LVU2257
 118:../Common/IQMath/ti/_IQNasin_acos.c ****         
 5782              		.loc 1 118 9 view .LVU2258
 118:../Common/IQMath/ti/_IQNasin_acos.c ****         
 5783              		.loc 1 118 22 is_stmt 0 view .LVU2259
 5784 00b4 5808     		lsrs	r0, r3, #1
 5785              	.LVL708:
 118:../Common/IQMath/ti/_IQNasin_acos.c ****         
 5786              		.loc 1 118 22 view .LVU2260
 5787 00b6 FFF7FEFF 		bl	_IQ31sqrt
 5788              	.LVL709:
 121:../Common/IQMath/ti/_IQNasin_acos.c ****     }
 5789              		.loc 1 121 9 is_stmt 1 view .LVU2261
 121:../Common/IQMath/ti/_IQNasin_acos.c ****     }
 5790              		.loc 1 121 19 is_stmt 0 view .LVU2262
 5791 00ba 44F00204 		orr	r4, r4, #2
 5792              	.LVL710:
 121:../Common/IQMath/ti/_IQNasin_acos.c ****     }
 5793              		.loc 1 121 19 view .LVU2263
 5794 00be ACE7     		b	.L244
 5795              	.LVL711:
 5796              	.L247:
 100:../Common/IQMath/ti/_IQNasin_acos.c ****     }
 5797              		.loc 1 100 16 view .LVU2264
 5798 00c0 0020     		movs	r0, #0
 5799              	.LVL712:
 5800              	.L241:
 100:../Common/IQMath/ti/_IQNasin_acos.c ****     }
 5801              		.loc 1 100 16 view .LVU2265
 5802              	.LBE515:
 5803              	.LBE517:
 424:../Common/IQMath/ti/_IQNasin_acos.c **** }
 5804              		.loc 1 424 1 view .LVU2266
 5805 00c2 10BD     		pop	{r4, pc}
 5806              	.L252:
 5807              		.align	2
 5808              	.L251:
 5809 00c4 00000000 		.word	_IQ29Asin_coeffs
 5810 00c8 A8F64332 		.word	843314856
 5811              		.cfi_endproc
 5812              	.LFE282:
 5814              		.section	.text._IQ8asin,"ax",%progbits
 5815              		.align	1
 5816              		.global	_IQ8asin
 5817              		.syntax unified
 5818              		.thumb
 5819              		.thumb_func
 5821              	_IQ8asin:
 5822              	.LVL713:
ARM GAS  C:\Users\57308\AppData\Local\Temp\cc4OkGld.s 			page 143


 5823              	.LFB283:
 425:../Common/IQMath/ti/_IQNasin_acos.c **** /**
 426:../Common/IQMath/ti/_IQNasin_acos.c ****  * @brief Computes the inverse sine of the IQ8 input.
 427:../Common/IQMath/ti/_IQNasin_acos.c ****  *
 428:../Common/IQMath/ti/_IQNasin_acos.c ****  * @param a               IQ8 type input.
 429:../Common/IQMath/ti/_IQNasin_acos.c ****  *
 430:../Common/IQMath/ti/_IQNasin_acos.c ****  * @return                IQ8 type result of inverse sine.
 431:../Common/IQMath/ti/_IQNasin_acos.c ****  */
 432:../Common/IQMath/ti/_IQNasin_acos.c **** int32_t _IQ8asin(int32_t a)
 433:../Common/IQMath/ti/_IQNasin_acos.c **** {
 5824              		.loc 1 433 1 is_stmt 1 view -0
 5825              		.cfi_startproc
 5826              		@ args = 0, pretend = 0, frame = 0
 5827              		@ frame_needed = 0, uses_anonymous_args = 0
 5828              		.loc 1 433 1 is_stmt 0 view .LVU2268
 5829 0000 10B5     		push	{r4, lr}
 5830              	.LCFI21:
 5831              		.cfi_def_cfa_offset 8
 5832              		.cfi_offset 4, -8
 5833              		.cfi_offset 14, -4
 434:../Common/IQMath/ti/_IQNasin_acos.c ****     return __IQNasin(a, 8);
 5834              		.loc 1 434 5 is_stmt 1 view .LVU2269
 5835              	.LVL714:
 5836              	.LBB528:
 5837              	.LBI528:
  70:../Common/IQMath/ti/_IQNasin_acos.c **** {
 5838              		.loc 1 70 30 view .LVU2270
 5839              	.LBB529:
  72:../Common/IQMath/ti/_IQNasin_acos.c ****     uint_fast16_t index;
 5840              		.loc 1 72 5 view .LVU2271
  73:../Common/IQMath/ti/_IQNasin_acos.c ****     uint_fast16_t ui16IntState;
 5841              		.loc 1 73 5 view .LVU2272
  74:../Common/IQMath/ti/_IQNasin_acos.c ****     uint_fast16_t ui16MPYState;
 5842              		.loc 1 74 5 view .LVU2273
  75:../Common/IQMath/ti/_IQNasin_acos.c ****     int_fast32_t iq29Result;
 5843              		.loc 1 75 5 view .LVU2274
  76:../Common/IQMath/ti/_IQNasin_acos.c ****     const int_fast32_t *piq29Coeffs;
 5844              		.loc 1 76 5 view .LVU2275
  77:../Common/IQMath/ti/_IQNasin_acos.c ****     uint_fast32_t uiq31Input;
 5845              		.loc 1 77 5 view .LVU2276
  78:../Common/IQMath/ti/_IQNasin_acos.c ****     uint_fast32_t uiq31InputTemp;
 5846              		.loc 1 78 5 view .LVU2277
  79:../Common/IQMath/ti/_IQNasin_acos.c ****     
 5847              		.loc 1 79 5 view .LVU2278
  89:../Common/IQMath/ti/_IQNasin_acos.c ****         ui8Status |= 1;
 5848              		.loc 1 89 5 view .LVU2279
  89:../Common/IQMath/ti/_IQNasin_acos.c ****         ui8Status |= 1;
 5849              		.loc 1 89 8 is_stmt 0 view .LVU2280
 5850 0002 0028     		cmp	r0, #0
  89:../Common/IQMath/ti/_IQNasin_acos.c ****         ui8Status |= 1;
 5851              		.loc 1 89 8 view .LVU2281
 5852 0004 53DB     		blt	.L261
  72:../Common/IQMath/ti/_IQNasin_acos.c ****     uint_fast16_t index;
 5853              		.loc 1 72 13 view .LVU2282
 5854 0006 0024     		movs	r4, #0
 5855              	.LVL715:
 5856              	.L254:
ARM GAS  C:\Users\57308\AppData\Local\Temp\cc4OkGld.s 			page 144


  99:../Common/IQMath/ti/_IQNasin_acos.c ****         return 0;
 5857              		.loc 1 99 5 is_stmt 1 view .LVU2283
  99:../Common/IQMath/ti/_IQNasin_acos.c ****         return 0;
 5858              		.loc 1 99 8 is_stmt 0 view .LVU2284
 5859 0008 B0F5807F 		cmp	r0, #256
 5860 000c 58D8     		bhi	.L259
 104:../Common/IQMath/ti/_IQNasin_acos.c ****     
 5861              		.loc 1 104 5 is_stmt 1 view .LVU2285
 104:../Common/IQMath/ti/_IQNasin_acos.c ****     
 5862              		.loc 1 104 16 is_stmt 0 view .LVU2286
 5863 000e C005     		lsls	r0, r0, #23
 5864              	.LVL716:
 112:../Common/IQMath/ti/_IQNasin_acos.c ****     if (uiq31InputTemp < 0x40000000) {
 5865              		.loc 1 112 5 is_stmt 1 view .LVU2287
 112:../Common/IQMath/ti/_IQNasin_acos.c ****     if (uiq31InputTemp < 0x40000000) {
 5866              		.loc 1 112 20 is_stmt 0 view .LVU2288
 5867 0010 C0F10043 		rsb	r3, r0, #-2147483648
 5868              	.LVL717:
 113:../Common/IQMath/ti/_IQNasin_acos.c ****         /* Halve the result. */
 5869              		.loc 1 113 5 is_stmt 1 view .LVU2289
 113:../Common/IQMath/ti/_IQNasin_acos.c ****         /* Halve the result. */
 5870              		.loc 1 113 8 is_stmt 0 view .LVU2290
 5871 0014 B3F1804F 		cmp	r3, #1073741824
 5872 0018 4CD3     		bcc	.L262
 5873              	.LVL718:
 5874              	.L256:
 125:../Common/IQMath/ti/_IQNasin_acos.c ****     
 5875              		.loc 1 125 5 is_stmt 1 view .LVU2291
 125:../Common/IQMath/ti/_IQNasin_acos.c ****     
 5876              		.loc 1 125 11 is_stmt 0 view .LVU2292
 5877 001a 830E     		lsrs	r3, r0, #26
 5878              	.LVL719:
 128:../Common/IQMath/ti/_IQNasin_acos.c ****     
 5879              		.loc 1 128 5 is_stmt 1 view .LVU2293
 128:../Common/IQMath/ti/_IQNasin_acos.c ****     
 5880              		.loc 1 128 17 is_stmt 0 view .LVU2294
 5881 001c 03EB8303 		add	r3, r3, r3, lsl #2
 5882              	.LVL720:
 128:../Common/IQMath/ti/_IQNasin_acos.c ****     
 5883              		.loc 1 128 17 view .LVU2295
 5884 0020 2849     		ldr	r1, .L263
 5885 0022 01EB8302 		add	r2, r1, r3, lsl #2
 5886              	.LVL721:
 136:../Common/IQMath/ti/_IQNasin_acos.c ****     
 5887              		.loc 1 136 5 is_stmt 1 view .LVU2296
 136:../Common/IQMath/ti/_IQNasin_acos.c ****     
 5888              		.loc 1 136 5 is_stmt 0 view .LVU2297
 5889              	.LBE529:
 5890              	.LBE528:
  28:../Common/IQMath/ti/./support/RTS_support.h **** }
 5891              		.loc 2 28 5 is_stmt 1 view .LVU2298
 5892              	.LBB540:
 5893              	.LBB538:
 145:../Common/IQMath/ti/_IQNasin_acos.c ****     
 5894              		.loc 1 145 5 view .LVU2299
 145:../Common/IQMath/ti/_IQNasin_acos.c ****     
 5895              		.loc 1 145 18 is_stmt 0 view .LVU2300
ARM GAS  C:\Users\57308\AppData\Local\Temp\cc4OkGld.s 			page 145


 5896 0026 51F82330 		ldr	r3, [r1, r3, lsl #2]
 5897              	.LVL722:
 5898              	.LBB530:
 5899              	.LBI530:
 233:../Common/IQMath/ti/./support/RTS_support.h **** {
 5900              		.loc 2 233 28 is_stmt 1 view .LVU2301
 5901              	.LBB531:
 5902              		.loc 2 235 5 view .LVU2302
 5903              		.loc 2 235 28 is_stmt 0 view .LVU2303
 5904 002a 4FEAE07C 		asr	ip, r0, #31
 5905              		.loc 2 235 49 view .LVU2304
 5906 002e D917     		asrs	r1, r3, #31
 5907              		.loc 2 235 47 view .LVU2305
 5908 0030 00FB01F1 		mul	r1, r0, r1
 5909 0034 03FB0C11 		mla	r1, r3, ip, r1
 5910 0038 A0FB033E 		umull	r3, lr, r0, r3
 5911              	.LVL723:
 5912              		.loc 2 235 47 view .LVU2306
 5913 003c 7144     		add	r1, r1, lr
 5914              		.loc 2 235 69 view .LVU2307
 5915 003e DB0F     		lsrs	r3, r3, #31
 5916 0040 43EA4103 		orr	r3, r3, r1, lsl #1
 5917              	.LVL724:
 5918              		.loc 2 235 69 view .LVU2308
 5919              	.LBE531:
 5920              	.LBE530:
 148:../Common/IQMath/ti/_IQNasin_acos.c ****     
 5921              		.loc 1 148 5 is_stmt 1 view .LVU2309
 148:../Common/IQMath/ti/_IQNasin_acos.c ****     
 5922              		.loc 1 148 31 is_stmt 0 view .LVU2310
 5923 0044 5168     		ldr	r1, [r2, #4]
 148:../Common/IQMath/ti/_IQNasin_acos.c ****     
 5924              		.loc 1 148 16 view .LVU2311
 5925 0046 0B44     		add	r3, r3, r1
 5926              	.LVL725:
 151:../Common/IQMath/ti/_IQNasin_acos.c ****     
 5927              		.loc 1 151 5 is_stmt 1 view .LVU2312
 5928              	.LBB532:
 5929              	.LBI532:
 233:../Common/IQMath/ti/./support/RTS_support.h **** {
 5930              		.loc 2 233 28 view .LVU2313
 5931              	.LBB533:
 5932              		.loc 2 235 5 view .LVU2314
 5933              		.loc 2 235 49 is_stmt 0 view .LVU2315
 5934 0048 D917     		asrs	r1, r3, #31
 5935              		.loc 2 235 47 view .LVU2316
 5936 004a 00FB01F1 		mul	r1, r0, r1
 5937 004e 03FB0C11 		mla	r1, r3, ip, r1
 5938 0052 A0FB033E 		umull	r3, lr, r0, r3
 5939              	.LVL726:
 5940              		.loc 2 235 47 view .LVU2317
 5941 0056 7144     		add	r1, r1, lr
 5942              		.loc 2 235 69 view .LVU2318
 5943 0058 DB0F     		lsrs	r3, r3, #31
 5944 005a 43EA4103 		orr	r3, r3, r1, lsl #1
 5945              	.LVL727:
 5946              		.loc 2 235 69 view .LVU2319
ARM GAS  C:\Users\57308\AppData\Local\Temp\cc4OkGld.s 			page 146


 5947              	.LBE533:
 5948              	.LBE532:
 154:../Common/IQMath/ti/_IQNasin_acos.c ****     
 5949              		.loc 1 154 5 is_stmt 1 view .LVU2320
 154:../Common/IQMath/ti/_IQNasin_acos.c ****     
 5950              		.loc 1 154 31 is_stmt 0 view .LVU2321
 5951 005e 9168     		ldr	r1, [r2, #8]
 154:../Common/IQMath/ti/_IQNasin_acos.c ****     
 5952              		.loc 1 154 16 view .LVU2322
 5953 0060 0B44     		add	r3, r3, r1
 5954              	.LVL728:
 157:../Common/IQMath/ti/_IQNasin_acos.c ****     
 5955              		.loc 1 157 5 is_stmt 1 view .LVU2323
 5956              	.LBB534:
 5957              	.LBI534:
 233:../Common/IQMath/ti/./support/RTS_support.h **** {
 5958              		.loc 2 233 28 view .LVU2324
 5959              	.LBB535:
 5960              		.loc 2 235 5 view .LVU2325
 5961              		.loc 2 235 49 is_stmt 0 view .LVU2326
 5962 0062 D917     		asrs	r1, r3, #31
 5963              		.loc 2 235 47 view .LVU2327
 5964 0064 00FB01F1 		mul	r1, r0, r1
 5965 0068 03FB0C11 		mla	r1, r3, ip, r1
 5966 006c A0FB033E 		umull	r3, lr, r0, r3
 5967              	.LVL729:
 5968              		.loc 2 235 47 view .LVU2328
 5969 0070 7144     		add	r1, r1, lr
 5970              		.loc 2 235 69 view .LVU2329
 5971 0072 DB0F     		lsrs	r3, r3, #31
 5972 0074 43EA4103 		orr	r3, r3, r1, lsl #1
 5973              	.LVL730:
 5974              		.loc 2 235 69 view .LVU2330
 5975              	.LBE535:
 5976              	.LBE534:
 160:../Common/IQMath/ti/_IQNasin_acos.c ****     
 5977              		.loc 1 160 5 is_stmt 1 view .LVU2331
 160:../Common/IQMath/ti/_IQNasin_acos.c ****     
 5978              		.loc 1 160 31 is_stmt 0 view .LVU2332
 5979 0078 D168     		ldr	r1, [r2, #12]
 160:../Common/IQMath/ti/_IQNasin_acos.c ****     
 5980              		.loc 1 160 16 view .LVU2333
 5981 007a 0B44     		add	r3, r3, r1
 5982              	.LVL731:
 163:../Common/IQMath/ti/_IQNasin_acos.c ****     
 5983              		.loc 1 163 5 is_stmt 1 view .LVU2334
 5984              	.LBB536:
 5985              	.LBI536:
 233:../Common/IQMath/ti/./support/RTS_support.h **** {
 5986              		.loc 2 233 28 view .LVU2335
 5987              	.LBB537:
 5988              		.loc 2 235 5 view .LVU2336
 5989              		.loc 2 235 49 is_stmt 0 view .LVU2337
 5990 007c D917     		asrs	r1, r3, #31
 5991              		.loc 2 235 47 view .LVU2338
 5992 007e 00FB01F1 		mul	r1, r0, r1
 5993 0082 03FB0C11 		mla	r1, r3, ip, r1
ARM GAS  C:\Users\57308\AppData\Local\Temp\cc4OkGld.s 			page 147


 5994 0086 A0FB0303 		umull	r0, r3, r0, r3
 5995              	.LVL732:
 5996              		.loc 2 235 47 view .LVU2339
 5997 008a 0B44     		add	r3, r3, r1
 5998              		.loc 2 235 69 view .LVU2340
 5999 008c C00F     		lsrs	r0, r0, #31
 6000 008e 40EA4300 		orr	r0, r0, r3, lsl #1
 6001              	.LVL733:
 6002              		.loc 2 235 69 view .LVU2341
 6003              	.LBE537:
 6004              	.LBE536:
 166:../Common/IQMath/ti/_IQNasin_acos.c ****     
 6005              		.loc 1 166 5 is_stmt 1 view .LVU2342
 166:../Common/IQMath/ti/_IQNasin_acos.c ****     
 6006              		.loc 1 166 31 is_stmt 0 view .LVU2343
 6007 0092 1369     		ldr	r3, [r2, #16]
 166:../Common/IQMath/ti/_IQNasin_acos.c ****     
 6008              		.loc 1 166 16 view .LVU2344
 6009 0094 1844     		add	r0, r0, r3
 6010              	.LVL734:
 172:../Common/IQMath/ti/_IQNasin_acos.c ****     
 6011              		.loc 1 172 5 is_stmt 1 view .LVU2345
 172:../Common/IQMath/ti/_IQNasin_acos.c ****     
 6012              		.loc 1 172 5 is_stmt 0 view .LVU2346
 6013              	.LBE538:
 6014              	.LBE540:
  72:../Common/IQMath/ti/./support/RTS_support.h **** }
 6015              		.loc 2 72 5 is_stmt 1 view .LVU2347
 6016              	.LBB541:
 6017              	.LBB539:
 175:../Common/IQMath/ti/_IQNasin_acos.c ****         /* asin(x) = pi/2 - 2*iq29Result */
 6018              		.loc 1 175 5 view .LVU2348
 175:../Common/IQMath/ti/_IQNasin_acos.c ****         /* asin(x) = pi/2 - 2*iq29Result */
 6019              		.loc 1 175 8 is_stmt 0 view .LVU2349
 6020 0096 14F0020F 		tst	r4, #2
 6021 009a 02D0     		beq	.L257
 177:../Common/IQMath/ti/_IQNasin_acos.c ****         iq29Result -= iq29_halfPi;      // this is equivalent to the above
 6022              		.loc 1 177 9 is_stmt 1 view .LVU2350
 6023              	.LVL735:
 178:../Common/IQMath/ti/_IQNasin_acos.c ****         iq29Result = -iq29Result;       // but avoids using temporary registers
 6024              		.loc 1 178 9 view .LVU2351
 179:../Common/IQMath/ti/_IQNasin_acos.c ****     }
 6025              		.loc 1 179 9 view .LVU2352
 179:../Common/IQMath/ti/_IQNasin_acos.c ****     }
 6026              		.loc 1 179 20 is_stmt 0 view .LVU2353
 6027 009c 0A4B     		ldr	r3, .L263+4
 6028 009e A3EB4000 		sub	r0, r3, r0, lsl #1
 6029              	.LVL736:
 6030              	.L257:
 183:../Common/IQMath/ti/_IQNasin_acos.c ****     
 6031              		.loc 1 183 5 is_stmt 1 view .LVU2354
 183:../Common/IQMath/ti/_IQNasin_acos.c ****     
 6032              		.loc 1 183 16 is_stmt 0 view .LVU2355
 6033 00a2 4015     		asrs	r0, r0, #21
 6034              	.LVL737:
 186:../Common/IQMath/ti/_IQNasin_acos.c ****         iq29Result = -iq29Result;
 6035              		.loc 1 186 5 is_stmt 1 view .LVU2356
ARM GAS  C:\Users\57308\AppData\Local\Temp\cc4OkGld.s 			page 148


 186:../Common/IQMath/ti/_IQNasin_acos.c ****         iq29Result = -iq29Result;
 6036              		.loc 1 186 8 is_stmt 0 view .LVU2357
 6037 00a4 14F0010F 		tst	r4, #1
 6038 00a8 0BD0     		beq	.L253
 187:../Common/IQMath/ti/_IQNasin_acos.c ****     }
 6039              		.loc 1 187 9 is_stmt 1 view .LVU2358
 187:../Common/IQMath/ti/_IQNasin_acos.c ****     }
 6040              		.loc 1 187 20 is_stmt 0 view .LVU2359
 6041 00aa 4042     		rsbs	r0, r0, #0
 6042              	.LVL738:
 187:../Common/IQMath/ti/_IQNasin_acos.c ****     }
 6043              		.loc 1 187 20 view .LVU2360
 6044 00ac 09E0     		b	.L253
 6045              	.LVL739:
 6046              	.L261:
  90:../Common/IQMath/ti/_IQNasin_acos.c ****         iqNInput = -iqNInput;
 6047              		.loc 1 90 9 is_stmt 1 view .LVU2361
  91:../Common/IQMath/ti/_IQNasin_acos.c ****     }
 6048              		.loc 1 91 9 view .LVU2362
  91:../Common/IQMath/ti/_IQNasin_acos.c ****     }
 6049              		.loc 1 91 18 is_stmt 0 view .LVU2363
 6050 00ae 4042     		rsbs	r0, r0, #0
 6051              	.LVL740:
  90:../Common/IQMath/ti/_IQNasin_acos.c ****         iqNInput = -iqNInput;
 6052              		.loc 1 90 19 view .LVU2364
 6053 00b0 0124     		movs	r4, #1
 6054 00b2 A9E7     		b	.L254
 6055              	.LVL741:
 6056              	.L262:
 115:../Common/IQMath/ti/_IQNasin_acos.c ****         
 6057              		.loc 1 115 9 is_stmt 1 view .LVU2365
 118:../Common/IQMath/ti/_IQNasin_acos.c ****         
 6058              		.loc 1 118 9 view .LVU2366
 118:../Common/IQMath/ti/_IQNasin_acos.c ****         
 6059              		.loc 1 118 22 is_stmt 0 view .LVU2367
 6060 00b4 5808     		lsrs	r0, r3, #1
 6061              	.LVL742:
 118:../Common/IQMath/ti/_IQNasin_acos.c ****         
 6062              		.loc 1 118 22 view .LVU2368
 6063 00b6 FFF7FEFF 		bl	_IQ31sqrt
 6064              	.LVL743:
 121:../Common/IQMath/ti/_IQNasin_acos.c ****     }
 6065              		.loc 1 121 9 is_stmt 1 view .LVU2369
 121:../Common/IQMath/ti/_IQNasin_acos.c ****     }
 6066              		.loc 1 121 19 is_stmt 0 view .LVU2370
 6067 00ba 44F00204 		orr	r4, r4, #2
 6068              	.LVL744:
 121:../Common/IQMath/ti/_IQNasin_acos.c ****     }
 6069              		.loc 1 121 19 view .LVU2371
 6070 00be ACE7     		b	.L256
 6071              	.LVL745:
 6072              	.L259:
 100:../Common/IQMath/ti/_IQNasin_acos.c ****     }
 6073              		.loc 1 100 16 view .LVU2372
 6074 00c0 0020     		movs	r0, #0
 6075              	.LVL746:
 6076              	.L253:
ARM GAS  C:\Users\57308\AppData\Local\Temp\cc4OkGld.s 			page 149


 100:../Common/IQMath/ti/_IQNasin_acos.c ****     }
 6077              		.loc 1 100 16 view .LVU2373
 6078              	.LBE539:
 6079              	.LBE541:
 435:../Common/IQMath/ti/_IQNasin_acos.c **** }
 6080              		.loc 1 435 1 view .LVU2374
 6081 00c2 10BD     		pop	{r4, pc}
 6082              	.L264:
 6083              		.align	2
 6084              	.L263:
 6085 00c4 00000000 		.word	_IQ29Asin_coeffs
 6086 00c8 A8F64332 		.word	843314856
 6087              		.cfi_endproc
 6088              	.LFE283:
 6090              		.section	.text._IQ7asin,"ax",%progbits
 6091              		.align	1
 6092              		.global	_IQ7asin
 6093              		.syntax unified
 6094              		.thumb
 6095              		.thumb_func
 6097              	_IQ7asin:
 6098              	.LVL747:
 6099              	.LFB284:
 436:../Common/IQMath/ti/_IQNasin_acos.c **** /**
 437:../Common/IQMath/ti/_IQNasin_acos.c ****  * @brief Computes the inverse sine of the IQ7 input.
 438:../Common/IQMath/ti/_IQNasin_acos.c ****  *
 439:../Common/IQMath/ti/_IQNasin_acos.c ****  * @param a               IQ7 type input.
 440:../Common/IQMath/ti/_IQNasin_acos.c ****  *
 441:../Common/IQMath/ti/_IQNasin_acos.c ****  * @return                IQ7 type result of inverse sine.
 442:../Common/IQMath/ti/_IQNasin_acos.c ****  */
 443:../Common/IQMath/ti/_IQNasin_acos.c **** int32_t _IQ7asin(int32_t a)
 444:../Common/IQMath/ti/_IQNasin_acos.c **** {
 6100              		.loc 1 444 1 is_stmt 1 view -0
 6101              		.cfi_startproc
 6102              		@ args = 0, pretend = 0, frame = 0
 6103              		@ frame_needed = 0, uses_anonymous_args = 0
 6104              		.loc 1 444 1 is_stmt 0 view .LVU2376
 6105 0000 10B5     		push	{r4, lr}
 6106              	.LCFI22:
 6107              		.cfi_def_cfa_offset 8
 6108              		.cfi_offset 4, -8
 6109              		.cfi_offset 14, -4
 445:../Common/IQMath/ti/_IQNasin_acos.c ****     return __IQNasin(a, 7);
 6110              		.loc 1 445 5 is_stmt 1 view .LVU2377
 6111              	.LVL748:
 6112              	.LBB552:
 6113              	.LBI552:
  70:../Common/IQMath/ti/_IQNasin_acos.c **** {
 6114              		.loc 1 70 30 view .LVU2378
 6115              	.LBB553:
  72:../Common/IQMath/ti/_IQNasin_acos.c ****     uint_fast16_t index;
 6116              		.loc 1 72 5 view .LVU2379
  73:../Common/IQMath/ti/_IQNasin_acos.c ****     uint_fast16_t ui16IntState;
 6117              		.loc 1 73 5 view .LVU2380
  74:../Common/IQMath/ti/_IQNasin_acos.c ****     uint_fast16_t ui16MPYState;
 6118              		.loc 1 74 5 view .LVU2381
  75:../Common/IQMath/ti/_IQNasin_acos.c ****     int_fast32_t iq29Result;
ARM GAS  C:\Users\57308\AppData\Local\Temp\cc4OkGld.s 			page 150


 6119              		.loc 1 75 5 view .LVU2382
  76:../Common/IQMath/ti/_IQNasin_acos.c ****     const int_fast32_t *piq29Coeffs;
 6120              		.loc 1 76 5 view .LVU2383
  77:../Common/IQMath/ti/_IQNasin_acos.c ****     uint_fast32_t uiq31Input;
 6121              		.loc 1 77 5 view .LVU2384
  78:../Common/IQMath/ti/_IQNasin_acos.c ****     uint_fast32_t uiq31InputTemp;
 6122              		.loc 1 78 5 view .LVU2385
  79:../Common/IQMath/ti/_IQNasin_acos.c ****     
 6123              		.loc 1 79 5 view .LVU2386
  89:../Common/IQMath/ti/_IQNasin_acos.c ****         ui8Status |= 1;
 6124              		.loc 1 89 5 view .LVU2387
  89:../Common/IQMath/ti/_IQNasin_acos.c ****         ui8Status |= 1;
 6125              		.loc 1 89 8 is_stmt 0 view .LVU2388
 6126 0002 0028     		cmp	r0, #0
  89:../Common/IQMath/ti/_IQNasin_acos.c ****         ui8Status |= 1;
 6127              		.loc 1 89 8 view .LVU2389
 6128 0004 52DB     		blt	.L273
  72:../Common/IQMath/ti/_IQNasin_acos.c ****     uint_fast16_t index;
 6129              		.loc 1 72 13 view .LVU2390
 6130 0006 0024     		movs	r4, #0
 6131              	.LVL749:
 6132              	.L266:
  99:../Common/IQMath/ti/_IQNasin_acos.c ****         return 0;
 6133              		.loc 1 99 5 is_stmt 1 view .LVU2391
  99:../Common/IQMath/ti/_IQNasin_acos.c ****         return 0;
 6134              		.loc 1 99 8 is_stmt 0 view .LVU2392
 6135 0008 8028     		cmp	r0, #128
 6136 000a 58D8     		bhi	.L271
 104:../Common/IQMath/ti/_IQNasin_acos.c ****     
 6137              		.loc 1 104 5 is_stmt 1 view .LVU2393
 104:../Common/IQMath/ti/_IQNasin_acos.c ****     
 6138              		.loc 1 104 16 is_stmt 0 view .LVU2394
 6139 000c 0006     		lsls	r0, r0, #24
 6140              	.LVL750:
 112:../Common/IQMath/ti/_IQNasin_acos.c ****     if (uiq31InputTemp < 0x40000000) {
 6141              		.loc 1 112 5 is_stmt 1 view .LVU2395
 112:../Common/IQMath/ti/_IQNasin_acos.c ****     if (uiq31InputTemp < 0x40000000) {
 6142              		.loc 1 112 20 is_stmt 0 view .LVU2396
 6143 000e C0F10043 		rsb	r3, r0, #-2147483648
 6144              	.LVL751:
 113:../Common/IQMath/ti/_IQNasin_acos.c ****         /* Halve the result. */
 6145              		.loc 1 113 5 is_stmt 1 view .LVU2397
 113:../Common/IQMath/ti/_IQNasin_acos.c ****         /* Halve the result. */
 6146              		.loc 1 113 8 is_stmt 0 view .LVU2398
 6147 0012 B3F1804F 		cmp	r3, #1073741824
 6148 0016 4CD3     		bcc	.L274
 6149              	.LVL752:
 6150              	.L268:
 125:../Common/IQMath/ti/_IQNasin_acos.c ****     
 6151              		.loc 1 125 5 is_stmt 1 view .LVU2399
 125:../Common/IQMath/ti/_IQNasin_acos.c ****     
 6152              		.loc 1 125 11 is_stmt 0 view .LVU2400
 6153 0018 830E     		lsrs	r3, r0, #26
 6154              	.LVL753:
 128:../Common/IQMath/ti/_IQNasin_acos.c ****     
 6155              		.loc 1 128 5 is_stmt 1 view .LVU2401
 128:../Common/IQMath/ti/_IQNasin_acos.c ****     
ARM GAS  C:\Users\57308\AppData\Local\Temp\cc4OkGld.s 			page 151


 6156              		.loc 1 128 17 is_stmt 0 view .LVU2402
 6157 001a 03EB8303 		add	r3, r3, r3, lsl #2
 6158              	.LVL754:
 128:../Common/IQMath/ti/_IQNasin_acos.c ****     
 6159              		.loc 1 128 17 view .LVU2403
 6160 001e 2949     		ldr	r1, .L275
 6161 0020 01EB8302 		add	r2, r1, r3, lsl #2
 6162              	.LVL755:
 136:../Common/IQMath/ti/_IQNasin_acos.c ****     
 6163              		.loc 1 136 5 is_stmt 1 view .LVU2404
 136:../Common/IQMath/ti/_IQNasin_acos.c ****     
 6164              		.loc 1 136 5 is_stmt 0 view .LVU2405
 6165              	.LBE553:
 6166              	.LBE552:
  28:../Common/IQMath/ti/./support/RTS_support.h **** }
 6167              		.loc 2 28 5 is_stmt 1 view .LVU2406
 6168              	.LBB564:
 6169              	.LBB562:
 145:../Common/IQMath/ti/_IQNasin_acos.c ****     
 6170              		.loc 1 145 5 view .LVU2407
 145:../Common/IQMath/ti/_IQNasin_acos.c ****     
 6171              		.loc 1 145 18 is_stmt 0 view .LVU2408
 6172 0024 51F82330 		ldr	r3, [r1, r3, lsl #2]
 6173              	.LVL756:
 6174              	.LBB554:
 6175              	.LBI554:
 233:../Common/IQMath/ti/./support/RTS_support.h **** {
 6176              		.loc 2 233 28 is_stmt 1 view .LVU2409
 6177              	.LBB555:
 6178              		.loc 2 235 5 view .LVU2410
 6179              		.loc 2 235 28 is_stmt 0 view .LVU2411
 6180 0028 4FEAE07C 		asr	ip, r0, #31
 6181              		.loc 2 235 49 view .LVU2412
 6182 002c D917     		asrs	r1, r3, #31
 6183              		.loc 2 235 47 view .LVU2413
 6184 002e 00FB01F1 		mul	r1, r0, r1
 6185 0032 03FB0C11 		mla	r1, r3, ip, r1
 6186 0036 A0FB033E 		umull	r3, lr, r0, r3
 6187              	.LVL757:
 6188              		.loc 2 235 47 view .LVU2414
 6189 003a 7144     		add	r1, r1, lr
 6190              		.loc 2 235 69 view .LVU2415
 6191 003c DB0F     		lsrs	r3, r3, #31
 6192 003e 43EA4103 		orr	r3, r3, r1, lsl #1
 6193              	.LVL758:
 6194              		.loc 2 235 69 view .LVU2416
 6195              	.LBE555:
 6196              	.LBE554:
 148:../Common/IQMath/ti/_IQNasin_acos.c ****     
 6197              		.loc 1 148 5 is_stmt 1 view .LVU2417
 148:../Common/IQMath/ti/_IQNasin_acos.c ****     
 6198              		.loc 1 148 31 is_stmt 0 view .LVU2418
 6199 0042 5168     		ldr	r1, [r2, #4]
 148:../Common/IQMath/ti/_IQNasin_acos.c ****     
 6200              		.loc 1 148 16 view .LVU2419
 6201 0044 0B44     		add	r3, r3, r1
 6202              	.LVL759:
ARM GAS  C:\Users\57308\AppData\Local\Temp\cc4OkGld.s 			page 152


 151:../Common/IQMath/ti/_IQNasin_acos.c ****     
 6203              		.loc 1 151 5 is_stmt 1 view .LVU2420
 6204              	.LBB556:
 6205              	.LBI556:
 233:../Common/IQMath/ti/./support/RTS_support.h **** {
 6206              		.loc 2 233 28 view .LVU2421
 6207              	.LBB557:
 6208              		.loc 2 235 5 view .LVU2422
 6209              		.loc 2 235 49 is_stmt 0 view .LVU2423
 6210 0046 D917     		asrs	r1, r3, #31
 6211              		.loc 2 235 47 view .LVU2424
 6212 0048 00FB01F1 		mul	r1, r0, r1
 6213 004c 03FB0C11 		mla	r1, r3, ip, r1
 6214 0050 A0FB033E 		umull	r3, lr, r0, r3
 6215              	.LVL760:
 6216              		.loc 2 235 47 view .LVU2425
 6217 0054 7144     		add	r1, r1, lr
 6218              		.loc 2 235 69 view .LVU2426
 6219 0056 DB0F     		lsrs	r3, r3, #31
 6220 0058 43EA4103 		orr	r3, r3, r1, lsl #1
 6221              	.LVL761:
 6222              		.loc 2 235 69 view .LVU2427
 6223              	.LBE557:
 6224              	.LBE556:
 154:../Common/IQMath/ti/_IQNasin_acos.c ****     
 6225              		.loc 1 154 5 is_stmt 1 view .LVU2428
 154:../Common/IQMath/ti/_IQNasin_acos.c ****     
 6226              		.loc 1 154 31 is_stmt 0 view .LVU2429
 6227 005c 9168     		ldr	r1, [r2, #8]
 154:../Common/IQMath/ti/_IQNasin_acos.c ****     
 6228              		.loc 1 154 16 view .LVU2430
 6229 005e 0B44     		add	r3, r3, r1
 6230              	.LVL762:
 157:../Common/IQMath/ti/_IQNasin_acos.c ****     
 6231              		.loc 1 157 5 is_stmt 1 view .LVU2431
 6232              	.LBB558:
 6233              	.LBI558:
 233:../Common/IQMath/ti/./support/RTS_support.h **** {
 6234              		.loc 2 233 28 view .LVU2432
 6235              	.LBB559:
 6236              		.loc 2 235 5 view .LVU2433
 6237              		.loc 2 235 49 is_stmt 0 view .LVU2434
 6238 0060 D917     		asrs	r1, r3, #31
 6239              		.loc 2 235 47 view .LVU2435
 6240 0062 00FB01F1 		mul	r1, r0, r1
 6241 0066 03FB0C11 		mla	r1, r3, ip, r1
 6242 006a A0FB033E 		umull	r3, lr, r0, r3
 6243              	.LVL763:
 6244              		.loc 2 235 47 view .LVU2436
 6245 006e 7144     		add	r1, r1, lr
 6246              		.loc 2 235 69 view .LVU2437
 6247 0070 DB0F     		lsrs	r3, r3, #31
 6248 0072 43EA4103 		orr	r3, r3, r1, lsl #1
 6249              	.LVL764:
 6250              		.loc 2 235 69 view .LVU2438
 6251              	.LBE559:
 6252              	.LBE558:
ARM GAS  C:\Users\57308\AppData\Local\Temp\cc4OkGld.s 			page 153


 160:../Common/IQMath/ti/_IQNasin_acos.c ****     
 6253              		.loc 1 160 5 is_stmt 1 view .LVU2439
 160:../Common/IQMath/ti/_IQNasin_acos.c ****     
 6254              		.loc 1 160 31 is_stmt 0 view .LVU2440
 6255 0076 D168     		ldr	r1, [r2, #12]
 160:../Common/IQMath/ti/_IQNasin_acos.c ****     
 6256              		.loc 1 160 16 view .LVU2441
 6257 0078 0B44     		add	r3, r3, r1
 6258              	.LVL765:
 163:../Common/IQMath/ti/_IQNasin_acos.c ****     
 6259              		.loc 1 163 5 is_stmt 1 view .LVU2442
 6260              	.LBB560:
 6261              	.LBI560:
 233:../Common/IQMath/ti/./support/RTS_support.h **** {
 6262              		.loc 2 233 28 view .LVU2443
 6263              	.LBB561:
 6264              		.loc 2 235 5 view .LVU2444
 6265              		.loc 2 235 49 is_stmt 0 view .LVU2445
 6266 007a D917     		asrs	r1, r3, #31
 6267              		.loc 2 235 47 view .LVU2446
 6268 007c 00FB01F1 		mul	r1, r0, r1
 6269 0080 03FB0C11 		mla	r1, r3, ip, r1
 6270 0084 A0FB0303 		umull	r0, r3, r0, r3
 6271              	.LVL766:
 6272              		.loc 2 235 47 view .LVU2447
 6273 0088 0B44     		add	r3, r3, r1
 6274              		.loc 2 235 69 view .LVU2448
 6275 008a C00F     		lsrs	r0, r0, #31
 6276 008c 40EA4300 		orr	r0, r0, r3, lsl #1
 6277              	.LVL767:
 6278              		.loc 2 235 69 view .LVU2449
 6279              	.LBE561:
 6280              	.LBE560:
 166:../Common/IQMath/ti/_IQNasin_acos.c ****     
 6281              		.loc 1 166 5 is_stmt 1 view .LVU2450
 166:../Common/IQMath/ti/_IQNasin_acos.c ****     
 6282              		.loc 1 166 31 is_stmt 0 view .LVU2451
 6283 0090 1369     		ldr	r3, [r2, #16]
 166:../Common/IQMath/ti/_IQNasin_acos.c ****     
 6284              		.loc 1 166 16 view .LVU2452
 6285 0092 1844     		add	r0, r0, r3
 6286              	.LVL768:
 172:../Common/IQMath/ti/_IQNasin_acos.c ****     
 6287              		.loc 1 172 5 is_stmt 1 view .LVU2453
 172:../Common/IQMath/ti/_IQNasin_acos.c ****     
 6288              		.loc 1 172 5 is_stmt 0 view .LVU2454
 6289              	.LBE562:
 6290              	.LBE564:
  72:../Common/IQMath/ti/./support/RTS_support.h **** }
 6291              		.loc 2 72 5 is_stmt 1 view .LVU2455
 6292              	.LBB565:
 6293              	.LBB563:
 175:../Common/IQMath/ti/_IQNasin_acos.c ****         /* asin(x) = pi/2 - 2*iq29Result */
 6294              		.loc 1 175 5 view .LVU2456
 175:../Common/IQMath/ti/_IQNasin_acos.c ****         /* asin(x) = pi/2 - 2*iq29Result */
 6295              		.loc 1 175 8 is_stmt 0 view .LVU2457
 6296 0094 14F0020F 		tst	r4, #2
ARM GAS  C:\Users\57308\AppData\Local\Temp\cc4OkGld.s 			page 154


 6297 0098 02D0     		beq	.L269
 177:../Common/IQMath/ti/_IQNasin_acos.c ****         iq29Result -= iq29_halfPi;      // this is equivalent to the above
 6298              		.loc 1 177 9 is_stmt 1 view .LVU2458
 6299              	.LVL769:
 178:../Common/IQMath/ti/_IQNasin_acos.c ****         iq29Result = -iq29Result;       // but avoids using temporary registers
 6300              		.loc 1 178 9 view .LVU2459
 179:../Common/IQMath/ti/_IQNasin_acos.c ****     }
 6301              		.loc 1 179 9 view .LVU2460
 179:../Common/IQMath/ti/_IQNasin_acos.c ****     }
 6302              		.loc 1 179 20 is_stmt 0 view .LVU2461
 6303 009a 0B4B     		ldr	r3, .L275+4
 6304 009c A3EB4000 		sub	r0, r3, r0, lsl #1
 6305              	.LVL770:
 6306              	.L269:
 183:../Common/IQMath/ti/_IQNasin_acos.c ****     
 6307              		.loc 1 183 5 is_stmt 1 view .LVU2462
 183:../Common/IQMath/ti/_IQNasin_acos.c ****     
 6308              		.loc 1 183 16 is_stmt 0 view .LVU2463
 6309 00a0 8015     		asrs	r0, r0, #22
 6310              	.LVL771:
 186:../Common/IQMath/ti/_IQNasin_acos.c ****         iq29Result = -iq29Result;
 6311              		.loc 1 186 5 is_stmt 1 view .LVU2464
 186:../Common/IQMath/ti/_IQNasin_acos.c ****         iq29Result = -iq29Result;
 6312              		.loc 1 186 8 is_stmt 0 view .LVU2465
 6313 00a2 14F0010F 		tst	r4, #1
 6314 00a6 0BD0     		beq	.L265
 187:../Common/IQMath/ti/_IQNasin_acos.c ****     }
 6315              		.loc 1 187 9 is_stmt 1 view .LVU2466
 187:../Common/IQMath/ti/_IQNasin_acos.c ****     }
 6316              		.loc 1 187 20 is_stmt 0 view .LVU2467
 6317 00a8 4042     		rsbs	r0, r0, #0
 6318              	.LVL772:
 187:../Common/IQMath/ti/_IQNasin_acos.c ****     }
 6319              		.loc 1 187 20 view .LVU2468
 6320 00aa 09E0     		b	.L265
 6321              	.LVL773:
 6322              	.L273:
  90:../Common/IQMath/ti/_IQNasin_acos.c ****         iqNInput = -iqNInput;
 6323              		.loc 1 90 9 is_stmt 1 view .LVU2469
  91:../Common/IQMath/ti/_IQNasin_acos.c ****     }
 6324              		.loc 1 91 9 view .LVU2470
  91:../Common/IQMath/ti/_IQNasin_acos.c ****     }
 6325              		.loc 1 91 18 is_stmt 0 view .LVU2471
 6326 00ac 4042     		rsbs	r0, r0, #0
 6327              	.LVL774:
  90:../Common/IQMath/ti/_IQNasin_acos.c ****         iqNInput = -iqNInput;
 6328              		.loc 1 90 19 view .LVU2472
 6329 00ae 0124     		movs	r4, #1
 6330 00b0 AAE7     		b	.L266
 6331              	.LVL775:
 6332              	.L274:
 115:../Common/IQMath/ti/_IQNasin_acos.c ****         
 6333              		.loc 1 115 9 is_stmt 1 view .LVU2473
 118:../Common/IQMath/ti/_IQNasin_acos.c ****         
 6334              		.loc 1 118 9 view .LVU2474
 118:../Common/IQMath/ti/_IQNasin_acos.c ****         
 6335              		.loc 1 118 22 is_stmt 0 view .LVU2475
ARM GAS  C:\Users\57308\AppData\Local\Temp\cc4OkGld.s 			page 155


 6336 00b2 5808     		lsrs	r0, r3, #1
 6337              	.LVL776:
 118:../Common/IQMath/ti/_IQNasin_acos.c ****         
 6338              		.loc 1 118 22 view .LVU2476
 6339 00b4 FFF7FEFF 		bl	_IQ31sqrt
 6340              	.LVL777:
 121:../Common/IQMath/ti/_IQNasin_acos.c ****     }
 6341              		.loc 1 121 9 is_stmt 1 view .LVU2477
 121:../Common/IQMath/ti/_IQNasin_acos.c ****     }
 6342              		.loc 1 121 19 is_stmt 0 view .LVU2478
 6343 00b8 44F00204 		orr	r4, r4, #2
 6344              	.LVL778:
 121:../Common/IQMath/ti/_IQNasin_acos.c ****     }
 6345              		.loc 1 121 19 view .LVU2479
 6346 00bc ACE7     		b	.L268
 6347              	.LVL779:
 6348              	.L271:
 100:../Common/IQMath/ti/_IQNasin_acos.c ****     }
 6349              		.loc 1 100 16 view .LVU2480
 6350 00be 0020     		movs	r0, #0
 6351              	.LVL780:
 6352              	.L265:
 100:../Common/IQMath/ti/_IQNasin_acos.c ****     }
 6353              		.loc 1 100 16 view .LVU2481
 6354              	.LBE563:
 6355              	.LBE565:
 446:../Common/IQMath/ti/_IQNasin_acos.c **** }
 6356              		.loc 1 446 1 view .LVU2482
 6357 00c0 10BD     		pop	{r4, pc}
 6358              	.L276:
 6359 00c2 00BF     		.align	2
 6360              	.L275:
 6361 00c4 00000000 		.word	_IQ29Asin_coeffs
 6362 00c8 A8F64332 		.word	843314856
 6363              		.cfi_endproc
 6364              	.LFE284:
 6366              		.section	.text._IQ6asin,"ax",%progbits
 6367              		.align	1
 6368              		.global	_IQ6asin
 6369              		.syntax unified
 6370              		.thumb
 6371              		.thumb_func
 6373              	_IQ6asin:
 6374              	.LVL781:
 6375              	.LFB285:
 447:../Common/IQMath/ti/_IQNasin_acos.c **** /**
 448:../Common/IQMath/ti/_IQNasin_acos.c ****  * @brief Computes the inverse sine of the IQ6 input.
 449:../Common/IQMath/ti/_IQNasin_acos.c ****  *
 450:../Common/IQMath/ti/_IQNasin_acos.c ****  * @param a               IQ6 type input.
 451:../Common/IQMath/ti/_IQNasin_acos.c ****  *
 452:../Common/IQMath/ti/_IQNasin_acos.c ****  * @return                IQ6 type result of inverse sine.
 453:../Common/IQMath/ti/_IQNasin_acos.c ****  */
 454:../Common/IQMath/ti/_IQNasin_acos.c **** int32_t _IQ6asin(int32_t a)
 455:../Common/IQMath/ti/_IQNasin_acos.c **** {
 6376              		.loc 1 455 1 is_stmt 1 view -0
 6377              		.cfi_startproc
 6378              		@ args = 0, pretend = 0, frame = 0
ARM GAS  C:\Users\57308\AppData\Local\Temp\cc4OkGld.s 			page 156


 6379              		@ frame_needed = 0, uses_anonymous_args = 0
 6380              		.loc 1 455 1 is_stmt 0 view .LVU2484
 6381 0000 10B5     		push	{r4, lr}
 6382              	.LCFI23:
 6383              		.cfi_def_cfa_offset 8
 6384              		.cfi_offset 4, -8
 6385              		.cfi_offset 14, -4
 456:../Common/IQMath/ti/_IQNasin_acos.c ****     return __IQNasin(a, 6);
 6386              		.loc 1 456 5 is_stmt 1 view .LVU2485
 6387              	.LVL782:
 6388              	.LBB576:
 6389              	.LBI576:
  70:../Common/IQMath/ti/_IQNasin_acos.c **** {
 6390              		.loc 1 70 30 view .LVU2486
 6391              	.LBB577:
  72:../Common/IQMath/ti/_IQNasin_acos.c ****     uint_fast16_t index;
 6392              		.loc 1 72 5 view .LVU2487
  73:../Common/IQMath/ti/_IQNasin_acos.c ****     uint_fast16_t ui16IntState;
 6393              		.loc 1 73 5 view .LVU2488
  74:../Common/IQMath/ti/_IQNasin_acos.c ****     uint_fast16_t ui16MPYState;
 6394              		.loc 1 74 5 view .LVU2489
  75:../Common/IQMath/ti/_IQNasin_acos.c ****     int_fast32_t iq29Result;
 6395              		.loc 1 75 5 view .LVU2490
  76:../Common/IQMath/ti/_IQNasin_acos.c ****     const int_fast32_t *piq29Coeffs;
 6396              		.loc 1 76 5 view .LVU2491
  77:../Common/IQMath/ti/_IQNasin_acos.c ****     uint_fast32_t uiq31Input;
 6397              		.loc 1 77 5 view .LVU2492
  78:../Common/IQMath/ti/_IQNasin_acos.c ****     uint_fast32_t uiq31InputTemp;
 6398              		.loc 1 78 5 view .LVU2493
  79:../Common/IQMath/ti/_IQNasin_acos.c ****     
 6399              		.loc 1 79 5 view .LVU2494
  89:../Common/IQMath/ti/_IQNasin_acos.c ****         ui8Status |= 1;
 6400              		.loc 1 89 5 view .LVU2495
  89:../Common/IQMath/ti/_IQNasin_acos.c ****         ui8Status |= 1;
 6401              		.loc 1 89 8 is_stmt 0 view .LVU2496
 6402 0002 0028     		cmp	r0, #0
  89:../Common/IQMath/ti/_IQNasin_acos.c ****         ui8Status |= 1;
 6403              		.loc 1 89 8 view .LVU2497
 6404 0004 52DB     		blt	.L285
  72:../Common/IQMath/ti/_IQNasin_acos.c ****     uint_fast16_t index;
 6405              		.loc 1 72 13 view .LVU2498
 6406 0006 0024     		movs	r4, #0
 6407              	.LVL783:
 6408              	.L278:
  99:../Common/IQMath/ti/_IQNasin_acos.c ****         return 0;
 6409              		.loc 1 99 5 is_stmt 1 view .LVU2499
  99:../Common/IQMath/ti/_IQNasin_acos.c ****         return 0;
 6410              		.loc 1 99 8 is_stmt 0 view .LVU2500
 6411 0008 4028     		cmp	r0, #64
 6412 000a 58D8     		bhi	.L283
 104:../Common/IQMath/ti/_IQNasin_acos.c ****     
 6413              		.loc 1 104 5 is_stmt 1 view .LVU2501
 104:../Common/IQMath/ti/_IQNasin_acos.c ****     
 6414              		.loc 1 104 16 is_stmt 0 view .LVU2502
 6415 000c 4006     		lsls	r0, r0, #25
 6416              	.LVL784:
 112:../Common/IQMath/ti/_IQNasin_acos.c ****     if (uiq31InputTemp < 0x40000000) {
ARM GAS  C:\Users\57308\AppData\Local\Temp\cc4OkGld.s 			page 157


 6417              		.loc 1 112 5 is_stmt 1 view .LVU2503
 112:../Common/IQMath/ti/_IQNasin_acos.c ****     if (uiq31InputTemp < 0x40000000) {
 6418              		.loc 1 112 20 is_stmt 0 view .LVU2504
 6419 000e C0F10043 		rsb	r3, r0, #-2147483648
 6420              	.LVL785:
 113:../Common/IQMath/ti/_IQNasin_acos.c ****         /* Halve the result. */
 6421              		.loc 1 113 5 is_stmt 1 view .LVU2505
 113:../Common/IQMath/ti/_IQNasin_acos.c ****         /* Halve the result. */
 6422              		.loc 1 113 8 is_stmt 0 view .LVU2506
 6423 0012 B3F1804F 		cmp	r3, #1073741824
 6424 0016 4CD3     		bcc	.L286
 6425              	.LVL786:
 6426              	.L280:
 125:../Common/IQMath/ti/_IQNasin_acos.c ****     
 6427              		.loc 1 125 5 is_stmt 1 view .LVU2507
 125:../Common/IQMath/ti/_IQNasin_acos.c ****     
 6428              		.loc 1 125 11 is_stmt 0 view .LVU2508
 6429 0018 830E     		lsrs	r3, r0, #26
 6430              	.LVL787:
 128:../Common/IQMath/ti/_IQNasin_acos.c ****     
 6431              		.loc 1 128 5 is_stmt 1 view .LVU2509
 128:../Common/IQMath/ti/_IQNasin_acos.c ****     
 6432              		.loc 1 128 17 is_stmt 0 view .LVU2510
 6433 001a 03EB8303 		add	r3, r3, r3, lsl #2
 6434              	.LVL788:
 128:../Common/IQMath/ti/_IQNasin_acos.c ****     
 6435              		.loc 1 128 17 view .LVU2511
 6436 001e 2949     		ldr	r1, .L287
 6437 0020 01EB8302 		add	r2, r1, r3, lsl #2
 6438              	.LVL789:
 136:../Common/IQMath/ti/_IQNasin_acos.c ****     
 6439              		.loc 1 136 5 is_stmt 1 view .LVU2512
 136:../Common/IQMath/ti/_IQNasin_acos.c ****     
 6440              		.loc 1 136 5 is_stmt 0 view .LVU2513
 6441              	.LBE577:
 6442              	.LBE576:
  28:../Common/IQMath/ti/./support/RTS_support.h **** }
 6443              		.loc 2 28 5 is_stmt 1 view .LVU2514
 6444              	.LBB588:
 6445              	.LBB586:
 145:../Common/IQMath/ti/_IQNasin_acos.c ****     
 6446              		.loc 1 145 5 view .LVU2515
 145:../Common/IQMath/ti/_IQNasin_acos.c ****     
 6447              		.loc 1 145 18 is_stmt 0 view .LVU2516
 6448 0024 51F82330 		ldr	r3, [r1, r3, lsl #2]
 6449              	.LVL790:
 6450              	.LBB578:
 6451              	.LBI578:
 233:../Common/IQMath/ti/./support/RTS_support.h **** {
 6452              		.loc 2 233 28 is_stmt 1 view .LVU2517
 6453              	.LBB579:
 6454              		.loc 2 235 5 view .LVU2518
 6455              		.loc 2 235 28 is_stmt 0 view .LVU2519
 6456 0028 4FEAE07C 		asr	ip, r0, #31
 6457              		.loc 2 235 49 view .LVU2520
 6458 002c D917     		asrs	r1, r3, #31
 6459              		.loc 2 235 47 view .LVU2521
ARM GAS  C:\Users\57308\AppData\Local\Temp\cc4OkGld.s 			page 158


 6460 002e 00FB01F1 		mul	r1, r0, r1
 6461 0032 03FB0C11 		mla	r1, r3, ip, r1
 6462 0036 A0FB033E 		umull	r3, lr, r0, r3
 6463              	.LVL791:
 6464              		.loc 2 235 47 view .LVU2522
 6465 003a 7144     		add	r1, r1, lr
 6466              		.loc 2 235 69 view .LVU2523
 6467 003c DB0F     		lsrs	r3, r3, #31
 6468 003e 43EA4103 		orr	r3, r3, r1, lsl #1
 6469              	.LVL792:
 6470              		.loc 2 235 69 view .LVU2524
 6471              	.LBE579:
 6472              	.LBE578:
 148:../Common/IQMath/ti/_IQNasin_acos.c ****     
 6473              		.loc 1 148 5 is_stmt 1 view .LVU2525
 148:../Common/IQMath/ti/_IQNasin_acos.c ****     
 6474              		.loc 1 148 31 is_stmt 0 view .LVU2526
 6475 0042 5168     		ldr	r1, [r2, #4]
 148:../Common/IQMath/ti/_IQNasin_acos.c ****     
 6476              		.loc 1 148 16 view .LVU2527
 6477 0044 0B44     		add	r3, r3, r1
 6478              	.LVL793:
 151:../Common/IQMath/ti/_IQNasin_acos.c ****     
 6479              		.loc 1 151 5 is_stmt 1 view .LVU2528
 6480              	.LBB580:
 6481              	.LBI580:
 233:../Common/IQMath/ti/./support/RTS_support.h **** {
 6482              		.loc 2 233 28 view .LVU2529
 6483              	.LBB581:
 6484              		.loc 2 235 5 view .LVU2530
 6485              		.loc 2 235 49 is_stmt 0 view .LVU2531
 6486 0046 D917     		asrs	r1, r3, #31
 6487              		.loc 2 235 47 view .LVU2532
 6488 0048 00FB01F1 		mul	r1, r0, r1
 6489 004c 03FB0C11 		mla	r1, r3, ip, r1
 6490 0050 A0FB033E 		umull	r3, lr, r0, r3
 6491              	.LVL794:
 6492              		.loc 2 235 47 view .LVU2533
 6493 0054 7144     		add	r1, r1, lr
 6494              		.loc 2 235 69 view .LVU2534
 6495 0056 DB0F     		lsrs	r3, r3, #31
 6496 0058 43EA4103 		orr	r3, r3, r1, lsl #1
 6497              	.LVL795:
 6498              		.loc 2 235 69 view .LVU2535
 6499              	.LBE581:
 6500              	.LBE580:
 154:../Common/IQMath/ti/_IQNasin_acos.c ****     
 6501              		.loc 1 154 5 is_stmt 1 view .LVU2536
 154:../Common/IQMath/ti/_IQNasin_acos.c ****     
 6502              		.loc 1 154 31 is_stmt 0 view .LVU2537
 6503 005c 9168     		ldr	r1, [r2, #8]
 154:../Common/IQMath/ti/_IQNasin_acos.c ****     
 6504              		.loc 1 154 16 view .LVU2538
 6505 005e 0B44     		add	r3, r3, r1
 6506              	.LVL796:
 157:../Common/IQMath/ti/_IQNasin_acos.c ****     
 6507              		.loc 1 157 5 is_stmt 1 view .LVU2539
ARM GAS  C:\Users\57308\AppData\Local\Temp\cc4OkGld.s 			page 159


 6508              	.LBB582:
 6509              	.LBI582:
 233:../Common/IQMath/ti/./support/RTS_support.h **** {
 6510              		.loc 2 233 28 view .LVU2540
 6511              	.LBB583:
 6512              		.loc 2 235 5 view .LVU2541
 6513              		.loc 2 235 49 is_stmt 0 view .LVU2542
 6514 0060 D917     		asrs	r1, r3, #31
 6515              		.loc 2 235 47 view .LVU2543
 6516 0062 00FB01F1 		mul	r1, r0, r1
 6517 0066 03FB0C11 		mla	r1, r3, ip, r1
 6518 006a A0FB033E 		umull	r3, lr, r0, r3
 6519              	.LVL797:
 6520              		.loc 2 235 47 view .LVU2544
 6521 006e 7144     		add	r1, r1, lr
 6522              		.loc 2 235 69 view .LVU2545
 6523 0070 DB0F     		lsrs	r3, r3, #31
 6524 0072 43EA4103 		orr	r3, r3, r1, lsl #1
 6525              	.LVL798:
 6526              		.loc 2 235 69 view .LVU2546
 6527              	.LBE583:
 6528              	.LBE582:
 160:../Common/IQMath/ti/_IQNasin_acos.c ****     
 6529              		.loc 1 160 5 is_stmt 1 view .LVU2547
 160:../Common/IQMath/ti/_IQNasin_acos.c ****     
 6530              		.loc 1 160 31 is_stmt 0 view .LVU2548
 6531 0076 D168     		ldr	r1, [r2, #12]
 160:../Common/IQMath/ti/_IQNasin_acos.c ****     
 6532              		.loc 1 160 16 view .LVU2549
 6533 0078 0B44     		add	r3, r3, r1
 6534              	.LVL799:
 163:../Common/IQMath/ti/_IQNasin_acos.c ****     
 6535              		.loc 1 163 5 is_stmt 1 view .LVU2550
 6536              	.LBB584:
 6537              	.LBI584:
 233:../Common/IQMath/ti/./support/RTS_support.h **** {
 6538              		.loc 2 233 28 view .LVU2551
 6539              	.LBB585:
 6540              		.loc 2 235 5 view .LVU2552
 6541              		.loc 2 235 49 is_stmt 0 view .LVU2553
 6542 007a D917     		asrs	r1, r3, #31
 6543              		.loc 2 235 47 view .LVU2554
 6544 007c 00FB01F1 		mul	r1, r0, r1
 6545 0080 03FB0C11 		mla	r1, r3, ip, r1
 6546 0084 A0FB0303 		umull	r0, r3, r0, r3
 6547              	.LVL800:
 6548              		.loc 2 235 47 view .LVU2555
 6549 0088 0B44     		add	r3, r3, r1
 6550              		.loc 2 235 69 view .LVU2556
 6551 008a C00F     		lsrs	r0, r0, #31
 6552 008c 40EA4300 		orr	r0, r0, r3, lsl #1
 6553              	.LVL801:
 6554              		.loc 2 235 69 view .LVU2557
 6555              	.LBE585:
 6556              	.LBE584:
 166:../Common/IQMath/ti/_IQNasin_acos.c ****     
 6557              		.loc 1 166 5 is_stmt 1 view .LVU2558
ARM GAS  C:\Users\57308\AppData\Local\Temp\cc4OkGld.s 			page 160


 166:../Common/IQMath/ti/_IQNasin_acos.c ****     
 6558              		.loc 1 166 31 is_stmt 0 view .LVU2559
 6559 0090 1369     		ldr	r3, [r2, #16]
 166:../Common/IQMath/ti/_IQNasin_acos.c ****     
 6560              		.loc 1 166 16 view .LVU2560
 6561 0092 1844     		add	r0, r0, r3
 6562              	.LVL802:
 172:../Common/IQMath/ti/_IQNasin_acos.c ****     
 6563              		.loc 1 172 5 is_stmt 1 view .LVU2561
 172:../Common/IQMath/ti/_IQNasin_acos.c ****     
 6564              		.loc 1 172 5 is_stmt 0 view .LVU2562
 6565              	.LBE586:
 6566              	.LBE588:
  72:../Common/IQMath/ti/./support/RTS_support.h **** }
 6567              		.loc 2 72 5 is_stmt 1 view .LVU2563
 6568              	.LBB589:
 6569              	.LBB587:
 175:../Common/IQMath/ti/_IQNasin_acos.c ****         /* asin(x) = pi/2 - 2*iq29Result */
 6570              		.loc 1 175 5 view .LVU2564
 175:../Common/IQMath/ti/_IQNasin_acos.c ****         /* asin(x) = pi/2 - 2*iq29Result */
 6571              		.loc 1 175 8 is_stmt 0 view .LVU2565
 6572 0094 14F0020F 		tst	r4, #2
 6573 0098 02D0     		beq	.L281
 177:../Common/IQMath/ti/_IQNasin_acos.c ****         iq29Result -= iq29_halfPi;      // this is equivalent to the above
 6574              		.loc 1 177 9 is_stmt 1 view .LVU2566
 6575              	.LVL803:
 178:../Common/IQMath/ti/_IQNasin_acos.c ****         iq29Result = -iq29Result;       // but avoids using temporary registers
 6576              		.loc 1 178 9 view .LVU2567
 179:../Common/IQMath/ti/_IQNasin_acos.c ****     }
 6577              		.loc 1 179 9 view .LVU2568
 179:../Common/IQMath/ti/_IQNasin_acos.c ****     }
 6578              		.loc 1 179 20 is_stmt 0 view .LVU2569
 6579 009a 0B4B     		ldr	r3, .L287+4
 6580 009c A3EB4000 		sub	r0, r3, r0, lsl #1
 6581              	.LVL804:
 6582              	.L281:
 183:../Common/IQMath/ti/_IQNasin_acos.c ****     
 6583              		.loc 1 183 5 is_stmt 1 view .LVU2570
 183:../Common/IQMath/ti/_IQNasin_acos.c ****     
 6584              		.loc 1 183 16 is_stmt 0 view .LVU2571
 6585 00a0 C015     		asrs	r0, r0, #23
 6586              	.LVL805:
 186:../Common/IQMath/ti/_IQNasin_acos.c ****         iq29Result = -iq29Result;
 6587              		.loc 1 186 5 is_stmt 1 view .LVU2572
 186:../Common/IQMath/ti/_IQNasin_acos.c ****         iq29Result = -iq29Result;
 6588              		.loc 1 186 8 is_stmt 0 view .LVU2573
 6589 00a2 14F0010F 		tst	r4, #1
 6590 00a6 0BD0     		beq	.L277
 187:../Common/IQMath/ti/_IQNasin_acos.c ****     }
 6591              		.loc 1 187 9 is_stmt 1 view .LVU2574
 187:../Common/IQMath/ti/_IQNasin_acos.c ****     }
 6592              		.loc 1 187 20 is_stmt 0 view .LVU2575
 6593 00a8 4042     		rsbs	r0, r0, #0
 6594              	.LVL806:
 187:../Common/IQMath/ti/_IQNasin_acos.c ****     }
 6595              		.loc 1 187 20 view .LVU2576
 6596 00aa 09E0     		b	.L277
ARM GAS  C:\Users\57308\AppData\Local\Temp\cc4OkGld.s 			page 161


 6597              	.LVL807:
 6598              	.L285:
  90:../Common/IQMath/ti/_IQNasin_acos.c ****         iqNInput = -iqNInput;
 6599              		.loc 1 90 9 is_stmt 1 view .LVU2577
  91:../Common/IQMath/ti/_IQNasin_acos.c ****     }
 6600              		.loc 1 91 9 view .LVU2578
  91:../Common/IQMath/ti/_IQNasin_acos.c ****     }
 6601              		.loc 1 91 18 is_stmt 0 view .LVU2579
 6602 00ac 4042     		rsbs	r0, r0, #0
 6603              	.LVL808:
  90:../Common/IQMath/ti/_IQNasin_acos.c ****         iqNInput = -iqNInput;
 6604              		.loc 1 90 19 view .LVU2580
 6605 00ae 0124     		movs	r4, #1
 6606 00b0 AAE7     		b	.L278
 6607              	.LVL809:
 6608              	.L286:
 115:../Common/IQMath/ti/_IQNasin_acos.c ****         
 6609              		.loc 1 115 9 is_stmt 1 view .LVU2581
 118:../Common/IQMath/ti/_IQNasin_acos.c ****         
 6610              		.loc 1 118 9 view .LVU2582
 118:../Common/IQMath/ti/_IQNasin_acos.c ****         
 6611              		.loc 1 118 22 is_stmt 0 view .LVU2583
 6612 00b2 5808     		lsrs	r0, r3, #1
 6613              	.LVL810:
 118:../Common/IQMath/ti/_IQNasin_acos.c ****         
 6614              		.loc 1 118 22 view .LVU2584
 6615 00b4 FFF7FEFF 		bl	_IQ31sqrt
 6616              	.LVL811:
 121:../Common/IQMath/ti/_IQNasin_acos.c ****     }
 6617              		.loc 1 121 9 is_stmt 1 view .LVU2585
 121:../Common/IQMath/ti/_IQNasin_acos.c ****     }
 6618              		.loc 1 121 19 is_stmt 0 view .LVU2586
 6619 00b8 44F00204 		orr	r4, r4, #2
 6620              	.LVL812:
 121:../Common/IQMath/ti/_IQNasin_acos.c ****     }
 6621              		.loc 1 121 19 view .LVU2587
 6622 00bc ACE7     		b	.L280
 6623              	.LVL813:
 6624              	.L283:
 100:../Common/IQMath/ti/_IQNasin_acos.c ****     }
 6625              		.loc 1 100 16 view .LVU2588
 6626 00be 0020     		movs	r0, #0
 6627              	.LVL814:
 6628              	.L277:
 100:../Common/IQMath/ti/_IQNasin_acos.c ****     }
 6629              		.loc 1 100 16 view .LVU2589
 6630              	.LBE587:
 6631              	.LBE589:
 457:../Common/IQMath/ti/_IQNasin_acos.c **** }
 6632              		.loc 1 457 1 view .LVU2590
 6633 00c0 10BD     		pop	{r4, pc}
 6634              	.L288:
 6635 00c2 00BF     		.align	2
 6636              	.L287:
 6637 00c4 00000000 		.word	_IQ29Asin_coeffs
 6638 00c8 A8F64332 		.word	843314856
 6639              		.cfi_endproc
ARM GAS  C:\Users\57308\AppData\Local\Temp\cc4OkGld.s 			page 162


 6640              	.LFE285:
 6642              		.section	.text._IQ5asin,"ax",%progbits
 6643              		.align	1
 6644              		.global	_IQ5asin
 6645              		.syntax unified
 6646              		.thumb
 6647              		.thumb_func
 6649              	_IQ5asin:
 6650              	.LVL815:
 6651              	.LFB286:
 458:../Common/IQMath/ti/_IQNasin_acos.c **** /**
 459:../Common/IQMath/ti/_IQNasin_acos.c ****  * @brief Computes the inverse sine of the IQ5 input.
 460:../Common/IQMath/ti/_IQNasin_acos.c ****  *
 461:../Common/IQMath/ti/_IQNasin_acos.c ****  * @param a               IQ5 type input.
 462:../Common/IQMath/ti/_IQNasin_acos.c ****  *
 463:../Common/IQMath/ti/_IQNasin_acos.c ****  * @return                IQ5 type result of inverse sine.
 464:../Common/IQMath/ti/_IQNasin_acos.c ****  */
 465:../Common/IQMath/ti/_IQNasin_acos.c **** int32_t _IQ5asin(int32_t a)
 466:../Common/IQMath/ti/_IQNasin_acos.c **** {
 6652              		.loc 1 466 1 is_stmt 1 view -0
 6653              		.cfi_startproc
 6654              		@ args = 0, pretend = 0, frame = 0
 6655              		@ frame_needed = 0, uses_anonymous_args = 0
 6656              		.loc 1 466 1 is_stmt 0 view .LVU2592
 6657 0000 10B5     		push	{r4, lr}
 6658              	.LCFI24:
 6659              		.cfi_def_cfa_offset 8
 6660              		.cfi_offset 4, -8
 6661              		.cfi_offset 14, -4
 467:../Common/IQMath/ti/_IQNasin_acos.c ****     return __IQNasin(a, 5);
 6662              		.loc 1 467 5 is_stmt 1 view .LVU2593
 6663              	.LVL816:
 6664              	.LBB600:
 6665              	.LBI600:
  70:../Common/IQMath/ti/_IQNasin_acos.c **** {
 6666              		.loc 1 70 30 view .LVU2594
 6667              	.LBB601:
  72:../Common/IQMath/ti/_IQNasin_acos.c ****     uint_fast16_t index;
 6668              		.loc 1 72 5 view .LVU2595
  73:../Common/IQMath/ti/_IQNasin_acos.c ****     uint_fast16_t ui16IntState;
 6669              		.loc 1 73 5 view .LVU2596
  74:../Common/IQMath/ti/_IQNasin_acos.c ****     uint_fast16_t ui16MPYState;
 6670              		.loc 1 74 5 view .LVU2597
  75:../Common/IQMath/ti/_IQNasin_acos.c ****     int_fast32_t iq29Result;
 6671              		.loc 1 75 5 view .LVU2598
  76:../Common/IQMath/ti/_IQNasin_acos.c ****     const int_fast32_t *piq29Coeffs;
 6672              		.loc 1 76 5 view .LVU2599
  77:../Common/IQMath/ti/_IQNasin_acos.c ****     uint_fast32_t uiq31Input;
 6673              		.loc 1 77 5 view .LVU2600
  78:../Common/IQMath/ti/_IQNasin_acos.c ****     uint_fast32_t uiq31InputTemp;
 6674              		.loc 1 78 5 view .LVU2601
  79:../Common/IQMath/ti/_IQNasin_acos.c ****     
 6675              		.loc 1 79 5 view .LVU2602
  89:../Common/IQMath/ti/_IQNasin_acos.c ****         ui8Status |= 1;
 6676              		.loc 1 89 5 view .LVU2603
  89:../Common/IQMath/ti/_IQNasin_acos.c ****         ui8Status |= 1;
 6677              		.loc 1 89 8 is_stmt 0 view .LVU2604
ARM GAS  C:\Users\57308\AppData\Local\Temp\cc4OkGld.s 			page 163


 6678 0002 0028     		cmp	r0, #0
  89:../Common/IQMath/ti/_IQNasin_acos.c ****         ui8Status |= 1;
 6679              		.loc 1 89 8 view .LVU2605
 6680 0004 52DB     		blt	.L297
  72:../Common/IQMath/ti/_IQNasin_acos.c ****     uint_fast16_t index;
 6681              		.loc 1 72 13 view .LVU2606
 6682 0006 0024     		movs	r4, #0
 6683              	.LVL817:
 6684              	.L290:
  99:../Common/IQMath/ti/_IQNasin_acos.c ****         return 0;
 6685              		.loc 1 99 5 is_stmt 1 view .LVU2607
  99:../Common/IQMath/ti/_IQNasin_acos.c ****         return 0;
 6686              		.loc 1 99 8 is_stmt 0 view .LVU2608
 6687 0008 2028     		cmp	r0, #32
 6688 000a 58D8     		bhi	.L295
 104:../Common/IQMath/ti/_IQNasin_acos.c ****     
 6689              		.loc 1 104 5 is_stmt 1 view .LVU2609
 104:../Common/IQMath/ti/_IQNasin_acos.c ****     
 6690              		.loc 1 104 16 is_stmt 0 view .LVU2610
 6691 000c 8006     		lsls	r0, r0, #26
 6692              	.LVL818:
 112:../Common/IQMath/ti/_IQNasin_acos.c ****     if (uiq31InputTemp < 0x40000000) {
 6693              		.loc 1 112 5 is_stmt 1 view .LVU2611
 112:../Common/IQMath/ti/_IQNasin_acos.c ****     if (uiq31InputTemp < 0x40000000) {
 6694              		.loc 1 112 20 is_stmt 0 view .LVU2612
 6695 000e C0F10043 		rsb	r3, r0, #-2147483648
 6696              	.LVL819:
 113:../Common/IQMath/ti/_IQNasin_acos.c ****         /* Halve the result. */
 6697              		.loc 1 113 5 is_stmt 1 view .LVU2613
 113:../Common/IQMath/ti/_IQNasin_acos.c ****         /* Halve the result. */
 6698              		.loc 1 113 8 is_stmt 0 view .LVU2614
 6699 0012 B3F1804F 		cmp	r3, #1073741824
 6700 0016 4CD3     		bcc	.L298
 6701              	.LVL820:
 6702              	.L292:
 125:../Common/IQMath/ti/_IQNasin_acos.c ****     
 6703              		.loc 1 125 5 is_stmt 1 view .LVU2615
 125:../Common/IQMath/ti/_IQNasin_acos.c ****     
 6704              		.loc 1 125 11 is_stmt 0 view .LVU2616
 6705 0018 830E     		lsrs	r3, r0, #26
 6706              	.LVL821:
 128:../Common/IQMath/ti/_IQNasin_acos.c ****     
 6707              		.loc 1 128 5 is_stmt 1 view .LVU2617
 128:../Common/IQMath/ti/_IQNasin_acos.c ****     
 6708              		.loc 1 128 17 is_stmt 0 view .LVU2618
 6709 001a 03EB8303 		add	r3, r3, r3, lsl #2
 6710              	.LVL822:
 128:../Common/IQMath/ti/_IQNasin_acos.c ****     
 6711              		.loc 1 128 17 view .LVU2619
 6712 001e 2949     		ldr	r1, .L299
 6713 0020 01EB8302 		add	r2, r1, r3, lsl #2
 6714              	.LVL823:
 136:../Common/IQMath/ti/_IQNasin_acos.c ****     
 6715              		.loc 1 136 5 is_stmt 1 view .LVU2620
 136:../Common/IQMath/ti/_IQNasin_acos.c ****     
 6716              		.loc 1 136 5 is_stmt 0 view .LVU2621
 6717              	.LBE601:
ARM GAS  C:\Users\57308\AppData\Local\Temp\cc4OkGld.s 			page 164


 6718              	.LBE600:
  28:../Common/IQMath/ti/./support/RTS_support.h **** }
 6719              		.loc 2 28 5 is_stmt 1 view .LVU2622
 6720              	.LBB612:
 6721              	.LBB610:
 145:../Common/IQMath/ti/_IQNasin_acos.c ****     
 6722              		.loc 1 145 5 view .LVU2623
 145:../Common/IQMath/ti/_IQNasin_acos.c ****     
 6723              		.loc 1 145 18 is_stmt 0 view .LVU2624
 6724 0024 51F82330 		ldr	r3, [r1, r3, lsl #2]
 6725              	.LVL824:
 6726              	.LBB602:
 6727              	.LBI602:
 233:../Common/IQMath/ti/./support/RTS_support.h **** {
 6728              		.loc 2 233 28 is_stmt 1 view .LVU2625
 6729              	.LBB603:
 6730              		.loc 2 235 5 view .LVU2626
 6731              		.loc 2 235 28 is_stmt 0 view .LVU2627
 6732 0028 4FEAE07C 		asr	ip, r0, #31
 6733              		.loc 2 235 49 view .LVU2628
 6734 002c D917     		asrs	r1, r3, #31
 6735              		.loc 2 235 47 view .LVU2629
 6736 002e 00FB01F1 		mul	r1, r0, r1
 6737 0032 03FB0C11 		mla	r1, r3, ip, r1
 6738 0036 A0FB033E 		umull	r3, lr, r0, r3
 6739              	.LVL825:
 6740              		.loc 2 235 47 view .LVU2630
 6741 003a 7144     		add	r1, r1, lr
 6742              		.loc 2 235 69 view .LVU2631
 6743 003c DB0F     		lsrs	r3, r3, #31
 6744 003e 43EA4103 		orr	r3, r3, r1, lsl #1
 6745              	.LVL826:
 6746              		.loc 2 235 69 view .LVU2632
 6747              	.LBE603:
 6748              	.LBE602:
 148:../Common/IQMath/ti/_IQNasin_acos.c ****     
 6749              		.loc 1 148 5 is_stmt 1 view .LVU2633
 148:../Common/IQMath/ti/_IQNasin_acos.c ****     
 6750              		.loc 1 148 31 is_stmt 0 view .LVU2634
 6751 0042 5168     		ldr	r1, [r2, #4]
 148:../Common/IQMath/ti/_IQNasin_acos.c ****     
 6752              		.loc 1 148 16 view .LVU2635
 6753 0044 0B44     		add	r3, r3, r1
 6754              	.LVL827:
 151:../Common/IQMath/ti/_IQNasin_acos.c ****     
 6755              		.loc 1 151 5 is_stmt 1 view .LVU2636
 6756              	.LBB604:
 6757              	.LBI604:
 233:../Common/IQMath/ti/./support/RTS_support.h **** {
 6758              		.loc 2 233 28 view .LVU2637
 6759              	.LBB605:
 6760              		.loc 2 235 5 view .LVU2638
 6761              		.loc 2 235 49 is_stmt 0 view .LVU2639
 6762 0046 D917     		asrs	r1, r3, #31
 6763              		.loc 2 235 47 view .LVU2640
 6764 0048 00FB01F1 		mul	r1, r0, r1
 6765 004c 03FB0C11 		mla	r1, r3, ip, r1
ARM GAS  C:\Users\57308\AppData\Local\Temp\cc4OkGld.s 			page 165


 6766 0050 A0FB033E 		umull	r3, lr, r0, r3
 6767              	.LVL828:
 6768              		.loc 2 235 47 view .LVU2641
 6769 0054 7144     		add	r1, r1, lr
 6770              		.loc 2 235 69 view .LVU2642
 6771 0056 DB0F     		lsrs	r3, r3, #31
 6772 0058 43EA4103 		orr	r3, r3, r1, lsl #1
 6773              	.LVL829:
 6774              		.loc 2 235 69 view .LVU2643
 6775              	.LBE605:
 6776              	.LBE604:
 154:../Common/IQMath/ti/_IQNasin_acos.c ****     
 6777              		.loc 1 154 5 is_stmt 1 view .LVU2644
 154:../Common/IQMath/ti/_IQNasin_acos.c ****     
 6778              		.loc 1 154 31 is_stmt 0 view .LVU2645
 6779 005c 9168     		ldr	r1, [r2, #8]
 154:../Common/IQMath/ti/_IQNasin_acos.c ****     
 6780              		.loc 1 154 16 view .LVU2646
 6781 005e 0B44     		add	r3, r3, r1
 6782              	.LVL830:
 157:../Common/IQMath/ti/_IQNasin_acos.c ****     
 6783              		.loc 1 157 5 is_stmt 1 view .LVU2647
 6784              	.LBB606:
 6785              	.LBI606:
 233:../Common/IQMath/ti/./support/RTS_support.h **** {
 6786              		.loc 2 233 28 view .LVU2648
 6787              	.LBB607:
 6788              		.loc 2 235 5 view .LVU2649
 6789              		.loc 2 235 49 is_stmt 0 view .LVU2650
 6790 0060 D917     		asrs	r1, r3, #31
 6791              		.loc 2 235 47 view .LVU2651
 6792 0062 00FB01F1 		mul	r1, r0, r1
 6793 0066 03FB0C11 		mla	r1, r3, ip, r1
 6794 006a A0FB033E 		umull	r3, lr, r0, r3
 6795              	.LVL831:
 6796              		.loc 2 235 47 view .LVU2652
 6797 006e 7144     		add	r1, r1, lr
 6798              		.loc 2 235 69 view .LVU2653
 6799 0070 DB0F     		lsrs	r3, r3, #31
 6800 0072 43EA4103 		orr	r3, r3, r1, lsl #1
 6801              	.LVL832:
 6802              		.loc 2 235 69 view .LVU2654
 6803              	.LBE607:
 6804              	.LBE606:
 160:../Common/IQMath/ti/_IQNasin_acos.c ****     
 6805              		.loc 1 160 5 is_stmt 1 view .LVU2655
 160:../Common/IQMath/ti/_IQNasin_acos.c ****     
 6806              		.loc 1 160 31 is_stmt 0 view .LVU2656
 6807 0076 D168     		ldr	r1, [r2, #12]
 160:../Common/IQMath/ti/_IQNasin_acos.c ****     
 6808              		.loc 1 160 16 view .LVU2657
 6809 0078 0B44     		add	r3, r3, r1
 6810              	.LVL833:
 163:../Common/IQMath/ti/_IQNasin_acos.c ****     
 6811              		.loc 1 163 5 is_stmt 1 view .LVU2658
 6812              	.LBB608:
 6813              	.LBI608:
ARM GAS  C:\Users\57308\AppData\Local\Temp\cc4OkGld.s 			page 166


 233:../Common/IQMath/ti/./support/RTS_support.h **** {
 6814              		.loc 2 233 28 view .LVU2659
 6815              	.LBB609:
 6816              		.loc 2 235 5 view .LVU2660
 6817              		.loc 2 235 49 is_stmt 0 view .LVU2661
 6818 007a D917     		asrs	r1, r3, #31
 6819              		.loc 2 235 47 view .LVU2662
 6820 007c 00FB01F1 		mul	r1, r0, r1
 6821 0080 03FB0C11 		mla	r1, r3, ip, r1
 6822 0084 A0FB0303 		umull	r0, r3, r0, r3
 6823              	.LVL834:
 6824              		.loc 2 235 47 view .LVU2663
 6825 0088 0B44     		add	r3, r3, r1
 6826              		.loc 2 235 69 view .LVU2664
 6827 008a C00F     		lsrs	r0, r0, #31
 6828 008c 40EA4300 		orr	r0, r0, r3, lsl #1
 6829              	.LVL835:
 6830              		.loc 2 235 69 view .LVU2665
 6831              	.LBE609:
 6832              	.LBE608:
 166:../Common/IQMath/ti/_IQNasin_acos.c ****     
 6833              		.loc 1 166 5 is_stmt 1 view .LVU2666
 166:../Common/IQMath/ti/_IQNasin_acos.c ****     
 6834              		.loc 1 166 31 is_stmt 0 view .LVU2667
 6835 0090 1369     		ldr	r3, [r2, #16]
 166:../Common/IQMath/ti/_IQNasin_acos.c ****     
 6836              		.loc 1 166 16 view .LVU2668
 6837 0092 1844     		add	r0, r0, r3
 6838              	.LVL836:
 172:../Common/IQMath/ti/_IQNasin_acos.c ****     
 6839              		.loc 1 172 5 is_stmt 1 view .LVU2669
 172:../Common/IQMath/ti/_IQNasin_acos.c ****     
 6840              		.loc 1 172 5 is_stmt 0 view .LVU2670
 6841              	.LBE610:
 6842              	.LBE612:
  72:../Common/IQMath/ti/./support/RTS_support.h **** }
 6843              		.loc 2 72 5 is_stmt 1 view .LVU2671
 6844              	.LBB613:
 6845              	.LBB611:
 175:../Common/IQMath/ti/_IQNasin_acos.c ****         /* asin(x) = pi/2 - 2*iq29Result */
 6846              		.loc 1 175 5 view .LVU2672
 175:../Common/IQMath/ti/_IQNasin_acos.c ****         /* asin(x) = pi/2 - 2*iq29Result */
 6847              		.loc 1 175 8 is_stmt 0 view .LVU2673
 6848 0094 14F0020F 		tst	r4, #2
 6849 0098 02D0     		beq	.L293
 177:../Common/IQMath/ti/_IQNasin_acos.c ****         iq29Result -= iq29_halfPi;      // this is equivalent to the above
 6850              		.loc 1 177 9 is_stmt 1 view .LVU2674
 6851              	.LVL837:
 178:../Common/IQMath/ti/_IQNasin_acos.c ****         iq29Result = -iq29Result;       // but avoids using temporary registers
 6852              		.loc 1 178 9 view .LVU2675
 179:../Common/IQMath/ti/_IQNasin_acos.c ****     }
 6853              		.loc 1 179 9 view .LVU2676
 179:../Common/IQMath/ti/_IQNasin_acos.c ****     }
 6854              		.loc 1 179 20 is_stmt 0 view .LVU2677
 6855 009a 0B4B     		ldr	r3, .L299+4
 6856 009c A3EB4000 		sub	r0, r3, r0, lsl #1
 6857              	.LVL838:
ARM GAS  C:\Users\57308\AppData\Local\Temp\cc4OkGld.s 			page 167


 6858              	.L293:
 183:../Common/IQMath/ti/_IQNasin_acos.c ****     
 6859              		.loc 1 183 5 is_stmt 1 view .LVU2678
 183:../Common/IQMath/ti/_IQNasin_acos.c ****     
 6860              		.loc 1 183 16 is_stmt 0 view .LVU2679
 6861 00a0 0016     		asrs	r0, r0, #24
 6862              	.LVL839:
 186:../Common/IQMath/ti/_IQNasin_acos.c ****         iq29Result = -iq29Result;
 6863              		.loc 1 186 5 is_stmt 1 view .LVU2680
 186:../Common/IQMath/ti/_IQNasin_acos.c ****         iq29Result = -iq29Result;
 6864              		.loc 1 186 8 is_stmt 0 view .LVU2681
 6865 00a2 14F0010F 		tst	r4, #1
 6866 00a6 0BD0     		beq	.L289
 187:../Common/IQMath/ti/_IQNasin_acos.c ****     }
 6867              		.loc 1 187 9 is_stmt 1 view .LVU2682
 187:../Common/IQMath/ti/_IQNasin_acos.c ****     }
 6868              		.loc 1 187 20 is_stmt 0 view .LVU2683
 6869 00a8 4042     		rsbs	r0, r0, #0
 6870              	.LVL840:
 187:../Common/IQMath/ti/_IQNasin_acos.c ****     }
 6871              		.loc 1 187 20 view .LVU2684
 6872 00aa 09E0     		b	.L289
 6873              	.LVL841:
 6874              	.L297:
  90:../Common/IQMath/ti/_IQNasin_acos.c ****         iqNInput = -iqNInput;
 6875              		.loc 1 90 9 is_stmt 1 view .LVU2685
  91:../Common/IQMath/ti/_IQNasin_acos.c ****     }
 6876              		.loc 1 91 9 view .LVU2686
  91:../Common/IQMath/ti/_IQNasin_acos.c ****     }
 6877              		.loc 1 91 18 is_stmt 0 view .LVU2687
 6878 00ac 4042     		rsbs	r0, r0, #0
 6879              	.LVL842:
  90:../Common/IQMath/ti/_IQNasin_acos.c ****         iqNInput = -iqNInput;
 6880              		.loc 1 90 19 view .LVU2688
 6881 00ae 0124     		movs	r4, #1
 6882 00b0 AAE7     		b	.L290
 6883              	.LVL843:
 6884              	.L298:
 115:../Common/IQMath/ti/_IQNasin_acos.c ****         
 6885              		.loc 1 115 9 is_stmt 1 view .LVU2689
 118:../Common/IQMath/ti/_IQNasin_acos.c ****         
 6886              		.loc 1 118 9 view .LVU2690
 118:../Common/IQMath/ti/_IQNasin_acos.c ****         
 6887              		.loc 1 118 22 is_stmt 0 view .LVU2691
 6888 00b2 5808     		lsrs	r0, r3, #1
 6889              	.LVL844:
 118:../Common/IQMath/ti/_IQNasin_acos.c ****         
 6890              		.loc 1 118 22 view .LVU2692
 6891 00b4 FFF7FEFF 		bl	_IQ31sqrt
 6892              	.LVL845:
 121:../Common/IQMath/ti/_IQNasin_acos.c ****     }
 6893              		.loc 1 121 9 is_stmt 1 view .LVU2693
 121:../Common/IQMath/ti/_IQNasin_acos.c ****     }
 6894              		.loc 1 121 19 is_stmt 0 view .LVU2694
 6895 00b8 44F00204 		orr	r4, r4, #2
 6896              	.LVL846:
 121:../Common/IQMath/ti/_IQNasin_acos.c ****     }
ARM GAS  C:\Users\57308\AppData\Local\Temp\cc4OkGld.s 			page 168


 6897              		.loc 1 121 19 view .LVU2695
 6898 00bc ACE7     		b	.L292
 6899              	.LVL847:
 6900              	.L295:
 100:../Common/IQMath/ti/_IQNasin_acos.c ****     }
 6901              		.loc 1 100 16 view .LVU2696
 6902 00be 0020     		movs	r0, #0
 6903              	.LVL848:
 6904              	.L289:
 100:../Common/IQMath/ti/_IQNasin_acos.c ****     }
 6905              		.loc 1 100 16 view .LVU2697
 6906              	.LBE611:
 6907              	.LBE613:
 468:../Common/IQMath/ti/_IQNasin_acos.c **** }
 6908              		.loc 1 468 1 view .LVU2698
 6909 00c0 10BD     		pop	{r4, pc}
 6910              	.L300:
 6911 00c2 00BF     		.align	2
 6912              	.L299:
 6913 00c4 00000000 		.word	_IQ29Asin_coeffs
 6914 00c8 A8F64332 		.word	843314856
 6915              		.cfi_endproc
 6916              	.LFE286:
 6918              		.section	.text._IQ4asin,"ax",%progbits
 6919              		.align	1
 6920              		.global	_IQ4asin
 6921              		.syntax unified
 6922              		.thumb
 6923              		.thumb_func
 6925              	_IQ4asin:
 6926              	.LVL849:
 6927              	.LFB287:
 469:../Common/IQMath/ti/_IQNasin_acos.c **** /**
 470:../Common/IQMath/ti/_IQNasin_acos.c ****  * @brief Computes the inverse sine of the IQ4 input.
 471:../Common/IQMath/ti/_IQNasin_acos.c ****  *
 472:../Common/IQMath/ti/_IQNasin_acos.c ****  * @param a               IQ4 type input.
 473:../Common/IQMath/ti/_IQNasin_acos.c ****  *
 474:../Common/IQMath/ti/_IQNasin_acos.c ****  * @return                IQ4 type result of inverse sine.
 475:../Common/IQMath/ti/_IQNasin_acos.c ****  */
 476:../Common/IQMath/ti/_IQNasin_acos.c **** int32_t _IQ4asin(int32_t a)
 477:../Common/IQMath/ti/_IQNasin_acos.c **** {
 6928              		.loc 1 477 1 is_stmt 1 view -0
 6929              		.cfi_startproc
 6930              		@ args = 0, pretend = 0, frame = 0
 6931              		@ frame_needed = 0, uses_anonymous_args = 0
 6932              		.loc 1 477 1 is_stmt 0 view .LVU2700
 6933 0000 10B5     		push	{r4, lr}
 6934              	.LCFI25:
 6935              		.cfi_def_cfa_offset 8
 6936              		.cfi_offset 4, -8
 6937              		.cfi_offset 14, -4
 478:../Common/IQMath/ti/_IQNasin_acos.c ****     return __IQNasin(a, 4);
 6938              		.loc 1 478 5 is_stmt 1 view .LVU2701
 6939              	.LVL850:
 6940              	.LBB624:
 6941              	.LBI624:
  70:../Common/IQMath/ti/_IQNasin_acos.c **** {
ARM GAS  C:\Users\57308\AppData\Local\Temp\cc4OkGld.s 			page 169


 6942              		.loc 1 70 30 view .LVU2702
 6943              	.LBB625:
  72:../Common/IQMath/ti/_IQNasin_acos.c ****     uint_fast16_t index;
 6944              		.loc 1 72 5 view .LVU2703
  73:../Common/IQMath/ti/_IQNasin_acos.c ****     uint_fast16_t ui16IntState;
 6945              		.loc 1 73 5 view .LVU2704
  74:../Common/IQMath/ti/_IQNasin_acos.c ****     uint_fast16_t ui16MPYState;
 6946              		.loc 1 74 5 view .LVU2705
  75:../Common/IQMath/ti/_IQNasin_acos.c ****     int_fast32_t iq29Result;
 6947              		.loc 1 75 5 view .LVU2706
  76:../Common/IQMath/ti/_IQNasin_acos.c ****     const int_fast32_t *piq29Coeffs;
 6948              		.loc 1 76 5 view .LVU2707
  77:../Common/IQMath/ti/_IQNasin_acos.c ****     uint_fast32_t uiq31Input;
 6949              		.loc 1 77 5 view .LVU2708
  78:../Common/IQMath/ti/_IQNasin_acos.c ****     uint_fast32_t uiq31InputTemp;
 6950              		.loc 1 78 5 view .LVU2709
  79:../Common/IQMath/ti/_IQNasin_acos.c ****     
 6951              		.loc 1 79 5 view .LVU2710
  89:../Common/IQMath/ti/_IQNasin_acos.c ****         ui8Status |= 1;
 6952              		.loc 1 89 5 view .LVU2711
  89:../Common/IQMath/ti/_IQNasin_acos.c ****         ui8Status |= 1;
 6953              		.loc 1 89 8 is_stmt 0 view .LVU2712
 6954 0002 0028     		cmp	r0, #0
  89:../Common/IQMath/ti/_IQNasin_acos.c ****         ui8Status |= 1;
 6955              		.loc 1 89 8 view .LVU2713
 6956 0004 52DB     		blt	.L309
  72:../Common/IQMath/ti/_IQNasin_acos.c ****     uint_fast16_t index;
 6957              		.loc 1 72 13 view .LVU2714
 6958 0006 0024     		movs	r4, #0
 6959              	.LVL851:
 6960              	.L302:
  99:../Common/IQMath/ti/_IQNasin_acos.c ****         return 0;
 6961              		.loc 1 99 5 is_stmt 1 view .LVU2715
  99:../Common/IQMath/ti/_IQNasin_acos.c ****         return 0;
 6962              		.loc 1 99 8 is_stmt 0 view .LVU2716
 6963 0008 1028     		cmp	r0, #16
 6964 000a 58D8     		bhi	.L307
 104:../Common/IQMath/ti/_IQNasin_acos.c ****     
 6965              		.loc 1 104 5 is_stmt 1 view .LVU2717
 104:../Common/IQMath/ti/_IQNasin_acos.c ****     
 6966              		.loc 1 104 16 is_stmt 0 view .LVU2718
 6967 000c C006     		lsls	r0, r0, #27
 6968              	.LVL852:
 112:../Common/IQMath/ti/_IQNasin_acos.c ****     if (uiq31InputTemp < 0x40000000) {
 6969              		.loc 1 112 5 is_stmt 1 view .LVU2719
 112:../Common/IQMath/ti/_IQNasin_acos.c ****     if (uiq31InputTemp < 0x40000000) {
 6970              		.loc 1 112 20 is_stmt 0 view .LVU2720
 6971 000e C0F10043 		rsb	r3, r0, #-2147483648
 6972              	.LVL853:
 113:../Common/IQMath/ti/_IQNasin_acos.c ****         /* Halve the result. */
 6973              		.loc 1 113 5 is_stmt 1 view .LVU2721
 113:../Common/IQMath/ti/_IQNasin_acos.c ****         /* Halve the result. */
 6974              		.loc 1 113 8 is_stmt 0 view .LVU2722
 6975 0012 B3F1804F 		cmp	r3, #1073741824
 6976 0016 4CD3     		bcc	.L310
 6977              	.LVL854:
 6978              	.L304:
ARM GAS  C:\Users\57308\AppData\Local\Temp\cc4OkGld.s 			page 170


 125:../Common/IQMath/ti/_IQNasin_acos.c ****     
 6979              		.loc 1 125 5 is_stmt 1 view .LVU2723
 125:../Common/IQMath/ti/_IQNasin_acos.c ****     
 6980              		.loc 1 125 11 is_stmt 0 view .LVU2724
 6981 0018 830E     		lsrs	r3, r0, #26
 6982              	.LVL855:
 128:../Common/IQMath/ti/_IQNasin_acos.c ****     
 6983              		.loc 1 128 5 is_stmt 1 view .LVU2725
 128:../Common/IQMath/ti/_IQNasin_acos.c ****     
 6984              		.loc 1 128 17 is_stmt 0 view .LVU2726
 6985 001a 03EB8303 		add	r3, r3, r3, lsl #2
 6986              	.LVL856:
 128:../Common/IQMath/ti/_IQNasin_acos.c ****     
 6987              		.loc 1 128 17 view .LVU2727
 6988 001e 2949     		ldr	r1, .L311
 6989 0020 01EB8302 		add	r2, r1, r3, lsl #2
 6990              	.LVL857:
 136:../Common/IQMath/ti/_IQNasin_acos.c ****     
 6991              		.loc 1 136 5 is_stmt 1 view .LVU2728
 136:../Common/IQMath/ti/_IQNasin_acos.c ****     
 6992              		.loc 1 136 5 is_stmt 0 view .LVU2729
 6993              	.LBE625:
 6994              	.LBE624:
  28:../Common/IQMath/ti/./support/RTS_support.h **** }
 6995              		.loc 2 28 5 is_stmt 1 view .LVU2730
 6996              	.LBB636:
 6997              	.LBB634:
 145:../Common/IQMath/ti/_IQNasin_acos.c ****     
 6998              		.loc 1 145 5 view .LVU2731
 145:../Common/IQMath/ti/_IQNasin_acos.c ****     
 6999              		.loc 1 145 18 is_stmt 0 view .LVU2732
 7000 0024 51F82330 		ldr	r3, [r1, r3, lsl #2]
 7001              	.LVL858:
 7002              	.LBB626:
 7003              	.LBI626:
 233:../Common/IQMath/ti/./support/RTS_support.h **** {
 7004              		.loc 2 233 28 is_stmt 1 view .LVU2733
 7005              	.LBB627:
 7006              		.loc 2 235 5 view .LVU2734
 7007              		.loc 2 235 28 is_stmt 0 view .LVU2735
 7008 0028 4FEAE07C 		asr	ip, r0, #31
 7009              		.loc 2 235 49 view .LVU2736
 7010 002c D917     		asrs	r1, r3, #31
 7011              		.loc 2 235 47 view .LVU2737
 7012 002e 00FB01F1 		mul	r1, r0, r1
 7013 0032 03FB0C11 		mla	r1, r3, ip, r1
 7014 0036 A0FB033E 		umull	r3, lr, r0, r3
 7015              	.LVL859:
 7016              		.loc 2 235 47 view .LVU2738
 7017 003a 7144     		add	r1, r1, lr
 7018              		.loc 2 235 69 view .LVU2739
 7019 003c DB0F     		lsrs	r3, r3, #31
 7020 003e 43EA4103 		orr	r3, r3, r1, lsl #1
 7021              	.LVL860:
 7022              		.loc 2 235 69 view .LVU2740
 7023              	.LBE627:
 7024              	.LBE626:
ARM GAS  C:\Users\57308\AppData\Local\Temp\cc4OkGld.s 			page 171


 148:../Common/IQMath/ti/_IQNasin_acos.c ****     
 7025              		.loc 1 148 5 is_stmt 1 view .LVU2741
 148:../Common/IQMath/ti/_IQNasin_acos.c ****     
 7026              		.loc 1 148 31 is_stmt 0 view .LVU2742
 7027 0042 5168     		ldr	r1, [r2, #4]
 148:../Common/IQMath/ti/_IQNasin_acos.c ****     
 7028              		.loc 1 148 16 view .LVU2743
 7029 0044 0B44     		add	r3, r3, r1
 7030              	.LVL861:
 151:../Common/IQMath/ti/_IQNasin_acos.c ****     
 7031              		.loc 1 151 5 is_stmt 1 view .LVU2744
 7032              	.LBB628:
 7033              	.LBI628:
 233:../Common/IQMath/ti/./support/RTS_support.h **** {
 7034              		.loc 2 233 28 view .LVU2745
 7035              	.LBB629:
 7036              		.loc 2 235 5 view .LVU2746
 7037              		.loc 2 235 49 is_stmt 0 view .LVU2747
 7038 0046 D917     		asrs	r1, r3, #31
 7039              		.loc 2 235 47 view .LVU2748
 7040 0048 00FB01F1 		mul	r1, r0, r1
 7041 004c 03FB0C11 		mla	r1, r3, ip, r1
 7042 0050 A0FB033E 		umull	r3, lr, r0, r3
 7043              	.LVL862:
 7044              		.loc 2 235 47 view .LVU2749
 7045 0054 7144     		add	r1, r1, lr
 7046              		.loc 2 235 69 view .LVU2750
 7047 0056 DB0F     		lsrs	r3, r3, #31
 7048 0058 43EA4103 		orr	r3, r3, r1, lsl #1
 7049              	.LVL863:
 7050              		.loc 2 235 69 view .LVU2751
 7051              	.LBE629:
 7052              	.LBE628:
 154:../Common/IQMath/ti/_IQNasin_acos.c ****     
 7053              		.loc 1 154 5 is_stmt 1 view .LVU2752
 154:../Common/IQMath/ti/_IQNasin_acos.c ****     
 7054              		.loc 1 154 31 is_stmt 0 view .LVU2753
 7055 005c 9168     		ldr	r1, [r2, #8]
 154:../Common/IQMath/ti/_IQNasin_acos.c ****     
 7056              		.loc 1 154 16 view .LVU2754
 7057 005e 0B44     		add	r3, r3, r1
 7058              	.LVL864:
 157:../Common/IQMath/ti/_IQNasin_acos.c ****     
 7059              		.loc 1 157 5 is_stmt 1 view .LVU2755
 7060              	.LBB630:
 7061              	.LBI630:
 233:../Common/IQMath/ti/./support/RTS_support.h **** {
 7062              		.loc 2 233 28 view .LVU2756
 7063              	.LBB631:
 7064              		.loc 2 235 5 view .LVU2757
 7065              		.loc 2 235 49 is_stmt 0 view .LVU2758
 7066 0060 D917     		asrs	r1, r3, #31
 7067              		.loc 2 235 47 view .LVU2759
 7068 0062 00FB01F1 		mul	r1, r0, r1
 7069 0066 03FB0C11 		mla	r1, r3, ip, r1
 7070 006a A0FB033E 		umull	r3, lr, r0, r3
 7071              	.LVL865:
ARM GAS  C:\Users\57308\AppData\Local\Temp\cc4OkGld.s 			page 172


 7072              		.loc 2 235 47 view .LVU2760
 7073 006e 7144     		add	r1, r1, lr
 7074              		.loc 2 235 69 view .LVU2761
 7075 0070 DB0F     		lsrs	r3, r3, #31
 7076 0072 43EA4103 		orr	r3, r3, r1, lsl #1
 7077              	.LVL866:
 7078              		.loc 2 235 69 view .LVU2762
 7079              	.LBE631:
 7080              	.LBE630:
 160:../Common/IQMath/ti/_IQNasin_acos.c ****     
 7081              		.loc 1 160 5 is_stmt 1 view .LVU2763
 160:../Common/IQMath/ti/_IQNasin_acos.c ****     
 7082              		.loc 1 160 31 is_stmt 0 view .LVU2764
 7083 0076 D168     		ldr	r1, [r2, #12]
 160:../Common/IQMath/ti/_IQNasin_acos.c ****     
 7084              		.loc 1 160 16 view .LVU2765
 7085 0078 0B44     		add	r3, r3, r1
 7086              	.LVL867:
 163:../Common/IQMath/ti/_IQNasin_acos.c ****     
 7087              		.loc 1 163 5 is_stmt 1 view .LVU2766
 7088              	.LBB632:
 7089              	.LBI632:
 233:../Common/IQMath/ti/./support/RTS_support.h **** {
 7090              		.loc 2 233 28 view .LVU2767
 7091              	.LBB633:
 7092              		.loc 2 235 5 view .LVU2768
 7093              		.loc 2 235 49 is_stmt 0 view .LVU2769
 7094 007a D917     		asrs	r1, r3, #31
 7095              		.loc 2 235 47 view .LVU2770
 7096 007c 00FB01F1 		mul	r1, r0, r1
 7097 0080 03FB0C11 		mla	r1, r3, ip, r1
 7098 0084 A0FB0303 		umull	r0, r3, r0, r3
 7099              	.LVL868:
 7100              		.loc 2 235 47 view .LVU2771
 7101 0088 0B44     		add	r3, r3, r1
 7102              		.loc 2 235 69 view .LVU2772
 7103 008a C00F     		lsrs	r0, r0, #31
 7104 008c 40EA4300 		orr	r0, r0, r3, lsl #1
 7105              	.LVL869:
 7106              		.loc 2 235 69 view .LVU2773
 7107              	.LBE633:
 7108              	.LBE632:
 166:../Common/IQMath/ti/_IQNasin_acos.c ****     
 7109              		.loc 1 166 5 is_stmt 1 view .LVU2774
 166:../Common/IQMath/ti/_IQNasin_acos.c ****     
 7110              		.loc 1 166 31 is_stmt 0 view .LVU2775
 7111 0090 1369     		ldr	r3, [r2, #16]
 166:../Common/IQMath/ti/_IQNasin_acos.c ****     
 7112              		.loc 1 166 16 view .LVU2776
 7113 0092 1844     		add	r0, r0, r3
 7114              	.LVL870:
 172:../Common/IQMath/ti/_IQNasin_acos.c ****     
 7115              		.loc 1 172 5 is_stmt 1 view .LVU2777
 172:../Common/IQMath/ti/_IQNasin_acos.c ****     
 7116              		.loc 1 172 5 is_stmt 0 view .LVU2778
 7117              	.LBE634:
 7118              	.LBE636:
ARM GAS  C:\Users\57308\AppData\Local\Temp\cc4OkGld.s 			page 173


  72:../Common/IQMath/ti/./support/RTS_support.h **** }
 7119              		.loc 2 72 5 is_stmt 1 view .LVU2779
 7120              	.LBB637:
 7121              	.LBB635:
 175:../Common/IQMath/ti/_IQNasin_acos.c ****         /* asin(x) = pi/2 - 2*iq29Result */
 7122              		.loc 1 175 5 view .LVU2780
 175:../Common/IQMath/ti/_IQNasin_acos.c ****         /* asin(x) = pi/2 - 2*iq29Result */
 7123              		.loc 1 175 8 is_stmt 0 view .LVU2781
 7124 0094 14F0020F 		tst	r4, #2
 7125 0098 02D0     		beq	.L305
 177:../Common/IQMath/ti/_IQNasin_acos.c ****         iq29Result -= iq29_halfPi;      // this is equivalent to the above
 7126              		.loc 1 177 9 is_stmt 1 view .LVU2782
 7127              	.LVL871:
 178:../Common/IQMath/ti/_IQNasin_acos.c ****         iq29Result = -iq29Result;       // but avoids using temporary registers
 7128              		.loc 1 178 9 view .LVU2783
 179:../Common/IQMath/ti/_IQNasin_acos.c ****     }
 7129              		.loc 1 179 9 view .LVU2784
 179:../Common/IQMath/ti/_IQNasin_acos.c ****     }
 7130              		.loc 1 179 20 is_stmt 0 view .LVU2785
 7131 009a 0B4B     		ldr	r3, .L311+4
 7132 009c A3EB4000 		sub	r0, r3, r0, lsl #1
 7133              	.LVL872:
 7134              	.L305:
 183:../Common/IQMath/ti/_IQNasin_acos.c ****     
 7135              		.loc 1 183 5 is_stmt 1 view .LVU2786
 183:../Common/IQMath/ti/_IQNasin_acos.c ****     
 7136              		.loc 1 183 16 is_stmt 0 view .LVU2787
 7137 00a0 4016     		asrs	r0, r0, #25
 7138              	.LVL873:
 186:../Common/IQMath/ti/_IQNasin_acos.c ****         iq29Result = -iq29Result;
 7139              		.loc 1 186 5 is_stmt 1 view .LVU2788
 186:../Common/IQMath/ti/_IQNasin_acos.c ****         iq29Result = -iq29Result;
 7140              		.loc 1 186 8 is_stmt 0 view .LVU2789
 7141 00a2 14F0010F 		tst	r4, #1
 7142 00a6 0BD0     		beq	.L301
 187:../Common/IQMath/ti/_IQNasin_acos.c ****     }
 7143              		.loc 1 187 9 is_stmt 1 view .LVU2790
 187:../Common/IQMath/ti/_IQNasin_acos.c ****     }
 7144              		.loc 1 187 20 is_stmt 0 view .LVU2791
 7145 00a8 4042     		rsbs	r0, r0, #0
 7146              	.LVL874:
 187:../Common/IQMath/ti/_IQNasin_acos.c ****     }
 7147              		.loc 1 187 20 view .LVU2792
 7148 00aa 09E0     		b	.L301
 7149              	.LVL875:
 7150              	.L309:
  90:../Common/IQMath/ti/_IQNasin_acos.c ****         iqNInput = -iqNInput;
 7151              		.loc 1 90 9 is_stmt 1 view .LVU2793
  91:../Common/IQMath/ti/_IQNasin_acos.c ****     }
 7152              		.loc 1 91 9 view .LVU2794
  91:../Common/IQMath/ti/_IQNasin_acos.c ****     }
 7153              		.loc 1 91 18 is_stmt 0 view .LVU2795
 7154 00ac 4042     		rsbs	r0, r0, #0
 7155              	.LVL876:
  90:../Common/IQMath/ti/_IQNasin_acos.c ****         iqNInput = -iqNInput;
 7156              		.loc 1 90 19 view .LVU2796
 7157 00ae 0124     		movs	r4, #1
ARM GAS  C:\Users\57308\AppData\Local\Temp\cc4OkGld.s 			page 174


 7158 00b0 AAE7     		b	.L302
 7159              	.LVL877:
 7160              	.L310:
 115:../Common/IQMath/ti/_IQNasin_acos.c ****         
 7161              		.loc 1 115 9 is_stmt 1 view .LVU2797
 118:../Common/IQMath/ti/_IQNasin_acos.c ****         
 7162              		.loc 1 118 9 view .LVU2798
 118:../Common/IQMath/ti/_IQNasin_acos.c ****         
 7163              		.loc 1 118 22 is_stmt 0 view .LVU2799
 7164 00b2 5808     		lsrs	r0, r3, #1
 7165              	.LVL878:
 118:../Common/IQMath/ti/_IQNasin_acos.c ****         
 7166              		.loc 1 118 22 view .LVU2800
 7167 00b4 FFF7FEFF 		bl	_IQ31sqrt
 7168              	.LVL879:
 121:../Common/IQMath/ti/_IQNasin_acos.c ****     }
 7169              		.loc 1 121 9 is_stmt 1 view .LVU2801
 121:../Common/IQMath/ti/_IQNasin_acos.c ****     }
 7170              		.loc 1 121 19 is_stmt 0 view .LVU2802
 7171 00b8 44F00204 		orr	r4, r4, #2
 7172              	.LVL880:
 121:../Common/IQMath/ti/_IQNasin_acos.c ****     }
 7173              		.loc 1 121 19 view .LVU2803
 7174 00bc ACE7     		b	.L304
 7175              	.LVL881:
 7176              	.L307:
 100:../Common/IQMath/ti/_IQNasin_acos.c ****     }
 7177              		.loc 1 100 16 view .LVU2804
 7178 00be 0020     		movs	r0, #0
 7179              	.LVL882:
 7180              	.L301:
 100:../Common/IQMath/ti/_IQNasin_acos.c ****     }
 7181              		.loc 1 100 16 view .LVU2805
 7182              	.LBE635:
 7183              	.LBE637:
 479:../Common/IQMath/ti/_IQNasin_acos.c **** }
 7184              		.loc 1 479 1 view .LVU2806
 7185 00c0 10BD     		pop	{r4, pc}
 7186              	.L312:
 7187 00c2 00BF     		.align	2
 7188              	.L311:
 7189 00c4 00000000 		.word	_IQ29Asin_coeffs
 7190 00c8 A8F64332 		.word	843314856
 7191              		.cfi_endproc
 7192              	.LFE287:
 7194              		.section	.text._IQ3asin,"ax",%progbits
 7195              		.align	1
 7196              		.global	_IQ3asin
 7197              		.syntax unified
 7198              		.thumb
 7199              		.thumb_func
 7201              	_IQ3asin:
 7202              	.LVL883:
 7203              	.LFB288:
 480:../Common/IQMath/ti/_IQNasin_acos.c **** /**
 481:../Common/IQMath/ti/_IQNasin_acos.c ****  * @brief Computes the inverse sine of the IQ3 input.
 482:../Common/IQMath/ti/_IQNasin_acos.c ****  *
ARM GAS  C:\Users\57308\AppData\Local\Temp\cc4OkGld.s 			page 175


 483:../Common/IQMath/ti/_IQNasin_acos.c ****  * @param a               IQ3 type input.
 484:../Common/IQMath/ti/_IQNasin_acos.c ****  *
 485:../Common/IQMath/ti/_IQNasin_acos.c ****  * @return                IQ3 type result of inverse sine.
 486:../Common/IQMath/ti/_IQNasin_acos.c ****  */
 487:../Common/IQMath/ti/_IQNasin_acos.c **** int32_t _IQ3asin(int32_t a)
 488:../Common/IQMath/ti/_IQNasin_acos.c **** {
 7204              		.loc 1 488 1 is_stmt 1 view -0
 7205              		.cfi_startproc
 7206              		@ args = 0, pretend = 0, frame = 0
 7207              		@ frame_needed = 0, uses_anonymous_args = 0
 7208              		.loc 1 488 1 is_stmt 0 view .LVU2808
 7209 0000 10B5     		push	{r4, lr}
 7210              	.LCFI26:
 7211              		.cfi_def_cfa_offset 8
 7212              		.cfi_offset 4, -8
 7213              		.cfi_offset 14, -4
 489:../Common/IQMath/ti/_IQNasin_acos.c ****     return __IQNasin(a, 3);
 7214              		.loc 1 489 5 is_stmt 1 view .LVU2809
 7215              	.LVL884:
 7216              	.LBB648:
 7217              	.LBI648:
  70:../Common/IQMath/ti/_IQNasin_acos.c **** {
 7218              		.loc 1 70 30 view .LVU2810
 7219              	.LBB649:
  72:../Common/IQMath/ti/_IQNasin_acos.c ****     uint_fast16_t index;
 7220              		.loc 1 72 5 view .LVU2811
  73:../Common/IQMath/ti/_IQNasin_acos.c ****     uint_fast16_t ui16IntState;
 7221              		.loc 1 73 5 view .LVU2812
  74:../Common/IQMath/ti/_IQNasin_acos.c ****     uint_fast16_t ui16MPYState;
 7222              		.loc 1 74 5 view .LVU2813
  75:../Common/IQMath/ti/_IQNasin_acos.c ****     int_fast32_t iq29Result;
 7223              		.loc 1 75 5 view .LVU2814
  76:../Common/IQMath/ti/_IQNasin_acos.c ****     const int_fast32_t *piq29Coeffs;
 7224              		.loc 1 76 5 view .LVU2815
  77:../Common/IQMath/ti/_IQNasin_acos.c ****     uint_fast32_t uiq31Input;
 7225              		.loc 1 77 5 view .LVU2816
  78:../Common/IQMath/ti/_IQNasin_acos.c ****     uint_fast32_t uiq31InputTemp;
 7226              		.loc 1 78 5 view .LVU2817
  79:../Common/IQMath/ti/_IQNasin_acos.c ****     
 7227              		.loc 1 79 5 view .LVU2818
  89:../Common/IQMath/ti/_IQNasin_acos.c ****         ui8Status |= 1;
 7228              		.loc 1 89 5 view .LVU2819
  89:../Common/IQMath/ti/_IQNasin_acos.c ****         ui8Status |= 1;
 7229              		.loc 1 89 8 is_stmt 0 view .LVU2820
 7230 0002 0028     		cmp	r0, #0
  89:../Common/IQMath/ti/_IQNasin_acos.c ****         ui8Status |= 1;
 7231              		.loc 1 89 8 view .LVU2821
 7232 0004 52DB     		blt	.L321
  72:../Common/IQMath/ti/_IQNasin_acos.c ****     uint_fast16_t index;
 7233              		.loc 1 72 13 view .LVU2822
 7234 0006 0024     		movs	r4, #0
 7235              	.LVL885:
 7236              	.L314:
  99:../Common/IQMath/ti/_IQNasin_acos.c ****         return 0;
 7237              		.loc 1 99 5 is_stmt 1 view .LVU2823
  99:../Common/IQMath/ti/_IQNasin_acos.c ****         return 0;
 7238              		.loc 1 99 8 is_stmt 0 view .LVU2824
ARM GAS  C:\Users\57308\AppData\Local\Temp\cc4OkGld.s 			page 176


 7239 0008 0828     		cmp	r0, #8
 7240 000a 58D8     		bhi	.L319
 104:../Common/IQMath/ti/_IQNasin_acos.c ****     
 7241              		.loc 1 104 5 is_stmt 1 view .LVU2825
 104:../Common/IQMath/ti/_IQNasin_acos.c ****     
 7242              		.loc 1 104 16 is_stmt 0 view .LVU2826
 7243 000c 0007     		lsls	r0, r0, #28
 7244              	.LVL886:
 112:../Common/IQMath/ti/_IQNasin_acos.c ****     if (uiq31InputTemp < 0x40000000) {
 7245              		.loc 1 112 5 is_stmt 1 view .LVU2827
 112:../Common/IQMath/ti/_IQNasin_acos.c ****     if (uiq31InputTemp < 0x40000000) {
 7246              		.loc 1 112 20 is_stmt 0 view .LVU2828
 7247 000e C0F10043 		rsb	r3, r0, #-2147483648
 7248              	.LVL887:
 113:../Common/IQMath/ti/_IQNasin_acos.c ****         /* Halve the result. */
 7249              		.loc 1 113 5 is_stmt 1 view .LVU2829
 113:../Common/IQMath/ti/_IQNasin_acos.c ****         /* Halve the result. */
 7250              		.loc 1 113 8 is_stmt 0 view .LVU2830
 7251 0012 B3F1804F 		cmp	r3, #1073741824
 7252 0016 4CD3     		bcc	.L322
 7253              	.LVL888:
 7254              	.L316:
 125:../Common/IQMath/ti/_IQNasin_acos.c ****     
 7255              		.loc 1 125 5 is_stmt 1 view .LVU2831
 125:../Common/IQMath/ti/_IQNasin_acos.c ****     
 7256              		.loc 1 125 11 is_stmt 0 view .LVU2832
 7257 0018 830E     		lsrs	r3, r0, #26
 7258              	.LVL889:
 128:../Common/IQMath/ti/_IQNasin_acos.c ****     
 7259              		.loc 1 128 5 is_stmt 1 view .LVU2833
 128:../Common/IQMath/ti/_IQNasin_acos.c ****     
 7260              		.loc 1 128 17 is_stmt 0 view .LVU2834
 7261 001a 03EB8303 		add	r3, r3, r3, lsl #2
 7262              	.LVL890:
 128:../Common/IQMath/ti/_IQNasin_acos.c ****     
 7263              		.loc 1 128 17 view .LVU2835
 7264 001e 2949     		ldr	r1, .L323
 7265 0020 01EB8302 		add	r2, r1, r3, lsl #2
 7266              	.LVL891:
 136:../Common/IQMath/ti/_IQNasin_acos.c ****     
 7267              		.loc 1 136 5 is_stmt 1 view .LVU2836
 136:../Common/IQMath/ti/_IQNasin_acos.c ****     
 7268              		.loc 1 136 5 is_stmt 0 view .LVU2837
 7269              	.LBE649:
 7270              	.LBE648:
  28:../Common/IQMath/ti/./support/RTS_support.h **** }
 7271              		.loc 2 28 5 is_stmt 1 view .LVU2838
 7272              	.LBB660:
 7273              	.LBB658:
 145:../Common/IQMath/ti/_IQNasin_acos.c ****     
 7274              		.loc 1 145 5 view .LVU2839
 145:../Common/IQMath/ti/_IQNasin_acos.c ****     
 7275              		.loc 1 145 18 is_stmt 0 view .LVU2840
 7276 0024 51F82330 		ldr	r3, [r1, r3, lsl #2]
 7277              	.LVL892:
 7278              	.LBB650:
 7279              	.LBI650:
ARM GAS  C:\Users\57308\AppData\Local\Temp\cc4OkGld.s 			page 177


 233:../Common/IQMath/ti/./support/RTS_support.h **** {
 7280              		.loc 2 233 28 is_stmt 1 view .LVU2841
 7281              	.LBB651:
 7282              		.loc 2 235 5 view .LVU2842
 7283              		.loc 2 235 28 is_stmt 0 view .LVU2843
 7284 0028 4FEAE07C 		asr	ip, r0, #31
 7285              		.loc 2 235 49 view .LVU2844
 7286 002c D917     		asrs	r1, r3, #31
 7287              		.loc 2 235 47 view .LVU2845
 7288 002e 00FB01F1 		mul	r1, r0, r1
 7289 0032 03FB0C11 		mla	r1, r3, ip, r1
 7290 0036 A0FB033E 		umull	r3, lr, r0, r3
 7291              	.LVL893:
 7292              		.loc 2 235 47 view .LVU2846
 7293 003a 7144     		add	r1, r1, lr
 7294              		.loc 2 235 69 view .LVU2847
 7295 003c DB0F     		lsrs	r3, r3, #31
 7296 003e 43EA4103 		orr	r3, r3, r1, lsl #1
 7297              	.LVL894:
 7298              		.loc 2 235 69 view .LVU2848
 7299              	.LBE651:
 7300              	.LBE650:
 148:../Common/IQMath/ti/_IQNasin_acos.c ****     
 7301              		.loc 1 148 5 is_stmt 1 view .LVU2849
 148:../Common/IQMath/ti/_IQNasin_acos.c ****     
 7302              		.loc 1 148 31 is_stmt 0 view .LVU2850
 7303 0042 5168     		ldr	r1, [r2, #4]
 148:../Common/IQMath/ti/_IQNasin_acos.c ****     
 7304              		.loc 1 148 16 view .LVU2851
 7305 0044 0B44     		add	r3, r3, r1
 7306              	.LVL895:
 151:../Common/IQMath/ti/_IQNasin_acos.c ****     
 7307              		.loc 1 151 5 is_stmt 1 view .LVU2852
 7308              	.LBB652:
 7309              	.LBI652:
 233:../Common/IQMath/ti/./support/RTS_support.h **** {
 7310              		.loc 2 233 28 view .LVU2853
 7311              	.LBB653:
 7312              		.loc 2 235 5 view .LVU2854
 7313              		.loc 2 235 49 is_stmt 0 view .LVU2855
 7314 0046 D917     		asrs	r1, r3, #31
 7315              		.loc 2 235 47 view .LVU2856
 7316 0048 00FB01F1 		mul	r1, r0, r1
 7317 004c 03FB0C11 		mla	r1, r3, ip, r1
 7318 0050 A0FB033E 		umull	r3, lr, r0, r3
 7319              	.LVL896:
 7320              		.loc 2 235 47 view .LVU2857
 7321 0054 7144     		add	r1, r1, lr
 7322              		.loc 2 235 69 view .LVU2858
 7323 0056 DB0F     		lsrs	r3, r3, #31
 7324 0058 43EA4103 		orr	r3, r3, r1, lsl #1
 7325              	.LVL897:
 7326              		.loc 2 235 69 view .LVU2859
 7327              	.LBE653:
 7328              	.LBE652:
 154:../Common/IQMath/ti/_IQNasin_acos.c ****     
 7329              		.loc 1 154 5 is_stmt 1 view .LVU2860
ARM GAS  C:\Users\57308\AppData\Local\Temp\cc4OkGld.s 			page 178


 154:../Common/IQMath/ti/_IQNasin_acos.c ****     
 7330              		.loc 1 154 31 is_stmt 0 view .LVU2861
 7331 005c 9168     		ldr	r1, [r2, #8]
 154:../Common/IQMath/ti/_IQNasin_acos.c ****     
 7332              		.loc 1 154 16 view .LVU2862
 7333 005e 0B44     		add	r3, r3, r1
 7334              	.LVL898:
 157:../Common/IQMath/ti/_IQNasin_acos.c ****     
 7335              		.loc 1 157 5 is_stmt 1 view .LVU2863
 7336              	.LBB654:
 7337              	.LBI654:
 233:../Common/IQMath/ti/./support/RTS_support.h **** {
 7338              		.loc 2 233 28 view .LVU2864
 7339              	.LBB655:
 7340              		.loc 2 235 5 view .LVU2865
 7341              		.loc 2 235 49 is_stmt 0 view .LVU2866
 7342 0060 D917     		asrs	r1, r3, #31
 7343              		.loc 2 235 47 view .LVU2867
 7344 0062 00FB01F1 		mul	r1, r0, r1
 7345 0066 03FB0C11 		mla	r1, r3, ip, r1
 7346 006a A0FB033E 		umull	r3, lr, r0, r3
 7347              	.LVL899:
 7348              		.loc 2 235 47 view .LVU2868
 7349 006e 7144     		add	r1, r1, lr
 7350              		.loc 2 235 69 view .LVU2869
 7351 0070 DB0F     		lsrs	r3, r3, #31
 7352 0072 43EA4103 		orr	r3, r3, r1, lsl #1
 7353              	.LVL900:
 7354              		.loc 2 235 69 view .LVU2870
 7355              	.LBE655:
 7356              	.LBE654:
 160:../Common/IQMath/ti/_IQNasin_acos.c ****     
 7357              		.loc 1 160 5 is_stmt 1 view .LVU2871
 160:../Common/IQMath/ti/_IQNasin_acos.c ****     
 7358              		.loc 1 160 31 is_stmt 0 view .LVU2872
 7359 0076 D168     		ldr	r1, [r2, #12]
 160:../Common/IQMath/ti/_IQNasin_acos.c ****     
 7360              		.loc 1 160 16 view .LVU2873
 7361 0078 0B44     		add	r3, r3, r1
 7362              	.LVL901:
 163:../Common/IQMath/ti/_IQNasin_acos.c ****     
 7363              		.loc 1 163 5 is_stmt 1 view .LVU2874
 7364              	.LBB656:
 7365              	.LBI656:
 233:../Common/IQMath/ti/./support/RTS_support.h **** {
 7366              		.loc 2 233 28 view .LVU2875
 7367              	.LBB657:
 7368              		.loc 2 235 5 view .LVU2876
 7369              		.loc 2 235 49 is_stmt 0 view .LVU2877
 7370 007a D917     		asrs	r1, r3, #31
 7371              		.loc 2 235 47 view .LVU2878
 7372 007c 00FB01F1 		mul	r1, r0, r1
 7373 0080 03FB0C11 		mla	r1, r3, ip, r1
 7374 0084 A0FB0303 		umull	r0, r3, r0, r3
 7375              	.LVL902:
 7376              		.loc 2 235 47 view .LVU2879
 7377 0088 0B44     		add	r3, r3, r1
ARM GAS  C:\Users\57308\AppData\Local\Temp\cc4OkGld.s 			page 179


 7378              		.loc 2 235 69 view .LVU2880
 7379 008a C00F     		lsrs	r0, r0, #31
 7380 008c 40EA4300 		orr	r0, r0, r3, lsl #1
 7381              	.LVL903:
 7382              		.loc 2 235 69 view .LVU2881
 7383              	.LBE657:
 7384              	.LBE656:
 166:../Common/IQMath/ti/_IQNasin_acos.c ****     
 7385              		.loc 1 166 5 is_stmt 1 view .LVU2882
 166:../Common/IQMath/ti/_IQNasin_acos.c ****     
 7386              		.loc 1 166 31 is_stmt 0 view .LVU2883
 7387 0090 1369     		ldr	r3, [r2, #16]
 166:../Common/IQMath/ti/_IQNasin_acos.c ****     
 7388              		.loc 1 166 16 view .LVU2884
 7389 0092 1844     		add	r0, r0, r3
 7390              	.LVL904:
 172:../Common/IQMath/ti/_IQNasin_acos.c ****     
 7391              		.loc 1 172 5 is_stmt 1 view .LVU2885
 172:../Common/IQMath/ti/_IQNasin_acos.c ****     
 7392              		.loc 1 172 5 is_stmt 0 view .LVU2886
 7393              	.LBE658:
 7394              	.LBE660:
  72:../Common/IQMath/ti/./support/RTS_support.h **** }
 7395              		.loc 2 72 5 is_stmt 1 view .LVU2887
 7396              	.LBB661:
 7397              	.LBB659:
 175:../Common/IQMath/ti/_IQNasin_acos.c ****         /* asin(x) = pi/2 - 2*iq29Result */
 7398              		.loc 1 175 5 view .LVU2888
 175:../Common/IQMath/ti/_IQNasin_acos.c ****         /* asin(x) = pi/2 - 2*iq29Result */
 7399              		.loc 1 175 8 is_stmt 0 view .LVU2889
 7400 0094 14F0020F 		tst	r4, #2
 7401 0098 02D0     		beq	.L317
 177:../Common/IQMath/ti/_IQNasin_acos.c ****         iq29Result -= iq29_halfPi;      // this is equivalent to the above
 7402              		.loc 1 177 9 is_stmt 1 view .LVU2890
 7403              	.LVL905:
 178:../Common/IQMath/ti/_IQNasin_acos.c ****         iq29Result = -iq29Result;       // but avoids using temporary registers
 7404              		.loc 1 178 9 view .LVU2891
 179:../Common/IQMath/ti/_IQNasin_acos.c ****     }
 7405              		.loc 1 179 9 view .LVU2892
 179:../Common/IQMath/ti/_IQNasin_acos.c ****     }
 7406              		.loc 1 179 20 is_stmt 0 view .LVU2893
 7407 009a 0B4B     		ldr	r3, .L323+4
 7408 009c A3EB4000 		sub	r0, r3, r0, lsl #1
 7409              	.LVL906:
 7410              	.L317:
 183:../Common/IQMath/ti/_IQNasin_acos.c ****     
 7411              		.loc 1 183 5 is_stmt 1 view .LVU2894
 183:../Common/IQMath/ti/_IQNasin_acos.c ****     
 7412              		.loc 1 183 16 is_stmt 0 view .LVU2895
 7413 00a0 8016     		asrs	r0, r0, #26
 7414              	.LVL907:
 186:../Common/IQMath/ti/_IQNasin_acos.c ****         iq29Result = -iq29Result;
 7415              		.loc 1 186 5 is_stmt 1 view .LVU2896
 186:../Common/IQMath/ti/_IQNasin_acos.c ****         iq29Result = -iq29Result;
 7416              		.loc 1 186 8 is_stmt 0 view .LVU2897
 7417 00a2 14F0010F 		tst	r4, #1
 7418 00a6 0BD0     		beq	.L313
ARM GAS  C:\Users\57308\AppData\Local\Temp\cc4OkGld.s 			page 180


 187:../Common/IQMath/ti/_IQNasin_acos.c ****     }
 7419              		.loc 1 187 9 is_stmt 1 view .LVU2898
 187:../Common/IQMath/ti/_IQNasin_acos.c ****     }
 7420              		.loc 1 187 20 is_stmt 0 view .LVU2899
 7421 00a8 4042     		rsbs	r0, r0, #0
 7422              	.LVL908:
 187:../Common/IQMath/ti/_IQNasin_acos.c ****     }
 7423              		.loc 1 187 20 view .LVU2900
 7424 00aa 09E0     		b	.L313
 7425              	.LVL909:
 7426              	.L321:
  90:../Common/IQMath/ti/_IQNasin_acos.c ****         iqNInput = -iqNInput;
 7427              		.loc 1 90 9 is_stmt 1 view .LVU2901
  91:../Common/IQMath/ti/_IQNasin_acos.c ****     }
 7428              		.loc 1 91 9 view .LVU2902
  91:../Common/IQMath/ti/_IQNasin_acos.c ****     }
 7429              		.loc 1 91 18 is_stmt 0 view .LVU2903
 7430 00ac 4042     		rsbs	r0, r0, #0
 7431              	.LVL910:
  90:../Common/IQMath/ti/_IQNasin_acos.c ****         iqNInput = -iqNInput;
 7432              		.loc 1 90 19 view .LVU2904
 7433 00ae 0124     		movs	r4, #1
 7434 00b0 AAE7     		b	.L314
 7435              	.LVL911:
 7436              	.L322:
 115:../Common/IQMath/ti/_IQNasin_acos.c ****         
 7437              		.loc 1 115 9 is_stmt 1 view .LVU2905
 118:../Common/IQMath/ti/_IQNasin_acos.c ****         
 7438              		.loc 1 118 9 view .LVU2906
 118:../Common/IQMath/ti/_IQNasin_acos.c ****         
 7439              		.loc 1 118 22 is_stmt 0 view .LVU2907
 7440 00b2 5808     		lsrs	r0, r3, #1
 7441              	.LVL912:
 118:../Common/IQMath/ti/_IQNasin_acos.c ****         
 7442              		.loc 1 118 22 view .LVU2908
 7443 00b4 FFF7FEFF 		bl	_IQ31sqrt
 7444              	.LVL913:
 121:../Common/IQMath/ti/_IQNasin_acos.c ****     }
 7445              		.loc 1 121 9 is_stmt 1 view .LVU2909
 121:../Common/IQMath/ti/_IQNasin_acos.c ****     }
 7446              		.loc 1 121 19 is_stmt 0 view .LVU2910
 7447 00b8 44F00204 		orr	r4, r4, #2
 7448              	.LVL914:
 121:../Common/IQMath/ti/_IQNasin_acos.c ****     }
 7449              		.loc 1 121 19 view .LVU2911
 7450 00bc ACE7     		b	.L316
 7451              	.LVL915:
 7452              	.L319:
 100:../Common/IQMath/ti/_IQNasin_acos.c ****     }
 7453              		.loc 1 100 16 view .LVU2912
 7454 00be 0020     		movs	r0, #0
 7455              	.LVL916:
 7456              	.L313:
 100:../Common/IQMath/ti/_IQNasin_acos.c ****     }
 7457              		.loc 1 100 16 view .LVU2913
 7458              	.LBE659:
 7459              	.LBE661:
ARM GAS  C:\Users\57308\AppData\Local\Temp\cc4OkGld.s 			page 181


 490:../Common/IQMath/ti/_IQNasin_acos.c **** }
 7460              		.loc 1 490 1 view .LVU2914
 7461 00c0 10BD     		pop	{r4, pc}
 7462              	.L324:
 7463 00c2 00BF     		.align	2
 7464              	.L323:
 7465 00c4 00000000 		.word	_IQ29Asin_coeffs
 7466 00c8 A8F64332 		.word	843314856
 7467              		.cfi_endproc
 7468              	.LFE288:
 7470              		.section	.text._IQ2asin,"ax",%progbits
 7471              		.align	1
 7472              		.global	_IQ2asin
 7473              		.syntax unified
 7474              		.thumb
 7475              		.thumb_func
 7477              	_IQ2asin:
 7478              	.LVL917:
 7479              	.LFB289:
 491:../Common/IQMath/ti/_IQNasin_acos.c **** /**
 492:../Common/IQMath/ti/_IQNasin_acos.c ****  * @brief Computes the inverse sine of the IQ2 input.
 493:../Common/IQMath/ti/_IQNasin_acos.c ****  *
 494:../Common/IQMath/ti/_IQNasin_acos.c ****  * @param a               IQ2 type input.
 495:../Common/IQMath/ti/_IQNasin_acos.c ****  *
 496:../Common/IQMath/ti/_IQNasin_acos.c ****  * @return                IQ2 type result of inverse sine.
 497:../Common/IQMath/ti/_IQNasin_acos.c ****  */
 498:../Common/IQMath/ti/_IQNasin_acos.c **** int32_t _IQ2asin(int32_t a)
 499:../Common/IQMath/ti/_IQNasin_acos.c **** {
 7480              		.loc 1 499 1 is_stmt 1 view -0
 7481              		.cfi_startproc
 7482              		@ args = 0, pretend = 0, frame = 0
 7483              		@ frame_needed = 0, uses_anonymous_args = 0
 7484              		.loc 1 499 1 is_stmt 0 view .LVU2916
 7485 0000 10B5     		push	{r4, lr}
 7486              	.LCFI27:
 7487              		.cfi_def_cfa_offset 8
 7488              		.cfi_offset 4, -8
 7489              		.cfi_offset 14, -4
 500:../Common/IQMath/ti/_IQNasin_acos.c ****     return __IQNasin(a, 2);
 7490              		.loc 1 500 5 is_stmt 1 view .LVU2917
 7491              	.LVL918:
 7492              	.LBB672:
 7493              	.LBI672:
  70:../Common/IQMath/ti/_IQNasin_acos.c **** {
 7494              		.loc 1 70 30 view .LVU2918
 7495              	.LBB673:
  72:../Common/IQMath/ti/_IQNasin_acos.c ****     uint_fast16_t index;
 7496              		.loc 1 72 5 view .LVU2919
  73:../Common/IQMath/ti/_IQNasin_acos.c ****     uint_fast16_t ui16IntState;
 7497              		.loc 1 73 5 view .LVU2920
  74:../Common/IQMath/ti/_IQNasin_acos.c ****     uint_fast16_t ui16MPYState;
 7498              		.loc 1 74 5 view .LVU2921
  75:../Common/IQMath/ti/_IQNasin_acos.c ****     int_fast32_t iq29Result;
 7499              		.loc 1 75 5 view .LVU2922
  76:../Common/IQMath/ti/_IQNasin_acos.c ****     const int_fast32_t *piq29Coeffs;
 7500              		.loc 1 76 5 view .LVU2923
  77:../Common/IQMath/ti/_IQNasin_acos.c ****     uint_fast32_t uiq31Input;
ARM GAS  C:\Users\57308\AppData\Local\Temp\cc4OkGld.s 			page 182


 7501              		.loc 1 77 5 view .LVU2924
  78:../Common/IQMath/ti/_IQNasin_acos.c ****     uint_fast32_t uiq31InputTemp;
 7502              		.loc 1 78 5 view .LVU2925
  79:../Common/IQMath/ti/_IQNasin_acos.c ****     
 7503              		.loc 1 79 5 view .LVU2926
  89:../Common/IQMath/ti/_IQNasin_acos.c ****         ui8Status |= 1;
 7504              		.loc 1 89 5 view .LVU2927
  89:../Common/IQMath/ti/_IQNasin_acos.c ****         ui8Status |= 1;
 7505              		.loc 1 89 8 is_stmt 0 view .LVU2928
 7506 0002 0028     		cmp	r0, #0
  89:../Common/IQMath/ti/_IQNasin_acos.c ****         ui8Status |= 1;
 7507              		.loc 1 89 8 view .LVU2929
 7508 0004 52DB     		blt	.L333
  72:../Common/IQMath/ti/_IQNasin_acos.c ****     uint_fast16_t index;
 7509              		.loc 1 72 13 view .LVU2930
 7510 0006 0024     		movs	r4, #0
 7511              	.LVL919:
 7512              	.L326:
  99:../Common/IQMath/ti/_IQNasin_acos.c ****         return 0;
 7513              		.loc 1 99 5 is_stmt 1 view .LVU2931
  99:../Common/IQMath/ti/_IQNasin_acos.c ****         return 0;
 7514              		.loc 1 99 8 is_stmt 0 view .LVU2932
 7515 0008 0428     		cmp	r0, #4
 7516 000a 58D8     		bhi	.L331
 104:../Common/IQMath/ti/_IQNasin_acos.c ****     
 7517              		.loc 1 104 5 is_stmt 1 view .LVU2933
 104:../Common/IQMath/ti/_IQNasin_acos.c ****     
 7518              		.loc 1 104 16 is_stmt 0 view .LVU2934
 7519 000c 4007     		lsls	r0, r0, #29
 7520              	.LVL920:
 112:../Common/IQMath/ti/_IQNasin_acos.c ****     if (uiq31InputTemp < 0x40000000) {
 7521              		.loc 1 112 5 is_stmt 1 view .LVU2935
 112:../Common/IQMath/ti/_IQNasin_acos.c ****     if (uiq31InputTemp < 0x40000000) {
 7522              		.loc 1 112 20 is_stmt 0 view .LVU2936
 7523 000e C0F10043 		rsb	r3, r0, #-2147483648
 7524              	.LVL921:
 113:../Common/IQMath/ti/_IQNasin_acos.c ****         /* Halve the result. */
 7525              		.loc 1 113 5 is_stmt 1 view .LVU2937
 113:../Common/IQMath/ti/_IQNasin_acos.c ****         /* Halve the result. */
 7526              		.loc 1 113 8 is_stmt 0 view .LVU2938
 7527 0012 B3F1804F 		cmp	r3, #1073741824
 7528 0016 4CD3     		bcc	.L334
 7529              	.LVL922:
 7530              	.L328:
 125:../Common/IQMath/ti/_IQNasin_acos.c ****     
 7531              		.loc 1 125 5 is_stmt 1 view .LVU2939
 125:../Common/IQMath/ti/_IQNasin_acos.c ****     
 7532              		.loc 1 125 11 is_stmt 0 view .LVU2940
 7533 0018 830E     		lsrs	r3, r0, #26
 7534              	.LVL923:
 128:../Common/IQMath/ti/_IQNasin_acos.c ****     
 7535              		.loc 1 128 5 is_stmt 1 view .LVU2941
 128:../Common/IQMath/ti/_IQNasin_acos.c ****     
 7536              		.loc 1 128 17 is_stmt 0 view .LVU2942
 7537 001a 03EB8303 		add	r3, r3, r3, lsl #2
 7538              	.LVL924:
 128:../Common/IQMath/ti/_IQNasin_acos.c ****     
ARM GAS  C:\Users\57308\AppData\Local\Temp\cc4OkGld.s 			page 183


 7539              		.loc 1 128 17 view .LVU2943
 7540 001e 2949     		ldr	r1, .L335
 7541 0020 01EB8302 		add	r2, r1, r3, lsl #2
 7542              	.LVL925:
 136:../Common/IQMath/ti/_IQNasin_acos.c ****     
 7543              		.loc 1 136 5 is_stmt 1 view .LVU2944
 136:../Common/IQMath/ti/_IQNasin_acos.c ****     
 7544              		.loc 1 136 5 is_stmt 0 view .LVU2945
 7545              	.LBE673:
 7546              	.LBE672:
  28:../Common/IQMath/ti/./support/RTS_support.h **** }
 7547              		.loc 2 28 5 is_stmt 1 view .LVU2946
 7548              	.LBB684:
 7549              	.LBB682:
 145:../Common/IQMath/ti/_IQNasin_acos.c ****     
 7550              		.loc 1 145 5 view .LVU2947
 145:../Common/IQMath/ti/_IQNasin_acos.c ****     
 7551              		.loc 1 145 18 is_stmt 0 view .LVU2948
 7552 0024 51F82330 		ldr	r3, [r1, r3, lsl #2]
 7553              	.LVL926:
 7554              	.LBB674:
 7555              	.LBI674:
 233:../Common/IQMath/ti/./support/RTS_support.h **** {
 7556              		.loc 2 233 28 is_stmt 1 view .LVU2949
 7557              	.LBB675:
 7558              		.loc 2 235 5 view .LVU2950
 7559              		.loc 2 235 28 is_stmt 0 view .LVU2951
 7560 0028 4FEAE07C 		asr	ip, r0, #31
 7561              		.loc 2 235 49 view .LVU2952
 7562 002c D917     		asrs	r1, r3, #31
 7563              		.loc 2 235 47 view .LVU2953
 7564 002e 00FB01F1 		mul	r1, r0, r1
 7565 0032 03FB0C11 		mla	r1, r3, ip, r1
 7566 0036 A0FB033E 		umull	r3, lr, r0, r3
 7567              	.LVL927:
 7568              		.loc 2 235 47 view .LVU2954
 7569 003a 7144     		add	r1, r1, lr
 7570              		.loc 2 235 69 view .LVU2955
 7571 003c DB0F     		lsrs	r3, r3, #31
 7572 003e 43EA4103 		orr	r3, r3, r1, lsl #1
 7573              	.LVL928:
 7574              		.loc 2 235 69 view .LVU2956
 7575              	.LBE675:
 7576              	.LBE674:
 148:../Common/IQMath/ti/_IQNasin_acos.c ****     
 7577              		.loc 1 148 5 is_stmt 1 view .LVU2957
 148:../Common/IQMath/ti/_IQNasin_acos.c ****     
 7578              		.loc 1 148 31 is_stmt 0 view .LVU2958
 7579 0042 5168     		ldr	r1, [r2, #4]
 148:../Common/IQMath/ti/_IQNasin_acos.c ****     
 7580              		.loc 1 148 16 view .LVU2959
 7581 0044 0B44     		add	r3, r3, r1
 7582              	.LVL929:
 151:../Common/IQMath/ti/_IQNasin_acos.c ****     
 7583              		.loc 1 151 5 is_stmt 1 view .LVU2960
 7584              	.LBB676:
 7585              	.LBI676:
ARM GAS  C:\Users\57308\AppData\Local\Temp\cc4OkGld.s 			page 184


 233:../Common/IQMath/ti/./support/RTS_support.h **** {
 7586              		.loc 2 233 28 view .LVU2961
 7587              	.LBB677:
 7588              		.loc 2 235 5 view .LVU2962
 7589              		.loc 2 235 49 is_stmt 0 view .LVU2963
 7590 0046 D917     		asrs	r1, r3, #31
 7591              		.loc 2 235 47 view .LVU2964
 7592 0048 00FB01F1 		mul	r1, r0, r1
 7593 004c 03FB0C11 		mla	r1, r3, ip, r1
 7594 0050 A0FB033E 		umull	r3, lr, r0, r3
 7595              	.LVL930:
 7596              		.loc 2 235 47 view .LVU2965
 7597 0054 7144     		add	r1, r1, lr
 7598              		.loc 2 235 69 view .LVU2966
 7599 0056 DB0F     		lsrs	r3, r3, #31
 7600 0058 43EA4103 		orr	r3, r3, r1, lsl #1
 7601              	.LVL931:
 7602              		.loc 2 235 69 view .LVU2967
 7603              	.LBE677:
 7604              	.LBE676:
 154:../Common/IQMath/ti/_IQNasin_acos.c ****     
 7605              		.loc 1 154 5 is_stmt 1 view .LVU2968
 154:../Common/IQMath/ti/_IQNasin_acos.c ****     
 7606              		.loc 1 154 31 is_stmt 0 view .LVU2969
 7607 005c 9168     		ldr	r1, [r2, #8]
 154:../Common/IQMath/ti/_IQNasin_acos.c ****     
 7608              		.loc 1 154 16 view .LVU2970
 7609 005e 0B44     		add	r3, r3, r1
 7610              	.LVL932:
 157:../Common/IQMath/ti/_IQNasin_acos.c ****     
 7611              		.loc 1 157 5 is_stmt 1 view .LVU2971
 7612              	.LBB678:
 7613              	.LBI678:
 233:../Common/IQMath/ti/./support/RTS_support.h **** {
 7614              		.loc 2 233 28 view .LVU2972
 7615              	.LBB679:
 7616              		.loc 2 235 5 view .LVU2973
 7617              		.loc 2 235 49 is_stmt 0 view .LVU2974
 7618 0060 D917     		asrs	r1, r3, #31
 7619              		.loc 2 235 47 view .LVU2975
 7620 0062 00FB01F1 		mul	r1, r0, r1
 7621 0066 03FB0C11 		mla	r1, r3, ip, r1
 7622 006a A0FB033E 		umull	r3, lr, r0, r3
 7623              	.LVL933:
 7624              		.loc 2 235 47 view .LVU2976
 7625 006e 7144     		add	r1, r1, lr
 7626              		.loc 2 235 69 view .LVU2977
 7627 0070 DB0F     		lsrs	r3, r3, #31
 7628 0072 43EA4103 		orr	r3, r3, r1, lsl #1
 7629              	.LVL934:
 7630              		.loc 2 235 69 view .LVU2978
 7631              	.LBE679:
 7632              	.LBE678:
 160:../Common/IQMath/ti/_IQNasin_acos.c ****     
 7633              		.loc 1 160 5 is_stmt 1 view .LVU2979
 160:../Common/IQMath/ti/_IQNasin_acos.c ****     
 7634              		.loc 1 160 31 is_stmt 0 view .LVU2980
ARM GAS  C:\Users\57308\AppData\Local\Temp\cc4OkGld.s 			page 185


 7635 0076 D168     		ldr	r1, [r2, #12]
 160:../Common/IQMath/ti/_IQNasin_acos.c ****     
 7636              		.loc 1 160 16 view .LVU2981
 7637 0078 0B44     		add	r3, r3, r1
 7638              	.LVL935:
 163:../Common/IQMath/ti/_IQNasin_acos.c ****     
 7639              		.loc 1 163 5 is_stmt 1 view .LVU2982
 7640              	.LBB680:
 7641              	.LBI680:
 233:../Common/IQMath/ti/./support/RTS_support.h **** {
 7642              		.loc 2 233 28 view .LVU2983
 7643              	.LBB681:
 7644              		.loc 2 235 5 view .LVU2984
 7645              		.loc 2 235 49 is_stmt 0 view .LVU2985
 7646 007a D917     		asrs	r1, r3, #31
 7647              		.loc 2 235 47 view .LVU2986
 7648 007c 00FB01F1 		mul	r1, r0, r1
 7649 0080 03FB0C11 		mla	r1, r3, ip, r1
 7650 0084 A0FB0303 		umull	r0, r3, r0, r3
 7651              	.LVL936:
 7652              		.loc 2 235 47 view .LVU2987
 7653 0088 0B44     		add	r3, r3, r1
 7654              		.loc 2 235 69 view .LVU2988
 7655 008a C00F     		lsrs	r0, r0, #31
 7656 008c 40EA4300 		orr	r0, r0, r3, lsl #1
 7657              	.LVL937:
 7658              		.loc 2 235 69 view .LVU2989
 7659              	.LBE681:
 7660              	.LBE680:
 166:../Common/IQMath/ti/_IQNasin_acos.c ****     
 7661              		.loc 1 166 5 is_stmt 1 view .LVU2990
 166:../Common/IQMath/ti/_IQNasin_acos.c ****     
 7662              		.loc 1 166 31 is_stmt 0 view .LVU2991
 7663 0090 1369     		ldr	r3, [r2, #16]
 166:../Common/IQMath/ti/_IQNasin_acos.c ****     
 7664              		.loc 1 166 16 view .LVU2992
 7665 0092 1844     		add	r0, r0, r3
 7666              	.LVL938:
 172:../Common/IQMath/ti/_IQNasin_acos.c ****     
 7667              		.loc 1 172 5 is_stmt 1 view .LVU2993
 172:../Common/IQMath/ti/_IQNasin_acos.c ****     
 7668              		.loc 1 172 5 is_stmt 0 view .LVU2994
 7669              	.LBE682:
 7670              	.LBE684:
  72:../Common/IQMath/ti/./support/RTS_support.h **** }
 7671              		.loc 2 72 5 is_stmt 1 view .LVU2995
 7672              	.LBB685:
 7673              	.LBB683:
 175:../Common/IQMath/ti/_IQNasin_acos.c ****         /* asin(x) = pi/2 - 2*iq29Result */
 7674              		.loc 1 175 5 view .LVU2996
 175:../Common/IQMath/ti/_IQNasin_acos.c ****         /* asin(x) = pi/2 - 2*iq29Result */
 7675              		.loc 1 175 8 is_stmt 0 view .LVU2997
 7676 0094 14F0020F 		tst	r4, #2
 7677 0098 02D0     		beq	.L329
 177:../Common/IQMath/ti/_IQNasin_acos.c ****         iq29Result -= iq29_halfPi;      // this is equivalent to the above
 7678              		.loc 1 177 9 is_stmt 1 view .LVU2998
 7679              	.LVL939:
ARM GAS  C:\Users\57308\AppData\Local\Temp\cc4OkGld.s 			page 186


 178:../Common/IQMath/ti/_IQNasin_acos.c ****         iq29Result = -iq29Result;       // but avoids using temporary registers
 7680              		.loc 1 178 9 view .LVU2999
 179:../Common/IQMath/ti/_IQNasin_acos.c ****     }
 7681              		.loc 1 179 9 view .LVU3000
 179:../Common/IQMath/ti/_IQNasin_acos.c ****     }
 7682              		.loc 1 179 20 is_stmt 0 view .LVU3001
 7683 009a 0B4B     		ldr	r3, .L335+4
 7684 009c A3EB4000 		sub	r0, r3, r0, lsl #1
 7685              	.LVL940:
 7686              	.L329:
 183:../Common/IQMath/ti/_IQNasin_acos.c ****     
 7687              		.loc 1 183 5 is_stmt 1 view .LVU3002
 183:../Common/IQMath/ti/_IQNasin_acos.c ****     
 7688              		.loc 1 183 16 is_stmt 0 view .LVU3003
 7689 00a0 C016     		asrs	r0, r0, #27
 7690              	.LVL941:
 186:../Common/IQMath/ti/_IQNasin_acos.c ****         iq29Result = -iq29Result;
 7691              		.loc 1 186 5 is_stmt 1 view .LVU3004
 186:../Common/IQMath/ti/_IQNasin_acos.c ****         iq29Result = -iq29Result;
 7692              		.loc 1 186 8 is_stmt 0 view .LVU3005
 7693 00a2 14F0010F 		tst	r4, #1
 7694 00a6 0BD0     		beq	.L325
 187:../Common/IQMath/ti/_IQNasin_acos.c ****     }
 7695              		.loc 1 187 9 is_stmt 1 view .LVU3006
 187:../Common/IQMath/ti/_IQNasin_acos.c ****     }
 7696              		.loc 1 187 20 is_stmt 0 view .LVU3007
 7697 00a8 4042     		rsbs	r0, r0, #0
 7698              	.LVL942:
 187:../Common/IQMath/ti/_IQNasin_acos.c ****     }
 7699              		.loc 1 187 20 view .LVU3008
 7700 00aa 09E0     		b	.L325
 7701              	.LVL943:
 7702              	.L333:
  90:../Common/IQMath/ti/_IQNasin_acos.c ****         iqNInput = -iqNInput;
 7703              		.loc 1 90 9 is_stmt 1 view .LVU3009
  91:../Common/IQMath/ti/_IQNasin_acos.c ****     }
 7704              		.loc 1 91 9 view .LVU3010
  91:../Common/IQMath/ti/_IQNasin_acos.c ****     }
 7705              		.loc 1 91 18 is_stmt 0 view .LVU3011
 7706 00ac 4042     		rsbs	r0, r0, #0
 7707              	.LVL944:
  90:../Common/IQMath/ti/_IQNasin_acos.c ****         iqNInput = -iqNInput;
 7708              		.loc 1 90 19 view .LVU3012
 7709 00ae 0124     		movs	r4, #1
 7710 00b0 AAE7     		b	.L326
 7711              	.LVL945:
 7712              	.L334:
 115:../Common/IQMath/ti/_IQNasin_acos.c ****         
 7713              		.loc 1 115 9 is_stmt 1 view .LVU3013
 118:../Common/IQMath/ti/_IQNasin_acos.c ****         
 7714              		.loc 1 118 9 view .LVU3014
 118:../Common/IQMath/ti/_IQNasin_acos.c ****         
 7715              		.loc 1 118 22 is_stmt 0 view .LVU3015
 7716 00b2 5808     		lsrs	r0, r3, #1
 7717              	.LVL946:
 118:../Common/IQMath/ti/_IQNasin_acos.c ****         
 7718              		.loc 1 118 22 view .LVU3016
ARM GAS  C:\Users\57308\AppData\Local\Temp\cc4OkGld.s 			page 187


 7719 00b4 FFF7FEFF 		bl	_IQ31sqrt
 7720              	.LVL947:
 121:../Common/IQMath/ti/_IQNasin_acos.c ****     }
 7721              		.loc 1 121 9 is_stmt 1 view .LVU3017
 121:../Common/IQMath/ti/_IQNasin_acos.c ****     }
 7722              		.loc 1 121 19 is_stmt 0 view .LVU3018
 7723 00b8 44F00204 		orr	r4, r4, #2
 7724              	.LVL948:
 121:../Common/IQMath/ti/_IQNasin_acos.c ****     }
 7725              		.loc 1 121 19 view .LVU3019
 7726 00bc ACE7     		b	.L328
 7727              	.LVL949:
 7728              	.L331:
 100:../Common/IQMath/ti/_IQNasin_acos.c ****     }
 7729              		.loc 1 100 16 view .LVU3020
 7730 00be 0020     		movs	r0, #0
 7731              	.LVL950:
 7732              	.L325:
 100:../Common/IQMath/ti/_IQNasin_acos.c ****     }
 7733              		.loc 1 100 16 view .LVU3021
 7734              	.LBE683:
 7735              	.LBE685:
 501:../Common/IQMath/ti/_IQNasin_acos.c **** }
 7736              		.loc 1 501 1 view .LVU3022
 7737 00c0 10BD     		pop	{r4, pc}
 7738              	.L336:
 7739 00c2 00BF     		.align	2
 7740              	.L335:
 7741 00c4 00000000 		.word	_IQ29Asin_coeffs
 7742 00c8 A8F64332 		.word	843314856
 7743              		.cfi_endproc
 7744              	.LFE289:
 7746              		.section	.text._IQ1asin,"ax",%progbits
 7747              		.align	1
 7748              		.global	_IQ1asin
 7749              		.syntax unified
 7750              		.thumb
 7751              		.thumb_func
 7753              	_IQ1asin:
 7754              	.LVL951:
 7755              	.LFB290:
 502:../Common/IQMath/ti/_IQNasin_acos.c **** /**
 503:../Common/IQMath/ti/_IQNasin_acos.c ****  * @brief Computes the inverse sine of the IQ1 input.
 504:../Common/IQMath/ti/_IQNasin_acos.c ****  *
 505:../Common/IQMath/ti/_IQNasin_acos.c ****  * @param a               IQ1 type input.
 506:../Common/IQMath/ti/_IQNasin_acos.c ****  *
 507:../Common/IQMath/ti/_IQNasin_acos.c ****  * @return                IQ1 type result of inverse sine.
 508:../Common/IQMath/ti/_IQNasin_acos.c ****  */
 509:../Common/IQMath/ti/_IQNasin_acos.c **** int32_t _IQ1asin(int32_t a)
 510:../Common/IQMath/ti/_IQNasin_acos.c **** {
 7756              		.loc 1 510 1 is_stmt 1 view -0
 7757              		.cfi_startproc
 7758              		@ args = 0, pretend = 0, frame = 0
 7759              		@ frame_needed = 0, uses_anonymous_args = 0
 7760              		.loc 1 510 1 is_stmt 0 view .LVU3024
 7761 0000 10B5     		push	{r4, lr}
 7762              	.LCFI28:
ARM GAS  C:\Users\57308\AppData\Local\Temp\cc4OkGld.s 			page 188


 7763              		.cfi_def_cfa_offset 8
 7764              		.cfi_offset 4, -8
 7765              		.cfi_offset 14, -4
 511:../Common/IQMath/ti/_IQNasin_acos.c ****     return __IQNasin(a, 1);
 7766              		.loc 1 511 5 is_stmt 1 view .LVU3025
 7767              	.LVL952:
 7768              	.LBB696:
 7769              	.LBI696:
  70:../Common/IQMath/ti/_IQNasin_acos.c **** {
 7770              		.loc 1 70 30 view .LVU3026
 7771              	.LBB697:
  72:../Common/IQMath/ti/_IQNasin_acos.c ****     uint_fast16_t index;
 7772              		.loc 1 72 5 view .LVU3027
  73:../Common/IQMath/ti/_IQNasin_acos.c ****     uint_fast16_t ui16IntState;
 7773              		.loc 1 73 5 view .LVU3028
  74:../Common/IQMath/ti/_IQNasin_acos.c ****     uint_fast16_t ui16MPYState;
 7774              		.loc 1 74 5 view .LVU3029
  75:../Common/IQMath/ti/_IQNasin_acos.c ****     int_fast32_t iq29Result;
 7775              		.loc 1 75 5 view .LVU3030
  76:../Common/IQMath/ti/_IQNasin_acos.c ****     const int_fast32_t *piq29Coeffs;
 7776              		.loc 1 76 5 view .LVU3031
  77:../Common/IQMath/ti/_IQNasin_acos.c ****     uint_fast32_t uiq31Input;
 7777              		.loc 1 77 5 view .LVU3032
  78:../Common/IQMath/ti/_IQNasin_acos.c ****     uint_fast32_t uiq31InputTemp;
 7778              		.loc 1 78 5 view .LVU3033
  79:../Common/IQMath/ti/_IQNasin_acos.c ****     
 7779              		.loc 1 79 5 view .LVU3034
  89:../Common/IQMath/ti/_IQNasin_acos.c ****         ui8Status |= 1;
 7780              		.loc 1 89 5 view .LVU3035
  89:../Common/IQMath/ti/_IQNasin_acos.c ****         ui8Status |= 1;
 7781              		.loc 1 89 8 is_stmt 0 view .LVU3036
 7782 0002 0028     		cmp	r0, #0
  89:../Common/IQMath/ti/_IQNasin_acos.c ****         ui8Status |= 1;
 7783              		.loc 1 89 8 view .LVU3037
 7784 0004 52DB     		blt	.L345
  72:../Common/IQMath/ti/_IQNasin_acos.c ****     uint_fast16_t index;
 7785              		.loc 1 72 13 view .LVU3038
 7786 0006 0024     		movs	r4, #0
 7787              	.LVL953:
 7788              	.L338:
  99:../Common/IQMath/ti/_IQNasin_acos.c ****         return 0;
 7789              		.loc 1 99 5 is_stmt 1 view .LVU3039
  99:../Common/IQMath/ti/_IQNasin_acos.c ****         return 0;
 7790              		.loc 1 99 8 is_stmt 0 view .LVU3040
 7791 0008 0228     		cmp	r0, #2
 7792 000a 58D8     		bhi	.L343
 104:../Common/IQMath/ti/_IQNasin_acos.c ****     
 7793              		.loc 1 104 5 is_stmt 1 view .LVU3041
 104:../Common/IQMath/ti/_IQNasin_acos.c ****     
 7794              		.loc 1 104 16 is_stmt 0 view .LVU3042
 7795 000c 8007     		lsls	r0, r0, #30
 7796              	.LVL954:
 112:../Common/IQMath/ti/_IQNasin_acos.c ****     if (uiq31InputTemp < 0x40000000) {
 7797              		.loc 1 112 5 is_stmt 1 view .LVU3043
 112:../Common/IQMath/ti/_IQNasin_acos.c ****     if (uiq31InputTemp < 0x40000000) {
 7798              		.loc 1 112 20 is_stmt 0 view .LVU3044
 7799 000e C0F10043 		rsb	r3, r0, #-2147483648
ARM GAS  C:\Users\57308\AppData\Local\Temp\cc4OkGld.s 			page 189


 7800              	.LVL955:
 113:../Common/IQMath/ti/_IQNasin_acos.c ****         /* Halve the result. */
 7801              		.loc 1 113 5 is_stmt 1 view .LVU3045
 113:../Common/IQMath/ti/_IQNasin_acos.c ****         /* Halve the result. */
 7802              		.loc 1 113 8 is_stmt 0 view .LVU3046
 7803 0012 B3F1804F 		cmp	r3, #1073741824
 7804 0016 4CD3     		bcc	.L346
 7805              	.LVL956:
 7806              	.L340:
 125:../Common/IQMath/ti/_IQNasin_acos.c ****     
 7807              		.loc 1 125 5 is_stmt 1 view .LVU3047
 125:../Common/IQMath/ti/_IQNasin_acos.c ****     
 7808              		.loc 1 125 11 is_stmt 0 view .LVU3048
 7809 0018 830E     		lsrs	r3, r0, #26
 7810              	.LVL957:
 128:../Common/IQMath/ti/_IQNasin_acos.c ****     
 7811              		.loc 1 128 5 is_stmt 1 view .LVU3049
 128:../Common/IQMath/ti/_IQNasin_acos.c ****     
 7812              		.loc 1 128 17 is_stmt 0 view .LVU3050
 7813 001a 03EB8303 		add	r3, r3, r3, lsl #2
 7814              	.LVL958:
 128:../Common/IQMath/ti/_IQNasin_acos.c ****     
 7815              		.loc 1 128 17 view .LVU3051
 7816 001e 2949     		ldr	r1, .L347
 7817 0020 01EB8302 		add	r2, r1, r3, lsl #2
 7818              	.LVL959:
 136:../Common/IQMath/ti/_IQNasin_acos.c ****     
 7819              		.loc 1 136 5 is_stmt 1 view .LVU3052
 136:../Common/IQMath/ti/_IQNasin_acos.c ****     
 7820              		.loc 1 136 5 is_stmt 0 view .LVU3053
 7821              	.LBE697:
 7822              	.LBE696:
  28:../Common/IQMath/ti/./support/RTS_support.h **** }
 7823              		.loc 2 28 5 is_stmt 1 view .LVU3054
 7824              	.LBB708:
 7825              	.LBB706:
 145:../Common/IQMath/ti/_IQNasin_acos.c ****     
 7826              		.loc 1 145 5 view .LVU3055
 145:../Common/IQMath/ti/_IQNasin_acos.c ****     
 7827              		.loc 1 145 18 is_stmt 0 view .LVU3056
 7828 0024 51F82330 		ldr	r3, [r1, r3, lsl #2]
 7829              	.LVL960:
 7830              	.LBB698:
 7831              	.LBI698:
 233:../Common/IQMath/ti/./support/RTS_support.h **** {
 7832              		.loc 2 233 28 is_stmt 1 view .LVU3057
 7833              	.LBB699:
 7834              		.loc 2 235 5 view .LVU3058
 7835              		.loc 2 235 28 is_stmt 0 view .LVU3059
 7836 0028 4FEAE07C 		asr	ip, r0, #31
 7837              		.loc 2 235 49 view .LVU3060
 7838 002c D917     		asrs	r1, r3, #31
 7839              		.loc 2 235 47 view .LVU3061
 7840 002e 00FB01F1 		mul	r1, r0, r1
 7841 0032 03FB0C11 		mla	r1, r3, ip, r1
 7842 0036 A0FB033E 		umull	r3, lr, r0, r3
 7843              	.LVL961:
ARM GAS  C:\Users\57308\AppData\Local\Temp\cc4OkGld.s 			page 190


 7844              		.loc 2 235 47 view .LVU3062
 7845 003a 7144     		add	r1, r1, lr
 7846              		.loc 2 235 69 view .LVU3063
 7847 003c DB0F     		lsrs	r3, r3, #31
 7848 003e 43EA4103 		orr	r3, r3, r1, lsl #1
 7849              	.LVL962:
 7850              		.loc 2 235 69 view .LVU3064
 7851              	.LBE699:
 7852              	.LBE698:
 148:../Common/IQMath/ti/_IQNasin_acos.c ****     
 7853              		.loc 1 148 5 is_stmt 1 view .LVU3065
 148:../Common/IQMath/ti/_IQNasin_acos.c ****     
 7854              		.loc 1 148 31 is_stmt 0 view .LVU3066
 7855 0042 5168     		ldr	r1, [r2, #4]
 148:../Common/IQMath/ti/_IQNasin_acos.c ****     
 7856              		.loc 1 148 16 view .LVU3067
 7857 0044 0B44     		add	r3, r3, r1
 7858              	.LVL963:
 151:../Common/IQMath/ti/_IQNasin_acos.c ****     
 7859              		.loc 1 151 5 is_stmt 1 view .LVU3068
 7860              	.LBB700:
 7861              	.LBI700:
 233:../Common/IQMath/ti/./support/RTS_support.h **** {
 7862              		.loc 2 233 28 view .LVU3069
 7863              	.LBB701:
 7864              		.loc 2 235 5 view .LVU3070
 7865              		.loc 2 235 49 is_stmt 0 view .LVU3071
 7866 0046 D917     		asrs	r1, r3, #31
 7867              		.loc 2 235 47 view .LVU3072
 7868 0048 00FB01F1 		mul	r1, r0, r1
 7869 004c 03FB0C11 		mla	r1, r3, ip, r1
 7870 0050 A0FB033E 		umull	r3, lr, r0, r3
 7871              	.LVL964:
 7872              		.loc 2 235 47 view .LVU3073
 7873 0054 7144     		add	r1, r1, lr
 7874              		.loc 2 235 69 view .LVU3074
 7875 0056 DB0F     		lsrs	r3, r3, #31
 7876 0058 43EA4103 		orr	r3, r3, r1, lsl #1
 7877              	.LVL965:
 7878              		.loc 2 235 69 view .LVU3075
 7879              	.LBE701:
 7880              	.LBE700:
 154:../Common/IQMath/ti/_IQNasin_acos.c ****     
 7881              		.loc 1 154 5 is_stmt 1 view .LVU3076
 154:../Common/IQMath/ti/_IQNasin_acos.c ****     
 7882              		.loc 1 154 31 is_stmt 0 view .LVU3077
 7883 005c 9168     		ldr	r1, [r2, #8]
 154:../Common/IQMath/ti/_IQNasin_acos.c ****     
 7884              		.loc 1 154 16 view .LVU3078
 7885 005e 0B44     		add	r3, r3, r1
 7886              	.LVL966:
 157:../Common/IQMath/ti/_IQNasin_acos.c ****     
 7887              		.loc 1 157 5 is_stmt 1 view .LVU3079
 7888              	.LBB702:
 7889              	.LBI702:
 233:../Common/IQMath/ti/./support/RTS_support.h **** {
 7890              		.loc 2 233 28 view .LVU3080
ARM GAS  C:\Users\57308\AppData\Local\Temp\cc4OkGld.s 			page 191


 7891              	.LBB703:
 7892              		.loc 2 235 5 view .LVU3081
 7893              		.loc 2 235 49 is_stmt 0 view .LVU3082
 7894 0060 D917     		asrs	r1, r3, #31
 7895              		.loc 2 235 47 view .LVU3083
 7896 0062 00FB01F1 		mul	r1, r0, r1
 7897 0066 03FB0C11 		mla	r1, r3, ip, r1
 7898 006a A0FB033E 		umull	r3, lr, r0, r3
 7899              	.LVL967:
 7900              		.loc 2 235 47 view .LVU3084
 7901 006e 7144     		add	r1, r1, lr
 7902              		.loc 2 235 69 view .LVU3085
 7903 0070 DB0F     		lsrs	r3, r3, #31
 7904 0072 43EA4103 		orr	r3, r3, r1, lsl #1
 7905              	.LVL968:
 7906              		.loc 2 235 69 view .LVU3086
 7907              	.LBE703:
 7908              	.LBE702:
 160:../Common/IQMath/ti/_IQNasin_acos.c ****     
 7909              		.loc 1 160 5 is_stmt 1 view .LVU3087
 160:../Common/IQMath/ti/_IQNasin_acos.c ****     
 7910              		.loc 1 160 31 is_stmt 0 view .LVU3088
 7911 0076 D168     		ldr	r1, [r2, #12]
 160:../Common/IQMath/ti/_IQNasin_acos.c ****     
 7912              		.loc 1 160 16 view .LVU3089
 7913 0078 0B44     		add	r3, r3, r1
 7914              	.LVL969:
 163:../Common/IQMath/ti/_IQNasin_acos.c ****     
 7915              		.loc 1 163 5 is_stmt 1 view .LVU3090
 7916              	.LBB704:
 7917              	.LBI704:
 233:../Common/IQMath/ti/./support/RTS_support.h **** {
 7918              		.loc 2 233 28 view .LVU3091
 7919              	.LBB705:
 7920              		.loc 2 235 5 view .LVU3092
 7921              		.loc 2 235 49 is_stmt 0 view .LVU3093
 7922 007a D917     		asrs	r1, r3, #31
 7923              		.loc 2 235 47 view .LVU3094
 7924 007c 00FB01F1 		mul	r1, r0, r1
 7925 0080 03FB0C11 		mla	r1, r3, ip, r1
 7926 0084 A0FB0303 		umull	r0, r3, r0, r3
 7927              	.LVL970:
 7928              		.loc 2 235 47 view .LVU3095
 7929 0088 0B44     		add	r3, r3, r1
 7930              		.loc 2 235 69 view .LVU3096
 7931 008a C00F     		lsrs	r0, r0, #31
 7932 008c 40EA4300 		orr	r0, r0, r3, lsl #1
 7933              	.LVL971:
 7934              		.loc 2 235 69 view .LVU3097
 7935              	.LBE705:
 7936              	.LBE704:
 166:../Common/IQMath/ti/_IQNasin_acos.c ****     
 7937              		.loc 1 166 5 is_stmt 1 view .LVU3098
 166:../Common/IQMath/ti/_IQNasin_acos.c ****     
 7938              		.loc 1 166 31 is_stmt 0 view .LVU3099
 7939 0090 1369     		ldr	r3, [r2, #16]
 166:../Common/IQMath/ti/_IQNasin_acos.c ****     
ARM GAS  C:\Users\57308\AppData\Local\Temp\cc4OkGld.s 			page 192


 7940              		.loc 1 166 16 view .LVU3100
 7941 0092 1844     		add	r0, r0, r3
 7942              	.LVL972:
 172:../Common/IQMath/ti/_IQNasin_acos.c ****     
 7943              		.loc 1 172 5 is_stmt 1 view .LVU3101
 172:../Common/IQMath/ti/_IQNasin_acos.c ****     
 7944              		.loc 1 172 5 is_stmt 0 view .LVU3102
 7945              	.LBE706:
 7946              	.LBE708:
  72:../Common/IQMath/ti/./support/RTS_support.h **** }
 7947              		.loc 2 72 5 is_stmt 1 view .LVU3103
 7948              	.LBB709:
 7949              	.LBB707:
 175:../Common/IQMath/ti/_IQNasin_acos.c ****         /* asin(x) = pi/2 - 2*iq29Result */
 7950              		.loc 1 175 5 view .LVU3104
 175:../Common/IQMath/ti/_IQNasin_acos.c ****         /* asin(x) = pi/2 - 2*iq29Result */
 7951              		.loc 1 175 8 is_stmt 0 view .LVU3105
 7952 0094 14F0020F 		tst	r4, #2
 7953 0098 02D0     		beq	.L341
 177:../Common/IQMath/ti/_IQNasin_acos.c ****         iq29Result -= iq29_halfPi;      // this is equivalent to the above
 7954              		.loc 1 177 9 is_stmt 1 view .LVU3106
 7955              	.LVL973:
 178:../Common/IQMath/ti/_IQNasin_acos.c ****         iq29Result = -iq29Result;       // but avoids using temporary registers
 7956              		.loc 1 178 9 view .LVU3107
 179:../Common/IQMath/ti/_IQNasin_acos.c ****     }
 7957              		.loc 1 179 9 view .LVU3108
 179:../Common/IQMath/ti/_IQNasin_acos.c ****     }
 7958              		.loc 1 179 20 is_stmt 0 view .LVU3109
 7959 009a 0B4B     		ldr	r3, .L347+4
 7960 009c A3EB4000 		sub	r0, r3, r0, lsl #1
 7961              	.LVL974:
 7962              	.L341:
 183:../Common/IQMath/ti/_IQNasin_acos.c ****     
 7963              		.loc 1 183 5 is_stmt 1 view .LVU3110
 183:../Common/IQMath/ti/_IQNasin_acos.c ****     
 7964              		.loc 1 183 16 is_stmt 0 view .LVU3111
 7965 00a0 0017     		asrs	r0, r0, #28
 7966              	.LVL975:
 186:../Common/IQMath/ti/_IQNasin_acos.c ****         iq29Result = -iq29Result;
 7967              		.loc 1 186 5 is_stmt 1 view .LVU3112
 186:../Common/IQMath/ti/_IQNasin_acos.c ****         iq29Result = -iq29Result;
 7968              		.loc 1 186 8 is_stmt 0 view .LVU3113
 7969 00a2 14F0010F 		tst	r4, #1
 7970 00a6 0BD0     		beq	.L337
 187:../Common/IQMath/ti/_IQNasin_acos.c ****     }
 7971              		.loc 1 187 9 is_stmt 1 view .LVU3114
 187:../Common/IQMath/ti/_IQNasin_acos.c ****     }
 7972              		.loc 1 187 20 is_stmt 0 view .LVU3115
 7973 00a8 4042     		rsbs	r0, r0, #0
 7974              	.LVL976:
 187:../Common/IQMath/ti/_IQNasin_acos.c ****     }
 7975              		.loc 1 187 20 view .LVU3116
 7976 00aa 09E0     		b	.L337
 7977              	.LVL977:
 7978              	.L345:
  90:../Common/IQMath/ti/_IQNasin_acos.c ****         iqNInput = -iqNInput;
 7979              		.loc 1 90 9 is_stmt 1 view .LVU3117
ARM GAS  C:\Users\57308\AppData\Local\Temp\cc4OkGld.s 			page 193


  91:../Common/IQMath/ti/_IQNasin_acos.c ****     }
 7980              		.loc 1 91 9 view .LVU3118
  91:../Common/IQMath/ti/_IQNasin_acos.c ****     }
 7981              		.loc 1 91 18 is_stmt 0 view .LVU3119
 7982 00ac 4042     		rsbs	r0, r0, #0
 7983              	.LVL978:
  90:../Common/IQMath/ti/_IQNasin_acos.c ****         iqNInput = -iqNInput;
 7984              		.loc 1 90 19 view .LVU3120
 7985 00ae 0124     		movs	r4, #1
 7986 00b0 AAE7     		b	.L338
 7987              	.LVL979:
 7988              	.L346:
 115:../Common/IQMath/ti/_IQNasin_acos.c ****         
 7989              		.loc 1 115 9 is_stmt 1 view .LVU3121
 118:../Common/IQMath/ti/_IQNasin_acos.c ****         
 7990              		.loc 1 118 9 view .LVU3122
 118:../Common/IQMath/ti/_IQNasin_acos.c ****         
 7991              		.loc 1 118 22 is_stmt 0 view .LVU3123
 7992 00b2 5808     		lsrs	r0, r3, #1
 7993              	.LVL980:
 118:../Common/IQMath/ti/_IQNasin_acos.c ****         
 7994              		.loc 1 118 22 view .LVU3124
 7995 00b4 FFF7FEFF 		bl	_IQ31sqrt
 7996              	.LVL981:
 121:../Common/IQMath/ti/_IQNasin_acos.c ****     }
 7997              		.loc 1 121 9 is_stmt 1 view .LVU3125
 121:../Common/IQMath/ti/_IQNasin_acos.c ****     }
 7998              		.loc 1 121 19 is_stmt 0 view .LVU3126
 7999 00b8 44F00204 		orr	r4, r4, #2
 8000              	.LVL982:
 121:../Common/IQMath/ti/_IQNasin_acos.c ****     }
 8001              		.loc 1 121 19 view .LVU3127
 8002 00bc ACE7     		b	.L340
 8003              	.LVL983:
 8004              	.L343:
 100:../Common/IQMath/ti/_IQNasin_acos.c ****     }
 8005              		.loc 1 100 16 view .LVU3128
 8006 00be 0020     		movs	r0, #0
 8007              	.LVL984:
 8008              	.L337:
 100:../Common/IQMath/ti/_IQNasin_acos.c ****     }
 8009              		.loc 1 100 16 view .LVU3129
 8010              	.LBE707:
 8011              	.LBE709:
 512:../Common/IQMath/ti/_IQNasin_acos.c **** }
 8012              		.loc 1 512 1 view .LVU3130
 8013 00c0 10BD     		pop	{r4, pc}
 8014              	.L348:
 8015 00c2 00BF     		.align	2
 8016              	.L347:
 8017 00c4 00000000 		.word	_IQ29Asin_coeffs
 8018 00c8 A8F64332 		.word	843314856
 8019              		.cfi_endproc
 8020              	.LFE290:
 8022              		.text
 8023              	.Letext0:
 8024              		.file 3 "d:\\program files\\gcc-arm-none-eabi-10.3-2021.10\\arm-none-eabi\\include\\machine\\_defa
ARM GAS  C:\Users\57308\AppData\Local\Temp\cc4OkGld.s 			page 194


 8025              		.file 4 "d:\\program files\\gcc-arm-none-eabi-10.3-2021.10\\arm-none-eabi\\include\\sys\\_stdint.h
 8026              		.file 5 "d:\\program files\\gcc-arm-none-eabi-10.3-2021.10\\arm-none-eabi\\include\\stdint.h"
 8027              		.file 6 "../Common/IQMath/ti/_IQNtables.h"
ARM GAS  C:\Users\57308\AppData\Local\Temp\cc4OkGld.s 			page 195


DEFINED SYMBOLS
                            *ABS*:00000000 _IQNasin_acos.c
C:\Users\57308\AppData\Local\Temp\cc4OkGld.s:20     .text._IQ29asin:00000000 $t
C:\Users\57308\AppData\Local\Temp\cc4OkGld.s:26     .text._IQ29asin:00000000 _IQ29asin
C:\Users\57308\AppData\Local\Temp\cc4OkGld.s:289    .text._IQ29asin:000000c4 $d
C:\Users\57308\AppData\Local\Temp\cc4OkGld.s:295    .text._IQ28asin:00000000 $t
C:\Users\57308\AppData\Local\Temp\cc4OkGld.s:301    .text._IQ28asin:00000000 _IQ28asin
C:\Users\57308\AppData\Local\Temp\cc4OkGld.s:565    .text._IQ28asin:000000c4 $d
C:\Users\57308\AppData\Local\Temp\cc4OkGld.s:571    .text._IQ27asin:00000000 $t
C:\Users\57308\AppData\Local\Temp\cc4OkGld.s:577    .text._IQ27asin:00000000 _IQ27asin
C:\Users\57308\AppData\Local\Temp\cc4OkGld.s:841    .text._IQ27asin:000000c4 $d
C:\Users\57308\AppData\Local\Temp\cc4OkGld.s:847    .text._IQ26asin:00000000 $t
C:\Users\57308\AppData\Local\Temp\cc4OkGld.s:853    .text._IQ26asin:00000000 _IQ26asin
C:\Users\57308\AppData\Local\Temp\cc4OkGld.s:1117   .text._IQ26asin:000000c4 $d
C:\Users\57308\AppData\Local\Temp\cc4OkGld.s:1123   .text._IQ25asin:00000000 $t
C:\Users\57308\AppData\Local\Temp\cc4OkGld.s:1129   .text._IQ25asin:00000000 _IQ25asin
C:\Users\57308\AppData\Local\Temp\cc4OkGld.s:1393   .text._IQ25asin:000000c4 $d
C:\Users\57308\AppData\Local\Temp\cc4OkGld.s:1399   .text._IQ24asin:00000000 $t
C:\Users\57308\AppData\Local\Temp\cc4OkGld.s:1405   .text._IQ24asin:00000000 _IQ24asin
C:\Users\57308\AppData\Local\Temp\cc4OkGld.s:1669   .text._IQ24asin:000000c4 $d
C:\Users\57308\AppData\Local\Temp\cc4OkGld.s:1675   .text._IQ23asin:00000000 $t
C:\Users\57308\AppData\Local\Temp\cc4OkGld.s:1681   .text._IQ23asin:00000000 _IQ23asin
C:\Users\57308\AppData\Local\Temp\cc4OkGld.s:1945   .text._IQ23asin:000000c4 $d
C:\Users\57308\AppData\Local\Temp\cc4OkGld.s:1951   .text._IQ22asin:00000000 $t
C:\Users\57308\AppData\Local\Temp\cc4OkGld.s:1957   .text._IQ22asin:00000000 _IQ22asin
C:\Users\57308\AppData\Local\Temp\cc4OkGld.s:2221   .text._IQ22asin:000000c4 $d
C:\Users\57308\AppData\Local\Temp\cc4OkGld.s:2227   .text._IQ21asin:00000000 $t
C:\Users\57308\AppData\Local\Temp\cc4OkGld.s:2233   .text._IQ21asin:00000000 _IQ21asin
C:\Users\57308\AppData\Local\Temp\cc4OkGld.s:2497   .text._IQ21asin:000000c4 $d
C:\Users\57308\AppData\Local\Temp\cc4OkGld.s:2503   .text._IQ20asin:00000000 $t
C:\Users\57308\AppData\Local\Temp\cc4OkGld.s:2509   .text._IQ20asin:00000000 _IQ20asin
C:\Users\57308\AppData\Local\Temp\cc4OkGld.s:2773   .text._IQ20asin:000000c4 $d
C:\Users\57308\AppData\Local\Temp\cc4OkGld.s:2779   .text._IQ19asin:00000000 $t
C:\Users\57308\AppData\Local\Temp\cc4OkGld.s:2785   .text._IQ19asin:00000000 _IQ19asin
C:\Users\57308\AppData\Local\Temp\cc4OkGld.s:3049   .text._IQ19asin:000000c4 $d
C:\Users\57308\AppData\Local\Temp\cc4OkGld.s:3055   .text._IQ18asin:00000000 $t
C:\Users\57308\AppData\Local\Temp\cc4OkGld.s:3061   .text._IQ18asin:00000000 _IQ18asin
C:\Users\57308\AppData\Local\Temp\cc4OkGld.s:3325   .text._IQ18asin:000000c4 $d
C:\Users\57308\AppData\Local\Temp\cc4OkGld.s:3331   .text._IQ17asin:00000000 $t
C:\Users\57308\AppData\Local\Temp\cc4OkGld.s:3337   .text._IQ17asin:00000000 _IQ17asin
C:\Users\57308\AppData\Local\Temp\cc4OkGld.s:3601   .text._IQ17asin:000000c4 $d
C:\Users\57308\AppData\Local\Temp\cc4OkGld.s:3607   .text._IQ16asin:00000000 $t
C:\Users\57308\AppData\Local\Temp\cc4OkGld.s:3613   .text._IQ16asin:00000000 _IQ16asin
C:\Users\57308\AppData\Local\Temp\cc4OkGld.s:3877   .text._IQ16asin:000000c4 $d
C:\Users\57308\AppData\Local\Temp\cc4OkGld.s:3883   .text._IQ15asin:00000000 $t
C:\Users\57308\AppData\Local\Temp\cc4OkGld.s:3889   .text._IQ15asin:00000000 _IQ15asin
C:\Users\57308\AppData\Local\Temp\cc4OkGld.s:4153   .text._IQ15asin:000000c4 $d
C:\Users\57308\AppData\Local\Temp\cc4OkGld.s:4159   .text._IQ14asin:00000000 $t
C:\Users\57308\AppData\Local\Temp\cc4OkGld.s:4165   .text._IQ14asin:00000000 _IQ14asin
C:\Users\57308\AppData\Local\Temp\cc4OkGld.s:4429   .text._IQ14asin:000000c4 $d
C:\Users\57308\AppData\Local\Temp\cc4OkGld.s:4435   .text._IQ13asin:00000000 $t
C:\Users\57308\AppData\Local\Temp\cc4OkGld.s:4441   .text._IQ13asin:00000000 _IQ13asin
C:\Users\57308\AppData\Local\Temp\cc4OkGld.s:4705   .text._IQ13asin:000000c4 $d
C:\Users\57308\AppData\Local\Temp\cc4OkGld.s:4711   .text._IQ12asin:00000000 $t
C:\Users\57308\AppData\Local\Temp\cc4OkGld.s:4717   .text._IQ12asin:00000000 _IQ12asin
C:\Users\57308\AppData\Local\Temp\cc4OkGld.s:4981   .text._IQ12asin:000000c4 $d
C:\Users\57308\AppData\Local\Temp\cc4OkGld.s:4987   .text._IQ11asin:00000000 $t
ARM GAS  C:\Users\57308\AppData\Local\Temp\cc4OkGld.s 			page 196


C:\Users\57308\AppData\Local\Temp\cc4OkGld.s:4993   .text._IQ11asin:00000000 _IQ11asin
C:\Users\57308\AppData\Local\Temp\cc4OkGld.s:5257   .text._IQ11asin:000000c4 $d
C:\Users\57308\AppData\Local\Temp\cc4OkGld.s:5263   .text._IQ10asin:00000000 $t
C:\Users\57308\AppData\Local\Temp\cc4OkGld.s:5269   .text._IQ10asin:00000000 _IQ10asin
C:\Users\57308\AppData\Local\Temp\cc4OkGld.s:5533   .text._IQ10asin:000000c4 $d
C:\Users\57308\AppData\Local\Temp\cc4OkGld.s:5539   .text._IQ9asin:00000000 $t
C:\Users\57308\AppData\Local\Temp\cc4OkGld.s:5545   .text._IQ9asin:00000000 _IQ9asin
C:\Users\57308\AppData\Local\Temp\cc4OkGld.s:5809   .text._IQ9asin:000000c4 $d
C:\Users\57308\AppData\Local\Temp\cc4OkGld.s:5815   .text._IQ8asin:00000000 $t
C:\Users\57308\AppData\Local\Temp\cc4OkGld.s:5821   .text._IQ8asin:00000000 _IQ8asin
C:\Users\57308\AppData\Local\Temp\cc4OkGld.s:6085   .text._IQ8asin:000000c4 $d
C:\Users\57308\AppData\Local\Temp\cc4OkGld.s:6091   .text._IQ7asin:00000000 $t
C:\Users\57308\AppData\Local\Temp\cc4OkGld.s:6097   .text._IQ7asin:00000000 _IQ7asin
C:\Users\57308\AppData\Local\Temp\cc4OkGld.s:6361   .text._IQ7asin:000000c4 $d
C:\Users\57308\AppData\Local\Temp\cc4OkGld.s:6367   .text._IQ6asin:00000000 $t
C:\Users\57308\AppData\Local\Temp\cc4OkGld.s:6373   .text._IQ6asin:00000000 _IQ6asin
C:\Users\57308\AppData\Local\Temp\cc4OkGld.s:6637   .text._IQ6asin:000000c4 $d
C:\Users\57308\AppData\Local\Temp\cc4OkGld.s:6643   .text._IQ5asin:00000000 $t
C:\Users\57308\AppData\Local\Temp\cc4OkGld.s:6649   .text._IQ5asin:00000000 _IQ5asin
C:\Users\57308\AppData\Local\Temp\cc4OkGld.s:6913   .text._IQ5asin:000000c4 $d
C:\Users\57308\AppData\Local\Temp\cc4OkGld.s:6919   .text._IQ4asin:00000000 $t
C:\Users\57308\AppData\Local\Temp\cc4OkGld.s:6925   .text._IQ4asin:00000000 _IQ4asin
C:\Users\57308\AppData\Local\Temp\cc4OkGld.s:7189   .text._IQ4asin:000000c4 $d
C:\Users\57308\AppData\Local\Temp\cc4OkGld.s:7195   .text._IQ3asin:00000000 $t
C:\Users\57308\AppData\Local\Temp\cc4OkGld.s:7201   .text._IQ3asin:00000000 _IQ3asin
C:\Users\57308\AppData\Local\Temp\cc4OkGld.s:7465   .text._IQ3asin:000000c4 $d
C:\Users\57308\AppData\Local\Temp\cc4OkGld.s:7471   .text._IQ2asin:00000000 $t
C:\Users\57308\AppData\Local\Temp\cc4OkGld.s:7477   .text._IQ2asin:00000000 _IQ2asin
C:\Users\57308\AppData\Local\Temp\cc4OkGld.s:7741   .text._IQ2asin:000000c4 $d
C:\Users\57308\AppData\Local\Temp\cc4OkGld.s:7747   .text._IQ1asin:00000000 $t
C:\Users\57308\AppData\Local\Temp\cc4OkGld.s:7753   .text._IQ1asin:00000000 _IQ1asin
C:\Users\57308\AppData\Local\Temp\cc4OkGld.s:8017   .text._IQ1asin:000000c4 $d

UNDEFINED SYMBOLS
_IQ31sqrt
_IQ29Asin_coeffs
