ARM GAS  C:\Users\57308\AppData\Local\Temp\ccZcK4bV.s 			page 1


   1              		.cpu cortex-m4
   2              		.arch armv7e-m
   3              		.fpu fpv4-sp-d16
   4              		.eabi_attribute 27, 1
   5              		.eabi_attribute 28, 1
   6              		.eabi_attribute 20, 1
   7              		.eabi_attribute 21, 1
   8              		.eabi_attribute 23, 3
   9              		.eabi_attribute 24, 1
  10              		.eabi_attribute 25, 1
  11              		.eabi_attribute 26, 1
  12              		.eabi_attribute 30, 1
  13              		.eabi_attribute 34, 1
  14              		.eabi_attribute 18, 4
  15              		.file	"_IQNatan2.c"
  16              		.text
  17              	.Ltext0:
  18              		.cfi_sections	.debug_frame
  19              		.section	.text._IQ29atan2,"ax",%progbits
  20              		.align	1
  21              		.global	_IQ29atan2
  22              		.syntax unified
  23              		.thumb
  24              		.thumb_func
  26              	_IQ29atan2:
  27              	.LVL0:
  28              	.LFB264:
  29              		.file 1 "../Common/IQMath/ti/_IQNatan2.c"
   1:../Common/IQMath/ti/_IQNatan2.c **** /*!****************************************************************************
   2:../Common/IQMath/ti/_IQNatan2.c ****  *  @file       _IQNatan2.c
   3:../Common/IQMath/ti/_IQNatan2.c ****  *  @brief      Functions to compute the 4-quadrant arctangent of the input 
   4:../Common/IQMath/ti/_IQNatan2.c ****  *              and return the result.
   5:../Common/IQMath/ti/_IQNatan2.c ****  *
   6:../Common/IQMath/ti/_IQNatan2.c ****  *  <hr>
   7:../Common/IQMath/ti/_IQNatan2.c ****  ******************************************************************************/
   8:../Common/IQMath/ti/_IQNatan2.c **** 
   9:../Common/IQMath/ti/_IQNatan2.c **** #include <stdint.h>
  10:../Common/IQMath/ti/_IQNatan2.c **** 
  11:../Common/IQMath/ti/_IQNatan2.c **** #include "./support/support.h"
  12:../Common/IQMath/ti/_IQNatan2.c **** #include "_IQNtables.h"
  13:../Common/IQMath/ti/_IQNatan2.c **** #include "./IQmathLib.h"
  14:../Common/IQMath/ti/_IQNatan2.c **** #include "_IQNmpy.h"
  15:../Common/IQMath/ti/_IQNatan2.c **** #include "_IQNdiv.h"
  16:../Common/IQMath/ti/_IQNatan2.c **** 
  17:../Common/IQMath/ti/_IQNatan2.c **** /*!
  18:../Common/IQMath/ti/_IQNatan2.c ****  * @brief The value of PI
  19:../Common/IQMath/ti/_IQNatan2.c ****  */
  20:../Common/IQMath/ti/_IQNatan2.c **** #define PI (3.1415926536)
  21:../Common/IQMath/ti/_IQNatan2.c **** 
  22:../Common/IQMath/ti/_IQNatan2.c **** /*!
  23:../Common/IQMath/ti/_IQNatan2.c ****  * @brief Used to specify per-unit result
  24:../Common/IQMath/ti/_IQNatan2.c ****  */
  25:../Common/IQMath/ti/_IQNatan2.c **** #define TYPE_PU         (0)
  26:../Common/IQMath/ti/_IQNatan2.c **** /*!
  27:../Common/IQMath/ti/_IQNatan2.c ****  * @brief Used to specify result in radians
  28:../Common/IQMath/ti/_IQNatan2.c ****  */
  29:../Common/IQMath/ti/_IQNatan2.c **** #define TYPE_RAD        (1)
ARM GAS  C:\Users\57308\AppData\Local\Temp\ccZcK4bV.s 			page 2


  30:../Common/IQMath/ti/_IQNatan2.c **** 
  31:../Common/IQMath/ti/_IQNatan2.c **** #if ((!defined (__IQMATH_USE_MATHACL__)) || (!defined (__MSPM0_HAS_MATHACL__)))
  32:../Common/IQMath/ti/_IQNatan2.c **** #ifndef DOXYGEN_SHOULD_SKIP_THIS
  33:../Common/IQMath/ti/_IQNatan2.c **** /* Hidden _UIQ31div function. */
  34:../Common/IQMath/ti/_IQNatan2.c **** /**
  35:../Common/IQMath/ti/_IQNatan2.c ****  * @brief Computes the division of the IQ31 inputs.
  36:../Common/IQMath/ti/_IQNatan2.c ****  *
  37:../Common/IQMath/ti/_IQNatan2.c ****  * @param uiq31Input1     IQ31 type value numerator to be divided.
  38:../Common/IQMath/ti/_IQNatan2.c ****  * @param uiq31Input2     IQ31 type value denominator to divide by.
  39:../Common/IQMath/ti/_IQNatan2.c ****  *
  40:../Common/IQMath/ti/_IQNatan2.c ****  * @return                IQ31 type result of division.
  41:../Common/IQMath/ti/_IQNatan2.c ****  */
  42:../Common/IQMath/ti/_IQNatan2.c **** extern uint_fast32_t _UIQ31div(uint_fast32_t uiq31Input1, uint_fast32_t uiq31Input2);
  43:../Common/IQMath/ti/_IQNatan2.c **** #endif /* DOXYGEN_SHOULD_SKIP_THIS */
  44:../Common/IQMath/ti/_IQNatan2.c **** 
  45:../Common/IQMath/ti/_IQNatan2.c **** /**
  46:../Common/IQMath/ti/_IQNatan2.c ****  * @brief Compute the 4-quadrant arctangent of the IQN input 
  47:../Common/IQMath/ti/_IQNatan2.c ****  *        and return the result.
  48:../Common/IQMath/ti/_IQNatan2.c ****  *
  49:../Common/IQMath/ti/_IQNatan2.c ****  * @param iqNInputY       IQN type input y.
  50:../Common/IQMath/ti/_IQNatan2.c ****  * @param iqNInputX       IQN type input x.
  51:../Common/IQMath/ti/_IQNatan2.c ****  * @param type            Specifies radians or per-unit operation.
  52:../Common/IQMath/ti/_IQNatan2.c ****  * @param q_value         IQ format.
  53:../Common/IQMath/ti/_IQNatan2.c ****  *
  54:../Common/IQMath/ti/_IQNatan2.c ****  * @return                IQN type result of 4-quadrant arctangent.
  55:../Common/IQMath/ti/_IQNatan2.c ****  */
  56:../Common/IQMath/ti/_IQNatan2.c **** /*
  57:../Common/IQMath/ti/_IQNatan2.c ****  * Calculate atan2 using a 3rd order Taylor series. The coefficients are stored
  58:../Common/IQMath/ti/_IQNatan2.c ****  * in a lookup table with 17 ranges to give an accuracy of XX bits.
  59:../Common/IQMath/ti/_IQNatan2.c ****  *
  60:../Common/IQMath/ti/_IQNatan2.c ****  * The input to the Taylor series is the ratio of the two inputs and must be
  61:../Common/IQMath/ti/_IQNatan2.c ****  * in the range of 0 <= input <= 1. If the y argument is larger than the x
  62:../Common/IQMath/ti/_IQNatan2.c ****  * argument we must apply the following transformation:
  63:../Common/IQMath/ti/_IQNatan2.c ****  *
  64:../Common/IQMath/ti/_IQNatan2.c ****  *     atan(y/x) = pi/2 - atan(x/y)
  65:../Common/IQMath/ti/_IQNatan2.c ****  */
  66:../Common/IQMath/ti/_IQNatan2.c **** #if defined (__TI_COMPILER_VERSION__)
  67:../Common/IQMath/ti/_IQNatan2.c ****     #pragma FUNC_ALWAYS_INLINE(__IQNatan2)
  68:../Common/IQMath/ti/_IQNatan2.c **** #elif defined(__IAR_SYSTEMS_ICC__)
  69:../Common/IQMath/ti/_IQNatan2.c ****     #pragma inline=forced
  70:../Common/IQMath/ti/_IQNatan2.c **** #endif
  71:../Common/IQMath/ti/_IQNatan2.c **** __STATIC_INLINE int_fast32_t __IQNatan2(int_fast32_t iqNInputY, int_fast32_t iqNInputX, const uint8
  72:../Common/IQMath/ti/_IQNatan2.c **** {
  73:../Common/IQMath/ti/_IQNatan2.c ****     uint8_t ui8Status = 0;
  74:../Common/IQMath/ti/_IQNatan2.c ****     uint8_t ui8Index;
  75:../Common/IQMath/ti/_IQNatan2.c ****     uint_fast16_t ui16IntState;
  76:../Common/IQMath/ti/_IQNatan2.c ****     uint_fast16_t ui16MPYState;
  77:../Common/IQMath/ti/_IQNatan2.c ****     uint_fast32_t uiqNInputX;
  78:../Common/IQMath/ti/_IQNatan2.c ****     uint_fast32_t uiqNInputY;
  79:../Common/IQMath/ti/_IQNatan2.c ****     uint_fast32_t uiq32ResultPU;
  80:../Common/IQMath/ti/_IQNatan2.c ****     int_fast32_t iqNResult;
  81:../Common/IQMath/ti/_IQNatan2.c ****     int_fast32_t iq29Result;
  82:../Common/IQMath/ti/_IQNatan2.c ****     const int_fast32_t *piq32Coeffs;
  83:../Common/IQMath/ti/_IQNatan2.c ****     uint_fast32_t uiq31Input;
  84:../Common/IQMath/ti/_IQNatan2.c ****     
  85:../Common/IQMath/ti/_IQNatan2.c ****     /*
  86:../Common/IQMath/ti/_IQNatan2.c ****      * Extract the sign from the inputs and set the following status bits:
ARM GAS  C:\Users\57308\AppData\Local\Temp\ccZcK4bV.s 			page 3


  87:../Common/IQMath/ti/_IQNatan2.c ****      *
  88:../Common/IQMath/ti/_IQNatan2.c ****      *      ui8Status = xxxxxTQS
  89:../Common/IQMath/ti/_IQNatan2.c ****      *      x = unused
  90:../Common/IQMath/ti/_IQNatan2.c ****      *      T = transform was applied
  91:../Common/IQMath/ti/_IQNatan2.c ****      *      Q = 2nd or 3rd quadrant (-x)
  92:../Common/IQMath/ti/_IQNatan2.c ****      *      S = sign bit needs to be set (-y)
  93:../Common/IQMath/ti/_IQNatan2.c ****      */
  94:../Common/IQMath/ti/_IQNatan2.c ****     if (iqNInputY < 0) {
  95:../Common/IQMath/ti/_IQNatan2.c ****         ui8Status |= 1;
  96:../Common/IQMath/ti/_IQNatan2.c ****         iqNInputY = -iqNInputY;
  97:../Common/IQMath/ti/_IQNatan2.c ****     }
  98:../Common/IQMath/ti/_IQNatan2.c ****     if (iqNInputX < 0) {
  99:../Common/IQMath/ti/_IQNatan2.c ****         ui8Status |= 2;
 100:../Common/IQMath/ti/_IQNatan2.c ****         iqNInputX = -iqNInputX;
 101:../Common/IQMath/ti/_IQNatan2.c ****     }
 102:../Common/IQMath/ti/_IQNatan2.c ****     
 103:../Common/IQMath/ti/_IQNatan2.c ****     /* Save inputs to unsigned iqN formats. */
 104:../Common/IQMath/ti/_IQNatan2.c ****     uiqNInputX = (uint_fast32_t)iqNInputX;
 105:../Common/IQMath/ti/_IQNatan2.c ****     uiqNInputY = (uint_fast32_t)iqNInputY;
 106:../Common/IQMath/ti/_IQNatan2.c ****     
 107:../Common/IQMath/ti/_IQNatan2.c ****     /*
 108:../Common/IQMath/ti/_IQNatan2.c ****      * Calcualte the ratio of the inputs in iq31. When using the iq31 div
 109:../Common/IQMath/ti/_IQNatan2.c ****      * fucntions with inputs of matching type the result will be iq31:
 110:../Common/IQMath/ti/_IQNatan2.c ****      *
 111:../Common/IQMath/ti/_IQNatan2.c ****      *     iq31 = _IQ31div(iqN, iqN);
 112:../Common/IQMath/ti/_IQNatan2.c ****      */
 113:../Common/IQMath/ti/_IQNatan2.c ****     if (uiqNInputX < uiqNInputY) {
 114:../Common/IQMath/ti/_IQNatan2.c ****         ui8Status |= 4;
 115:../Common/IQMath/ti/_IQNatan2.c ****         uiq31Input = _UIQ31div(uiqNInputX, uiqNInputY);
 116:../Common/IQMath/ti/_IQNatan2.c ****     }
 117:../Common/IQMath/ti/_IQNatan2.c ****     else {
 118:../Common/IQMath/ti/_IQNatan2.c ****         uiq31Input = _UIQ31div(uiqNInputY, uiqNInputX);
 119:../Common/IQMath/ti/_IQNatan2.c ****     }
 120:../Common/IQMath/ti/_IQNatan2.c ****     
 121:../Common/IQMath/ti/_IQNatan2.c ****     /* Calculate the index using the left 8 most bits of the input. */
 122:../Common/IQMath/ti/_IQNatan2.c ****     ui8Index = (uint_fast16_t)(uiq31Input >> 24);
 123:../Common/IQMath/ti/_IQNatan2.c ****     ui8Index = ui8Index & 0x00fc;
 124:../Common/IQMath/ti/_IQNatan2.c ****     
 125:../Common/IQMath/ti/_IQNatan2.c ****     /* Set the coefficient pointer. */
 126:../Common/IQMath/ti/_IQNatan2.c ****     piq32Coeffs = &_IQ32atan_coeffs[ui8Index];
 127:../Common/IQMath/ti/_IQNatan2.c ****     
 128:../Common/IQMath/ti/_IQNatan2.c ****     /*
 129:../Common/IQMath/ti/_IQNatan2.c ****      * Mark the start of any multiplies. This will disable interrupts and set
 130:../Common/IQMath/ti/_IQNatan2.c ****      * the multiplier to fractional mode. This is designed to reduce overhead
 131:../Common/IQMath/ti/_IQNatan2.c ****      * of constantly switching states when using repeated multiplies (MSP430
 132:../Common/IQMath/ti/_IQNatan2.c ****      * only).
 133:../Common/IQMath/ti/_IQNatan2.c ****      */
 134:../Common/IQMath/ti/_IQNatan2.c ****     __mpyf_start(&ui16IntState, &ui16MPYState);
 135:../Common/IQMath/ti/_IQNatan2.c ****     
 136:../Common/IQMath/ti/_IQNatan2.c ****     /* 
 137:../Common/IQMath/ti/_IQNatan2.c ****      * Calculate atan(x) using the following Taylor series:
 138:../Common/IQMath/ti/_IQNatan2.c ****      *
 139:../Common/IQMath/ti/_IQNatan2.c ****      *     atan(x) = ((c3*x + c2)*x + c1)*x + c0
 140:../Common/IQMath/ti/_IQNatan2.c ****      */
 141:../Common/IQMath/ti/_IQNatan2.c ****     
 142:../Common/IQMath/ti/_IQNatan2.c ****     /* c3*x */
 143:../Common/IQMath/ti/_IQNatan2.c ****     uiq32ResultPU = __mpyf_l(uiq31Input, *piq32Coeffs++);
ARM GAS  C:\Users\57308\AppData\Local\Temp\ccZcK4bV.s 			page 4


 144:../Common/IQMath/ti/_IQNatan2.c ****     
 145:../Common/IQMath/ti/_IQNatan2.c ****     /* c3*x + c2 */
 146:../Common/IQMath/ti/_IQNatan2.c ****     uiq32ResultPU = uiq32ResultPU + *piq32Coeffs++;
 147:../Common/IQMath/ti/_IQNatan2.c ****     
 148:../Common/IQMath/ti/_IQNatan2.c ****     /* (c3*x + c2)*x */
 149:../Common/IQMath/ti/_IQNatan2.c ****     uiq32ResultPU = __mpyf_l(uiq31Input, uiq32ResultPU);
 150:../Common/IQMath/ti/_IQNatan2.c ****     
 151:../Common/IQMath/ti/_IQNatan2.c ****     /* (c3*x + c2)*x + c1 */
 152:../Common/IQMath/ti/_IQNatan2.c ****     uiq32ResultPU = uiq32ResultPU + *piq32Coeffs++;
 153:../Common/IQMath/ti/_IQNatan2.c ****     
 154:../Common/IQMath/ti/_IQNatan2.c ****     /* ((c3*x + c2)*x + c1)*x */
 155:../Common/IQMath/ti/_IQNatan2.c ****     uiq32ResultPU = __mpyf_l(uiq31Input, uiq32ResultPU);
 156:../Common/IQMath/ti/_IQNatan2.c ****     
 157:../Common/IQMath/ti/_IQNatan2.c ****     /* ((c3*x + c2)*x + c1)*x + c0 */
 158:../Common/IQMath/ti/_IQNatan2.c ****     uiq32ResultPU = uiq32ResultPU + *piq32Coeffs++;
 159:../Common/IQMath/ti/_IQNatan2.c ****     
 160:../Common/IQMath/ti/_IQNatan2.c ****     /* Check if we applied the transformation. */
 161:../Common/IQMath/ti/_IQNatan2.c ****     if (ui8Status & 4) {
 162:../Common/IQMath/ti/_IQNatan2.c ****         /* atan(y/x) = pi/2 - uiq32ResultPU */
 163:../Common/IQMath/ti/_IQNatan2.c ****         uiq32ResultPU = (uint32_t)(0x40000000 - uiq32ResultPU);
 164:../Common/IQMath/ti/_IQNatan2.c ****     }
 165:../Common/IQMath/ti/_IQNatan2.c ****     
 166:../Common/IQMath/ti/_IQNatan2.c ****     /* Check if the result needs to be mirrored to the 2nd/3rd quadrants. */
 167:../Common/IQMath/ti/_IQNatan2.c ****     if (ui8Status & 2) {
 168:../Common/IQMath/ti/_IQNatan2.c ****         /* atan(y/x) = pi - uiq32ResultPU */
 169:../Common/IQMath/ti/_IQNatan2.c ****         uiq32ResultPU = (uint32_t)(0x80000000 - uiq32ResultPU);
 170:../Common/IQMath/ti/_IQNatan2.c ****     }
 171:../Common/IQMath/ti/_IQNatan2.c ****     
 172:../Common/IQMath/ti/_IQNatan2.c ****     /* Round and convert result to correct format (radians/PU and iqN type). */
 173:../Common/IQMath/ti/_IQNatan2.c ****     if (type == TYPE_PU) {
 174:../Common/IQMath/ti/_IQNatan2.c ****         uiq32ResultPU += (uint_fast32_t)1 << (31 - q_value);
 175:../Common/IQMath/ti/_IQNatan2.c ****         iqNResult = uiq32ResultPU >> (32 - q_value);
 176:../Common/IQMath/ti/_IQNatan2.c ****     }
 177:../Common/IQMath/ti/_IQNatan2.c ****     else {
 178:../Common/IQMath/ti/_IQNatan2.c ****         /*
 179:../Common/IQMath/ti/_IQNatan2.c ****          * Multiply the per-unit result by 2*pi:
 180:../Common/IQMath/ti/_IQNatan2.c ****          *
 181:../Common/IQMath/ti/_IQNatan2.c ****          *     iq31mpy(iq32, iq28) = iq29
 182:../Common/IQMath/ti/_IQNatan2.c ****          */
 183:../Common/IQMath/ti/_IQNatan2.c ****         iq29Result = __mpyf_l(uiq32ResultPU, iq28_twoPi);
 184:../Common/IQMath/ti/_IQNatan2.c ****         
 185:../Common/IQMath/ti/_IQNatan2.c ****         /* Only round IQ formats < 29 */
 186:../Common/IQMath/ti/_IQNatan2.c ****         if (q_value < 29) {
 187:../Common/IQMath/ti/_IQNatan2.c ****             iq29Result += (uint_fast32_t)1 << (28 - q_value);
 188:../Common/IQMath/ti/_IQNatan2.c ****         }
 189:../Common/IQMath/ti/_IQNatan2.c ****         iqNResult = iq29Result >> (29 - q_value);
 190:../Common/IQMath/ti/_IQNatan2.c ****     }
 191:../Common/IQMath/ti/_IQNatan2.c ****     
 192:../Common/IQMath/ti/_IQNatan2.c ****     /* 
 193:../Common/IQMath/ti/_IQNatan2.c ****      * Mark the end of all multiplies. This restores MPY and interrupt states
 194:../Common/IQMath/ti/_IQNatan2.c ****      * (MSP430 only).
 195:../Common/IQMath/ti/_IQNatan2.c ****      */
 196:../Common/IQMath/ti/_IQNatan2.c ****     __mpy_stop(&ui16IntState, &ui16MPYState);
 197:../Common/IQMath/ti/_IQNatan2.c ****     
 198:../Common/IQMath/ti/_IQNatan2.c ****     /* Set the sign bit and result to correct quadrant. */
 199:../Common/IQMath/ti/_IQNatan2.c ****     if (ui8Status & 1) {
 200:../Common/IQMath/ti/_IQNatan2.c ****         return -iqNResult;
ARM GAS  C:\Users\57308\AppData\Local\Temp\ccZcK4bV.s 			page 5


 201:../Common/IQMath/ti/_IQNatan2.c ****     }
 202:../Common/IQMath/ti/_IQNatan2.c ****     else {
 203:../Common/IQMath/ti/_IQNatan2.c ****         return iqNResult;
 204:../Common/IQMath/ti/_IQNatan2.c ****     }
 205:../Common/IQMath/ti/_IQNatan2.c **** }
 206:../Common/IQMath/ti/_IQNatan2.c **** #else
 207:../Common/IQMath/ti/_IQNatan2.c **** /**
 208:../Common/IQMath/ti/_IQNatan2.c ****  * @brief Compute the 4-quadrant arctangent of the IQN input 
 209:../Common/IQMath/ti/_IQNatan2.c ****  *        and return the result, using MathACL.
 210:../Common/IQMath/ti/_IQNatan2.c ****  *
 211:../Common/IQMath/ti/_IQNatan2.c ****  * @param iqNInputY       IQN type input y.
 212:../Common/IQMath/ti/_IQNatan2.c ****  * @param iqNInputX       IQN type input x.
 213:../Common/IQMath/ti/_IQNatan2.c ****  * @param type            Specifies radians or per-unit operation.
 214:../Common/IQMath/ti/_IQNatan2.c ****  * @param q_value         IQ format.
 215:../Common/IQMath/ti/_IQNatan2.c ****  *
 216:../Common/IQMath/ti/_IQNatan2.c ****  * @return                IQN type result of 4-quadrant arctangent.
 217:../Common/IQMath/ti/_IQNatan2.c ****  */
 218:../Common/IQMath/ti/_IQNatan2.c **** /* Calculate atan2 using MATHACL */
 219:../Common/IQMath/ti/_IQNatan2.c **** #if defined (__TI_COMPILER_VERSION__)
 220:../Common/IQMath/ti/_IQNatan2.c ****     #pragma FUNC_ALWAYS_INLINE(__IQNatan2)
 221:../Common/IQMath/ti/_IQNatan2.c **** #elif defined(__IAR_SYSTEMS_ICC__)
 222:../Common/IQMath/ti/_IQNatan2.c ****     #pragma inline=forced
 223:../Common/IQMath/ti/_IQNatan2.c **** #endif
 224:../Common/IQMath/ti/_IQNatan2.c **** 
 225:../Common/IQMath/ti/_IQNatan2.c **** __STATIC_INLINE int_fast32_t __IQNatan2(int_fast32_t iqNInputY, int_fast32_t iqNInputX, const uint8
 226:../Common/IQMath/ti/_IQNatan2.c **** {
 227:../Common/IQMath/ti/_IQNatan2.c ****     int_fast32_t res, res1, abs_max, temp;
 228:../Common/IQMath/ti/_IQNatan2.c ****     int_fast32_t iqNnormX, iqNnormY, iq31normX, iq31normY;
 229:../Common/IQMath/ti/_IQNatan2.c ****     /* ATAN2 Operation with MatchACL requires X,Y input values to be IQ31.
 230:../Common/IQMath/ti/_IQNatan2.c ****      * Therefore, we need to normalize the input values.
 231:../Common/IQMath/ti/_IQNatan2.c ****      */
 232:../Common/IQMath/ti/_IQNatan2.c **** 
 233:../Common/IQMath/ti/_IQNatan2.c ****     /* Normalize input values by using the largest abs max input value */
 234:../Common/IQMath/ti/_IQNatan2.c ****     /* Code for _IQXabs is the same for all Q values */
 235:../Common/IQMath/ti/_IQNatan2.c ****     if(_IQabs(iqNInputY) > _IQabs(iqNInputX))
 236:../Common/IQMath/ti/_IQNatan2.c ****         abs_max = _IQabs(iqNInputY);
 237:../Common/IQMath/ti/_IQNatan2.c ****     else
 238:../Common/IQMath/ti/_IQNatan2.c ****         abs_max = _IQabs(iqNInputX);
 239:../Common/IQMath/ti/_IQNatan2.c **** 
 240:../Common/IQMath/ti/_IQNatan2.c ****     /* Both inputs are 0 */
 241:../Common/IQMath/ti/_IQNatan2.c ****     if(abs_max == 0)
 242:../Common/IQMath/ti/_IQNatan2.c ****         return 0;
 243:../Common/IQMath/ti/_IQNatan2.c **** 
 244:../Common/IQMath/ti/_IQNatan2.c ****     /* IQ31 doesn't support 1.0. Therefore, we need to ensure the normalized
 245:../Common/IQMath/ti/_IQNatan2.c ****      * values are not equal to 1 but rather slightly below 1.0.
 246:../Common/IQMath/ti/_IQNatan2.c ****      */
 247:../Common/IQMath/ti/_IQNatan2.c **** 
 248:../Common/IQMath/ti/_IQNatan2.c ****     /* Check to see if abs_max is equal to the max value
 249:../Common/IQMath/ti/_IQNatan2.c ****      * represented by the specified Q value (0x7FFFFFFFF) being represented.
 250:../Common/IQMath/ti/_IQNatan2.c ****      * This will determine which approach is taken to ensure abs_max is > than
 251:../Common/IQMath/ti/_IQNatan2.c ****      * the abs value of either inputs when normalization is performed.
 252:../Common/IQMath/ti/_IQNatan2.c ****      */
 253:../Common/IQMath/ti/_IQNatan2.c ****     if(abs_max == 0x7FFFFFFF) {
 254:../Common/IQMath/ti/_IQNatan2.c ****         /* We want to represent as close as .999999 that we can for a given
 255:../Common/IQMath/ti/_IQNatan2.c ****          * q value. Therefore we want to go to the number slightly lower than
 256:../Common/IQMath/ti/_IQNatan2.c ****          * 1 for the given q value.
 257:../Common/IQMath/ti/_IQNatan2.c ****          */
ARM GAS  C:\Users\57308\AppData\Local\Temp\ccZcK4bV.s 			page 6


 258:../Common/IQMath/ti/_IQNatan2.c ****         temp = (1<<q_value)-1;
 259:../Common/IQMath/ti/_IQNatan2.c **** 
 260:../Common/IQMath/ti/_IQNatan2.c ****         /* Scale down the inputs slightly so we ensure that abs_max is slightly
 261:../Common/IQMath/ti/_IQNatan2.c ****          * larger than the abs value of the inputs.
 262:../Common/IQMath/ti/_IQNatan2.c ****          */
 263:../Common/IQMath/ti/_IQNatan2.c ****         iqNInputX = __IQNmpy(iqNInputX,temp,q_value);
 264:../Common/IQMath/ti/_IQNatan2.c ****         iqNInputY = __IQNmpy(iqNInputY,temp,q_value);
 265:../Common/IQMath/ti/_IQNatan2.c ****     }
 266:../Common/IQMath/ti/_IQNatan2.c ****     else {
 267:../Common/IQMath/ti/_IQNatan2.c ****         /* The decimal value 1 is the smallest positive value for a given IQ.
 268:../Common/IQMath/ti/_IQNatan2.c ****          * So by adding this to our variable we are using to normalize we
 269:../Common/IQMath/ti/_IQNatan2.c ****          * ensure the resulting normalized values are < 1.0.
 270:../Common/IQMath/ti/_IQNatan2.c ****          */
 271:../Common/IQMath/ti/_IQNatan2.c ****         abs_max += 1;
 272:../Common/IQMath/ti/_IQNatan2.c ****     }
 273:../Common/IQMath/ti/_IQNatan2.c **** 
 274:../Common/IQMath/ti/_IQNatan2.c ****     /* Normalize Inputs */
 275:../Common/IQMath/ti/_IQNatan2.c ****     iqNnormX = __IQNdiv_MathACL(iqNInputX,abs_max,q_value);
 276:../Common/IQMath/ti/_IQNatan2.c ****     iqNnormY = __IQNdiv_MathACL(iqNInputY,abs_max,q_value);
 277:../Common/IQMath/ti/_IQNatan2.c **** 
 278:../Common/IQMath/ti/_IQNatan2.c ****     /* Shift from IQX to IQ31 which is required for MathACL ATAN2 operation */
 279:../Common/IQMath/ti/_IQNatan2.c ****     iq31normX = (uint_fast32_t)iqNnormX << (31-q_value);
 280:../Common/IQMath/ti/_IQNatan2.c ****     iq31normY = (uint_fast32_t)iqNnormY << (31-q_value);
 281:../Common/IQMath/ti/_IQNatan2.c **** 
 282:../Common/IQMath/ti/_IQNatan2.c ****     /* MathACL ATAN2 Operation */
 283:../Common/IQMath/ti/_IQNatan2.c ****     MATHACL->CTL = 2 | (31 << 24);
 284:../Common/IQMath/ti/_IQNatan2.c ****     /* write operands to HWA */
 285:../Common/IQMath/ti/_IQNatan2.c ****     MATHACL->OP2 = iq31normY;
 286:../Common/IQMath/ti/_IQNatan2.c ****     /* write to OP1 is the trigger */
 287:../Common/IQMath/ti/_IQNatan2.c ****     MATHACL->OP1 = iq31normX;
 288:../Common/IQMath/ti/_IQNatan2.c **** 
 289:../Common/IQMath/ti/_IQNatan2.c ****     /* read atan2 */
 290:../Common/IQMath/ti/_IQNatan2.c ****     res1 = MATHACL->RES1;
 291:../Common/IQMath/ti/_IQNatan2.c ****     /* Shift from IQ31 to IQ28 for result scaling */
 292:../Common/IQMath/ti/_IQNatan2.c ****     res = res1 >> (3);
 293:../Common/IQMath/ti/_IQNatan2.c ****     /* Round and convert result to correct format (radians/PU and iqN type). */
 294:../Common/IQMath/ti/_IQNatan2.c ****     if (type == TYPE_PU) {
 295:../Common/IQMath/ti/_IQNatan2.c ****         /* IQ28(2.0) = 0x20000000 in int32 */
 296:../Common/IQMath/ti/_IQNatan2.c ****         res = _IQ28div(res, 0x20000000);
 297:../Common/IQMath/ti/_IQNatan2.c ****     }
 298:../Common/IQMath/ti/_IQNatan2.c ****     else {
 299:../Common/IQMath/ti/_IQNatan2.c ****         /* IQ28(PI) = 0x3243F6A8 in int32 */
 300:../Common/IQMath/ti/_IQNatan2.c ****         res = _IQ28mpy(0x3243F6A8, res);
 301:../Common/IQMath/ti/_IQNatan2.c ****     }
 302:../Common/IQMath/ti/_IQNatan2.c ****     /* Shift to q_value type */
 303:../Common/IQMath/ti/_IQNatan2.c ****     if(q_value<28){
 304:../Common/IQMath/ti/_IQNatan2.c ****         res = res >> (28 - q_value);
 305:../Common/IQMath/ti/_IQNatan2.c ****     }
 306:../Common/IQMath/ti/_IQNatan2.c ****     else{
 307:../Common/IQMath/ti/_IQNatan2.c ****         res = res << (q_value - 28);
 308:../Common/IQMath/ti/_IQNatan2.c ****     }
 309:../Common/IQMath/ti/_IQNatan2.c **** 
 310:../Common/IQMath/ti/_IQNatan2.c ****     return res;
 311:../Common/IQMath/ti/_IQNatan2.c **** }
 312:../Common/IQMath/ti/_IQNatan2.c **** #endif
 313:../Common/IQMath/ti/_IQNatan2.c **** 
 314:../Common/IQMath/ti/_IQNatan2.c **** /* ATAN2 */
ARM GAS  C:\Users\57308\AppData\Local\Temp\ccZcK4bV.s 			page 7


 315:../Common/IQMath/ti/_IQNatan2.c **** /**
 316:../Common/IQMath/ti/_IQNatan2.c ****  * @brief Compute the 4-quadrant arctangent of the IQ29 input 
 317:../Common/IQMath/ti/_IQNatan2.c ****  *        and return the result, in radians.
 318:../Common/IQMath/ti/_IQNatan2.c ****  *
 319:../Common/IQMath/ti/_IQNatan2.c ****  * @param y               IQ29 type input y.
 320:../Common/IQMath/ti/_IQNatan2.c ****  * @param x               IQ29 type input x.
 321:../Common/IQMath/ti/_IQNatan2.c ****  *
 322:../Common/IQMath/ti/_IQNatan2.c ****  * @return                IQ29 type result of 4-quadrant arctangent.
 323:../Common/IQMath/ti/_IQNatan2.c ****  */
 324:../Common/IQMath/ti/_IQNatan2.c **** int32_t _IQ29atan2(int32_t y, int32_t x)
 325:../Common/IQMath/ti/_IQNatan2.c **** {
  30              		.loc 1 325 1 view -0
  31              		.cfi_startproc
  32              		@ args = 0, pretend = 0, frame = 0
  33              		@ frame_needed = 0, uses_anonymous_args = 0
  34              		.loc 1 325 1 is_stmt 0 view .LVU1
  35 0000 10B5     		push	{r4, lr}
  36              	.LCFI0:
  37              		.cfi_def_cfa_offset 8
  38              		.cfi_offset 4, -8
  39              		.cfi_offset 14, -4
  40 0002 0B46     		mov	r3, r1
 326:../Common/IQMath/ti/_IQNatan2.c ****     return __IQNatan2(y, x, TYPE_RAD, 29);
  41              		.loc 1 326 5 is_stmt 1 view .LVU2
  42              	.LVL1:
  43              	.LBB24:
  44              	.LBI24:
  71:../Common/IQMath/ti/_IQNatan2.c **** {
  45              		.loc 1 71 30 view .LVU3
  46              	.LBB25:
  73:../Common/IQMath/ti/_IQNatan2.c ****     uint8_t ui8Index;
  47              		.loc 1 73 5 view .LVU4
  74:../Common/IQMath/ti/_IQNatan2.c ****     uint_fast16_t ui16IntState;
  48              		.loc 1 74 5 view .LVU5
  75:../Common/IQMath/ti/_IQNatan2.c ****     uint_fast16_t ui16MPYState;
  49              		.loc 1 75 5 view .LVU6
  76:../Common/IQMath/ti/_IQNatan2.c ****     uint_fast32_t uiqNInputX;
  50              		.loc 1 76 5 view .LVU7
  77:../Common/IQMath/ti/_IQNatan2.c ****     uint_fast32_t uiqNInputY;
  51              		.loc 1 77 5 view .LVU8
  78:../Common/IQMath/ti/_IQNatan2.c ****     uint_fast32_t uiq32ResultPU;
  52              		.loc 1 78 5 view .LVU9
  79:../Common/IQMath/ti/_IQNatan2.c ****     int_fast32_t iqNResult;
  53              		.loc 1 79 5 view .LVU10
  80:../Common/IQMath/ti/_IQNatan2.c ****     int_fast32_t iq29Result;
  54              		.loc 1 80 5 view .LVU11
  81:../Common/IQMath/ti/_IQNatan2.c ****     const int_fast32_t *piq32Coeffs;
  55              		.loc 1 81 5 view .LVU12
  82:../Common/IQMath/ti/_IQNatan2.c ****     uint_fast32_t uiq31Input;
  56              		.loc 1 82 5 view .LVU13
  83:../Common/IQMath/ti/_IQNatan2.c ****     
  57              		.loc 1 83 5 view .LVU14
  94:../Common/IQMath/ti/_IQNatan2.c ****         ui8Status |= 1;
  58              		.loc 1 94 5 view .LVU15
  94:../Common/IQMath/ti/_IQNatan2.c ****         ui8Status |= 1;
  59              		.loc 1 94 8 is_stmt 0 view .LVU16
  60 0004 0028     		cmp	r0, #0
ARM GAS  C:\Users\57308\AppData\Local\Temp\ccZcK4bV.s 			page 8


  94:../Common/IQMath/ti/_IQNatan2.c ****         ui8Status |= 1;
  61              		.loc 1 94 8 view .LVU17
  62 0006 54DB     		blt	.L11
  73:../Common/IQMath/ti/_IQNatan2.c ****     uint8_t ui8Index;
  63              		.loc 1 73 13 view .LVU18
  64 0008 0024     		movs	r4, #0
  65              	.LVL2:
  66              	.L2:
  98:../Common/IQMath/ti/_IQNatan2.c ****         ui8Status |= 2;
  67              		.loc 1 98 5 is_stmt 1 view .LVU19
  98:../Common/IQMath/ti/_IQNatan2.c ****         ui8Status |= 2;
  68              		.loc 1 98 8 is_stmt 0 view .LVU20
  69 000a 002B     		cmp	r3, #0
  70 000c 54DB     		blt	.L12
  71              	.LVL3:
  72              	.L3:
 104:../Common/IQMath/ti/_IQNatan2.c ****     uiqNInputY = (uint_fast32_t)iqNInputY;
  73              		.loc 1 104 5 is_stmt 1 view .LVU21
 105:../Common/IQMath/ti/_IQNatan2.c ****     
  74              		.loc 1 105 5 view .LVU22
 113:../Common/IQMath/ti/_IQNatan2.c ****         ui8Status |= 4;
  75              		.loc 1 113 5 view .LVU23
 113:../Common/IQMath/ti/_IQNatan2.c ****         ui8Status |= 4;
  76              		.loc 1 113 8 is_stmt 0 view .LVU24
  77 000e 8342     		cmp	r3, r0
  78 0010 56D2     		bcs	.L4
 114:../Common/IQMath/ti/_IQNatan2.c ****         uiq31Input = _UIQ31div(uiqNInputX, uiqNInputY);
  79              		.loc 1 114 9 is_stmt 1 view .LVU25
 114:../Common/IQMath/ti/_IQNatan2.c ****         uiq31Input = _UIQ31div(uiqNInputX, uiqNInputY);
  80              		.loc 1 114 19 is_stmt 0 view .LVU26
  81 0012 44F00404 		orr	r4, r4, #4
  82              	.LVL4:
 115:../Common/IQMath/ti/_IQNatan2.c ****     }
  83              		.loc 1 115 9 is_stmt 1 view .LVU27
 115:../Common/IQMath/ti/_IQNatan2.c ****     }
  84              		.loc 1 115 22 is_stmt 0 view .LVU28
  85 0016 0146     		mov	r1, r0
  86              	.LVL5:
 115:../Common/IQMath/ti/_IQNatan2.c ****     }
  87              		.loc 1 115 22 view .LVU29
  88 0018 1846     		mov	r0, r3
  89              	.LVL6:
 115:../Common/IQMath/ti/_IQNatan2.c ****     }
  90              		.loc 1 115 22 view .LVU30
  91 001a FFF7FEFF 		bl	_UIQ31div
  92              	.LVL7:
  93              	.L5:
 122:../Common/IQMath/ti/_IQNatan2.c ****     ui8Index = ui8Index & 0x00fc;
  94              		.loc 1 122 5 is_stmt 1 view .LVU31
 122:../Common/IQMath/ti/_IQNatan2.c ****     ui8Index = ui8Index & 0x00fc;
  95              		.loc 1 122 14 is_stmt 0 view .LVU32
  96 001e 030E     		lsrs	r3, r0, #24
  97              	.LVL8:
 123:../Common/IQMath/ti/_IQNatan2.c ****     
  98              		.loc 1 123 5 is_stmt 1 view .LVU33
 123:../Common/IQMath/ti/_IQNatan2.c ****     
  99              		.loc 1 123 14 is_stmt 0 view .LVU34
ARM GAS  C:\Users\57308\AppData\Local\Temp\ccZcK4bV.s 			page 9


 100 0020 03F0FC03 		and	r3, r3, #252
 101              	.LVL9:
 126:../Common/IQMath/ti/_IQNatan2.c ****     
 102              		.loc 1 126 5 is_stmt 1 view .LVU35
 126:../Common/IQMath/ti/_IQNatan2.c ****     
 103              		.loc 1 126 17 is_stmt 0 view .LVU36
 104 0024 2849     		ldr	r1, .L13
 105 0026 01EB8302 		add	r2, r1, r3, lsl #2
 106              	.LVL10:
 134:../Common/IQMath/ti/_IQNatan2.c ****     
 107              		.loc 1 134 5 is_stmt 1 view .LVU37
 134:../Common/IQMath/ti/_IQNatan2.c ****     
 108              		.loc 1 134 5 is_stmt 0 view .LVU38
 109              	.LBE25:
 110              	.LBE24:
 111              		.file 2 "../Common/IQMath/ti/./support/RTS_support.h"
   1:../Common/IQMath/ti/./support/RTS_support.h **** #ifndef __RTS_SUPPORTH__
   2:../Common/IQMath/ti/./support/RTS_support.h **** #define __RTS_SUPPORTH__
   3:../Common/IQMath/ti/./support/RTS_support.h **** 
   4:../Common/IQMath/ti/./support/RTS_support.h **** ////////////////////////////////////////////////////////////
   5:../Common/IQMath/ti/./support/RTS_support.h **** //                                                        //
   6:../Common/IQMath/ti/./support/RTS_support.h **** //              MPY32 control functions.                  //
   7:../Common/IQMath/ti/./support/RTS_support.h **** //                                                        //
   8:../Common/IQMath/ti/./support/RTS_support.h **** ////////////////////////////////////////////////////////////
   9:../Common/IQMath/ti/./support/RTS_support.h **** #if defined (__TI_COMPILER_VERSION__)
  10:../Common/IQMath/ti/./support/RTS_support.h ****     #pragma FUNC_ALWAYS_INLINE(__mpy_start)
  11:../Common/IQMath/ti/./support/RTS_support.h **** #elif defined(__IAR_SYSTEMS_ICC__)
  12:../Common/IQMath/ti/./support/RTS_support.h ****     #pragma inline=forced
  13:../Common/IQMath/ti/./support/RTS_support.h **** #endif
  14:../Common/IQMath/ti/./support/RTS_support.h **** static inline void __mpy_start(uint_fast16_t *ui16IntState, uint_fast16_t *ui16MPYState)
  15:../Common/IQMath/ti/./support/RTS_support.h **** {
  16:../Common/IQMath/ti/./support/RTS_support.h ****     /* Do nothing. */
  17:../Common/IQMath/ti/./support/RTS_support.h ****     return;
  18:../Common/IQMath/ti/./support/RTS_support.h **** }
  19:../Common/IQMath/ti/./support/RTS_support.h **** 
  20:../Common/IQMath/ti/./support/RTS_support.h **** #if defined (__TI_COMPILER_VERSION__)
  21:../Common/IQMath/ti/./support/RTS_support.h ****     #pragma FUNC_ALWAYS_INLINE(__mpyf_start)
  22:../Common/IQMath/ti/./support/RTS_support.h **** #elif defined(__IAR_SYSTEMS_ICC__)
  23:../Common/IQMath/ti/./support/RTS_support.h ****     #pragma inline=forced
  24:../Common/IQMath/ti/./support/RTS_support.h **** #endif
  25:../Common/IQMath/ti/./support/RTS_support.h **** static inline void __mpyf_start(uint_fast16_t *ui16IntState, uint_fast16_t *ui16MPYState)
  26:../Common/IQMath/ti/./support/RTS_support.h **** {
  27:../Common/IQMath/ti/./support/RTS_support.h ****     /* Do nothing. */
  28:../Common/IQMath/ti/./support/RTS_support.h ****     return;
 112              		.loc 2 28 5 is_stmt 1 view .LVU39
 113              	.LBB37:
 114              	.LBB34:
 143:../Common/IQMath/ti/_IQNatan2.c ****     
 115              		.loc 1 143 5 view .LVU40
 143:../Common/IQMath/ti/_IQNatan2.c ****     
 116              		.loc 1 143 21 is_stmt 0 view .LVU41
 117 002a 51F82330 		ldr	r3, [r1, r3, lsl #2]
 118              	.LVL11:
 119              	.LBB26:
 120              	.LBI26:
  29:../Common/IQMath/ti/./support/RTS_support.h **** }
  30:../Common/IQMath/ti/./support/RTS_support.h **** 
ARM GAS  C:\Users\57308\AppData\Local\Temp\ccZcK4bV.s 			page 10


  31:../Common/IQMath/ti/./support/RTS_support.h **** #if defined (__TI_COMPILER_VERSION__)
  32:../Common/IQMath/ti/./support/RTS_support.h ****     #pragma FUNC_ALWAYS_INLINE(__mpyfs_start)
  33:../Common/IQMath/ti/./support/RTS_support.h **** #elif defined(__IAR_SYSTEMS_ICC__)
  34:../Common/IQMath/ti/./support/RTS_support.h ****     #pragma inline=forced
  35:../Common/IQMath/ti/./support/RTS_support.h **** #endif
  36:../Common/IQMath/ti/./support/RTS_support.h **** static inline void __mpyfs_start(uint_fast16_t *ui16IntState, uint_fast16_t *ui16MPYState)
  37:../Common/IQMath/ti/./support/RTS_support.h **** {
  38:../Common/IQMath/ti/./support/RTS_support.h ****     /* Do nothing. */
  39:../Common/IQMath/ti/./support/RTS_support.h ****     return;
  40:../Common/IQMath/ti/./support/RTS_support.h **** }
  41:../Common/IQMath/ti/./support/RTS_support.h **** 
  42:../Common/IQMath/ti/./support/RTS_support.h **** #if defined (__TI_COMPILER_VERSION__)
  43:../Common/IQMath/ti/./support/RTS_support.h ****     #pragma FUNC_ALWAYS_INLINE(__mpy_clear_ctl0)
  44:../Common/IQMath/ti/./support/RTS_support.h **** #elif defined(__IAR_SYSTEMS_ICC__)
  45:../Common/IQMath/ti/./support/RTS_support.h ****     #pragma inline=forced
  46:../Common/IQMath/ti/./support/RTS_support.h **** #endif
  47:../Common/IQMath/ti/./support/RTS_support.h **** static inline void __mpy_clear_ctl0(void)
  48:../Common/IQMath/ti/./support/RTS_support.h **** {
  49:../Common/IQMath/ti/./support/RTS_support.h ****     /* Do nothing. */
  50:../Common/IQMath/ti/./support/RTS_support.h ****     return;
  51:../Common/IQMath/ti/./support/RTS_support.h **** }
  52:../Common/IQMath/ti/./support/RTS_support.h **** 
  53:../Common/IQMath/ti/./support/RTS_support.h **** #if defined (__TI_COMPILER_VERSION__)
  54:../Common/IQMath/ti/./support/RTS_support.h ****     #pragma FUNC_ALWAYS_INLINE(__mpy_set_frac)
  55:../Common/IQMath/ti/./support/RTS_support.h **** #elif defined(__IAR_SYSTEMS_ICC__)
  56:../Common/IQMath/ti/./support/RTS_support.h ****     #pragma inline=forced
  57:../Common/IQMath/ti/./support/RTS_support.h **** #endif
  58:../Common/IQMath/ti/./support/RTS_support.h **** static inline void __mpy_set_frac(void)
  59:../Common/IQMath/ti/./support/RTS_support.h **** {
  60:../Common/IQMath/ti/./support/RTS_support.h ****     /* Do nothing. */
  61:../Common/IQMath/ti/./support/RTS_support.h ****     return;
  62:../Common/IQMath/ti/./support/RTS_support.h **** }
  63:../Common/IQMath/ti/./support/RTS_support.h **** 
  64:../Common/IQMath/ti/./support/RTS_support.h **** #if defined (__TI_COMPILER_VERSION__)
  65:../Common/IQMath/ti/./support/RTS_support.h ****     #pragma FUNC_ALWAYS_INLINE(__mpy_stop)
  66:../Common/IQMath/ti/./support/RTS_support.h **** #elif defined(__IAR_SYSTEMS_ICC__)
  67:../Common/IQMath/ti/./support/RTS_support.h ****     #pragma inline=forced
  68:../Common/IQMath/ti/./support/RTS_support.h **** #endif
  69:../Common/IQMath/ti/./support/RTS_support.h **** static inline void __mpy_stop(uint_fast16_t *ui16IntState, uint_fast16_t *ui16MPYState)
  70:../Common/IQMath/ti/./support/RTS_support.h **** {
  71:../Common/IQMath/ti/./support/RTS_support.h ****     /* Do nothing. */
  72:../Common/IQMath/ti/./support/RTS_support.h ****     return;
  73:../Common/IQMath/ti/./support/RTS_support.h **** }
  74:../Common/IQMath/ti/./support/RTS_support.h **** 
  75:../Common/IQMath/ti/./support/RTS_support.h **** ////////////////////////////////////////////////////////////
  76:../Common/IQMath/ti/./support/RTS_support.h **** //                                                        //
  77:../Common/IQMath/ti/./support/RTS_support.h **** //                16-bit functions                        //
  78:../Common/IQMath/ti/./support/RTS_support.h **** //                                                        //
  79:../Common/IQMath/ti/./support/RTS_support.h **** ////////////////////////////////////////////////////////////
  80:../Common/IQMath/ti/./support/RTS_support.h **** #if defined (__TI_COMPILER_VERSION__)
  81:../Common/IQMath/ti/./support/RTS_support.h ****     #pragma FUNC_ALWAYS_INLINE(__mpy_w)
  82:../Common/IQMath/ti/./support/RTS_support.h **** #elif defined(__IAR_SYSTEMS_ICC__)
  83:../Common/IQMath/ti/./support/RTS_support.h ****     #pragma inline=forced
  84:../Common/IQMath/ti/./support/RTS_support.h **** #endif
  85:../Common/IQMath/ti/./support/RTS_support.h **** static inline int_fast16_t __mpy_w(int_fast16_t arg1, int_fast16_t arg2)
  86:../Common/IQMath/ti/./support/RTS_support.h **** {
  87:../Common/IQMath/ti/./support/RTS_support.h ****     return (arg1 * arg2);
ARM GAS  C:\Users\57308\AppData\Local\Temp\ccZcK4bV.s 			page 11


  88:../Common/IQMath/ti/./support/RTS_support.h **** }
  89:../Common/IQMath/ti/./support/RTS_support.h **** 
  90:../Common/IQMath/ti/./support/RTS_support.h **** #if defined (__TI_COMPILER_VERSION__)
  91:../Common/IQMath/ti/./support/RTS_support.h ****     #pragma FUNC_ALWAYS_INLINE(__mpy_uw)
  92:../Common/IQMath/ti/./support/RTS_support.h **** #elif defined(__IAR_SYSTEMS_ICC__)
  93:../Common/IQMath/ti/./support/RTS_support.h ****     #pragma inline=forced
  94:../Common/IQMath/ti/./support/RTS_support.h **** #endif
  95:../Common/IQMath/ti/./support/RTS_support.h **** static inline uint_fast16_t __mpy_uw(uint_fast16_t arg1, uint_fast16_t arg2)
  96:../Common/IQMath/ti/./support/RTS_support.h **** {
  97:../Common/IQMath/ti/./support/RTS_support.h ****     return (arg1 * arg2);
  98:../Common/IQMath/ti/./support/RTS_support.h **** }
  99:../Common/IQMath/ti/./support/RTS_support.h **** 
 100:../Common/IQMath/ti/./support/RTS_support.h **** #if defined (__TI_COMPILER_VERSION__)
 101:../Common/IQMath/ti/./support/RTS_support.h ****     #pragma FUNC_ALWAYS_INLINE(__mpyx_w)
 102:../Common/IQMath/ti/./support/RTS_support.h **** #elif defined(__IAR_SYSTEMS_ICC__)
 103:../Common/IQMath/ti/./support/RTS_support.h ****     #pragma inline=forced
 104:../Common/IQMath/ti/./support/RTS_support.h **** #endif
 105:../Common/IQMath/ti/./support/RTS_support.h **** static inline int_fast32_t __mpyx_w(int_fast16_t arg1, int_fast16_t arg2)
 106:../Common/IQMath/ti/./support/RTS_support.h **** {
 107:../Common/IQMath/ti/./support/RTS_support.h ****     return ((int_fast32_t)arg1 * (int_fast32_t)arg2);
 108:../Common/IQMath/ti/./support/RTS_support.h **** }
 109:../Common/IQMath/ti/./support/RTS_support.h **** 
 110:../Common/IQMath/ti/./support/RTS_support.h **** #if defined (__TI_COMPILER_VERSION__)
 111:../Common/IQMath/ti/./support/RTS_support.h ****     #pragma FUNC_ALWAYS_INLINE(__mpyx_uw)
 112:../Common/IQMath/ti/./support/RTS_support.h **** #elif defined(__IAR_SYSTEMS_ICC__)
 113:../Common/IQMath/ti/./support/RTS_support.h ****     #pragma inline=forced
 114:../Common/IQMath/ti/./support/RTS_support.h **** #endif
 115:../Common/IQMath/ti/./support/RTS_support.h **** static inline uint_fast32_t __mpyx_uw(uint_fast16_t arg1, uint_fast16_t arg2)
 116:../Common/IQMath/ti/./support/RTS_support.h **** {
 117:../Common/IQMath/ti/./support/RTS_support.h ****     return ((uint_fast32_t)arg1 * (uint_fast32_t)arg2);
 118:../Common/IQMath/ti/./support/RTS_support.h **** }
 119:../Common/IQMath/ti/./support/RTS_support.h **** 
 120:../Common/IQMath/ti/./support/RTS_support.h **** #if defined (__TI_COMPILER_VERSION__)
 121:../Common/IQMath/ti/./support/RTS_support.h ****     #pragma FUNC_ALWAYS_INLINE(__mpyf_w)
 122:../Common/IQMath/ti/./support/RTS_support.h **** #elif defined(__IAR_SYSTEMS_ICC__)
 123:../Common/IQMath/ti/./support/RTS_support.h ****     #pragma inline=forced
 124:../Common/IQMath/ti/./support/RTS_support.h **** #endif
 125:../Common/IQMath/ti/./support/RTS_support.h **** static inline int_fast16_t __mpyf_w(int_fast16_t arg1, int_fast16_t arg2)
 126:../Common/IQMath/ti/./support/RTS_support.h **** {
 127:../Common/IQMath/ti/./support/RTS_support.h ****     return (int_fast16_t)(((int_fast32_t)arg1 * (int_fast32_t)arg2) >> 15);
 128:../Common/IQMath/ti/./support/RTS_support.h **** }
 129:../Common/IQMath/ti/./support/RTS_support.h **** 
 130:../Common/IQMath/ti/./support/RTS_support.h **** #if defined (__TI_COMPILER_VERSION__)
 131:../Common/IQMath/ti/./support/RTS_support.h ****     #pragma FUNC_ALWAYS_INLINE(__mpyf_w_reuse_arg1)
 132:../Common/IQMath/ti/./support/RTS_support.h **** #elif defined(__IAR_SYSTEMS_ICC__)
 133:../Common/IQMath/ti/./support/RTS_support.h ****     #pragma inline=forced
 134:../Common/IQMath/ti/./support/RTS_support.h **** #endif
 135:../Common/IQMath/ti/./support/RTS_support.h **** static inline int_fast16_t __mpyf_w_reuse_arg1(int_fast16_t arg1, int_fast16_t arg2)
 136:../Common/IQMath/ti/./support/RTS_support.h **** {
 137:../Common/IQMath/ti/./support/RTS_support.h ****     /* This is identical to __mpyf_w */
 138:../Common/IQMath/ti/./support/RTS_support.h ****     return (int_fast16_t)(((int_fast32_t)arg1 * (int_fast32_t)arg2) >> 15);
 139:../Common/IQMath/ti/./support/RTS_support.h **** }
 140:../Common/IQMath/ti/./support/RTS_support.h **** 
 141:../Common/IQMath/ti/./support/RTS_support.h **** #if defined (__TI_COMPILER_VERSION__)
 142:../Common/IQMath/ti/./support/RTS_support.h ****     #pragma FUNC_ALWAYS_INLINE(__mpyf_uw)
 143:../Common/IQMath/ti/./support/RTS_support.h **** #elif defined(__IAR_SYSTEMS_ICC__)
 144:../Common/IQMath/ti/./support/RTS_support.h ****     #pragma inline=forced
ARM GAS  C:\Users\57308\AppData\Local\Temp\ccZcK4bV.s 			page 12


 145:../Common/IQMath/ti/./support/RTS_support.h **** #endif
 146:../Common/IQMath/ti/./support/RTS_support.h **** static inline uint_fast16_t __mpyf_uw(uint_fast16_t arg1, uint_fast16_t arg2)
 147:../Common/IQMath/ti/./support/RTS_support.h **** {
 148:../Common/IQMath/ti/./support/RTS_support.h ****     return (uint_fast16_t)(((uint_fast32_t)arg1 * (uint_fast32_t)arg2) >> 15);
 149:../Common/IQMath/ti/./support/RTS_support.h **** }
 150:../Common/IQMath/ti/./support/RTS_support.h **** 
 151:../Common/IQMath/ti/./support/RTS_support.h **** #if defined (__TI_COMPILER_VERSION__)
 152:../Common/IQMath/ti/./support/RTS_support.h ****     #pragma FUNC_ALWAYS_INLINE(__mpyf_uw_reuse_arg1)
 153:../Common/IQMath/ti/./support/RTS_support.h **** #elif defined(__IAR_SYSTEMS_ICC__)
 154:../Common/IQMath/ti/./support/RTS_support.h ****     #pragma inline=forced
 155:../Common/IQMath/ti/./support/RTS_support.h **** #endif
 156:../Common/IQMath/ti/./support/RTS_support.h **** static inline uint_fast16_t __mpyf_uw_reuse_arg1(uint_fast16_t arg1, uint_fast16_t arg2)
 157:../Common/IQMath/ti/./support/RTS_support.h **** {
 158:../Common/IQMath/ti/./support/RTS_support.h ****     /* This is identical to __mpyf_uw */
 159:../Common/IQMath/ti/./support/RTS_support.h ****     return (uint_fast16_t)(((uint_fast32_t)arg1 * (uint_fast32_t)arg2) >> 15);
 160:../Common/IQMath/ti/./support/RTS_support.h **** }
 161:../Common/IQMath/ti/./support/RTS_support.h **** 
 162:../Common/IQMath/ti/./support/RTS_support.h **** #if defined (__TI_COMPILER_VERSION__)
 163:../Common/IQMath/ti/./support/RTS_support.h ****     #pragma FUNC_ALWAYS_INLINE(__mpyfx_w)
 164:../Common/IQMath/ti/./support/RTS_support.h **** #elif defined(__IAR_SYSTEMS_ICC__)
 165:../Common/IQMath/ti/./support/RTS_support.h ****     #pragma inline=forced
 166:../Common/IQMath/ti/./support/RTS_support.h **** #endif
 167:../Common/IQMath/ti/./support/RTS_support.h **** static inline int_fast32_t __mpyfx_w(int_fast16_t arg1, int_fast16_t arg2)
 168:../Common/IQMath/ti/./support/RTS_support.h **** {
 169:../Common/IQMath/ti/./support/RTS_support.h ****     return (((int_fast32_t)arg1 * (int_fast32_t)arg2) << 1);
 170:../Common/IQMath/ti/./support/RTS_support.h **** }
 171:../Common/IQMath/ti/./support/RTS_support.h **** 
 172:../Common/IQMath/ti/./support/RTS_support.h **** #if defined (__TI_COMPILER_VERSION__)
 173:../Common/IQMath/ti/./support/RTS_support.h ****     #pragma FUNC_ALWAYS_INLINE(__mpyfx_uw)
 174:../Common/IQMath/ti/./support/RTS_support.h **** #elif defined(__IAR_SYSTEMS_ICC__)
 175:../Common/IQMath/ti/./support/RTS_support.h ****     #pragma inline=forced
 176:../Common/IQMath/ti/./support/RTS_support.h **** #endif
 177:../Common/IQMath/ti/./support/RTS_support.h **** static inline int_fast32_t __mpyfx_uw(uint_fast16_t arg1, uint_fast16_t arg2)
 178:../Common/IQMath/ti/./support/RTS_support.h **** {
 179:../Common/IQMath/ti/./support/RTS_support.h ****     return (((uint_fast32_t)arg1 * (uint_fast32_t)arg2) << 1);
 180:../Common/IQMath/ti/./support/RTS_support.h **** }
 181:../Common/IQMath/ti/./support/RTS_support.h **** 
 182:../Common/IQMath/ti/./support/RTS_support.h **** 
 183:../Common/IQMath/ti/./support/RTS_support.h **** ////////////////////////////////////////////////////////////
 184:../Common/IQMath/ti/./support/RTS_support.h **** //                                                        //
 185:../Common/IQMath/ti/./support/RTS_support.h **** //                 32-bit functions                       //
 186:../Common/IQMath/ti/./support/RTS_support.h **** //                                                        //
 187:../Common/IQMath/ti/./support/RTS_support.h **** ////////////////////////////////////////////////////////////
 188:../Common/IQMath/ti/./support/RTS_support.h **** #if defined (__TI_COMPILER_VERSION__)
 189:../Common/IQMath/ti/./support/RTS_support.h ****     #pragma FUNC_ALWAYS_INLINE(__mpy_l)
 190:../Common/IQMath/ti/./support/RTS_support.h **** #elif defined(__IAR_SYSTEMS_ICC__)
 191:../Common/IQMath/ti/./support/RTS_support.h ****     #pragma inline=forced
 192:../Common/IQMath/ti/./support/RTS_support.h **** #endif
 193:../Common/IQMath/ti/./support/RTS_support.h **** static inline int_fast32_t __mpy_l(int_fast32_t arg1, int_fast32_t arg2)
 194:../Common/IQMath/ti/./support/RTS_support.h **** {
 195:../Common/IQMath/ti/./support/RTS_support.h ****     return (arg1 * arg2);
 196:../Common/IQMath/ti/./support/RTS_support.h **** }
 197:../Common/IQMath/ti/./support/RTS_support.h **** 
 198:../Common/IQMath/ti/./support/RTS_support.h **** #if defined (__TI_COMPILER_VERSION__)
 199:../Common/IQMath/ti/./support/RTS_support.h ****     #pragma FUNC_ALWAYS_INLINE(__mpy_ul)
 200:../Common/IQMath/ti/./support/RTS_support.h **** #elif defined(__IAR_SYSTEMS_ICC__)
 201:../Common/IQMath/ti/./support/RTS_support.h ****     #pragma inline=forced
ARM GAS  C:\Users\57308\AppData\Local\Temp\ccZcK4bV.s 			page 13


 202:../Common/IQMath/ti/./support/RTS_support.h **** #endif
 203:../Common/IQMath/ti/./support/RTS_support.h **** static inline uint_fast32_t __mpy_ul(uint_fast32_t arg1, uint_fast32_t arg2)
 204:../Common/IQMath/ti/./support/RTS_support.h **** {
 205:../Common/IQMath/ti/./support/RTS_support.h ****     return (arg1 * arg2);
 206:../Common/IQMath/ti/./support/RTS_support.h **** }
 207:../Common/IQMath/ti/./support/RTS_support.h **** 
 208:../Common/IQMath/ti/./support/RTS_support.h **** #if defined (__TI_COMPILER_VERSION__)
 209:../Common/IQMath/ti/./support/RTS_support.h ****     #pragma FUNC_ALWAYS_INLINE(__mpyx)
 210:../Common/IQMath/ti/./support/RTS_support.h **** #elif defined(__IAR_SYSTEMS_ICC__)
 211:../Common/IQMath/ti/./support/RTS_support.h ****     #pragma inline=forced
 212:../Common/IQMath/ti/./support/RTS_support.h **** #endif
 213:../Common/IQMath/ti/./support/RTS_support.h **** static inline int_fast64_t __mpyx(int_fast32_t arg1, int_fast32_t arg2)
 214:../Common/IQMath/ti/./support/RTS_support.h **** {
 215:../Common/IQMath/ti/./support/RTS_support.h ****     return ((int_fast64_t)arg1 * (int_fast64_t)arg2);
 216:../Common/IQMath/ti/./support/RTS_support.h **** }
 217:../Common/IQMath/ti/./support/RTS_support.h **** 
 218:../Common/IQMath/ti/./support/RTS_support.h **** #if defined (__TI_COMPILER_VERSION__)
 219:../Common/IQMath/ti/./support/RTS_support.h ****     #pragma FUNC_ALWAYS_INLINE(__mpyx_u)
 220:../Common/IQMath/ti/./support/RTS_support.h **** #elif defined(__IAR_SYSTEMS_ICC__)
 221:../Common/IQMath/ti/./support/RTS_support.h ****     #pragma inline=forced
 222:../Common/IQMath/ti/./support/RTS_support.h **** #endif
 223:../Common/IQMath/ti/./support/RTS_support.h **** static inline uint_fast64_t __mpyx_u(uint_fast32_t arg1, uint_fast32_t arg2)
 224:../Common/IQMath/ti/./support/RTS_support.h **** {
 225:../Common/IQMath/ti/./support/RTS_support.h ****     return ((uint_fast64_t)arg1 * (uint_fast64_t)arg2);
 226:../Common/IQMath/ti/./support/RTS_support.h **** }
 227:../Common/IQMath/ti/./support/RTS_support.h **** 
 228:../Common/IQMath/ti/./support/RTS_support.h **** #if defined (__TI_COMPILER_VERSION__)
 229:../Common/IQMath/ti/./support/RTS_support.h ****     #pragma FUNC_ALWAYS_INLINE(__mpyf_l)
 230:../Common/IQMath/ti/./support/RTS_support.h **** #elif defined(__IAR_SYSTEMS_ICC__)
 231:../Common/IQMath/ti/./support/RTS_support.h ****     #pragma inline=forced
 232:../Common/IQMath/ti/./support/RTS_support.h **** #endif
 233:../Common/IQMath/ti/./support/RTS_support.h **** static inline int_fast32_t __mpyf_l(int_fast32_t arg1, int_fast32_t arg2)
 121              		.loc 2 233 28 is_stmt 1 view .LVU42
 122              	.LBB27:
 234:../Common/IQMath/ti/./support/RTS_support.h **** {
 235:../Common/IQMath/ti/./support/RTS_support.h ****     return (int_fast32_t)(((int_fast64_t)arg1 * (int_fast64_t)arg2) >> 31);
 123              		.loc 2 235 5 view .LVU43
 124              		.loc 2 235 28 is_stmt 0 view .LVU44
 125 002e 4FEAE07E 		asr	lr, r0, #31
 126              		.loc 2 235 49 view .LVU45
 127 0032 D917     		asrs	r1, r3, #31
 128              		.loc 2 235 47 view .LVU46
 129 0034 00FB01F1 		mul	r1, r0, r1
 130 0038 03FB0E11 		mla	r1, r3, lr, r1
 131 003c A0FB033C 		umull	r3, ip, r0, r3
 132              	.LVL12:
 133              		.loc 2 235 47 view .LVU47
 134 0040 6144     		add	r1, r1, ip
 135              		.loc 2 235 69 view .LVU48
 136 0042 DB0F     		lsrs	r3, r3, #31
 137 0044 43EA4103 		orr	r3, r3, r1, lsl #1
 138              	.LVL13:
 139              		.loc 2 235 69 view .LVU49
 140              	.LBE27:
 141              	.LBE26:
 146:../Common/IQMath/ti/_IQNatan2.c ****     
 142              		.loc 1 146 5 is_stmt 1 view .LVU50
ARM GAS  C:\Users\57308\AppData\Local\Temp\ccZcK4bV.s 			page 14


 146:../Common/IQMath/ti/_IQNatan2.c ****     
 143              		.loc 1 146 37 is_stmt 0 view .LVU51
 144 0048 5168     		ldr	r1, [r2, #4]
 146:../Common/IQMath/ti/_IQNatan2.c ****     
 145              		.loc 1 146 19 view .LVU52
 146 004a 0B44     		add	r3, r3, r1
 147              	.LVL14:
 149:../Common/IQMath/ti/_IQNatan2.c ****     
 148              		.loc 1 149 5 is_stmt 1 view .LVU53
 149              	.LBB28:
 150              	.LBI28:
 233:../Common/IQMath/ti/./support/RTS_support.h **** {
 151              		.loc 2 233 28 view .LVU54
 152              	.LBB29:
 153              		.loc 2 235 5 view .LVU55
 154              		.loc 2 235 49 is_stmt 0 view .LVU56
 155 004c 4FEAE37C 		asr	ip, r3, #31
 156              		.loc 2 235 47 view .LVU57
 157 0050 00FB0CFC 		mul	ip, r0, ip
 158 0054 03FB0ECC 		mla	ip, r3, lr, ip
 159 0058 A0FB0331 		umull	r3, r1, r0, r3
 160              	.LVL15:
 161              		.loc 2 235 47 view .LVU58
 162 005c 8C44     		add	ip, ip, r1
 163              		.loc 2 235 69 view .LVU59
 164 005e DB0F     		lsrs	r3, r3, #31
 165 0060 43EA4C03 		orr	r3, r3, ip, lsl #1
 166              	.LVL16:
 167              		.loc 2 235 69 view .LVU60
 168              	.LBE29:
 169              	.LBE28:
 152:../Common/IQMath/ti/_IQNatan2.c ****     
 170              		.loc 1 152 5 is_stmt 1 view .LVU61
 152:../Common/IQMath/ti/_IQNatan2.c ****     
 171              		.loc 1 152 37 is_stmt 0 view .LVU62
 172 0064 9168     		ldr	r1, [r2, #8]
 152:../Common/IQMath/ti/_IQNatan2.c ****     
 173              		.loc 1 152 19 view .LVU63
 174 0066 0B44     		add	r3, r3, r1
 175              	.LVL17:
 155:../Common/IQMath/ti/_IQNatan2.c ****     
 176              		.loc 1 155 5 is_stmt 1 view .LVU64
 177              	.LBB30:
 178              	.LBI30:
 233:../Common/IQMath/ti/./support/RTS_support.h **** {
 179              		.loc 2 233 28 view .LVU65
 180              	.LBB31:
 181              		.loc 2 235 5 view .LVU66
 182              		.loc 2 235 49 is_stmt 0 view .LVU67
 183 0068 D917     		asrs	r1, r3, #31
 184              		.loc 2 235 47 view .LVU68
 185 006a 00FB01F1 		mul	r1, r0, r1
 186 006e 03FB0E11 		mla	r1, r3, lr, r1
 187 0072 A0FB0303 		umull	r0, r3, r0, r3
 188              	.LVL18:
 189              		.loc 2 235 47 view .LVU69
 190 0076 0B44     		add	r3, r3, r1
ARM GAS  C:\Users\57308\AppData\Local\Temp\ccZcK4bV.s 			page 15


 191              		.loc 2 235 69 view .LVU70
 192 0078 C00F     		lsrs	r0, r0, #31
 193 007a 40EA4300 		orr	r0, r0, r3, lsl #1
 194              	.LVL19:
 195              		.loc 2 235 69 view .LVU71
 196              	.LBE31:
 197              	.LBE30:
 158:../Common/IQMath/ti/_IQNatan2.c ****     
 198              		.loc 1 158 5 is_stmt 1 view .LVU72
 158:../Common/IQMath/ti/_IQNatan2.c ****     
 199              		.loc 1 158 37 is_stmt 0 view .LVU73
 200 007e D368     		ldr	r3, [r2, #12]
 158:../Common/IQMath/ti/_IQNatan2.c ****     
 201              		.loc 1 158 19 view .LVU74
 202 0080 1844     		add	r0, r0, r3
 203              	.LVL20:
 161:../Common/IQMath/ti/_IQNatan2.c ****         /* atan(y/x) = pi/2 - uiq32ResultPU */
 204              		.loc 1 161 5 is_stmt 1 view .LVU75
 161:../Common/IQMath/ti/_IQNatan2.c ****         /* atan(y/x) = pi/2 - uiq32ResultPU */
 205              		.loc 1 161 8 is_stmt 0 view .LVU76
 206 0082 14F0040F 		tst	r4, #4
 207 0086 01D0     		beq	.L6
 163:../Common/IQMath/ti/_IQNatan2.c ****     }
 208              		.loc 1 163 9 is_stmt 1 view .LVU77
 163:../Common/IQMath/ti/_IQNatan2.c ****     }
 209              		.loc 1 163 23 is_stmt 0 view .LVU78
 210 0088 C0F18040 		rsb	r0, r0, #1073741824
 211              	.LVL21:
 212              	.L6:
 167:../Common/IQMath/ti/_IQNatan2.c ****         /* atan(y/x) = pi - uiq32ResultPU */
 213              		.loc 1 167 5 is_stmt 1 view .LVU79
 167:../Common/IQMath/ti/_IQNatan2.c ****         /* atan(y/x) = pi - uiq32ResultPU */
 214              		.loc 1 167 8 is_stmt 0 view .LVU80
 215 008c 14F0020F 		tst	r4, #2
 216 0090 01D0     		beq	.L7
 169:../Common/IQMath/ti/_IQNatan2.c ****     }
 217              		.loc 1 169 9 is_stmt 1 view .LVU81
 169:../Common/IQMath/ti/_IQNatan2.c ****     }
 218              		.loc 1 169 23 is_stmt 0 view .LVU82
 219 0092 C0F10040 		rsb	r0, r0, #-2147483648
 220              	.LVL22:
 221              	.L7:
 173:../Common/IQMath/ti/_IQNatan2.c ****         uiq32ResultPU += (uint_fast32_t)1 << (31 - q_value);
 222              		.loc 1 173 5 is_stmt 1 view .LVU83
 183:../Common/IQMath/ti/_IQNatan2.c ****         
 223              		.loc 1 183 9 view .LVU84
 224              	.LBB32:
 225              	.LBI32:
 233:../Common/IQMath/ti/./support/RTS_support.h **** {
 226              		.loc 2 233 28 view .LVU85
 227              	.LBB33:
 228              		.loc 2 235 5 view .LVU86
 229              		.loc 2 235 28 is_stmt 0 view .LVU87
 230 0096 C117     		asrs	r1, r0, #31
 231              		.loc 2 235 47 view .LVU88
 232 0098 0C4A     		ldr	r2, .L13+4
 233              	.LVL23:
ARM GAS  C:\Users\57308\AppData\Local\Temp\ccZcK4bV.s 			page 16


 234              		.loc 2 235 47 view .LVU89
 235 009a A0FB0203 		umull	r0, r3, r0, r2
 236              	.LVL24:
 237              		.loc 2 235 47 view .LVU90
 238 009e 02FB0133 		mla	r3, r2, r1, r3
 239              		.loc 2 235 69 view .LVU91
 240 00a2 C00F     		lsrs	r0, r0, #31
 241 00a4 40EA4300 		orr	r0, r0, r3, lsl #1
 242              	.LVL25:
 243              		.loc 2 235 69 view .LVU92
 244              	.LBE33:
 245              	.LBE32:
 186:../Common/IQMath/ti/_IQNatan2.c ****             iq29Result += (uint_fast32_t)1 << (28 - q_value);
 246              		.loc 1 186 9 is_stmt 1 view .LVU93
 189:../Common/IQMath/ti/_IQNatan2.c ****     }
 247              		.loc 1 189 9 view .LVU94
 196:../Common/IQMath/ti/_IQNatan2.c ****     
 248              		.loc 1 196 5 view .LVU95
 196:../Common/IQMath/ti/_IQNatan2.c ****     
 249              		.loc 1 196 5 is_stmt 0 view .LVU96
 250              	.LBE34:
 251              	.LBE37:
  72:../Common/IQMath/ti/./support/RTS_support.h **** }
 252              		.loc 2 72 5 is_stmt 1 view .LVU97
 253              	.LBB38:
 254              	.LBB35:
 199:../Common/IQMath/ti/_IQNatan2.c ****         return -iqNResult;
 255              		.loc 1 199 5 view .LVU98
 199:../Common/IQMath/ti/_IQNatan2.c ****         return -iqNResult;
 256              		.loc 1 199 8 is_stmt 0 view .LVU99
 257 00a8 14F0010F 		tst	r4, #1
 258 00ac 00D0     		beq	.L1
 200:../Common/IQMath/ti/_IQNatan2.c ****     }
 259              		.loc 1 200 9 is_stmt 1 view .LVU100
 200:../Common/IQMath/ti/_IQNatan2.c ****     }
 260              		.loc 1 200 16 is_stmt 0 view .LVU101
 261 00ae 4042     		rsbs	r0, r0, #0
 262              	.LVL26:
 263              	.L1:
 200:../Common/IQMath/ti/_IQNatan2.c ****     }
 264              		.loc 1 200 16 view .LVU102
 265              	.LBE35:
 266              	.LBE38:
 327:../Common/IQMath/ti/_IQNatan2.c **** }
 267              		.loc 1 327 1 view .LVU103
 268 00b0 10BD     		pop	{r4, pc}
 269              	.LVL27:
 270              	.L11:
 271              	.LBB39:
 272              	.LBB36:
  95:../Common/IQMath/ti/_IQNatan2.c ****         iqNInputY = -iqNInputY;
 273              		.loc 1 95 9 is_stmt 1 view .LVU104
  96:../Common/IQMath/ti/_IQNatan2.c ****     }
 274              		.loc 1 96 9 view .LVU105
  96:../Common/IQMath/ti/_IQNatan2.c ****     }
 275              		.loc 1 96 19 is_stmt 0 view .LVU106
 276 00b2 4042     		rsbs	r0, r0, #0
ARM GAS  C:\Users\57308\AppData\Local\Temp\ccZcK4bV.s 			page 17


 277              	.LVL28:
  95:../Common/IQMath/ti/_IQNatan2.c ****         iqNInputY = -iqNInputY;
 278              		.loc 1 95 19 view .LVU107
 279 00b4 0124     		movs	r4, #1
 280 00b6 A8E7     		b	.L2
 281              	.LVL29:
 282              	.L12:
  99:../Common/IQMath/ti/_IQNatan2.c ****         iqNInputX = -iqNInputX;
 283              		.loc 1 99 9 is_stmt 1 view .LVU108
  99:../Common/IQMath/ti/_IQNatan2.c ****         iqNInputX = -iqNInputX;
 284              		.loc 1 99 19 is_stmt 0 view .LVU109
 285 00b8 44F00204 		orr	r4, r4, #2
 286              	.LVL30:
 100:../Common/IQMath/ti/_IQNatan2.c ****     }
 287              		.loc 1 100 9 is_stmt 1 view .LVU110
 100:../Common/IQMath/ti/_IQNatan2.c ****     }
 288              		.loc 1 100 19 is_stmt 0 view .LVU111
 289 00bc 5B42     		rsbs	r3, r3, #0
 290              	.LVL31:
 100:../Common/IQMath/ti/_IQNatan2.c ****     }
 291              		.loc 1 100 19 view .LVU112
 292 00be A6E7     		b	.L3
 293              	.LVL32:
 294              	.L4:
 118:../Common/IQMath/ti/_IQNatan2.c ****     }
 295              		.loc 1 118 9 is_stmt 1 view .LVU113
 118:../Common/IQMath/ti/_IQNatan2.c ****     }
 296              		.loc 1 118 22 is_stmt 0 view .LVU114
 297 00c0 1946     		mov	r1, r3
 298              	.LVL33:
 118:../Common/IQMath/ti/_IQNatan2.c ****     }
 299              		.loc 1 118 22 view .LVU115
 300 00c2 FFF7FEFF 		bl	_UIQ31div
 301              	.LVL34:
 118:../Common/IQMath/ti/_IQNatan2.c ****     }
 302              		.loc 1 118 22 view .LVU116
 303 00c6 AAE7     		b	.L5
 304              	.L14:
 305              		.align	2
 306              	.L13:
 307 00c8 00000000 		.word	_IQ32atan_coeffs
 308 00cc 51ED8764 		.word	1686629713
 309              	.LBE36:
 310              	.LBE39:
 311              		.cfi_endproc
 312              	.LFE264:
 314              		.section	.text._IQ28atan2,"ax",%progbits
 315              		.align	1
 316              		.global	_IQ28atan2
 317              		.syntax unified
 318              		.thumb
 319              		.thumb_func
 321              	_IQ28atan2:
 322              	.LVL35:
 323              	.LFB265:
 328:../Common/IQMath/ti/_IQNatan2.c **** /**
 329:../Common/IQMath/ti/_IQNatan2.c ****  * @brief Compute the 4-quadrant arctangent of the IQ28 input 
ARM GAS  C:\Users\57308\AppData\Local\Temp\ccZcK4bV.s 			page 18


 330:../Common/IQMath/ti/_IQNatan2.c ****  *        and return the result, in radians.
 331:../Common/IQMath/ti/_IQNatan2.c ****  *
 332:../Common/IQMath/ti/_IQNatan2.c ****  * @param y               IQ28 type input y.
 333:../Common/IQMath/ti/_IQNatan2.c ****  * @param x               IQ28 type input x.
 334:../Common/IQMath/ti/_IQNatan2.c ****  *
 335:../Common/IQMath/ti/_IQNatan2.c ****  * @return                IQ28 type result of 4-quadrant arctangent.
 336:../Common/IQMath/ti/_IQNatan2.c ****  */
 337:../Common/IQMath/ti/_IQNatan2.c **** int32_t _IQ28atan2(int32_t y, int32_t x)
 338:../Common/IQMath/ti/_IQNatan2.c **** {
 324              		.loc 1 338 1 is_stmt 1 view -0
 325              		.cfi_startproc
 326              		@ args = 0, pretend = 0, frame = 0
 327              		@ frame_needed = 0, uses_anonymous_args = 0
 328              		.loc 1 338 1 is_stmt 0 view .LVU118
 329 0000 10B5     		push	{r4, lr}
 330              	.LCFI1:
 331              		.cfi_def_cfa_offset 8
 332              		.cfi_offset 4, -8
 333              		.cfi_offset 14, -4
 334 0002 0B46     		mov	r3, r1
 339:../Common/IQMath/ti/_IQNatan2.c ****     return __IQNatan2(y, x, TYPE_RAD, 28);
 335              		.loc 1 339 5 is_stmt 1 view .LVU119
 336              	.LVL36:
 337              	.LBB50:
 338              	.LBI50:
  71:../Common/IQMath/ti/_IQNatan2.c **** {
 339              		.loc 1 71 30 view .LVU120
 340              	.LBB51:
  73:../Common/IQMath/ti/_IQNatan2.c ****     uint8_t ui8Index;
 341              		.loc 1 73 5 view .LVU121
  74:../Common/IQMath/ti/_IQNatan2.c ****     uint_fast16_t ui16IntState;
 342              		.loc 1 74 5 view .LVU122
  75:../Common/IQMath/ti/_IQNatan2.c ****     uint_fast16_t ui16MPYState;
 343              		.loc 1 75 5 view .LVU123
  76:../Common/IQMath/ti/_IQNatan2.c ****     uint_fast32_t uiqNInputX;
 344              		.loc 1 76 5 view .LVU124
  77:../Common/IQMath/ti/_IQNatan2.c ****     uint_fast32_t uiqNInputY;
 345              		.loc 1 77 5 view .LVU125
  78:../Common/IQMath/ti/_IQNatan2.c ****     uint_fast32_t uiq32ResultPU;
 346              		.loc 1 78 5 view .LVU126
  79:../Common/IQMath/ti/_IQNatan2.c ****     int_fast32_t iqNResult;
 347              		.loc 1 79 5 view .LVU127
  80:../Common/IQMath/ti/_IQNatan2.c ****     int_fast32_t iq29Result;
 348              		.loc 1 80 5 view .LVU128
  81:../Common/IQMath/ti/_IQNatan2.c ****     const int_fast32_t *piq32Coeffs;
 349              		.loc 1 81 5 view .LVU129
  82:../Common/IQMath/ti/_IQNatan2.c ****     uint_fast32_t uiq31Input;
 350              		.loc 1 82 5 view .LVU130
  83:../Common/IQMath/ti/_IQNatan2.c ****     
 351              		.loc 1 83 5 view .LVU131
  94:../Common/IQMath/ti/_IQNatan2.c ****         ui8Status |= 1;
 352              		.loc 1 94 5 view .LVU132
  94:../Common/IQMath/ti/_IQNatan2.c ****         ui8Status |= 1;
 353              		.loc 1 94 8 is_stmt 0 view .LVU133
 354 0004 0028     		cmp	r0, #0
  94:../Common/IQMath/ti/_IQNatan2.c ****         ui8Status |= 1;
 355              		.loc 1 94 8 view .LVU134
ARM GAS  C:\Users\57308\AppData\Local\Temp\ccZcK4bV.s 			page 19


 356 0006 56DB     		blt	.L25
  73:../Common/IQMath/ti/_IQNatan2.c ****     uint8_t ui8Index;
 357              		.loc 1 73 13 view .LVU135
 358 0008 0024     		movs	r4, #0
 359              	.LVL37:
 360              	.L16:
  98:../Common/IQMath/ti/_IQNatan2.c ****         ui8Status |= 2;
 361              		.loc 1 98 5 is_stmt 1 view .LVU136
  98:../Common/IQMath/ti/_IQNatan2.c ****         ui8Status |= 2;
 362              		.loc 1 98 8 is_stmt 0 view .LVU137
 363 000a 002B     		cmp	r3, #0
 364 000c 56DB     		blt	.L26
 365              	.LVL38:
 366              	.L17:
 104:../Common/IQMath/ti/_IQNatan2.c ****     uiqNInputY = (uint_fast32_t)iqNInputY;
 367              		.loc 1 104 5 is_stmt 1 view .LVU138
 105:../Common/IQMath/ti/_IQNatan2.c ****     
 368              		.loc 1 105 5 view .LVU139
 113:../Common/IQMath/ti/_IQNatan2.c ****         ui8Status |= 4;
 369              		.loc 1 113 5 view .LVU140
 113:../Common/IQMath/ti/_IQNatan2.c ****         ui8Status |= 4;
 370              		.loc 1 113 8 is_stmt 0 view .LVU141
 371 000e 8342     		cmp	r3, r0
 372 0010 58D2     		bcs	.L18
 114:../Common/IQMath/ti/_IQNatan2.c ****         uiq31Input = _UIQ31div(uiqNInputX, uiqNInputY);
 373              		.loc 1 114 9 is_stmt 1 view .LVU142
 114:../Common/IQMath/ti/_IQNatan2.c ****         uiq31Input = _UIQ31div(uiqNInputX, uiqNInputY);
 374              		.loc 1 114 19 is_stmt 0 view .LVU143
 375 0012 44F00404 		orr	r4, r4, #4
 376              	.LVL39:
 115:../Common/IQMath/ti/_IQNatan2.c ****     }
 377              		.loc 1 115 9 is_stmt 1 view .LVU144
 115:../Common/IQMath/ti/_IQNatan2.c ****     }
 378              		.loc 1 115 22 is_stmt 0 view .LVU145
 379 0016 0146     		mov	r1, r0
 380              	.LVL40:
 115:../Common/IQMath/ti/_IQNatan2.c ****     }
 381              		.loc 1 115 22 view .LVU146
 382 0018 1846     		mov	r0, r3
 383              	.LVL41:
 115:../Common/IQMath/ti/_IQNatan2.c ****     }
 384              		.loc 1 115 22 view .LVU147
 385 001a FFF7FEFF 		bl	_UIQ31div
 386              	.LVL42:
 387              	.L19:
 122:../Common/IQMath/ti/_IQNatan2.c ****     ui8Index = ui8Index & 0x00fc;
 388              		.loc 1 122 5 is_stmt 1 view .LVU148
 122:../Common/IQMath/ti/_IQNatan2.c ****     ui8Index = ui8Index & 0x00fc;
 389              		.loc 1 122 14 is_stmt 0 view .LVU149
 390 001e 030E     		lsrs	r3, r0, #24
 391              	.LVL43:
 123:../Common/IQMath/ti/_IQNatan2.c ****     
 392              		.loc 1 123 5 is_stmt 1 view .LVU150
 123:../Common/IQMath/ti/_IQNatan2.c ****     
 393              		.loc 1 123 14 is_stmt 0 view .LVU151
 394 0020 03F0FC03 		and	r3, r3, #252
 395              	.LVL44:
ARM GAS  C:\Users\57308\AppData\Local\Temp\ccZcK4bV.s 			page 20


 126:../Common/IQMath/ti/_IQNatan2.c ****     
 396              		.loc 1 126 5 is_stmt 1 view .LVU152
 126:../Common/IQMath/ti/_IQNatan2.c ****     
 397              		.loc 1 126 17 is_stmt 0 view .LVU153
 398 0024 2949     		ldr	r1, .L27
 399 0026 01EB8302 		add	r2, r1, r3, lsl #2
 400              	.LVL45:
 134:../Common/IQMath/ti/_IQNatan2.c ****     
 401              		.loc 1 134 5 is_stmt 1 view .LVU154
 134:../Common/IQMath/ti/_IQNatan2.c ****     
 402              		.loc 1 134 5 is_stmt 0 view .LVU155
 403              	.LBE51:
 404              	.LBE50:
  28:../Common/IQMath/ti/./support/RTS_support.h **** }
 405              		.loc 2 28 5 is_stmt 1 view .LVU156
 406              	.LBB63:
 407              	.LBB60:
 143:../Common/IQMath/ti/_IQNatan2.c ****     
 408              		.loc 1 143 5 view .LVU157
 143:../Common/IQMath/ti/_IQNatan2.c ****     
 409              		.loc 1 143 21 is_stmt 0 view .LVU158
 410 002a 51F82330 		ldr	r3, [r1, r3, lsl #2]
 411              	.LVL46:
 412              	.LBB52:
 413              	.LBI52:
 233:../Common/IQMath/ti/./support/RTS_support.h **** {
 414              		.loc 2 233 28 is_stmt 1 view .LVU159
 415              	.LBB53:
 416              		.loc 2 235 5 view .LVU160
 417              		.loc 2 235 28 is_stmt 0 view .LVU161
 418 002e 4FEAE07E 		asr	lr, r0, #31
 419              		.loc 2 235 49 view .LVU162
 420 0032 D917     		asrs	r1, r3, #31
 421              		.loc 2 235 47 view .LVU163
 422 0034 00FB01F1 		mul	r1, r0, r1
 423 0038 03FB0E11 		mla	r1, r3, lr, r1
 424 003c A0FB033C 		umull	r3, ip, r0, r3
 425              	.LVL47:
 426              		.loc 2 235 47 view .LVU164
 427 0040 6144     		add	r1, r1, ip
 428              		.loc 2 235 69 view .LVU165
 429 0042 DB0F     		lsrs	r3, r3, #31
 430 0044 43EA4103 		orr	r3, r3, r1, lsl #1
 431              	.LVL48:
 432              		.loc 2 235 69 view .LVU166
 433              	.LBE53:
 434              	.LBE52:
 146:../Common/IQMath/ti/_IQNatan2.c ****     
 435              		.loc 1 146 5 is_stmt 1 view .LVU167
 146:../Common/IQMath/ti/_IQNatan2.c ****     
 436              		.loc 1 146 37 is_stmt 0 view .LVU168
 437 0048 5168     		ldr	r1, [r2, #4]
 146:../Common/IQMath/ti/_IQNatan2.c ****     
 438              		.loc 1 146 19 view .LVU169
 439 004a 0B44     		add	r3, r3, r1
 440              	.LVL49:
 149:../Common/IQMath/ti/_IQNatan2.c ****     
ARM GAS  C:\Users\57308\AppData\Local\Temp\ccZcK4bV.s 			page 21


 441              		.loc 1 149 5 is_stmt 1 view .LVU170
 442              	.LBB54:
 443              	.LBI54:
 233:../Common/IQMath/ti/./support/RTS_support.h **** {
 444              		.loc 2 233 28 view .LVU171
 445              	.LBB55:
 446              		.loc 2 235 5 view .LVU172
 447              		.loc 2 235 49 is_stmt 0 view .LVU173
 448 004c 4FEAE37C 		asr	ip, r3, #31
 449              		.loc 2 235 47 view .LVU174
 450 0050 00FB0CFC 		mul	ip, r0, ip
 451 0054 03FB0ECC 		mla	ip, r3, lr, ip
 452 0058 A0FB0331 		umull	r3, r1, r0, r3
 453              	.LVL50:
 454              		.loc 2 235 47 view .LVU175
 455 005c 8C44     		add	ip, ip, r1
 456              		.loc 2 235 69 view .LVU176
 457 005e DB0F     		lsrs	r3, r3, #31
 458 0060 43EA4C03 		orr	r3, r3, ip, lsl #1
 459              	.LVL51:
 460              		.loc 2 235 69 view .LVU177
 461              	.LBE55:
 462              	.LBE54:
 152:../Common/IQMath/ti/_IQNatan2.c ****     
 463              		.loc 1 152 5 is_stmt 1 view .LVU178
 152:../Common/IQMath/ti/_IQNatan2.c ****     
 464              		.loc 1 152 37 is_stmt 0 view .LVU179
 465 0064 9168     		ldr	r1, [r2, #8]
 152:../Common/IQMath/ti/_IQNatan2.c ****     
 466              		.loc 1 152 19 view .LVU180
 467 0066 0B44     		add	r3, r3, r1
 468              	.LVL52:
 155:../Common/IQMath/ti/_IQNatan2.c ****     
 469              		.loc 1 155 5 is_stmt 1 view .LVU181
 470              	.LBB56:
 471              	.LBI56:
 233:../Common/IQMath/ti/./support/RTS_support.h **** {
 472              		.loc 2 233 28 view .LVU182
 473              	.LBB57:
 474              		.loc 2 235 5 view .LVU183
 475              		.loc 2 235 49 is_stmt 0 view .LVU184
 476 0068 D917     		asrs	r1, r3, #31
 477              		.loc 2 235 47 view .LVU185
 478 006a 00FB01F1 		mul	r1, r0, r1
 479 006e 03FB0E11 		mla	r1, r3, lr, r1
 480 0072 A0FB0303 		umull	r0, r3, r0, r3
 481              	.LVL53:
 482              		.loc 2 235 47 view .LVU186
 483 0076 0B44     		add	r3, r3, r1
 484              		.loc 2 235 69 view .LVU187
 485 0078 C00F     		lsrs	r0, r0, #31
 486 007a 40EA4300 		orr	r0, r0, r3, lsl #1
 487              	.LVL54:
 488              		.loc 2 235 69 view .LVU188
 489              	.LBE57:
 490              	.LBE56:
 158:../Common/IQMath/ti/_IQNatan2.c ****     
ARM GAS  C:\Users\57308\AppData\Local\Temp\ccZcK4bV.s 			page 22


 491              		.loc 1 158 5 is_stmt 1 view .LVU189
 158:../Common/IQMath/ti/_IQNatan2.c ****     
 492              		.loc 1 158 37 is_stmt 0 view .LVU190
 493 007e D368     		ldr	r3, [r2, #12]
 158:../Common/IQMath/ti/_IQNatan2.c ****     
 494              		.loc 1 158 19 view .LVU191
 495 0080 1844     		add	r0, r0, r3
 496              	.LVL55:
 161:../Common/IQMath/ti/_IQNatan2.c ****         /* atan(y/x) = pi/2 - uiq32ResultPU */
 497              		.loc 1 161 5 is_stmt 1 view .LVU192
 161:../Common/IQMath/ti/_IQNatan2.c ****         /* atan(y/x) = pi/2 - uiq32ResultPU */
 498              		.loc 1 161 8 is_stmt 0 view .LVU193
 499 0082 14F0040F 		tst	r4, #4
 500 0086 01D0     		beq	.L20
 163:../Common/IQMath/ti/_IQNatan2.c ****     }
 501              		.loc 1 163 9 is_stmt 1 view .LVU194
 163:../Common/IQMath/ti/_IQNatan2.c ****     }
 502              		.loc 1 163 23 is_stmt 0 view .LVU195
 503 0088 C0F18040 		rsb	r0, r0, #1073741824
 504              	.LVL56:
 505              	.L20:
 167:../Common/IQMath/ti/_IQNatan2.c ****         /* atan(y/x) = pi - uiq32ResultPU */
 506              		.loc 1 167 5 is_stmt 1 view .LVU196
 167:../Common/IQMath/ti/_IQNatan2.c ****         /* atan(y/x) = pi - uiq32ResultPU */
 507              		.loc 1 167 8 is_stmt 0 view .LVU197
 508 008c 14F0020F 		tst	r4, #2
 509 0090 01D0     		beq	.L21
 169:../Common/IQMath/ti/_IQNatan2.c ****     }
 510              		.loc 1 169 9 is_stmt 1 view .LVU198
 169:../Common/IQMath/ti/_IQNatan2.c ****     }
 511              		.loc 1 169 23 is_stmt 0 view .LVU199
 512 0092 C0F10040 		rsb	r0, r0, #-2147483648
 513              	.LVL57:
 514              	.L21:
 173:../Common/IQMath/ti/_IQNatan2.c ****         uiq32ResultPU += (uint_fast32_t)1 << (31 - q_value);
 515              		.loc 1 173 5 is_stmt 1 view .LVU200
 183:../Common/IQMath/ti/_IQNatan2.c ****         
 516              		.loc 1 183 9 view .LVU201
 517              	.LBB58:
 518              	.LBI58:
 233:../Common/IQMath/ti/./support/RTS_support.h **** {
 519              		.loc 2 233 28 view .LVU202
 520              	.LBB59:
 521              		.loc 2 235 5 view .LVU203
 522              		.loc 2 235 28 is_stmt 0 view .LVU204
 523 0096 C117     		asrs	r1, r0, #31
 524              		.loc 2 235 47 view .LVU205
 525 0098 0D4A     		ldr	r2, .L27+4
 526              	.LVL58:
 527              		.loc 2 235 47 view .LVU206
 528 009a A0FB0203 		umull	r0, r3, r0, r2
 529              	.LVL59:
 530              		.loc 2 235 47 view .LVU207
 531 009e 02FB0133 		mla	r3, r2, r1, r3
 532              		.loc 2 235 69 view .LVU208
 533 00a2 C00F     		lsrs	r0, r0, #31
 534 00a4 40EA4300 		orr	r0, r0, r3, lsl #1
ARM GAS  C:\Users\57308\AppData\Local\Temp\ccZcK4bV.s 			page 23


 535              	.LVL60:
 536              		.loc 2 235 69 view .LVU209
 537              	.LBE59:
 538              	.LBE58:
 186:../Common/IQMath/ti/_IQNatan2.c ****             iq29Result += (uint_fast32_t)1 << (28 - q_value);
 539              		.loc 1 186 9 is_stmt 1 view .LVU210
 187:../Common/IQMath/ti/_IQNatan2.c ****         }
 540              		.loc 1 187 13 view .LVU211
 187:../Common/IQMath/ti/_IQNatan2.c ****         }
 541              		.loc 1 187 24 is_stmt 0 view .LVU212
 542 00a8 0130     		adds	r0, r0, #1
 543              	.LVL61:
 189:../Common/IQMath/ti/_IQNatan2.c ****     }
 544              		.loc 1 189 9 is_stmt 1 view .LVU213
 189:../Common/IQMath/ti/_IQNatan2.c ****     }
 545              		.loc 1 189 19 is_stmt 0 view .LVU214
 546 00aa 4010     		asrs	r0, r0, #1
 547              	.LVL62:
 196:../Common/IQMath/ti/_IQNatan2.c ****     
 548              		.loc 1 196 5 is_stmt 1 view .LVU215
 196:../Common/IQMath/ti/_IQNatan2.c ****     
 549              		.loc 1 196 5 is_stmt 0 view .LVU216
 550              	.LBE60:
 551              	.LBE63:
  72:../Common/IQMath/ti/./support/RTS_support.h **** }
 552              		.loc 2 72 5 is_stmt 1 view .LVU217
 553              	.LBB64:
 554              	.LBB61:
 199:../Common/IQMath/ti/_IQNatan2.c ****         return -iqNResult;
 555              		.loc 1 199 5 view .LVU218
 199:../Common/IQMath/ti/_IQNatan2.c ****         return -iqNResult;
 556              		.loc 1 199 8 is_stmt 0 view .LVU219
 557 00ac 14F0010F 		tst	r4, #1
 558 00b0 00D0     		beq	.L15
 200:../Common/IQMath/ti/_IQNatan2.c ****     }
 559              		.loc 1 200 9 is_stmt 1 view .LVU220
 200:../Common/IQMath/ti/_IQNatan2.c ****     }
 560              		.loc 1 200 16 is_stmt 0 view .LVU221
 561 00b2 4042     		rsbs	r0, r0, #0
 562              	.LVL63:
 563              	.L15:
 200:../Common/IQMath/ti/_IQNatan2.c ****     }
 564              		.loc 1 200 16 view .LVU222
 565              	.LBE61:
 566              	.LBE64:
 340:../Common/IQMath/ti/_IQNatan2.c **** }
 567              		.loc 1 340 1 view .LVU223
 568 00b4 10BD     		pop	{r4, pc}
 569              	.LVL64:
 570              	.L25:
 571              	.LBB65:
 572              	.LBB62:
  95:../Common/IQMath/ti/_IQNatan2.c ****         iqNInputY = -iqNInputY;
 573              		.loc 1 95 9 is_stmt 1 view .LVU224
  96:../Common/IQMath/ti/_IQNatan2.c ****     }
 574              		.loc 1 96 9 view .LVU225
  96:../Common/IQMath/ti/_IQNatan2.c ****     }
ARM GAS  C:\Users\57308\AppData\Local\Temp\ccZcK4bV.s 			page 24


 575              		.loc 1 96 19 is_stmt 0 view .LVU226
 576 00b6 4042     		rsbs	r0, r0, #0
 577              	.LVL65:
  95:../Common/IQMath/ti/_IQNatan2.c ****         iqNInputY = -iqNInputY;
 578              		.loc 1 95 19 view .LVU227
 579 00b8 0124     		movs	r4, #1
 580 00ba A6E7     		b	.L16
 581              	.LVL66:
 582              	.L26:
  99:../Common/IQMath/ti/_IQNatan2.c ****         iqNInputX = -iqNInputX;
 583              		.loc 1 99 9 is_stmt 1 view .LVU228
  99:../Common/IQMath/ti/_IQNatan2.c ****         iqNInputX = -iqNInputX;
 584              		.loc 1 99 19 is_stmt 0 view .LVU229
 585 00bc 44F00204 		orr	r4, r4, #2
 586              	.LVL67:
 100:../Common/IQMath/ti/_IQNatan2.c ****     }
 587              		.loc 1 100 9 is_stmt 1 view .LVU230
 100:../Common/IQMath/ti/_IQNatan2.c ****     }
 588              		.loc 1 100 19 is_stmt 0 view .LVU231
 589 00c0 5B42     		rsbs	r3, r3, #0
 590              	.LVL68:
 100:../Common/IQMath/ti/_IQNatan2.c ****     }
 591              		.loc 1 100 19 view .LVU232
 592 00c2 A4E7     		b	.L17
 593              	.LVL69:
 594              	.L18:
 118:../Common/IQMath/ti/_IQNatan2.c ****     }
 595              		.loc 1 118 9 is_stmt 1 view .LVU233
 118:../Common/IQMath/ti/_IQNatan2.c ****     }
 596              		.loc 1 118 22 is_stmt 0 view .LVU234
 597 00c4 1946     		mov	r1, r3
 598              	.LVL70:
 118:../Common/IQMath/ti/_IQNatan2.c ****     }
 599              		.loc 1 118 22 view .LVU235
 600 00c6 FFF7FEFF 		bl	_UIQ31div
 601              	.LVL71:
 118:../Common/IQMath/ti/_IQNatan2.c ****     }
 602              		.loc 1 118 22 view .LVU236
 603 00ca A8E7     		b	.L19
 604              	.L28:
 605              		.align	2
 606              	.L27:
 607 00cc 00000000 		.word	_IQ32atan_coeffs
 608 00d0 51ED8764 		.word	1686629713
 609              	.LBE62:
 610              	.LBE65:
 611              		.cfi_endproc
 612              	.LFE265:
 614              		.section	.text._IQ27atan2,"ax",%progbits
 615              		.align	1
 616              		.global	_IQ27atan2
 617              		.syntax unified
 618              		.thumb
 619              		.thumb_func
 621              	_IQ27atan2:
 622              	.LVL72:
 623              	.LFB266:
ARM GAS  C:\Users\57308\AppData\Local\Temp\ccZcK4bV.s 			page 25


 341:../Common/IQMath/ti/_IQNatan2.c **** /**
 342:../Common/IQMath/ti/_IQNatan2.c ****  * @brief Compute the 4-quadrant arctangent of the IQ27 input 
 343:../Common/IQMath/ti/_IQNatan2.c ****  *        and return the result, in radians.
 344:../Common/IQMath/ti/_IQNatan2.c ****  *
 345:../Common/IQMath/ti/_IQNatan2.c ****  * @param y               IQ27 type input y.
 346:../Common/IQMath/ti/_IQNatan2.c ****  * @param x               IQ27 type input x.
 347:../Common/IQMath/ti/_IQNatan2.c ****  *
 348:../Common/IQMath/ti/_IQNatan2.c ****  * @return                IQ27 type result of 4-quadrant arctangent.
 349:../Common/IQMath/ti/_IQNatan2.c ****  */
 350:../Common/IQMath/ti/_IQNatan2.c **** int32_t _IQ27atan2(int32_t y, int32_t x)
 351:../Common/IQMath/ti/_IQNatan2.c **** {
 624              		.loc 1 351 1 is_stmt 1 view -0
 625              		.cfi_startproc
 626              		@ args = 0, pretend = 0, frame = 0
 627              		@ frame_needed = 0, uses_anonymous_args = 0
 628              		.loc 1 351 1 is_stmt 0 view .LVU238
 629 0000 10B5     		push	{r4, lr}
 630              	.LCFI2:
 631              		.cfi_def_cfa_offset 8
 632              		.cfi_offset 4, -8
 633              		.cfi_offset 14, -4
 634 0002 0B46     		mov	r3, r1
 352:../Common/IQMath/ti/_IQNatan2.c ****     return __IQNatan2(y, x, TYPE_RAD, 27);
 635              		.loc 1 352 5 is_stmt 1 view .LVU239
 636              	.LVL73:
 637              	.LBB76:
 638              	.LBI76:
  71:../Common/IQMath/ti/_IQNatan2.c **** {
 639              		.loc 1 71 30 view .LVU240
 640              	.LBB77:
  73:../Common/IQMath/ti/_IQNatan2.c ****     uint8_t ui8Index;
 641              		.loc 1 73 5 view .LVU241
  74:../Common/IQMath/ti/_IQNatan2.c ****     uint_fast16_t ui16IntState;
 642              		.loc 1 74 5 view .LVU242
  75:../Common/IQMath/ti/_IQNatan2.c ****     uint_fast16_t ui16MPYState;
 643              		.loc 1 75 5 view .LVU243
  76:../Common/IQMath/ti/_IQNatan2.c ****     uint_fast32_t uiqNInputX;
 644              		.loc 1 76 5 view .LVU244
  77:../Common/IQMath/ti/_IQNatan2.c ****     uint_fast32_t uiqNInputY;
 645              		.loc 1 77 5 view .LVU245
  78:../Common/IQMath/ti/_IQNatan2.c ****     uint_fast32_t uiq32ResultPU;
 646              		.loc 1 78 5 view .LVU246
  79:../Common/IQMath/ti/_IQNatan2.c ****     int_fast32_t iqNResult;
 647              		.loc 1 79 5 view .LVU247
  80:../Common/IQMath/ti/_IQNatan2.c ****     int_fast32_t iq29Result;
 648              		.loc 1 80 5 view .LVU248
  81:../Common/IQMath/ti/_IQNatan2.c ****     const int_fast32_t *piq32Coeffs;
 649              		.loc 1 81 5 view .LVU249
  82:../Common/IQMath/ti/_IQNatan2.c ****     uint_fast32_t uiq31Input;
 650              		.loc 1 82 5 view .LVU250
  83:../Common/IQMath/ti/_IQNatan2.c ****     
 651              		.loc 1 83 5 view .LVU251
  94:../Common/IQMath/ti/_IQNatan2.c ****         ui8Status |= 1;
 652              		.loc 1 94 5 view .LVU252
  94:../Common/IQMath/ti/_IQNatan2.c ****         ui8Status |= 1;
 653              		.loc 1 94 8 is_stmt 0 view .LVU253
 654 0004 0028     		cmp	r0, #0
ARM GAS  C:\Users\57308\AppData\Local\Temp\ccZcK4bV.s 			page 26


  94:../Common/IQMath/ti/_IQNatan2.c ****         ui8Status |= 1;
 655              		.loc 1 94 8 view .LVU254
 656 0006 56DB     		blt	.L39
  73:../Common/IQMath/ti/_IQNatan2.c ****     uint8_t ui8Index;
 657              		.loc 1 73 13 view .LVU255
 658 0008 0024     		movs	r4, #0
 659              	.LVL74:
 660              	.L30:
  98:../Common/IQMath/ti/_IQNatan2.c ****         ui8Status |= 2;
 661              		.loc 1 98 5 is_stmt 1 view .LVU256
  98:../Common/IQMath/ti/_IQNatan2.c ****         ui8Status |= 2;
 662              		.loc 1 98 8 is_stmt 0 view .LVU257
 663 000a 002B     		cmp	r3, #0
 664 000c 56DB     		blt	.L40
 665              	.LVL75:
 666              	.L31:
 104:../Common/IQMath/ti/_IQNatan2.c ****     uiqNInputY = (uint_fast32_t)iqNInputY;
 667              		.loc 1 104 5 is_stmt 1 view .LVU258
 105:../Common/IQMath/ti/_IQNatan2.c ****     
 668              		.loc 1 105 5 view .LVU259
 113:../Common/IQMath/ti/_IQNatan2.c ****         ui8Status |= 4;
 669              		.loc 1 113 5 view .LVU260
 113:../Common/IQMath/ti/_IQNatan2.c ****         ui8Status |= 4;
 670              		.loc 1 113 8 is_stmt 0 view .LVU261
 671 000e 8342     		cmp	r3, r0
 672 0010 58D2     		bcs	.L32
 114:../Common/IQMath/ti/_IQNatan2.c ****         uiq31Input = _UIQ31div(uiqNInputX, uiqNInputY);
 673              		.loc 1 114 9 is_stmt 1 view .LVU262
 114:../Common/IQMath/ti/_IQNatan2.c ****         uiq31Input = _UIQ31div(uiqNInputX, uiqNInputY);
 674              		.loc 1 114 19 is_stmt 0 view .LVU263
 675 0012 44F00404 		orr	r4, r4, #4
 676              	.LVL76:
 115:../Common/IQMath/ti/_IQNatan2.c ****     }
 677              		.loc 1 115 9 is_stmt 1 view .LVU264
 115:../Common/IQMath/ti/_IQNatan2.c ****     }
 678              		.loc 1 115 22 is_stmt 0 view .LVU265
 679 0016 0146     		mov	r1, r0
 680              	.LVL77:
 115:../Common/IQMath/ti/_IQNatan2.c ****     }
 681              		.loc 1 115 22 view .LVU266
 682 0018 1846     		mov	r0, r3
 683              	.LVL78:
 115:../Common/IQMath/ti/_IQNatan2.c ****     }
 684              		.loc 1 115 22 view .LVU267
 685 001a FFF7FEFF 		bl	_UIQ31div
 686              	.LVL79:
 687              	.L33:
 122:../Common/IQMath/ti/_IQNatan2.c ****     ui8Index = ui8Index & 0x00fc;
 688              		.loc 1 122 5 is_stmt 1 view .LVU268
 122:../Common/IQMath/ti/_IQNatan2.c ****     ui8Index = ui8Index & 0x00fc;
 689              		.loc 1 122 14 is_stmt 0 view .LVU269
 690 001e 030E     		lsrs	r3, r0, #24
 691              	.LVL80:
 123:../Common/IQMath/ti/_IQNatan2.c ****     
 692              		.loc 1 123 5 is_stmt 1 view .LVU270
 123:../Common/IQMath/ti/_IQNatan2.c ****     
 693              		.loc 1 123 14 is_stmt 0 view .LVU271
ARM GAS  C:\Users\57308\AppData\Local\Temp\ccZcK4bV.s 			page 27


 694 0020 03F0FC03 		and	r3, r3, #252
 695              	.LVL81:
 126:../Common/IQMath/ti/_IQNatan2.c ****     
 696              		.loc 1 126 5 is_stmt 1 view .LVU272
 126:../Common/IQMath/ti/_IQNatan2.c ****     
 697              		.loc 1 126 17 is_stmt 0 view .LVU273
 698 0024 2949     		ldr	r1, .L41
 699 0026 01EB8302 		add	r2, r1, r3, lsl #2
 700              	.LVL82:
 134:../Common/IQMath/ti/_IQNatan2.c ****     
 701              		.loc 1 134 5 is_stmt 1 view .LVU274
 134:../Common/IQMath/ti/_IQNatan2.c ****     
 702              		.loc 1 134 5 is_stmt 0 view .LVU275
 703              	.LBE77:
 704              	.LBE76:
  28:../Common/IQMath/ti/./support/RTS_support.h **** }
 705              		.loc 2 28 5 is_stmt 1 view .LVU276
 706              	.LBB89:
 707              	.LBB86:
 143:../Common/IQMath/ti/_IQNatan2.c ****     
 708              		.loc 1 143 5 view .LVU277
 143:../Common/IQMath/ti/_IQNatan2.c ****     
 709              		.loc 1 143 21 is_stmt 0 view .LVU278
 710 002a 51F82330 		ldr	r3, [r1, r3, lsl #2]
 711              	.LVL83:
 712              	.LBB78:
 713              	.LBI78:
 233:../Common/IQMath/ti/./support/RTS_support.h **** {
 714              		.loc 2 233 28 is_stmt 1 view .LVU279
 715              	.LBB79:
 716              		.loc 2 235 5 view .LVU280
 717              		.loc 2 235 28 is_stmt 0 view .LVU281
 718 002e 4FEAE07E 		asr	lr, r0, #31
 719              		.loc 2 235 49 view .LVU282
 720 0032 D917     		asrs	r1, r3, #31
 721              		.loc 2 235 47 view .LVU283
 722 0034 00FB01F1 		mul	r1, r0, r1
 723 0038 03FB0E11 		mla	r1, r3, lr, r1
 724 003c A0FB033C 		umull	r3, ip, r0, r3
 725              	.LVL84:
 726              		.loc 2 235 47 view .LVU284
 727 0040 6144     		add	r1, r1, ip
 728              		.loc 2 235 69 view .LVU285
 729 0042 DB0F     		lsrs	r3, r3, #31
 730 0044 43EA4103 		orr	r3, r3, r1, lsl #1
 731              	.LVL85:
 732              		.loc 2 235 69 view .LVU286
 733              	.LBE79:
 734              	.LBE78:
 146:../Common/IQMath/ti/_IQNatan2.c ****     
 735              		.loc 1 146 5 is_stmt 1 view .LVU287
 146:../Common/IQMath/ti/_IQNatan2.c ****     
 736              		.loc 1 146 37 is_stmt 0 view .LVU288
 737 0048 5168     		ldr	r1, [r2, #4]
 146:../Common/IQMath/ti/_IQNatan2.c ****     
 738              		.loc 1 146 19 view .LVU289
 739 004a 0B44     		add	r3, r3, r1
ARM GAS  C:\Users\57308\AppData\Local\Temp\ccZcK4bV.s 			page 28


 740              	.LVL86:
 149:../Common/IQMath/ti/_IQNatan2.c ****     
 741              		.loc 1 149 5 is_stmt 1 view .LVU290
 742              	.LBB80:
 743              	.LBI80:
 233:../Common/IQMath/ti/./support/RTS_support.h **** {
 744              		.loc 2 233 28 view .LVU291
 745              	.LBB81:
 746              		.loc 2 235 5 view .LVU292
 747              		.loc 2 235 49 is_stmt 0 view .LVU293
 748 004c 4FEAE37C 		asr	ip, r3, #31
 749              		.loc 2 235 47 view .LVU294
 750 0050 00FB0CFC 		mul	ip, r0, ip
 751 0054 03FB0ECC 		mla	ip, r3, lr, ip
 752 0058 A0FB0331 		umull	r3, r1, r0, r3
 753              	.LVL87:
 754              		.loc 2 235 47 view .LVU295
 755 005c 8C44     		add	ip, ip, r1
 756              		.loc 2 235 69 view .LVU296
 757 005e DB0F     		lsrs	r3, r3, #31
 758 0060 43EA4C03 		orr	r3, r3, ip, lsl #1
 759              	.LVL88:
 760              		.loc 2 235 69 view .LVU297
 761              	.LBE81:
 762              	.LBE80:
 152:../Common/IQMath/ti/_IQNatan2.c ****     
 763              		.loc 1 152 5 is_stmt 1 view .LVU298
 152:../Common/IQMath/ti/_IQNatan2.c ****     
 764              		.loc 1 152 37 is_stmt 0 view .LVU299
 765 0064 9168     		ldr	r1, [r2, #8]
 152:../Common/IQMath/ti/_IQNatan2.c ****     
 766              		.loc 1 152 19 view .LVU300
 767 0066 0B44     		add	r3, r3, r1
 768              	.LVL89:
 155:../Common/IQMath/ti/_IQNatan2.c ****     
 769              		.loc 1 155 5 is_stmt 1 view .LVU301
 770              	.LBB82:
 771              	.LBI82:
 233:../Common/IQMath/ti/./support/RTS_support.h **** {
 772              		.loc 2 233 28 view .LVU302
 773              	.LBB83:
 774              		.loc 2 235 5 view .LVU303
 775              		.loc 2 235 49 is_stmt 0 view .LVU304
 776 0068 D917     		asrs	r1, r3, #31
 777              		.loc 2 235 47 view .LVU305
 778 006a 00FB01F1 		mul	r1, r0, r1
 779 006e 03FB0E11 		mla	r1, r3, lr, r1
 780 0072 A0FB0303 		umull	r0, r3, r0, r3
 781              	.LVL90:
 782              		.loc 2 235 47 view .LVU306
 783 0076 0B44     		add	r3, r3, r1
 784              		.loc 2 235 69 view .LVU307
 785 0078 C00F     		lsrs	r0, r0, #31
 786 007a 40EA4300 		orr	r0, r0, r3, lsl #1
 787              	.LVL91:
 788              		.loc 2 235 69 view .LVU308
 789              	.LBE83:
ARM GAS  C:\Users\57308\AppData\Local\Temp\ccZcK4bV.s 			page 29


 790              	.LBE82:
 158:../Common/IQMath/ti/_IQNatan2.c ****     
 791              		.loc 1 158 5 is_stmt 1 view .LVU309
 158:../Common/IQMath/ti/_IQNatan2.c ****     
 792              		.loc 1 158 37 is_stmt 0 view .LVU310
 793 007e D368     		ldr	r3, [r2, #12]
 158:../Common/IQMath/ti/_IQNatan2.c ****     
 794              		.loc 1 158 19 view .LVU311
 795 0080 1844     		add	r0, r0, r3
 796              	.LVL92:
 161:../Common/IQMath/ti/_IQNatan2.c ****         /* atan(y/x) = pi/2 - uiq32ResultPU */
 797              		.loc 1 161 5 is_stmt 1 view .LVU312
 161:../Common/IQMath/ti/_IQNatan2.c ****         /* atan(y/x) = pi/2 - uiq32ResultPU */
 798              		.loc 1 161 8 is_stmt 0 view .LVU313
 799 0082 14F0040F 		tst	r4, #4
 800 0086 01D0     		beq	.L34
 163:../Common/IQMath/ti/_IQNatan2.c ****     }
 801              		.loc 1 163 9 is_stmt 1 view .LVU314
 163:../Common/IQMath/ti/_IQNatan2.c ****     }
 802              		.loc 1 163 23 is_stmt 0 view .LVU315
 803 0088 C0F18040 		rsb	r0, r0, #1073741824
 804              	.LVL93:
 805              	.L34:
 167:../Common/IQMath/ti/_IQNatan2.c ****         /* atan(y/x) = pi - uiq32ResultPU */
 806              		.loc 1 167 5 is_stmt 1 view .LVU316
 167:../Common/IQMath/ti/_IQNatan2.c ****         /* atan(y/x) = pi - uiq32ResultPU */
 807              		.loc 1 167 8 is_stmt 0 view .LVU317
 808 008c 14F0020F 		tst	r4, #2
 809 0090 01D0     		beq	.L35
 169:../Common/IQMath/ti/_IQNatan2.c ****     }
 810              		.loc 1 169 9 is_stmt 1 view .LVU318
 169:../Common/IQMath/ti/_IQNatan2.c ****     }
 811              		.loc 1 169 23 is_stmt 0 view .LVU319
 812 0092 C0F10040 		rsb	r0, r0, #-2147483648
 813              	.LVL94:
 814              	.L35:
 173:../Common/IQMath/ti/_IQNatan2.c ****         uiq32ResultPU += (uint_fast32_t)1 << (31 - q_value);
 815              		.loc 1 173 5 is_stmt 1 view .LVU320
 183:../Common/IQMath/ti/_IQNatan2.c ****         
 816              		.loc 1 183 9 view .LVU321
 817              	.LBB84:
 818              	.LBI84:
 233:../Common/IQMath/ti/./support/RTS_support.h **** {
 819              		.loc 2 233 28 view .LVU322
 820              	.LBB85:
 821              		.loc 2 235 5 view .LVU323
 822              		.loc 2 235 28 is_stmt 0 view .LVU324
 823 0096 C117     		asrs	r1, r0, #31
 824              		.loc 2 235 47 view .LVU325
 825 0098 0D4A     		ldr	r2, .L41+4
 826              	.LVL95:
 827              		.loc 2 235 47 view .LVU326
 828 009a A0FB0203 		umull	r0, r3, r0, r2
 829              	.LVL96:
 830              		.loc 2 235 47 view .LVU327
 831 009e 02FB0133 		mla	r3, r2, r1, r3
 832              		.loc 2 235 69 view .LVU328
ARM GAS  C:\Users\57308\AppData\Local\Temp\ccZcK4bV.s 			page 30


 833 00a2 C00F     		lsrs	r0, r0, #31
 834 00a4 40EA4300 		orr	r0, r0, r3, lsl #1
 835              	.LVL97:
 836              		.loc 2 235 69 view .LVU329
 837              	.LBE85:
 838              	.LBE84:
 186:../Common/IQMath/ti/_IQNatan2.c ****             iq29Result += (uint_fast32_t)1 << (28 - q_value);
 839              		.loc 1 186 9 is_stmt 1 view .LVU330
 187:../Common/IQMath/ti/_IQNatan2.c ****         }
 840              		.loc 1 187 13 view .LVU331
 187:../Common/IQMath/ti/_IQNatan2.c ****         }
 841              		.loc 1 187 24 is_stmt 0 view .LVU332
 842 00a8 0230     		adds	r0, r0, #2
 843              	.LVL98:
 189:../Common/IQMath/ti/_IQNatan2.c ****     }
 844              		.loc 1 189 9 is_stmt 1 view .LVU333
 189:../Common/IQMath/ti/_IQNatan2.c ****     }
 845              		.loc 1 189 19 is_stmt 0 view .LVU334
 846 00aa 8010     		asrs	r0, r0, #2
 847              	.LVL99:
 196:../Common/IQMath/ti/_IQNatan2.c ****     
 848              		.loc 1 196 5 is_stmt 1 view .LVU335
 196:../Common/IQMath/ti/_IQNatan2.c ****     
 849              		.loc 1 196 5 is_stmt 0 view .LVU336
 850              	.LBE86:
 851              	.LBE89:
  72:../Common/IQMath/ti/./support/RTS_support.h **** }
 852              		.loc 2 72 5 is_stmt 1 view .LVU337
 853              	.LBB90:
 854              	.LBB87:
 199:../Common/IQMath/ti/_IQNatan2.c ****         return -iqNResult;
 855              		.loc 1 199 5 view .LVU338
 199:../Common/IQMath/ti/_IQNatan2.c ****         return -iqNResult;
 856              		.loc 1 199 8 is_stmt 0 view .LVU339
 857 00ac 14F0010F 		tst	r4, #1
 858 00b0 00D0     		beq	.L29
 200:../Common/IQMath/ti/_IQNatan2.c ****     }
 859              		.loc 1 200 9 is_stmt 1 view .LVU340
 200:../Common/IQMath/ti/_IQNatan2.c ****     }
 860              		.loc 1 200 16 is_stmt 0 view .LVU341
 861 00b2 4042     		rsbs	r0, r0, #0
 862              	.LVL100:
 863              	.L29:
 200:../Common/IQMath/ti/_IQNatan2.c ****     }
 864              		.loc 1 200 16 view .LVU342
 865              	.LBE87:
 866              	.LBE90:
 353:../Common/IQMath/ti/_IQNatan2.c **** }
 867              		.loc 1 353 1 view .LVU343
 868 00b4 10BD     		pop	{r4, pc}
 869              	.LVL101:
 870              	.L39:
 871              	.LBB91:
 872              	.LBB88:
  95:../Common/IQMath/ti/_IQNatan2.c ****         iqNInputY = -iqNInputY;
 873              		.loc 1 95 9 is_stmt 1 view .LVU344
  96:../Common/IQMath/ti/_IQNatan2.c ****     }
ARM GAS  C:\Users\57308\AppData\Local\Temp\ccZcK4bV.s 			page 31


 874              		.loc 1 96 9 view .LVU345
  96:../Common/IQMath/ti/_IQNatan2.c ****     }
 875              		.loc 1 96 19 is_stmt 0 view .LVU346
 876 00b6 4042     		rsbs	r0, r0, #0
 877              	.LVL102:
  95:../Common/IQMath/ti/_IQNatan2.c ****         iqNInputY = -iqNInputY;
 878              		.loc 1 95 19 view .LVU347
 879 00b8 0124     		movs	r4, #1
 880 00ba A6E7     		b	.L30
 881              	.LVL103:
 882              	.L40:
  99:../Common/IQMath/ti/_IQNatan2.c ****         iqNInputX = -iqNInputX;
 883              		.loc 1 99 9 is_stmt 1 view .LVU348
  99:../Common/IQMath/ti/_IQNatan2.c ****         iqNInputX = -iqNInputX;
 884              		.loc 1 99 19 is_stmt 0 view .LVU349
 885 00bc 44F00204 		orr	r4, r4, #2
 886              	.LVL104:
 100:../Common/IQMath/ti/_IQNatan2.c ****     }
 887              		.loc 1 100 9 is_stmt 1 view .LVU350
 100:../Common/IQMath/ti/_IQNatan2.c ****     }
 888              		.loc 1 100 19 is_stmt 0 view .LVU351
 889 00c0 5B42     		rsbs	r3, r3, #0
 890              	.LVL105:
 100:../Common/IQMath/ti/_IQNatan2.c ****     }
 891              		.loc 1 100 19 view .LVU352
 892 00c2 A4E7     		b	.L31
 893              	.LVL106:
 894              	.L32:
 118:../Common/IQMath/ti/_IQNatan2.c ****     }
 895              		.loc 1 118 9 is_stmt 1 view .LVU353
 118:../Common/IQMath/ti/_IQNatan2.c ****     }
 896              		.loc 1 118 22 is_stmt 0 view .LVU354
 897 00c4 1946     		mov	r1, r3
 898              	.LVL107:
 118:../Common/IQMath/ti/_IQNatan2.c ****     }
 899              		.loc 1 118 22 view .LVU355
 900 00c6 FFF7FEFF 		bl	_UIQ31div
 901              	.LVL108:
 118:../Common/IQMath/ti/_IQNatan2.c ****     }
 902              		.loc 1 118 22 view .LVU356
 903 00ca A8E7     		b	.L33
 904              	.L42:
 905              		.align	2
 906              	.L41:
 907 00cc 00000000 		.word	_IQ32atan_coeffs
 908 00d0 51ED8764 		.word	1686629713
 909              	.LBE88:
 910              	.LBE91:
 911              		.cfi_endproc
 912              	.LFE266:
 914              		.section	.text._IQ26atan2,"ax",%progbits
 915              		.align	1
 916              		.global	_IQ26atan2
 917              		.syntax unified
 918              		.thumb
 919              		.thumb_func
 921              	_IQ26atan2:
ARM GAS  C:\Users\57308\AppData\Local\Temp\ccZcK4bV.s 			page 32


 922              	.LVL109:
 923              	.LFB267:
 354:../Common/IQMath/ti/_IQNatan2.c **** /**
 355:../Common/IQMath/ti/_IQNatan2.c ****  * @brief Compute the 4-quadrant arctangent of the IQ26 input 
 356:../Common/IQMath/ti/_IQNatan2.c ****  *        and return the result, in radians.
 357:../Common/IQMath/ti/_IQNatan2.c ****  *
 358:../Common/IQMath/ti/_IQNatan2.c ****  * @param y               IQ26 type input y.
 359:../Common/IQMath/ti/_IQNatan2.c ****  * @param x               IQ26 type input x.
 360:../Common/IQMath/ti/_IQNatan2.c ****  *
 361:../Common/IQMath/ti/_IQNatan2.c ****  * @return                IQ26 type result of 4-quadrant arctangent.
 362:../Common/IQMath/ti/_IQNatan2.c ****  */
 363:../Common/IQMath/ti/_IQNatan2.c **** int32_t _IQ26atan2(int32_t y, int32_t x)
 364:../Common/IQMath/ti/_IQNatan2.c **** {
 924              		.loc 1 364 1 is_stmt 1 view -0
 925              		.cfi_startproc
 926              		@ args = 0, pretend = 0, frame = 0
 927              		@ frame_needed = 0, uses_anonymous_args = 0
 928              		.loc 1 364 1 is_stmt 0 view .LVU358
 929 0000 10B5     		push	{r4, lr}
 930              	.LCFI3:
 931              		.cfi_def_cfa_offset 8
 932              		.cfi_offset 4, -8
 933              		.cfi_offset 14, -4
 934 0002 0B46     		mov	r3, r1
 365:../Common/IQMath/ti/_IQNatan2.c ****     return __IQNatan2(y, x, TYPE_RAD, 26);
 935              		.loc 1 365 5 is_stmt 1 view .LVU359
 936              	.LVL110:
 937              	.LBB102:
 938              	.LBI102:
  71:../Common/IQMath/ti/_IQNatan2.c **** {
 939              		.loc 1 71 30 view .LVU360
 940              	.LBB103:
  73:../Common/IQMath/ti/_IQNatan2.c ****     uint8_t ui8Index;
 941              		.loc 1 73 5 view .LVU361
  74:../Common/IQMath/ti/_IQNatan2.c ****     uint_fast16_t ui16IntState;
 942              		.loc 1 74 5 view .LVU362
  75:../Common/IQMath/ti/_IQNatan2.c ****     uint_fast16_t ui16MPYState;
 943              		.loc 1 75 5 view .LVU363
  76:../Common/IQMath/ti/_IQNatan2.c ****     uint_fast32_t uiqNInputX;
 944              		.loc 1 76 5 view .LVU364
  77:../Common/IQMath/ti/_IQNatan2.c ****     uint_fast32_t uiqNInputY;
 945              		.loc 1 77 5 view .LVU365
  78:../Common/IQMath/ti/_IQNatan2.c ****     uint_fast32_t uiq32ResultPU;
 946              		.loc 1 78 5 view .LVU366
  79:../Common/IQMath/ti/_IQNatan2.c ****     int_fast32_t iqNResult;
 947              		.loc 1 79 5 view .LVU367
  80:../Common/IQMath/ti/_IQNatan2.c ****     int_fast32_t iq29Result;
 948              		.loc 1 80 5 view .LVU368
  81:../Common/IQMath/ti/_IQNatan2.c ****     const int_fast32_t *piq32Coeffs;
 949              		.loc 1 81 5 view .LVU369
  82:../Common/IQMath/ti/_IQNatan2.c ****     uint_fast32_t uiq31Input;
 950              		.loc 1 82 5 view .LVU370
  83:../Common/IQMath/ti/_IQNatan2.c ****     
 951              		.loc 1 83 5 view .LVU371
  94:../Common/IQMath/ti/_IQNatan2.c ****         ui8Status |= 1;
 952              		.loc 1 94 5 view .LVU372
  94:../Common/IQMath/ti/_IQNatan2.c ****         ui8Status |= 1;
ARM GAS  C:\Users\57308\AppData\Local\Temp\ccZcK4bV.s 			page 33


 953              		.loc 1 94 8 is_stmt 0 view .LVU373
 954 0004 0028     		cmp	r0, #0
  94:../Common/IQMath/ti/_IQNatan2.c ****         ui8Status |= 1;
 955              		.loc 1 94 8 view .LVU374
 956 0006 56DB     		blt	.L53
  73:../Common/IQMath/ti/_IQNatan2.c ****     uint8_t ui8Index;
 957              		.loc 1 73 13 view .LVU375
 958 0008 0024     		movs	r4, #0
 959              	.LVL111:
 960              	.L44:
  98:../Common/IQMath/ti/_IQNatan2.c ****         ui8Status |= 2;
 961              		.loc 1 98 5 is_stmt 1 view .LVU376
  98:../Common/IQMath/ti/_IQNatan2.c ****         ui8Status |= 2;
 962              		.loc 1 98 8 is_stmt 0 view .LVU377
 963 000a 002B     		cmp	r3, #0
 964 000c 56DB     		blt	.L54
 965              	.LVL112:
 966              	.L45:
 104:../Common/IQMath/ti/_IQNatan2.c ****     uiqNInputY = (uint_fast32_t)iqNInputY;
 967              		.loc 1 104 5 is_stmt 1 view .LVU378
 105:../Common/IQMath/ti/_IQNatan2.c ****     
 968              		.loc 1 105 5 view .LVU379
 113:../Common/IQMath/ti/_IQNatan2.c ****         ui8Status |= 4;
 969              		.loc 1 113 5 view .LVU380
 113:../Common/IQMath/ti/_IQNatan2.c ****         ui8Status |= 4;
 970              		.loc 1 113 8 is_stmt 0 view .LVU381
 971 000e 8342     		cmp	r3, r0
 972 0010 58D2     		bcs	.L46
 114:../Common/IQMath/ti/_IQNatan2.c ****         uiq31Input = _UIQ31div(uiqNInputX, uiqNInputY);
 973              		.loc 1 114 9 is_stmt 1 view .LVU382
 114:../Common/IQMath/ti/_IQNatan2.c ****         uiq31Input = _UIQ31div(uiqNInputX, uiqNInputY);
 974              		.loc 1 114 19 is_stmt 0 view .LVU383
 975 0012 44F00404 		orr	r4, r4, #4
 976              	.LVL113:
 115:../Common/IQMath/ti/_IQNatan2.c ****     }
 977              		.loc 1 115 9 is_stmt 1 view .LVU384
 115:../Common/IQMath/ti/_IQNatan2.c ****     }
 978              		.loc 1 115 22 is_stmt 0 view .LVU385
 979 0016 0146     		mov	r1, r0
 980              	.LVL114:
 115:../Common/IQMath/ti/_IQNatan2.c ****     }
 981              		.loc 1 115 22 view .LVU386
 982 0018 1846     		mov	r0, r3
 983              	.LVL115:
 115:../Common/IQMath/ti/_IQNatan2.c ****     }
 984              		.loc 1 115 22 view .LVU387
 985 001a FFF7FEFF 		bl	_UIQ31div
 986              	.LVL116:
 987              	.L47:
 122:../Common/IQMath/ti/_IQNatan2.c ****     ui8Index = ui8Index & 0x00fc;
 988              		.loc 1 122 5 is_stmt 1 view .LVU388
 122:../Common/IQMath/ti/_IQNatan2.c ****     ui8Index = ui8Index & 0x00fc;
 989              		.loc 1 122 14 is_stmt 0 view .LVU389
 990 001e 030E     		lsrs	r3, r0, #24
 991              	.LVL117:
 123:../Common/IQMath/ti/_IQNatan2.c ****     
 992              		.loc 1 123 5 is_stmt 1 view .LVU390
ARM GAS  C:\Users\57308\AppData\Local\Temp\ccZcK4bV.s 			page 34


 123:../Common/IQMath/ti/_IQNatan2.c ****     
 993              		.loc 1 123 14 is_stmt 0 view .LVU391
 994 0020 03F0FC03 		and	r3, r3, #252
 995              	.LVL118:
 126:../Common/IQMath/ti/_IQNatan2.c ****     
 996              		.loc 1 126 5 is_stmt 1 view .LVU392
 126:../Common/IQMath/ti/_IQNatan2.c ****     
 997              		.loc 1 126 17 is_stmt 0 view .LVU393
 998 0024 2949     		ldr	r1, .L55
 999 0026 01EB8302 		add	r2, r1, r3, lsl #2
 1000              	.LVL119:
 134:../Common/IQMath/ti/_IQNatan2.c ****     
 1001              		.loc 1 134 5 is_stmt 1 view .LVU394
 134:../Common/IQMath/ti/_IQNatan2.c ****     
 1002              		.loc 1 134 5 is_stmt 0 view .LVU395
 1003              	.LBE103:
 1004              	.LBE102:
  28:../Common/IQMath/ti/./support/RTS_support.h **** }
 1005              		.loc 2 28 5 is_stmt 1 view .LVU396
 1006              	.LBB115:
 1007              	.LBB112:
 143:../Common/IQMath/ti/_IQNatan2.c ****     
 1008              		.loc 1 143 5 view .LVU397
 143:../Common/IQMath/ti/_IQNatan2.c ****     
 1009              		.loc 1 143 21 is_stmt 0 view .LVU398
 1010 002a 51F82330 		ldr	r3, [r1, r3, lsl #2]
 1011              	.LVL120:
 1012              	.LBB104:
 1013              	.LBI104:
 233:../Common/IQMath/ti/./support/RTS_support.h **** {
 1014              		.loc 2 233 28 is_stmt 1 view .LVU399
 1015              	.LBB105:
 1016              		.loc 2 235 5 view .LVU400
 1017              		.loc 2 235 28 is_stmt 0 view .LVU401
 1018 002e 4FEAE07E 		asr	lr, r0, #31
 1019              		.loc 2 235 49 view .LVU402
 1020 0032 D917     		asrs	r1, r3, #31
 1021              		.loc 2 235 47 view .LVU403
 1022 0034 00FB01F1 		mul	r1, r0, r1
 1023 0038 03FB0E11 		mla	r1, r3, lr, r1
 1024 003c A0FB033C 		umull	r3, ip, r0, r3
 1025              	.LVL121:
 1026              		.loc 2 235 47 view .LVU404
 1027 0040 6144     		add	r1, r1, ip
 1028              		.loc 2 235 69 view .LVU405
 1029 0042 DB0F     		lsrs	r3, r3, #31
 1030 0044 43EA4103 		orr	r3, r3, r1, lsl #1
 1031              	.LVL122:
 1032              		.loc 2 235 69 view .LVU406
 1033              	.LBE105:
 1034              	.LBE104:
 146:../Common/IQMath/ti/_IQNatan2.c ****     
 1035              		.loc 1 146 5 is_stmt 1 view .LVU407
 146:../Common/IQMath/ti/_IQNatan2.c ****     
 1036              		.loc 1 146 37 is_stmt 0 view .LVU408
 1037 0048 5168     		ldr	r1, [r2, #4]
 146:../Common/IQMath/ti/_IQNatan2.c ****     
ARM GAS  C:\Users\57308\AppData\Local\Temp\ccZcK4bV.s 			page 35


 1038              		.loc 1 146 19 view .LVU409
 1039 004a 0B44     		add	r3, r3, r1
 1040              	.LVL123:
 149:../Common/IQMath/ti/_IQNatan2.c ****     
 1041              		.loc 1 149 5 is_stmt 1 view .LVU410
 1042              	.LBB106:
 1043              	.LBI106:
 233:../Common/IQMath/ti/./support/RTS_support.h **** {
 1044              		.loc 2 233 28 view .LVU411
 1045              	.LBB107:
 1046              		.loc 2 235 5 view .LVU412
 1047              		.loc 2 235 49 is_stmt 0 view .LVU413
 1048 004c 4FEAE37C 		asr	ip, r3, #31
 1049              		.loc 2 235 47 view .LVU414
 1050 0050 00FB0CFC 		mul	ip, r0, ip
 1051 0054 03FB0ECC 		mla	ip, r3, lr, ip
 1052 0058 A0FB0331 		umull	r3, r1, r0, r3
 1053              	.LVL124:
 1054              		.loc 2 235 47 view .LVU415
 1055 005c 8C44     		add	ip, ip, r1
 1056              		.loc 2 235 69 view .LVU416
 1057 005e DB0F     		lsrs	r3, r3, #31
 1058 0060 43EA4C03 		orr	r3, r3, ip, lsl #1
 1059              	.LVL125:
 1060              		.loc 2 235 69 view .LVU417
 1061              	.LBE107:
 1062              	.LBE106:
 152:../Common/IQMath/ti/_IQNatan2.c ****     
 1063              		.loc 1 152 5 is_stmt 1 view .LVU418
 152:../Common/IQMath/ti/_IQNatan2.c ****     
 1064              		.loc 1 152 37 is_stmt 0 view .LVU419
 1065 0064 9168     		ldr	r1, [r2, #8]
 152:../Common/IQMath/ti/_IQNatan2.c ****     
 1066              		.loc 1 152 19 view .LVU420
 1067 0066 0B44     		add	r3, r3, r1
 1068              	.LVL126:
 155:../Common/IQMath/ti/_IQNatan2.c ****     
 1069              		.loc 1 155 5 is_stmt 1 view .LVU421
 1070              	.LBB108:
 1071              	.LBI108:
 233:../Common/IQMath/ti/./support/RTS_support.h **** {
 1072              		.loc 2 233 28 view .LVU422
 1073              	.LBB109:
 1074              		.loc 2 235 5 view .LVU423
 1075              		.loc 2 235 49 is_stmt 0 view .LVU424
 1076 0068 D917     		asrs	r1, r3, #31
 1077              		.loc 2 235 47 view .LVU425
 1078 006a 00FB01F1 		mul	r1, r0, r1
 1079 006e 03FB0E11 		mla	r1, r3, lr, r1
 1080 0072 A0FB0303 		umull	r0, r3, r0, r3
 1081              	.LVL127:
 1082              		.loc 2 235 47 view .LVU426
 1083 0076 0B44     		add	r3, r3, r1
 1084              		.loc 2 235 69 view .LVU427
 1085 0078 C00F     		lsrs	r0, r0, #31
 1086 007a 40EA4300 		orr	r0, r0, r3, lsl #1
 1087              	.LVL128:
ARM GAS  C:\Users\57308\AppData\Local\Temp\ccZcK4bV.s 			page 36


 1088              		.loc 2 235 69 view .LVU428
 1089              	.LBE109:
 1090              	.LBE108:
 158:../Common/IQMath/ti/_IQNatan2.c ****     
 1091              		.loc 1 158 5 is_stmt 1 view .LVU429
 158:../Common/IQMath/ti/_IQNatan2.c ****     
 1092              		.loc 1 158 37 is_stmt 0 view .LVU430
 1093 007e D368     		ldr	r3, [r2, #12]
 158:../Common/IQMath/ti/_IQNatan2.c ****     
 1094              		.loc 1 158 19 view .LVU431
 1095 0080 1844     		add	r0, r0, r3
 1096              	.LVL129:
 161:../Common/IQMath/ti/_IQNatan2.c ****         /* atan(y/x) = pi/2 - uiq32ResultPU */
 1097              		.loc 1 161 5 is_stmt 1 view .LVU432
 161:../Common/IQMath/ti/_IQNatan2.c ****         /* atan(y/x) = pi/2 - uiq32ResultPU */
 1098              		.loc 1 161 8 is_stmt 0 view .LVU433
 1099 0082 14F0040F 		tst	r4, #4
 1100 0086 01D0     		beq	.L48
 163:../Common/IQMath/ti/_IQNatan2.c ****     }
 1101              		.loc 1 163 9 is_stmt 1 view .LVU434
 163:../Common/IQMath/ti/_IQNatan2.c ****     }
 1102              		.loc 1 163 23 is_stmt 0 view .LVU435
 1103 0088 C0F18040 		rsb	r0, r0, #1073741824
 1104              	.LVL130:
 1105              	.L48:
 167:../Common/IQMath/ti/_IQNatan2.c ****         /* atan(y/x) = pi - uiq32ResultPU */
 1106              		.loc 1 167 5 is_stmt 1 view .LVU436
 167:../Common/IQMath/ti/_IQNatan2.c ****         /* atan(y/x) = pi - uiq32ResultPU */
 1107              		.loc 1 167 8 is_stmt 0 view .LVU437
 1108 008c 14F0020F 		tst	r4, #2
 1109 0090 01D0     		beq	.L49
 169:../Common/IQMath/ti/_IQNatan2.c ****     }
 1110              		.loc 1 169 9 is_stmt 1 view .LVU438
 169:../Common/IQMath/ti/_IQNatan2.c ****     }
 1111              		.loc 1 169 23 is_stmt 0 view .LVU439
 1112 0092 C0F10040 		rsb	r0, r0, #-2147483648
 1113              	.LVL131:
 1114              	.L49:
 173:../Common/IQMath/ti/_IQNatan2.c ****         uiq32ResultPU += (uint_fast32_t)1 << (31 - q_value);
 1115              		.loc 1 173 5 is_stmt 1 view .LVU440
 183:../Common/IQMath/ti/_IQNatan2.c ****         
 1116              		.loc 1 183 9 view .LVU441
 1117              	.LBB110:
 1118              	.LBI110:
 233:../Common/IQMath/ti/./support/RTS_support.h **** {
 1119              		.loc 2 233 28 view .LVU442
 1120              	.LBB111:
 1121              		.loc 2 235 5 view .LVU443
 1122              		.loc 2 235 28 is_stmt 0 view .LVU444
 1123 0096 C117     		asrs	r1, r0, #31
 1124              		.loc 2 235 47 view .LVU445
 1125 0098 0D4A     		ldr	r2, .L55+4
 1126              	.LVL132:
 1127              		.loc 2 235 47 view .LVU446
 1128 009a A0FB0203 		umull	r0, r3, r0, r2
 1129              	.LVL133:
 1130              		.loc 2 235 47 view .LVU447
ARM GAS  C:\Users\57308\AppData\Local\Temp\ccZcK4bV.s 			page 37


 1131 009e 02FB0133 		mla	r3, r2, r1, r3
 1132              		.loc 2 235 69 view .LVU448
 1133 00a2 C00F     		lsrs	r0, r0, #31
 1134 00a4 40EA4300 		orr	r0, r0, r3, lsl #1
 1135              	.LVL134:
 1136              		.loc 2 235 69 view .LVU449
 1137              	.LBE111:
 1138              	.LBE110:
 186:../Common/IQMath/ti/_IQNatan2.c ****             iq29Result += (uint_fast32_t)1 << (28 - q_value);
 1139              		.loc 1 186 9 is_stmt 1 view .LVU450
 187:../Common/IQMath/ti/_IQNatan2.c ****         }
 1140              		.loc 1 187 13 view .LVU451
 187:../Common/IQMath/ti/_IQNatan2.c ****         }
 1141              		.loc 1 187 24 is_stmt 0 view .LVU452
 1142 00a8 0430     		adds	r0, r0, #4
 1143              	.LVL135:
 189:../Common/IQMath/ti/_IQNatan2.c ****     }
 1144              		.loc 1 189 9 is_stmt 1 view .LVU453
 189:../Common/IQMath/ti/_IQNatan2.c ****     }
 1145              		.loc 1 189 19 is_stmt 0 view .LVU454
 1146 00aa C010     		asrs	r0, r0, #3
 1147              	.LVL136:
 196:../Common/IQMath/ti/_IQNatan2.c ****     
 1148              		.loc 1 196 5 is_stmt 1 view .LVU455
 196:../Common/IQMath/ti/_IQNatan2.c ****     
 1149              		.loc 1 196 5 is_stmt 0 view .LVU456
 1150              	.LBE112:
 1151              	.LBE115:
  72:../Common/IQMath/ti/./support/RTS_support.h **** }
 1152              		.loc 2 72 5 is_stmt 1 view .LVU457
 1153              	.LBB116:
 1154              	.LBB113:
 199:../Common/IQMath/ti/_IQNatan2.c ****         return -iqNResult;
 1155              		.loc 1 199 5 view .LVU458
 199:../Common/IQMath/ti/_IQNatan2.c ****         return -iqNResult;
 1156              		.loc 1 199 8 is_stmt 0 view .LVU459
 1157 00ac 14F0010F 		tst	r4, #1
 1158 00b0 00D0     		beq	.L43
 200:../Common/IQMath/ti/_IQNatan2.c ****     }
 1159              		.loc 1 200 9 is_stmt 1 view .LVU460
 200:../Common/IQMath/ti/_IQNatan2.c ****     }
 1160              		.loc 1 200 16 is_stmt 0 view .LVU461
 1161 00b2 4042     		rsbs	r0, r0, #0
 1162              	.LVL137:
 1163              	.L43:
 200:../Common/IQMath/ti/_IQNatan2.c ****     }
 1164              		.loc 1 200 16 view .LVU462
 1165              	.LBE113:
 1166              	.LBE116:
 366:../Common/IQMath/ti/_IQNatan2.c **** }
 1167              		.loc 1 366 1 view .LVU463
 1168 00b4 10BD     		pop	{r4, pc}
 1169              	.LVL138:
 1170              	.L53:
 1171              	.LBB117:
 1172              	.LBB114:
  95:../Common/IQMath/ti/_IQNatan2.c ****         iqNInputY = -iqNInputY;
ARM GAS  C:\Users\57308\AppData\Local\Temp\ccZcK4bV.s 			page 38


 1173              		.loc 1 95 9 is_stmt 1 view .LVU464
  96:../Common/IQMath/ti/_IQNatan2.c ****     }
 1174              		.loc 1 96 9 view .LVU465
  96:../Common/IQMath/ti/_IQNatan2.c ****     }
 1175              		.loc 1 96 19 is_stmt 0 view .LVU466
 1176 00b6 4042     		rsbs	r0, r0, #0
 1177              	.LVL139:
  95:../Common/IQMath/ti/_IQNatan2.c ****         iqNInputY = -iqNInputY;
 1178              		.loc 1 95 19 view .LVU467
 1179 00b8 0124     		movs	r4, #1
 1180 00ba A6E7     		b	.L44
 1181              	.LVL140:
 1182              	.L54:
  99:../Common/IQMath/ti/_IQNatan2.c ****         iqNInputX = -iqNInputX;
 1183              		.loc 1 99 9 is_stmt 1 view .LVU468
  99:../Common/IQMath/ti/_IQNatan2.c ****         iqNInputX = -iqNInputX;
 1184              		.loc 1 99 19 is_stmt 0 view .LVU469
 1185 00bc 44F00204 		orr	r4, r4, #2
 1186              	.LVL141:
 100:../Common/IQMath/ti/_IQNatan2.c ****     }
 1187              		.loc 1 100 9 is_stmt 1 view .LVU470
 100:../Common/IQMath/ti/_IQNatan2.c ****     }
 1188              		.loc 1 100 19 is_stmt 0 view .LVU471
 1189 00c0 5B42     		rsbs	r3, r3, #0
 1190              	.LVL142:
 100:../Common/IQMath/ti/_IQNatan2.c ****     }
 1191              		.loc 1 100 19 view .LVU472
 1192 00c2 A4E7     		b	.L45
 1193              	.LVL143:
 1194              	.L46:
 118:../Common/IQMath/ti/_IQNatan2.c ****     }
 1195              		.loc 1 118 9 is_stmt 1 view .LVU473
 118:../Common/IQMath/ti/_IQNatan2.c ****     }
 1196              		.loc 1 118 22 is_stmt 0 view .LVU474
 1197 00c4 1946     		mov	r1, r3
 1198              	.LVL144:
 118:../Common/IQMath/ti/_IQNatan2.c ****     }
 1199              		.loc 1 118 22 view .LVU475
 1200 00c6 FFF7FEFF 		bl	_UIQ31div
 1201              	.LVL145:
 118:../Common/IQMath/ti/_IQNatan2.c ****     }
 1202              		.loc 1 118 22 view .LVU476
 1203 00ca A8E7     		b	.L47
 1204              	.L56:
 1205              		.align	2
 1206              	.L55:
 1207 00cc 00000000 		.word	_IQ32atan_coeffs
 1208 00d0 51ED8764 		.word	1686629713
 1209              	.LBE114:
 1210              	.LBE117:
 1211              		.cfi_endproc
 1212              	.LFE267:
 1214              		.section	.text._IQ25atan2,"ax",%progbits
 1215              		.align	1
 1216              		.global	_IQ25atan2
 1217              		.syntax unified
 1218              		.thumb
ARM GAS  C:\Users\57308\AppData\Local\Temp\ccZcK4bV.s 			page 39


 1219              		.thumb_func
 1221              	_IQ25atan2:
 1222              	.LVL146:
 1223              	.LFB268:
 367:../Common/IQMath/ti/_IQNatan2.c **** /**
 368:../Common/IQMath/ti/_IQNatan2.c ****  * @brief Compute the 4-quadrant arctangent of the IQ25 input 
 369:../Common/IQMath/ti/_IQNatan2.c ****  *        and return the result, in radians.
 370:../Common/IQMath/ti/_IQNatan2.c ****  *
 371:../Common/IQMath/ti/_IQNatan2.c ****  * @param y               IQ25 type input y.
 372:../Common/IQMath/ti/_IQNatan2.c ****  * @param x               IQ25 type input x.
 373:../Common/IQMath/ti/_IQNatan2.c ****  *
 374:../Common/IQMath/ti/_IQNatan2.c ****  * @return                IQ25 type result of 4-quadrant arctangent.
 375:../Common/IQMath/ti/_IQNatan2.c ****  */
 376:../Common/IQMath/ti/_IQNatan2.c **** int32_t _IQ25atan2(int32_t y, int32_t x)
 377:../Common/IQMath/ti/_IQNatan2.c **** {
 1224              		.loc 1 377 1 is_stmt 1 view -0
 1225              		.cfi_startproc
 1226              		@ args = 0, pretend = 0, frame = 0
 1227              		@ frame_needed = 0, uses_anonymous_args = 0
 1228              		.loc 1 377 1 is_stmt 0 view .LVU478
 1229 0000 10B5     		push	{r4, lr}
 1230              	.LCFI4:
 1231              		.cfi_def_cfa_offset 8
 1232              		.cfi_offset 4, -8
 1233              		.cfi_offset 14, -4
 1234 0002 0B46     		mov	r3, r1
 378:../Common/IQMath/ti/_IQNatan2.c ****     return __IQNatan2(y, x, TYPE_RAD, 25);
 1235              		.loc 1 378 5 is_stmt 1 view .LVU479
 1236              	.LVL147:
 1237              	.LBB128:
 1238              	.LBI128:
  71:../Common/IQMath/ti/_IQNatan2.c **** {
 1239              		.loc 1 71 30 view .LVU480
 1240              	.LBB129:
  73:../Common/IQMath/ti/_IQNatan2.c ****     uint8_t ui8Index;
 1241              		.loc 1 73 5 view .LVU481
  74:../Common/IQMath/ti/_IQNatan2.c ****     uint_fast16_t ui16IntState;
 1242              		.loc 1 74 5 view .LVU482
  75:../Common/IQMath/ti/_IQNatan2.c ****     uint_fast16_t ui16MPYState;
 1243              		.loc 1 75 5 view .LVU483
  76:../Common/IQMath/ti/_IQNatan2.c ****     uint_fast32_t uiqNInputX;
 1244              		.loc 1 76 5 view .LVU484
  77:../Common/IQMath/ti/_IQNatan2.c ****     uint_fast32_t uiqNInputY;
 1245              		.loc 1 77 5 view .LVU485
  78:../Common/IQMath/ti/_IQNatan2.c ****     uint_fast32_t uiq32ResultPU;
 1246              		.loc 1 78 5 view .LVU486
  79:../Common/IQMath/ti/_IQNatan2.c ****     int_fast32_t iqNResult;
 1247              		.loc 1 79 5 view .LVU487
  80:../Common/IQMath/ti/_IQNatan2.c ****     int_fast32_t iq29Result;
 1248              		.loc 1 80 5 view .LVU488
  81:../Common/IQMath/ti/_IQNatan2.c ****     const int_fast32_t *piq32Coeffs;
 1249              		.loc 1 81 5 view .LVU489
  82:../Common/IQMath/ti/_IQNatan2.c ****     uint_fast32_t uiq31Input;
 1250              		.loc 1 82 5 view .LVU490
  83:../Common/IQMath/ti/_IQNatan2.c ****     
 1251              		.loc 1 83 5 view .LVU491
  94:../Common/IQMath/ti/_IQNatan2.c ****         ui8Status |= 1;
ARM GAS  C:\Users\57308\AppData\Local\Temp\ccZcK4bV.s 			page 40


 1252              		.loc 1 94 5 view .LVU492
  94:../Common/IQMath/ti/_IQNatan2.c ****         ui8Status |= 1;
 1253              		.loc 1 94 8 is_stmt 0 view .LVU493
 1254 0004 0028     		cmp	r0, #0
  94:../Common/IQMath/ti/_IQNatan2.c ****         ui8Status |= 1;
 1255              		.loc 1 94 8 view .LVU494
 1256 0006 56DB     		blt	.L67
  73:../Common/IQMath/ti/_IQNatan2.c ****     uint8_t ui8Index;
 1257              		.loc 1 73 13 view .LVU495
 1258 0008 0024     		movs	r4, #0
 1259              	.LVL148:
 1260              	.L58:
  98:../Common/IQMath/ti/_IQNatan2.c ****         ui8Status |= 2;
 1261              		.loc 1 98 5 is_stmt 1 view .LVU496
  98:../Common/IQMath/ti/_IQNatan2.c ****         ui8Status |= 2;
 1262              		.loc 1 98 8 is_stmt 0 view .LVU497
 1263 000a 002B     		cmp	r3, #0
 1264 000c 56DB     		blt	.L68
 1265              	.LVL149:
 1266              	.L59:
 104:../Common/IQMath/ti/_IQNatan2.c ****     uiqNInputY = (uint_fast32_t)iqNInputY;
 1267              		.loc 1 104 5 is_stmt 1 view .LVU498
 105:../Common/IQMath/ti/_IQNatan2.c ****     
 1268              		.loc 1 105 5 view .LVU499
 113:../Common/IQMath/ti/_IQNatan2.c ****         ui8Status |= 4;
 1269              		.loc 1 113 5 view .LVU500
 113:../Common/IQMath/ti/_IQNatan2.c ****         ui8Status |= 4;
 1270              		.loc 1 113 8 is_stmt 0 view .LVU501
 1271 000e 8342     		cmp	r3, r0
 1272 0010 58D2     		bcs	.L60
 114:../Common/IQMath/ti/_IQNatan2.c ****         uiq31Input = _UIQ31div(uiqNInputX, uiqNInputY);
 1273              		.loc 1 114 9 is_stmt 1 view .LVU502
 114:../Common/IQMath/ti/_IQNatan2.c ****         uiq31Input = _UIQ31div(uiqNInputX, uiqNInputY);
 1274              		.loc 1 114 19 is_stmt 0 view .LVU503
 1275 0012 44F00404 		orr	r4, r4, #4
 1276              	.LVL150:
 115:../Common/IQMath/ti/_IQNatan2.c ****     }
 1277              		.loc 1 115 9 is_stmt 1 view .LVU504
 115:../Common/IQMath/ti/_IQNatan2.c ****     }
 1278              		.loc 1 115 22 is_stmt 0 view .LVU505
 1279 0016 0146     		mov	r1, r0
 1280              	.LVL151:
 115:../Common/IQMath/ti/_IQNatan2.c ****     }
 1281              		.loc 1 115 22 view .LVU506
 1282 0018 1846     		mov	r0, r3
 1283              	.LVL152:
 115:../Common/IQMath/ti/_IQNatan2.c ****     }
 1284              		.loc 1 115 22 view .LVU507
 1285 001a FFF7FEFF 		bl	_UIQ31div
 1286              	.LVL153:
 1287              	.L61:
 122:../Common/IQMath/ti/_IQNatan2.c ****     ui8Index = ui8Index & 0x00fc;
 1288              		.loc 1 122 5 is_stmt 1 view .LVU508
 122:../Common/IQMath/ti/_IQNatan2.c ****     ui8Index = ui8Index & 0x00fc;
 1289              		.loc 1 122 14 is_stmt 0 view .LVU509
 1290 001e 030E     		lsrs	r3, r0, #24
 1291              	.LVL154:
ARM GAS  C:\Users\57308\AppData\Local\Temp\ccZcK4bV.s 			page 41


 123:../Common/IQMath/ti/_IQNatan2.c ****     
 1292              		.loc 1 123 5 is_stmt 1 view .LVU510
 123:../Common/IQMath/ti/_IQNatan2.c ****     
 1293              		.loc 1 123 14 is_stmt 0 view .LVU511
 1294 0020 03F0FC03 		and	r3, r3, #252
 1295              	.LVL155:
 126:../Common/IQMath/ti/_IQNatan2.c ****     
 1296              		.loc 1 126 5 is_stmt 1 view .LVU512
 126:../Common/IQMath/ti/_IQNatan2.c ****     
 1297              		.loc 1 126 17 is_stmt 0 view .LVU513
 1298 0024 2949     		ldr	r1, .L69
 1299 0026 01EB8302 		add	r2, r1, r3, lsl #2
 1300              	.LVL156:
 134:../Common/IQMath/ti/_IQNatan2.c ****     
 1301              		.loc 1 134 5 is_stmt 1 view .LVU514
 134:../Common/IQMath/ti/_IQNatan2.c ****     
 1302              		.loc 1 134 5 is_stmt 0 view .LVU515
 1303              	.LBE129:
 1304              	.LBE128:
  28:../Common/IQMath/ti/./support/RTS_support.h **** }
 1305              		.loc 2 28 5 is_stmt 1 view .LVU516
 1306              	.LBB141:
 1307              	.LBB138:
 143:../Common/IQMath/ti/_IQNatan2.c ****     
 1308              		.loc 1 143 5 view .LVU517
 143:../Common/IQMath/ti/_IQNatan2.c ****     
 1309              		.loc 1 143 21 is_stmt 0 view .LVU518
 1310 002a 51F82330 		ldr	r3, [r1, r3, lsl #2]
 1311              	.LVL157:
 1312              	.LBB130:
 1313              	.LBI130:
 233:../Common/IQMath/ti/./support/RTS_support.h **** {
 1314              		.loc 2 233 28 is_stmt 1 view .LVU519
 1315              	.LBB131:
 1316              		.loc 2 235 5 view .LVU520
 1317              		.loc 2 235 28 is_stmt 0 view .LVU521
 1318 002e 4FEAE07E 		asr	lr, r0, #31
 1319              		.loc 2 235 49 view .LVU522
 1320 0032 D917     		asrs	r1, r3, #31
 1321              		.loc 2 235 47 view .LVU523
 1322 0034 00FB01F1 		mul	r1, r0, r1
 1323 0038 03FB0E11 		mla	r1, r3, lr, r1
 1324 003c A0FB033C 		umull	r3, ip, r0, r3
 1325              	.LVL158:
 1326              		.loc 2 235 47 view .LVU524
 1327 0040 6144     		add	r1, r1, ip
 1328              		.loc 2 235 69 view .LVU525
 1329 0042 DB0F     		lsrs	r3, r3, #31
 1330 0044 43EA4103 		orr	r3, r3, r1, lsl #1
 1331              	.LVL159:
 1332              		.loc 2 235 69 view .LVU526
 1333              	.LBE131:
 1334              	.LBE130:
 146:../Common/IQMath/ti/_IQNatan2.c ****     
 1335              		.loc 1 146 5 is_stmt 1 view .LVU527
 146:../Common/IQMath/ti/_IQNatan2.c ****     
 1336              		.loc 1 146 37 is_stmt 0 view .LVU528
ARM GAS  C:\Users\57308\AppData\Local\Temp\ccZcK4bV.s 			page 42


 1337 0048 5168     		ldr	r1, [r2, #4]
 146:../Common/IQMath/ti/_IQNatan2.c ****     
 1338              		.loc 1 146 19 view .LVU529
 1339 004a 0B44     		add	r3, r3, r1
 1340              	.LVL160:
 149:../Common/IQMath/ti/_IQNatan2.c ****     
 1341              		.loc 1 149 5 is_stmt 1 view .LVU530
 1342              	.LBB132:
 1343              	.LBI132:
 233:../Common/IQMath/ti/./support/RTS_support.h **** {
 1344              		.loc 2 233 28 view .LVU531
 1345              	.LBB133:
 1346              		.loc 2 235 5 view .LVU532
 1347              		.loc 2 235 49 is_stmt 0 view .LVU533
 1348 004c 4FEAE37C 		asr	ip, r3, #31
 1349              		.loc 2 235 47 view .LVU534
 1350 0050 00FB0CFC 		mul	ip, r0, ip
 1351 0054 03FB0ECC 		mla	ip, r3, lr, ip
 1352 0058 A0FB0331 		umull	r3, r1, r0, r3
 1353              	.LVL161:
 1354              		.loc 2 235 47 view .LVU535
 1355 005c 8C44     		add	ip, ip, r1
 1356              		.loc 2 235 69 view .LVU536
 1357 005e DB0F     		lsrs	r3, r3, #31
 1358 0060 43EA4C03 		orr	r3, r3, ip, lsl #1
 1359              	.LVL162:
 1360              		.loc 2 235 69 view .LVU537
 1361              	.LBE133:
 1362              	.LBE132:
 152:../Common/IQMath/ti/_IQNatan2.c ****     
 1363              		.loc 1 152 5 is_stmt 1 view .LVU538
 152:../Common/IQMath/ti/_IQNatan2.c ****     
 1364              		.loc 1 152 37 is_stmt 0 view .LVU539
 1365 0064 9168     		ldr	r1, [r2, #8]
 152:../Common/IQMath/ti/_IQNatan2.c ****     
 1366              		.loc 1 152 19 view .LVU540
 1367 0066 0B44     		add	r3, r3, r1
 1368              	.LVL163:
 155:../Common/IQMath/ti/_IQNatan2.c ****     
 1369              		.loc 1 155 5 is_stmt 1 view .LVU541
 1370              	.LBB134:
 1371              	.LBI134:
 233:../Common/IQMath/ti/./support/RTS_support.h **** {
 1372              		.loc 2 233 28 view .LVU542
 1373              	.LBB135:
 1374              		.loc 2 235 5 view .LVU543
 1375              		.loc 2 235 49 is_stmt 0 view .LVU544
 1376 0068 D917     		asrs	r1, r3, #31
 1377              		.loc 2 235 47 view .LVU545
 1378 006a 00FB01F1 		mul	r1, r0, r1
 1379 006e 03FB0E11 		mla	r1, r3, lr, r1
 1380 0072 A0FB0303 		umull	r0, r3, r0, r3
 1381              	.LVL164:
 1382              		.loc 2 235 47 view .LVU546
 1383 0076 0B44     		add	r3, r3, r1
 1384              		.loc 2 235 69 view .LVU547
 1385 0078 C00F     		lsrs	r0, r0, #31
ARM GAS  C:\Users\57308\AppData\Local\Temp\ccZcK4bV.s 			page 43


 1386 007a 40EA4300 		orr	r0, r0, r3, lsl #1
 1387              	.LVL165:
 1388              		.loc 2 235 69 view .LVU548
 1389              	.LBE135:
 1390              	.LBE134:
 158:../Common/IQMath/ti/_IQNatan2.c ****     
 1391              		.loc 1 158 5 is_stmt 1 view .LVU549
 158:../Common/IQMath/ti/_IQNatan2.c ****     
 1392              		.loc 1 158 37 is_stmt 0 view .LVU550
 1393 007e D368     		ldr	r3, [r2, #12]
 158:../Common/IQMath/ti/_IQNatan2.c ****     
 1394              		.loc 1 158 19 view .LVU551
 1395 0080 1844     		add	r0, r0, r3
 1396              	.LVL166:
 161:../Common/IQMath/ti/_IQNatan2.c ****         /* atan(y/x) = pi/2 - uiq32ResultPU */
 1397              		.loc 1 161 5 is_stmt 1 view .LVU552
 161:../Common/IQMath/ti/_IQNatan2.c ****         /* atan(y/x) = pi/2 - uiq32ResultPU */
 1398              		.loc 1 161 8 is_stmt 0 view .LVU553
 1399 0082 14F0040F 		tst	r4, #4
 1400 0086 01D0     		beq	.L62
 163:../Common/IQMath/ti/_IQNatan2.c ****     }
 1401              		.loc 1 163 9 is_stmt 1 view .LVU554
 163:../Common/IQMath/ti/_IQNatan2.c ****     }
 1402              		.loc 1 163 23 is_stmt 0 view .LVU555
 1403 0088 C0F18040 		rsb	r0, r0, #1073741824
 1404              	.LVL167:
 1405              	.L62:
 167:../Common/IQMath/ti/_IQNatan2.c ****         /* atan(y/x) = pi - uiq32ResultPU */
 1406              		.loc 1 167 5 is_stmt 1 view .LVU556
 167:../Common/IQMath/ti/_IQNatan2.c ****         /* atan(y/x) = pi - uiq32ResultPU */
 1407              		.loc 1 167 8 is_stmt 0 view .LVU557
 1408 008c 14F0020F 		tst	r4, #2
 1409 0090 01D0     		beq	.L63
 169:../Common/IQMath/ti/_IQNatan2.c ****     }
 1410              		.loc 1 169 9 is_stmt 1 view .LVU558
 169:../Common/IQMath/ti/_IQNatan2.c ****     }
 1411              		.loc 1 169 23 is_stmt 0 view .LVU559
 1412 0092 C0F10040 		rsb	r0, r0, #-2147483648
 1413              	.LVL168:
 1414              	.L63:
 173:../Common/IQMath/ti/_IQNatan2.c ****         uiq32ResultPU += (uint_fast32_t)1 << (31 - q_value);
 1415              		.loc 1 173 5 is_stmt 1 view .LVU560
 183:../Common/IQMath/ti/_IQNatan2.c ****         
 1416              		.loc 1 183 9 view .LVU561
 1417              	.LBB136:
 1418              	.LBI136:
 233:../Common/IQMath/ti/./support/RTS_support.h **** {
 1419              		.loc 2 233 28 view .LVU562
 1420              	.LBB137:
 1421              		.loc 2 235 5 view .LVU563
 1422              		.loc 2 235 28 is_stmt 0 view .LVU564
 1423 0096 C117     		asrs	r1, r0, #31
 1424              		.loc 2 235 47 view .LVU565
 1425 0098 0D4A     		ldr	r2, .L69+4
 1426              	.LVL169:
 1427              		.loc 2 235 47 view .LVU566
 1428 009a A0FB0203 		umull	r0, r3, r0, r2
ARM GAS  C:\Users\57308\AppData\Local\Temp\ccZcK4bV.s 			page 44


 1429              	.LVL170:
 1430              		.loc 2 235 47 view .LVU567
 1431 009e 02FB0133 		mla	r3, r2, r1, r3
 1432              		.loc 2 235 69 view .LVU568
 1433 00a2 C00F     		lsrs	r0, r0, #31
 1434 00a4 40EA4300 		orr	r0, r0, r3, lsl #1
 1435              	.LVL171:
 1436              		.loc 2 235 69 view .LVU569
 1437              	.LBE137:
 1438              	.LBE136:
 186:../Common/IQMath/ti/_IQNatan2.c ****             iq29Result += (uint_fast32_t)1 << (28 - q_value);
 1439              		.loc 1 186 9 is_stmt 1 view .LVU570
 187:../Common/IQMath/ti/_IQNatan2.c ****         }
 1440              		.loc 1 187 13 view .LVU571
 187:../Common/IQMath/ti/_IQNatan2.c ****         }
 1441              		.loc 1 187 24 is_stmt 0 view .LVU572
 1442 00a8 0830     		adds	r0, r0, #8
 1443              	.LVL172:
 189:../Common/IQMath/ti/_IQNatan2.c ****     }
 1444              		.loc 1 189 9 is_stmt 1 view .LVU573
 189:../Common/IQMath/ti/_IQNatan2.c ****     }
 1445              		.loc 1 189 19 is_stmt 0 view .LVU574
 1446 00aa 0011     		asrs	r0, r0, #4
 1447              	.LVL173:
 196:../Common/IQMath/ti/_IQNatan2.c ****     
 1448              		.loc 1 196 5 is_stmt 1 view .LVU575
 196:../Common/IQMath/ti/_IQNatan2.c ****     
 1449              		.loc 1 196 5 is_stmt 0 view .LVU576
 1450              	.LBE138:
 1451              	.LBE141:
  72:../Common/IQMath/ti/./support/RTS_support.h **** }
 1452              		.loc 2 72 5 is_stmt 1 view .LVU577
 1453              	.LBB142:
 1454              	.LBB139:
 199:../Common/IQMath/ti/_IQNatan2.c ****         return -iqNResult;
 1455              		.loc 1 199 5 view .LVU578
 199:../Common/IQMath/ti/_IQNatan2.c ****         return -iqNResult;
 1456              		.loc 1 199 8 is_stmt 0 view .LVU579
 1457 00ac 14F0010F 		tst	r4, #1
 1458 00b0 00D0     		beq	.L57
 200:../Common/IQMath/ti/_IQNatan2.c ****     }
 1459              		.loc 1 200 9 is_stmt 1 view .LVU580
 200:../Common/IQMath/ti/_IQNatan2.c ****     }
 1460              		.loc 1 200 16 is_stmt 0 view .LVU581
 1461 00b2 4042     		rsbs	r0, r0, #0
 1462              	.LVL174:
 1463              	.L57:
 200:../Common/IQMath/ti/_IQNatan2.c ****     }
 1464              		.loc 1 200 16 view .LVU582
 1465              	.LBE139:
 1466              	.LBE142:
 379:../Common/IQMath/ti/_IQNatan2.c **** }
 1467              		.loc 1 379 1 view .LVU583
 1468 00b4 10BD     		pop	{r4, pc}
 1469              	.LVL175:
 1470              	.L67:
 1471              	.LBB143:
ARM GAS  C:\Users\57308\AppData\Local\Temp\ccZcK4bV.s 			page 45


 1472              	.LBB140:
  95:../Common/IQMath/ti/_IQNatan2.c ****         iqNInputY = -iqNInputY;
 1473              		.loc 1 95 9 is_stmt 1 view .LVU584
  96:../Common/IQMath/ti/_IQNatan2.c ****     }
 1474              		.loc 1 96 9 view .LVU585
  96:../Common/IQMath/ti/_IQNatan2.c ****     }
 1475              		.loc 1 96 19 is_stmt 0 view .LVU586
 1476 00b6 4042     		rsbs	r0, r0, #0
 1477              	.LVL176:
  95:../Common/IQMath/ti/_IQNatan2.c ****         iqNInputY = -iqNInputY;
 1478              		.loc 1 95 19 view .LVU587
 1479 00b8 0124     		movs	r4, #1
 1480 00ba A6E7     		b	.L58
 1481              	.LVL177:
 1482              	.L68:
  99:../Common/IQMath/ti/_IQNatan2.c ****         iqNInputX = -iqNInputX;
 1483              		.loc 1 99 9 is_stmt 1 view .LVU588
  99:../Common/IQMath/ti/_IQNatan2.c ****         iqNInputX = -iqNInputX;
 1484              		.loc 1 99 19 is_stmt 0 view .LVU589
 1485 00bc 44F00204 		orr	r4, r4, #2
 1486              	.LVL178:
 100:../Common/IQMath/ti/_IQNatan2.c ****     }
 1487              		.loc 1 100 9 is_stmt 1 view .LVU590
 100:../Common/IQMath/ti/_IQNatan2.c ****     }
 1488              		.loc 1 100 19 is_stmt 0 view .LVU591
 1489 00c0 5B42     		rsbs	r3, r3, #0
 1490              	.LVL179:
 100:../Common/IQMath/ti/_IQNatan2.c ****     }
 1491              		.loc 1 100 19 view .LVU592
 1492 00c2 A4E7     		b	.L59
 1493              	.LVL180:
 1494              	.L60:
 118:../Common/IQMath/ti/_IQNatan2.c ****     }
 1495              		.loc 1 118 9 is_stmt 1 view .LVU593
 118:../Common/IQMath/ti/_IQNatan2.c ****     }
 1496              		.loc 1 118 22 is_stmt 0 view .LVU594
 1497 00c4 1946     		mov	r1, r3
 1498              	.LVL181:
 118:../Common/IQMath/ti/_IQNatan2.c ****     }
 1499              		.loc 1 118 22 view .LVU595
 1500 00c6 FFF7FEFF 		bl	_UIQ31div
 1501              	.LVL182:
 118:../Common/IQMath/ti/_IQNatan2.c ****     }
 1502              		.loc 1 118 22 view .LVU596
 1503 00ca A8E7     		b	.L61
 1504              	.L70:
 1505              		.align	2
 1506              	.L69:
 1507 00cc 00000000 		.word	_IQ32atan_coeffs
 1508 00d0 51ED8764 		.word	1686629713
 1509              	.LBE140:
 1510              	.LBE143:
 1511              		.cfi_endproc
 1512              	.LFE268:
 1514              		.section	.text._IQ24atan2,"ax",%progbits
 1515              		.align	1
 1516              		.global	_IQ24atan2
ARM GAS  C:\Users\57308\AppData\Local\Temp\ccZcK4bV.s 			page 46


 1517              		.syntax unified
 1518              		.thumb
 1519              		.thumb_func
 1521              	_IQ24atan2:
 1522              	.LVL183:
 1523              	.LFB269:
 380:../Common/IQMath/ti/_IQNatan2.c **** /**
 381:../Common/IQMath/ti/_IQNatan2.c ****  * @brief Compute the 4-quadrant arctangent of the IQ24 input 
 382:../Common/IQMath/ti/_IQNatan2.c ****  *        and return the result, in radians.
 383:../Common/IQMath/ti/_IQNatan2.c ****  *
 384:../Common/IQMath/ti/_IQNatan2.c ****  * @param y               IQ24 type input y.
 385:../Common/IQMath/ti/_IQNatan2.c ****  * @param x               IQ24 type input x.
 386:../Common/IQMath/ti/_IQNatan2.c ****  *
 387:../Common/IQMath/ti/_IQNatan2.c ****  * @return                IQ24 type result of 4-quadrant arctangent.
 388:../Common/IQMath/ti/_IQNatan2.c ****  */
 389:../Common/IQMath/ti/_IQNatan2.c **** int32_t _IQ24atan2(int32_t y, int32_t x)
 390:../Common/IQMath/ti/_IQNatan2.c **** {
 1524              		.loc 1 390 1 is_stmt 1 view -0
 1525              		.cfi_startproc
 1526              		@ args = 0, pretend = 0, frame = 0
 1527              		@ frame_needed = 0, uses_anonymous_args = 0
 1528              		.loc 1 390 1 is_stmt 0 view .LVU598
 1529 0000 10B5     		push	{r4, lr}
 1530              	.LCFI5:
 1531              		.cfi_def_cfa_offset 8
 1532              		.cfi_offset 4, -8
 1533              		.cfi_offset 14, -4
 1534 0002 0B46     		mov	r3, r1
 391:../Common/IQMath/ti/_IQNatan2.c ****     return __IQNatan2(y, x, TYPE_RAD, 24);
 1535              		.loc 1 391 5 is_stmt 1 view .LVU599
 1536              	.LVL184:
 1537              	.LBB154:
 1538              	.LBI154:
  71:../Common/IQMath/ti/_IQNatan2.c **** {
 1539              		.loc 1 71 30 view .LVU600
 1540              	.LBB155:
  73:../Common/IQMath/ti/_IQNatan2.c ****     uint8_t ui8Index;
 1541              		.loc 1 73 5 view .LVU601
  74:../Common/IQMath/ti/_IQNatan2.c ****     uint_fast16_t ui16IntState;
 1542              		.loc 1 74 5 view .LVU602
  75:../Common/IQMath/ti/_IQNatan2.c ****     uint_fast16_t ui16MPYState;
 1543              		.loc 1 75 5 view .LVU603
  76:../Common/IQMath/ti/_IQNatan2.c ****     uint_fast32_t uiqNInputX;
 1544              		.loc 1 76 5 view .LVU604
  77:../Common/IQMath/ti/_IQNatan2.c ****     uint_fast32_t uiqNInputY;
 1545              		.loc 1 77 5 view .LVU605
  78:../Common/IQMath/ti/_IQNatan2.c ****     uint_fast32_t uiq32ResultPU;
 1546              		.loc 1 78 5 view .LVU606
  79:../Common/IQMath/ti/_IQNatan2.c ****     int_fast32_t iqNResult;
 1547              		.loc 1 79 5 view .LVU607
  80:../Common/IQMath/ti/_IQNatan2.c ****     int_fast32_t iq29Result;
 1548              		.loc 1 80 5 view .LVU608
  81:../Common/IQMath/ti/_IQNatan2.c ****     const int_fast32_t *piq32Coeffs;
 1549              		.loc 1 81 5 view .LVU609
  82:../Common/IQMath/ti/_IQNatan2.c ****     uint_fast32_t uiq31Input;
 1550              		.loc 1 82 5 view .LVU610
  83:../Common/IQMath/ti/_IQNatan2.c ****     
ARM GAS  C:\Users\57308\AppData\Local\Temp\ccZcK4bV.s 			page 47


 1551              		.loc 1 83 5 view .LVU611
  94:../Common/IQMath/ti/_IQNatan2.c ****         ui8Status |= 1;
 1552              		.loc 1 94 5 view .LVU612
  94:../Common/IQMath/ti/_IQNatan2.c ****         ui8Status |= 1;
 1553              		.loc 1 94 8 is_stmt 0 view .LVU613
 1554 0004 0028     		cmp	r0, #0
  94:../Common/IQMath/ti/_IQNatan2.c ****         ui8Status |= 1;
 1555              		.loc 1 94 8 view .LVU614
 1556 0006 56DB     		blt	.L81
  73:../Common/IQMath/ti/_IQNatan2.c ****     uint8_t ui8Index;
 1557              		.loc 1 73 13 view .LVU615
 1558 0008 0024     		movs	r4, #0
 1559              	.LVL185:
 1560              	.L72:
  98:../Common/IQMath/ti/_IQNatan2.c ****         ui8Status |= 2;
 1561              		.loc 1 98 5 is_stmt 1 view .LVU616
  98:../Common/IQMath/ti/_IQNatan2.c ****         ui8Status |= 2;
 1562              		.loc 1 98 8 is_stmt 0 view .LVU617
 1563 000a 002B     		cmp	r3, #0
 1564 000c 56DB     		blt	.L82
 1565              	.LVL186:
 1566              	.L73:
 104:../Common/IQMath/ti/_IQNatan2.c ****     uiqNInputY = (uint_fast32_t)iqNInputY;
 1567              		.loc 1 104 5 is_stmt 1 view .LVU618
 105:../Common/IQMath/ti/_IQNatan2.c ****     
 1568              		.loc 1 105 5 view .LVU619
 113:../Common/IQMath/ti/_IQNatan2.c ****         ui8Status |= 4;
 1569              		.loc 1 113 5 view .LVU620
 113:../Common/IQMath/ti/_IQNatan2.c ****         ui8Status |= 4;
 1570              		.loc 1 113 8 is_stmt 0 view .LVU621
 1571 000e 8342     		cmp	r3, r0
 1572 0010 58D2     		bcs	.L74
 114:../Common/IQMath/ti/_IQNatan2.c ****         uiq31Input = _UIQ31div(uiqNInputX, uiqNInputY);
 1573              		.loc 1 114 9 is_stmt 1 view .LVU622
 114:../Common/IQMath/ti/_IQNatan2.c ****         uiq31Input = _UIQ31div(uiqNInputX, uiqNInputY);
 1574              		.loc 1 114 19 is_stmt 0 view .LVU623
 1575 0012 44F00404 		orr	r4, r4, #4
 1576              	.LVL187:
 115:../Common/IQMath/ti/_IQNatan2.c ****     }
 1577              		.loc 1 115 9 is_stmt 1 view .LVU624
 115:../Common/IQMath/ti/_IQNatan2.c ****     }
 1578              		.loc 1 115 22 is_stmt 0 view .LVU625
 1579 0016 0146     		mov	r1, r0
 1580              	.LVL188:
 115:../Common/IQMath/ti/_IQNatan2.c ****     }
 1581              		.loc 1 115 22 view .LVU626
 1582 0018 1846     		mov	r0, r3
 1583              	.LVL189:
 115:../Common/IQMath/ti/_IQNatan2.c ****     }
 1584              		.loc 1 115 22 view .LVU627
 1585 001a FFF7FEFF 		bl	_UIQ31div
 1586              	.LVL190:
 1587              	.L75:
 122:../Common/IQMath/ti/_IQNatan2.c ****     ui8Index = ui8Index & 0x00fc;
 1588              		.loc 1 122 5 is_stmt 1 view .LVU628
 122:../Common/IQMath/ti/_IQNatan2.c ****     ui8Index = ui8Index & 0x00fc;
 1589              		.loc 1 122 14 is_stmt 0 view .LVU629
ARM GAS  C:\Users\57308\AppData\Local\Temp\ccZcK4bV.s 			page 48


 1590 001e 030E     		lsrs	r3, r0, #24
 1591              	.LVL191:
 123:../Common/IQMath/ti/_IQNatan2.c ****     
 1592              		.loc 1 123 5 is_stmt 1 view .LVU630
 123:../Common/IQMath/ti/_IQNatan2.c ****     
 1593              		.loc 1 123 14 is_stmt 0 view .LVU631
 1594 0020 03F0FC03 		and	r3, r3, #252
 1595              	.LVL192:
 126:../Common/IQMath/ti/_IQNatan2.c ****     
 1596              		.loc 1 126 5 is_stmt 1 view .LVU632
 126:../Common/IQMath/ti/_IQNatan2.c ****     
 1597              		.loc 1 126 17 is_stmt 0 view .LVU633
 1598 0024 2949     		ldr	r1, .L83
 1599 0026 01EB8302 		add	r2, r1, r3, lsl #2
 1600              	.LVL193:
 134:../Common/IQMath/ti/_IQNatan2.c ****     
 1601              		.loc 1 134 5 is_stmt 1 view .LVU634
 134:../Common/IQMath/ti/_IQNatan2.c ****     
 1602              		.loc 1 134 5 is_stmt 0 view .LVU635
 1603              	.LBE155:
 1604              	.LBE154:
  28:../Common/IQMath/ti/./support/RTS_support.h **** }
 1605              		.loc 2 28 5 is_stmt 1 view .LVU636
 1606              	.LBB167:
 1607              	.LBB164:
 143:../Common/IQMath/ti/_IQNatan2.c ****     
 1608              		.loc 1 143 5 view .LVU637
 143:../Common/IQMath/ti/_IQNatan2.c ****     
 1609              		.loc 1 143 21 is_stmt 0 view .LVU638
 1610 002a 51F82330 		ldr	r3, [r1, r3, lsl #2]
 1611              	.LVL194:
 1612              	.LBB156:
 1613              	.LBI156:
 233:../Common/IQMath/ti/./support/RTS_support.h **** {
 1614              		.loc 2 233 28 is_stmt 1 view .LVU639
 1615              	.LBB157:
 1616              		.loc 2 235 5 view .LVU640
 1617              		.loc 2 235 28 is_stmt 0 view .LVU641
 1618 002e 4FEAE07E 		asr	lr, r0, #31
 1619              		.loc 2 235 49 view .LVU642
 1620 0032 D917     		asrs	r1, r3, #31
 1621              		.loc 2 235 47 view .LVU643
 1622 0034 00FB01F1 		mul	r1, r0, r1
 1623 0038 03FB0E11 		mla	r1, r3, lr, r1
 1624 003c A0FB033C 		umull	r3, ip, r0, r3
 1625              	.LVL195:
 1626              		.loc 2 235 47 view .LVU644
 1627 0040 6144     		add	r1, r1, ip
 1628              		.loc 2 235 69 view .LVU645
 1629 0042 DB0F     		lsrs	r3, r3, #31
 1630 0044 43EA4103 		orr	r3, r3, r1, lsl #1
 1631              	.LVL196:
 1632              		.loc 2 235 69 view .LVU646
 1633              	.LBE157:
 1634              	.LBE156:
 146:../Common/IQMath/ti/_IQNatan2.c ****     
 1635              		.loc 1 146 5 is_stmt 1 view .LVU647
ARM GAS  C:\Users\57308\AppData\Local\Temp\ccZcK4bV.s 			page 49


 146:../Common/IQMath/ti/_IQNatan2.c ****     
 1636              		.loc 1 146 37 is_stmt 0 view .LVU648
 1637 0048 5168     		ldr	r1, [r2, #4]
 146:../Common/IQMath/ti/_IQNatan2.c ****     
 1638              		.loc 1 146 19 view .LVU649
 1639 004a 0B44     		add	r3, r3, r1
 1640              	.LVL197:
 149:../Common/IQMath/ti/_IQNatan2.c ****     
 1641              		.loc 1 149 5 is_stmt 1 view .LVU650
 1642              	.LBB158:
 1643              	.LBI158:
 233:../Common/IQMath/ti/./support/RTS_support.h **** {
 1644              		.loc 2 233 28 view .LVU651
 1645              	.LBB159:
 1646              		.loc 2 235 5 view .LVU652
 1647              		.loc 2 235 49 is_stmt 0 view .LVU653
 1648 004c 4FEAE37C 		asr	ip, r3, #31
 1649              		.loc 2 235 47 view .LVU654
 1650 0050 00FB0CFC 		mul	ip, r0, ip
 1651 0054 03FB0ECC 		mla	ip, r3, lr, ip
 1652 0058 A0FB0331 		umull	r3, r1, r0, r3
 1653              	.LVL198:
 1654              		.loc 2 235 47 view .LVU655
 1655 005c 8C44     		add	ip, ip, r1
 1656              		.loc 2 235 69 view .LVU656
 1657 005e DB0F     		lsrs	r3, r3, #31
 1658 0060 43EA4C03 		orr	r3, r3, ip, lsl #1
 1659              	.LVL199:
 1660              		.loc 2 235 69 view .LVU657
 1661              	.LBE159:
 1662              	.LBE158:
 152:../Common/IQMath/ti/_IQNatan2.c ****     
 1663              		.loc 1 152 5 is_stmt 1 view .LVU658
 152:../Common/IQMath/ti/_IQNatan2.c ****     
 1664              		.loc 1 152 37 is_stmt 0 view .LVU659
 1665 0064 9168     		ldr	r1, [r2, #8]
 152:../Common/IQMath/ti/_IQNatan2.c ****     
 1666              		.loc 1 152 19 view .LVU660
 1667 0066 0B44     		add	r3, r3, r1
 1668              	.LVL200:
 155:../Common/IQMath/ti/_IQNatan2.c ****     
 1669              		.loc 1 155 5 is_stmt 1 view .LVU661
 1670              	.LBB160:
 1671              	.LBI160:
 233:../Common/IQMath/ti/./support/RTS_support.h **** {
 1672              		.loc 2 233 28 view .LVU662
 1673              	.LBB161:
 1674              		.loc 2 235 5 view .LVU663
 1675              		.loc 2 235 49 is_stmt 0 view .LVU664
 1676 0068 D917     		asrs	r1, r3, #31
 1677              		.loc 2 235 47 view .LVU665
 1678 006a 00FB01F1 		mul	r1, r0, r1
 1679 006e 03FB0E11 		mla	r1, r3, lr, r1
 1680 0072 A0FB0303 		umull	r0, r3, r0, r3
 1681              	.LVL201:
 1682              		.loc 2 235 47 view .LVU666
 1683 0076 0B44     		add	r3, r3, r1
ARM GAS  C:\Users\57308\AppData\Local\Temp\ccZcK4bV.s 			page 50


 1684              		.loc 2 235 69 view .LVU667
 1685 0078 C00F     		lsrs	r0, r0, #31
 1686 007a 40EA4300 		orr	r0, r0, r3, lsl #1
 1687              	.LVL202:
 1688              		.loc 2 235 69 view .LVU668
 1689              	.LBE161:
 1690              	.LBE160:
 158:../Common/IQMath/ti/_IQNatan2.c ****     
 1691              		.loc 1 158 5 is_stmt 1 view .LVU669
 158:../Common/IQMath/ti/_IQNatan2.c ****     
 1692              		.loc 1 158 37 is_stmt 0 view .LVU670
 1693 007e D368     		ldr	r3, [r2, #12]
 158:../Common/IQMath/ti/_IQNatan2.c ****     
 1694              		.loc 1 158 19 view .LVU671
 1695 0080 1844     		add	r0, r0, r3
 1696              	.LVL203:
 161:../Common/IQMath/ti/_IQNatan2.c ****         /* atan(y/x) = pi/2 - uiq32ResultPU */
 1697              		.loc 1 161 5 is_stmt 1 view .LVU672
 161:../Common/IQMath/ti/_IQNatan2.c ****         /* atan(y/x) = pi/2 - uiq32ResultPU */
 1698              		.loc 1 161 8 is_stmt 0 view .LVU673
 1699 0082 14F0040F 		tst	r4, #4
 1700 0086 01D0     		beq	.L76
 163:../Common/IQMath/ti/_IQNatan2.c ****     }
 1701              		.loc 1 163 9 is_stmt 1 view .LVU674
 163:../Common/IQMath/ti/_IQNatan2.c ****     }
 1702              		.loc 1 163 23 is_stmt 0 view .LVU675
 1703 0088 C0F18040 		rsb	r0, r0, #1073741824
 1704              	.LVL204:
 1705              	.L76:
 167:../Common/IQMath/ti/_IQNatan2.c ****         /* atan(y/x) = pi - uiq32ResultPU */
 1706              		.loc 1 167 5 is_stmt 1 view .LVU676
 167:../Common/IQMath/ti/_IQNatan2.c ****         /* atan(y/x) = pi - uiq32ResultPU */
 1707              		.loc 1 167 8 is_stmt 0 view .LVU677
 1708 008c 14F0020F 		tst	r4, #2
 1709 0090 01D0     		beq	.L77
 169:../Common/IQMath/ti/_IQNatan2.c ****     }
 1710              		.loc 1 169 9 is_stmt 1 view .LVU678
 169:../Common/IQMath/ti/_IQNatan2.c ****     }
 1711              		.loc 1 169 23 is_stmt 0 view .LVU679
 1712 0092 C0F10040 		rsb	r0, r0, #-2147483648
 1713              	.LVL205:
 1714              	.L77:
 173:../Common/IQMath/ti/_IQNatan2.c ****         uiq32ResultPU += (uint_fast32_t)1 << (31 - q_value);
 1715              		.loc 1 173 5 is_stmt 1 view .LVU680
 183:../Common/IQMath/ti/_IQNatan2.c ****         
 1716              		.loc 1 183 9 view .LVU681
 1717              	.LBB162:
 1718              	.LBI162:
 233:../Common/IQMath/ti/./support/RTS_support.h **** {
 1719              		.loc 2 233 28 view .LVU682
 1720              	.LBB163:
 1721              		.loc 2 235 5 view .LVU683
 1722              		.loc 2 235 28 is_stmt 0 view .LVU684
 1723 0096 C117     		asrs	r1, r0, #31
 1724              		.loc 2 235 47 view .LVU685
 1725 0098 0D4A     		ldr	r2, .L83+4
 1726              	.LVL206:
ARM GAS  C:\Users\57308\AppData\Local\Temp\ccZcK4bV.s 			page 51


 1727              		.loc 2 235 47 view .LVU686
 1728 009a A0FB0203 		umull	r0, r3, r0, r2
 1729              	.LVL207:
 1730              		.loc 2 235 47 view .LVU687
 1731 009e 02FB0133 		mla	r3, r2, r1, r3
 1732              		.loc 2 235 69 view .LVU688
 1733 00a2 C00F     		lsrs	r0, r0, #31
 1734 00a4 40EA4300 		orr	r0, r0, r3, lsl #1
 1735              	.LVL208:
 1736              		.loc 2 235 69 view .LVU689
 1737              	.LBE163:
 1738              	.LBE162:
 186:../Common/IQMath/ti/_IQNatan2.c ****             iq29Result += (uint_fast32_t)1 << (28 - q_value);
 1739              		.loc 1 186 9 is_stmt 1 view .LVU690
 187:../Common/IQMath/ti/_IQNatan2.c ****         }
 1740              		.loc 1 187 13 view .LVU691
 187:../Common/IQMath/ti/_IQNatan2.c ****         }
 1741              		.loc 1 187 24 is_stmt 0 view .LVU692
 1742 00a8 1030     		adds	r0, r0, #16
 1743              	.LVL209:
 189:../Common/IQMath/ti/_IQNatan2.c ****     }
 1744              		.loc 1 189 9 is_stmt 1 view .LVU693
 189:../Common/IQMath/ti/_IQNatan2.c ****     }
 1745              		.loc 1 189 19 is_stmt 0 view .LVU694
 1746 00aa 4011     		asrs	r0, r0, #5
 1747              	.LVL210:
 196:../Common/IQMath/ti/_IQNatan2.c ****     
 1748              		.loc 1 196 5 is_stmt 1 view .LVU695
 196:../Common/IQMath/ti/_IQNatan2.c ****     
 1749              		.loc 1 196 5 is_stmt 0 view .LVU696
 1750              	.LBE164:
 1751              	.LBE167:
  72:../Common/IQMath/ti/./support/RTS_support.h **** }
 1752              		.loc 2 72 5 is_stmt 1 view .LVU697
 1753              	.LBB168:
 1754              	.LBB165:
 199:../Common/IQMath/ti/_IQNatan2.c ****         return -iqNResult;
 1755              		.loc 1 199 5 view .LVU698
 199:../Common/IQMath/ti/_IQNatan2.c ****         return -iqNResult;
 1756              		.loc 1 199 8 is_stmt 0 view .LVU699
 1757 00ac 14F0010F 		tst	r4, #1
 1758 00b0 00D0     		beq	.L71
 200:../Common/IQMath/ti/_IQNatan2.c ****     }
 1759              		.loc 1 200 9 is_stmt 1 view .LVU700
 200:../Common/IQMath/ti/_IQNatan2.c ****     }
 1760              		.loc 1 200 16 is_stmt 0 view .LVU701
 1761 00b2 4042     		rsbs	r0, r0, #0
 1762              	.LVL211:
 1763              	.L71:
 200:../Common/IQMath/ti/_IQNatan2.c ****     }
 1764              		.loc 1 200 16 view .LVU702
 1765              	.LBE165:
 1766              	.LBE168:
 392:../Common/IQMath/ti/_IQNatan2.c **** }
 1767              		.loc 1 392 1 view .LVU703
 1768 00b4 10BD     		pop	{r4, pc}
 1769              	.LVL212:
ARM GAS  C:\Users\57308\AppData\Local\Temp\ccZcK4bV.s 			page 52


 1770              	.L81:
 1771              	.LBB169:
 1772              	.LBB166:
  95:../Common/IQMath/ti/_IQNatan2.c ****         iqNInputY = -iqNInputY;
 1773              		.loc 1 95 9 is_stmt 1 view .LVU704
  96:../Common/IQMath/ti/_IQNatan2.c ****     }
 1774              		.loc 1 96 9 view .LVU705
  96:../Common/IQMath/ti/_IQNatan2.c ****     }
 1775              		.loc 1 96 19 is_stmt 0 view .LVU706
 1776 00b6 4042     		rsbs	r0, r0, #0
 1777              	.LVL213:
  95:../Common/IQMath/ti/_IQNatan2.c ****         iqNInputY = -iqNInputY;
 1778              		.loc 1 95 19 view .LVU707
 1779 00b8 0124     		movs	r4, #1
 1780 00ba A6E7     		b	.L72
 1781              	.LVL214:
 1782              	.L82:
  99:../Common/IQMath/ti/_IQNatan2.c ****         iqNInputX = -iqNInputX;
 1783              		.loc 1 99 9 is_stmt 1 view .LVU708
  99:../Common/IQMath/ti/_IQNatan2.c ****         iqNInputX = -iqNInputX;
 1784              		.loc 1 99 19 is_stmt 0 view .LVU709
 1785 00bc 44F00204 		orr	r4, r4, #2
 1786              	.LVL215:
 100:../Common/IQMath/ti/_IQNatan2.c ****     }
 1787              		.loc 1 100 9 is_stmt 1 view .LVU710
 100:../Common/IQMath/ti/_IQNatan2.c ****     }
 1788              		.loc 1 100 19 is_stmt 0 view .LVU711
 1789 00c0 5B42     		rsbs	r3, r3, #0
 1790              	.LVL216:
 100:../Common/IQMath/ti/_IQNatan2.c ****     }
 1791              		.loc 1 100 19 view .LVU712
 1792 00c2 A4E7     		b	.L73
 1793              	.LVL217:
 1794              	.L74:
 118:../Common/IQMath/ti/_IQNatan2.c ****     }
 1795              		.loc 1 118 9 is_stmt 1 view .LVU713
 118:../Common/IQMath/ti/_IQNatan2.c ****     }
 1796              		.loc 1 118 22 is_stmt 0 view .LVU714
 1797 00c4 1946     		mov	r1, r3
 1798              	.LVL218:
 118:../Common/IQMath/ti/_IQNatan2.c ****     }
 1799              		.loc 1 118 22 view .LVU715
 1800 00c6 FFF7FEFF 		bl	_UIQ31div
 1801              	.LVL219:
 118:../Common/IQMath/ti/_IQNatan2.c ****     }
 1802              		.loc 1 118 22 view .LVU716
 1803 00ca A8E7     		b	.L75
 1804              	.L84:
 1805              		.align	2
 1806              	.L83:
 1807 00cc 00000000 		.word	_IQ32atan_coeffs
 1808 00d0 51ED8764 		.word	1686629713
 1809              	.LBE166:
 1810              	.LBE169:
 1811              		.cfi_endproc
 1812              	.LFE269:
 1814              		.section	.text._IQ23atan2,"ax",%progbits
ARM GAS  C:\Users\57308\AppData\Local\Temp\ccZcK4bV.s 			page 53


 1815              		.align	1
 1816              		.global	_IQ23atan2
 1817              		.syntax unified
 1818              		.thumb
 1819              		.thumb_func
 1821              	_IQ23atan2:
 1822              	.LVL220:
 1823              	.LFB270:
 393:../Common/IQMath/ti/_IQNatan2.c **** /**
 394:../Common/IQMath/ti/_IQNatan2.c ****  * @brief Compute the 4-quadrant arctangent of the IQ23 input 
 395:../Common/IQMath/ti/_IQNatan2.c ****  *        and return the result, in radians.
 396:../Common/IQMath/ti/_IQNatan2.c ****  *
 397:../Common/IQMath/ti/_IQNatan2.c ****  * @param y               IQ23 type input y.
 398:../Common/IQMath/ti/_IQNatan2.c ****  * @param x               IQ23 type input x.
 399:../Common/IQMath/ti/_IQNatan2.c ****  *
 400:../Common/IQMath/ti/_IQNatan2.c ****  * @return                IQ23 type result of 4-quadrant arctangent.
 401:../Common/IQMath/ti/_IQNatan2.c ****  */
 402:../Common/IQMath/ti/_IQNatan2.c **** int32_t _IQ23atan2(int32_t y, int32_t x)
 403:../Common/IQMath/ti/_IQNatan2.c **** {
 1824              		.loc 1 403 1 is_stmt 1 view -0
 1825              		.cfi_startproc
 1826              		@ args = 0, pretend = 0, frame = 0
 1827              		@ frame_needed = 0, uses_anonymous_args = 0
 1828              		.loc 1 403 1 is_stmt 0 view .LVU718
 1829 0000 10B5     		push	{r4, lr}
 1830              	.LCFI6:
 1831              		.cfi_def_cfa_offset 8
 1832              		.cfi_offset 4, -8
 1833              		.cfi_offset 14, -4
 1834 0002 0B46     		mov	r3, r1
 404:../Common/IQMath/ti/_IQNatan2.c ****     return __IQNatan2(y, x, TYPE_RAD, 23);
 1835              		.loc 1 404 5 is_stmt 1 view .LVU719
 1836              	.LVL221:
 1837              	.LBB180:
 1838              	.LBI180:
  71:../Common/IQMath/ti/_IQNatan2.c **** {
 1839              		.loc 1 71 30 view .LVU720
 1840              	.LBB181:
  73:../Common/IQMath/ti/_IQNatan2.c ****     uint8_t ui8Index;
 1841              		.loc 1 73 5 view .LVU721
  74:../Common/IQMath/ti/_IQNatan2.c ****     uint_fast16_t ui16IntState;
 1842              		.loc 1 74 5 view .LVU722
  75:../Common/IQMath/ti/_IQNatan2.c ****     uint_fast16_t ui16MPYState;
 1843              		.loc 1 75 5 view .LVU723
  76:../Common/IQMath/ti/_IQNatan2.c ****     uint_fast32_t uiqNInputX;
 1844              		.loc 1 76 5 view .LVU724
  77:../Common/IQMath/ti/_IQNatan2.c ****     uint_fast32_t uiqNInputY;
 1845              		.loc 1 77 5 view .LVU725
  78:../Common/IQMath/ti/_IQNatan2.c ****     uint_fast32_t uiq32ResultPU;
 1846              		.loc 1 78 5 view .LVU726
  79:../Common/IQMath/ti/_IQNatan2.c ****     int_fast32_t iqNResult;
 1847              		.loc 1 79 5 view .LVU727
  80:../Common/IQMath/ti/_IQNatan2.c ****     int_fast32_t iq29Result;
 1848              		.loc 1 80 5 view .LVU728
  81:../Common/IQMath/ti/_IQNatan2.c ****     const int_fast32_t *piq32Coeffs;
 1849              		.loc 1 81 5 view .LVU729
  82:../Common/IQMath/ti/_IQNatan2.c ****     uint_fast32_t uiq31Input;
ARM GAS  C:\Users\57308\AppData\Local\Temp\ccZcK4bV.s 			page 54


 1850              		.loc 1 82 5 view .LVU730
  83:../Common/IQMath/ti/_IQNatan2.c ****     
 1851              		.loc 1 83 5 view .LVU731
  94:../Common/IQMath/ti/_IQNatan2.c ****         ui8Status |= 1;
 1852              		.loc 1 94 5 view .LVU732
  94:../Common/IQMath/ti/_IQNatan2.c ****         ui8Status |= 1;
 1853              		.loc 1 94 8 is_stmt 0 view .LVU733
 1854 0004 0028     		cmp	r0, #0
  94:../Common/IQMath/ti/_IQNatan2.c ****         ui8Status |= 1;
 1855              		.loc 1 94 8 view .LVU734
 1856 0006 56DB     		blt	.L95
  73:../Common/IQMath/ti/_IQNatan2.c ****     uint8_t ui8Index;
 1857              		.loc 1 73 13 view .LVU735
 1858 0008 0024     		movs	r4, #0
 1859              	.LVL222:
 1860              	.L86:
  98:../Common/IQMath/ti/_IQNatan2.c ****         ui8Status |= 2;
 1861              		.loc 1 98 5 is_stmt 1 view .LVU736
  98:../Common/IQMath/ti/_IQNatan2.c ****         ui8Status |= 2;
 1862              		.loc 1 98 8 is_stmt 0 view .LVU737
 1863 000a 002B     		cmp	r3, #0
 1864 000c 56DB     		blt	.L96
 1865              	.LVL223:
 1866              	.L87:
 104:../Common/IQMath/ti/_IQNatan2.c ****     uiqNInputY = (uint_fast32_t)iqNInputY;
 1867              		.loc 1 104 5 is_stmt 1 view .LVU738
 105:../Common/IQMath/ti/_IQNatan2.c ****     
 1868              		.loc 1 105 5 view .LVU739
 113:../Common/IQMath/ti/_IQNatan2.c ****         ui8Status |= 4;
 1869              		.loc 1 113 5 view .LVU740
 113:../Common/IQMath/ti/_IQNatan2.c ****         ui8Status |= 4;
 1870              		.loc 1 113 8 is_stmt 0 view .LVU741
 1871 000e 8342     		cmp	r3, r0
 1872 0010 58D2     		bcs	.L88
 114:../Common/IQMath/ti/_IQNatan2.c ****         uiq31Input = _UIQ31div(uiqNInputX, uiqNInputY);
 1873              		.loc 1 114 9 is_stmt 1 view .LVU742
 114:../Common/IQMath/ti/_IQNatan2.c ****         uiq31Input = _UIQ31div(uiqNInputX, uiqNInputY);
 1874              		.loc 1 114 19 is_stmt 0 view .LVU743
 1875 0012 44F00404 		orr	r4, r4, #4
 1876              	.LVL224:
 115:../Common/IQMath/ti/_IQNatan2.c ****     }
 1877              		.loc 1 115 9 is_stmt 1 view .LVU744
 115:../Common/IQMath/ti/_IQNatan2.c ****     }
 1878              		.loc 1 115 22 is_stmt 0 view .LVU745
 1879 0016 0146     		mov	r1, r0
 1880              	.LVL225:
 115:../Common/IQMath/ti/_IQNatan2.c ****     }
 1881              		.loc 1 115 22 view .LVU746
 1882 0018 1846     		mov	r0, r3
 1883              	.LVL226:
 115:../Common/IQMath/ti/_IQNatan2.c ****     }
 1884              		.loc 1 115 22 view .LVU747
 1885 001a FFF7FEFF 		bl	_UIQ31div
 1886              	.LVL227:
 1887              	.L89:
 122:../Common/IQMath/ti/_IQNatan2.c ****     ui8Index = ui8Index & 0x00fc;
 1888              		.loc 1 122 5 is_stmt 1 view .LVU748
ARM GAS  C:\Users\57308\AppData\Local\Temp\ccZcK4bV.s 			page 55


 122:../Common/IQMath/ti/_IQNatan2.c ****     ui8Index = ui8Index & 0x00fc;
 1889              		.loc 1 122 14 is_stmt 0 view .LVU749
 1890 001e 030E     		lsrs	r3, r0, #24
 1891              	.LVL228:
 123:../Common/IQMath/ti/_IQNatan2.c ****     
 1892              		.loc 1 123 5 is_stmt 1 view .LVU750
 123:../Common/IQMath/ti/_IQNatan2.c ****     
 1893              		.loc 1 123 14 is_stmt 0 view .LVU751
 1894 0020 03F0FC03 		and	r3, r3, #252
 1895              	.LVL229:
 126:../Common/IQMath/ti/_IQNatan2.c ****     
 1896              		.loc 1 126 5 is_stmt 1 view .LVU752
 126:../Common/IQMath/ti/_IQNatan2.c ****     
 1897              		.loc 1 126 17 is_stmt 0 view .LVU753
 1898 0024 2949     		ldr	r1, .L97
 1899 0026 01EB8302 		add	r2, r1, r3, lsl #2
 1900              	.LVL230:
 134:../Common/IQMath/ti/_IQNatan2.c ****     
 1901              		.loc 1 134 5 is_stmt 1 view .LVU754
 134:../Common/IQMath/ti/_IQNatan2.c ****     
 1902              		.loc 1 134 5 is_stmt 0 view .LVU755
 1903              	.LBE181:
 1904              	.LBE180:
  28:../Common/IQMath/ti/./support/RTS_support.h **** }
 1905              		.loc 2 28 5 is_stmt 1 view .LVU756
 1906              	.LBB193:
 1907              	.LBB190:
 143:../Common/IQMath/ti/_IQNatan2.c ****     
 1908              		.loc 1 143 5 view .LVU757
 143:../Common/IQMath/ti/_IQNatan2.c ****     
 1909              		.loc 1 143 21 is_stmt 0 view .LVU758
 1910 002a 51F82330 		ldr	r3, [r1, r3, lsl #2]
 1911              	.LVL231:
 1912              	.LBB182:
 1913              	.LBI182:
 233:../Common/IQMath/ti/./support/RTS_support.h **** {
 1914              		.loc 2 233 28 is_stmt 1 view .LVU759
 1915              	.LBB183:
 1916              		.loc 2 235 5 view .LVU760
 1917              		.loc 2 235 28 is_stmt 0 view .LVU761
 1918 002e 4FEAE07E 		asr	lr, r0, #31
 1919              		.loc 2 235 49 view .LVU762
 1920 0032 D917     		asrs	r1, r3, #31
 1921              		.loc 2 235 47 view .LVU763
 1922 0034 00FB01F1 		mul	r1, r0, r1
 1923 0038 03FB0E11 		mla	r1, r3, lr, r1
 1924 003c A0FB033C 		umull	r3, ip, r0, r3
 1925              	.LVL232:
 1926              		.loc 2 235 47 view .LVU764
 1927 0040 6144     		add	r1, r1, ip
 1928              		.loc 2 235 69 view .LVU765
 1929 0042 DB0F     		lsrs	r3, r3, #31
 1930 0044 43EA4103 		orr	r3, r3, r1, lsl #1
 1931              	.LVL233:
 1932              		.loc 2 235 69 view .LVU766
 1933              	.LBE183:
 1934              	.LBE182:
ARM GAS  C:\Users\57308\AppData\Local\Temp\ccZcK4bV.s 			page 56


 146:../Common/IQMath/ti/_IQNatan2.c ****     
 1935              		.loc 1 146 5 is_stmt 1 view .LVU767
 146:../Common/IQMath/ti/_IQNatan2.c ****     
 1936              		.loc 1 146 37 is_stmt 0 view .LVU768
 1937 0048 5168     		ldr	r1, [r2, #4]
 146:../Common/IQMath/ti/_IQNatan2.c ****     
 1938              		.loc 1 146 19 view .LVU769
 1939 004a 0B44     		add	r3, r3, r1
 1940              	.LVL234:
 149:../Common/IQMath/ti/_IQNatan2.c ****     
 1941              		.loc 1 149 5 is_stmt 1 view .LVU770
 1942              	.LBB184:
 1943              	.LBI184:
 233:../Common/IQMath/ti/./support/RTS_support.h **** {
 1944              		.loc 2 233 28 view .LVU771
 1945              	.LBB185:
 1946              		.loc 2 235 5 view .LVU772
 1947              		.loc 2 235 49 is_stmt 0 view .LVU773
 1948 004c 4FEAE37C 		asr	ip, r3, #31
 1949              		.loc 2 235 47 view .LVU774
 1950 0050 00FB0CFC 		mul	ip, r0, ip
 1951 0054 03FB0ECC 		mla	ip, r3, lr, ip
 1952 0058 A0FB0331 		umull	r3, r1, r0, r3
 1953              	.LVL235:
 1954              		.loc 2 235 47 view .LVU775
 1955 005c 8C44     		add	ip, ip, r1
 1956              		.loc 2 235 69 view .LVU776
 1957 005e DB0F     		lsrs	r3, r3, #31
 1958 0060 43EA4C03 		orr	r3, r3, ip, lsl #1
 1959              	.LVL236:
 1960              		.loc 2 235 69 view .LVU777
 1961              	.LBE185:
 1962              	.LBE184:
 152:../Common/IQMath/ti/_IQNatan2.c ****     
 1963              		.loc 1 152 5 is_stmt 1 view .LVU778
 152:../Common/IQMath/ti/_IQNatan2.c ****     
 1964              		.loc 1 152 37 is_stmt 0 view .LVU779
 1965 0064 9168     		ldr	r1, [r2, #8]
 152:../Common/IQMath/ti/_IQNatan2.c ****     
 1966              		.loc 1 152 19 view .LVU780
 1967 0066 0B44     		add	r3, r3, r1
 1968              	.LVL237:
 155:../Common/IQMath/ti/_IQNatan2.c ****     
 1969              		.loc 1 155 5 is_stmt 1 view .LVU781
 1970              	.LBB186:
 1971              	.LBI186:
 233:../Common/IQMath/ti/./support/RTS_support.h **** {
 1972              		.loc 2 233 28 view .LVU782
 1973              	.LBB187:
 1974              		.loc 2 235 5 view .LVU783
 1975              		.loc 2 235 49 is_stmt 0 view .LVU784
 1976 0068 D917     		asrs	r1, r3, #31
 1977              		.loc 2 235 47 view .LVU785
 1978 006a 00FB01F1 		mul	r1, r0, r1
 1979 006e 03FB0E11 		mla	r1, r3, lr, r1
 1980 0072 A0FB0303 		umull	r0, r3, r0, r3
 1981              	.LVL238:
ARM GAS  C:\Users\57308\AppData\Local\Temp\ccZcK4bV.s 			page 57


 1982              		.loc 2 235 47 view .LVU786
 1983 0076 0B44     		add	r3, r3, r1
 1984              		.loc 2 235 69 view .LVU787
 1985 0078 C00F     		lsrs	r0, r0, #31
 1986 007a 40EA4300 		orr	r0, r0, r3, lsl #1
 1987              	.LVL239:
 1988              		.loc 2 235 69 view .LVU788
 1989              	.LBE187:
 1990              	.LBE186:
 158:../Common/IQMath/ti/_IQNatan2.c ****     
 1991              		.loc 1 158 5 is_stmt 1 view .LVU789
 158:../Common/IQMath/ti/_IQNatan2.c ****     
 1992              		.loc 1 158 37 is_stmt 0 view .LVU790
 1993 007e D368     		ldr	r3, [r2, #12]
 158:../Common/IQMath/ti/_IQNatan2.c ****     
 1994              		.loc 1 158 19 view .LVU791
 1995 0080 1844     		add	r0, r0, r3
 1996              	.LVL240:
 161:../Common/IQMath/ti/_IQNatan2.c ****         /* atan(y/x) = pi/2 - uiq32ResultPU */
 1997              		.loc 1 161 5 is_stmt 1 view .LVU792
 161:../Common/IQMath/ti/_IQNatan2.c ****         /* atan(y/x) = pi/2 - uiq32ResultPU */
 1998              		.loc 1 161 8 is_stmt 0 view .LVU793
 1999 0082 14F0040F 		tst	r4, #4
 2000 0086 01D0     		beq	.L90
 163:../Common/IQMath/ti/_IQNatan2.c ****     }
 2001              		.loc 1 163 9 is_stmt 1 view .LVU794
 163:../Common/IQMath/ti/_IQNatan2.c ****     }
 2002              		.loc 1 163 23 is_stmt 0 view .LVU795
 2003 0088 C0F18040 		rsb	r0, r0, #1073741824
 2004              	.LVL241:
 2005              	.L90:
 167:../Common/IQMath/ti/_IQNatan2.c ****         /* atan(y/x) = pi - uiq32ResultPU */
 2006              		.loc 1 167 5 is_stmt 1 view .LVU796
 167:../Common/IQMath/ti/_IQNatan2.c ****         /* atan(y/x) = pi - uiq32ResultPU */
 2007              		.loc 1 167 8 is_stmt 0 view .LVU797
 2008 008c 14F0020F 		tst	r4, #2
 2009 0090 01D0     		beq	.L91
 169:../Common/IQMath/ti/_IQNatan2.c ****     }
 2010              		.loc 1 169 9 is_stmt 1 view .LVU798
 169:../Common/IQMath/ti/_IQNatan2.c ****     }
 2011              		.loc 1 169 23 is_stmt 0 view .LVU799
 2012 0092 C0F10040 		rsb	r0, r0, #-2147483648
 2013              	.LVL242:
 2014              	.L91:
 173:../Common/IQMath/ti/_IQNatan2.c ****         uiq32ResultPU += (uint_fast32_t)1 << (31 - q_value);
 2015              		.loc 1 173 5 is_stmt 1 view .LVU800
 183:../Common/IQMath/ti/_IQNatan2.c ****         
 2016              		.loc 1 183 9 view .LVU801
 2017              	.LBB188:
 2018              	.LBI188:
 233:../Common/IQMath/ti/./support/RTS_support.h **** {
 2019              		.loc 2 233 28 view .LVU802
 2020              	.LBB189:
 2021              		.loc 2 235 5 view .LVU803
 2022              		.loc 2 235 28 is_stmt 0 view .LVU804
 2023 0096 C117     		asrs	r1, r0, #31
 2024              		.loc 2 235 47 view .LVU805
ARM GAS  C:\Users\57308\AppData\Local\Temp\ccZcK4bV.s 			page 58


 2025 0098 0D4A     		ldr	r2, .L97+4
 2026              	.LVL243:
 2027              		.loc 2 235 47 view .LVU806
 2028 009a A0FB0203 		umull	r0, r3, r0, r2
 2029              	.LVL244:
 2030              		.loc 2 235 47 view .LVU807
 2031 009e 02FB0133 		mla	r3, r2, r1, r3
 2032              		.loc 2 235 69 view .LVU808
 2033 00a2 C00F     		lsrs	r0, r0, #31
 2034 00a4 40EA4300 		orr	r0, r0, r3, lsl #1
 2035              	.LVL245:
 2036              		.loc 2 235 69 view .LVU809
 2037              	.LBE189:
 2038              	.LBE188:
 186:../Common/IQMath/ti/_IQNatan2.c ****             iq29Result += (uint_fast32_t)1 << (28 - q_value);
 2039              		.loc 1 186 9 is_stmt 1 view .LVU810
 187:../Common/IQMath/ti/_IQNatan2.c ****         }
 2040              		.loc 1 187 13 view .LVU811
 187:../Common/IQMath/ti/_IQNatan2.c ****         }
 2041              		.loc 1 187 24 is_stmt 0 view .LVU812
 2042 00a8 2030     		adds	r0, r0, #32
 2043              	.LVL246:
 189:../Common/IQMath/ti/_IQNatan2.c ****     }
 2044              		.loc 1 189 9 is_stmt 1 view .LVU813
 189:../Common/IQMath/ti/_IQNatan2.c ****     }
 2045              		.loc 1 189 19 is_stmt 0 view .LVU814
 2046 00aa 8011     		asrs	r0, r0, #6
 2047              	.LVL247:
 196:../Common/IQMath/ti/_IQNatan2.c ****     
 2048              		.loc 1 196 5 is_stmt 1 view .LVU815
 196:../Common/IQMath/ti/_IQNatan2.c ****     
 2049              		.loc 1 196 5 is_stmt 0 view .LVU816
 2050              	.LBE190:
 2051              	.LBE193:
  72:../Common/IQMath/ti/./support/RTS_support.h **** }
 2052              		.loc 2 72 5 is_stmt 1 view .LVU817
 2053              	.LBB194:
 2054              	.LBB191:
 199:../Common/IQMath/ti/_IQNatan2.c ****         return -iqNResult;
 2055              		.loc 1 199 5 view .LVU818
 199:../Common/IQMath/ti/_IQNatan2.c ****         return -iqNResult;
 2056              		.loc 1 199 8 is_stmt 0 view .LVU819
 2057 00ac 14F0010F 		tst	r4, #1
 2058 00b0 00D0     		beq	.L85
 200:../Common/IQMath/ti/_IQNatan2.c ****     }
 2059              		.loc 1 200 9 is_stmt 1 view .LVU820
 200:../Common/IQMath/ti/_IQNatan2.c ****     }
 2060              		.loc 1 200 16 is_stmt 0 view .LVU821
 2061 00b2 4042     		rsbs	r0, r0, #0
 2062              	.LVL248:
 2063              	.L85:
 200:../Common/IQMath/ti/_IQNatan2.c ****     }
 2064              		.loc 1 200 16 view .LVU822
 2065              	.LBE191:
 2066              	.LBE194:
 405:../Common/IQMath/ti/_IQNatan2.c **** }
 2067              		.loc 1 405 1 view .LVU823
ARM GAS  C:\Users\57308\AppData\Local\Temp\ccZcK4bV.s 			page 59


 2068 00b4 10BD     		pop	{r4, pc}
 2069              	.LVL249:
 2070              	.L95:
 2071              	.LBB195:
 2072              	.LBB192:
  95:../Common/IQMath/ti/_IQNatan2.c ****         iqNInputY = -iqNInputY;
 2073              		.loc 1 95 9 is_stmt 1 view .LVU824
  96:../Common/IQMath/ti/_IQNatan2.c ****     }
 2074              		.loc 1 96 9 view .LVU825
  96:../Common/IQMath/ti/_IQNatan2.c ****     }
 2075              		.loc 1 96 19 is_stmt 0 view .LVU826
 2076 00b6 4042     		rsbs	r0, r0, #0
 2077              	.LVL250:
  95:../Common/IQMath/ti/_IQNatan2.c ****         iqNInputY = -iqNInputY;
 2078              		.loc 1 95 19 view .LVU827
 2079 00b8 0124     		movs	r4, #1
 2080 00ba A6E7     		b	.L86
 2081              	.LVL251:
 2082              	.L96:
  99:../Common/IQMath/ti/_IQNatan2.c ****         iqNInputX = -iqNInputX;
 2083              		.loc 1 99 9 is_stmt 1 view .LVU828
  99:../Common/IQMath/ti/_IQNatan2.c ****         iqNInputX = -iqNInputX;
 2084              		.loc 1 99 19 is_stmt 0 view .LVU829
 2085 00bc 44F00204 		orr	r4, r4, #2
 2086              	.LVL252:
 100:../Common/IQMath/ti/_IQNatan2.c ****     }
 2087              		.loc 1 100 9 is_stmt 1 view .LVU830
 100:../Common/IQMath/ti/_IQNatan2.c ****     }
 2088              		.loc 1 100 19 is_stmt 0 view .LVU831
 2089 00c0 5B42     		rsbs	r3, r3, #0
 2090              	.LVL253:
 100:../Common/IQMath/ti/_IQNatan2.c ****     }
 2091              		.loc 1 100 19 view .LVU832
 2092 00c2 A4E7     		b	.L87
 2093              	.LVL254:
 2094              	.L88:
 118:../Common/IQMath/ti/_IQNatan2.c ****     }
 2095              		.loc 1 118 9 is_stmt 1 view .LVU833
 118:../Common/IQMath/ti/_IQNatan2.c ****     }
 2096              		.loc 1 118 22 is_stmt 0 view .LVU834
 2097 00c4 1946     		mov	r1, r3
 2098              	.LVL255:
 118:../Common/IQMath/ti/_IQNatan2.c ****     }
 2099              		.loc 1 118 22 view .LVU835
 2100 00c6 FFF7FEFF 		bl	_UIQ31div
 2101              	.LVL256:
 118:../Common/IQMath/ti/_IQNatan2.c ****     }
 2102              		.loc 1 118 22 view .LVU836
 2103 00ca A8E7     		b	.L89
 2104              	.L98:
 2105              		.align	2
 2106              	.L97:
 2107 00cc 00000000 		.word	_IQ32atan_coeffs
 2108 00d0 51ED8764 		.word	1686629713
 2109              	.LBE192:
 2110              	.LBE195:
 2111              		.cfi_endproc
ARM GAS  C:\Users\57308\AppData\Local\Temp\ccZcK4bV.s 			page 60


 2112              	.LFE270:
 2114              		.section	.text._IQ22atan2,"ax",%progbits
 2115              		.align	1
 2116              		.global	_IQ22atan2
 2117              		.syntax unified
 2118              		.thumb
 2119              		.thumb_func
 2121              	_IQ22atan2:
 2122              	.LVL257:
 2123              	.LFB271:
 406:../Common/IQMath/ti/_IQNatan2.c **** /**
 407:../Common/IQMath/ti/_IQNatan2.c ****  * @brief Compute the 4-quadrant arctangent of the IQ22 input 
 408:../Common/IQMath/ti/_IQNatan2.c ****  *        and return the result, in radians.
 409:../Common/IQMath/ti/_IQNatan2.c ****  *
 410:../Common/IQMath/ti/_IQNatan2.c ****  * @param y               IQ22 type input y.
 411:../Common/IQMath/ti/_IQNatan2.c ****  * @param x               IQ22 type input x.
 412:../Common/IQMath/ti/_IQNatan2.c ****  *
 413:../Common/IQMath/ti/_IQNatan2.c ****  * @return                IQ22 type result of 4-quadrant arctangent.
 414:../Common/IQMath/ti/_IQNatan2.c ****  */
 415:../Common/IQMath/ti/_IQNatan2.c **** int32_t _IQ22atan2(int32_t y, int32_t x)
 416:../Common/IQMath/ti/_IQNatan2.c **** {
 2124              		.loc 1 416 1 is_stmt 1 view -0
 2125              		.cfi_startproc
 2126              		@ args = 0, pretend = 0, frame = 0
 2127              		@ frame_needed = 0, uses_anonymous_args = 0
 2128              		.loc 1 416 1 is_stmt 0 view .LVU838
 2129 0000 10B5     		push	{r4, lr}
 2130              	.LCFI7:
 2131              		.cfi_def_cfa_offset 8
 2132              		.cfi_offset 4, -8
 2133              		.cfi_offset 14, -4
 2134 0002 0B46     		mov	r3, r1
 417:../Common/IQMath/ti/_IQNatan2.c ****     return __IQNatan2(y, x, TYPE_RAD, 22);
 2135              		.loc 1 417 5 is_stmt 1 view .LVU839
 2136              	.LVL258:
 2137              	.LBB206:
 2138              	.LBI206:
  71:../Common/IQMath/ti/_IQNatan2.c **** {
 2139              		.loc 1 71 30 view .LVU840
 2140              	.LBB207:
  73:../Common/IQMath/ti/_IQNatan2.c ****     uint8_t ui8Index;
 2141              		.loc 1 73 5 view .LVU841
  74:../Common/IQMath/ti/_IQNatan2.c ****     uint_fast16_t ui16IntState;
 2142              		.loc 1 74 5 view .LVU842
  75:../Common/IQMath/ti/_IQNatan2.c ****     uint_fast16_t ui16MPYState;
 2143              		.loc 1 75 5 view .LVU843
  76:../Common/IQMath/ti/_IQNatan2.c ****     uint_fast32_t uiqNInputX;
 2144              		.loc 1 76 5 view .LVU844
  77:../Common/IQMath/ti/_IQNatan2.c ****     uint_fast32_t uiqNInputY;
 2145              		.loc 1 77 5 view .LVU845
  78:../Common/IQMath/ti/_IQNatan2.c ****     uint_fast32_t uiq32ResultPU;
 2146              		.loc 1 78 5 view .LVU846
  79:../Common/IQMath/ti/_IQNatan2.c ****     int_fast32_t iqNResult;
 2147              		.loc 1 79 5 view .LVU847
  80:../Common/IQMath/ti/_IQNatan2.c ****     int_fast32_t iq29Result;
 2148              		.loc 1 80 5 view .LVU848
  81:../Common/IQMath/ti/_IQNatan2.c ****     const int_fast32_t *piq32Coeffs;
ARM GAS  C:\Users\57308\AppData\Local\Temp\ccZcK4bV.s 			page 61


 2149              		.loc 1 81 5 view .LVU849
  82:../Common/IQMath/ti/_IQNatan2.c ****     uint_fast32_t uiq31Input;
 2150              		.loc 1 82 5 view .LVU850
  83:../Common/IQMath/ti/_IQNatan2.c ****     
 2151              		.loc 1 83 5 view .LVU851
  94:../Common/IQMath/ti/_IQNatan2.c ****         ui8Status |= 1;
 2152              		.loc 1 94 5 view .LVU852
  94:../Common/IQMath/ti/_IQNatan2.c ****         ui8Status |= 1;
 2153              		.loc 1 94 8 is_stmt 0 view .LVU853
 2154 0004 0028     		cmp	r0, #0
  94:../Common/IQMath/ti/_IQNatan2.c ****         ui8Status |= 1;
 2155              		.loc 1 94 8 view .LVU854
 2156 0006 56DB     		blt	.L109
  73:../Common/IQMath/ti/_IQNatan2.c ****     uint8_t ui8Index;
 2157              		.loc 1 73 13 view .LVU855
 2158 0008 0024     		movs	r4, #0
 2159              	.LVL259:
 2160              	.L100:
  98:../Common/IQMath/ti/_IQNatan2.c ****         ui8Status |= 2;
 2161              		.loc 1 98 5 is_stmt 1 view .LVU856
  98:../Common/IQMath/ti/_IQNatan2.c ****         ui8Status |= 2;
 2162              		.loc 1 98 8 is_stmt 0 view .LVU857
 2163 000a 002B     		cmp	r3, #0
 2164 000c 56DB     		blt	.L110
 2165              	.LVL260:
 2166              	.L101:
 104:../Common/IQMath/ti/_IQNatan2.c ****     uiqNInputY = (uint_fast32_t)iqNInputY;
 2167              		.loc 1 104 5 is_stmt 1 view .LVU858
 105:../Common/IQMath/ti/_IQNatan2.c ****     
 2168              		.loc 1 105 5 view .LVU859
 113:../Common/IQMath/ti/_IQNatan2.c ****         ui8Status |= 4;
 2169              		.loc 1 113 5 view .LVU860
 113:../Common/IQMath/ti/_IQNatan2.c ****         ui8Status |= 4;
 2170              		.loc 1 113 8 is_stmt 0 view .LVU861
 2171 000e 8342     		cmp	r3, r0
 2172 0010 58D2     		bcs	.L102
 114:../Common/IQMath/ti/_IQNatan2.c ****         uiq31Input = _UIQ31div(uiqNInputX, uiqNInputY);
 2173              		.loc 1 114 9 is_stmt 1 view .LVU862
 114:../Common/IQMath/ti/_IQNatan2.c ****         uiq31Input = _UIQ31div(uiqNInputX, uiqNInputY);
 2174              		.loc 1 114 19 is_stmt 0 view .LVU863
 2175 0012 44F00404 		orr	r4, r4, #4
 2176              	.LVL261:
 115:../Common/IQMath/ti/_IQNatan2.c ****     }
 2177              		.loc 1 115 9 is_stmt 1 view .LVU864
 115:../Common/IQMath/ti/_IQNatan2.c ****     }
 2178              		.loc 1 115 22 is_stmt 0 view .LVU865
 2179 0016 0146     		mov	r1, r0
 2180              	.LVL262:
 115:../Common/IQMath/ti/_IQNatan2.c ****     }
 2181              		.loc 1 115 22 view .LVU866
 2182 0018 1846     		mov	r0, r3
 2183              	.LVL263:
 115:../Common/IQMath/ti/_IQNatan2.c ****     }
 2184              		.loc 1 115 22 view .LVU867
 2185 001a FFF7FEFF 		bl	_UIQ31div
 2186              	.LVL264:
 2187              	.L103:
ARM GAS  C:\Users\57308\AppData\Local\Temp\ccZcK4bV.s 			page 62


 122:../Common/IQMath/ti/_IQNatan2.c ****     ui8Index = ui8Index & 0x00fc;
 2188              		.loc 1 122 5 is_stmt 1 view .LVU868
 122:../Common/IQMath/ti/_IQNatan2.c ****     ui8Index = ui8Index & 0x00fc;
 2189              		.loc 1 122 14 is_stmt 0 view .LVU869
 2190 001e 030E     		lsrs	r3, r0, #24
 2191              	.LVL265:
 123:../Common/IQMath/ti/_IQNatan2.c ****     
 2192              		.loc 1 123 5 is_stmt 1 view .LVU870
 123:../Common/IQMath/ti/_IQNatan2.c ****     
 2193              		.loc 1 123 14 is_stmt 0 view .LVU871
 2194 0020 03F0FC03 		and	r3, r3, #252
 2195              	.LVL266:
 126:../Common/IQMath/ti/_IQNatan2.c ****     
 2196              		.loc 1 126 5 is_stmt 1 view .LVU872
 126:../Common/IQMath/ti/_IQNatan2.c ****     
 2197              		.loc 1 126 17 is_stmt 0 view .LVU873
 2198 0024 2949     		ldr	r1, .L111
 2199 0026 01EB8302 		add	r2, r1, r3, lsl #2
 2200              	.LVL267:
 134:../Common/IQMath/ti/_IQNatan2.c ****     
 2201              		.loc 1 134 5 is_stmt 1 view .LVU874
 134:../Common/IQMath/ti/_IQNatan2.c ****     
 2202              		.loc 1 134 5 is_stmt 0 view .LVU875
 2203              	.LBE207:
 2204              	.LBE206:
  28:../Common/IQMath/ti/./support/RTS_support.h **** }
 2205              		.loc 2 28 5 is_stmt 1 view .LVU876
 2206              	.LBB219:
 2207              	.LBB216:
 143:../Common/IQMath/ti/_IQNatan2.c ****     
 2208              		.loc 1 143 5 view .LVU877
 143:../Common/IQMath/ti/_IQNatan2.c ****     
 2209              		.loc 1 143 21 is_stmt 0 view .LVU878
 2210 002a 51F82330 		ldr	r3, [r1, r3, lsl #2]
 2211              	.LVL268:
 2212              	.LBB208:
 2213              	.LBI208:
 233:../Common/IQMath/ti/./support/RTS_support.h **** {
 2214              		.loc 2 233 28 is_stmt 1 view .LVU879
 2215              	.LBB209:
 2216              		.loc 2 235 5 view .LVU880
 2217              		.loc 2 235 28 is_stmt 0 view .LVU881
 2218 002e 4FEAE07E 		asr	lr, r0, #31
 2219              		.loc 2 235 49 view .LVU882
 2220 0032 D917     		asrs	r1, r3, #31
 2221              		.loc 2 235 47 view .LVU883
 2222 0034 00FB01F1 		mul	r1, r0, r1
 2223 0038 03FB0E11 		mla	r1, r3, lr, r1
 2224 003c A0FB033C 		umull	r3, ip, r0, r3
 2225              	.LVL269:
 2226              		.loc 2 235 47 view .LVU884
 2227 0040 6144     		add	r1, r1, ip
 2228              		.loc 2 235 69 view .LVU885
 2229 0042 DB0F     		lsrs	r3, r3, #31
 2230 0044 43EA4103 		orr	r3, r3, r1, lsl #1
 2231              	.LVL270:
 2232              		.loc 2 235 69 view .LVU886
ARM GAS  C:\Users\57308\AppData\Local\Temp\ccZcK4bV.s 			page 63


 2233              	.LBE209:
 2234              	.LBE208:
 146:../Common/IQMath/ti/_IQNatan2.c ****     
 2235              		.loc 1 146 5 is_stmt 1 view .LVU887
 146:../Common/IQMath/ti/_IQNatan2.c ****     
 2236              		.loc 1 146 37 is_stmt 0 view .LVU888
 2237 0048 5168     		ldr	r1, [r2, #4]
 146:../Common/IQMath/ti/_IQNatan2.c ****     
 2238              		.loc 1 146 19 view .LVU889
 2239 004a 0B44     		add	r3, r3, r1
 2240              	.LVL271:
 149:../Common/IQMath/ti/_IQNatan2.c ****     
 2241              		.loc 1 149 5 is_stmt 1 view .LVU890
 2242              	.LBB210:
 2243              	.LBI210:
 233:../Common/IQMath/ti/./support/RTS_support.h **** {
 2244              		.loc 2 233 28 view .LVU891
 2245              	.LBB211:
 2246              		.loc 2 235 5 view .LVU892
 2247              		.loc 2 235 49 is_stmt 0 view .LVU893
 2248 004c 4FEAE37C 		asr	ip, r3, #31
 2249              		.loc 2 235 47 view .LVU894
 2250 0050 00FB0CFC 		mul	ip, r0, ip
 2251 0054 03FB0ECC 		mla	ip, r3, lr, ip
 2252 0058 A0FB0331 		umull	r3, r1, r0, r3
 2253              	.LVL272:
 2254              		.loc 2 235 47 view .LVU895
 2255 005c 8C44     		add	ip, ip, r1
 2256              		.loc 2 235 69 view .LVU896
 2257 005e DB0F     		lsrs	r3, r3, #31
 2258 0060 43EA4C03 		orr	r3, r3, ip, lsl #1
 2259              	.LVL273:
 2260              		.loc 2 235 69 view .LVU897
 2261              	.LBE211:
 2262              	.LBE210:
 152:../Common/IQMath/ti/_IQNatan2.c ****     
 2263              		.loc 1 152 5 is_stmt 1 view .LVU898
 152:../Common/IQMath/ti/_IQNatan2.c ****     
 2264              		.loc 1 152 37 is_stmt 0 view .LVU899
 2265 0064 9168     		ldr	r1, [r2, #8]
 152:../Common/IQMath/ti/_IQNatan2.c ****     
 2266              		.loc 1 152 19 view .LVU900
 2267 0066 0B44     		add	r3, r3, r1
 2268              	.LVL274:
 155:../Common/IQMath/ti/_IQNatan2.c ****     
 2269              		.loc 1 155 5 is_stmt 1 view .LVU901
 2270              	.LBB212:
 2271              	.LBI212:
 233:../Common/IQMath/ti/./support/RTS_support.h **** {
 2272              		.loc 2 233 28 view .LVU902
 2273              	.LBB213:
 2274              		.loc 2 235 5 view .LVU903
 2275              		.loc 2 235 49 is_stmt 0 view .LVU904
 2276 0068 D917     		asrs	r1, r3, #31
 2277              		.loc 2 235 47 view .LVU905
 2278 006a 00FB01F1 		mul	r1, r0, r1
 2279 006e 03FB0E11 		mla	r1, r3, lr, r1
ARM GAS  C:\Users\57308\AppData\Local\Temp\ccZcK4bV.s 			page 64


 2280 0072 A0FB0303 		umull	r0, r3, r0, r3
 2281              	.LVL275:
 2282              		.loc 2 235 47 view .LVU906
 2283 0076 0B44     		add	r3, r3, r1
 2284              		.loc 2 235 69 view .LVU907
 2285 0078 C00F     		lsrs	r0, r0, #31
 2286 007a 40EA4300 		orr	r0, r0, r3, lsl #1
 2287              	.LVL276:
 2288              		.loc 2 235 69 view .LVU908
 2289              	.LBE213:
 2290              	.LBE212:
 158:../Common/IQMath/ti/_IQNatan2.c ****     
 2291              		.loc 1 158 5 is_stmt 1 view .LVU909
 158:../Common/IQMath/ti/_IQNatan2.c ****     
 2292              		.loc 1 158 37 is_stmt 0 view .LVU910
 2293 007e D368     		ldr	r3, [r2, #12]
 158:../Common/IQMath/ti/_IQNatan2.c ****     
 2294              		.loc 1 158 19 view .LVU911
 2295 0080 1844     		add	r0, r0, r3
 2296              	.LVL277:
 161:../Common/IQMath/ti/_IQNatan2.c ****         /* atan(y/x) = pi/2 - uiq32ResultPU */
 2297              		.loc 1 161 5 is_stmt 1 view .LVU912
 161:../Common/IQMath/ti/_IQNatan2.c ****         /* atan(y/x) = pi/2 - uiq32ResultPU */
 2298              		.loc 1 161 8 is_stmt 0 view .LVU913
 2299 0082 14F0040F 		tst	r4, #4
 2300 0086 01D0     		beq	.L104
 163:../Common/IQMath/ti/_IQNatan2.c ****     }
 2301              		.loc 1 163 9 is_stmt 1 view .LVU914
 163:../Common/IQMath/ti/_IQNatan2.c ****     }
 2302              		.loc 1 163 23 is_stmt 0 view .LVU915
 2303 0088 C0F18040 		rsb	r0, r0, #1073741824
 2304              	.LVL278:
 2305              	.L104:
 167:../Common/IQMath/ti/_IQNatan2.c ****         /* atan(y/x) = pi - uiq32ResultPU */
 2306              		.loc 1 167 5 is_stmt 1 view .LVU916
 167:../Common/IQMath/ti/_IQNatan2.c ****         /* atan(y/x) = pi - uiq32ResultPU */
 2307              		.loc 1 167 8 is_stmt 0 view .LVU917
 2308 008c 14F0020F 		tst	r4, #2
 2309 0090 01D0     		beq	.L105
 169:../Common/IQMath/ti/_IQNatan2.c ****     }
 2310              		.loc 1 169 9 is_stmt 1 view .LVU918
 169:../Common/IQMath/ti/_IQNatan2.c ****     }
 2311              		.loc 1 169 23 is_stmt 0 view .LVU919
 2312 0092 C0F10040 		rsb	r0, r0, #-2147483648
 2313              	.LVL279:
 2314              	.L105:
 173:../Common/IQMath/ti/_IQNatan2.c ****         uiq32ResultPU += (uint_fast32_t)1 << (31 - q_value);
 2315              		.loc 1 173 5 is_stmt 1 view .LVU920
 183:../Common/IQMath/ti/_IQNatan2.c ****         
 2316              		.loc 1 183 9 view .LVU921
 2317              	.LBB214:
 2318              	.LBI214:
 233:../Common/IQMath/ti/./support/RTS_support.h **** {
 2319              		.loc 2 233 28 view .LVU922
 2320              	.LBB215:
 2321              		.loc 2 235 5 view .LVU923
 2322              		.loc 2 235 28 is_stmt 0 view .LVU924
ARM GAS  C:\Users\57308\AppData\Local\Temp\ccZcK4bV.s 			page 65


 2323 0096 C117     		asrs	r1, r0, #31
 2324              		.loc 2 235 47 view .LVU925
 2325 0098 0D4A     		ldr	r2, .L111+4
 2326              	.LVL280:
 2327              		.loc 2 235 47 view .LVU926
 2328 009a A0FB0203 		umull	r0, r3, r0, r2
 2329              	.LVL281:
 2330              		.loc 2 235 47 view .LVU927
 2331 009e 02FB0133 		mla	r3, r2, r1, r3
 2332              		.loc 2 235 69 view .LVU928
 2333 00a2 C00F     		lsrs	r0, r0, #31
 2334 00a4 40EA4300 		orr	r0, r0, r3, lsl #1
 2335              	.LVL282:
 2336              		.loc 2 235 69 view .LVU929
 2337              	.LBE215:
 2338              	.LBE214:
 186:../Common/IQMath/ti/_IQNatan2.c ****             iq29Result += (uint_fast32_t)1 << (28 - q_value);
 2339              		.loc 1 186 9 is_stmt 1 view .LVU930
 187:../Common/IQMath/ti/_IQNatan2.c ****         }
 2340              		.loc 1 187 13 view .LVU931
 187:../Common/IQMath/ti/_IQNatan2.c ****         }
 2341              		.loc 1 187 24 is_stmt 0 view .LVU932
 2342 00a8 4030     		adds	r0, r0, #64
 2343              	.LVL283:
 189:../Common/IQMath/ti/_IQNatan2.c ****     }
 2344              		.loc 1 189 9 is_stmt 1 view .LVU933
 189:../Common/IQMath/ti/_IQNatan2.c ****     }
 2345              		.loc 1 189 19 is_stmt 0 view .LVU934
 2346 00aa C011     		asrs	r0, r0, #7
 2347              	.LVL284:
 196:../Common/IQMath/ti/_IQNatan2.c ****     
 2348              		.loc 1 196 5 is_stmt 1 view .LVU935
 196:../Common/IQMath/ti/_IQNatan2.c ****     
 2349              		.loc 1 196 5 is_stmt 0 view .LVU936
 2350              	.LBE216:
 2351              	.LBE219:
  72:../Common/IQMath/ti/./support/RTS_support.h **** }
 2352              		.loc 2 72 5 is_stmt 1 view .LVU937
 2353              	.LBB220:
 2354              	.LBB217:
 199:../Common/IQMath/ti/_IQNatan2.c ****         return -iqNResult;
 2355              		.loc 1 199 5 view .LVU938
 199:../Common/IQMath/ti/_IQNatan2.c ****         return -iqNResult;
 2356              		.loc 1 199 8 is_stmt 0 view .LVU939
 2357 00ac 14F0010F 		tst	r4, #1
 2358 00b0 00D0     		beq	.L99
 200:../Common/IQMath/ti/_IQNatan2.c ****     }
 2359              		.loc 1 200 9 is_stmt 1 view .LVU940
 200:../Common/IQMath/ti/_IQNatan2.c ****     }
 2360              		.loc 1 200 16 is_stmt 0 view .LVU941
 2361 00b2 4042     		rsbs	r0, r0, #0
 2362              	.LVL285:
 2363              	.L99:
 200:../Common/IQMath/ti/_IQNatan2.c ****     }
 2364              		.loc 1 200 16 view .LVU942
 2365              	.LBE217:
 2366              	.LBE220:
ARM GAS  C:\Users\57308\AppData\Local\Temp\ccZcK4bV.s 			page 66


 418:../Common/IQMath/ti/_IQNatan2.c **** }
 2367              		.loc 1 418 1 view .LVU943
 2368 00b4 10BD     		pop	{r4, pc}
 2369              	.LVL286:
 2370              	.L109:
 2371              	.LBB221:
 2372              	.LBB218:
  95:../Common/IQMath/ti/_IQNatan2.c ****         iqNInputY = -iqNInputY;
 2373              		.loc 1 95 9 is_stmt 1 view .LVU944
  96:../Common/IQMath/ti/_IQNatan2.c ****     }
 2374              		.loc 1 96 9 view .LVU945
  96:../Common/IQMath/ti/_IQNatan2.c ****     }
 2375              		.loc 1 96 19 is_stmt 0 view .LVU946
 2376 00b6 4042     		rsbs	r0, r0, #0
 2377              	.LVL287:
  95:../Common/IQMath/ti/_IQNatan2.c ****         iqNInputY = -iqNInputY;
 2378              		.loc 1 95 19 view .LVU947
 2379 00b8 0124     		movs	r4, #1
 2380 00ba A6E7     		b	.L100
 2381              	.LVL288:
 2382              	.L110:
  99:../Common/IQMath/ti/_IQNatan2.c ****         iqNInputX = -iqNInputX;
 2383              		.loc 1 99 9 is_stmt 1 view .LVU948
  99:../Common/IQMath/ti/_IQNatan2.c ****         iqNInputX = -iqNInputX;
 2384              		.loc 1 99 19 is_stmt 0 view .LVU949
 2385 00bc 44F00204 		orr	r4, r4, #2
 2386              	.LVL289:
 100:../Common/IQMath/ti/_IQNatan2.c ****     }
 2387              		.loc 1 100 9 is_stmt 1 view .LVU950
 100:../Common/IQMath/ti/_IQNatan2.c ****     }
 2388              		.loc 1 100 19 is_stmt 0 view .LVU951
 2389 00c0 5B42     		rsbs	r3, r3, #0
 2390              	.LVL290:
 100:../Common/IQMath/ti/_IQNatan2.c ****     }
 2391              		.loc 1 100 19 view .LVU952
 2392 00c2 A4E7     		b	.L101
 2393              	.LVL291:
 2394              	.L102:
 118:../Common/IQMath/ti/_IQNatan2.c ****     }
 2395              		.loc 1 118 9 is_stmt 1 view .LVU953
 118:../Common/IQMath/ti/_IQNatan2.c ****     }
 2396              		.loc 1 118 22 is_stmt 0 view .LVU954
 2397 00c4 1946     		mov	r1, r3
 2398              	.LVL292:
 118:../Common/IQMath/ti/_IQNatan2.c ****     }
 2399              		.loc 1 118 22 view .LVU955
 2400 00c6 FFF7FEFF 		bl	_UIQ31div
 2401              	.LVL293:
 118:../Common/IQMath/ti/_IQNatan2.c ****     }
 2402              		.loc 1 118 22 view .LVU956
 2403 00ca A8E7     		b	.L103
 2404              	.L112:
 2405              		.align	2
 2406              	.L111:
 2407 00cc 00000000 		.word	_IQ32atan_coeffs
 2408 00d0 51ED8764 		.word	1686629713
 2409              	.LBE218:
ARM GAS  C:\Users\57308\AppData\Local\Temp\ccZcK4bV.s 			page 67


 2410              	.LBE221:
 2411              		.cfi_endproc
 2412              	.LFE271:
 2414              		.section	.text._IQ21atan2,"ax",%progbits
 2415              		.align	1
 2416              		.global	_IQ21atan2
 2417              		.syntax unified
 2418              		.thumb
 2419              		.thumb_func
 2421              	_IQ21atan2:
 2422              	.LVL294:
 2423              	.LFB272:
 419:../Common/IQMath/ti/_IQNatan2.c **** /**
 420:../Common/IQMath/ti/_IQNatan2.c ****  * @brief Compute the 4-quadrant arctangent of the IQ21 input 
 421:../Common/IQMath/ti/_IQNatan2.c ****  *        and return the result, in radians.
 422:../Common/IQMath/ti/_IQNatan2.c ****  *
 423:../Common/IQMath/ti/_IQNatan2.c ****  * @param y               IQ21 type input y.
 424:../Common/IQMath/ti/_IQNatan2.c ****  * @param x               IQ21 type input x.
 425:../Common/IQMath/ti/_IQNatan2.c ****  *
 426:../Common/IQMath/ti/_IQNatan2.c ****  * @return                IQ21 type result of 4-quadrant arctangent.
 427:../Common/IQMath/ti/_IQNatan2.c ****  */
 428:../Common/IQMath/ti/_IQNatan2.c **** int32_t _IQ21atan2(int32_t y, int32_t x)
 429:../Common/IQMath/ti/_IQNatan2.c **** {
 2424              		.loc 1 429 1 is_stmt 1 view -0
 2425              		.cfi_startproc
 2426              		@ args = 0, pretend = 0, frame = 0
 2427              		@ frame_needed = 0, uses_anonymous_args = 0
 2428              		.loc 1 429 1 is_stmt 0 view .LVU958
 2429 0000 10B5     		push	{r4, lr}
 2430              	.LCFI8:
 2431              		.cfi_def_cfa_offset 8
 2432              		.cfi_offset 4, -8
 2433              		.cfi_offset 14, -4
 2434 0002 0B46     		mov	r3, r1
 430:../Common/IQMath/ti/_IQNatan2.c ****     return __IQNatan2(y, x, TYPE_RAD, 21);
 2435              		.loc 1 430 5 is_stmt 1 view .LVU959
 2436              	.LVL295:
 2437              	.LBB232:
 2438              	.LBI232:
  71:../Common/IQMath/ti/_IQNatan2.c **** {
 2439              		.loc 1 71 30 view .LVU960
 2440              	.LBB233:
  73:../Common/IQMath/ti/_IQNatan2.c ****     uint8_t ui8Index;
 2441              		.loc 1 73 5 view .LVU961
  74:../Common/IQMath/ti/_IQNatan2.c ****     uint_fast16_t ui16IntState;
 2442              		.loc 1 74 5 view .LVU962
  75:../Common/IQMath/ti/_IQNatan2.c ****     uint_fast16_t ui16MPYState;
 2443              		.loc 1 75 5 view .LVU963
  76:../Common/IQMath/ti/_IQNatan2.c ****     uint_fast32_t uiqNInputX;
 2444              		.loc 1 76 5 view .LVU964
  77:../Common/IQMath/ti/_IQNatan2.c ****     uint_fast32_t uiqNInputY;
 2445              		.loc 1 77 5 view .LVU965
  78:../Common/IQMath/ti/_IQNatan2.c ****     uint_fast32_t uiq32ResultPU;
 2446              		.loc 1 78 5 view .LVU966
  79:../Common/IQMath/ti/_IQNatan2.c ****     int_fast32_t iqNResult;
 2447              		.loc 1 79 5 view .LVU967
  80:../Common/IQMath/ti/_IQNatan2.c ****     int_fast32_t iq29Result;
ARM GAS  C:\Users\57308\AppData\Local\Temp\ccZcK4bV.s 			page 68


 2448              		.loc 1 80 5 view .LVU968
  81:../Common/IQMath/ti/_IQNatan2.c ****     const int_fast32_t *piq32Coeffs;
 2449              		.loc 1 81 5 view .LVU969
  82:../Common/IQMath/ti/_IQNatan2.c ****     uint_fast32_t uiq31Input;
 2450              		.loc 1 82 5 view .LVU970
  83:../Common/IQMath/ti/_IQNatan2.c ****     
 2451              		.loc 1 83 5 view .LVU971
  94:../Common/IQMath/ti/_IQNatan2.c ****         ui8Status |= 1;
 2452              		.loc 1 94 5 view .LVU972
  94:../Common/IQMath/ti/_IQNatan2.c ****         ui8Status |= 1;
 2453              		.loc 1 94 8 is_stmt 0 view .LVU973
 2454 0004 0028     		cmp	r0, #0
  94:../Common/IQMath/ti/_IQNatan2.c ****         ui8Status |= 1;
 2455              		.loc 1 94 8 view .LVU974
 2456 0006 56DB     		blt	.L123
  73:../Common/IQMath/ti/_IQNatan2.c ****     uint8_t ui8Index;
 2457              		.loc 1 73 13 view .LVU975
 2458 0008 0024     		movs	r4, #0
 2459              	.LVL296:
 2460              	.L114:
  98:../Common/IQMath/ti/_IQNatan2.c ****         ui8Status |= 2;
 2461              		.loc 1 98 5 is_stmt 1 view .LVU976
  98:../Common/IQMath/ti/_IQNatan2.c ****         ui8Status |= 2;
 2462              		.loc 1 98 8 is_stmt 0 view .LVU977
 2463 000a 002B     		cmp	r3, #0
 2464 000c 56DB     		blt	.L124
 2465              	.LVL297:
 2466              	.L115:
 104:../Common/IQMath/ti/_IQNatan2.c ****     uiqNInputY = (uint_fast32_t)iqNInputY;
 2467              		.loc 1 104 5 is_stmt 1 view .LVU978
 105:../Common/IQMath/ti/_IQNatan2.c ****     
 2468              		.loc 1 105 5 view .LVU979
 113:../Common/IQMath/ti/_IQNatan2.c ****         ui8Status |= 4;
 2469              		.loc 1 113 5 view .LVU980
 113:../Common/IQMath/ti/_IQNatan2.c ****         ui8Status |= 4;
 2470              		.loc 1 113 8 is_stmt 0 view .LVU981
 2471 000e 8342     		cmp	r3, r0
 2472 0010 58D2     		bcs	.L116
 114:../Common/IQMath/ti/_IQNatan2.c ****         uiq31Input = _UIQ31div(uiqNInputX, uiqNInputY);
 2473              		.loc 1 114 9 is_stmt 1 view .LVU982
 114:../Common/IQMath/ti/_IQNatan2.c ****         uiq31Input = _UIQ31div(uiqNInputX, uiqNInputY);
 2474              		.loc 1 114 19 is_stmt 0 view .LVU983
 2475 0012 44F00404 		orr	r4, r4, #4
 2476              	.LVL298:
 115:../Common/IQMath/ti/_IQNatan2.c ****     }
 2477              		.loc 1 115 9 is_stmt 1 view .LVU984
 115:../Common/IQMath/ti/_IQNatan2.c ****     }
 2478              		.loc 1 115 22 is_stmt 0 view .LVU985
 2479 0016 0146     		mov	r1, r0
 2480              	.LVL299:
 115:../Common/IQMath/ti/_IQNatan2.c ****     }
 2481              		.loc 1 115 22 view .LVU986
 2482 0018 1846     		mov	r0, r3
 2483              	.LVL300:
 115:../Common/IQMath/ti/_IQNatan2.c ****     }
 2484              		.loc 1 115 22 view .LVU987
 2485 001a FFF7FEFF 		bl	_UIQ31div
ARM GAS  C:\Users\57308\AppData\Local\Temp\ccZcK4bV.s 			page 69


 2486              	.LVL301:
 2487              	.L117:
 122:../Common/IQMath/ti/_IQNatan2.c ****     ui8Index = ui8Index & 0x00fc;
 2488              		.loc 1 122 5 is_stmt 1 view .LVU988
 122:../Common/IQMath/ti/_IQNatan2.c ****     ui8Index = ui8Index & 0x00fc;
 2489              		.loc 1 122 14 is_stmt 0 view .LVU989
 2490 001e 030E     		lsrs	r3, r0, #24
 2491              	.LVL302:
 123:../Common/IQMath/ti/_IQNatan2.c ****     
 2492              		.loc 1 123 5 is_stmt 1 view .LVU990
 123:../Common/IQMath/ti/_IQNatan2.c ****     
 2493              		.loc 1 123 14 is_stmt 0 view .LVU991
 2494 0020 03F0FC03 		and	r3, r3, #252
 2495              	.LVL303:
 126:../Common/IQMath/ti/_IQNatan2.c ****     
 2496              		.loc 1 126 5 is_stmt 1 view .LVU992
 126:../Common/IQMath/ti/_IQNatan2.c ****     
 2497              		.loc 1 126 17 is_stmt 0 view .LVU993
 2498 0024 2949     		ldr	r1, .L125
 2499 0026 01EB8302 		add	r2, r1, r3, lsl #2
 2500              	.LVL304:
 134:../Common/IQMath/ti/_IQNatan2.c ****     
 2501              		.loc 1 134 5 is_stmt 1 view .LVU994
 134:../Common/IQMath/ti/_IQNatan2.c ****     
 2502              		.loc 1 134 5 is_stmt 0 view .LVU995
 2503              	.LBE233:
 2504              	.LBE232:
  28:../Common/IQMath/ti/./support/RTS_support.h **** }
 2505              		.loc 2 28 5 is_stmt 1 view .LVU996
 2506              	.LBB245:
 2507              	.LBB242:
 143:../Common/IQMath/ti/_IQNatan2.c ****     
 2508              		.loc 1 143 5 view .LVU997
 143:../Common/IQMath/ti/_IQNatan2.c ****     
 2509              		.loc 1 143 21 is_stmt 0 view .LVU998
 2510 002a 51F82330 		ldr	r3, [r1, r3, lsl #2]
 2511              	.LVL305:
 2512              	.LBB234:
 2513              	.LBI234:
 233:../Common/IQMath/ti/./support/RTS_support.h **** {
 2514              		.loc 2 233 28 is_stmt 1 view .LVU999
 2515              	.LBB235:
 2516              		.loc 2 235 5 view .LVU1000
 2517              		.loc 2 235 28 is_stmt 0 view .LVU1001
 2518 002e 4FEAE07E 		asr	lr, r0, #31
 2519              		.loc 2 235 49 view .LVU1002
 2520 0032 D917     		asrs	r1, r3, #31
 2521              		.loc 2 235 47 view .LVU1003
 2522 0034 00FB01F1 		mul	r1, r0, r1
 2523 0038 03FB0E11 		mla	r1, r3, lr, r1
 2524 003c A0FB033C 		umull	r3, ip, r0, r3
 2525              	.LVL306:
 2526              		.loc 2 235 47 view .LVU1004
 2527 0040 6144     		add	r1, r1, ip
 2528              		.loc 2 235 69 view .LVU1005
 2529 0042 DB0F     		lsrs	r3, r3, #31
 2530 0044 43EA4103 		orr	r3, r3, r1, lsl #1
ARM GAS  C:\Users\57308\AppData\Local\Temp\ccZcK4bV.s 			page 70


 2531              	.LVL307:
 2532              		.loc 2 235 69 view .LVU1006
 2533              	.LBE235:
 2534              	.LBE234:
 146:../Common/IQMath/ti/_IQNatan2.c ****     
 2535              		.loc 1 146 5 is_stmt 1 view .LVU1007
 146:../Common/IQMath/ti/_IQNatan2.c ****     
 2536              		.loc 1 146 37 is_stmt 0 view .LVU1008
 2537 0048 5168     		ldr	r1, [r2, #4]
 146:../Common/IQMath/ti/_IQNatan2.c ****     
 2538              		.loc 1 146 19 view .LVU1009
 2539 004a 0B44     		add	r3, r3, r1
 2540              	.LVL308:
 149:../Common/IQMath/ti/_IQNatan2.c ****     
 2541              		.loc 1 149 5 is_stmt 1 view .LVU1010
 2542              	.LBB236:
 2543              	.LBI236:
 233:../Common/IQMath/ti/./support/RTS_support.h **** {
 2544              		.loc 2 233 28 view .LVU1011
 2545              	.LBB237:
 2546              		.loc 2 235 5 view .LVU1012
 2547              		.loc 2 235 49 is_stmt 0 view .LVU1013
 2548 004c 4FEAE37C 		asr	ip, r3, #31
 2549              		.loc 2 235 47 view .LVU1014
 2550 0050 00FB0CFC 		mul	ip, r0, ip
 2551 0054 03FB0ECC 		mla	ip, r3, lr, ip
 2552 0058 A0FB0331 		umull	r3, r1, r0, r3
 2553              	.LVL309:
 2554              		.loc 2 235 47 view .LVU1015
 2555 005c 8C44     		add	ip, ip, r1
 2556              		.loc 2 235 69 view .LVU1016
 2557 005e DB0F     		lsrs	r3, r3, #31
 2558 0060 43EA4C03 		orr	r3, r3, ip, lsl #1
 2559              	.LVL310:
 2560              		.loc 2 235 69 view .LVU1017
 2561              	.LBE237:
 2562              	.LBE236:
 152:../Common/IQMath/ti/_IQNatan2.c ****     
 2563              		.loc 1 152 5 is_stmt 1 view .LVU1018
 152:../Common/IQMath/ti/_IQNatan2.c ****     
 2564              		.loc 1 152 37 is_stmt 0 view .LVU1019
 2565 0064 9168     		ldr	r1, [r2, #8]
 152:../Common/IQMath/ti/_IQNatan2.c ****     
 2566              		.loc 1 152 19 view .LVU1020
 2567 0066 0B44     		add	r3, r3, r1
 2568              	.LVL311:
 155:../Common/IQMath/ti/_IQNatan2.c ****     
 2569              		.loc 1 155 5 is_stmt 1 view .LVU1021
 2570              	.LBB238:
 2571              	.LBI238:
 233:../Common/IQMath/ti/./support/RTS_support.h **** {
 2572              		.loc 2 233 28 view .LVU1022
 2573              	.LBB239:
 2574              		.loc 2 235 5 view .LVU1023
 2575              		.loc 2 235 49 is_stmt 0 view .LVU1024
 2576 0068 D917     		asrs	r1, r3, #31
 2577              		.loc 2 235 47 view .LVU1025
ARM GAS  C:\Users\57308\AppData\Local\Temp\ccZcK4bV.s 			page 71


 2578 006a 00FB01F1 		mul	r1, r0, r1
 2579 006e 03FB0E11 		mla	r1, r3, lr, r1
 2580 0072 A0FB0303 		umull	r0, r3, r0, r3
 2581              	.LVL312:
 2582              		.loc 2 235 47 view .LVU1026
 2583 0076 0B44     		add	r3, r3, r1
 2584              		.loc 2 235 69 view .LVU1027
 2585 0078 C00F     		lsrs	r0, r0, #31
 2586 007a 40EA4300 		orr	r0, r0, r3, lsl #1
 2587              	.LVL313:
 2588              		.loc 2 235 69 view .LVU1028
 2589              	.LBE239:
 2590              	.LBE238:
 158:../Common/IQMath/ti/_IQNatan2.c ****     
 2591              		.loc 1 158 5 is_stmt 1 view .LVU1029
 158:../Common/IQMath/ti/_IQNatan2.c ****     
 2592              		.loc 1 158 37 is_stmt 0 view .LVU1030
 2593 007e D368     		ldr	r3, [r2, #12]
 158:../Common/IQMath/ti/_IQNatan2.c ****     
 2594              		.loc 1 158 19 view .LVU1031
 2595 0080 1844     		add	r0, r0, r3
 2596              	.LVL314:
 161:../Common/IQMath/ti/_IQNatan2.c ****         /* atan(y/x) = pi/2 - uiq32ResultPU */
 2597              		.loc 1 161 5 is_stmt 1 view .LVU1032
 161:../Common/IQMath/ti/_IQNatan2.c ****         /* atan(y/x) = pi/2 - uiq32ResultPU */
 2598              		.loc 1 161 8 is_stmt 0 view .LVU1033
 2599 0082 14F0040F 		tst	r4, #4
 2600 0086 01D0     		beq	.L118
 163:../Common/IQMath/ti/_IQNatan2.c ****     }
 2601              		.loc 1 163 9 is_stmt 1 view .LVU1034
 163:../Common/IQMath/ti/_IQNatan2.c ****     }
 2602              		.loc 1 163 23 is_stmt 0 view .LVU1035
 2603 0088 C0F18040 		rsb	r0, r0, #1073741824
 2604              	.LVL315:
 2605              	.L118:
 167:../Common/IQMath/ti/_IQNatan2.c ****         /* atan(y/x) = pi - uiq32ResultPU */
 2606              		.loc 1 167 5 is_stmt 1 view .LVU1036
 167:../Common/IQMath/ti/_IQNatan2.c ****         /* atan(y/x) = pi - uiq32ResultPU */
 2607              		.loc 1 167 8 is_stmt 0 view .LVU1037
 2608 008c 14F0020F 		tst	r4, #2
 2609 0090 01D0     		beq	.L119
 169:../Common/IQMath/ti/_IQNatan2.c ****     }
 2610              		.loc 1 169 9 is_stmt 1 view .LVU1038
 169:../Common/IQMath/ti/_IQNatan2.c ****     }
 2611              		.loc 1 169 23 is_stmt 0 view .LVU1039
 2612 0092 C0F10040 		rsb	r0, r0, #-2147483648
 2613              	.LVL316:
 2614              	.L119:
 173:../Common/IQMath/ti/_IQNatan2.c ****         uiq32ResultPU += (uint_fast32_t)1 << (31 - q_value);
 2615              		.loc 1 173 5 is_stmt 1 view .LVU1040
 183:../Common/IQMath/ti/_IQNatan2.c ****         
 2616              		.loc 1 183 9 view .LVU1041
 2617              	.LBB240:
 2618              	.LBI240:
 233:../Common/IQMath/ti/./support/RTS_support.h **** {
 2619              		.loc 2 233 28 view .LVU1042
 2620              	.LBB241:
ARM GAS  C:\Users\57308\AppData\Local\Temp\ccZcK4bV.s 			page 72


 2621              		.loc 2 235 5 view .LVU1043
 2622              		.loc 2 235 28 is_stmt 0 view .LVU1044
 2623 0096 C117     		asrs	r1, r0, #31
 2624              		.loc 2 235 47 view .LVU1045
 2625 0098 0D4A     		ldr	r2, .L125+4
 2626              	.LVL317:
 2627              		.loc 2 235 47 view .LVU1046
 2628 009a A0FB0203 		umull	r0, r3, r0, r2
 2629              	.LVL318:
 2630              		.loc 2 235 47 view .LVU1047
 2631 009e 02FB0133 		mla	r3, r2, r1, r3
 2632              		.loc 2 235 69 view .LVU1048
 2633 00a2 C00F     		lsrs	r0, r0, #31
 2634 00a4 40EA4300 		orr	r0, r0, r3, lsl #1
 2635              	.LVL319:
 2636              		.loc 2 235 69 view .LVU1049
 2637              	.LBE241:
 2638              	.LBE240:
 186:../Common/IQMath/ti/_IQNatan2.c ****             iq29Result += (uint_fast32_t)1 << (28 - q_value);
 2639              		.loc 1 186 9 is_stmt 1 view .LVU1050
 187:../Common/IQMath/ti/_IQNatan2.c ****         }
 2640              		.loc 1 187 13 view .LVU1051
 187:../Common/IQMath/ti/_IQNatan2.c ****         }
 2641              		.loc 1 187 24 is_stmt 0 view .LVU1052
 2642 00a8 8030     		adds	r0, r0, #128
 2643              	.LVL320:
 189:../Common/IQMath/ti/_IQNatan2.c ****     }
 2644              		.loc 1 189 9 is_stmt 1 view .LVU1053
 189:../Common/IQMath/ti/_IQNatan2.c ****     }
 2645              		.loc 1 189 19 is_stmt 0 view .LVU1054
 2646 00aa 0012     		asrs	r0, r0, #8
 2647              	.LVL321:
 196:../Common/IQMath/ti/_IQNatan2.c ****     
 2648              		.loc 1 196 5 is_stmt 1 view .LVU1055
 196:../Common/IQMath/ti/_IQNatan2.c ****     
 2649              		.loc 1 196 5 is_stmt 0 view .LVU1056
 2650              	.LBE242:
 2651              	.LBE245:
  72:../Common/IQMath/ti/./support/RTS_support.h **** }
 2652              		.loc 2 72 5 is_stmt 1 view .LVU1057
 2653              	.LBB246:
 2654              	.LBB243:
 199:../Common/IQMath/ti/_IQNatan2.c ****         return -iqNResult;
 2655              		.loc 1 199 5 view .LVU1058
 199:../Common/IQMath/ti/_IQNatan2.c ****         return -iqNResult;
 2656              		.loc 1 199 8 is_stmt 0 view .LVU1059
 2657 00ac 14F0010F 		tst	r4, #1
 2658 00b0 00D0     		beq	.L113
 200:../Common/IQMath/ti/_IQNatan2.c ****     }
 2659              		.loc 1 200 9 is_stmt 1 view .LVU1060
 200:../Common/IQMath/ti/_IQNatan2.c ****     }
 2660              		.loc 1 200 16 is_stmt 0 view .LVU1061
 2661 00b2 4042     		rsbs	r0, r0, #0
 2662              	.LVL322:
 2663              	.L113:
 200:../Common/IQMath/ti/_IQNatan2.c ****     }
 2664              		.loc 1 200 16 view .LVU1062
ARM GAS  C:\Users\57308\AppData\Local\Temp\ccZcK4bV.s 			page 73


 2665              	.LBE243:
 2666              	.LBE246:
 431:../Common/IQMath/ti/_IQNatan2.c **** }
 2667              		.loc 1 431 1 view .LVU1063
 2668 00b4 10BD     		pop	{r4, pc}
 2669              	.LVL323:
 2670              	.L123:
 2671              	.LBB247:
 2672              	.LBB244:
  95:../Common/IQMath/ti/_IQNatan2.c ****         iqNInputY = -iqNInputY;
 2673              		.loc 1 95 9 is_stmt 1 view .LVU1064
  96:../Common/IQMath/ti/_IQNatan2.c ****     }
 2674              		.loc 1 96 9 view .LVU1065
  96:../Common/IQMath/ti/_IQNatan2.c ****     }
 2675              		.loc 1 96 19 is_stmt 0 view .LVU1066
 2676 00b6 4042     		rsbs	r0, r0, #0
 2677              	.LVL324:
  95:../Common/IQMath/ti/_IQNatan2.c ****         iqNInputY = -iqNInputY;
 2678              		.loc 1 95 19 view .LVU1067
 2679 00b8 0124     		movs	r4, #1
 2680 00ba A6E7     		b	.L114
 2681              	.LVL325:
 2682              	.L124:
  99:../Common/IQMath/ti/_IQNatan2.c ****         iqNInputX = -iqNInputX;
 2683              		.loc 1 99 9 is_stmt 1 view .LVU1068
  99:../Common/IQMath/ti/_IQNatan2.c ****         iqNInputX = -iqNInputX;
 2684              		.loc 1 99 19 is_stmt 0 view .LVU1069
 2685 00bc 44F00204 		orr	r4, r4, #2
 2686              	.LVL326:
 100:../Common/IQMath/ti/_IQNatan2.c ****     }
 2687              		.loc 1 100 9 is_stmt 1 view .LVU1070
 100:../Common/IQMath/ti/_IQNatan2.c ****     }
 2688              		.loc 1 100 19 is_stmt 0 view .LVU1071
 2689 00c0 5B42     		rsbs	r3, r3, #0
 2690              	.LVL327:
 100:../Common/IQMath/ti/_IQNatan2.c ****     }
 2691              		.loc 1 100 19 view .LVU1072
 2692 00c2 A4E7     		b	.L115
 2693              	.LVL328:
 2694              	.L116:
 118:../Common/IQMath/ti/_IQNatan2.c ****     }
 2695              		.loc 1 118 9 is_stmt 1 view .LVU1073
 118:../Common/IQMath/ti/_IQNatan2.c ****     }
 2696              		.loc 1 118 22 is_stmt 0 view .LVU1074
 2697 00c4 1946     		mov	r1, r3
 2698              	.LVL329:
 118:../Common/IQMath/ti/_IQNatan2.c ****     }
 2699              		.loc 1 118 22 view .LVU1075
 2700 00c6 FFF7FEFF 		bl	_UIQ31div
 2701              	.LVL330:
 118:../Common/IQMath/ti/_IQNatan2.c ****     }
 2702              		.loc 1 118 22 view .LVU1076
 2703 00ca A8E7     		b	.L117
 2704              	.L126:
 2705              		.align	2
 2706              	.L125:
 2707 00cc 00000000 		.word	_IQ32atan_coeffs
ARM GAS  C:\Users\57308\AppData\Local\Temp\ccZcK4bV.s 			page 74


 2708 00d0 51ED8764 		.word	1686629713
 2709              	.LBE244:
 2710              	.LBE247:
 2711              		.cfi_endproc
 2712              	.LFE272:
 2714              		.section	.text._IQ20atan2,"ax",%progbits
 2715              		.align	1
 2716              		.global	_IQ20atan2
 2717              		.syntax unified
 2718              		.thumb
 2719              		.thumb_func
 2721              	_IQ20atan2:
 2722              	.LVL331:
 2723              	.LFB273:
 432:../Common/IQMath/ti/_IQNatan2.c **** /**
 433:../Common/IQMath/ti/_IQNatan2.c ****  * @brief Compute the 4-quadrant arctangent of the IQ20 input 
 434:../Common/IQMath/ti/_IQNatan2.c ****  *        and return the result, in radians.
 435:../Common/IQMath/ti/_IQNatan2.c ****  *
 436:../Common/IQMath/ti/_IQNatan2.c ****  * @param y               IQ20 type input y.
 437:../Common/IQMath/ti/_IQNatan2.c ****  * @param x               IQ20 type input x.
 438:../Common/IQMath/ti/_IQNatan2.c ****  *
 439:../Common/IQMath/ti/_IQNatan2.c ****  * @return                IQ20 type result of 4-quadrant arctangent.
 440:../Common/IQMath/ti/_IQNatan2.c ****  */
 441:../Common/IQMath/ti/_IQNatan2.c **** int32_t _IQ20atan2(int32_t y, int32_t x)
 442:../Common/IQMath/ti/_IQNatan2.c **** {
 2724              		.loc 1 442 1 is_stmt 1 view -0
 2725              		.cfi_startproc
 2726              		@ args = 0, pretend = 0, frame = 0
 2727              		@ frame_needed = 0, uses_anonymous_args = 0
 2728              		.loc 1 442 1 is_stmt 0 view .LVU1078
 2729 0000 10B5     		push	{r4, lr}
 2730              	.LCFI9:
 2731              		.cfi_def_cfa_offset 8
 2732              		.cfi_offset 4, -8
 2733              		.cfi_offset 14, -4
 2734 0002 0B46     		mov	r3, r1
 443:../Common/IQMath/ti/_IQNatan2.c ****     return __IQNatan2(y, x, TYPE_RAD, 20);
 2735              		.loc 1 443 5 is_stmt 1 view .LVU1079
 2736              	.LVL332:
 2737              	.LBB258:
 2738              	.LBI258:
  71:../Common/IQMath/ti/_IQNatan2.c **** {
 2739              		.loc 1 71 30 view .LVU1080
 2740              	.LBB259:
  73:../Common/IQMath/ti/_IQNatan2.c ****     uint8_t ui8Index;
 2741              		.loc 1 73 5 view .LVU1081
  74:../Common/IQMath/ti/_IQNatan2.c ****     uint_fast16_t ui16IntState;
 2742              		.loc 1 74 5 view .LVU1082
  75:../Common/IQMath/ti/_IQNatan2.c ****     uint_fast16_t ui16MPYState;
 2743              		.loc 1 75 5 view .LVU1083
  76:../Common/IQMath/ti/_IQNatan2.c ****     uint_fast32_t uiqNInputX;
 2744              		.loc 1 76 5 view .LVU1084
  77:../Common/IQMath/ti/_IQNatan2.c ****     uint_fast32_t uiqNInputY;
 2745              		.loc 1 77 5 view .LVU1085
  78:../Common/IQMath/ti/_IQNatan2.c ****     uint_fast32_t uiq32ResultPU;
 2746              		.loc 1 78 5 view .LVU1086
  79:../Common/IQMath/ti/_IQNatan2.c ****     int_fast32_t iqNResult;
ARM GAS  C:\Users\57308\AppData\Local\Temp\ccZcK4bV.s 			page 75


 2747              		.loc 1 79 5 view .LVU1087
  80:../Common/IQMath/ti/_IQNatan2.c ****     int_fast32_t iq29Result;
 2748              		.loc 1 80 5 view .LVU1088
  81:../Common/IQMath/ti/_IQNatan2.c ****     const int_fast32_t *piq32Coeffs;
 2749              		.loc 1 81 5 view .LVU1089
  82:../Common/IQMath/ti/_IQNatan2.c ****     uint_fast32_t uiq31Input;
 2750              		.loc 1 82 5 view .LVU1090
  83:../Common/IQMath/ti/_IQNatan2.c ****     
 2751              		.loc 1 83 5 view .LVU1091
  94:../Common/IQMath/ti/_IQNatan2.c ****         ui8Status |= 1;
 2752              		.loc 1 94 5 view .LVU1092
  94:../Common/IQMath/ti/_IQNatan2.c ****         ui8Status |= 1;
 2753              		.loc 1 94 8 is_stmt 0 view .LVU1093
 2754 0004 0028     		cmp	r0, #0
  94:../Common/IQMath/ti/_IQNatan2.c ****         ui8Status |= 1;
 2755              		.loc 1 94 8 view .LVU1094
 2756 0006 57DB     		blt	.L137
  73:../Common/IQMath/ti/_IQNatan2.c ****     uint8_t ui8Index;
 2757              		.loc 1 73 13 view .LVU1095
 2758 0008 0024     		movs	r4, #0
 2759              	.LVL333:
 2760              	.L128:
  98:../Common/IQMath/ti/_IQNatan2.c ****         ui8Status |= 2;
 2761              		.loc 1 98 5 is_stmt 1 view .LVU1096
  98:../Common/IQMath/ti/_IQNatan2.c ****         ui8Status |= 2;
 2762              		.loc 1 98 8 is_stmt 0 view .LVU1097
 2763 000a 002B     		cmp	r3, #0
 2764 000c 57DB     		blt	.L138
 2765              	.LVL334:
 2766              	.L129:
 104:../Common/IQMath/ti/_IQNatan2.c ****     uiqNInputY = (uint_fast32_t)iqNInputY;
 2767              		.loc 1 104 5 is_stmt 1 view .LVU1098
 105:../Common/IQMath/ti/_IQNatan2.c ****     
 2768              		.loc 1 105 5 view .LVU1099
 113:../Common/IQMath/ti/_IQNatan2.c ****         ui8Status |= 4;
 2769              		.loc 1 113 5 view .LVU1100
 113:../Common/IQMath/ti/_IQNatan2.c ****         ui8Status |= 4;
 2770              		.loc 1 113 8 is_stmt 0 view .LVU1101
 2771 000e 8342     		cmp	r3, r0
 2772 0010 59D2     		bcs	.L130
 114:../Common/IQMath/ti/_IQNatan2.c ****         uiq31Input = _UIQ31div(uiqNInputX, uiqNInputY);
 2773              		.loc 1 114 9 is_stmt 1 view .LVU1102
 114:../Common/IQMath/ti/_IQNatan2.c ****         uiq31Input = _UIQ31div(uiqNInputX, uiqNInputY);
 2774              		.loc 1 114 19 is_stmt 0 view .LVU1103
 2775 0012 44F00404 		orr	r4, r4, #4
 2776              	.LVL335:
 115:../Common/IQMath/ti/_IQNatan2.c ****     }
 2777              		.loc 1 115 9 is_stmt 1 view .LVU1104
 115:../Common/IQMath/ti/_IQNatan2.c ****     }
 2778              		.loc 1 115 22 is_stmt 0 view .LVU1105
 2779 0016 0146     		mov	r1, r0
 2780              	.LVL336:
 115:../Common/IQMath/ti/_IQNatan2.c ****     }
 2781              		.loc 1 115 22 view .LVU1106
 2782 0018 1846     		mov	r0, r3
 2783              	.LVL337:
 115:../Common/IQMath/ti/_IQNatan2.c ****     }
ARM GAS  C:\Users\57308\AppData\Local\Temp\ccZcK4bV.s 			page 76


 2784              		.loc 1 115 22 view .LVU1107
 2785 001a FFF7FEFF 		bl	_UIQ31div
 2786              	.LVL338:
 2787              	.L131:
 122:../Common/IQMath/ti/_IQNatan2.c ****     ui8Index = ui8Index & 0x00fc;
 2788              		.loc 1 122 5 is_stmt 1 view .LVU1108
 122:../Common/IQMath/ti/_IQNatan2.c ****     ui8Index = ui8Index & 0x00fc;
 2789              		.loc 1 122 14 is_stmt 0 view .LVU1109
 2790 001e 030E     		lsrs	r3, r0, #24
 2791              	.LVL339:
 123:../Common/IQMath/ti/_IQNatan2.c ****     
 2792              		.loc 1 123 5 is_stmt 1 view .LVU1110
 123:../Common/IQMath/ti/_IQNatan2.c ****     
 2793              		.loc 1 123 14 is_stmt 0 view .LVU1111
 2794 0020 03F0FC03 		and	r3, r3, #252
 2795              	.LVL340:
 126:../Common/IQMath/ti/_IQNatan2.c ****     
 2796              		.loc 1 126 5 is_stmt 1 view .LVU1112
 126:../Common/IQMath/ti/_IQNatan2.c ****     
 2797              		.loc 1 126 17 is_stmt 0 view .LVU1113
 2798 0024 2A49     		ldr	r1, .L139
 2799 0026 01EB8302 		add	r2, r1, r3, lsl #2
 2800              	.LVL341:
 134:../Common/IQMath/ti/_IQNatan2.c ****     
 2801              		.loc 1 134 5 is_stmt 1 view .LVU1114
 134:../Common/IQMath/ti/_IQNatan2.c ****     
 2802              		.loc 1 134 5 is_stmt 0 view .LVU1115
 2803              	.LBE259:
 2804              	.LBE258:
  28:../Common/IQMath/ti/./support/RTS_support.h **** }
 2805              		.loc 2 28 5 is_stmt 1 view .LVU1116
 2806              	.LBB271:
 2807              	.LBB268:
 143:../Common/IQMath/ti/_IQNatan2.c ****     
 2808              		.loc 1 143 5 view .LVU1117
 143:../Common/IQMath/ti/_IQNatan2.c ****     
 2809              		.loc 1 143 21 is_stmt 0 view .LVU1118
 2810 002a 51F82330 		ldr	r3, [r1, r3, lsl #2]
 2811              	.LVL342:
 2812              	.LBB260:
 2813              	.LBI260:
 233:../Common/IQMath/ti/./support/RTS_support.h **** {
 2814              		.loc 2 233 28 is_stmt 1 view .LVU1119
 2815              	.LBB261:
 2816              		.loc 2 235 5 view .LVU1120
 2817              		.loc 2 235 28 is_stmt 0 view .LVU1121
 2818 002e 4FEAE07E 		asr	lr, r0, #31
 2819              		.loc 2 235 49 view .LVU1122
 2820 0032 D917     		asrs	r1, r3, #31
 2821              		.loc 2 235 47 view .LVU1123
 2822 0034 00FB01F1 		mul	r1, r0, r1
 2823 0038 03FB0E11 		mla	r1, r3, lr, r1
 2824 003c A0FB033C 		umull	r3, ip, r0, r3
 2825              	.LVL343:
 2826              		.loc 2 235 47 view .LVU1124
 2827 0040 6144     		add	r1, r1, ip
 2828              		.loc 2 235 69 view .LVU1125
ARM GAS  C:\Users\57308\AppData\Local\Temp\ccZcK4bV.s 			page 77


 2829 0042 DB0F     		lsrs	r3, r3, #31
 2830 0044 43EA4103 		orr	r3, r3, r1, lsl #1
 2831              	.LVL344:
 2832              		.loc 2 235 69 view .LVU1126
 2833              	.LBE261:
 2834              	.LBE260:
 146:../Common/IQMath/ti/_IQNatan2.c ****     
 2835              		.loc 1 146 5 is_stmt 1 view .LVU1127
 146:../Common/IQMath/ti/_IQNatan2.c ****     
 2836              		.loc 1 146 37 is_stmt 0 view .LVU1128
 2837 0048 5168     		ldr	r1, [r2, #4]
 146:../Common/IQMath/ti/_IQNatan2.c ****     
 2838              		.loc 1 146 19 view .LVU1129
 2839 004a 0B44     		add	r3, r3, r1
 2840              	.LVL345:
 149:../Common/IQMath/ti/_IQNatan2.c ****     
 2841              		.loc 1 149 5 is_stmt 1 view .LVU1130
 2842              	.LBB262:
 2843              	.LBI262:
 233:../Common/IQMath/ti/./support/RTS_support.h **** {
 2844              		.loc 2 233 28 view .LVU1131
 2845              	.LBB263:
 2846              		.loc 2 235 5 view .LVU1132
 2847              		.loc 2 235 49 is_stmt 0 view .LVU1133
 2848 004c 4FEAE37C 		asr	ip, r3, #31
 2849              		.loc 2 235 47 view .LVU1134
 2850 0050 00FB0CFC 		mul	ip, r0, ip
 2851 0054 03FB0ECC 		mla	ip, r3, lr, ip
 2852 0058 A0FB0331 		umull	r3, r1, r0, r3
 2853              	.LVL346:
 2854              		.loc 2 235 47 view .LVU1135
 2855 005c 8C44     		add	ip, ip, r1
 2856              		.loc 2 235 69 view .LVU1136
 2857 005e DB0F     		lsrs	r3, r3, #31
 2858 0060 43EA4C03 		orr	r3, r3, ip, lsl #1
 2859              	.LVL347:
 2860              		.loc 2 235 69 view .LVU1137
 2861              	.LBE263:
 2862              	.LBE262:
 152:../Common/IQMath/ti/_IQNatan2.c ****     
 2863              		.loc 1 152 5 is_stmt 1 view .LVU1138
 152:../Common/IQMath/ti/_IQNatan2.c ****     
 2864              		.loc 1 152 37 is_stmt 0 view .LVU1139
 2865 0064 9168     		ldr	r1, [r2, #8]
 152:../Common/IQMath/ti/_IQNatan2.c ****     
 2866              		.loc 1 152 19 view .LVU1140
 2867 0066 0B44     		add	r3, r3, r1
 2868              	.LVL348:
 155:../Common/IQMath/ti/_IQNatan2.c ****     
 2869              		.loc 1 155 5 is_stmt 1 view .LVU1141
 2870              	.LBB264:
 2871              	.LBI264:
 233:../Common/IQMath/ti/./support/RTS_support.h **** {
 2872              		.loc 2 233 28 view .LVU1142
 2873              	.LBB265:
 2874              		.loc 2 235 5 view .LVU1143
 2875              		.loc 2 235 49 is_stmt 0 view .LVU1144
ARM GAS  C:\Users\57308\AppData\Local\Temp\ccZcK4bV.s 			page 78


 2876 0068 D917     		asrs	r1, r3, #31
 2877              		.loc 2 235 47 view .LVU1145
 2878 006a 00FB01F1 		mul	r1, r0, r1
 2879 006e 03FB0E11 		mla	r1, r3, lr, r1
 2880 0072 A0FB0303 		umull	r0, r3, r0, r3
 2881              	.LVL349:
 2882              		.loc 2 235 47 view .LVU1146
 2883 0076 0B44     		add	r3, r3, r1
 2884              		.loc 2 235 69 view .LVU1147
 2885 0078 C00F     		lsrs	r0, r0, #31
 2886 007a 40EA4300 		orr	r0, r0, r3, lsl #1
 2887              	.LVL350:
 2888              		.loc 2 235 69 view .LVU1148
 2889              	.LBE265:
 2890              	.LBE264:
 158:../Common/IQMath/ti/_IQNatan2.c ****     
 2891              		.loc 1 158 5 is_stmt 1 view .LVU1149
 158:../Common/IQMath/ti/_IQNatan2.c ****     
 2892              		.loc 1 158 37 is_stmt 0 view .LVU1150
 2893 007e D368     		ldr	r3, [r2, #12]
 158:../Common/IQMath/ti/_IQNatan2.c ****     
 2894              		.loc 1 158 19 view .LVU1151
 2895 0080 1844     		add	r0, r0, r3
 2896              	.LVL351:
 161:../Common/IQMath/ti/_IQNatan2.c ****         /* atan(y/x) = pi/2 - uiq32ResultPU */
 2897              		.loc 1 161 5 is_stmt 1 view .LVU1152
 161:../Common/IQMath/ti/_IQNatan2.c ****         /* atan(y/x) = pi/2 - uiq32ResultPU */
 2898              		.loc 1 161 8 is_stmt 0 view .LVU1153
 2899 0082 14F0040F 		tst	r4, #4
 2900 0086 01D0     		beq	.L132
 163:../Common/IQMath/ti/_IQNatan2.c ****     }
 2901              		.loc 1 163 9 is_stmt 1 view .LVU1154
 163:../Common/IQMath/ti/_IQNatan2.c ****     }
 2902              		.loc 1 163 23 is_stmt 0 view .LVU1155
 2903 0088 C0F18040 		rsb	r0, r0, #1073741824
 2904              	.LVL352:
 2905              	.L132:
 167:../Common/IQMath/ti/_IQNatan2.c ****         /* atan(y/x) = pi - uiq32ResultPU */
 2906              		.loc 1 167 5 is_stmt 1 view .LVU1156
 167:../Common/IQMath/ti/_IQNatan2.c ****         /* atan(y/x) = pi - uiq32ResultPU */
 2907              		.loc 1 167 8 is_stmt 0 view .LVU1157
 2908 008c 14F0020F 		tst	r4, #2
 2909 0090 01D0     		beq	.L133
 169:../Common/IQMath/ti/_IQNatan2.c ****     }
 2910              		.loc 1 169 9 is_stmt 1 view .LVU1158
 169:../Common/IQMath/ti/_IQNatan2.c ****     }
 2911              		.loc 1 169 23 is_stmt 0 view .LVU1159
 2912 0092 C0F10040 		rsb	r0, r0, #-2147483648
 2913              	.LVL353:
 2914              	.L133:
 173:../Common/IQMath/ti/_IQNatan2.c ****         uiq32ResultPU += (uint_fast32_t)1 << (31 - q_value);
 2915              		.loc 1 173 5 is_stmt 1 view .LVU1160
 183:../Common/IQMath/ti/_IQNatan2.c ****         
 2916              		.loc 1 183 9 view .LVU1161
 2917              	.LBB266:
 2918              	.LBI266:
 233:../Common/IQMath/ti/./support/RTS_support.h **** {
ARM GAS  C:\Users\57308\AppData\Local\Temp\ccZcK4bV.s 			page 79


 2919              		.loc 2 233 28 view .LVU1162
 2920              	.LBB267:
 2921              		.loc 2 235 5 view .LVU1163
 2922              		.loc 2 235 28 is_stmt 0 view .LVU1164
 2923 0096 C117     		asrs	r1, r0, #31
 2924              		.loc 2 235 47 view .LVU1165
 2925 0098 0E4A     		ldr	r2, .L139+4
 2926              	.LVL354:
 2927              		.loc 2 235 47 view .LVU1166
 2928 009a A0FB0203 		umull	r0, r3, r0, r2
 2929              	.LVL355:
 2930              		.loc 2 235 47 view .LVU1167
 2931 009e 02FB0133 		mla	r3, r2, r1, r3
 2932              		.loc 2 235 69 view .LVU1168
 2933 00a2 C00F     		lsrs	r0, r0, #31
 2934 00a4 40EA4300 		orr	r0, r0, r3, lsl #1
 2935              	.LVL356:
 2936              		.loc 2 235 69 view .LVU1169
 2937              	.LBE267:
 2938              	.LBE266:
 186:../Common/IQMath/ti/_IQNatan2.c ****             iq29Result += (uint_fast32_t)1 << (28 - q_value);
 2939              		.loc 1 186 9 is_stmt 1 view .LVU1170
 187:../Common/IQMath/ti/_IQNatan2.c ****         }
 2940              		.loc 1 187 13 view .LVU1171
 187:../Common/IQMath/ti/_IQNatan2.c ****         }
 2941              		.loc 1 187 24 is_stmt 0 view .LVU1172
 2942 00a8 00F58070 		add	r0, r0, #256
 2943              	.LVL357:
 189:../Common/IQMath/ti/_IQNatan2.c ****     }
 2944              		.loc 1 189 9 is_stmt 1 view .LVU1173
 189:../Common/IQMath/ti/_IQNatan2.c ****     }
 2945              		.loc 1 189 19 is_stmt 0 view .LVU1174
 2946 00ac 4012     		asrs	r0, r0, #9
 2947              	.LVL358:
 196:../Common/IQMath/ti/_IQNatan2.c ****     
 2948              		.loc 1 196 5 is_stmt 1 view .LVU1175
 196:../Common/IQMath/ti/_IQNatan2.c ****     
 2949              		.loc 1 196 5 is_stmt 0 view .LVU1176
 2950              	.LBE268:
 2951              	.LBE271:
  72:../Common/IQMath/ti/./support/RTS_support.h **** }
 2952              		.loc 2 72 5 is_stmt 1 view .LVU1177
 2953              	.LBB272:
 2954              	.LBB269:
 199:../Common/IQMath/ti/_IQNatan2.c ****         return -iqNResult;
 2955              		.loc 1 199 5 view .LVU1178
 199:../Common/IQMath/ti/_IQNatan2.c ****         return -iqNResult;
 2956              		.loc 1 199 8 is_stmt 0 view .LVU1179
 2957 00ae 14F0010F 		tst	r4, #1
 2958 00b2 00D0     		beq	.L127
 200:../Common/IQMath/ti/_IQNatan2.c ****     }
 2959              		.loc 1 200 9 is_stmt 1 view .LVU1180
 200:../Common/IQMath/ti/_IQNatan2.c ****     }
 2960              		.loc 1 200 16 is_stmt 0 view .LVU1181
 2961 00b4 4042     		rsbs	r0, r0, #0
 2962              	.LVL359:
 2963              	.L127:
ARM GAS  C:\Users\57308\AppData\Local\Temp\ccZcK4bV.s 			page 80


 200:../Common/IQMath/ti/_IQNatan2.c ****     }
 2964              		.loc 1 200 16 view .LVU1182
 2965              	.LBE269:
 2966              	.LBE272:
 444:../Common/IQMath/ti/_IQNatan2.c **** }
 2967              		.loc 1 444 1 view .LVU1183
 2968 00b6 10BD     		pop	{r4, pc}
 2969              	.LVL360:
 2970              	.L137:
 2971              	.LBB273:
 2972              	.LBB270:
  95:../Common/IQMath/ti/_IQNatan2.c ****         iqNInputY = -iqNInputY;
 2973              		.loc 1 95 9 is_stmt 1 view .LVU1184
  96:../Common/IQMath/ti/_IQNatan2.c ****     }
 2974              		.loc 1 96 9 view .LVU1185
  96:../Common/IQMath/ti/_IQNatan2.c ****     }
 2975              		.loc 1 96 19 is_stmt 0 view .LVU1186
 2976 00b8 4042     		rsbs	r0, r0, #0
 2977              	.LVL361:
  95:../Common/IQMath/ti/_IQNatan2.c ****         iqNInputY = -iqNInputY;
 2978              		.loc 1 95 19 view .LVU1187
 2979 00ba 0124     		movs	r4, #1
 2980 00bc A5E7     		b	.L128
 2981              	.LVL362:
 2982              	.L138:
  99:../Common/IQMath/ti/_IQNatan2.c ****         iqNInputX = -iqNInputX;
 2983              		.loc 1 99 9 is_stmt 1 view .LVU1188
  99:../Common/IQMath/ti/_IQNatan2.c ****         iqNInputX = -iqNInputX;
 2984              		.loc 1 99 19 is_stmt 0 view .LVU1189
 2985 00be 44F00204 		orr	r4, r4, #2
 2986              	.LVL363:
 100:../Common/IQMath/ti/_IQNatan2.c ****     }
 2987              		.loc 1 100 9 is_stmt 1 view .LVU1190
 100:../Common/IQMath/ti/_IQNatan2.c ****     }
 2988              		.loc 1 100 19 is_stmt 0 view .LVU1191
 2989 00c2 5B42     		rsbs	r3, r3, #0
 2990              	.LVL364:
 100:../Common/IQMath/ti/_IQNatan2.c ****     }
 2991              		.loc 1 100 19 view .LVU1192
 2992 00c4 A3E7     		b	.L129
 2993              	.LVL365:
 2994              	.L130:
 118:../Common/IQMath/ti/_IQNatan2.c ****     }
 2995              		.loc 1 118 9 is_stmt 1 view .LVU1193
 118:../Common/IQMath/ti/_IQNatan2.c ****     }
 2996              		.loc 1 118 22 is_stmt 0 view .LVU1194
 2997 00c6 1946     		mov	r1, r3
 2998              	.LVL366:
 118:../Common/IQMath/ti/_IQNatan2.c ****     }
 2999              		.loc 1 118 22 view .LVU1195
 3000 00c8 FFF7FEFF 		bl	_UIQ31div
 3001              	.LVL367:
 118:../Common/IQMath/ti/_IQNatan2.c ****     }
 3002              		.loc 1 118 22 view .LVU1196
 3003 00cc A7E7     		b	.L131
 3004              	.L140:
 3005 00ce 00BF     		.align	2
ARM GAS  C:\Users\57308\AppData\Local\Temp\ccZcK4bV.s 			page 81


 3006              	.L139:
 3007 00d0 00000000 		.word	_IQ32atan_coeffs
 3008 00d4 51ED8764 		.word	1686629713
 3009              	.LBE270:
 3010              	.LBE273:
 3011              		.cfi_endproc
 3012              	.LFE273:
 3014              		.section	.text._IQ19atan2,"ax",%progbits
 3015              		.align	1
 3016              		.global	_IQ19atan2
 3017              		.syntax unified
 3018              		.thumb
 3019              		.thumb_func
 3021              	_IQ19atan2:
 3022              	.LVL368:
 3023              	.LFB274:
 445:../Common/IQMath/ti/_IQNatan2.c **** /**
 446:../Common/IQMath/ti/_IQNatan2.c ****  * @brief Compute the 4-quadrant arctangent of the IQ19 input 
 447:../Common/IQMath/ti/_IQNatan2.c ****  *        and return the result, in radians.
 448:../Common/IQMath/ti/_IQNatan2.c ****  *
 449:../Common/IQMath/ti/_IQNatan2.c ****  * @param y               IQ19 type input y.
 450:../Common/IQMath/ti/_IQNatan2.c ****  * @param x               IQ19 type input x.
 451:../Common/IQMath/ti/_IQNatan2.c ****  *
 452:../Common/IQMath/ti/_IQNatan2.c ****  * @return                IQ19 type result of 4-quadrant arctangent.
 453:../Common/IQMath/ti/_IQNatan2.c ****  */
 454:../Common/IQMath/ti/_IQNatan2.c **** int32_t _IQ19atan2(int32_t y, int32_t x)
 455:../Common/IQMath/ti/_IQNatan2.c **** {
 3024              		.loc 1 455 1 is_stmt 1 view -0
 3025              		.cfi_startproc
 3026              		@ args = 0, pretend = 0, frame = 0
 3027              		@ frame_needed = 0, uses_anonymous_args = 0
 3028              		.loc 1 455 1 is_stmt 0 view .LVU1198
 3029 0000 10B5     		push	{r4, lr}
 3030              	.LCFI10:
 3031              		.cfi_def_cfa_offset 8
 3032              		.cfi_offset 4, -8
 3033              		.cfi_offset 14, -4
 3034 0002 0B46     		mov	r3, r1
 456:../Common/IQMath/ti/_IQNatan2.c ****     return __IQNatan2(y, x, TYPE_RAD, 19);
 3035              		.loc 1 456 5 is_stmt 1 view .LVU1199
 3036              	.LVL369:
 3037              	.LBB284:
 3038              	.LBI284:
  71:../Common/IQMath/ti/_IQNatan2.c **** {
 3039              		.loc 1 71 30 view .LVU1200
 3040              	.LBB285:
  73:../Common/IQMath/ti/_IQNatan2.c ****     uint8_t ui8Index;
 3041              		.loc 1 73 5 view .LVU1201
  74:../Common/IQMath/ti/_IQNatan2.c ****     uint_fast16_t ui16IntState;
 3042              		.loc 1 74 5 view .LVU1202
  75:../Common/IQMath/ti/_IQNatan2.c ****     uint_fast16_t ui16MPYState;
 3043              		.loc 1 75 5 view .LVU1203
  76:../Common/IQMath/ti/_IQNatan2.c ****     uint_fast32_t uiqNInputX;
 3044              		.loc 1 76 5 view .LVU1204
  77:../Common/IQMath/ti/_IQNatan2.c ****     uint_fast32_t uiqNInputY;
 3045              		.loc 1 77 5 view .LVU1205
  78:../Common/IQMath/ti/_IQNatan2.c ****     uint_fast32_t uiq32ResultPU;
ARM GAS  C:\Users\57308\AppData\Local\Temp\ccZcK4bV.s 			page 82


 3046              		.loc 1 78 5 view .LVU1206
  79:../Common/IQMath/ti/_IQNatan2.c ****     int_fast32_t iqNResult;
 3047              		.loc 1 79 5 view .LVU1207
  80:../Common/IQMath/ti/_IQNatan2.c ****     int_fast32_t iq29Result;
 3048              		.loc 1 80 5 view .LVU1208
  81:../Common/IQMath/ti/_IQNatan2.c ****     const int_fast32_t *piq32Coeffs;
 3049              		.loc 1 81 5 view .LVU1209
  82:../Common/IQMath/ti/_IQNatan2.c ****     uint_fast32_t uiq31Input;
 3050              		.loc 1 82 5 view .LVU1210
  83:../Common/IQMath/ti/_IQNatan2.c ****     
 3051              		.loc 1 83 5 view .LVU1211
  94:../Common/IQMath/ti/_IQNatan2.c ****         ui8Status |= 1;
 3052              		.loc 1 94 5 view .LVU1212
  94:../Common/IQMath/ti/_IQNatan2.c ****         ui8Status |= 1;
 3053              		.loc 1 94 8 is_stmt 0 view .LVU1213
 3054 0004 0028     		cmp	r0, #0
  94:../Common/IQMath/ti/_IQNatan2.c ****         ui8Status |= 1;
 3055              		.loc 1 94 8 view .LVU1214
 3056 0006 57DB     		blt	.L151
  73:../Common/IQMath/ti/_IQNatan2.c ****     uint8_t ui8Index;
 3057              		.loc 1 73 13 view .LVU1215
 3058 0008 0024     		movs	r4, #0
 3059              	.LVL370:
 3060              	.L142:
  98:../Common/IQMath/ti/_IQNatan2.c ****         ui8Status |= 2;
 3061              		.loc 1 98 5 is_stmt 1 view .LVU1216
  98:../Common/IQMath/ti/_IQNatan2.c ****         ui8Status |= 2;
 3062              		.loc 1 98 8 is_stmt 0 view .LVU1217
 3063 000a 002B     		cmp	r3, #0
 3064 000c 57DB     		blt	.L152
 3065              	.LVL371:
 3066              	.L143:
 104:../Common/IQMath/ti/_IQNatan2.c ****     uiqNInputY = (uint_fast32_t)iqNInputY;
 3067              		.loc 1 104 5 is_stmt 1 view .LVU1218
 105:../Common/IQMath/ti/_IQNatan2.c ****     
 3068              		.loc 1 105 5 view .LVU1219
 113:../Common/IQMath/ti/_IQNatan2.c ****         ui8Status |= 4;
 3069              		.loc 1 113 5 view .LVU1220
 113:../Common/IQMath/ti/_IQNatan2.c ****         ui8Status |= 4;
 3070              		.loc 1 113 8 is_stmt 0 view .LVU1221
 3071 000e 8342     		cmp	r3, r0
 3072 0010 59D2     		bcs	.L144
 114:../Common/IQMath/ti/_IQNatan2.c ****         uiq31Input = _UIQ31div(uiqNInputX, uiqNInputY);
 3073              		.loc 1 114 9 is_stmt 1 view .LVU1222
 114:../Common/IQMath/ti/_IQNatan2.c ****         uiq31Input = _UIQ31div(uiqNInputX, uiqNInputY);
 3074              		.loc 1 114 19 is_stmt 0 view .LVU1223
 3075 0012 44F00404 		orr	r4, r4, #4
 3076              	.LVL372:
 115:../Common/IQMath/ti/_IQNatan2.c ****     }
 3077              		.loc 1 115 9 is_stmt 1 view .LVU1224
 115:../Common/IQMath/ti/_IQNatan2.c ****     }
 3078              		.loc 1 115 22 is_stmt 0 view .LVU1225
 3079 0016 0146     		mov	r1, r0
 3080              	.LVL373:
 115:../Common/IQMath/ti/_IQNatan2.c ****     }
 3081              		.loc 1 115 22 view .LVU1226
 3082 0018 1846     		mov	r0, r3
ARM GAS  C:\Users\57308\AppData\Local\Temp\ccZcK4bV.s 			page 83


 3083              	.LVL374:
 115:../Common/IQMath/ti/_IQNatan2.c ****     }
 3084              		.loc 1 115 22 view .LVU1227
 3085 001a FFF7FEFF 		bl	_UIQ31div
 3086              	.LVL375:
 3087              	.L145:
 122:../Common/IQMath/ti/_IQNatan2.c ****     ui8Index = ui8Index & 0x00fc;
 3088              		.loc 1 122 5 is_stmt 1 view .LVU1228
 122:../Common/IQMath/ti/_IQNatan2.c ****     ui8Index = ui8Index & 0x00fc;
 3089              		.loc 1 122 14 is_stmt 0 view .LVU1229
 3090 001e 030E     		lsrs	r3, r0, #24
 3091              	.LVL376:
 123:../Common/IQMath/ti/_IQNatan2.c ****     
 3092              		.loc 1 123 5 is_stmt 1 view .LVU1230
 123:../Common/IQMath/ti/_IQNatan2.c ****     
 3093              		.loc 1 123 14 is_stmt 0 view .LVU1231
 3094 0020 03F0FC03 		and	r3, r3, #252
 3095              	.LVL377:
 126:../Common/IQMath/ti/_IQNatan2.c ****     
 3096              		.loc 1 126 5 is_stmt 1 view .LVU1232
 126:../Common/IQMath/ti/_IQNatan2.c ****     
 3097              		.loc 1 126 17 is_stmt 0 view .LVU1233
 3098 0024 2A49     		ldr	r1, .L153
 3099 0026 01EB8302 		add	r2, r1, r3, lsl #2
 3100              	.LVL378:
 134:../Common/IQMath/ti/_IQNatan2.c ****     
 3101              		.loc 1 134 5 is_stmt 1 view .LVU1234
 134:../Common/IQMath/ti/_IQNatan2.c ****     
 3102              		.loc 1 134 5 is_stmt 0 view .LVU1235
 3103              	.LBE285:
 3104              	.LBE284:
  28:../Common/IQMath/ti/./support/RTS_support.h **** }
 3105              		.loc 2 28 5 is_stmt 1 view .LVU1236
 3106              	.LBB297:
 3107              	.LBB294:
 143:../Common/IQMath/ti/_IQNatan2.c ****     
 3108              		.loc 1 143 5 view .LVU1237
 143:../Common/IQMath/ti/_IQNatan2.c ****     
 3109              		.loc 1 143 21 is_stmt 0 view .LVU1238
 3110 002a 51F82330 		ldr	r3, [r1, r3, lsl #2]
 3111              	.LVL379:
 3112              	.LBB286:
 3113              	.LBI286:
 233:../Common/IQMath/ti/./support/RTS_support.h **** {
 3114              		.loc 2 233 28 is_stmt 1 view .LVU1239
 3115              	.LBB287:
 3116              		.loc 2 235 5 view .LVU1240
 3117              		.loc 2 235 28 is_stmt 0 view .LVU1241
 3118 002e 4FEAE07E 		asr	lr, r0, #31
 3119              		.loc 2 235 49 view .LVU1242
 3120 0032 D917     		asrs	r1, r3, #31
 3121              		.loc 2 235 47 view .LVU1243
 3122 0034 00FB01F1 		mul	r1, r0, r1
 3123 0038 03FB0E11 		mla	r1, r3, lr, r1
 3124 003c A0FB033C 		umull	r3, ip, r0, r3
 3125              	.LVL380:
 3126              		.loc 2 235 47 view .LVU1244
ARM GAS  C:\Users\57308\AppData\Local\Temp\ccZcK4bV.s 			page 84


 3127 0040 6144     		add	r1, r1, ip
 3128              		.loc 2 235 69 view .LVU1245
 3129 0042 DB0F     		lsrs	r3, r3, #31
 3130 0044 43EA4103 		orr	r3, r3, r1, lsl #1
 3131              	.LVL381:
 3132              		.loc 2 235 69 view .LVU1246
 3133              	.LBE287:
 3134              	.LBE286:
 146:../Common/IQMath/ti/_IQNatan2.c ****     
 3135              		.loc 1 146 5 is_stmt 1 view .LVU1247
 146:../Common/IQMath/ti/_IQNatan2.c ****     
 3136              		.loc 1 146 37 is_stmt 0 view .LVU1248
 3137 0048 5168     		ldr	r1, [r2, #4]
 146:../Common/IQMath/ti/_IQNatan2.c ****     
 3138              		.loc 1 146 19 view .LVU1249
 3139 004a 0B44     		add	r3, r3, r1
 3140              	.LVL382:
 149:../Common/IQMath/ti/_IQNatan2.c ****     
 3141              		.loc 1 149 5 is_stmt 1 view .LVU1250
 3142              	.LBB288:
 3143              	.LBI288:
 233:../Common/IQMath/ti/./support/RTS_support.h **** {
 3144              		.loc 2 233 28 view .LVU1251
 3145              	.LBB289:
 3146              		.loc 2 235 5 view .LVU1252
 3147              		.loc 2 235 49 is_stmt 0 view .LVU1253
 3148 004c 4FEAE37C 		asr	ip, r3, #31
 3149              		.loc 2 235 47 view .LVU1254
 3150 0050 00FB0CFC 		mul	ip, r0, ip
 3151 0054 03FB0ECC 		mla	ip, r3, lr, ip
 3152 0058 A0FB0331 		umull	r3, r1, r0, r3
 3153              	.LVL383:
 3154              		.loc 2 235 47 view .LVU1255
 3155 005c 8C44     		add	ip, ip, r1
 3156              		.loc 2 235 69 view .LVU1256
 3157 005e DB0F     		lsrs	r3, r3, #31
 3158 0060 43EA4C03 		orr	r3, r3, ip, lsl #1
 3159              	.LVL384:
 3160              		.loc 2 235 69 view .LVU1257
 3161              	.LBE289:
 3162              	.LBE288:
 152:../Common/IQMath/ti/_IQNatan2.c ****     
 3163              		.loc 1 152 5 is_stmt 1 view .LVU1258
 152:../Common/IQMath/ti/_IQNatan2.c ****     
 3164              		.loc 1 152 37 is_stmt 0 view .LVU1259
 3165 0064 9168     		ldr	r1, [r2, #8]
 152:../Common/IQMath/ti/_IQNatan2.c ****     
 3166              		.loc 1 152 19 view .LVU1260
 3167 0066 0B44     		add	r3, r3, r1
 3168              	.LVL385:
 155:../Common/IQMath/ti/_IQNatan2.c ****     
 3169              		.loc 1 155 5 is_stmt 1 view .LVU1261
 3170              	.LBB290:
 3171              	.LBI290:
 233:../Common/IQMath/ti/./support/RTS_support.h **** {
 3172              		.loc 2 233 28 view .LVU1262
 3173              	.LBB291:
ARM GAS  C:\Users\57308\AppData\Local\Temp\ccZcK4bV.s 			page 85


 3174              		.loc 2 235 5 view .LVU1263
 3175              		.loc 2 235 49 is_stmt 0 view .LVU1264
 3176 0068 D917     		asrs	r1, r3, #31
 3177              		.loc 2 235 47 view .LVU1265
 3178 006a 00FB01F1 		mul	r1, r0, r1
 3179 006e 03FB0E11 		mla	r1, r3, lr, r1
 3180 0072 A0FB0303 		umull	r0, r3, r0, r3
 3181              	.LVL386:
 3182              		.loc 2 235 47 view .LVU1266
 3183 0076 0B44     		add	r3, r3, r1
 3184              		.loc 2 235 69 view .LVU1267
 3185 0078 C00F     		lsrs	r0, r0, #31
 3186 007a 40EA4300 		orr	r0, r0, r3, lsl #1
 3187              	.LVL387:
 3188              		.loc 2 235 69 view .LVU1268
 3189              	.LBE291:
 3190              	.LBE290:
 158:../Common/IQMath/ti/_IQNatan2.c ****     
 3191              		.loc 1 158 5 is_stmt 1 view .LVU1269
 158:../Common/IQMath/ti/_IQNatan2.c ****     
 3192              		.loc 1 158 37 is_stmt 0 view .LVU1270
 3193 007e D368     		ldr	r3, [r2, #12]
 158:../Common/IQMath/ti/_IQNatan2.c ****     
 3194              		.loc 1 158 19 view .LVU1271
 3195 0080 1844     		add	r0, r0, r3
 3196              	.LVL388:
 161:../Common/IQMath/ti/_IQNatan2.c ****         /* atan(y/x) = pi/2 - uiq32ResultPU */
 3197              		.loc 1 161 5 is_stmt 1 view .LVU1272
 161:../Common/IQMath/ti/_IQNatan2.c ****         /* atan(y/x) = pi/2 - uiq32ResultPU */
 3198              		.loc 1 161 8 is_stmt 0 view .LVU1273
 3199 0082 14F0040F 		tst	r4, #4
 3200 0086 01D0     		beq	.L146
 163:../Common/IQMath/ti/_IQNatan2.c ****     }
 3201              		.loc 1 163 9 is_stmt 1 view .LVU1274
 163:../Common/IQMath/ti/_IQNatan2.c ****     }
 3202              		.loc 1 163 23 is_stmt 0 view .LVU1275
 3203 0088 C0F18040 		rsb	r0, r0, #1073741824
 3204              	.LVL389:
 3205              	.L146:
 167:../Common/IQMath/ti/_IQNatan2.c ****         /* atan(y/x) = pi - uiq32ResultPU */
 3206              		.loc 1 167 5 is_stmt 1 view .LVU1276
 167:../Common/IQMath/ti/_IQNatan2.c ****         /* atan(y/x) = pi - uiq32ResultPU */
 3207              		.loc 1 167 8 is_stmt 0 view .LVU1277
 3208 008c 14F0020F 		tst	r4, #2
 3209 0090 01D0     		beq	.L147
 169:../Common/IQMath/ti/_IQNatan2.c ****     }
 3210              		.loc 1 169 9 is_stmt 1 view .LVU1278
 169:../Common/IQMath/ti/_IQNatan2.c ****     }
 3211              		.loc 1 169 23 is_stmt 0 view .LVU1279
 3212 0092 C0F10040 		rsb	r0, r0, #-2147483648
 3213              	.LVL390:
 3214              	.L147:
 173:../Common/IQMath/ti/_IQNatan2.c ****         uiq32ResultPU += (uint_fast32_t)1 << (31 - q_value);
 3215              		.loc 1 173 5 is_stmt 1 view .LVU1280
 183:../Common/IQMath/ti/_IQNatan2.c ****         
 3216              		.loc 1 183 9 view .LVU1281
 3217              	.LBB292:
ARM GAS  C:\Users\57308\AppData\Local\Temp\ccZcK4bV.s 			page 86


 3218              	.LBI292:
 233:../Common/IQMath/ti/./support/RTS_support.h **** {
 3219              		.loc 2 233 28 view .LVU1282
 3220              	.LBB293:
 3221              		.loc 2 235 5 view .LVU1283
 3222              		.loc 2 235 28 is_stmt 0 view .LVU1284
 3223 0096 C117     		asrs	r1, r0, #31
 3224              		.loc 2 235 47 view .LVU1285
 3225 0098 0E4A     		ldr	r2, .L153+4
 3226              	.LVL391:
 3227              		.loc 2 235 47 view .LVU1286
 3228 009a A0FB0203 		umull	r0, r3, r0, r2
 3229              	.LVL392:
 3230              		.loc 2 235 47 view .LVU1287
 3231 009e 02FB0133 		mla	r3, r2, r1, r3
 3232              		.loc 2 235 69 view .LVU1288
 3233 00a2 C00F     		lsrs	r0, r0, #31
 3234 00a4 40EA4300 		orr	r0, r0, r3, lsl #1
 3235              	.LVL393:
 3236              		.loc 2 235 69 view .LVU1289
 3237              	.LBE293:
 3238              	.LBE292:
 186:../Common/IQMath/ti/_IQNatan2.c ****             iq29Result += (uint_fast32_t)1 << (28 - q_value);
 3239              		.loc 1 186 9 is_stmt 1 view .LVU1290
 187:../Common/IQMath/ti/_IQNatan2.c ****         }
 3240              		.loc 1 187 13 view .LVU1291
 187:../Common/IQMath/ti/_IQNatan2.c ****         }
 3241              		.loc 1 187 24 is_stmt 0 view .LVU1292
 3242 00a8 00F50070 		add	r0, r0, #512
 3243              	.LVL394:
 189:../Common/IQMath/ti/_IQNatan2.c ****     }
 3244              		.loc 1 189 9 is_stmt 1 view .LVU1293
 189:../Common/IQMath/ti/_IQNatan2.c ****     }
 3245              		.loc 1 189 19 is_stmt 0 view .LVU1294
 3246 00ac 8012     		asrs	r0, r0, #10
 3247              	.LVL395:
 196:../Common/IQMath/ti/_IQNatan2.c ****     
 3248              		.loc 1 196 5 is_stmt 1 view .LVU1295
 196:../Common/IQMath/ti/_IQNatan2.c ****     
 3249              		.loc 1 196 5 is_stmt 0 view .LVU1296
 3250              	.LBE294:
 3251              	.LBE297:
  72:../Common/IQMath/ti/./support/RTS_support.h **** }
 3252              		.loc 2 72 5 is_stmt 1 view .LVU1297
 3253              	.LBB298:
 3254              	.LBB295:
 199:../Common/IQMath/ti/_IQNatan2.c ****         return -iqNResult;
 3255              		.loc 1 199 5 view .LVU1298
 199:../Common/IQMath/ti/_IQNatan2.c ****         return -iqNResult;
 3256              		.loc 1 199 8 is_stmt 0 view .LVU1299
 3257 00ae 14F0010F 		tst	r4, #1
 3258 00b2 00D0     		beq	.L141
 200:../Common/IQMath/ti/_IQNatan2.c ****     }
 3259              		.loc 1 200 9 is_stmt 1 view .LVU1300
 200:../Common/IQMath/ti/_IQNatan2.c ****     }
 3260              		.loc 1 200 16 is_stmt 0 view .LVU1301
 3261 00b4 4042     		rsbs	r0, r0, #0
ARM GAS  C:\Users\57308\AppData\Local\Temp\ccZcK4bV.s 			page 87


 3262              	.LVL396:
 3263              	.L141:
 200:../Common/IQMath/ti/_IQNatan2.c ****     }
 3264              		.loc 1 200 16 view .LVU1302
 3265              	.LBE295:
 3266              	.LBE298:
 457:../Common/IQMath/ti/_IQNatan2.c **** }
 3267              		.loc 1 457 1 view .LVU1303
 3268 00b6 10BD     		pop	{r4, pc}
 3269              	.LVL397:
 3270              	.L151:
 3271              	.LBB299:
 3272              	.LBB296:
  95:../Common/IQMath/ti/_IQNatan2.c ****         iqNInputY = -iqNInputY;
 3273              		.loc 1 95 9 is_stmt 1 view .LVU1304
  96:../Common/IQMath/ti/_IQNatan2.c ****     }
 3274              		.loc 1 96 9 view .LVU1305
  96:../Common/IQMath/ti/_IQNatan2.c ****     }
 3275              		.loc 1 96 19 is_stmt 0 view .LVU1306
 3276 00b8 4042     		rsbs	r0, r0, #0
 3277              	.LVL398:
  95:../Common/IQMath/ti/_IQNatan2.c ****         iqNInputY = -iqNInputY;
 3278              		.loc 1 95 19 view .LVU1307
 3279 00ba 0124     		movs	r4, #1
 3280 00bc A5E7     		b	.L142
 3281              	.LVL399:
 3282              	.L152:
  99:../Common/IQMath/ti/_IQNatan2.c ****         iqNInputX = -iqNInputX;
 3283              		.loc 1 99 9 is_stmt 1 view .LVU1308
  99:../Common/IQMath/ti/_IQNatan2.c ****         iqNInputX = -iqNInputX;
 3284              		.loc 1 99 19 is_stmt 0 view .LVU1309
 3285 00be 44F00204 		orr	r4, r4, #2
 3286              	.LVL400:
 100:../Common/IQMath/ti/_IQNatan2.c ****     }
 3287              		.loc 1 100 9 is_stmt 1 view .LVU1310
 100:../Common/IQMath/ti/_IQNatan2.c ****     }
