ARM GAS  C:\Users\57308\AppData\Local\Temp\ccWnCQ57.s 			page 1


   1              		.cpu cortex-m4
   2              		.arch armv7e-m
   3              		.fpu fpv4-sp-d16
   4              		.eabi_attribute 27, 1
   5              		.eabi_attribute 28, 1
   6              		.eabi_attribute 20, 1
   7              		.eabi_attribute 21, 1
   8              		.eabi_attribute 23, 3
   9              		.eabi_attribute 24, 1
  10              		.eabi_attribute 25, 1
  11              		.eabi_attribute 26, 1
  12              		.eabi_attribute 30, 1
  13              		.eabi_attribute 34, 1
  14              		.eabi_attribute 18, 4
  15              		.file	"_IQNsqrt.c"
  16              		.text
  17              	.Ltext0:
  18              		.cfi_sections	.debug_frame
  19              		.section	.text._IQ31sqrt,"ax",%progbits
  20              		.align	1
  21              		.global	_IQ31sqrt
  22              		.syntax unified
  23              		.thumb
  24              		.thumb_func
  26              	_IQ31sqrt:
  27              	.LVL0:
  28              	.LFB262:
  29              		.file 1 "../Common/IQMath/ti/_IQNsqrt.c"
   1:../Common/IQMath/ti/_IQNsqrt.c **** /*!****************************************************************************
   2:../Common/IQMath/ti/_IQNsqrt.c ****  *  @file       _IQNsqrt.c
   3:../Common/IQMath/ti/_IQNsqrt.c ****  *  @brief      Functions to compute square root, inverse square root and the
   4:../Common/IQMath/ti/_IQNsqrt.c ****  *              magnitude of two IQN inputs.
   5:../Common/IQMath/ti/_IQNsqrt.c ****  *
   6:../Common/IQMath/ti/_IQNsqrt.c ****  *  <hr>
   7:../Common/IQMath/ti/_IQNsqrt.c ****  ******************************************************************************/
   8:../Common/IQMath/ti/_IQNsqrt.c **** 
   9:../Common/IQMath/ti/_IQNsqrt.c **** #include <stdint.h>
  10:../Common/IQMath/ti/_IQNsqrt.c **** 
  11:../Common/IQMath/ti/_IQNsqrt.c **** #include "./support/support.h"
  12:../Common/IQMath/ti/_IQNsqrt.c **** #include "_IQNtables.h"
  13:../Common/IQMath/ti/_IQNsqrt.c **** #include "./IQmathLib.h"
  14:../Common/IQMath/ti/_IQNsqrt.c **** 
  15:../Common/IQMath/ti/_IQNsqrt.c **** /*!
  16:../Common/IQMath/ti/_IQNsqrt.c ****  * @brief Specifies inverse square root operation type.
  17:../Common/IQMath/ti/_IQNsqrt.c ****  */
  18:../Common/IQMath/ti/_IQNsqrt.c **** #define TYPE_ISQRT   (0)
  19:../Common/IQMath/ti/_IQNsqrt.c **** /*!
  20:../Common/IQMath/ti/_IQNsqrt.c ****  * @brief Specifies square root operation type.
  21:../Common/IQMath/ti/_IQNsqrt.c ****  */
  22:../Common/IQMath/ti/_IQNsqrt.c **** #define TYPE_SQRT    (1)
  23:../Common/IQMath/ti/_IQNsqrt.c **** /*!
  24:../Common/IQMath/ti/_IQNsqrt.c ****  * @brief Specifies magnitude operation type.
  25:../Common/IQMath/ti/_IQNsqrt.c ****  */
  26:../Common/IQMath/ti/_IQNsqrt.c **** #define TYPE_MAG     (2)
  27:../Common/IQMath/ti/_IQNsqrt.c **** /*!
  28:../Common/IQMath/ti/_IQNsqrt.c ****  * @brief Specifies inverse magnitude operation type.
  29:../Common/IQMath/ti/_IQNsqrt.c ****  */
ARM GAS  C:\Users\57308\AppData\Local\Temp\ccWnCQ57.s 			page 2


  30:../Common/IQMath/ti/_IQNsqrt.c **** #define TYPE_IMAG    (3)
  31:../Common/IQMath/ti/_IQNsqrt.c **** 
  32:../Common/IQMath/ti/_IQNsqrt.c **** /**
  33:../Common/IQMath/ti/_IQNsqrt.c ****  * @brief Calculate square root, inverse square root and the magnitude of two inputs.
  34:../Common/IQMath/ti/_IQNsqrt.c ****  *
  35:../Common/IQMath/ti/_IQNsqrt.c ****  * @param iqNInputX         IQN type input x.
  36:../Common/IQMath/ti/_IQNsqrt.c ****  * @param iqNInputY         IQN type input y.
  37:../Common/IQMath/ti/_IQNsqrt.c ****  * @param type              Operation type.
  38:../Common/IQMath/ti/_IQNsqrt.c ****  * @param q_value           IQ format.
  39:../Common/IQMath/ti/_IQNsqrt.c ****  *
  40:../Common/IQMath/ti/_IQNsqrt.c ****  * @return                  IQN type result of the square root or magnitude operation.
  41:../Common/IQMath/ti/_IQNsqrt.c ****  */
  42:../Common/IQMath/ti/_IQNsqrt.c **** /*
  43:../Common/IQMath/ti/_IQNsqrt.c ****  * Calculate square root, inverse square root and the magnitude of two inputs
  44:../Common/IQMath/ti/_IQNsqrt.c ****  * using a Newton-Raphson iterative method. This method takes an initial guess
  45:../Common/IQMath/ti/_IQNsqrt.c ****  * and performs an error correction with each iteration. The equation is:
  46:../Common/IQMath/ti/_IQNsqrt.c ****  *
  47:../Common/IQMath/ti/_IQNsqrt.c ****  *     x1 = x0 - f(x0)/f'(x0)
  48:../Common/IQMath/ti/_IQNsqrt.c ****  * 
  49:../Common/IQMath/ti/_IQNsqrt.c ****  * Where f' is the derivative of f. The approximation for inverse square root
  50:../Common/IQMath/ti/_IQNsqrt.c ****  * is:
  51:../Common/IQMath/ti/_IQNsqrt.c ****  *
  52:../Common/IQMath/ti/_IQNsqrt.c ****  *     g' = g * (1.5 - (x/2) * g * g)
  53:../Common/IQMath/ti/_IQNsqrt.c ****  *
  54:../Common/IQMath/ti/_IQNsqrt.c ****  *     g' = new guess approximation
  55:../Common/IQMath/ti/_IQNsqrt.c ****  *     g = best guess approximation
  56:../Common/IQMath/ti/_IQNsqrt.c ****  *     x = input
  57:../Common/IQMath/ti/_IQNsqrt.c ****  *
  58:../Common/IQMath/ti/_IQNsqrt.c ****  * The inverse square root is multiplied by the initial input x to get the
  59:../Common/IQMath/ti/_IQNsqrt.c ****  * square root result for square root and magnitude functions.
  60:../Common/IQMath/ti/_IQNsqrt.c ****  *
  61:../Common/IQMath/ti/_IQNsqrt.c ****  *     root(x) = x * 1/root(x)
  62:../Common/IQMath/ti/_IQNsqrt.c ****  */
  63:../Common/IQMath/ti/_IQNsqrt.c **** #if defined (__TI_COMPILER_VERSION__)
  64:../Common/IQMath/ti/_IQNsqrt.c ****     #pragma FUNC_ALWAYS_INLINE(__IQNsqrt)
  65:../Common/IQMath/ti/_IQNsqrt.c **** #elif defined(__IAR_SYSTEMS_ICC__)
  66:../Common/IQMath/ti/_IQNsqrt.c ****     #pragma inline=forced
  67:../Common/IQMath/ti/_IQNsqrt.c **** #endif
  68:../Common/IQMath/ti/_IQNsqrt.c **** __STATIC_INLINE int_fast32_t __IQNsqrt(int_fast32_t iqNInputX, int_fast32_t iqNInputY, const int8_t
  69:../Common/IQMath/ti/_IQNsqrt.c **** {
  70:../Common/IQMath/ti/_IQNsqrt.c ****     uint8_t ui8Index;
  71:../Common/IQMath/ti/_IQNsqrt.c ****     uint8_t ui8Loops;
  72:../Common/IQMath/ti/_IQNsqrt.c ****     int_fast16_t i16Exponent;
  73:../Common/IQMath/ti/_IQNsqrt.c ****     uint_fast16_t ui16IntState;
  74:../Common/IQMath/ti/_IQNsqrt.c ****     uint_fast16_t ui16MPYState;
  75:../Common/IQMath/ti/_IQNsqrt.c ****     uint_fast32_t uiq30Guess;
  76:../Common/IQMath/ti/_IQNsqrt.c ****     uint_fast32_t uiq30Result;
  77:../Common/IQMath/ti/_IQNsqrt.c ****     uint_fast32_t uiq31Result;
  78:../Common/IQMath/ti/_IQNsqrt.c ****     uint_fast32_t uiq32Input;
  79:../Common/IQMath/ti/_IQNsqrt.c ****     
  80:../Common/IQMath/ti/_IQNsqrt.c ****     /* If the type is (inverse) magnitude we need to calculate x^2 + y^2 first. */
  81:../Common/IQMath/ti/_IQNsqrt.c ****     if (type == TYPE_MAG || type == TYPE_IMAG) {
  82:../Common/IQMath/ti/_IQNsqrt.c ****         uint_fast64_t ui64Sum;
  83:../Common/IQMath/ti/_IQNsqrt.c ****         
  84:../Common/IQMath/ti/_IQNsqrt.c ****         __mpy_start(&ui16IntState, &ui16MPYState);
  85:../Common/IQMath/ti/_IQNsqrt.c ****         
  86:../Common/IQMath/ti/_IQNsqrt.c ****         /* Calculate x^2 */
ARM GAS  C:\Users\57308\AppData\Local\Temp\ccWnCQ57.s 			page 3


  87:../Common/IQMath/ti/_IQNsqrt.c ****         ui64Sum = __mpyx(iqNInputX, iqNInputX);
  88:../Common/IQMath/ti/_IQNsqrt.c ****         
  89:../Common/IQMath/ti/_IQNsqrt.c ****         /* Calculate y^2 and add to x^2 */
  90:../Common/IQMath/ti/_IQNsqrt.c ****         ui64Sum += __mpyx(iqNInputY, iqNInputY);
  91:../Common/IQMath/ti/_IQNsqrt.c ****     
  92:../Common/IQMath/ti/_IQNsqrt.c ****         __mpy_stop(&ui16IntState, &ui16MPYState);
  93:../Common/IQMath/ti/_IQNsqrt.c ****         
  94:../Common/IQMath/ti/_IQNsqrt.c ****         /* Return if the magnitude is simply zero. */
  95:../Common/IQMath/ti/_IQNsqrt.c ****         if (ui64Sum == 0) {
  96:../Common/IQMath/ti/_IQNsqrt.c ****             return 0;
  97:../Common/IQMath/ti/_IQNsqrt.c ****         }
  98:../Common/IQMath/ti/_IQNsqrt.c ****         
  99:../Common/IQMath/ti/_IQNsqrt.c ****         /*
 100:../Common/IQMath/ti/_IQNsqrt.c ****          * Initialize the exponent to positive for magnitude, negative for
 101:../Common/IQMath/ti/_IQNsqrt.c ****          * inverse magnitude.
 102:../Common/IQMath/ti/_IQNsqrt.c ****          */
 103:../Common/IQMath/ti/_IQNsqrt.c ****         if (type == TYPE_MAG) {
 104:../Common/IQMath/ti/_IQNsqrt.c ****             i16Exponent = (32 - q_value);
 105:../Common/IQMath/ti/_IQNsqrt.c ****         }
 106:../Common/IQMath/ti/_IQNsqrt.c ****         else {
 107:../Common/IQMath/ti/_IQNsqrt.c ****             i16Exponent = -(32 - q_value);
 108:../Common/IQMath/ti/_IQNsqrt.c ****         }
 109:../Common/IQMath/ti/_IQNsqrt.c ****         
 110:../Common/IQMath/ti/_IQNsqrt.c ****         /* Shift to iq64 by keeping track of exponent. */
 111:../Common/IQMath/ti/_IQNsqrt.c ****         while ((uint_fast16_t)(ui64Sum >> 48) < 0x4000) {
 112:../Common/IQMath/ti/_IQNsqrt.c ****             ui64Sum <<= 2;
 113:../Common/IQMath/ti/_IQNsqrt.c ****             /* Decrement exponent for mag */
 114:../Common/IQMath/ti/_IQNsqrt.c ****             if (type == TYPE_MAG) {
 115:../Common/IQMath/ti/_IQNsqrt.c ****                 i16Exponent--;
 116:../Common/IQMath/ti/_IQNsqrt.c ****             }
 117:../Common/IQMath/ti/_IQNsqrt.c ****             /* Increment exponent for imag */
 118:../Common/IQMath/ti/_IQNsqrt.c ****             else {
 119:../Common/IQMath/ti/_IQNsqrt.c ****                 i16Exponent++;
 120:../Common/IQMath/ti/_IQNsqrt.c ****             }
 121:../Common/IQMath/ti/_IQNsqrt.c ****         }
 122:../Common/IQMath/ti/_IQNsqrt.c ****         
 123:../Common/IQMath/ti/_IQNsqrt.c ****         /* Shift ui64Sum to unsigned iq32 and set as uiq32Input */
 124:../Common/IQMath/ti/_IQNsqrt.c ****         uiq32Input = (uint_fast32_t)(ui64Sum >> 32);
 125:../Common/IQMath/ti/_IQNsqrt.c ****     }
 126:../Common/IQMath/ti/_IQNsqrt.c ****     else {
 127:../Common/IQMath/ti/_IQNsqrt.c ****         /* check sign of input */
 128:../Common/IQMath/ti/_IQNsqrt.c ****         if (iqNInputX <= 0) {
 129:../Common/IQMath/ti/_IQNsqrt.c ****             return 0;
 130:../Common/IQMath/ti/_IQNsqrt.c ****         }
 131:../Common/IQMath/ti/_IQNsqrt.c ****     
 132:../Common/IQMath/ti/_IQNsqrt.c ****         /* If the q_value gives an odd starting exponent make it even. */
 133:../Common/IQMath/ti/_IQNsqrt.c ****         if ((32 - q_value) % 2 == 1) {
 134:../Common/IQMath/ti/_IQNsqrt.c ****             iqNInputX <<= 1;
 135:../Common/IQMath/ti/_IQNsqrt.c ****             /* Start with positive exponent for sqrt */
 136:../Common/IQMath/ti/_IQNsqrt.c ****             if (type == TYPE_SQRT) {
 137:../Common/IQMath/ti/_IQNsqrt.c ****                 i16Exponent = ((32 - q_value) - 1) >> 1;
 138:../Common/IQMath/ti/_IQNsqrt.c ****             }
 139:../Common/IQMath/ti/_IQNsqrt.c ****             /* start with negative exponent for isqrt */
 140:../Common/IQMath/ti/_IQNsqrt.c ****             else {
 141:../Common/IQMath/ti/_IQNsqrt.c ****                 i16Exponent = -(((32 - q_value) - 1) >> 1);
 142:../Common/IQMath/ti/_IQNsqrt.c ****             }
 143:../Common/IQMath/ti/_IQNsqrt.c ****         }
ARM GAS  C:\Users\57308\AppData\Local\Temp\ccWnCQ57.s 			page 4


 144:../Common/IQMath/ti/_IQNsqrt.c ****         else {
 145:../Common/IQMath/ti/_IQNsqrt.c ****             /* start with positive exponent for sqrt */
 146:../Common/IQMath/ti/_IQNsqrt.c ****             if (type == TYPE_SQRT) {
 147:../Common/IQMath/ti/_IQNsqrt.c ****                 i16Exponent = (32 - q_value) >> 1;
 148:../Common/IQMath/ti/_IQNsqrt.c ****             }
 149:../Common/IQMath/ti/_IQNsqrt.c ****             /* start with negative exponent for isqrt */
 150:../Common/IQMath/ti/_IQNsqrt.c ****             else {
 151:../Common/IQMath/ti/_IQNsqrt.c ****                 i16Exponent = -((32 - q_value) >> 1);
 152:../Common/IQMath/ti/_IQNsqrt.c ****             }
 153:../Common/IQMath/ti/_IQNsqrt.c ****         }
 154:../Common/IQMath/ti/_IQNsqrt.c ****         
 155:../Common/IQMath/ti/_IQNsqrt.c ****         /* Save input as unsigned iq32. */
 156:../Common/IQMath/ti/_IQNsqrt.c ****         uiq32Input = (uint_fast32_t)iqNInputX;
 157:../Common/IQMath/ti/_IQNsqrt.c ****         
 158:../Common/IQMath/ti/_IQNsqrt.c ****         /* Shift to iq32 by keeping track of exponent */
 159:../Common/IQMath/ti/_IQNsqrt.c ****         while ((uint_fast16_t)(uiq32Input >> 16) < 0x4000) {
 160:../Common/IQMath/ti/_IQNsqrt.c ****             uiq32Input <<= 2;
 161:../Common/IQMath/ti/_IQNsqrt.c ****             /* Decrement exponent for sqrt and mag */
 162:../Common/IQMath/ti/_IQNsqrt.c ****             if (type) {
 163:../Common/IQMath/ti/_IQNsqrt.c ****                 i16Exponent--;
 164:../Common/IQMath/ti/_IQNsqrt.c ****             }
 165:../Common/IQMath/ti/_IQNsqrt.c ****             /* Increment exponent for isqrt */
 166:../Common/IQMath/ti/_IQNsqrt.c ****             else {
 167:../Common/IQMath/ti/_IQNsqrt.c ****                 i16Exponent++;
 168:../Common/IQMath/ti/_IQNsqrt.c ****             }
 169:../Common/IQMath/ti/_IQNsqrt.c ****         }
 170:../Common/IQMath/ti/_IQNsqrt.c ****     }
 171:../Common/IQMath/ti/_IQNsqrt.c ****     
 172:../Common/IQMath/ti/_IQNsqrt.c ****     
 173:../Common/IQMath/ti/_IQNsqrt.c ****     /* Use left most byte as index into lookup table (range: 32-128) */
 174:../Common/IQMath/ti/_IQNsqrt.c ****     ui8Index = uiq32Input >> 25;
 175:../Common/IQMath/ti/_IQNsqrt.c ****     ui8Index -= 32;
 176:../Common/IQMath/ti/_IQNsqrt.c ****     uiq30Guess = (uint_fast32_t)_IQ14sqrt_lookup[ui8Index] << 16;
 177:../Common/IQMath/ti/_IQNsqrt.c ****     
 178:../Common/IQMath/ti/_IQNsqrt.c ****     /*
 179:../Common/IQMath/ti/_IQNsqrt.c ****      * Mark the start of any multiplies. This will disable interrupts and set
 180:../Common/IQMath/ti/_IQNsqrt.c ****      * the multiplier to fractional mode. This is designed to reduce overhead
 181:../Common/IQMath/ti/_IQNsqrt.c ****      * of constantly switching states when using repeated multiplies (MSP430
 182:../Common/IQMath/ti/_IQNsqrt.c ****      * only).
 183:../Common/IQMath/ti/_IQNsqrt.c ****      */
 184:../Common/IQMath/ti/_IQNsqrt.c ****     __mpyf_start(&ui16IntState, &ui16MPYState);
 185:../Common/IQMath/ti/_IQNsqrt.c ****     
 186:../Common/IQMath/ti/_IQNsqrt.c ****     /*
 187:../Common/IQMath/ti/_IQNsqrt.c ****      * Set the loop counter:
 188:../Common/IQMath/ti/_IQNsqrt.c ****      *
 189:../Common/IQMath/ti/_IQNsqrt.c ****      *     iq1 <= q_value < 24 - 2 loops
 190:../Common/IQMath/ti/_IQNsqrt.c ****      *     iq22 <= q_value <= 31 - 3 loops
 191:../Common/IQMath/ti/_IQNsqrt.c ****      */
 192:../Common/IQMath/ti/_IQNsqrt.c ****     if (q_value < 24) {
 193:../Common/IQMath/ti/_IQNsqrt.c ****         ui8Loops = 2;
 194:../Common/IQMath/ti/_IQNsqrt.c ****     }
 195:../Common/IQMath/ti/_IQNsqrt.c ****     else {
 196:../Common/IQMath/ti/_IQNsqrt.c ****         ui8Loops = 3;
 197:../Common/IQMath/ti/_IQNsqrt.c ****     }
 198:../Common/IQMath/ti/_IQNsqrt.c **** 
 199:../Common/IQMath/ti/_IQNsqrt.c ****     /* Iterate through Newton-Raphson algorithm. */
 200:../Common/IQMath/ti/_IQNsqrt.c ****     while (ui8Loops--) {
ARM GAS  C:\Users\57308\AppData\Local\Temp\ccWnCQ57.s 			page 5


 201:../Common/IQMath/ti/_IQNsqrt.c ****         /* x*g */
 202:../Common/IQMath/ti/_IQNsqrt.c ****         uiq31Result = __mpyf_ul(uiq32Input, uiq30Guess);
 203:../Common/IQMath/ti/_IQNsqrt.c ****         
 204:../Common/IQMath/ti/_IQNsqrt.c ****         /* x*g*g */
 205:../Common/IQMath/ti/_IQNsqrt.c ****         uiq30Result = __mpyf_ul(uiq31Result, uiq30Guess);
 206:../Common/IQMath/ti/_IQNsqrt.c ****         
 207:../Common/IQMath/ti/_IQNsqrt.c ****         /* 3 - x*g*g */
 208:../Common/IQMath/ti/_IQNsqrt.c ****         uiq30Result = -(uiq30Result - 0xC0000000);
 209:../Common/IQMath/ti/_IQNsqrt.c ****         
 210:../Common/IQMath/ti/_IQNsqrt.c ****         /* 
 211:../Common/IQMath/ti/_IQNsqrt.c ****          * g/2*(3 - x*g*g) 
 212:../Common/IQMath/ti/_IQNsqrt.c ****          * uiq30Guess = uiq31Guess/2
 213:../Common/IQMath/ti/_IQNsqrt.c ****          */
 214:../Common/IQMath/ti/_IQNsqrt.c ****         uiq30Guess = __mpyf_ul(uiq30Guess, uiq30Result);
 215:../Common/IQMath/ti/_IQNsqrt.c ****     }
 216:../Common/IQMath/ti/_IQNsqrt.c ****     
 217:../Common/IQMath/ti/_IQNsqrt.c ****     /* Calculate sqrt(x) for both sqrt and mag */
 218:../Common/IQMath/ti/_IQNsqrt.c ****     if (type == TYPE_SQRT || type == TYPE_MAG) {
 219:../Common/IQMath/ti/_IQNsqrt.c ****         /*
 220:../Common/IQMath/ti/_IQNsqrt.c ****          * uiq30Guess contains the inverse square root approximation, multiply
 221:../Common/IQMath/ti/_IQNsqrt.c ****          * by uiq32Input to get square root result.
 222:../Common/IQMath/ti/_IQNsqrt.c ****          */
 223:../Common/IQMath/ti/_IQNsqrt.c ****         uiq31Result = __mpyf_ul(uiq30Guess, uiq32Input);
 224:../Common/IQMath/ti/_IQNsqrt.c ****     
 225:../Common/IQMath/ti/_IQNsqrt.c ****         __mpy_stop(&ui16IntState, &ui16MPYState);
 226:../Common/IQMath/ti/_IQNsqrt.c ****     
 227:../Common/IQMath/ti/_IQNsqrt.c ****         /*
 228:../Common/IQMath/ti/_IQNsqrt.c ****          * Shift the result right by 31 - q_value.
 229:../Common/IQMath/ti/_IQNsqrt.c ****          */
 230:../Common/IQMath/ti/_IQNsqrt.c ****         i16Exponent -= (31 - q_value);
 231:../Common/IQMath/ti/_IQNsqrt.c ****         
 232:../Common/IQMath/ti/_IQNsqrt.c ****         /* Saturate value for any shift larger than 1 (only need this for mag) */
 233:../Common/IQMath/ti/_IQNsqrt.c ****         if (type == TYPE_MAG) {
 234:../Common/IQMath/ti/_IQNsqrt.c ****             if (i16Exponent > 0) {
 235:../Common/IQMath/ti/_IQNsqrt.c ****                 return 0x7fffffff;
 236:../Common/IQMath/ti/_IQNsqrt.c ****             }
 237:../Common/IQMath/ti/_IQNsqrt.c ****         }
 238:../Common/IQMath/ti/_IQNsqrt.c ****         
 239:../Common/IQMath/ti/_IQNsqrt.c ****         /* Shift left by 1 check only needed for iq30 and iq31 mag/sqrt */
 240:../Common/IQMath/ti/_IQNsqrt.c ****         if (q_value >= 30) {
 241:../Common/IQMath/ti/_IQNsqrt.c ****             if (i16Exponent > 0) {
 242:../Common/IQMath/ti/_IQNsqrt.c ****                 uiq31Result <<= 1;
 243:../Common/IQMath/ti/_IQNsqrt.c ****                 return uiq31Result;
 244:../Common/IQMath/ti/_IQNsqrt.c ****             }
 245:../Common/IQMath/ti/_IQNsqrt.c ****         }
 246:../Common/IQMath/ti/_IQNsqrt.c ****     }
 247:../Common/IQMath/ti/_IQNsqrt.c ****     /* Separate handling for isqrt and imag. */
 248:../Common/IQMath/ti/_IQNsqrt.c ****     else {
 249:../Common/IQMath/ti/_IQNsqrt.c ****         __mpy_stop(&ui16IntState, &ui16MPYState);
 250:../Common/IQMath/ti/_IQNsqrt.c ****         
 251:../Common/IQMath/ti/_IQNsqrt.c ****         /*
 252:../Common/IQMath/ti/_IQNsqrt.c ****          * Shift the result right by 31 - q_value, add one since we use the uiq30
 253:../Common/IQMath/ti/_IQNsqrt.c ****          * result without shifting.
 254:../Common/IQMath/ti/_IQNsqrt.c ****          */
 255:../Common/IQMath/ti/_IQNsqrt.c ****         i16Exponent = i16Exponent - (31 - q_value) + 1;
 256:../Common/IQMath/ti/_IQNsqrt.c ****         uiq31Result = uiq30Guess;
 257:../Common/IQMath/ti/_IQNsqrt.c ****         
ARM GAS  C:\Users\57308\AppData\Local\Temp\ccWnCQ57.s 			page 6


 258:../Common/IQMath/ti/_IQNsqrt.c ****         /* Saturate any positive non-zero exponent for isqrt. */
 259:../Common/IQMath/ti/_IQNsqrt.c ****         if (i16Exponent > 0) {
 260:../Common/IQMath/ti/_IQNsqrt.c ****             return 0x7fffffff;
 261:../Common/IQMath/ti/_IQNsqrt.c ****         }
 262:../Common/IQMath/ti/_IQNsqrt.c ****     }
 263:../Common/IQMath/ti/_IQNsqrt.c ****         
 264:../Common/IQMath/ti/_IQNsqrt.c ****     /* Shift uiq31Result right by -exponent */
 265:../Common/IQMath/ti/_IQNsqrt.c ****     if (i16Exponent <= -32) {
 266:../Common/IQMath/ti/_IQNsqrt.c ****         return 0;
 267:../Common/IQMath/ti/_IQNsqrt.c ****     }
 268:../Common/IQMath/ti/_IQNsqrt.c ****     if (i16Exponent <= -16) {
 269:../Common/IQMath/ti/_IQNsqrt.c ****         uiq31Result >>= 16;
 270:../Common/IQMath/ti/_IQNsqrt.c ****         i16Exponent += 16;
 271:../Common/IQMath/ti/_IQNsqrt.c ****     }
 272:../Common/IQMath/ti/_IQNsqrt.c ****     if (i16Exponent <= -8) {
 273:../Common/IQMath/ti/_IQNsqrt.c ****         uiq31Result >>= 8;
 274:../Common/IQMath/ti/_IQNsqrt.c ****         i16Exponent += 8;
 275:../Common/IQMath/ti/_IQNsqrt.c ****     }
 276:../Common/IQMath/ti/_IQNsqrt.c ****     while (i16Exponent < -1) {
 277:../Common/IQMath/ti/_IQNsqrt.c ****         uiq31Result >>= 1;
 278:../Common/IQMath/ti/_IQNsqrt.c ****         i16Exponent++;
 279:../Common/IQMath/ti/_IQNsqrt.c ****     }
 280:../Common/IQMath/ti/_IQNsqrt.c ****     if (i16Exponent) {
 281:../Common/IQMath/ti/_IQNsqrt.c ****         uiq31Result++;
 282:../Common/IQMath/ti/_IQNsqrt.c ****         uiq31Result >>= 1;
 283:../Common/IQMath/ti/_IQNsqrt.c ****     }        
 284:../Common/IQMath/ti/_IQNsqrt.c ****     
 285:../Common/IQMath/ti/_IQNsqrt.c ****     return uiq31Result;
 286:../Common/IQMath/ti/_IQNsqrt.c **** }
 287:../Common/IQMath/ti/_IQNsqrt.c **** 
 288:../Common/IQMath/ti/_IQNsqrt.c **** #if ((defined (__IQMATH_USE_MATHACL__)) && (defined (__MSPM0_HAS_MATHACL__)))
 289:../Common/IQMath/ti/_IQNsqrt.c **** /**
 290:../Common/IQMath/ti/_IQNsqrt.c ****  * @brief Calculate square root of an  IQN input, using MathACL.
 291:../Common/IQMath/ti/_IQNsqrt.c ****  *
 292:../Common/IQMath/ti/_IQNsqrt.c ****  * @param iqNInputX         IQN type input.
 293:../Common/IQMath/ti/_IQNsqrt.c ****  * @param q_value           IQ format.
 294:../Common/IQMath/ti/_IQNsqrt.c ****  *
 295:../Common/IQMath/ti/_IQNsqrt.c ****  * @return                  IQN type result of the square root operation.
 296:../Common/IQMath/ti/_IQNsqrt.c ****  */
 297:../Common/IQMath/ti/_IQNsqrt.c **** #if defined (__TI_COMPILER_VERSION__)
 298:../Common/IQMath/ti/_IQNsqrt.c ****     #pragma FUNC_ALWAYS_INLINE(__IQNsqrt_MathACL)
 299:../Common/IQMath/ti/_IQNsqrt.c **** #elif defined(__IAR_SYSTEMS_ICC__)
 300:../Common/IQMath/ti/_IQNsqrt.c ****     #pragma inline=forced
 301:../Common/IQMath/ti/_IQNsqrt.c **** #endif
 302:../Common/IQMath/ti/_IQNsqrt.c **** __STATIC_INLINE int_fast32_t __IQNsqrt_MathACL(int_fast32_t iqNInputX, const int8_t q_value)
 303:../Common/IQMath/ti/_IQNsqrt.c **** {
 304:../Common/IQMath/ti/_IQNsqrt.c ****     /* check sign of input */
 305:../Common/IQMath/ti/_IQNsqrt.c ****     if (iqNInputX <= 0) {
 306:../Common/IQMath/ti/_IQNsqrt.c ****         return 0;
 307:../Common/IQMath/ti/_IQNsqrt.c ****     }
 308:../Common/IQMath/ti/_IQNsqrt.c **** 
 309:../Common/IQMath/ti/_IQNsqrt.c ****     /* Scale factor computation:
 310:../Common/IQMath/ti/_IQNsqrt.c ****      * output: IQ30 format value whose square root is to be computed by MATHACL
 311:../Common/IQMath/ti/_IQNsqrt.c ****      * scale_factor: (n) where the input has been divided by 2^(2n) to render IQ30
 312:../Common/IQMath/ti/_IQNsqrt.c ****      * value in the range (1,2). 
 313:../Common/IQMath/ti/_IQNsqrt.c ****      */
 314:../Common/IQMath/ti/_IQNsqrt.c ****     uint32_t input, output;
ARM GAS  C:\Users\57308\AppData\Local\Temp\ccWnCQ57.s 			page 7


 315:../Common/IQMath/ti/_IQNsqrt.c ****     uint8_t scale_factor;
 316:../Common/IQMath/ti/_IQNsqrt.c ****     uint8_t n = 0;
 317:../Common/IQMath/ti/_IQNsqrt.c **** 
 318:../Common/IQMath/ti/_IQNsqrt.c ****     input = iqNInputX;
 319:../Common/IQMath/ti/_IQNsqrt.c ****     /* check input is withing 32-bit boundaries */
 320:../Common/IQMath/ti/_IQNsqrt.c ****     if (input & 0x80000000)
 321:../Common/IQMath/ti/_IQNsqrt.c ****     {
 322:../Common/IQMath/ti/_IQNsqrt.c ****         scale_factor = 0;
 323:../Common/IQMath/ti/_IQNsqrt.c ****         output = input;
 324:../Common/IQMath/ti/_IQNsqrt.c ****     }
 325:../Common/IQMath/ti/_IQNsqrt.c ****     else
 326:../Common/IQMath/ti/_IQNsqrt.c ****     {
 327:../Common/IQMath/ti/_IQNsqrt.c ****         n = 0;
 328:../Common/IQMath/ti/_IQNsqrt.c ****         /* check while input != IQ30(1.0) */
 329:../Common/IQMath/ti/_IQNsqrt.c ****         while ((input & 0x40000000) == 0) {
 330:../Common/IQMath/ti/_IQNsqrt.c ****             n++;
 331:../Common/IQMath/ti/_IQNsqrt.c ****             /* multiply by 2 until reaching IQ30 [1.0,2.0 range] */
 332:../Common/IQMath/ti/_IQNsqrt.c ****             input <<= 1;
 333:../Common/IQMath/ti/_IQNsqrt.c ****         }
 334:../Common/IQMath/ti/_IQNsqrt.c ****         /* 
 335:../Common/IQMath/ti/_IQNsqrt.c ****          * Scale factor: take into account the shift from q_value to IQ30, the remaining value 
 336:../Common/IQMath/ti/_IQNsqrt.c ****          * is the scale factor such that scaled number = (nonscaled number)^(2^scale_factor)
 337:../Common/IQMath/ti/_IQNsqrt.c ****          */
 338:../Common/IQMath/ti/_IQNsqrt.c ****         scale_factor = (30-q_value)-n;
 339:../Common/IQMath/ti/_IQNsqrt.c ****         output = input;
 340:../Common/IQMath/ti/_IQNsqrt.c ****     }
 341:../Common/IQMath/ti/_IQNsqrt.c ****     /* SQRT MATHACL Operation
 342:../Common/IQMath/ti/_IQNsqrt.c ****      * write control 
 343:../Common/IQMath/ti/_IQNsqrt.c ****      * CTL parameters are: sqrt operation | number of iterations | scale factor
 344:../Common/IQMath/ti/_IQNsqrt.c ****      */
 345:../Common/IQMath/ti/_IQNsqrt.c ****     MATHACL->CTL = 5 | (31 << 24) | (scale_factor << 16);
 346:../Common/IQMath/ti/_IQNsqrt.c ****     /* write operands to HWA
 347:../Common/IQMath/ti/_IQNsqrt.c ****      * write to OP1 is the trigger
 348:../Common/IQMath/ti/_IQNsqrt.c ****      */
 349:../Common/IQMath/ti/_IQNsqrt.c ****     MATHACL->OP1 = output;
 350:../Common/IQMath/ti/_IQNsqrt.c ****     /* read sqrt 
 351:../Common/IQMath/ti/_IQNsqrt.c ****      * shift output from IQ16 to q_value 
 352:../Common/IQMath/ti/_IQNsqrt.c ****      */
 353:../Common/IQMath/ti/_IQNsqrt.c ****     if(q_value>16){
 354:../Common/IQMath/ti/_IQNsqrt.c ****         return (uint_fast32_t)MATHACL->RES1 << (q_value - 16);
 355:../Common/IQMath/ti/_IQNsqrt.c ****     }
 356:../Common/IQMath/ti/_IQNsqrt.c ****     else{
 357:../Common/IQMath/ti/_IQNsqrt.c ****         return (uint_fast32_t)MATHACL->RES1 >> (16 - q_value);
 358:../Common/IQMath/ti/_IQNsqrt.c ****     }
 359:../Common/IQMath/ti/_IQNsqrt.c **** }
 360:../Common/IQMath/ti/_IQNsqrt.c **** #endif
 361:../Common/IQMath/ti/_IQNsqrt.c **** 
 362:../Common/IQMath/ti/_IQNsqrt.c **** #if ((!defined (__IQMATH_USE_MATHACL__)) || (!defined (__MSPM0_HAS_MATHACL__)))
 363:../Common/IQMath/ti/_IQNsqrt.c **** /* RTS SQRT */
 364:../Common/IQMath/ti/_IQNsqrt.c **** /**
 365:../Common/IQMath/ti/_IQNsqrt.c ****  * @brief Calculate square root of an IQ31 input.
 366:../Common/IQMath/ti/_IQNsqrt.c ****  *
 367:../Common/IQMath/ti/_IQNsqrt.c ****  * @param a                 IQ31 type input.
 368:../Common/IQMath/ti/_IQNsqrt.c ****  *
 369:../Common/IQMath/ti/_IQNsqrt.c ****  * @return                  IQ31 type result of the square root operation.
 370:../Common/IQMath/ti/_IQNsqrt.c ****  */
 371:../Common/IQMath/ti/_IQNsqrt.c **** int32_t _IQ31sqrt(int32_t a)
ARM GAS  C:\Users\57308\AppData\Local\Temp\ccWnCQ57.s 			page 8


 372:../Common/IQMath/ti/_IQNsqrt.c **** {
  30              		.loc 1 372 1 view -0
  31              		.cfi_startproc
  32              		@ args = 0, pretend = 0, frame = 0
  33              		@ frame_needed = 0, uses_anonymous_args = 0
 373:../Common/IQMath/ti/_IQNsqrt.c ****     return __IQNsqrt(a, 0, 31, TYPE_SQRT);
  34              		.loc 1 373 5 view .LVU1
  35              	.LBB40:
  36              	.LBI40:
  68:../Common/IQMath/ti/_IQNsqrt.c **** {
  37              		.loc 1 68 30 view .LVU2
  38              	.LBB41:
  70:../Common/IQMath/ti/_IQNsqrt.c ****     uint8_t ui8Loops;
  39              		.loc 1 70 5 view .LVU3
  71:../Common/IQMath/ti/_IQNsqrt.c ****     int_fast16_t i16Exponent;
  40              		.loc 1 71 5 view .LVU4
  72:../Common/IQMath/ti/_IQNsqrt.c ****     uint_fast16_t ui16IntState;
  41              		.loc 1 72 5 view .LVU5
  73:../Common/IQMath/ti/_IQNsqrt.c ****     uint_fast16_t ui16MPYState;
  42              		.loc 1 73 5 view .LVU6
  74:../Common/IQMath/ti/_IQNsqrt.c ****     uint_fast32_t uiq30Guess;
  43              		.loc 1 74 5 view .LVU7
  75:../Common/IQMath/ti/_IQNsqrt.c ****     uint_fast32_t uiq30Result;
  44              		.loc 1 75 5 view .LVU8
  76:../Common/IQMath/ti/_IQNsqrt.c ****     uint_fast32_t uiq31Result;
  45              		.loc 1 76 5 view .LVU9
  77:../Common/IQMath/ti/_IQNsqrt.c ****     uint_fast32_t uiq32Input;
  46              		.loc 1 77 5 view .LVU10
  78:../Common/IQMath/ti/_IQNsqrt.c ****     
  47              		.loc 1 78 5 view .LVU11
  81:../Common/IQMath/ti/_IQNsqrt.c ****         uint_fast64_t ui64Sum;
  48              		.loc 1 81 5 view .LVU12
 128:../Common/IQMath/ti/_IQNsqrt.c ****             return 0;
  49              		.loc 1 128 9 view .LVU13
 128:../Common/IQMath/ti/_IQNsqrt.c ****             return 0;
  50              		.loc 1 128 12 is_stmt 0 view .LVU14
  51 0000 0028     		cmp	r0, #0
 128:../Common/IQMath/ti/_IQNsqrt.c ****             return 0;
  52              		.loc 1 128 12 view .LVU15
  53 0002 48DD     		ble	.L13
  54              	.LBE41:
  55              	.LBE40:
 372:../Common/IQMath/ti/_IQNsqrt.c ****     return __IQNsqrt(a, 0, 31, TYPE_SQRT);
  56              		.loc 1 372 1 view .LVU16
  57 0004 10B5     		push	{r4, lr}
  58              	.LCFI0:
  59              		.cfi_def_cfa_offset 8
  60              		.cfi_offset 4, -8
  61              		.cfi_offset 14, -4
  62              	.LBB54:
  63              	.LBB50:
 133:../Common/IQMath/ti/_IQNsqrt.c ****             iqNInputX <<= 1;
  64              		.loc 1 133 9 is_stmt 1 view .LVU17
 134:../Common/IQMath/ti/_IQNsqrt.c ****             /* Start with positive exponent for sqrt */
  65              		.loc 1 134 13 view .LVU18
 134:../Common/IQMath/ti/_IQNsqrt.c ****             /* Start with positive exponent for sqrt */
  66              		.loc 1 134 23 is_stmt 0 view .LVU19
ARM GAS  C:\Users\57308\AppData\Local\Temp\ccWnCQ57.s 			page 9


  67 0006 4000     		lsls	r0, r0, #1
  68              	.LVL1:
 136:../Common/IQMath/ti/_IQNsqrt.c ****                 i16Exponent = ((32 - q_value) - 1) >> 1;
  69              		.loc 1 136 13 is_stmt 1 view .LVU20
 137:../Common/IQMath/ti/_IQNsqrt.c ****             }
  70              		.loc 1 137 17 view .LVU21
 156:../Common/IQMath/ti/_IQNsqrt.c ****         
  71              		.loc 1 156 9 view .LVU22
 159:../Common/IQMath/ti/_IQNsqrt.c ****             uiq32Input <<= 2;
  72              		.loc 1 159 9 view .LVU23
 159:../Common/IQMath/ti/_IQNsqrt.c ****             uiq32Input <<= 2;
  73              		.loc 1 159 15 is_stmt 0 view .LVU24
  74 0008 0024     		movs	r4, #0
  75 000a 01E0     		b	.L3
  76              	.LVL2:
  77              	.L4:
 160:../Common/IQMath/ti/_IQNsqrt.c ****             /* Decrement exponent for sqrt and mag */
  78              		.loc 1 160 13 is_stmt 1 view .LVU25
 160:../Common/IQMath/ti/_IQNsqrt.c ****             /* Decrement exponent for sqrt and mag */
  79              		.loc 1 160 24 is_stmt 0 view .LVU26
  80 000c 8000     		lsls	r0, r0, #2
  81              	.LVL3:
 162:../Common/IQMath/ti/_IQNsqrt.c ****                 i16Exponent--;
  82              		.loc 1 162 13 is_stmt 1 view .LVU27
 163:../Common/IQMath/ti/_IQNsqrt.c ****             }
  83              		.loc 1 163 17 view .LVU28
 163:../Common/IQMath/ti/_IQNsqrt.c ****             }
  84              		.loc 1 163 28 is_stmt 0 view .LVU29
  85 000e 013C     		subs	r4, r4, #1
  86              	.LVL4:
  87              	.L3:
 159:../Common/IQMath/ti/_IQNsqrt.c ****             uiq32Input <<= 2;
  88              		.loc 1 159 15 is_stmt 1 view .LVU30
  89 0010 B0F1804F 		cmp	r0, #1073741824
  90 0014 FAD3     		bcc	.L4
 174:../Common/IQMath/ti/_IQNsqrt.c ****     ui8Index -= 32;
  91              		.loc 1 174 5 view .LVU31
 174:../Common/IQMath/ti/_IQNsqrt.c ****     ui8Index -= 32;
  92              		.loc 1 174 14 is_stmt 0 view .LVU32
  93 0016 430E     		lsrs	r3, r0, #25
  94              	.LVL5:
 175:../Common/IQMath/ti/_IQNsqrt.c ****     uiq30Guess = (uint_fast32_t)_IQ14sqrt_lookup[ui8Index] << 16;
  95              		.loc 1 175 5 is_stmt 1 view .LVU33
 175:../Common/IQMath/ti/_IQNsqrt.c ****     uiq30Guess = (uint_fast32_t)_IQ14sqrt_lookup[ui8Index] << 16;
  96              		.loc 1 175 14 is_stmt 0 view .LVU34
  97 0018 203B     		subs	r3, r3, #32
  98              	.LVL6:
 175:../Common/IQMath/ti/_IQNsqrt.c ****     uiq30Guess = (uint_fast32_t)_IQ14sqrt_lookup[ui8Index] << 16;
  99              		.loc 1 175 14 view .LVU35
 100 001a DBB2     		uxtb	r3, r3
 101              	.LVL7:
 176:../Common/IQMath/ti/_IQNsqrt.c ****     
 102              		.loc 1 176 5 is_stmt 1 view .LVU36
 176:../Common/IQMath/ti/_IQNsqrt.c ****     
 103              		.loc 1 176 49 is_stmt 0 view .LVU37
 104 001c 204A     		ldr	r2, .L21
 105 001e 52F82310 		ldr	r1, [r2, r3, lsl #2]
ARM GAS  C:\Users\57308\AppData\Local\Temp\ccWnCQ57.s 			page 10


 176:../Common/IQMath/ti/_IQNsqrt.c ****     
 106              		.loc 1 176 16 view .LVU38
 107 0022 0904     		lsls	r1, r1, #16
 108              	.LVL8:
 184:../Common/IQMath/ti/_IQNsqrt.c ****     
 109              		.loc 1 184 5 is_stmt 1 view .LVU39
 184:../Common/IQMath/ti/_IQNsqrt.c ****     
 110              		.loc 1 184 5 is_stmt 0 view .LVU40
 111              	.LBE50:
 112              	.LBE54:
 113              		.file 2 "../Common/IQMath/ti/./support/RTS_support.h"
   1:../Common/IQMath/ti/./support/RTS_support.h **** #ifndef __RTS_SUPPORTH__
   2:../Common/IQMath/ti/./support/RTS_support.h **** #define __RTS_SUPPORTH__
   3:../Common/IQMath/ti/./support/RTS_support.h **** 
   4:../Common/IQMath/ti/./support/RTS_support.h **** ////////////////////////////////////////////////////////////
   5:../Common/IQMath/ti/./support/RTS_support.h **** //                                                        //
   6:../Common/IQMath/ti/./support/RTS_support.h **** //              MPY32 control functions.                  //
   7:../Common/IQMath/ti/./support/RTS_support.h **** //                                                        //
   8:../Common/IQMath/ti/./support/RTS_support.h **** ////////////////////////////////////////////////////////////
   9:../Common/IQMath/ti/./support/RTS_support.h **** #if defined (__TI_COMPILER_VERSION__)
  10:../Common/IQMath/ti/./support/RTS_support.h ****     #pragma FUNC_ALWAYS_INLINE(__mpy_start)
  11:../Common/IQMath/ti/./support/RTS_support.h **** #elif defined(__IAR_SYSTEMS_ICC__)
  12:../Common/IQMath/ti/./support/RTS_support.h ****     #pragma inline=forced
  13:../Common/IQMath/ti/./support/RTS_support.h **** #endif
  14:../Common/IQMath/ti/./support/RTS_support.h **** static inline void __mpy_start(uint_fast16_t *ui16IntState, uint_fast16_t *ui16MPYState)
  15:../Common/IQMath/ti/./support/RTS_support.h **** {
  16:../Common/IQMath/ti/./support/RTS_support.h ****     /* Do nothing. */
  17:../Common/IQMath/ti/./support/RTS_support.h ****     return;
  18:../Common/IQMath/ti/./support/RTS_support.h **** }
  19:../Common/IQMath/ti/./support/RTS_support.h **** 
  20:../Common/IQMath/ti/./support/RTS_support.h **** #if defined (__TI_COMPILER_VERSION__)
  21:../Common/IQMath/ti/./support/RTS_support.h ****     #pragma FUNC_ALWAYS_INLINE(__mpyf_start)
  22:../Common/IQMath/ti/./support/RTS_support.h **** #elif defined(__IAR_SYSTEMS_ICC__)
  23:../Common/IQMath/ti/./support/RTS_support.h ****     #pragma inline=forced
  24:../Common/IQMath/ti/./support/RTS_support.h **** #endif
  25:../Common/IQMath/ti/./support/RTS_support.h **** static inline void __mpyf_start(uint_fast16_t *ui16IntState, uint_fast16_t *ui16MPYState)
  26:../Common/IQMath/ti/./support/RTS_support.h **** {
  27:../Common/IQMath/ti/./support/RTS_support.h ****     /* Do nothing. */
  28:../Common/IQMath/ti/./support/RTS_support.h ****     return;
 114              		.loc 2 28 5 is_stmt 1 view .LVU41
 115              	.LBB55:
 116              	.LBB51:
 192:../Common/IQMath/ti/_IQNsqrt.c ****         ui8Loops = 2;
 117              		.loc 1 192 5 view .LVU42
 196:../Common/IQMath/ti/_IQNsqrt.c ****     }
 118              		.loc 1 196 9 view .LVU43
 176:../Common/IQMath/ti/_IQNsqrt.c ****     
 119              		.loc 1 176 16 is_stmt 0 view .LVU44
 120 0024 0323     		movs	r3, #3
 121              	.LVL9:
 176:../Common/IQMath/ti/_IQNsqrt.c ****     
 122              		.loc 1 176 16 view .LVU45
 123 0026 11E0     		b	.L5
 124              	.LVL10:
 125              	.L6:
 202:../Common/IQMath/ti/_IQNsqrt.c ****         
 126              		.loc 1 202 9 is_stmt 1 view .LVU46
ARM GAS  C:\Users\57308\AppData\Local\Temp\ccWnCQ57.s 			page 11


 127              	.LBB42:
 128              	.LBI42:
  29:../Common/IQMath/ti/./support/RTS_support.h **** }
  30:../Common/IQMath/ti/./support/RTS_support.h **** 
  31:../Common/IQMath/ti/./support/RTS_support.h **** #if defined (__TI_COMPILER_VERSION__)
  32:../Common/IQMath/ti/./support/RTS_support.h ****     #pragma FUNC_ALWAYS_INLINE(__mpyfs_start)
  33:../Common/IQMath/ti/./support/RTS_support.h **** #elif defined(__IAR_SYSTEMS_ICC__)
  34:../Common/IQMath/ti/./support/RTS_support.h ****     #pragma inline=forced
  35:../Common/IQMath/ti/./support/RTS_support.h **** #endif
  36:../Common/IQMath/ti/./support/RTS_support.h **** static inline void __mpyfs_start(uint_fast16_t *ui16IntState, uint_fast16_t *ui16MPYState)
  37:../Common/IQMath/ti/./support/RTS_support.h **** {
  38:../Common/IQMath/ti/./support/RTS_support.h ****     /* Do nothing. */
  39:../Common/IQMath/ti/./support/RTS_support.h ****     return;
  40:../Common/IQMath/ti/./support/RTS_support.h **** }
  41:../Common/IQMath/ti/./support/RTS_support.h **** 
  42:../Common/IQMath/ti/./support/RTS_support.h **** #if defined (__TI_COMPILER_VERSION__)
  43:../Common/IQMath/ti/./support/RTS_support.h ****     #pragma FUNC_ALWAYS_INLINE(__mpy_clear_ctl0)
  44:../Common/IQMath/ti/./support/RTS_support.h **** #elif defined(__IAR_SYSTEMS_ICC__)
  45:../Common/IQMath/ti/./support/RTS_support.h ****     #pragma inline=forced
  46:../Common/IQMath/ti/./support/RTS_support.h **** #endif
  47:../Common/IQMath/ti/./support/RTS_support.h **** static inline void __mpy_clear_ctl0(void)
  48:../Common/IQMath/ti/./support/RTS_support.h **** {
  49:../Common/IQMath/ti/./support/RTS_support.h ****     /* Do nothing. */
  50:../Common/IQMath/ti/./support/RTS_support.h ****     return;
  51:../Common/IQMath/ti/./support/RTS_support.h **** }
  52:../Common/IQMath/ti/./support/RTS_support.h **** 
  53:../Common/IQMath/ti/./support/RTS_support.h **** #if defined (__TI_COMPILER_VERSION__)
  54:../Common/IQMath/ti/./support/RTS_support.h ****     #pragma FUNC_ALWAYS_INLINE(__mpy_set_frac)
  55:../Common/IQMath/ti/./support/RTS_support.h **** #elif defined(__IAR_SYSTEMS_ICC__)
  56:../Common/IQMath/ti/./support/RTS_support.h ****     #pragma inline=forced
  57:../Common/IQMath/ti/./support/RTS_support.h **** #endif
  58:../Common/IQMath/ti/./support/RTS_support.h **** static inline void __mpy_set_frac(void)
  59:../Common/IQMath/ti/./support/RTS_support.h **** {
  60:../Common/IQMath/ti/./support/RTS_support.h ****     /* Do nothing. */
  61:../Common/IQMath/ti/./support/RTS_support.h ****     return;
  62:../Common/IQMath/ti/./support/RTS_support.h **** }
  63:../Common/IQMath/ti/./support/RTS_support.h **** 
  64:../Common/IQMath/ti/./support/RTS_support.h **** #if defined (__TI_COMPILER_VERSION__)
  65:../Common/IQMath/ti/./support/RTS_support.h ****     #pragma FUNC_ALWAYS_INLINE(__mpy_stop)
  66:../Common/IQMath/ti/./support/RTS_support.h **** #elif defined(__IAR_SYSTEMS_ICC__)
  67:../Common/IQMath/ti/./support/RTS_support.h ****     #pragma inline=forced
  68:../Common/IQMath/ti/./support/RTS_support.h **** #endif
  69:../Common/IQMath/ti/./support/RTS_support.h **** static inline void __mpy_stop(uint_fast16_t *ui16IntState, uint_fast16_t *ui16MPYState)
  70:../Common/IQMath/ti/./support/RTS_support.h **** {
  71:../Common/IQMath/ti/./support/RTS_support.h ****     /* Do nothing. */
  72:../Common/IQMath/ti/./support/RTS_support.h ****     return;
  73:../Common/IQMath/ti/./support/RTS_support.h **** }
  74:../Common/IQMath/ti/./support/RTS_support.h **** 
  75:../Common/IQMath/ti/./support/RTS_support.h **** ////////////////////////////////////////////////////////////
  76:../Common/IQMath/ti/./support/RTS_support.h **** //                                                        //
  77:../Common/IQMath/ti/./support/RTS_support.h **** //                16-bit functions                        //
  78:../Common/IQMath/ti/./support/RTS_support.h **** //                                                        //
  79:../Common/IQMath/ti/./support/RTS_support.h **** ////////////////////////////////////////////////////////////
  80:../Common/IQMath/ti/./support/RTS_support.h **** #if defined (__TI_COMPILER_VERSION__)
  81:../Common/IQMath/ti/./support/RTS_support.h ****     #pragma FUNC_ALWAYS_INLINE(__mpy_w)
  82:../Common/IQMath/ti/./support/RTS_support.h **** #elif defined(__IAR_SYSTEMS_ICC__)
  83:../Common/IQMath/ti/./support/RTS_support.h ****     #pragma inline=forced
ARM GAS  C:\Users\57308\AppData\Local\Temp\ccWnCQ57.s 			page 12


  84:../Common/IQMath/ti/./support/RTS_support.h **** #endif
  85:../Common/IQMath/ti/./support/RTS_support.h **** static inline int_fast16_t __mpy_w(int_fast16_t arg1, int_fast16_t arg2)
  86:../Common/IQMath/ti/./support/RTS_support.h **** {
  87:../Common/IQMath/ti/./support/RTS_support.h ****     return (arg1 * arg2);
  88:../Common/IQMath/ti/./support/RTS_support.h **** }
  89:../Common/IQMath/ti/./support/RTS_support.h **** 
  90:../Common/IQMath/ti/./support/RTS_support.h **** #if defined (__TI_COMPILER_VERSION__)
  91:../Common/IQMath/ti/./support/RTS_support.h ****     #pragma FUNC_ALWAYS_INLINE(__mpy_uw)
  92:../Common/IQMath/ti/./support/RTS_support.h **** #elif defined(__IAR_SYSTEMS_ICC__)
  93:../Common/IQMath/ti/./support/RTS_support.h ****     #pragma inline=forced
  94:../Common/IQMath/ti/./support/RTS_support.h **** #endif
  95:../Common/IQMath/ti/./support/RTS_support.h **** static inline uint_fast16_t __mpy_uw(uint_fast16_t arg1, uint_fast16_t arg2)
  96:../Common/IQMath/ti/./support/RTS_support.h **** {
  97:../Common/IQMath/ti/./support/RTS_support.h ****     return (arg1 * arg2);
  98:../Common/IQMath/ti/./support/RTS_support.h **** }
  99:../Common/IQMath/ti/./support/RTS_support.h **** 
 100:../Common/IQMath/ti/./support/RTS_support.h **** #if defined (__TI_COMPILER_VERSION__)
 101:../Common/IQMath/ti/./support/RTS_support.h ****     #pragma FUNC_ALWAYS_INLINE(__mpyx_w)
 102:../Common/IQMath/ti/./support/RTS_support.h **** #elif defined(__IAR_SYSTEMS_ICC__)
 103:../Common/IQMath/ti/./support/RTS_support.h ****     #pragma inline=forced
 104:../Common/IQMath/ti/./support/RTS_support.h **** #endif
 105:../Common/IQMath/ti/./support/RTS_support.h **** static inline int_fast32_t __mpyx_w(int_fast16_t arg1, int_fast16_t arg2)
 106:../Common/IQMath/ti/./support/RTS_support.h **** {
 107:../Common/IQMath/ti/./support/RTS_support.h ****     return ((int_fast32_t)arg1 * (int_fast32_t)arg2);
 108:../Common/IQMath/ti/./support/RTS_support.h **** }
 109:../Common/IQMath/ti/./support/RTS_support.h **** 
 110:../Common/IQMath/ti/./support/RTS_support.h **** #if defined (__TI_COMPILER_VERSION__)
 111:../Common/IQMath/ti/./support/RTS_support.h ****     #pragma FUNC_ALWAYS_INLINE(__mpyx_uw)
 112:../Common/IQMath/ti/./support/RTS_support.h **** #elif defined(__IAR_SYSTEMS_ICC__)
 113:../Common/IQMath/ti/./support/RTS_support.h ****     #pragma inline=forced
 114:../Common/IQMath/ti/./support/RTS_support.h **** #endif
 115:../Common/IQMath/ti/./support/RTS_support.h **** static inline uint_fast32_t __mpyx_uw(uint_fast16_t arg1, uint_fast16_t arg2)
 116:../Common/IQMath/ti/./support/RTS_support.h **** {
 117:../Common/IQMath/ti/./support/RTS_support.h ****     return ((uint_fast32_t)arg1 * (uint_fast32_t)arg2);
 118:../Common/IQMath/ti/./support/RTS_support.h **** }
 119:../Common/IQMath/ti/./support/RTS_support.h **** 
 120:../Common/IQMath/ti/./support/RTS_support.h **** #if defined (__TI_COMPILER_VERSION__)
 121:../Common/IQMath/ti/./support/RTS_support.h ****     #pragma FUNC_ALWAYS_INLINE(__mpyf_w)
 122:../Common/IQMath/ti/./support/RTS_support.h **** #elif defined(__IAR_SYSTEMS_ICC__)
 123:../Common/IQMath/ti/./support/RTS_support.h ****     #pragma inline=forced
 124:../Common/IQMath/ti/./support/RTS_support.h **** #endif
 125:../Common/IQMath/ti/./support/RTS_support.h **** static inline int_fast16_t __mpyf_w(int_fast16_t arg1, int_fast16_t arg2)
 126:../Common/IQMath/ti/./support/RTS_support.h **** {
 127:../Common/IQMath/ti/./support/RTS_support.h ****     return (int_fast16_t)(((int_fast32_t)arg1 * (int_fast32_t)arg2) >> 15);
 128:../Common/IQMath/ti/./support/RTS_support.h **** }
 129:../Common/IQMath/ti/./support/RTS_support.h **** 
 130:../Common/IQMath/ti/./support/RTS_support.h **** #if defined (__TI_COMPILER_VERSION__)
 131:../Common/IQMath/ti/./support/RTS_support.h ****     #pragma FUNC_ALWAYS_INLINE(__mpyf_w_reuse_arg1)
 132:../Common/IQMath/ti/./support/RTS_support.h **** #elif defined(__IAR_SYSTEMS_ICC__)
 133:../Common/IQMath/ti/./support/RTS_support.h ****     #pragma inline=forced
 134:../Common/IQMath/ti/./support/RTS_support.h **** #endif
 135:../Common/IQMath/ti/./support/RTS_support.h **** static inline int_fast16_t __mpyf_w_reuse_arg1(int_fast16_t arg1, int_fast16_t arg2)
 136:../Common/IQMath/ti/./support/RTS_support.h **** {
 137:../Common/IQMath/ti/./support/RTS_support.h ****     /* This is identical to __mpyf_w */
 138:../Common/IQMath/ti/./support/RTS_support.h ****     return (int_fast16_t)(((int_fast32_t)arg1 * (int_fast32_t)arg2) >> 15);
 139:../Common/IQMath/ti/./support/RTS_support.h **** }
 140:../Common/IQMath/ti/./support/RTS_support.h **** 
ARM GAS  C:\Users\57308\AppData\Local\Temp\ccWnCQ57.s 			page 13


 141:../Common/IQMath/ti/./support/RTS_support.h **** #if defined (__TI_COMPILER_VERSION__)
 142:../Common/IQMath/ti/./support/RTS_support.h ****     #pragma FUNC_ALWAYS_INLINE(__mpyf_uw)
 143:../Common/IQMath/ti/./support/RTS_support.h **** #elif defined(__IAR_SYSTEMS_ICC__)
 144:../Common/IQMath/ti/./support/RTS_support.h ****     #pragma inline=forced
 145:../Common/IQMath/ti/./support/RTS_support.h **** #endif
 146:../Common/IQMath/ti/./support/RTS_support.h **** static inline uint_fast16_t __mpyf_uw(uint_fast16_t arg1, uint_fast16_t arg2)
 147:../Common/IQMath/ti/./support/RTS_support.h **** {
 148:../Common/IQMath/ti/./support/RTS_support.h ****     return (uint_fast16_t)(((uint_fast32_t)arg1 * (uint_fast32_t)arg2) >> 15);
 149:../Common/IQMath/ti/./support/RTS_support.h **** }
 150:../Common/IQMath/ti/./support/RTS_support.h **** 
 151:../Common/IQMath/ti/./support/RTS_support.h **** #if defined (__TI_COMPILER_VERSION__)
 152:../Common/IQMath/ti/./support/RTS_support.h ****     #pragma FUNC_ALWAYS_INLINE(__mpyf_uw_reuse_arg1)
 153:../Common/IQMath/ti/./support/RTS_support.h **** #elif defined(__IAR_SYSTEMS_ICC__)
 154:../Common/IQMath/ti/./support/RTS_support.h ****     #pragma inline=forced
 155:../Common/IQMath/ti/./support/RTS_support.h **** #endif
 156:../Common/IQMath/ti/./support/RTS_support.h **** static inline uint_fast16_t __mpyf_uw_reuse_arg1(uint_fast16_t arg1, uint_fast16_t arg2)
 157:../Common/IQMath/ti/./support/RTS_support.h **** {
 158:../Common/IQMath/ti/./support/RTS_support.h ****     /* This is identical to __mpyf_uw */
 159:../Common/IQMath/ti/./support/RTS_support.h ****     return (uint_fast16_t)(((uint_fast32_t)arg1 * (uint_fast32_t)arg2) >> 15);
 160:../Common/IQMath/ti/./support/RTS_support.h **** }
 161:../Common/IQMath/ti/./support/RTS_support.h **** 
 162:../Common/IQMath/ti/./support/RTS_support.h **** #if defined (__TI_COMPILER_VERSION__)
 163:../Common/IQMath/ti/./support/RTS_support.h ****     #pragma FUNC_ALWAYS_INLINE(__mpyfx_w)
 164:../Common/IQMath/ti/./support/RTS_support.h **** #elif defined(__IAR_SYSTEMS_ICC__)
 165:../Common/IQMath/ti/./support/RTS_support.h ****     #pragma inline=forced
 166:../Common/IQMath/ti/./support/RTS_support.h **** #endif
 167:../Common/IQMath/ti/./support/RTS_support.h **** static inline int_fast32_t __mpyfx_w(int_fast16_t arg1, int_fast16_t arg2)
 168:../Common/IQMath/ti/./support/RTS_support.h **** {
 169:../Common/IQMath/ti/./support/RTS_support.h ****     return (((int_fast32_t)arg1 * (int_fast32_t)arg2) << 1);
 170:../Common/IQMath/ti/./support/RTS_support.h **** }
 171:../Common/IQMath/ti/./support/RTS_support.h **** 
 172:../Common/IQMath/ti/./support/RTS_support.h **** #if defined (__TI_COMPILER_VERSION__)
 173:../Common/IQMath/ti/./support/RTS_support.h ****     #pragma FUNC_ALWAYS_INLINE(__mpyfx_uw)
 174:../Common/IQMath/ti/./support/RTS_support.h **** #elif defined(__IAR_SYSTEMS_ICC__)
 175:../Common/IQMath/ti/./support/RTS_support.h ****     #pragma inline=forced
 176:../Common/IQMath/ti/./support/RTS_support.h **** #endif
 177:../Common/IQMath/ti/./support/RTS_support.h **** static inline int_fast32_t __mpyfx_uw(uint_fast16_t arg1, uint_fast16_t arg2)
 178:../Common/IQMath/ti/./support/RTS_support.h **** {
 179:../Common/IQMath/ti/./support/RTS_support.h ****     return (((uint_fast32_t)arg1 * (uint_fast32_t)arg2) << 1);
 180:../Common/IQMath/ti/./support/RTS_support.h **** }
 181:../Common/IQMath/ti/./support/RTS_support.h **** 
 182:../Common/IQMath/ti/./support/RTS_support.h **** 
 183:../Common/IQMath/ti/./support/RTS_support.h **** ////////////////////////////////////////////////////////////
 184:../Common/IQMath/ti/./support/RTS_support.h **** //                                                        //
 185:../Common/IQMath/ti/./support/RTS_support.h **** //                 32-bit functions                       //
 186:../Common/IQMath/ti/./support/RTS_support.h **** //                                                        //
 187:../Common/IQMath/ti/./support/RTS_support.h **** ////////////////////////////////////////////////////////////
 188:../Common/IQMath/ti/./support/RTS_support.h **** #if defined (__TI_COMPILER_VERSION__)
 189:../Common/IQMath/ti/./support/RTS_support.h ****     #pragma FUNC_ALWAYS_INLINE(__mpy_l)
 190:../Common/IQMath/ti/./support/RTS_support.h **** #elif defined(__IAR_SYSTEMS_ICC__)
 191:../Common/IQMath/ti/./support/RTS_support.h ****     #pragma inline=forced
 192:../Common/IQMath/ti/./support/RTS_support.h **** #endif
 193:../Common/IQMath/ti/./support/RTS_support.h **** static inline int_fast32_t __mpy_l(int_fast32_t arg1, int_fast32_t arg2)
 194:../Common/IQMath/ti/./support/RTS_support.h **** {
 195:../Common/IQMath/ti/./support/RTS_support.h ****     return (arg1 * arg2);
 196:../Common/IQMath/ti/./support/RTS_support.h **** }
 197:../Common/IQMath/ti/./support/RTS_support.h **** 
ARM GAS  C:\Users\57308\AppData\Local\Temp\ccWnCQ57.s 			page 14


 198:../Common/IQMath/ti/./support/RTS_support.h **** #if defined (__TI_COMPILER_VERSION__)
 199:../Common/IQMath/ti/./support/RTS_support.h ****     #pragma FUNC_ALWAYS_INLINE(__mpy_ul)
 200:../Common/IQMath/ti/./support/RTS_support.h **** #elif defined(__IAR_SYSTEMS_ICC__)
 201:../Common/IQMath/ti/./support/RTS_support.h ****     #pragma inline=forced
 202:../Common/IQMath/ti/./support/RTS_support.h **** #endif
 203:../Common/IQMath/ti/./support/RTS_support.h **** static inline uint_fast32_t __mpy_ul(uint_fast32_t arg1, uint_fast32_t arg2)
 204:../Common/IQMath/ti/./support/RTS_support.h **** {
 205:../Common/IQMath/ti/./support/RTS_support.h ****     return (arg1 * arg2);
 206:../Common/IQMath/ti/./support/RTS_support.h **** }
 207:../Common/IQMath/ti/./support/RTS_support.h **** 
 208:../Common/IQMath/ti/./support/RTS_support.h **** #if defined (__TI_COMPILER_VERSION__)
 209:../Common/IQMath/ti/./support/RTS_support.h ****     #pragma FUNC_ALWAYS_INLINE(__mpyx)
 210:../Common/IQMath/ti/./support/RTS_support.h **** #elif defined(__IAR_SYSTEMS_ICC__)
 211:../Common/IQMath/ti/./support/RTS_support.h ****     #pragma inline=forced
 212:../Common/IQMath/ti/./support/RTS_support.h **** #endif
 213:../Common/IQMath/ti/./support/RTS_support.h **** static inline int_fast64_t __mpyx(int_fast32_t arg1, int_fast32_t arg2)
 214:../Common/IQMath/ti/./support/RTS_support.h **** {
 215:../Common/IQMath/ti/./support/RTS_support.h ****     return ((int_fast64_t)arg1 * (int_fast64_t)arg2);
 216:../Common/IQMath/ti/./support/RTS_support.h **** }
 217:../Common/IQMath/ti/./support/RTS_support.h **** 
 218:../Common/IQMath/ti/./support/RTS_support.h **** #if defined (__TI_COMPILER_VERSION__)
 219:../Common/IQMath/ti/./support/RTS_support.h ****     #pragma FUNC_ALWAYS_INLINE(__mpyx_u)
 220:../Common/IQMath/ti/./support/RTS_support.h **** #elif defined(__IAR_SYSTEMS_ICC__)
 221:../Common/IQMath/ti/./support/RTS_support.h ****     #pragma inline=forced
 222:../Common/IQMath/ti/./support/RTS_support.h **** #endif
 223:../Common/IQMath/ti/./support/RTS_support.h **** static inline uint_fast64_t __mpyx_u(uint_fast32_t arg1, uint_fast32_t arg2)
 224:../Common/IQMath/ti/./support/RTS_support.h **** {
 225:../Common/IQMath/ti/./support/RTS_support.h ****     return ((uint_fast64_t)arg1 * (uint_fast64_t)arg2);
 226:../Common/IQMath/ti/./support/RTS_support.h **** }
 227:../Common/IQMath/ti/./support/RTS_support.h **** 
 228:../Common/IQMath/ti/./support/RTS_support.h **** #if defined (__TI_COMPILER_VERSION__)
 229:../Common/IQMath/ti/./support/RTS_support.h ****     #pragma FUNC_ALWAYS_INLINE(__mpyf_l)
 230:../Common/IQMath/ti/./support/RTS_support.h **** #elif defined(__IAR_SYSTEMS_ICC__)
 231:../Common/IQMath/ti/./support/RTS_support.h ****     #pragma inline=forced
 232:../Common/IQMath/ti/./support/RTS_support.h **** #endif
 233:../Common/IQMath/ti/./support/RTS_support.h **** static inline int_fast32_t __mpyf_l(int_fast32_t arg1, int_fast32_t arg2)
 234:../Common/IQMath/ti/./support/RTS_support.h **** {
 235:../Common/IQMath/ti/./support/RTS_support.h ****     return (int_fast32_t)(((int_fast64_t)arg1 * (int_fast64_t)arg2) >> 31);
 236:../Common/IQMath/ti/./support/RTS_support.h **** }
 237:../Common/IQMath/ti/./support/RTS_support.h **** 
 238:../Common/IQMath/ti/./support/RTS_support.h **** #if defined (__TI_COMPILER_VERSION__)
 239:../Common/IQMath/ti/./support/RTS_support.h ****     #pragma FUNC_ALWAYS_INLINE(__mpyf_l_reuse_arg1)
 240:../Common/IQMath/ti/./support/RTS_support.h **** #elif defined(__IAR_SYSTEMS_ICC__)
 241:../Common/IQMath/ti/./support/RTS_support.h ****     #pragma inline=forced
 242:../Common/IQMath/ti/./support/RTS_support.h **** #endif
 243:../Common/IQMath/ti/./support/RTS_support.h **** static inline int_fast32_t __mpyf_l_reuse_arg1(int_fast32_t arg1, int_fast32_t arg2)
 244:../Common/IQMath/ti/./support/RTS_support.h **** {
 245:../Common/IQMath/ti/./support/RTS_support.h ****     /* This is identical to __mpyf_l */
 246:../Common/IQMath/ti/./support/RTS_support.h ****     return (int_fast32_t)(((int_fast64_t)arg1 * (int_fast64_t)arg2) >> 31);
 247:../Common/IQMath/ti/./support/RTS_support.h **** }
 248:../Common/IQMath/ti/./support/RTS_support.h **** 
 249:../Common/IQMath/ti/./support/RTS_support.h **** #if defined (__TI_COMPILER_VERSION__)
 250:../Common/IQMath/ti/./support/RTS_support.h ****     #pragma FUNC_ALWAYS_INLINE(__mpyf_ul)
 251:../Common/IQMath/ti/./support/RTS_support.h **** #elif defined(__IAR_SYSTEMS_ICC__)
 252:../Common/IQMath/ti/./support/RTS_support.h ****     #pragma inline=forced
 253:../Common/IQMath/ti/./support/RTS_support.h **** #endif
 254:../Common/IQMath/ti/./support/RTS_support.h **** static inline uint_fast32_t __mpyf_ul(uint_fast32_t arg1, uint_fast32_t arg2)
ARM GAS  C:\Users\57308\AppData\Local\Temp\ccWnCQ57.s 			page 15


 129              		.loc 2 254 29 view .LVU47
 130              	.LBB43:
 255:../Common/IQMath/ti/./support/RTS_support.h **** {
 256:../Common/IQMath/ti/./support/RTS_support.h ****     return (uint_fast32_t)(((uint_fast64_t)arg1 * (uint_fast64_t)arg2) >> 31);
 131              		.loc 2 256 5 view .LVU48
 132              		.loc 2 256 49 is_stmt 0 view .LVU49
 133 0028 A0FB012E 		umull	r2, lr, r0, r1
 134              		.loc 2 256 72 view .LVU50
 135 002c D30F     		lsrs	r3, r2, #31
 136 002e 43EA4E03 		orr	r3, r3, lr, lsl #1
 137              	.LVL11:
 138              		.loc 2 256 72 view .LVU51
 139              	.LBE43:
 140              	.LBE42:
 205:../Common/IQMath/ti/_IQNsqrt.c ****         
 141              		.loc 1 205 9 is_stmt 1 view .LVU52
 142              	.LBB44:
 143              	.LBI44:
 254:../Common/IQMath/ti/./support/RTS_support.h **** {
 144              		.loc 2 254 29 view .LVU53
 145              	.LBB45:
 146              		.loc 2 256 5 view .LVU54
 147              		.loc 2 256 49 is_stmt 0 view .LVU55
 148 0032 A3FB0132 		umull	r3, r2, r3, r1
 149              	.LVL12:
 150              		.loc 2 256 72 view .LVU56
 151 0036 DB0F     		lsrs	r3, r3, #31
 152 0038 43EA4203 		orr	r3, r3, r2, lsl #1
 153              	.LVL13:
 154              		.loc 2 256 72 view .LVU57
 155              	.LBE45:
 156              	.LBE44:
 208:../Common/IQMath/ti/_IQNsqrt.c ****         
 157              		.loc 1 208 9 is_stmt 1 view .LVU58
 208:../Common/IQMath/ti/_IQNsqrt.c ****         
 158              		.loc 1 208 21 is_stmt 0 view .LVU59
 159 003c C3F14043 		rsb	r3, r3, #-1073741824
 160              	.LVL14:
 214:../Common/IQMath/ti/_IQNsqrt.c ****     }
 161              		.loc 1 214 9 is_stmt 1 view .LVU60
 162              	.LBB46:
 163              	.LBI46:
 254:../Common/IQMath/ti/./support/RTS_support.h **** {
 164              		.loc 2 254 29 view .LVU61
 165              	.LBB47:
 166              		.loc 2 256 5 view .LVU62
 167              		.loc 2 256 49 is_stmt 0 view .LVU63
 168 0040 A1FB0331 		umull	r3, r1, r1, r3
 169              	.LVL15:
 170              		.loc 2 256 72 view .LVU64
 171 0044 DB0F     		lsrs	r3, r3, #31
 172 0046 43EA4101 		orr	r1, r3, r1, lsl #1
 173              	.LVL16:
 174              		.loc 2 256 72 view .LVU65
 175              	.LBE47:
 176              	.LBE46:
 200:../Common/IQMath/ti/_IQNsqrt.c ****         /* x*g */
ARM GAS  C:\Users\57308\AppData\Local\Temp\ccWnCQ57.s 			page 16


 177              		.loc 1 200 20 view .LVU66
 178 004a 6346     		mov	r3, ip
 179              	.LVL17:
 180              	.L5:
 200:../Common/IQMath/ti/_IQNsqrt.c ****         /* x*g */
 181              		.loc 1 200 11 is_stmt 1 view .LVU67
 200:../Common/IQMath/ti/_IQNsqrt.c ****         /* x*g */
 182              		.loc 1 200 20 is_stmt 0 view .LVU68
 183 004c 5A1E     		subs	r2, r3, #1
 184 004e 5FFA82FC 		uxtb	ip, r2
 185              	.LVL18:
 200:../Common/IQMath/ti/_IQNsqrt.c ****         /* x*g */
 186              		.loc 1 200 11 view .LVU69
 187 0052 002B     		cmp	r3, #0
 188 0054 E8D1     		bne	.L6
 218:../Common/IQMath/ti/_IQNsqrt.c ****         /*
 189              		.loc 1 218 5 is_stmt 1 view .LVU70
 223:../Common/IQMath/ti/_IQNsqrt.c ****     
 190              		.loc 1 223 9 view .LVU71
 191              	.LVL19:
 192              	.LBB48:
 193              	.LBI48:
 254:../Common/IQMath/ti/./support/RTS_support.h **** {
 194              		.loc 2 254 29 view .LVU72
 195              	.LBB49:
 196              		.loc 2 256 5 view .LVU73
 197              		.loc 2 256 49 is_stmt 0 view .LVU74
 198 0056 A1FB0031 		umull	r3, r1, r1, r0
 199              		.loc 2 256 72 view .LVU75
 200 005a D80F     		lsrs	r0, r3, #31
 201              	.LVL20:
 202              		.loc 2 256 72 view .LVU76
 203 005c 40EA4100 		orr	r0, r0, r1, lsl #1
 204              	.LVL21:
 205              		.loc 2 256 72 view .LVU77
 206              	.LBE49:
 207              	.LBE48:
 225:../Common/IQMath/ti/_IQNsqrt.c ****     
 208              		.loc 1 225 9 is_stmt 1 view .LVU78
 225:../Common/IQMath/ti/_IQNsqrt.c ****     
 209              		.loc 1 225 9 is_stmt 0 view .LVU79
 210              	.LBE51:
 211              	.LBE55:
  72:../Common/IQMath/ti/./support/RTS_support.h **** }
 212              		.loc 2 72 5 is_stmt 1 view .LVU80
 213              	.LBB56:
 214              	.LBB52:
 230:../Common/IQMath/ti/_IQNsqrt.c ****         
 215              		.loc 1 230 9 view .LVU81
 233:../Common/IQMath/ti/_IQNsqrt.c ****             if (i16Exponent > 0) {
 216              		.loc 1 233 9 view .LVU82
 240:../Common/IQMath/ti/_IQNsqrt.c ****             if (i16Exponent > 0) {
 217              		.loc 1 240 9 view .LVU83
 241:../Common/IQMath/ti/_IQNsqrt.c ****                 uiq31Result <<= 1;
 218              		.loc 1 241 13 view .LVU84
 241:../Common/IQMath/ti/_IQNsqrt.c ****                 uiq31Result <<= 1;
 219              		.loc 1 241 16 is_stmt 0 view .LVU85
ARM GAS  C:\Users\57308\AppData\Local\Temp\ccWnCQ57.s 			page 17


 220 0060 002C     		cmp	r4, #0
 221 0062 12DC     		bgt	.L19
 265:../Common/IQMath/ti/_IQNsqrt.c ****         return 0;
 222              		.loc 1 265 5 is_stmt 1 view .LVU86
 265:../Common/IQMath/ti/_IQNsqrt.c ****         return 0;
 223              		.loc 1 265 8 is_stmt 0 view .LVU87
 224 0064 14F11F0F 		cmn	r4, #31
 225 0068 17DB     		blt	.L14
 268:../Common/IQMath/ti/_IQNsqrt.c ****         uiq31Result >>= 16;
 226              		.loc 1 268 5 is_stmt 1 view .LVU88
 268:../Common/IQMath/ti/_IQNsqrt.c ****         uiq31Result >>= 16;
 227              		.loc 1 268 8 is_stmt 0 view .LVU89
 228 006a 14F10F0F 		cmn	r4, #15
 229 006e 01DA     		bge	.L8
 269:../Common/IQMath/ti/_IQNsqrt.c ****         i16Exponent += 16;
 230              		.loc 1 269 9 is_stmt 1 view .LVU90
 269:../Common/IQMath/ti/_IQNsqrt.c ****         i16Exponent += 16;
 231              		.loc 1 269 21 is_stmt 0 view .LVU91
 232 0070 000C     		lsrs	r0, r0, #16
 233              	.LVL22:
 270:../Common/IQMath/ti/_IQNsqrt.c ****     }
 234              		.loc 1 270 9 is_stmt 1 view .LVU92
 270:../Common/IQMath/ti/_IQNsqrt.c ****     }
 235              		.loc 1 270 21 is_stmt 0 view .LVU93
 236 0072 1034     		adds	r4, r4, #16
 237              	.LVL23:
 238              	.L8:
 272:../Common/IQMath/ti/_IQNsqrt.c ****         uiq31Result >>= 8;
 239              		.loc 1 272 5 is_stmt 1 view .LVU94
 272:../Common/IQMath/ti/_IQNsqrt.c ****         uiq31Result >>= 8;
 240              		.loc 1 272 8 is_stmt 0 view .LVU95
 241 0074 14F1070F 		cmn	r4, #7
 242 0078 01DA     		bge	.L10
 273:../Common/IQMath/ti/_IQNsqrt.c ****         i16Exponent += 8;
 243              		.loc 1 273 9 is_stmt 1 view .LVU96
 273:../Common/IQMath/ti/_IQNsqrt.c ****         i16Exponent += 8;
 244              		.loc 1 273 21 is_stmt 0 view .LVU97
 245 007a 000A     		lsrs	r0, r0, #8
 246              	.LVL24:
 274:../Common/IQMath/ti/_IQNsqrt.c ****     }
 247              		.loc 1 274 9 is_stmt 1 view .LVU98
 274:../Common/IQMath/ti/_IQNsqrt.c ****     }
 248              		.loc 1 274 21 is_stmt 0 view .LVU99
 249 007c 0834     		adds	r4, r4, #8
 250              	.LVL25:
 251              	.L10:
 276:../Common/IQMath/ti/_IQNsqrt.c ****         uiq31Result >>= 1;
 252              		.loc 1 276 11 is_stmt 1 view .LVU100
 253 007e B4F1FF3F 		cmp	r4, #-1
 254 0082 04DA     		bge	.L20
 277:../Common/IQMath/ti/_IQNsqrt.c ****         i16Exponent++;
 255              		.loc 1 277 9 view .LVU101
 277:../Common/IQMath/ti/_IQNsqrt.c ****         i16Exponent++;
 256              		.loc 1 277 21 is_stmt 0 view .LVU102
 257 0084 4008     		lsrs	r0, r0, #1
 258              	.LVL26:
 278:../Common/IQMath/ti/_IQNsqrt.c ****     }
ARM GAS  C:\Users\57308\AppData\Local\Temp\ccWnCQ57.s 			page 18


 259              		.loc 1 278 9 is_stmt 1 view .LVU103
 278:../Common/IQMath/ti/_IQNsqrt.c ****     }
 260              		.loc 1 278 20 is_stmt 0 view .LVU104
 261 0086 0134     		adds	r4, r4, #1
 262              	.LVL27:
 278:../Common/IQMath/ti/_IQNsqrt.c ****     }
 263              		.loc 1 278 20 view .LVU105
 264 0088 F9E7     		b	.L10
 265              	.L19:
 242:../Common/IQMath/ti/_IQNsqrt.c ****                 return uiq31Result;
 266              		.loc 1 242 17 is_stmt 1 view .LVU106
 242:../Common/IQMath/ti/_IQNsqrt.c ****                 return uiq31Result;
 267              		.loc 1 242 29 is_stmt 0 view .LVU107
 268 008a 4000     		lsls	r0, r0, #1
 269              	.LVL28:
 243:../Common/IQMath/ti/_IQNsqrt.c ****             }
 270              		.loc 1 243 17 is_stmt 1 view .LVU108
 243:../Common/IQMath/ti/_IQNsqrt.c ****             }
 271              		.loc 1 243 24 is_stmt 0 view .LVU109
 272 008c 06E0     		b	.L1
 273              	.LVL29:
 274              	.L20:
 280:../Common/IQMath/ti/_IQNsqrt.c ****         uiq31Result++;
 275              		.loc 1 280 5 is_stmt 1 view .LVU110
 280:../Common/IQMath/ti/_IQNsqrt.c ****         uiq31Result++;
 276              		.loc 1 280 8 is_stmt 0 view .LVU111
 277 008e 2CB1     		cbz	r4, .L1
 281:../Common/IQMath/ti/_IQNsqrt.c ****         uiq31Result >>= 1;
 278              		.loc 1 281 9 is_stmt 1 view .LVU112
 281:../Common/IQMath/ti/_IQNsqrt.c ****         uiq31Result >>= 1;
 279              		.loc 1 281 20 is_stmt 0 view .LVU113
 280 0090 0130     		adds	r0, r0, #1
 281              	.LVL30:
 282:../Common/IQMath/ti/_IQNsqrt.c ****     }        
 282              		.loc 1 282 9 is_stmt 1 view .LVU114
 282:../Common/IQMath/ti/_IQNsqrt.c ****     }        
 283              		.loc 1 282 21 is_stmt 0 view .LVU115
 284 0092 4008     		lsrs	r0, r0, #1
 285              	.LVL31:
 285:../Common/IQMath/ti/_IQNsqrt.c **** }
 286              		.loc 1 285 5 is_stmt 1 view .LVU116
 285:../Common/IQMath/ti/_IQNsqrt.c **** }
 287              		.loc 1 285 12 is_stmt 0 view .LVU117
 288 0094 02E0     		b	.L1
 289              	.LVL32:
 290              	.L13:
 291              	.LCFI1:
 292              		.cfi_def_cfa_offset 0
 293              		.cfi_restore 4
 294              		.cfi_restore 14
 129:../Common/IQMath/ti/_IQNsqrt.c ****         }
 295              		.loc 1 129 20 view .LVU118
 296 0096 0020     		movs	r0, #0
 297              	.LVL33:
 129:../Common/IQMath/ti/_IQNsqrt.c ****         }
 298              		.loc 1 129 20 view .LVU119
 299              	.LBE52:
ARM GAS  C:\Users\57308\AppData\Local\Temp\ccWnCQ57.s 			page 19


 300              	.LBE56:
 374:../Common/IQMath/ti/_IQNsqrt.c **** }
 301              		.loc 1 374 1 view .LVU120
 302 0098 7047     		bx	lr
 303              	.LVL34:
 304              	.L14:
 305              	.LCFI2:
 306              		.cfi_def_cfa_offset 8
 307              		.cfi_offset 4, -8
 308              		.cfi_offset 14, -4
 309              	.LBB57:
 310              	.LBB53:
 266:../Common/IQMath/ti/_IQNsqrt.c ****     }
 311              		.loc 1 266 16 view .LVU121
 312 009a 0020     		movs	r0, #0
 313              	.LVL35:
 314              	.L1:
 266:../Common/IQMath/ti/_IQNsqrt.c ****     }
 315              		.loc 1 266 16 view .LVU122
 316              	.LBE53:
 317              	.LBE57:
 318              		.loc 1 374 1 view .LVU123
 319 009c 10BD     		pop	{r4, pc}
 320              	.L22:
 321 009e 00BF     		.align	2
 322              	.L21:
 323 00a0 00000000 		.word	_IQ14sqrt_lookup
 324              		.cfi_endproc
 325              	.LFE262:
 327              		.section	.text._IQ30sqrt,"ax",%progbits
 328              		.align	1
 329              		.global	_IQ30sqrt
 330              		.syntax unified
 331              		.thumb
 332              		.thumb_func
 334              	_IQ30sqrt:
 335              	.LVL36:
 336              	.LFB263:
 375:../Common/IQMath/ti/_IQNsqrt.c **** /**
 376:../Common/IQMath/ti/_IQNsqrt.c ****  * @brief Calculate square root of an IQ30 input.
 377:../Common/IQMath/ti/_IQNsqrt.c ****  *
 378:../Common/IQMath/ti/_IQNsqrt.c ****  * @param a                 IQ30 type input.
 379:../Common/IQMath/ti/_IQNsqrt.c ****  *
 380:../Common/IQMath/ti/_IQNsqrt.c ****  * @return                  IQ30 type result of the square root operation.
 381:../Common/IQMath/ti/_IQNsqrt.c ****  */
 382:../Common/IQMath/ti/_IQNsqrt.c **** int32_t _IQ30sqrt(int32_t a)
 383:../Common/IQMath/ti/_IQNsqrt.c **** {
 337              		.loc 1 383 1 is_stmt 1 view -0
 338              		.cfi_startproc
 339              		@ args = 0, pretend = 0, frame = 0
 340              		@ frame_needed = 0, uses_anonymous_args = 0
 384:../Common/IQMath/ti/_IQNsqrt.c ****     return __IQNsqrt(a, 0, 30, TYPE_SQRT);
 341              		.loc 1 384 5 view .LVU125
 342              	.LBB73:
 343              	.LBI73:
  68:../Common/IQMath/ti/_IQNsqrt.c **** {
 344              		.loc 1 68 30 view .LVU126
ARM GAS  C:\Users\57308\AppData\Local\Temp\ccWnCQ57.s 			page 20


 345              	.LBB74:
  70:../Common/IQMath/ti/_IQNsqrt.c ****     uint8_t ui8Loops;
 346              		.loc 1 70 5 view .LVU127
  71:../Common/IQMath/ti/_IQNsqrt.c ****     int_fast16_t i16Exponent;
 347              		.loc 1 71 5 view .LVU128
  72:../Common/IQMath/ti/_IQNsqrt.c ****     uint_fast16_t ui16IntState;
 348              		.loc 1 72 5 view .LVU129
  73:../Common/IQMath/ti/_IQNsqrt.c ****     uint_fast16_t ui16MPYState;
 349              		.loc 1 73 5 view .LVU130
  74:../Common/IQMath/ti/_IQNsqrt.c ****     uint_fast32_t uiq30Guess;
 350              		.loc 1 74 5 view .LVU131
  75:../Common/IQMath/ti/_IQNsqrt.c ****     uint_fast32_t uiq30Result;
 351              		.loc 1 75 5 view .LVU132
  76:../Common/IQMath/ti/_IQNsqrt.c ****     uint_fast32_t uiq31Result;
 352              		.loc 1 76 5 view .LVU133
  77:../Common/IQMath/ti/_IQNsqrt.c ****     uint_fast32_t uiq32Input;
 353              		.loc 1 77 5 view .LVU134
  78:../Common/IQMath/ti/_IQNsqrt.c ****     
 354              		.loc 1 78 5 view .LVU135
  81:../Common/IQMath/ti/_IQNsqrt.c ****         uint_fast64_t ui64Sum;
 355              		.loc 1 81 5 view .LVU136
 128:../Common/IQMath/ti/_IQNsqrt.c ****             return 0;
 356              		.loc 1 128 9 view .LVU137
 128:../Common/IQMath/ti/_IQNsqrt.c ****             return 0;
 357              		.loc 1 128 12 is_stmt 0 view .LVU138
 358 0000 0028     		cmp	r0, #0
 128:../Common/IQMath/ti/_IQNsqrt.c ****             return 0;
 359              		.loc 1 128 12 view .LVU139
 360 0002 4BDD     		ble	.L35
 361              	.LBE74:
 362              	.LBE73:
 383:../Common/IQMath/ti/_IQNsqrt.c ****     return __IQNsqrt(a, 0, 30, TYPE_SQRT);
 363              		.loc 1 383 1 view .LVU140
 364 0004 10B5     		push	{r4, lr}
 365              	.LCFI3:
 366              		.cfi_def_cfa_offset 8
 367              		.cfi_offset 4, -8
 368              		.cfi_offset 14, -4
 369              	.LBB87:
 370              	.LBB83:
 133:../Common/IQMath/ti/_IQNsqrt.c ****             iqNInputX <<= 1;
 371              		.loc 1 133 9 is_stmt 1 view .LVU141
 146:../Common/IQMath/ti/_IQNsqrt.c ****                 i16Exponent = (32 - q_value) >> 1;
 372              		.loc 1 146 13 view .LVU142
 147:../Common/IQMath/ti/_IQNsqrt.c ****             }
 373              		.loc 1 147 17 view .LVU143
 374              	.LVL37:
 156:../Common/IQMath/ti/_IQNsqrt.c ****         
 375              		.loc 1 156 9 view .LVU144
 159:../Common/IQMath/ti/_IQNsqrt.c ****             uiq32Input <<= 2;
 376              		.loc 1 159 9 view .LVU145
 159:../Common/IQMath/ti/_IQNsqrt.c ****             uiq32Input <<= 2;
 377              		.loc 1 159 15 is_stmt 0 view .LVU146
 378 0006 4FF0010C 		mov	ip, #1
 379 000a 02E0     		b	.L25
 380              	.LVL38:
 381              	.L26:
ARM GAS  C:\Users\57308\AppData\Local\Temp\ccWnCQ57.s 			page 21


 160:../Common/IQMath/ti/_IQNsqrt.c ****             /* Decrement exponent for sqrt and mag */
 382              		.loc 1 160 13 is_stmt 1 view .LVU147
 160:../Common/IQMath/ti/_IQNsqrt.c ****             /* Decrement exponent for sqrt and mag */
 383              		.loc 1 160 24 is_stmt 0 view .LVU148
 384 000c 8000     		lsls	r0, r0, #2
 385              	.LVL39:
 162:../Common/IQMath/ti/_IQNsqrt.c ****                 i16Exponent--;
 386              		.loc 1 162 13 is_stmt 1 view .LVU149
 163:../Common/IQMath/ti/_IQNsqrt.c ****             }
 387              		.loc 1 163 17 view .LVU150
 163:../Common/IQMath/ti/_IQNsqrt.c ****             }
 388              		.loc 1 163 28 is_stmt 0 view .LVU151
 389 000e 0CF1FF3C 		add	ip, ip, #-1
 390              	.LVL40:
 391              	.L25:
 159:../Common/IQMath/ti/_IQNsqrt.c ****             uiq32Input <<= 2;
 392              		.loc 1 159 15 is_stmt 1 view .LVU152
 393 0012 B0F1804F 		cmp	r0, #1073741824
 394 0016 F9D3     		bcc	.L26
 174:../Common/IQMath/ti/_IQNsqrt.c ****     ui8Index -= 32;
 395              		.loc 1 174 5 view .LVU153
 174:../Common/IQMath/ti/_IQNsqrt.c ****     ui8Index -= 32;
 396              		.loc 1 174 14 is_stmt 0 view .LVU154
 397 0018 430E     		lsrs	r3, r0, #25
 398              	.LVL41:
 175:../Common/IQMath/ti/_IQNsqrt.c ****     uiq30Guess = (uint_fast32_t)_IQ14sqrt_lookup[ui8Index] << 16;
 399              		.loc 1 175 5 is_stmt 1 view .LVU155
 175:../Common/IQMath/ti/_IQNsqrt.c ****     uiq30Guess = (uint_fast32_t)_IQ14sqrt_lookup[ui8Index] << 16;
 400              		.loc 1 175 14 is_stmt 0 view .LVU156
 401 001a 203B     		subs	r3, r3, #32
 402              	.LVL42:
 175:../Common/IQMath/ti/_IQNsqrt.c ****     uiq30Guess = (uint_fast32_t)_IQ14sqrt_lookup[ui8Index] << 16;
 403              		.loc 1 175 14 view .LVU157
 404 001c DBB2     		uxtb	r3, r3
 405              	.LVL43:
 176:../Common/IQMath/ti/_IQNsqrt.c ****     
 406              		.loc 1 176 5 is_stmt 1 view .LVU158
 176:../Common/IQMath/ti/_IQNsqrt.c ****     
 407              		.loc 1 176 49 is_stmt 0 view .LVU159
 408 001e 214A     		ldr	r2, .L43
 409 0020 52F82310 		ldr	r1, [r2, r3, lsl #2]
 176:../Common/IQMath/ti/_IQNsqrt.c ****     
 410              		.loc 1 176 16 view .LVU160
 411 0024 0904     		lsls	r1, r1, #16
 412              	.LVL44:
 184:../Common/IQMath/ti/_IQNsqrt.c ****     
 413              		.loc 1 184 5 is_stmt 1 view .LVU161
 184:../Common/IQMath/ti/_IQNsqrt.c ****     
 414              		.loc 1 184 5 is_stmt 0 view .LVU162
 415              	.LBE83:
 416              	.LBE87:
  28:../Common/IQMath/ti/./support/RTS_support.h **** }
 417              		.loc 2 28 5 is_stmt 1 view .LVU163
 418              	.LBB88:
 419              	.LBB84:
 192:../Common/IQMath/ti/_IQNsqrt.c ****         ui8Loops = 2;
 420              		.loc 1 192 5 view .LVU164
ARM GAS  C:\Users\57308\AppData\Local\Temp\ccWnCQ57.s 			page 22


 196:../Common/IQMath/ti/_IQNsqrt.c ****     }
 421              		.loc 1 196 9 view .LVU165
 176:../Common/IQMath/ti/_IQNsqrt.c ****     
 422              		.loc 1 176 16 is_stmt 0 view .LVU166
 423 0026 0323     		movs	r3, #3
 424              	.LVL45:
 176:../Common/IQMath/ti/_IQNsqrt.c ****     
 425              		.loc 1 176 16 view .LVU167
 426 0028 11E0     		b	.L27
 427              	.LVL46:
 428              	.L28:
 202:../Common/IQMath/ti/_IQNsqrt.c ****         
 429              		.loc 1 202 9 is_stmt 1 view .LVU168
 430              	.LBB75:
 431              	.LBI75:
 254:../Common/IQMath/ti/./support/RTS_support.h **** {
 432              		.loc 2 254 29 view .LVU169
 433              	.LBB76:
 434              		.loc 2 256 5 view .LVU170
 435              		.loc 2 256 49 is_stmt 0 view .LVU171
 436 002a A0FB0124 		umull	r2, r4, r0, r1
 437              		.loc 2 256 72 view .LVU172
 438 002e D30F     		lsrs	r3, r2, #31
 439 0030 43EA4403 		orr	r3, r3, r4, lsl #1
 440              	.LVL47:
 441              		.loc 2 256 72 view .LVU173
 442              	.LBE76:
 443              	.LBE75:
 205:../Common/IQMath/ti/_IQNsqrt.c ****         
 444              		.loc 1 205 9 is_stmt 1 view .LVU174
 445              	.LBB77:
 446              	.LBI77:
 254:../Common/IQMath/ti/./support/RTS_support.h **** {
 447              		.loc 2 254 29 view .LVU175
 448              	.LBB78:
 449              		.loc 2 256 5 view .LVU176
 450              		.loc 2 256 49 is_stmt 0 view .LVU177
 451 0034 A3FB0132 		umull	r3, r2, r3, r1
 452              	.LVL48:
 453              		.loc 2 256 72 view .LVU178
 454 0038 DB0F     		lsrs	r3, r3, #31
 455 003a 43EA4203 		orr	r3, r3, r2, lsl #1
 456              	.LVL49:
 457              		.loc 2 256 72 view .LVU179
 458              	.LBE78:
 459              	.LBE77:
 208:../Common/IQMath/ti/_IQNsqrt.c ****         
 460              		.loc 1 208 9 is_stmt 1 view .LVU180
 208:../Common/IQMath/ti/_IQNsqrt.c ****         
 461              		.loc 1 208 21 is_stmt 0 view .LVU181
 462 003e C3F14043 		rsb	r3, r3, #-1073741824
 463              	.LVL50:
 214:../Common/IQMath/ti/_IQNsqrt.c ****     }
 464              		.loc 1 214 9 is_stmt 1 view .LVU182
 465              	.LBB79:
 466              	.LBI79:
 254:../Common/IQMath/ti/./support/RTS_support.h **** {
ARM GAS  C:\Users\57308\AppData\Local\Temp\ccWnCQ57.s 			page 23


 467              		.loc 2 254 29 view .LVU183
 468              	.LBB80:
 469              		.loc 2 256 5 view .LVU184
 470              		.loc 2 256 49 is_stmt 0 view .LVU185
 471 0042 A1FB0331 		umull	r3, r1, r1, r3
 472              	.LVL51:
 473              		.loc 2 256 72 view .LVU186
 474 0046 DB0F     		lsrs	r3, r3, #31
 475 0048 43EA4101 		orr	r1, r3, r1, lsl #1
 476              	.LVL52:
 477              		.loc 2 256 72 view .LVU187
 478              	.LBE80:
 479              	.LBE79:
 200:../Common/IQMath/ti/_IQNsqrt.c ****         /* x*g */
 480              		.loc 1 200 20 view .LVU188
 481 004c 7346     		mov	r3, lr
 482              	.LVL53:
 483              	.L27:
 200:../Common/IQMath/ti/_IQNsqrt.c ****         /* x*g */
 484              		.loc 1 200 11 is_stmt 1 view .LVU189
 200:../Common/IQMath/ti/_IQNsqrt.c ****         /* x*g */
 485              		.loc 1 200 20 is_stmt 0 view .LVU190
 486 004e 5A1E     		subs	r2, r3, #1
 487 0050 5FFA82FE 		uxtb	lr, r2
 488              	.LVL54:
 200:../Common/IQMath/ti/_IQNsqrt.c ****         /* x*g */
 489              		.loc 1 200 11 view .LVU191
 490 0054 002B     		cmp	r3, #0
 491 0056 E8D1     		bne	.L28
 218:../Common/IQMath/ti/_IQNsqrt.c ****         /*
 492              		.loc 1 218 5 is_stmt 1 view .LVU192
 223:../Common/IQMath/ti/_IQNsqrt.c ****     
 493              		.loc 1 223 9 view .LVU193
 494              	.LVL55:
 495              	.LBB81:
 496              	.LBI81:
 254:../Common/IQMath/ti/./support/RTS_support.h **** {
 497              		.loc 2 254 29 view .LVU194
 498              	.LBB82:
 499              		.loc 2 256 5 view .LVU195
 500              		.loc 2 256 49 is_stmt 0 view .LVU196
 501 0058 A1FB0031 		umull	r3, r1, r1, r0
 502              		.loc 2 256 72 view .LVU197
 503 005c D80F     		lsrs	r0, r3, #31
 504              	.LVL56:
 505              		.loc 2 256 72 view .LVU198
 506 005e 40EA4100 		orr	r0, r0, r1, lsl #1
 507              	.LVL57:
 508              		.loc 2 256 72 view .LVU199
 509              	.LBE82:
 510              	.LBE81:
 225:../Common/IQMath/ti/_IQNsqrt.c ****     
 511              		.loc 1 225 9 is_stmt 1 view .LVU200
 225:../Common/IQMath/ti/_IQNsqrt.c ****     
 512              		.loc 1 225 9 is_stmt 0 view .LVU201
 513              	.LBE84:
 514              	.LBE88:
ARM GAS  C:\Users\57308\AppData\Local\Temp\ccWnCQ57.s 			page 24


  72:../Common/IQMath/ti/./support/RTS_support.h **** }
 515              		.loc 2 72 5 is_stmt 1 view .LVU202
 516              	.LBB89:
 517              	.LBB85:
 230:../Common/IQMath/ti/_IQNsqrt.c ****         
 518              		.loc 1 230 9 view .LVU203
 230:../Common/IQMath/ti/_IQNsqrt.c ****         
 519              		.loc 1 230 21 is_stmt 0 view .LVU204
 520 0062 0CF1FF33 		add	r3, ip, #-1
 521              	.LVL58:
 233:../Common/IQMath/ti/_IQNsqrt.c ****             if (i16Exponent > 0) {
 522              		.loc 1 233 9 is_stmt 1 view .LVU205
 240:../Common/IQMath/ti/_IQNsqrt.c ****             if (i16Exponent > 0) {
 523              		.loc 1 240 9 view .LVU206
 241:../Common/IQMath/ti/_IQNsqrt.c ****                 uiq31Result <<= 1;
 524              		.loc 1 241 13 view .LVU207
 241:../Common/IQMath/ti/_IQNsqrt.c ****                 uiq31Result <<= 1;
 525              		.loc 1 241 16 is_stmt 0 view .LVU208
 526 0066 002B     		cmp	r3, #0
 527 0068 12DC     		bgt	.L41
 265:../Common/IQMath/ti/_IQNsqrt.c ****         return 0;
 528              		.loc 1 265 5 is_stmt 1 view .LVU209
 265:../Common/IQMath/ti/_IQNsqrt.c ****         return 0;
 529              		.loc 1 265 8 is_stmt 0 view .LVU210
 530 006a 13F11F0F 		cmn	r3, #31
 531 006e 17DB     		blt	.L36
 268:../Common/IQMath/ti/_IQNsqrt.c ****         uiq31Result >>= 16;
 532              		.loc 1 268 5 is_stmt 1 view .LVU211
 268:../Common/IQMath/ti/_IQNsqrt.c ****         uiq31Result >>= 16;
 533              		.loc 1 268 8 is_stmt 0 view .LVU212
 534 0070 13F10F0F 		cmn	r3, #15
 535 0074 01DA     		bge	.L30
 269:../Common/IQMath/ti/_IQNsqrt.c ****         i16Exponent += 16;
 536              		.loc 1 269 9 is_stmt 1 view .LVU213
 269:../Common/IQMath/ti/_IQNsqrt.c ****         i16Exponent += 16;
 537              		.loc 1 269 21 is_stmt 0 view .LVU214
 538 0076 000C     		lsrs	r0, r0, #16
 539              	.LVL59:
 270:../Common/IQMath/ti/_IQNsqrt.c ****     }
 540              		.loc 1 270 9 is_stmt 1 view .LVU215
 270:../Common/IQMath/ti/_IQNsqrt.c ****     }
 541              		.loc 1 270 21 is_stmt 0 view .LVU216
 542 0078 1033     		adds	r3, r3, #16
 543              	.LVL60:
 544              	.L30:
 272:../Common/IQMath/ti/_IQNsqrt.c ****         uiq31Result >>= 8;
 545              		.loc 1 272 5 is_stmt 1 view .LVU217
 272:../Common/IQMath/ti/_IQNsqrt.c ****         uiq31Result >>= 8;
 546              		.loc 1 272 8 is_stmt 0 view .LVU218
 547 007a 13F1070F 		cmn	r3, #7
 548 007e 01DA     		bge	.L32
 273:../Common/IQMath/ti/_IQNsqrt.c ****         i16Exponent += 8;
 549              		.loc 1 273 9 is_stmt 1 view .LVU219
 273:../Common/IQMath/ti/_IQNsqrt.c ****         i16Exponent += 8;
 550              		.loc 1 273 21 is_stmt 0 view .LVU220
 551 0080 000A     		lsrs	r0, r0, #8
 552              	.LVL61:
ARM GAS  C:\Users\57308\AppData\Local\Temp\ccWnCQ57.s 			page 25


 274:../Common/IQMath/ti/_IQNsqrt.c ****     }
 553              		.loc 1 274 9 is_stmt 1 view .LVU221
 274:../Common/IQMath/ti/_IQNsqrt.c ****     }
 554              		.loc 1 274 21 is_stmt 0 view .LVU222
 555 0082 0833     		adds	r3, r3, #8
 556              	.LVL62:
 557              	.L32:
 276:../Common/IQMath/ti/_IQNsqrt.c ****         uiq31Result >>= 1;
 558              		.loc 1 276 11 is_stmt 1 view .LVU223
 559 0084 B3F1FF3F 		cmp	r3, #-1
 560 0088 04DA     		bge	.L42
 277:../Common/IQMath/ti/_IQNsqrt.c ****         i16Exponent++;
 561              		.loc 1 277 9 view .LVU224
 277:../Common/IQMath/ti/_IQNsqrt.c ****         i16Exponent++;
 562              		.loc 1 277 21 is_stmt 0 view .LVU225
 563 008a 4008     		lsrs	r0, r0, #1
 564              	.LVL63:
 278:../Common/IQMath/ti/_IQNsqrt.c ****     }
 565              		.loc 1 278 9 is_stmt 1 view .LVU226
 278:../Common/IQMath/ti/_IQNsqrt.c ****     }
 566              		.loc 1 278 20 is_stmt 0 view .LVU227
 567 008c 0133     		adds	r3, r3, #1
 568              	.LVL64:
 278:../Common/IQMath/ti/_IQNsqrt.c ****     }
 569              		.loc 1 278 20 view .LVU228
 570 008e F9E7     		b	.L32
 571              	.L41:
 242:../Common/IQMath/ti/_IQNsqrt.c ****                 return uiq31Result;
 572              		.loc 1 242 17 is_stmt 1 view .LVU229
 242:../Common/IQMath/ti/_IQNsqrt.c ****                 return uiq31Result;
 573              		.loc 1 242 29 is_stmt 0 view .LVU230
 574 0090 4000     		lsls	r0, r0, #1
 575              	.LVL65:
 243:../Common/IQMath/ti/_IQNsqrt.c ****             }
 576              		.loc 1 243 17 is_stmt 1 view .LVU231
 243:../Common/IQMath/ti/_IQNsqrt.c ****             }
 577              		.loc 1 243 24 is_stmt 0 view .LVU232
 578 0092 06E0     		b	.L23
 579              	.LVL66:
 580              	.L42:
 280:../Common/IQMath/ti/_IQNsqrt.c ****         uiq31Result++;
 581              		.loc 1 280 5 is_stmt 1 view .LVU233
 280:../Common/IQMath/ti/_IQNsqrt.c ****         uiq31Result++;
 582              		.loc 1 280 8 is_stmt 0 view .LVU234
 583 0094 2BB1     		cbz	r3, .L23
 281:../Common/IQMath/ti/_IQNsqrt.c ****         uiq31Result >>= 1;
 584              		.loc 1 281 9 is_stmt 1 view .LVU235
 281:../Common/IQMath/ti/_IQNsqrt.c ****         uiq31Result >>= 1;
 585              		.loc 1 281 20 is_stmt 0 view .LVU236
 586 0096 0130     		adds	r0, r0, #1
 587              	.LVL67:
 282:../Common/IQMath/ti/_IQNsqrt.c ****     }        
 588              		.loc 1 282 9 is_stmt 1 view .LVU237
 282:../Common/IQMath/ti/_IQNsqrt.c ****     }        
 589              		.loc 1 282 21 is_stmt 0 view .LVU238
 590 0098 4008     		lsrs	r0, r0, #1
 591              	.LVL68:
ARM GAS  C:\Users\57308\AppData\Local\Temp\ccWnCQ57.s 			page 26


 285:../Common/IQMath/ti/_IQNsqrt.c **** }
 592              		.loc 1 285 5 is_stmt 1 view .LVU239
 285:../Common/IQMath/ti/_IQNsqrt.c **** }
 593              		.loc 1 285 12 is_stmt 0 view .LVU240
 594 009a 02E0     		b	.L23
 595              	.LVL69:
 596              	.L35:
 597              	.LCFI4:
 598              		.cfi_def_cfa_offset 0
 599              		.cfi_restore 4
 600              		.cfi_restore 14
 129:../Common/IQMath/ti/_IQNsqrt.c ****         }
 601              		.loc 1 129 20 view .LVU241
 602 009c 0020     		movs	r0, #0
 603              	.LVL70:
 129:../Common/IQMath/ti/_IQNsqrt.c ****         }
 604              		.loc 1 129 20 view .LVU242
 605              	.LBE85:
 606              	.LBE89:
 385:../Common/IQMath/ti/_IQNsqrt.c **** }
 607              		.loc 1 385 1 view .LVU243
 608 009e 7047     		bx	lr
 609              	.LVL71:
 610              	.L36:
 611              	.LCFI5:
 612              		.cfi_def_cfa_offset 8
 613              		.cfi_offset 4, -8
 614              		.cfi_offset 14, -4
 615              	.LBB90:
 616              	.LBB86:
 266:../Common/IQMath/ti/_IQNsqrt.c ****     }
 617              		.loc 1 266 16 view .LVU244
 618 00a0 0020     		movs	r0, #0
 619              	.LVL72:
 620              	.L23:
 266:../Common/IQMath/ti/_IQNsqrt.c ****     }
 621              		.loc 1 266 16 view .LVU245
 622              	.LBE86:
 623              	.LBE90:
 624              		.loc 1 385 1 view .LVU246
 625 00a2 10BD     		pop	{r4, pc}
 626              	.L44:
 627              		.align	2
 628              	.L43:
 629 00a4 00000000 		.word	_IQ14sqrt_lookup
 630              		.cfi_endproc
 631              	.LFE263:
 633              		.section	.text._IQ29sqrt,"ax",%progbits
 634              		.align	1
 635              		.global	_IQ29sqrt
 636              		.syntax unified
 637              		.thumb
 638              		.thumb_func
 640              	_IQ29sqrt:
 641              	.LVL73:
 642              	.LFB264:
 386:../Common/IQMath/ti/_IQNsqrt.c **** /**
ARM GAS  C:\Users\57308\AppData\Local\Temp\ccWnCQ57.s 			page 27


 387:../Common/IQMath/ti/_IQNsqrt.c ****  * @brief Calculate square root of an IQ29 input.
 388:../Common/IQMath/ti/_IQNsqrt.c ****  *
 389:../Common/IQMath/ti/_IQNsqrt.c ****  * @param a                 IQ29 type input.
 390:../Common/IQMath/ti/_IQNsqrt.c ****  *
 391:../Common/IQMath/ti/_IQNsqrt.c ****  * @return                  IQ29 type result of the square root operation.
 392:../Common/IQMath/ti/_IQNsqrt.c ****  */
 393:../Common/IQMath/ti/_IQNsqrt.c **** int32_t _IQ29sqrt(int32_t a)
 394:../Common/IQMath/ti/_IQNsqrt.c **** {
 643              		.loc 1 394 1 is_stmt 1 view -0
 644              		.cfi_startproc
 645              		@ args = 0, pretend = 0, frame = 0
 646              		@ frame_needed = 0, uses_anonymous_args = 0
 395:../Common/IQMath/ti/_IQNsqrt.c ****     return __IQNsqrt(a, 0, 29, TYPE_SQRT);
 647              		.loc 1 395 5 view .LVU248
 648              	.LBB106:
 649              	.LBI106:
  68:../Common/IQMath/ti/_IQNsqrt.c **** {
 650              		.loc 1 68 30 view .LVU249
 651              	.LBB107:
  70:../Common/IQMath/ti/_IQNsqrt.c ****     uint8_t ui8Loops;
 652              		.loc 1 70 5 view .LVU250
  71:../Common/IQMath/ti/_IQNsqrt.c ****     int_fast16_t i16Exponent;
 653              		.loc 1 71 5 view .LVU251
  72:../Common/IQMath/ti/_IQNsqrt.c ****     uint_fast16_t ui16IntState;
 654              		.loc 1 72 5 view .LVU252
  73:../Common/IQMath/ti/_IQNsqrt.c ****     uint_fast16_t ui16MPYState;
 655              		.loc 1 73 5 view .LVU253
  74:../Common/IQMath/ti/_IQNsqrt.c ****     uint_fast32_t uiq30Guess;
 656              		.loc 1 74 5 view .LVU254
  75:../Common/IQMath/ti/_IQNsqrt.c ****     uint_fast32_t uiq30Result;
 657              		.loc 1 75 5 view .LVU255
  76:../Common/IQMath/ti/_IQNsqrt.c ****     uint_fast32_t uiq31Result;
 658              		.loc 1 76 5 view .LVU256
  77:../Common/IQMath/ti/_IQNsqrt.c ****     uint_fast32_t uiq32Input;
 659              		.loc 1 77 5 view .LVU257
  78:../Common/IQMath/ti/_IQNsqrt.c ****     
 660              		.loc 1 78 5 view .LVU258
  81:../Common/IQMath/ti/_IQNsqrt.c ****         uint_fast64_t ui64Sum;
 661              		.loc 1 81 5 view .LVU259
 128:../Common/IQMath/ti/_IQNsqrt.c ****             return 0;
 662              		.loc 1 128 9 view .LVU260
 128:../Common/IQMath/ti/_IQNsqrt.c ****             return 0;
 663              		.loc 1 128 12 is_stmt 0 view .LVU261
 664 0000 0028     		cmp	r0, #0
 128:../Common/IQMath/ti/_IQNsqrt.c ****             return 0;
 665              		.loc 1 128 12 view .LVU262
 666 0002 48DD     		ble	.L56
 667              	.LBE107:
 668              	.LBE106:
 394:../Common/IQMath/ti/_IQNsqrt.c ****     return __IQNsqrt(a, 0, 29, TYPE_SQRT);
 669              		.loc 1 394 1 view .LVU263
 670 0004 10B5     		push	{r4, lr}
 671              	.LCFI6:
 672              		.cfi_def_cfa_offset 8
 673              		.cfi_offset 4, -8
 674              		.cfi_offset 14, -4
 675              	.LBB120:
ARM GAS  C:\Users\57308\AppData\Local\Temp\ccWnCQ57.s 			page 28


 676              	.LBB116:
 133:../Common/IQMath/ti/_IQNsqrt.c ****             iqNInputX <<= 1;
 677              		.loc 1 133 9 is_stmt 1 view .LVU264
 134:../Common/IQMath/ti/_IQNsqrt.c ****             /* Start with positive exponent for sqrt */
 678              		.loc 1 134 13 view .LVU265
 134:../Common/IQMath/ti/_IQNsqrt.c ****             /* Start with positive exponent for sqrt */
 679              		.loc 1 134 23 is_stmt 0 view .LVU266
 680 0006 4000     		lsls	r0, r0, #1
 681              	.LVL74:
 136:../Common/IQMath/ti/_IQNsqrt.c ****                 i16Exponent = ((32 - q_value) - 1) >> 1;
 682              		.loc 1 136 13 is_stmt 1 view .LVU267
 137:../Common/IQMath/ti/_IQNsqrt.c ****             }
 683              		.loc 1 137 17 view .LVU268
 156:../Common/IQMath/ti/_IQNsqrt.c ****         
 684              		.loc 1 156 9 view .LVU269
 159:../Common/IQMath/ti/_IQNsqrt.c ****             uiq32Input <<= 2;
 685              		.loc 1 159 9 view .LVU270
 159:../Common/IQMath/ti/_IQNsqrt.c ****             uiq32Input <<= 2;
 686              		.loc 1 159 15 is_stmt 0 view .LVU271
 687 0008 4FF0010C 		mov	ip, #1
 688 000c 02E0     		b	.L47
 689              	.LVL75:
 690              	.L48:
 160:../Common/IQMath/ti/_IQNsqrt.c ****             /* Decrement exponent for sqrt and mag */
 691              		.loc 1 160 13 is_stmt 1 view .LVU272
 160:../Common/IQMath/ti/_IQNsqrt.c ****             /* Decrement exponent for sqrt and mag */
 692              		.loc 1 160 24 is_stmt 0 view .LVU273
 693 000e 8000     		lsls	r0, r0, #2
 694              	.LVL76:
 162:../Common/IQMath/ti/_IQNsqrt.c ****                 i16Exponent--;
 695              		.loc 1 162 13 is_stmt 1 view .LVU274
 163:../Common/IQMath/ti/_IQNsqrt.c ****             }
 696              		.loc 1 163 17 view .LVU275
 163:../Common/IQMath/ti/_IQNsqrt.c ****             }
 697              		.loc 1 163 28 is_stmt 0 view .LVU276
 698 0010 0CF1FF3C 		add	ip, ip, #-1
 699              	.LVL77:
 700              	.L47:
 159:../Common/IQMath/ti/_IQNsqrt.c ****             uiq32Input <<= 2;
 701              		.loc 1 159 15 is_stmt 1 view .LVU277
 702 0014 B0F1804F 		cmp	r0, #1073741824
 703 0018 F9D3     		bcc	.L48
 174:../Common/IQMath/ti/_IQNsqrt.c ****     ui8Index -= 32;
 704              		.loc 1 174 5 view .LVU278
 174:../Common/IQMath/ti/_IQNsqrt.c ****     ui8Index -= 32;
 705              		.loc 1 174 14 is_stmt 0 view .LVU279
 706 001a 430E     		lsrs	r3, r0, #25
 707              	.LVL78:
 175:../Common/IQMath/ti/_IQNsqrt.c ****     uiq30Guess = (uint_fast32_t)_IQ14sqrt_lookup[ui8Index] << 16;
 708              		.loc 1 175 5 is_stmt 1 view .LVU280
 175:../Common/IQMath/ti/_IQNsqrt.c ****     uiq30Guess = (uint_fast32_t)_IQ14sqrt_lookup[ui8Index] << 16;
 709              		.loc 1 175 14 is_stmt 0 view .LVU281
 710 001c 203B     		subs	r3, r3, #32
 711              	.LVL79:
 175:../Common/IQMath/ti/_IQNsqrt.c ****     uiq30Guess = (uint_fast32_t)_IQ14sqrt_lookup[ui8Index] << 16;
 712              		.loc 1 175 14 view .LVU282
 713 001e DBB2     		uxtb	r3, r3
ARM GAS  C:\Users\57308\AppData\Local\Temp\ccWnCQ57.s 			page 29


 714              	.LVL80:
 176:../Common/IQMath/ti/_IQNsqrt.c ****     
 715              		.loc 1 176 5 is_stmt 1 view .LVU283
 176:../Common/IQMath/ti/_IQNsqrt.c ****     
 716              		.loc 1 176 49 is_stmt 0 view .LVU284
 717 0020 1F4A     		ldr	r2, .L63
 718 0022 52F82310 		ldr	r1, [r2, r3, lsl #2]
 176:../Common/IQMath/ti/_IQNsqrt.c ****     
 719              		.loc 1 176 16 view .LVU285
 720 0026 0904     		lsls	r1, r1, #16
 721              	.LVL81:
 184:../Common/IQMath/ti/_IQNsqrt.c ****     
 722              		.loc 1 184 5 is_stmt 1 view .LVU286
 184:../Common/IQMath/ti/_IQNsqrt.c ****     
 723              		.loc 1 184 5 is_stmt 0 view .LVU287
 724              	.LBE116:
 725              	.LBE120:
  28:../Common/IQMath/ti/./support/RTS_support.h **** }
 726              		.loc 2 28 5 is_stmt 1 view .LVU288
 727              	.LBB121:
 728              	.LBB117:
 192:../Common/IQMath/ti/_IQNsqrt.c ****         ui8Loops = 2;
 729              		.loc 1 192 5 view .LVU289
 196:../Common/IQMath/ti/_IQNsqrt.c ****     }
 730              		.loc 1 196 9 view .LVU290
 176:../Common/IQMath/ti/_IQNsqrt.c ****     
 731              		.loc 1 176 16 is_stmt 0 view .LVU291
 732 0028 0323     		movs	r3, #3
 733              	.LVL82:
 176:../Common/IQMath/ti/_IQNsqrt.c ****     
 734              		.loc 1 176 16 view .LVU292
 735 002a 11E0     		b	.L49
 736              	.LVL83:
 737              	.L50:
 202:../Common/IQMath/ti/_IQNsqrt.c ****         
 738              		.loc 1 202 9 is_stmt 1 view .LVU293
 739              	.LBB108:
 740              	.LBI108:
 254:../Common/IQMath/ti/./support/RTS_support.h **** {
 741              		.loc 2 254 29 view .LVU294
 742              	.LBB109:
 743              		.loc 2 256 5 view .LVU295
 744              		.loc 2 256 49 is_stmt 0 view .LVU296
 745 002c A0FB0124 		umull	r2, r4, r0, r1
 746              		.loc 2 256 72 view .LVU297
 747 0030 D30F     		lsrs	r3, r2, #31
 748 0032 43EA4403 		orr	r3, r3, r4, lsl #1
 749              	.LVL84:
 750              		.loc 2 256 72 view .LVU298
 751              	.LBE109:
 752              	.LBE108:
 205:../Common/IQMath/ti/_IQNsqrt.c ****         
 753              		.loc 1 205 9 is_stmt 1 view .LVU299
 754              	.LBB110:
 755              	.LBI110:
 254:../Common/IQMath/ti/./support/RTS_support.h **** {
 756              		.loc 2 254 29 view .LVU300
ARM GAS  C:\Users\57308\AppData\Local\Temp\ccWnCQ57.s 			page 30


 757              	.LBB111:
 758              		.loc 2 256 5 view .LVU301
 759              		.loc 2 256 49 is_stmt 0 view .LVU302
 760 0036 A3FB0132 		umull	r3, r2, r3, r1
 761              	.LVL85:
 762              		.loc 2 256 72 view .LVU303
 763 003a DB0F     		lsrs	r3, r3, #31
 764 003c 43EA4203 		orr	r3, r3, r2, lsl #1
 765              	.LVL86:
 766              		.loc 2 256 72 view .LVU304
 767              	.LBE111:
 768              	.LBE110:
 208:../Common/IQMath/ti/_IQNsqrt.c ****         
 769              		.loc 1 208 9 is_stmt 1 view .LVU305
 208:../Common/IQMath/ti/_IQNsqrt.c ****         
 770              		.loc 1 208 21 is_stmt 0 view .LVU306
 771 0040 C3F14043 		rsb	r3, r3, #-1073741824
 772              	.LVL87:
 214:../Common/IQMath/ti/_IQNsqrt.c ****     }
 773              		.loc 1 214 9 is_stmt 1 view .LVU307
 774              	.LBB112:
 775              	.LBI112:
 254:../Common/IQMath/ti/./support/RTS_support.h **** {
 776              		.loc 2 254 29 view .LVU308
 777              	.LBB113:
 778              		.loc 2 256 5 view .LVU309
 779              		.loc 2 256 49 is_stmt 0 view .LVU310
 780 0044 A1FB0331 		umull	r3, r1, r1, r3
 781              	.LVL88:
 782              		.loc 2 256 72 view .LVU311
 783 0048 DB0F     		lsrs	r3, r3, #31
 784 004a 43EA4101 		orr	r1, r3, r1, lsl #1
 785              	.LVL89:
 786              		.loc 2 256 72 view .LVU312
 787              	.LBE113:
 788              	.LBE112:
 200:../Common/IQMath/ti/_IQNsqrt.c ****         /* x*g */
 789              		.loc 1 200 20 view .LVU313
 790 004e 7346     		mov	r3, lr
 791              	.LVL90:
 792              	.L49:
 200:../Common/IQMath/ti/_IQNsqrt.c ****         /* x*g */
 793              		.loc 1 200 11 is_stmt 1 view .LVU314
 200:../Common/IQMath/ti/_IQNsqrt.c ****         /* x*g */
 794              		.loc 1 200 20 is_stmt 0 view .LVU315
 795 0050 5A1E     		subs	r2, r3, #1
 796 0052 5FFA82FE 		uxtb	lr, r2
 797              	.LVL91:
 200:../Common/IQMath/ti/_IQNsqrt.c ****         /* x*g */
 798              		.loc 1 200 11 view .LVU316
 799 0056 002B     		cmp	r3, #0
 800 0058 E8D1     		bne	.L50
 218:../Common/IQMath/ti/_IQNsqrt.c ****         /*
 801              		.loc 1 218 5 is_stmt 1 view .LVU317
 223:../Common/IQMath/ti/_IQNsqrt.c ****     
 802              		.loc 1 223 9 view .LVU318
 803              	.LVL92:
ARM GAS  C:\Users\57308\AppData\Local\Temp\ccWnCQ57.s 			page 31


 804              	.LBB114:
 805              	.LBI114:
 254:../Common/IQMath/ti/./support/RTS_support.h **** {
 806              		.loc 2 254 29 view .LVU319
 807              	.LBB115:
 808              		.loc 2 256 5 view .LVU320
 809              		.loc 2 256 49 is_stmt 0 view .LVU321
 810 005a A1FB0031 		umull	r3, r1, r1, r0
 811              		.loc 2 256 72 view .LVU322
 812 005e D80F     		lsrs	r0, r3, #31
 813              	.LVL93:
 814              		.loc 2 256 72 view .LVU323
 815 0060 40EA4100 		orr	r0, r0, r1, lsl #1
 816              	.LVL94:
 817              		.loc 2 256 72 view .LVU324
 818              	.LBE115:
 819              	.LBE114:
 225:../Common/IQMath/ti/_IQNsqrt.c ****     
 820              		.loc 1 225 9 is_stmt 1 view .LVU325
 225:../Common/IQMath/ti/_IQNsqrt.c ****     
 821              		.loc 1 225 9 is_stmt 0 view .LVU326
 822              	.LBE117:
 823              	.LBE121:
  72:../Common/IQMath/ti/./support/RTS_support.h **** }
 824              		.loc 2 72 5 is_stmt 1 view .LVU327
 825              	.LBB122:
 826              	.LBB118:
 230:../Common/IQMath/ti/_IQNsqrt.c ****         
 827              		.loc 1 230 9 view .LVU328
 230:../Common/IQMath/ti/_IQNsqrt.c ****         
 828              		.loc 1 230 21 is_stmt 0 view .LVU329
 829 0064 ACF10203 		sub	r3, ip, #2
 830              	.LVL95:
 233:../Common/IQMath/ti/_IQNsqrt.c ****             if (i16Exponent > 0) {
 831              		.loc 1 233 9 is_stmt 1 view .LVU330
 240:../Common/IQMath/ti/_IQNsqrt.c ****             if (i16Exponent > 0) {
 832              		.loc 1 240 9 view .LVU331
 265:../Common/IQMath/ti/_IQNsqrt.c ****         return 0;
 833              		.loc 1 265 5 view .LVU332
 265:../Common/IQMath/ti/_IQNsqrt.c ****         return 0;
 834              		.loc 1 265 8 is_stmt 0 view .LVU333
 835 0068 13F11F0F 		cmn	r3, #31
 836 006c 15DB     		blt	.L57
 268:../Common/IQMath/ti/_IQNsqrt.c ****         uiq31Result >>= 16;
 837              		.loc 1 268 5 is_stmt 1 view .LVU334
 268:../Common/IQMath/ti/_IQNsqrt.c ****         uiq31Result >>= 16;
 838              		.loc 1 268 8 is_stmt 0 view .LVU335
 839 006e 13F10F0F 		cmn	r3, #15
 840 0072 01DA     		bge	.L51
 269:../Common/IQMath/ti/_IQNsqrt.c ****         i16Exponent += 16;
 841              		.loc 1 269 9 is_stmt 1 view .LVU336
 269:../Common/IQMath/ti/_IQNsqrt.c ****         i16Exponent += 16;
 842              		.loc 1 269 21 is_stmt 0 view .LVU337
 843 0074 000C     		lsrs	r0, r0, #16
 844              	.LVL96:
 270:../Common/IQMath/ti/_IQNsqrt.c ****     }
 845              		.loc 1 270 9 is_stmt 1 view .LVU338
ARM GAS  C:\Users\57308\AppData\Local\Temp\ccWnCQ57.s 			page 32


 270:../Common/IQMath/ti/_IQNsqrt.c ****     }
 846              		.loc 1 270 21 is_stmt 0 view .LVU339
 847 0076 1033     		adds	r3, r3, #16
 848              	.LVL97:
 849              	.L51:
 272:../Common/IQMath/ti/_IQNsqrt.c ****         uiq31Result >>= 8;
 850              		.loc 1 272 5 is_stmt 1 view .LVU340
 272:../Common/IQMath/ti/_IQNsqrt.c ****         uiq31Result >>= 8;
 851              		.loc 1 272 8 is_stmt 0 view .LVU341
 852 0078 13F1070F 		cmn	r3, #7
 853 007c 01DA     		bge	.L53
 273:../Common/IQMath/ti/_IQNsqrt.c ****         i16Exponent += 8;
 854              		.loc 1 273 9 is_stmt 1 view .LVU342
 273:../Common/IQMath/ti/_IQNsqrt.c ****         i16Exponent += 8;
 855              		.loc 1 273 21 is_stmt 0 view .LVU343
 856 007e 000A     		lsrs	r0, r0, #8
 857              	.LVL98:
 274:../Common/IQMath/ti/_IQNsqrt.c ****     }
 858              		.loc 1 274 9 is_stmt 1 view .LVU344
 274:../Common/IQMath/ti/_IQNsqrt.c ****     }
 859              		.loc 1 274 21 is_stmt 0 view .LVU345
 860 0080 0833     		adds	r3, r3, #8
 861              	.LVL99:
 862              	.L53:
 276:../Common/IQMath/ti/_IQNsqrt.c ****         uiq31Result >>= 1;
 863              		.loc 1 276 11 is_stmt 1 view .LVU346
 864 0082 B3F1FF3F 		cmp	r3, #-1
 865 0086 02DA     		bge	.L62
 277:../Common/IQMath/ti/_IQNsqrt.c ****         i16Exponent++;
 866              		.loc 1 277 9 view .LVU347
 277:../Common/IQMath/ti/_IQNsqrt.c ****         i16Exponent++;
 867              		.loc 1 277 21 is_stmt 0 view .LVU348
 868 0088 4008     		lsrs	r0, r0, #1
 869              	.LVL100:
 278:../Common/IQMath/ti/_IQNsqrt.c ****     }
 870              		.loc 1 278 9 is_stmt 1 view .LVU349
 278:../Common/IQMath/ti/_IQNsqrt.c ****     }
 871              		.loc 1 278 20 is_stmt 0 view .LVU350
 872 008a 0133     		adds	r3, r3, #1
 873              	.LVL101:
 278:../Common/IQMath/ti/_IQNsqrt.c ****     }
 874              		.loc 1 278 20 view .LVU351
 875 008c F9E7     		b	.L53
 876              	.L62:
 280:../Common/IQMath/ti/_IQNsqrt.c ****         uiq31Result++;
 877              		.loc 1 280 5 is_stmt 1 view .LVU352
 280:../Common/IQMath/ti/_IQNsqrt.c ****         uiq31Result++;
 878              		.loc 1 280 8 is_stmt 0 view .LVU353
 879 008e 2BB1     		cbz	r3, .L45
 281:../Common/IQMath/ti/_IQNsqrt.c ****         uiq31Result >>= 1;
 880              		.loc 1 281 9 is_stmt 1 view .LVU354
 281:../Common/IQMath/ti/_IQNsqrt.c ****         uiq31Result >>= 1;
 881              		.loc 1 281 20 is_stmt 0 view .LVU355
 882 0090 0130     		adds	r0, r0, #1
 883              	.LVL102:
 282:../Common/IQMath/ti/_IQNsqrt.c ****     }        
 884              		.loc 1 282 9 is_stmt 1 view .LVU356
ARM GAS  C:\Users\57308\AppData\Local\Temp\ccWnCQ57.s 			page 33


 282:../Common/IQMath/ti/_IQNsqrt.c ****     }        
 885              		.loc 1 282 21 is_stmt 0 view .LVU357
 886 0092 4008     		lsrs	r0, r0, #1
 887              	.LVL103:
 285:../Common/IQMath/ti/_IQNsqrt.c **** }
 888              		.loc 1 285 5 is_stmt 1 view .LVU358
 285:../Common/IQMath/ti/_IQNsqrt.c **** }
 889              		.loc 1 285 12 is_stmt 0 view .LVU359
 890 0094 02E0     		b	.L45
 891              	.LVL104:
 892              	.L56:
 893              	.LCFI7:
 894              		.cfi_def_cfa_offset 0
 895              		.cfi_restore 4
 896              		.cfi_restore 14
 129:../Common/IQMath/ti/_IQNsqrt.c ****         }
 897              		.loc 1 129 20 view .LVU360
 898 0096 0020     		movs	r0, #0
 899              	.LVL105:
 129:../Common/IQMath/ti/_IQNsqrt.c ****         }
 900              		.loc 1 129 20 view .LVU361
 901              	.LBE118:
 902              	.LBE122:
 396:../Common/IQMath/ti/_IQNsqrt.c **** }
 903              		.loc 1 396 1 view .LVU362
 904 0098 7047     		bx	lr
 905              	.LVL106:
 906              	.L57:
 907              	.LCFI8:
 908              		.cfi_def_cfa_offset 8
 909              		.cfi_offset 4, -8
 910              		.cfi_offset 14, -4
 911              	.LBB123:
 912              	.LBB119:
 266:../Common/IQMath/ti/_IQNsqrt.c ****     }
 913              		.loc 1 266 16 view .LVU363
 914 009a 0020     		movs	r0, #0
 915              	.LVL107:
 916              	.L45:
 266:../Common/IQMath/ti/_IQNsqrt.c ****     }
 917              		.loc 1 266 16 view .LVU364
 918              	.LBE119:
 919              	.LBE123:
 920              		.loc 1 396 1 view .LVU365
 921 009c 10BD     		pop	{r4, pc}
 922              	.L64:
 923 009e 00BF     		.align	2
 924              	.L63:
 925 00a0 00000000 		.word	_IQ14sqrt_lookup
 926              		.cfi_endproc
 927              	.LFE264:
 929              		.section	.text._IQ28sqrt,"ax",%progbits
 930              		.align	1
 931              		.global	_IQ28sqrt
 932              		.syntax unified
 933              		.thumb
 934              		.thumb_func
ARM GAS  C:\Users\57308\AppData\Local\Temp\ccWnCQ57.s 			page 34


 936              	_IQ28sqrt:
 937              	.LVL108:
 938              	.LFB265:
 397:../Common/IQMath/ti/_IQNsqrt.c **** /**
 398:../Common/IQMath/ti/_IQNsqrt.c ****  * @brief Calculate square root of an IQ28 input.
 399:../Common/IQMath/ti/_IQNsqrt.c ****  *
 400:../Common/IQMath/ti/_IQNsqrt.c ****  * @param a                 IQ28 type input.
 401:../Common/IQMath/ti/_IQNsqrt.c ****  *
 402:../Common/IQMath/ti/_IQNsqrt.c ****  * @return                  IQ28 type result of the square root operation.
 403:../Common/IQMath/ti/_IQNsqrt.c ****  */
 404:../Common/IQMath/ti/_IQNsqrt.c **** int32_t _IQ28sqrt(int32_t a)
 405:../Common/IQMath/ti/_IQNsqrt.c **** {
 939              		.loc 1 405 1 is_stmt 1 view -0
 940              		.cfi_startproc
 941              		@ args = 0, pretend = 0, frame = 0
 942              		@ frame_needed = 0, uses_anonymous_args = 0
 406:../Common/IQMath/ti/_IQNsqrt.c ****     return __IQNsqrt(a, 0, 28, TYPE_SQRT);
 943              		.loc 1 406 5 view .LVU367
 944              	.LBB139:
 945              	.LBI139:
  68:../Common/IQMath/ti/_IQNsqrt.c **** {
 946              		.loc 1 68 30 view .LVU368
 947              	.LBB140:
  70:../Common/IQMath/ti/_IQNsqrt.c ****     uint8_t ui8Loops;
 948              		.loc 1 70 5 view .LVU369
  71:../Common/IQMath/ti/_IQNsqrt.c ****     int_fast16_t i16Exponent;
 949              		.loc 1 71 5 view .LVU370
  72:../Common/IQMath/ti/_IQNsqrt.c ****     uint_fast16_t ui16IntState;
 950              		.loc 1 72 5 view .LVU371
  73:../Common/IQMath/ti/_IQNsqrt.c ****     uint_fast16_t ui16MPYState;
 951              		.loc 1 73 5 view .LVU372
  74:../Common/IQMath/ti/_IQNsqrt.c ****     uint_fast32_t uiq30Guess;
 952              		.loc 1 74 5 view .LVU373
  75:../Common/IQMath/ti/_IQNsqrt.c ****     uint_fast32_t uiq30Result;
 953              		.loc 1 75 5 view .LVU374
  76:../Common/IQMath/ti/_IQNsqrt.c ****     uint_fast32_t uiq31Result;
 954              		.loc 1 76 5 view .LVU375
  77:../Common/IQMath/ti/_IQNsqrt.c ****     uint_fast32_t uiq32Input;
 955              		.loc 1 77 5 view .LVU376
  78:../Common/IQMath/ti/_IQNsqrt.c ****     
 956              		.loc 1 78 5 view .LVU377
  81:../Common/IQMath/ti/_IQNsqrt.c ****         uint_fast64_t ui64Sum;
 957              		.loc 1 81 5 view .LVU378
 128:../Common/IQMath/ti/_IQNsqrt.c ****             return 0;
 958              		.loc 1 128 9 view .LVU379
 128:../Common/IQMath/ti/_IQNsqrt.c ****             return 0;
 959              		.loc 1 128 12 is_stmt 0 view .LVU380
 960 0000 0028     		cmp	r0, #0
 128:../Common/IQMath/ti/_IQNsqrt.c ****             return 0;
 961              		.loc 1 128 12 view .LVU381
 962 0002 47DD     		ble	.L76
 963              	.LBE140:
 964              	.LBE139:
 405:../Common/IQMath/ti/_IQNsqrt.c ****     return __IQNsqrt(a, 0, 28, TYPE_SQRT);
 965              		.loc 1 405 1 view .LVU382
 966 0004 10B5     		push	{r4, lr}
 967              	.LCFI9:
ARM GAS  C:\Users\57308\AppData\Local\Temp\ccWnCQ57.s 			page 35


 968              		.cfi_def_cfa_offset 8
 969              		.cfi_offset 4, -8
 970              		.cfi_offset 14, -4
 971              	.LBB153:
 972              	.LBB149:
 133:../Common/IQMath/ti/_IQNsqrt.c ****             iqNInputX <<= 1;
 973              		.loc 1 133 9 is_stmt 1 view .LVU383
 146:../Common/IQMath/ti/_IQNsqrt.c ****                 i16Exponent = (32 - q_value) >> 1;
 974              		.loc 1 146 13 view .LVU384
 147:../Common/IQMath/ti/_IQNsqrt.c ****             }
 975              		.loc 1 147 17 view .LVU385
 976              	.LVL109:
 156:../Common/IQMath/ti/_IQNsqrt.c ****         
 977              		.loc 1 156 9 view .LVU386
 159:../Common/IQMath/ti/_IQNsqrt.c ****             uiq32Input <<= 2;
 978              		.loc 1 159 9 view .LVU387
 159:../Common/IQMath/ti/_IQNsqrt.c ****             uiq32Input <<= 2;
 979              		.loc 1 159 15 is_stmt 0 view .LVU388
 980 0006 4FF0020C 		mov	ip, #2
 981 000a 02E0     		b	.L67
 982              	.LVL110:
 983              	.L68:
 160:../Common/IQMath/ti/_IQNsqrt.c ****             /* Decrement exponent for sqrt and mag */
 984              		.loc 1 160 13 is_stmt 1 view .LVU389
 160:../Common/IQMath/ti/_IQNsqrt.c ****             /* Decrement exponent for sqrt and mag */
 985              		.loc 1 160 24 is_stmt 0 view .LVU390
 986 000c 8000     		lsls	r0, r0, #2
 987              	.LVL111:
 162:../Common/IQMath/ti/_IQNsqrt.c ****                 i16Exponent--;
 988              		.loc 1 162 13 is_stmt 1 view .LVU391
 163:../Common/IQMath/ti/_IQNsqrt.c ****             }
 989              		.loc 1 163 17 view .LVU392
 163:../Common/IQMath/ti/_IQNsqrt.c ****             }
 990              		.loc 1 163 28 is_stmt 0 view .LVU393
 991 000e 0CF1FF3C 		add	ip, ip, #-1
 992              	.LVL112:
 993              	.L67:
 159:../Common/IQMath/ti/_IQNsqrt.c ****             uiq32Input <<= 2;
 994              		.loc 1 159 15 is_stmt 1 view .LVU394
 995 0012 B0F1804F 		cmp	r0, #1073741824
 996 0016 F9D3     		bcc	.L68
 174:../Common/IQMath/ti/_IQNsqrt.c ****     ui8Index -= 32;
 997              		.loc 1 174 5 view .LVU395
 174:../Common/IQMath/ti/_IQNsqrt.c ****     ui8Index -= 32;
 998              		.loc 1 174 14 is_stmt 0 view .LVU396
 999 0018 430E     		lsrs	r3, r0, #25
 1000              	.LVL113:
 175:../Common/IQMath/ti/_IQNsqrt.c ****     uiq30Guess = (uint_fast32_t)_IQ14sqrt_lookup[ui8Index] << 16;
 1001              		.loc 1 175 5 is_stmt 1 view .LVU397
 175:../Common/IQMath/ti/_IQNsqrt.c ****     uiq30Guess = (uint_fast32_t)_IQ14sqrt_lookup[ui8Index] << 16;
 1002              		.loc 1 175 14 is_stmt 0 view .LVU398
 1003 001a 203B     		subs	r3, r3, #32
 1004              	.LVL114:
 175:../Common/IQMath/ti/_IQNsqrt.c ****     uiq30Guess = (uint_fast32_t)_IQ14sqrt_lookup[ui8Index] << 16;
 1005              		.loc 1 175 14 view .LVU399
 1006 001c DBB2     		uxtb	r3, r3
 1007              	.LVL115:
ARM GAS  C:\Users\57308\AppData\Local\Temp\ccWnCQ57.s 			page 36


 176:../Common/IQMath/ti/_IQNsqrt.c ****     
 1008              		.loc 1 176 5 is_stmt 1 view .LVU400
 176:../Common/IQMath/ti/_IQNsqrt.c ****     
 1009              		.loc 1 176 49 is_stmt 0 view .LVU401
 1010 001e 1F4A     		ldr	r2, .L83
 1011 0020 52F82310 		ldr	r1, [r2, r3, lsl #2]
 176:../Common/IQMath/ti/_IQNsqrt.c ****     
 1012              		.loc 1 176 16 view .LVU402
 1013 0024 0904     		lsls	r1, r1, #16
 1014              	.LVL116:
 184:../Common/IQMath/ti/_IQNsqrt.c ****     
 1015              		.loc 1 184 5 is_stmt 1 view .LVU403
 184:../Common/IQMath/ti/_IQNsqrt.c ****     
 1016              		.loc 1 184 5 is_stmt 0 view .LVU404
 1017              	.LBE149:
 1018              	.LBE153:
  28:../Common/IQMath/ti/./support/RTS_support.h **** }
 1019              		.loc 2 28 5 is_stmt 1 view .LVU405
 1020              	.LBB154:
 1021              	.LBB150:
 192:../Common/IQMath/ti/_IQNsqrt.c ****         ui8Loops = 2;
 1022              		.loc 1 192 5 view .LVU406
 196:../Common/IQMath/ti/_IQNsqrt.c ****     }
 1023              		.loc 1 196 9 view .LVU407
 176:../Common/IQMath/ti/_IQNsqrt.c ****     
 1024              		.loc 1 176 16 is_stmt 0 view .LVU408
 1025 0026 0323     		movs	r3, #3
 1026              	.LVL117:
 176:../Common/IQMath/ti/_IQNsqrt.c ****     
 1027              		.loc 1 176 16 view .LVU409
 1028 0028 11E0     		b	.L69
 1029              	.LVL118:
 1030              	.L70:
 202:../Common/IQMath/ti/_IQNsqrt.c ****         
 1031              		.loc 1 202 9 is_stmt 1 view .LVU410
 1032              	.LBB141:
 1033              	.LBI141:
 254:../Common/IQMath/ti/./support/RTS_support.h **** {
 1034              		.loc 2 254 29 view .LVU411
 1035              	.LBB142:
 1036              		.loc 2 256 5 view .LVU412
 1037              		.loc 2 256 49 is_stmt 0 view .LVU413
 1038 002a A0FB0124 		umull	r2, r4, r0, r1
 1039              		.loc 2 256 72 view .LVU414
 1040 002e D30F     		lsrs	r3, r2, #31
 1041 0030 43EA4403 		orr	r3, r3, r4, lsl #1
 1042              	.LVL119:
 1043              		.loc 2 256 72 view .LVU415
 1044              	.LBE142:
 1045              	.LBE141:
 205:../Common/IQMath/ti/_IQNsqrt.c ****         
 1046              		.loc 1 205 9 is_stmt 1 view .LVU416
 1047              	.LBB143:
 1048              	.LBI143:
 254:../Common/IQMath/ti/./support/RTS_support.h **** {
 1049              		.loc 2 254 29 view .LVU417
 1050              	.LBB144:
ARM GAS  C:\Users\57308\AppData\Local\Temp\ccWnCQ57.s 			page 37


 1051              		.loc 2 256 5 view .LVU418
 1052              		.loc 2 256 49 is_stmt 0 view .LVU419
 1053 0034 A3FB0132 		umull	r3, r2, r3, r1
 1054              	.LVL120:
 1055              		.loc 2 256 72 view .LVU420
 1056 0038 DB0F     		lsrs	r3, r3, #31
 1057 003a 43EA4203 		orr	r3, r3, r2, lsl #1
 1058              	.LVL121:
 1059              		.loc 2 256 72 view .LVU421
 1060              	.LBE144:
 1061              	.LBE143:
 208:../Common/IQMath/ti/_IQNsqrt.c ****         
 1062              		.loc 1 208 9 is_stmt 1 view .LVU422
 208:../Common/IQMath/ti/_IQNsqrt.c ****         
 1063              		.loc 1 208 21 is_stmt 0 view .LVU423
 1064 003e C3F14043 		rsb	r3, r3, #-1073741824
 1065              	.LVL122:
 214:../Common/IQMath/ti/_IQNsqrt.c ****     }
 1066              		.loc 1 214 9 is_stmt 1 view .LVU424
 1067              	.LBB145:
 1068              	.LBI145:
 254:../Common/IQMath/ti/./support/RTS_support.h **** {
 1069              		.loc 2 254 29 view .LVU425
 1070              	.LBB146:
 1071              		.loc 2 256 5 view .LVU426
 1072              		.loc 2 256 49 is_stmt 0 view .LVU427
 1073 0042 A1FB0331 		umull	r3, r1, r1, r3
 1074              	.LVL123:
 1075              		.loc 2 256 72 view .LVU428
 1076 0046 DB0F     		lsrs	r3, r3, #31
 1077 0048 43EA4101 		orr	r1, r3, r1, lsl #1
 1078              	.LVL124:
 1079              		.loc 2 256 72 view .LVU429
 1080              	.LBE146:
 1081              	.LBE145:
 200:../Common/IQMath/ti/_IQNsqrt.c ****         /* x*g */
 1082              		.loc 1 200 20 view .LVU430
 1083 004c 7346     		mov	r3, lr
 1084              	.LVL125:
 1085              	.L69:
 200:../Common/IQMath/ti/_IQNsqrt.c ****         /* x*g */
 1086              		.loc 1 200 11 is_stmt 1 view .LVU431
 200:../Common/IQMath/ti/_IQNsqrt.c ****         /* x*g */
 1087              		.loc 1 200 20 is_stmt 0 view .LVU432
 1088 004e 5A1E     		subs	r2, r3, #1
 1089 0050 5FFA82FE 		uxtb	lr, r2
 1090              	.LVL126:
 200:../Common/IQMath/ti/_IQNsqrt.c ****         /* x*g */
 1091              		.loc 1 200 11 view .LVU433
 1092 0054 002B     		cmp	r3, #0
 1093 0056 E8D1     		bne	.L70
 218:../Common/IQMath/ti/_IQNsqrt.c ****         /*
 1094              		.loc 1 218 5 is_stmt 1 view .LVU434
 223:../Common/IQMath/ti/_IQNsqrt.c ****     
 1095              		.loc 1 223 9 view .LVU435
 1096              	.LVL127:
 1097              	.LBB147:
ARM GAS  C:\Users\57308\AppData\Local\Temp\ccWnCQ57.s 			page 38


 1098              	.LBI147:
 254:../Common/IQMath/ti/./support/RTS_support.h **** {
 1099              		.loc 2 254 29 view .LVU436
 1100              	.LBB148:
 1101              		.loc 2 256 5 view .LVU437
 1102              		.loc 2 256 49 is_stmt 0 view .LVU438
 1103 0058 A1FB0031 		umull	r3, r1, r1, r0
 1104              		.loc 2 256 72 view .LVU439
 1105 005c D80F     		lsrs	r0, r3, #31
 1106              	.LVL128:
 1107              		.loc 2 256 72 view .LVU440
 1108 005e 40EA4100 		orr	r0, r0, r1, lsl #1
 1109              	.LVL129:
 1110              		.loc 2 256 72 view .LVU441
 1111              	.LBE148:
 1112              	.LBE147:
 225:../Common/IQMath/ti/_IQNsqrt.c ****     
 1113              		.loc 1 225 9 is_stmt 1 view .LVU442
 225:../Common/IQMath/ti/_IQNsqrt.c ****     
 1114              		.loc 1 225 9 is_stmt 0 view .LVU443
 1115              	.LBE150:
 1116              	.LBE154:
  72:../Common/IQMath/ti/./support/RTS_support.h **** }
 1117              		.loc 2 72 5 is_stmt 1 view .LVU444
 1118              	.LBB155:
 1119              	.LBB151:
 230:../Common/IQMath/ti/_IQNsqrt.c ****         
 1120              		.loc 1 230 9 view .LVU445
 230:../Common/IQMath/ti/_IQNsqrt.c ****         
 1121              		.loc 1 230 21 is_stmt 0 view .LVU446
 1122 0062 ACF10303 		sub	r3, ip, #3
 1123              	.LVL130:
 233:../Common/IQMath/ti/_IQNsqrt.c ****             if (i16Exponent > 0) {
 1124              		.loc 1 233 9 is_stmt 1 view .LVU447
 240:../Common/IQMath/ti/_IQNsqrt.c ****             if (i16Exponent > 0) {
 1125              		.loc 1 240 9 view .LVU448
 265:../Common/IQMath/ti/_IQNsqrt.c ****         return 0;
 1126              		.loc 1 265 5 view .LVU449
 265:../Common/IQMath/ti/_IQNsqrt.c ****         return 0;
 1127              		.loc 1 265 8 is_stmt 0 view .LVU450
 1128 0066 13F11F0F 		cmn	r3, #31
 1129 006a 15DB     		blt	.L77
 268:../Common/IQMath/ti/_IQNsqrt.c ****         uiq31Result >>= 16;
 1130              		.loc 1 268 5 is_stmt 1 view .LVU451
 268:../Common/IQMath/ti/_IQNsqrt.c ****         uiq31Result >>= 16;
 1131              		.loc 1 268 8 is_stmt 0 view .LVU452
 1132 006c 13F10F0F 		cmn	r3, #15
 1133 0070 01DA     		bge	.L71
 269:../Common/IQMath/ti/_IQNsqrt.c ****         i16Exponent += 16;
 1134              		.loc 1 269 9 is_stmt 1 view .LVU453
 269:../Common/IQMath/ti/_IQNsqrt.c ****         i16Exponent += 16;
 1135              		.loc 1 269 21 is_stmt 0 view .LVU454
 1136 0072 000C     		lsrs	r0, r0, #16
 1137              	.LVL131:
 270:../Common/IQMath/ti/_IQNsqrt.c ****     }
 1138              		.loc 1 270 9 is_stmt 1 view .LVU455
 270:../Common/IQMath/ti/_IQNsqrt.c ****     }
ARM GAS  C:\Users\57308\AppData\Local\Temp\ccWnCQ57.s 			page 39


 1139              		.loc 1 270 21 is_stmt 0 view .LVU456
 1140 0074 1033     		adds	r3, r3, #16
 1141              	.LVL132:
 1142              	.L71:
 272:../Common/IQMath/ti/_IQNsqrt.c ****         uiq31Result >>= 8;
 1143              		.loc 1 272 5 is_stmt 1 view .LVU457
 272:../Common/IQMath/ti/_IQNsqrt.c ****         uiq31Result >>= 8;
 1144              		.loc 1 272 8 is_stmt 0 view .LVU458
 1145 0076 13F1070F 		cmn	r3, #7
 1146 007a 01DA     		bge	.L73
 273:../Common/IQMath/ti/_IQNsqrt.c ****         i16Exponent += 8;
 1147              		.loc 1 273 9 is_stmt 1 view .LVU459
 273:../Common/IQMath/ti/_IQNsqrt.c ****         i16Exponent += 8;
 1148              		.loc 1 273 21 is_stmt 0 view .LVU460
 1149 007c 000A     		lsrs	r0, r0, #8
 1150              	.LVL133:
 274:../Common/IQMath/ti/_IQNsqrt.c ****     }
 1151              		.loc 1 274 9 is_stmt 1 view .LVU461
 274:../Common/IQMath/ti/_IQNsqrt.c ****     }
 1152              		.loc 1 274 21 is_stmt 0 view .LVU462
 1153 007e 0833     		adds	r3, r3, #8
 1154              	.LVL134:
 1155              	.L73:
 276:../Common/IQMath/ti/_IQNsqrt.c ****         uiq31Result >>= 1;
 1156              		.loc 1 276 11 is_stmt 1 view .LVU463
 1157 0080 B3F1FF3F 		cmp	r3, #-1
 1158 0084 02DA     		bge	.L82
 277:../Common/IQMath/ti/_IQNsqrt.c ****         i16Exponent++;
 1159              		.loc 1 277 9 view .LVU464
 277:../Common/IQMath/ti/_IQNsqrt.c ****         i16Exponent++;
 1160              		.loc 1 277 21 is_stmt 0 view .LVU465
 1161 0086 4008     		lsrs	r0, r0, #1
 1162              	.LVL135:
 278:../Common/IQMath/ti/_IQNsqrt.c ****     }
 1163              		.loc 1 278 9 is_stmt 1 view .LVU466
 278:../Common/IQMath/ti/_IQNsqrt.c ****     }
 1164              		.loc 1 278 20 is_stmt 0 view .LVU467
 1165 0088 0133     		adds	r3, r3, #1
 1166              	.LVL136:
 278:../Common/IQMath/ti/_IQNsqrt.c ****     }
 1167              		.loc 1 278 20 view .LVU468
 1168 008a F9E7     		b	.L73
 1169              	.L82:
 280:../Common/IQMath/ti/_IQNsqrt.c ****         uiq31Result++;
 1170              		.loc 1 280 5 is_stmt 1 view .LVU469
 280:../Common/IQMath/ti/_IQNsqrt.c ****         uiq31Result++;
 1171              		.loc 1 280 8 is_stmt 0 view .LVU470
 1172 008c 2BB1     		cbz	r3, .L65
 281:../Common/IQMath/ti/_IQNsqrt.c ****         uiq31Result >>= 1;
 1173              		.loc 1 281 9 is_stmt 1 view .LVU471
 281:../Common/IQMath/ti/_IQNsqrt.c ****         uiq31Result >>= 1;
 1174              		.loc 1 281 20 is_stmt 0 view .LVU472
 1175 008e 0130     		adds	r0, r0, #1
 1176              	.LVL137:
 282:../Common/IQMath/ti/_IQNsqrt.c ****     }        
 1177              		.loc 1 282 9 is_stmt 1 view .LVU473
 282:../Common/IQMath/ti/_IQNsqrt.c ****     }        
ARM GAS  C:\Users\57308\AppData\Local\Temp\ccWnCQ57.s 			page 40


 1178              		.loc 1 282 21 is_stmt 0 view .LVU474
 1179 0090 4008     		lsrs	r0, r0, #1
 1180              	.LVL138:
 285:../Common/IQMath/ti/_IQNsqrt.c **** }
 1181              		.loc 1 285 5 is_stmt 1 view .LVU475
 285:../Common/IQMath/ti/_IQNsqrt.c **** }
 1182              		.loc 1 285 12 is_stmt 0 view .LVU476
 1183 0092 02E0     		b	.L65
 1184              	.LVL139:
 1185              	.L76:
 1186              	.LCFI10:
 1187              		.cfi_def_cfa_offset 0
 1188              		.cfi_restore 4
 1189              		.cfi_restore 14
 129:../Common/IQMath/ti/_IQNsqrt.c ****         }
 1190              		.loc 1 129 20 view .LVU477
 1191 0094 0020     		movs	r0, #0
 1192              	.LVL140:
 129:../Common/IQMath/ti/_IQNsqrt.c ****         }
 1193              		.loc 1 129 20 view .LVU478
 1194              	.LBE151:
 1195              	.LBE155:
 407:../Common/IQMath/ti/_IQNsqrt.c **** }
 1196              		.loc 1 407 1 view .LVU479
 1197 0096 7047     		bx	lr
 1198              	.LVL141:
 1199              	.L77:
 1200              	.LCFI11:
 1201              		.cfi_def_cfa_offset 8
 1202              		.cfi_offset 4, -8
 1203              		.cfi_offset 14, -4
 1204              	.LBB156:
 1205              	.LBB152:
 266:../Common/IQMath/ti/_IQNsqrt.c ****     }
 1206              		.loc 1 266 16 view .LVU480
 1207 0098 0020     		movs	r0, #0
 1208              	.LVL142:
 1209              	.L65:
 266:../Common/IQMath/ti/_IQNsqrt.c ****     }
 1210              		.loc 1 266 16 view .LVU481
 1211              	.LBE152:
 1212              	.LBE156:
 1213              		.loc 1 407 1 view .LVU482
 1214 009a 10BD     		pop	{r4, pc}
 1215              	.L84:
 1216              		.align	2
 1217              	.L83:
 1218 009c 00000000 		.word	_IQ14sqrt_lookup
 1219              		.cfi_endproc
 1220              	.LFE265:
 1222              		.section	.text._IQ27sqrt,"ax",%progbits
 1223              		.align	1
 1224              		.global	_IQ27sqrt
 1225              		.syntax unified
 1226              		.thumb
 1227              		.thumb_func
 1229              	_IQ27sqrt:
ARM GAS  C:\Users\57308\AppData\Local\Temp\ccWnCQ57.s 			page 41


 1230              	.LVL143:
 1231              	.LFB266:
 408:../Common/IQMath/ti/_IQNsqrt.c **** /**
 409:../Common/IQMath/ti/_IQNsqrt.c ****  * @brief Calculate square root of an IQ27 input.
 410:../Common/IQMath/ti/_IQNsqrt.c ****  *
 411:../Common/IQMath/ti/_IQNsqrt.c ****  * @param a                 IQ27 type input.
 412:../Common/IQMath/ti/_IQNsqrt.c ****  *
 413:../Common/IQMath/ti/_IQNsqrt.c ****  * @return                  IQ27 type result of the square root operation.
 414:../Common/IQMath/ti/_IQNsqrt.c ****  */
 415:../Common/IQMath/ti/_IQNsqrt.c **** int32_t _IQ27sqrt(int32_t a)
 416:../Common/IQMath/ti/_IQNsqrt.c **** {
 1232              		.loc 1 416 1 is_stmt 1 view -0
 1233              		.cfi_startproc
 1234              		@ args = 0, pretend = 0, frame = 0
 1235              		@ frame_needed = 0, uses_anonymous_args = 0
 417:../Common/IQMath/ti/_IQNsqrt.c ****     return __IQNsqrt(a, 0, 27, TYPE_SQRT);
 1236              		.loc 1 417 5 view .LVU484
 1237              	.LBB172:
 1238              	.LBI172:
  68:../Common/IQMath/ti/_IQNsqrt.c **** {
 1239              		.loc 1 68 30 view .LVU485
 1240              	.LBB173:
  70:../Common/IQMath/ti/_IQNsqrt.c ****     uint8_t ui8Loops;
 1241              		.loc 1 70 5 view .LVU486
  71:../Common/IQMath/ti/_IQNsqrt.c ****     int_fast16_t i16Exponent;
 1242              		.loc 1 71 5 view .LVU487
  72:../Common/IQMath/ti/_IQNsqrt.c ****     uint_fast16_t ui16IntState;
 1243              		.loc 1 72 5 view .LVU488
  73:../Common/IQMath/ti/_IQNsqrt.c ****     uint_fast16_t ui16MPYState;
 1244              		.loc 1 73 5 view .LVU489
  74:../Common/IQMath/ti/_IQNsqrt.c ****     uint_fast32_t uiq30Guess;
 1245              		.loc 1 74 5 view .LVU490
  75:../Common/IQMath/ti/_IQNsqrt.c ****     uint_fast32_t uiq30Result;
 1246              		.loc 1 75 5 view .LVU491
  76:../Common/IQMath/ti/_IQNsqrt.c ****     uint_fast32_t uiq31Result;
 1247              		.loc 1 76 5 view .LVU492
  77:../Common/IQMath/ti/_IQNsqrt.c ****     uint_fast32_t uiq32Input;
 1248              		.loc 1 77 5 view .LVU493
  78:../Common/IQMath/ti/_IQNsqrt.c ****     
 1249              		.loc 1 78 5 view .LVU494
  81:../Common/IQMath/ti/_IQNsqrt.c ****         uint_fast64_t ui64Sum;
 1250              		.loc 1 81 5 view .LVU495
 128:../Common/IQMath/ti/_IQNsqrt.c ****             return 0;
 1251              		.loc 1 128 9 view .LVU496
 128:../Common/IQMath/ti/_IQNsqrt.c ****             return 0;
 1252              		.loc 1 128 12 is_stmt 0 view .LVU497
 1253 0000 0028     		cmp	r0, #0
 128:../Common/IQMath/ti/_IQNsqrt.c ****             return 0;
 1254              		.loc 1 128 12 view .LVU498
 1255 0002 48DD     		ble	.L96
 1256              	.LBE173:
 1257              	.LBE172:
 416:../Common/IQMath/ti/_IQNsqrt.c ****     return __IQNsqrt(a, 0, 27, TYPE_SQRT);
 1258              		.loc 1 416 1 view .LVU499
 1259 0004 10B5     		push	{r4, lr}
 1260              	.LCFI12:
 1261              		.cfi_def_cfa_offset 8
ARM GAS  C:\Users\57308\AppData\Local\Temp\ccWnCQ57.s 			page 42


 1262              		.cfi_offset 4, -8
 1263              		.cfi_offset 14, -4
 1264              	.LBB186:
 1265              	.LBB182:
 133:../Common/IQMath/ti/_IQNsqrt.c ****             iqNInputX <<= 1;
 1266              		.loc 1 133 9 is_stmt 1 view .LVU500
 134:../Common/IQMath/ti/_IQNsqrt.c ****             /* Start with positive exponent for sqrt */
 1267              		.loc 1 134 13 view .LVU501
 134:../Common/IQMath/ti/_IQNsqrt.c ****             /* Start with positive exponent for sqrt */
 1268              		.loc 1 134 23 is_stmt 0 view .LVU502
 1269 0006 4000     		lsls	r0, r0, #1
 1270              	.LVL144:
 136:../Common/IQMath/ti/_IQNsqrt.c ****                 i16Exponent = ((32 - q_value) - 1) >> 1;
 1271              		.loc 1 136 13 is_stmt 1 view .LVU503
 137:../Common/IQMath/ti/_IQNsqrt.c ****             }
 1272              		.loc 1 137 17 view .LVU504
 156:../Common/IQMath/ti/_IQNsqrt.c ****         
 1273              		.loc 1 156 9 view .LVU505
 159:../Common/IQMath/ti/_IQNsqrt.c ****             uiq32Input <<= 2;
 1274              		.loc 1 159 9 view .LVU506
 159:../Common/IQMath/ti/_IQNsqrt.c ****             uiq32Input <<= 2;
 1275              		.loc 1 159 15 is_stmt 0 view .LVU507
 1276 0008 4FF0020C 		mov	ip, #2
 1277 000c 02E0     		b	.L87
 1278              	.LVL145:
 1279              	.L88:
 160:../Common/IQMath/ti/_IQNsqrt.c ****             /* Decrement exponent for sqrt and mag */
 1280              		.loc 1 160 13 is_stmt 1 view .LVU508
 160:../Common/IQMath/ti/_IQNsqrt.c ****             /* Decrement exponent for sqrt and mag */
 1281              		.loc 1 160 24 is_stmt 0 view .LVU509
 1282 000e 8000     		lsls	r0, r0, #2
 1283              	.LVL146:
 162:../Common/IQMath/ti/_IQNsqrt.c ****                 i16Exponent--;
 1284              		.loc 1 162 13 is_stmt 1 view .LVU510
 163:../Common/IQMath/ti/_IQNsqrt.c ****             }
 1285              		.loc 1 163 17 view .LVU511
 163:../Common/IQMath/ti/_IQNsqrt.c ****             }
 1286              		.loc 1 163 28 is_stmt 0 view .LVU512
 1287 0010 0CF1FF3C 		add	ip, ip, #-1
 1288              	.LVL147:
 1289              	.L87:
 159:../Common/IQMath/ti/_IQNsqrt.c ****             uiq32Input <<= 2;
 1290              		.loc 1 159 15 is_stmt 1 view .LVU513
 1291 0014 B0F1804F 		cmp	r0, #1073741824
 1292 0018 F9D3     		bcc	.L88
 174:../Common/IQMath/ti/_IQNsqrt.c ****     ui8Index -= 32;
 1293              		.loc 1 174 5 view .LVU514
 174:../Common/IQMath/ti/_IQNsqrt.c ****     ui8Index -= 32;
 1294              		.loc 1 174 14 is_stmt 0 view .LVU515
 1295 001a 430E     		lsrs	r3, r0, #25
 1296              	.LVL148:
 175:../Common/IQMath/ti/_IQNsqrt.c ****     uiq30Guess = (uint_fast32_t)_IQ14sqrt_lookup[ui8Index] << 16;
 1297              		.loc 1 175 5 is_stmt 1 view .LVU516
 175:../Common/IQMath/ti/_IQNsqrt.c ****     uiq30Guess = (uint_fast32_t)_IQ14sqrt_lookup[ui8Index] << 16;
 1298              		.loc 1 175 14 is_stmt 0 view .LVU517
 1299 001c 203B     		subs	r3, r3, #32
 1300              	.LVL149:
ARM GAS  C:\Users\57308\AppData\Local\Temp\ccWnCQ57.s 			page 43


 175:../Common/IQMath/ti/_IQNsqrt.c ****     uiq30Guess = (uint_fast32_t)_IQ14sqrt_lookup[ui8Index] << 16;
 1301              		.loc 1 175 14 view .LVU518
 1302 001e DBB2     		uxtb	r3, r3
 1303              	.LVL150:
 176:../Common/IQMath/ti/_IQNsqrt.c ****     
 1304              		.loc 1 176 5 is_stmt 1 view .LVU519
 176:../Common/IQMath/ti/_IQNsqrt.c ****     
 1305              		.loc 1 176 49 is_stmt 0 view .LVU520
 1306 0020 1F4A     		ldr	r2, .L103
 1307 0022 52F82310 		ldr	r1, [r2, r3, lsl #2]
 176:../Common/IQMath/ti/_IQNsqrt.c ****     
 1308              		.loc 1 176 16 view .LVU521
 1309 0026 0904     		lsls	r1, r1, #16
 1310              	.LVL151:
 184:../Common/IQMath/ti/_IQNsqrt.c ****     
 1311              		.loc 1 184 5 is_stmt 1 view .LVU522
 184:../Common/IQMath/ti/_IQNsqrt.c ****     
 1312              		.loc 1 184 5 is_stmt 0 view .LVU523
 1313              	.LBE182:
 1314              	.LBE186:
  28:../Common/IQMath/ti/./support/RTS_support.h **** }
 1315              		.loc 2 28 5 is_stmt 1 view .LVU524
 1316              	.LBB187:
 1317              	.LBB183:
 192:../Common/IQMath/ti/_IQNsqrt.c ****         ui8Loops = 2;
 1318              		.loc 1 192 5 view .LVU525
 196:../Common/IQMath/ti/_IQNsqrt.c ****     }
 1319              		.loc 1 196 9 view .LVU526
 176:../Common/IQMath/ti/_IQNsqrt.c ****     
 1320              		.loc 1 176 16 is_stmt 0 view .LVU527
 1321 0028 0323     		movs	r3, #3
 1322              	.LVL152:
 176:../Common/IQMath/ti/_IQNsqrt.c ****     
 1323              		.loc 1 176 16 view .LVU528
 1324 002a 11E0     		b	.L89
 1325              	.LVL153:
 1326              	.L90:
 202:../Common/IQMath/ti/_IQNsqrt.c ****         
 1327              		.loc 1 202 9 is_stmt 1 view .LVU529
 1328              	.LBB174:
 1329              	.LBI174:
 254:../Common/IQMath/ti/./support/RTS_support.h **** {
 1330              		.loc 2 254 29 view .LVU530
 1331              	.LBB175:
 1332              		.loc 2 256 5 view .LVU531
 1333              		.loc 2 256 49 is_stmt 0 view .LVU532
 1334 002c A0FB0124 		umull	r2, r4, r0, r1
 1335              		.loc 2 256 72 view .LVU533
 1336 0030 D30F     		lsrs	r3, r2, #31
 1337 0032 43EA4403 		orr	r3, r3, r4, lsl #1
 1338              	.LVL154:
 1339              		.loc 2 256 72 view .LVU534
 1340              	.LBE175:
 1341              	.LBE174:
 205:../Common/IQMath/ti/_IQNsqrt.c ****         
 1342              		.loc 1 205 9 is_stmt 1 view .LVU535
 1343              	.LBB176:
ARM GAS  C:\Users\57308\AppData\Local\Temp\ccWnCQ57.s 			page 44


 1344              	.LBI176:
 254:../Common/IQMath/ti/./support/RTS_support.h **** {
 1345              		.loc 2 254 29 view .LVU536
 1346              	.LBB177:
 1347              		.loc 2 256 5 view .LVU537
 1348              		.loc 2 256 49 is_stmt 0 view .LVU538
 1349 0036 A3FB0132 		umull	r3, r2, r3, r1
 1350              	.LVL155:
 1351              		.loc 2 256 72 view .LVU539
 1352 003a DB0F     		lsrs	r3, r3, #31
 1353 003c 43EA4203 		orr	r3, r3, r2, lsl #1
 1354              	.LVL156:
 1355              		.loc 2 256 72 view .LVU540
 1356              	.LBE177:
 1357              	.LBE176:
 208:../Common/IQMath/ti/_IQNsqrt.c ****         
 1358              		.loc 1 208 9 is_stmt 1 view .LVU541
 208:../Common/IQMath/ti/_IQNsqrt.c ****         
 1359              		.loc 1 208 21 is_stmt 0 view .LVU542
 1360 0040 C3F14043 		rsb	r3, r3, #-1073741824
 1361              	.LVL157:
 214:../Common/IQMath/ti/_IQNsqrt.c ****     }
 1362              		.loc 1 214 9 is_stmt 1 view .LVU543
 1363              	.LBB178:
 1364              	.LBI178:
 254:../Common/IQMath/ti/./support/RTS_support.h **** {
 1365              		.loc 2 254 29 view .LVU544
 1366              	.LBB179:
 1367              		.loc 2 256 5 view .LVU545
 1368              		.loc 2 256 49 is_stmt 0 view .LVU546
 1369 0044 A1FB0331 		umull	r3, r1, r1, r3
 1370              	.LVL158:
 1371              		.loc 2 256 72 view .LVU547
 1372 0048 DB0F     		lsrs	r3, r3, #31
 1373 004a 43EA4101 		orr	r1, r3, r1, lsl #1
 1374              	.LVL159:
 1375              		.loc 2 256 72 view .LVU548
 1376              	.LBE179:
 1377              	.LBE178:
 200:../Common/IQMath/ti/_IQNsqrt.c ****         /* x*g */
 1378              		.loc 1 200 20 view .LVU549
 1379 004e 7346     		mov	r3, lr
 1380              	.LVL160:
 1381              	.L89:
 200:../Common/IQMath/ti/_IQNsqrt.c ****         /* x*g */
 1382              		.loc 1 200 11 is_stmt 1 view .LVU550
 200:../Common/IQMath/ti/_IQNsqrt.c ****         /* x*g */
 1383              		.loc 1 200 20 is_stmt 0 view .LVU551
 1384 0050 5A1E     		subs	r2, r3, #1
 1385 0052 5FFA82FE 		uxtb	lr, r2
 1386              	.LVL161:
 200:../Common/IQMath/ti/_IQNsqrt.c ****         /* x*g */
 1387              		.loc 1 200 11 view .LVU552
 1388 0056 002B     		cmp	r3, #0
 1389 0058 E8D1     		bne	.L90
 218:../Common/IQMath/ti/_IQNsqrt.c ****         /*
 1390              		.loc 1 218 5 is_stmt 1 view .LVU553
ARM GAS  C:\Users\57308\AppData\Local\Temp\ccWnCQ57.s 			page 45


 223:../Common/IQMath/ti/_IQNsqrt.c ****     
 1391              		.loc 1 223 9 view .LVU554
 1392              	.LVL162:
 1393              	.LBB180:
 1394              	.LBI180:
 254:../Common/IQMath/ti/./support/RTS_support.h **** {
 1395              		.loc 2 254 29 view .LVU555
 1396              	.LBB181:
 1397              		.loc 2 256 5 view .LVU556
 1398              		.loc 2 256 49 is_stmt 0 view .LVU557
 1399 005a A1FB0031 		umull	r3, r1, r1, r0
 1400              		.loc 2 256 72 view .LVU558
 1401 005e D80F     		lsrs	r0, r3, #31
 1402              	.LVL163:
 1403              		.loc 2 256 72 view .LVU559
 1404 0060 40EA4100 		orr	r0, r0, r1, lsl #1
 1405              	.LVL164:
 1406              		.loc 2 256 72 view .LVU560
 1407              	.LBE181:
 1408              	.LBE180:
 225:../Common/IQMath/ti/_IQNsqrt.c ****     
 1409              		.loc 1 225 9 is_stmt 1 view .LVU561
 225:../Common/IQMath/ti/_IQNsqrt.c ****     
 1410              		.loc 1 225 9 is_stmt 0 view .LVU562
 1411              	.LBE183:
 1412              	.LBE187:
  72:../Common/IQMath/ti/./support/RTS_support.h **** }
 1413              		.loc 2 72 5 is_stmt 1 view .LVU563
 1414              	.LBB188:
 1415              	.LBB184:
 230:../Common/IQMath/ti/_IQNsqrt.c ****         
 1416              		.loc 1 230 9 view .LVU564
 230:../Common/IQMath/ti/_IQNsqrt.c ****         
 1417              		.loc 1 230 21 is_stmt 0 view .LVU565
 1418 0064 ACF10403 		sub	r3, ip, #4
 1419              	.LVL165:
 233:../Common/IQMath/ti/_IQNsqrt.c ****             if (i16Exponent > 0) {
 1420              		.loc 1 233 9 is_stmt 1 view .LVU566
 240:../Common/IQMath/ti/_IQNsqrt.c ****             if (i16Exponent > 0) {
 1421              		.loc 1 240 9 view .LVU567
 265:../Common/IQMath/ti/_IQNsqrt.c ****         return 0;
 1422              		.loc 1 265 5 view .LVU568
 265:../Common/IQMath/ti/_IQNsqrt.c ****         return 0;
 1423              		.loc 1 265 8 is_stmt 0 view .LVU569
 1424 0068 13F11F0F 		cmn	r3, #31
 1425 006c 15DB     		blt	.L97
 268:../Common/IQMath/ti/_IQNsqrt.c ****         uiq31Result >>= 16;
 1426              		.loc 1 268 5 is_stmt 1 view .LVU570
 268:../Common/IQMath/ti/_IQNsqrt.c ****         uiq31Result >>= 16;
 1427              		.loc 1 268 8 is_stmt 0 view .LVU571
 1428 006e 13F10F0F 		cmn	r3, #15
 1429 0072 01DA     		bge	.L91
 269:../Common/IQMath/ti/_IQNsqrt.c ****         i16Exponent += 16;
 1430              		.loc 1 269 9 is_stmt 1 view .LVU572
 269:../Common/IQMath/ti/_IQNsqrt.c ****         i16Exponent += 16;
 1431              		.loc 1 269 21 is_stmt 0 view .LVU573
 1432 0074 000C     		lsrs	r0, r0, #16
ARM GAS  C:\Users\57308\AppData\Local\Temp\ccWnCQ57.s 			page 46


 1433              	.LVL166:
 270:../Common/IQMath/ti/_IQNsqrt.c ****     }
 1434              		.loc 1 270 9 is_stmt 1 view .LVU574
 270:../Common/IQMath/ti/_IQNsqrt.c ****     }
 1435              		.loc 1 270 21 is_stmt 0 view .LVU575
 1436 0076 1033     		adds	r3, r3, #16
 1437              	.LVL167:
 1438              	.L91:
 272:../Common/IQMath/ti/_IQNsqrt.c ****         uiq31Result >>= 8;
 1439              		.loc 1 272 5 is_stmt 1 view .LVU576
 272:../Common/IQMath/ti/_IQNsqrt.c ****         uiq31Result >>= 8;
 1440              		.loc 1 272 8 is_stmt 0 view .LVU577
 1441 0078 13F1070F 		cmn	r3, #7
 1442 007c 01DA     		bge	.L93
 273:../Common/IQMath/ti/_IQNsqrt.c ****         i16Exponent += 8;
 1443              		.loc 1 273 9 is_stmt 1 view .LVU578
 273:../Common/IQMath/ti/_IQNsqrt.c ****         i16Exponent += 8;
 1444              		.loc 1 273 21 is_stmt 0 view .LVU579
 1445 007e 000A     		lsrs	r0, r0, #8
 1446              	.LVL168:
 274:../Common/IQMath/ti/_IQNsqrt.c ****     }
 1447              		.loc 1 274 9 is_stmt 1 view .LVU580
 274:../Common/IQMath/ti/_IQNsqrt.c ****     }
 1448              		.loc 1 274 21 is_stmt 0 view .LVU581
 1449 0080 0833     		adds	r3, r3, #8
 1450              	.LVL169:
 1451              	.L93:
 276:../Common/IQMath/ti/_IQNsqrt.c ****         uiq31Result >>= 1;
 1452              		.loc 1 276 11 is_stmt 1 view .LVU582
 1453 0082 B3F1FF3F 		cmp	r3, #-1
 1454 0086 02DA     		bge	.L102
 277:../Common/IQMath/ti/_IQNsqrt.c ****         i16Exponent++;
 1455              		.loc 1 277 9 view .LVU583
 277:../Common/IQMath/ti/_IQNsqrt.c ****         i16Exponent++;
 1456              		.loc 1 277 21 is_stmt 0 view .LVU584
 1457 0088 4008     		lsrs	r0, r0, #1
 1458              	.LVL170:
 278:../Common/IQMath/ti/_IQNsqrt.c ****     }
 1459              		.loc 1 278 9 is_stmt 1 view .LVU585
 278:../Common/IQMath/ti/_IQNsqrt.c ****     }
 1460              		.loc 1 278 20 is_stmt 0 view .LVU586
 1461 008a 0133     		adds	r3, r3, #1
 1462              	.LVL171:
 278:../Common/IQMath/ti/_IQNsqrt.c ****     }
 1463              		.loc 1 278 20 view .LVU587
 1464 008c F9E7     		b	.L93
 1465              	.L102:
 280:../Common/IQMath/ti/_IQNsqrt.c ****         uiq31Result++;
 1466              		.loc 1 280 5 is_stmt 1 view .LVU588
 280:../Common/IQMath/ti/_IQNsqrt.c ****         uiq31Result++;
 1467              		.loc 1 280 8 is_stmt 0 view .LVU589
 1468 008e 2BB1     		cbz	r3, .L85
 281:../Common/IQMath/ti/_IQNsqrt.c ****         uiq31Result >>= 1;
 1469              		.loc 1 281 9 is_stmt 1 view .LVU590
 281:../Common/IQMath/ti/_IQNsqrt.c ****         uiq31Result >>= 1;
 1470              		.loc 1 281 20 is_stmt 0 view .LVU591
 1471 0090 0130     		adds	r0, r0, #1
ARM GAS  C:\Users\57308\AppData\Local\Temp\ccWnCQ57.s 			page 47


 1472              	.LVL172:
 282:../Common/IQMath/ti/_IQNsqrt.c ****     }        
 1473              		.loc 1 282 9 is_stmt 1 view .LVU592
 282:../Common/IQMath/ti/_IQNsqrt.c ****     }        
 1474              		.loc 1 282 21 is_stmt 0 view .LVU593
 1475 0092 4008     		lsrs	r0, r0, #1
 1476              	.LVL173:
 285:../Common/IQMath/ti/_IQNsqrt.c **** }
 1477              		.loc 1 285 5 is_stmt 1 view .LVU594
 285:../Common/IQMath/ti/_IQNsqrt.c **** }
 1478              		.loc 1 285 12 is_stmt 0 view .LVU595
 1479 0094 02E0     		b	.L85
 1480              	.LVL174:
 1481              	.L96:
 1482              	.LCFI13:
 1483              		.cfi_def_cfa_offset 0
 1484              		.cfi_restore 4
 1485              		.cfi_restore 14
 129:../Common/IQMath/ti/_IQNsqrt.c ****         }
 1486              		.loc 1 129 20 view .LVU596
 1487 0096 0020     		movs	r0, #0
 1488              	.LVL175:
 129:../Common/IQMath/ti/_IQNsqrt.c ****         }
 1489              		.loc 1 129 20 view .LVU597
 1490              	.LBE184:
 1491              	.LBE188:
 418:../Common/IQMath/ti/_IQNsqrt.c **** }
 1492              		.loc 1 418 1 view .LVU598
 1493 0098 7047     		bx	lr
 1494              	.LVL176:
 1495              	.L97:
 1496              	.LCFI14:
 1497              		.cfi_def_cfa_offset 8
 1498              		.cfi_offset 4, -8
 1499              		.cfi_offset 14, -4
 1500              	.LBB189:
 1501              	.LBB185:
 266:../Common/IQMath/ti/_IQNsqrt.c ****     }
 1502              		.loc 1 266 16 view .LVU599
 1503 009a 0020     		movs	r0, #0
 1504              	.LVL177:
 1505              	.L85:
 266:../Common/IQMath/ti/_IQNsqrt.c ****     }
 1506              		.loc 1 266 16 view .LVU600
 1507              	.LBE185:
 1508              	.LBE189:
 1509              		.loc 1 418 1 view .LVU601
 1510 009c 10BD     		pop	{r4, pc}
 1511              	.L104:
 1512 009e 00BF     		.align	2
 1513              	.L103:
 1514 00a0 00000000 		.word	_IQ14sqrt_lookup
 1515              		.cfi_endproc
 1516              	.LFE266:
 1518              		.section	.text._IQ26sqrt,"ax",%progbits
 1519              		.align	1
 1520              		.global	_IQ26sqrt
ARM GAS  C:\Users\57308\AppData\Local\Temp\ccWnCQ57.s 			page 48


 1521              		.syntax unified
 1522              		.thumb
 1523              		.thumb_func
 1525              	_IQ26sqrt:
 1526              	.LVL178:
 1527              	.LFB267:
 419:../Common/IQMath/ti/_IQNsqrt.c **** /**
 420:../Common/IQMath/ti/_IQNsqrt.c ****  * @brief Calculate square root of an IQ26 input.
 421:../Common/IQMath/ti/_IQNsqrt.c ****  *
 422:../Common/IQMath/ti/_IQNsqrt.c ****  * @param a                 IQ26 type input.
 423:../Common/IQMath/ti/_IQNsqrt.c ****  *
 424:../Common/IQMath/ti/_IQNsqrt.c ****  * @return                  IQ26 type result of the square root operation.
 425:../Common/IQMath/ti/_IQNsqrt.c ****  */
 426:../Common/IQMath/ti/_IQNsqrt.c **** int32_t _IQ26sqrt(int32_t a)
 427:../Common/IQMath/ti/_IQNsqrt.c **** {
 1528              		.loc 1 427 1 is_stmt 1 view -0
 1529              		.cfi_startproc
 1530              		@ args = 0, pretend = 0, frame = 0
 1531              		@ frame_needed = 0, uses_anonymous_args = 0
 428:../Common/IQMath/ti/_IQNsqrt.c ****     return __IQNsqrt(a, 0, 26, TYPE_SQRT);
 1532              		.loc 1 428 5 view .LVU603
 1533              	.LBB205:
 1534              	.LBI205:
  68:../Common/IQMath/ti/_IQNsqrt.c **** {
 1535              		.loc 1 68 30 view .LVU604
 1536              	.LBB206:
  70:../Common/IQMath/ti/_IQNsqrt.c ****     uint8_t ui8Loops;
 1537              		.loc 1 70 5 view .LVU605
  71:../Common/IQMath/ti/_IQNsqrt.c ****     int_fast16_t i16Exponent;
 1538              		.loc 1 71 5 view .LVU606
  72:../Common/IQMath/ti/_IQNsqrt.c ****     uint_fast16_t ui16IntState;
 1539              		.loc 1 72 5 view .LVU607
  73:../Common/IQMath/ti/_IQNsqrt.c ****     uint_fast16_t ui16MPYState;
 1540              		.loc 1 73 5 view .LVU608
  74:../Common/IQMath/ti/_IQNsqrt.c ****     uint_fast32_t uiq30Guess;
 1541              		.loc 1 74 5 view .LVU609
  75:../Common/IQMath/ti/_IQNsqrt.c ****     uint_fast32_t uiq30Result;
 1542              		.loc 1 75 5 view .LVU610
  76:../Common/IQMath/ti/_IQNsqrt.c ****     uint_fast32_t uiq31Result;
 1543              		.loc 1 76 5 view .LVU611
  77:../Common/IQMath/ti/_IQNsqrt.c ****     uint_fast32_t uiq32Input;
 1544              		.loc 1 77 5 view .LVU612
  78:../Common/IQMath/ti/_IQNsqrt.c ****     
 1545              		.loc 1 78 5 view .LVU613
  81:../Common/IQMath/ti/_IQNsqrt.c ****         uint_fast64_t ui64Sum;
 1546              		.loc 1 81 5 view .LVU614
 128:../Common/IQMath/ti/_IQNsqrt.c ****             return 0;
 1547              		.loc 1 128 9 view .LVU615
 128:../Common/IQMath/ti/_IQNsqrt.c ****             return 0;
 1548              		.loc 1 128 12 is_stmt 0 view .LVU616
 1549 0000 0028     		cmp	r0, #0
 128:../Common/IQMath/ti/_IQNsqrt.c ****             return 0;
 1550              		.loc 1 128 12 view .LVU617
 1551 0002 47DD     		ble	.L116
 1552              	.LBE206:
 1553              	.LBE205:
 427:../Common/IQMath/ti/_IQNsqrt.c ****     return __IQNsqrt(a, 0, 26, TYPE_SQRT);
ARM GAS  C:\Users\57308\AppData\Local\Temp\ccWnCQ57.s 			page 49


 1554              		.loc 1 427 1 view .LVU618
 1555 0004 10B5     		push	{r4, lr}
 1556              	.LCFI15:
 1557              		.cfi_def_cfa_offset 8
 1558              		.cfi_offset 4, -8
 1559              		.cfi_offset 14, -4
 1560              	.LBB219:
 1561              	.LBB215:
 133:../Common/IQMath/ti/_IQNsqrt.c ****             iqNInputX <<= 1;
 1562              		.loc 1 133 9 is_stmt 1 view .LVU619
 146:../Common/IQMath/ti/_IQNsqrt.c ****                 i16Exponent = (32 - q_value) >> 1;
 1563              		.loc 1 146 13 view .LVU620
 147:../Common/IQMath/ti/_IQNsqrt.c ****             }
 1564              		.loc 1 147 17 view .LVU621
 1565              	.LVL179:
 156:../Common/IQMath/ti/_IQNsqrt.c ****         
 1566              		.loc 1 156 9 view .LVU622
 159:../Common/IQMath/ti/_IQNsqrt.c ****             uiq32Input <<= 2;
 1567              		.loc 1 159 9 view .LVU623
 159:../Common/IQMath/ti/_IQNsqrt.c ****             uiq32Input <<= 2;
 1568              		.loc 1 159 15 is_stmt 0 view .LVU624
 1569 0006 4FF0030C 		mov	ip, #3
 1570 000a 02E0     		b	.L107
 1571              	.LVL180:
 1572              	.L108:
 160:../Common/IQMath/ti/_IQNsqrt.c ****             /* Decrement exponent for sqrt and mag */
 1573              		.loc 1 160 13 is_stmt 1 view .LVU625
 160:../Common/IQMath/ti/_IQNsqrt.c ****             /* Decrement exponent for sqrt and mag */
 1574              		.loc 1 160 24 is_stmt 0 view .LVU626
 1575 000c 8000     		lsls	r0, r0, #2
 1576              	.LVL181:
 162:../Common/IQMath/ti/_IQNsqrt.c ****                 i16Exponent--;
 1577              		.loc 1 162 13 is_stmt 1 view .LVU627
 163:../Common/IQMath/ti/_IQNsqrt.c ****             }
 1578              		.loc 1 163 17 view .LVU628
 163:../Common/IQMath/ti/_IQNsqrt.c ****             }
 1579              		.loc 1 163 28 is_stmt 0 view .LVU629
 1580 000e 0CF1FF3C 		add	ip, ip, #-1
 1581              	.LVL182:
 1582              	.L107:
 159:../Common/IQMath/ti/_IQNsqrt.c ****             uiq32Input <<= 2;
 1583              		.loc 1 159 15 is_stmt 1 view .LVU630
 1584 0012 B0F1804F 		cmp	r0, #1073741824
 1585 0016 F9D3     		bcc	.L108
 174:../Common/IQMath/ti/_IQNsqrt.c ****     ui8Index -= 32;
 1586              		.loc 1 174 5 view .LVU631
 174:../Common/IQMath/ti/_IQNsqrt.c ****     ui8Index -= 32;
 1587              		.loc 1 174 14 is_stmt 0 view .LVU632
 1588 0018 430E     		lsrs	r3, r0, #25
 1589              	.LVL183:
 175:../Common/IQMath/ti/_IQNsqrt.c ****     uiq30Guess = (uint_fast32_t)_IQ14sqrt_lookup[ui8Index] << 16;
 1590              		.loc 1 175 5 is_stmt 1 view .LVU633
 175:../Common/IQMath/ti/_IQNsqrt.c ****     uiq30Guess = (uint_fast32_t)_IQ14sqrt_lookup[ui8Index] << 16;
 1591              		.loc 1 175 14 is_stmt 0 view .LVU634
 1592 001a 203B     		subs	r3, r3, #32
 1593              	.LVL184:
 175:../Common/IQMath/ti/_IQNsqrt.c ****     uiq30Guess = (uint_fast32_t)_IQ14sqrt_lookup[ui8Index] << 16;
ARM GAS  C:\Users\57308\AppData\Local\Temp\ccWnCQ57.s 			page 50


 1594              		.loc 1 175 14 view .LVU635
 1595 001c DBB2     		uxtb	r3, r3
 1596              	.LVL185:
 176:../Common/IQMath/ti/_IQNsqrt.c ****     
 1597              		.loc 1 176 5 is_stmt 1 view .LVU636
 176:../Common/IQMath/ti/_IQNsqrt.c ****     
 1598              		.loc 1 176 49 is_stmt 0 view .LVU637
 1599 001e 1F4A     		ldr	r2, .L123
 1600 0020 52F82310 		ldr	r1, [r2, r3, lsl #2]
 176:../Common/IQMath/ti/_IQNsqrt.c ****     
 1601              		.loc 1 176 16 view .LVU638
 1602 0024 0904     		lsls	r1, r1, #16
 1603              	.LVL186:
 184:../Common/IQMath/ti/_IQNsqrt.c ****     
 1604              		.loc 1 184 5 is_stmt 1 view .LVU639
 184:../Common/IQMath/ti/_IQNsqrt.c ****     
 1605              		.loc 1 184 5 is_stmt 0 view .LVU640
 1606              	.LBE215:
 1607              	.LBE219:
  28:../Common/IQMath/ti/./support/RTS_support.h **** }
 1608              		.loc 2 28 5 is_stmt 1 view .LVU641
 1609              	.LBB220:
 1610              	.LBB216:
 192:../Common/IQMath/ti/_IQNsqrt.c ****         ui8Loops = 2;
 1611              		.loc 1 192 5 view .LVU642
 196:../Common/IQMath/ti/_IQNsqrt.c ****     }
 1612              		.loc 1 196 9 view .LVU643
 176:../Common/IQMath/ti/_IQNsqrt.c ****     
 1613              		.loc 1 176 16 is_stmt 0 view .LVU644
 1614 0026 0323     		movs	r3, #3
 1615              	.LVL187:
 176:../Common/IQMath/ti/_IQNsqrt.c ****     
 1616              		.loc 1 176 16 view .LVU645
 1617 0028 11E0     		b	.L109
 1618              	.LVL188:
 1619              	.L110:
 202:../Common/IQMath/ti/_IQNsqrt.c ****         
 1620              		.loc 1 202 9 is_stmt 1 view .LVU646
 1621              	.LBB207:
 1622              	.LBI207:
 254:../Common/IQMath/ti/./support/RTS_support.h **** {
 1623              		.loc 2 254 29 view .LVU647
 1624              	.LBB208:
 1625              		.loc 2 256 5 view .LVU648
 1626              		.loc 2 256 49 is_stmt 0 view .LVU649
 1627 002a A0FB0124 		umull	r2, r4, r0, r1
 1628              		.loc 2 256 72 view .LVU650
 1629 002e D30F     		lsrs	r3, r2, #31
 1630 0030 43EA4403 		orr	r3, r3, r4, lsl #1
 1631              	.LVL189:
 1632              		.loc 2 256 72 view .LVU651
 1633              	.LBE208:
 1634              	.LBE207:
 205:../Common/IQMath/ti/_IQNsqrt.c ****         
 1635              		.loc 1 205 9 is_stmt 1 view .LVU652
 1636              	.LBB209:
 1637              	.LBI209:
ARM GAS  C:\Users\57308\AppData\Local\Temp\ccWnCQ57.s 			page 51


 254:../Common/IQMath/ti/./support/RTS_support.h **** {
 1638              		.loc 2 254 29 view .LVU653
 1639              	.LBB210:
 1640              		.loc 2 256 5 view .LVU654
 1641              		.loc 2 256 49 is_stmt 0 view .LVU655
 1642 0034 A3FB0132 		umull	r3, r2, r3, r1
 1643              	.LVL190:
 1644              		.loc 2 256 72 view .LVU656
 1645 0038 DB0F     		lsrs	r3, r3, #31
 1646 003a 43EA4203 		orr	r3, r3, r2, lsl #1
 1647              	.LVL191:
 1648              		.loc 2 256 72 view .LVU657
 1649              	.LBE210:
 1650              	.LBE209:
 208:../Common/IQMath/ti/_IQNsqrt.c ****         
 1651              		.loc 1 208 9 is_stmt 1 view .LVU658
 208:../Common/IQMath/ti/_IQNsqrt.c ****         
 1652              		.loc 1 208 21 is_stmt 0 view .LVU659
 1653 003e C3F14043 		rsb	r3, r3, #-1073741824
 1654              	.LVL192:
 214:../Common/IQMath/ti/_IQNsqrt.c ****     }
 1655              		.loc 1 214 9 is_stmt 1 view .LVU660
 1656              	.LBB211:
 1657              	.LBI211:
 254:../Common/IQMath/ti/./support/RTS_support.h **** {
 1658              		.loc 2 254 29 view .LVU661
 1659              	.LBB212:
 1660              		.loc 2 256 5 view .LVU662
 1661              		.loc 2 256 49 is_stmt 0 view .LVU663
 1662 0042 A1FB0331 		umull	r3, r1, r1, r3
 1663              	.LVL193:
 1664              		.loc 2 256 72 view .LVU664
 1665 0046 DB0F     		lsrs	r3, r3, #31
 1666 0048 43EA4101 		orr	r1, r3, r1, lsl #1
 1667              	.LVL194:
 1668              		.loc 2 256 72 view .LVU665
 1669              	.LBE212:
 1670              	.LBE211:
 200:../Common/IQMath/ti/_IQNsqrt.c ****         /* x*g */
 1671              		.loc 1 200 20 view .LVU666
 1672 004c 7346     		mov	r3, lr
 1673              	.LVL195:
 1674              	.L109:
 200:../Common/IQMath/ti/_IQNsqrt.c ****         /* x*g */
 1675              		.loc 1 200 11 is_stmt 1 view .LVU667
 200:../Common/IQMath/ti/_IQNsqrt.c ****         /* x*g */
 1676              		.loc 1 200 20 is_stmt 0 view .LVU668
 1677 004e 5A1E     		subs	r2, r3, #1
 1678 0050 5FFA82FE 		uxtb	lr, r2
 1679              	.LVL196:
 200:../Common/IQMath/ti/_IQNsqrt.c ****         /* x*g */
 1680              		.loc 1 200 11 view .LVU669
 1681 0054 002B     		cmp	r3, #0
 1682 0056 E8D1     		bne	.L110
 218:../Common/IQMath/ti/_IQNsqrt.c ****         /*
 1683              		.loc 1 218 5 is_stmt 1 view .LVU670
 223:../Common/IQMath/ti/_IQNsqrt.c ****     
ARM GAS  C:\Users\57308\AppData\Local\Temp\ccWnCQ57.s 			page 52


 1684              		.loc 1 223 9 view .LVU671
 1685              	.LVL197:
 1686              	.LBB213:
 1687              	.LBI213:
 254:../Common/IQMath/ti/./support/RTS_support.h **** {
 1688              		.loc 2 254 29 view .LVU672
 1689              	.LBB214:
 1690              		.loc 2 256 5 view .LVU673
 1691              		.loc 2 256 49 is_stmt 0 view .LVU674
 1692 0058 A1FB0031 		umull	r3, r1, r1, r0
 1693              		.loc 2 256 72 view .LVU675
 1694 005c D80F     		lsrs	r0, r3, #31
 1695              	.LVL198:
 1696              		.loc 2 256 72 view .LVU676
 1697 005e 40EA4100 		orr	r0, r0, r1, lsl #1
 1698              	.LVL199:
 1699              		.loc 2 256 72 view .LVU677
 1700              	.LBE214:
 1701              	.LBE213:
 225:../Common/IQMath/ti/_IQNsqrt.c ****     
 1702              		.loc 1 225 9 is_stmt 1 view .LVU678
 225:../Common/IQMath/ti/_IQNsqrt.c ****     
 1703              		.loc 1 225 9 is_stmt 0 view .LVU679
 1704              	.LBE216:
 1705              	.LBE220:
  72:../Common/IQMath/ti/./support/RTS_support.h **** }
 1706              		.loc 2 72 5 is_stmt 1 view .LVU680
 1707              	.LBB221:
 1708              	.LBB217:
 230:../Common/IQMath/ti/_IQNsqrt.c ****         
 1709              		.loc 1 230 9 view .LVU681
 230:../Common/IQMath/ti/_IQNsqrt.c ****         
 1710              		.loc 1 230 21 is_stmt 0 view .LVU682
 1711 0062 ACF10503 		sub	r3, ip, #5
 1712              	.LVL200:
 233:../Common/IQMath/ti/_IQNsqrt.c ****             if (i16Exponent > 0) {
 1713              		.loc 1 233 9 is_stmt 1 view .LVU683
 240:../Common/IQMath/ti/_IQNsqrt.c ****             if (i16Exponent > 0) {
 1714              		.loc 1 240 9 view .LVU684
 265:../Common/IQMath/ti/_IQNsqrt.c ****         return 0;
 1715              		.loc 1 265 5 view .LVU685
 265:../Common/IQMath/ti/_IQNsqrt.c ****         return 0;
 1716              		.loc 1 265 8 is_stmt 0 view .LVU686
 1717 0066 13F11F0F 		cmn	r3, #31
 1718 006a 15DB     		blt	.L117
 268:../Common/IQMath/ti/_IQNsqrt.c ****         uiq31Result >>= 16;
 1719              		.loc 1 268 5 is_stmt 1 view .LVU687
 268:../Common/IQMath/ti/_IQNsqrt.c ****         uiq31Result >>= 16;
 1720              		.loc 1 268 8 is_stmt 0 view .LVU688
 1721 006c 13F10F0F 		cmn	r3, #15
 1722 0070 01DA     		bge	.L111
 269:../Common/IQMath/ti/_IQNsqrt.c ****         i16Exponent += 16;
 1723              		.loc 1 269 9 is_stmt 1 view .LVU689
 269:../Common/IQMath/ti/_IQNsqrt.c ****         i16Exponent += 16;
 1724              		.loc 1 269 21 is_stmt 0 view .LVU690
 1725 0072 000C     		lsrs	r0, r0, #16
 1726              	.LVL201:
ARM GAS  C:\Users\57308\AppData\Local\Temp\ccWnCQ57.s 			page 53


 270:../Common/IQMath/ti/_IQNsqrt.c ****     }
 1727              		.loc 1 270 9 is_stmt 1 view .LVU691
 270:../Common/IQMath/ti/_IQNsqrt.c ****     }
 1728              		.loc 1 270 21 is_stmt 0 view .LVU692
 1729 0074 1033     		adds	r3, r3, #16
 1730              	.LVL202:
 1731              	.L111:
 272:../Common/IQMath/ti/_IQNsqrt.c ****         uiq31Result >>= 8;
 1732              		.loc 1 272 5 is_stmt 1 view .LVU693
 272:../Common/IQMath/ti/_IQNsqrt.c ****         uiq31Result >>= 8;
 1733              		.loc 1 272 8 is_stmt 0 view .LVU694
 1734 0076 13F1070F 		cmn	r3, #7
 1735 007a 01DA     		bge	.L113
 273:../Common/IQMath/ti/_IQNsqrt.c ****         i16Exponent += 8;
 1736              		.loc 1 273 9 is_stmt 1 view .LVU695
 273:../Common/IQMath/ti/_IQNsqrt.c ****         i16Exponent += 8;
 1737              		.loc 1 273 21 is_stmt 0 view .LVU696
 1738 007c 000A     		lsrs	r0, r0, #8
 1739              	.LVL203:
 274:../Common/IQMath/ti/_IQNsqrt.c ****     }
 1740              		.loc 1 274 9 is_stmt 1 view .LVU697
 274:../Common/IQMath/ti/_IQNsqrt.c ****     }
 1741              		.loc 1 274 21 is_stmt 0 view .LVU698
 1742 007e 0833     		adds	r3, r3, #8
 1743              	.LVL204:
 1744              	.L113:
 276:../Common/IQMath/ti/_IQNsqrt.c ****         uiq31Result >>= 1;
 1745              		.loc 1 276 11 is_stmt 1 view .LVU699
 1746 0080 B3F1FF3F 		cmp	r3, #-1
 1747 0084 02DA     		bge	.L122
 277:../Common/IQMath/ti/_IQNsqrt.c ****         i16Exponent++;
 1748              		.loc 1 277 9 view .LVU700
 277:../Common/IQMath/ti/_IQNsqrt.c ****         i16Exponent++;
 1749              		.loc 1 277 21 is_stmt 0 view .LVU701
 1750 0086 4008     		lsrs	r0, r0, #1
 1751              	.LVL205:
 278:../Common/IQMath/ti/_IQNsqrt.c ****     }
 1752              		.loc 1 278 9 is_stmt 1 view .LVU702
 278:../Common/IQMath/ti/_IQNsqrt.c ****     }
 1753              		.loc 1 278 20 is_stmt 0 view .LVU703
 1754 0088 0133     		adds	r3, r3, #1
 1755              	.LVL206:
 278:../Common/IQMath/ti/_IQNsqrt.c ****     }
 1756              		.loc 1 278 20 view .LVU704
 1757 008a F9E7     		b	.L113
 1758              	.L122:
 280:../Common/IQMath/ti/_IQNsqrt.c ****         uiq31Result++;
 1759              		.loc 1 280 5 is_stmt 1 view .LVU705
 280:../Common/IQMath/ti/_IQNsqrt.c ****         uiq31Result++;
 1760              		.loc 1 280 8 is_stmt 0 view .LVU706
 1761 008c 2BB1     		cbz	r3, .L105
 281:../Common/IQMath/ti/_IQNsqrt.c ****         uiq31Result >>= 1;
 1762              		.loc 1 281 9 is_stmt 1 view .LVU707
 281:../Common/IQMath/ti/_IQNsqrt.c ****         uiq31Result >>= 1;
 1763              		.loc 1 281 20 is_stmt 0 view .LVU708
 1764 008e 0130     		adds	r0, r0, #1
 1765              	.LVL207:
ARM GAS  C:\Users\57308\AppData\Local\Temp\ccWnCQ57.s 			page 54


 282:../Common/IQMath/ti/_IQNsqrt.c ****     }        
 1766              		.loc 1 282 9 is_stmt 1 view .LVU709
 282:../Common/IQMath/ti/_IQNsqrt.c ****     }        
 1767              		.loc 1 282 21 is_stmt 0 view .LVU710
 1768 0090 4008     		lsrs	r0, r0, #1
 1769              	.LVL208:
 285:../Common/IQMath/ti/_IQNsqrt.c **** }
 1770              		.loc 1 285 5 is_stmt 1 view .LVU711
 285:../Common/IQMath/ti/_IQNsqrt.c **** }
 1771              		.loc 1 285 12 is_stmt 0 view .LVU712
 1772 0092 02E0     		b	.L105
 1773              	.LVL209:
 1774              	.L116:
 1775              	.LCFI16:
 1776              		.cfi_def_cfa_offset 0
 1777              		.cfi_restore 4
 1778              		.cfi_restore 14
 129:../Common/IQMath/ti/_IQNsqrt.c ****         }
 1779              		.loc 1 129 20 view .LVU713
 1780 0094 0020     		movs	r0, #0
 1781              	.LVL210:
 129:../Common/IQMath/ti/_IQNsqrt.c ****         }
 1782              		.loc 1 129 20 view .LVU714
 1783              	.LBE217:
 1784              	.LBE221:
 429:../Common/IQMath/ti/_IQNsqrt.c **** }
 1785              		.loc 1 429 1 view .LVU715
 1786 0096 7047     		bx	lr
 1787              	.LVL211:
 1788              	.L117:
 1789              	.LCFI17:
 1790              		.cfi_def_cfa_offset 8
 1791              		.cfi_offset 4, -8
 1792              		.cfi_offset 14, -4
 1793              	.LBB222:
 1794              	.LBB218:
 266:../Common/IQMath/ti/_IQNsqrt.c ****     }
 1795              		.loc 1 266 16 view .LVU716
 1796 0098 0020     		movs	r0, #0
 1797              	.LVL212:
 1798              	.L105:
 266:../Common/IQMath/ti/_IQNsqrt.c ****     }
 1799              		.loc 1 266 16 view .LVU717
 1800              	.LBE218:
 1801              	.LBE222:
 1802              		.loc 1 429 1 view .LVU718
 1803 009a 10BD     		pop	{r4, pc}
 1804              	.L124:
 1805              		.align	2
 1806              	.L123:
 1807 009c 00000000 		.word	_IQ14sqrt_lookup
 1808              		.cfi_endproc
 1809              	.LFE267:
 1811              		.section	.text._IQ25sqrt,"ax",%progbits
 1812              		.align	1
 1813              		.global	_IQ25sqrt
 1814              		.syntax unified
ARM GAS  C:\Users\57308\AppData\Local\Temp\ccWnCQ57.s 			page 55


 1815              		.thumb
 1816              		.thumb_func
 1818              	_IQ25sqrt:
 1819              	.LVL213:
 1820              	.LFB268:
 430:../Common/IQMath/ti/_IQNsqrt.c **** /**
 431:../Common/IQMath/ti/_IQNsqrt.c ****  * @brief Calculate square root of an IQ25 input.
 432:../Common/IQMath/ti/_IQNsqrt.c ****  *
 433:../Common/IQMath/ti/_IQNsqrt.c ****  * @param a                 IQ25 type input.
 434:../Common/IQMath/ti/_IQNsqrt.c ****  *
 435:../Common/IQMath/ti/_IQNsqrt.c ****  * @return                  IQ25 type result of the square root operation.
 436:../Common/IQMath/ti/_IQNsqrt.c ****  */
 437:../Common/IQMath/ti/_IQNsqrt.c **** int32_t _IQ25sqrt(int32_t a)
 438:../Common/IQMath/ti/_IQNsqrt.c **** {
 1821              		.loc 1 438 1 is_stmt 1 view -0
 1822              		.cfi_startproc
 1823              		@ args = 0, pretend = 0, frame = 0
 1824              		@ frame_needed = 0, uses_anonymous_args = 0
 439:../Common/IQMath/ti/_IQNsqrt.c ****     return __IQNsqrt(a, 0, 25, TYPE_SQRT);
 1825              		.loc 1 439 5 view .LVU720
 1826              	.LBB238:
 1827              	.LBI238:
  68:../Common/IQMath/ti/_IQNsqrt.c **** {
 1828              		.loc 1 68 30 view .LVU721
 1829              	.LBB239:
  70:../Common/IQMath/ti/_IQNsqrt.c ****     uint8_t ui8Loops;
 1830              		.loc 1 70 5 view .LVU722
  71:../Common/IQMath/ti/_IQNsqrt.c ****     int_fast16_t i16Exponent;
 1831              		.loc 1 71 5 view .LVU723
  72:../Common/IQMath/ti/_IQNsqrt.c ****     uint_fast16_t ui16IntState;
 1832              		.loc 1 72 5 view .LVU724
  73:../Common/IQMath/ti/_IQNsqrt.c ****     uint_fast16_t ui16MPYState;
 1833              		.loc 1 73 5 view .LVU725
  74:../Common/IQMath/ti/_IQNsqrt.c ****     uint_fast32_t uiq30Guess;
 1834              		.loc 1 74 5 view .LVU726
  75:../Common/IQMath/ti/_IQNsqrt.c ****     uint_fast32_t uiq30Result;
 1835              		.loc 1 75 5 view .LVU727
  76:../Common/IQMath/ti/_IQNsqrt.c ****     uint_fast32_t uiq31Result;
 1836              		.loc 1 76 5 view .LVU728
  77:../Common/IQMath/ti/_IQNsqrt.c ****     uint_fast32_t uiq32Input;
 1837              		.loc 1 77 5 view .LVU729
  78:../Common/IQMath/ti/_IQNsqrt.c ****     
 1838              		.loc 1 78 5 view .LVU730
  81:../Common/IQMath/ti/_IQNsqrt.c ****         uint_fast64_t ui64Sum;
 1839              		.loc 1 81 5 view .LVU731
 128:../Common/IQMath/ti/_IQNsqrt.c ****             return 0;
 1840              		.loc 1 128 9 view .LVU732
 128:../Common/IQMath/ti/_IQNsqrt.c ****             return 0;
 1841              		.loc 1 128 12 is_stmt 0 view .LVU733
 1842 0000 0028     		cmp	r0, #0
 128:../Common/IQMath/ti/_IQNsqrt.c ****             return 0;
 1843              		.loc 1 128 12 view .LVU734
 1844 0002 48DD     		ble	.L136
 1845              	.LBE239:
 1846              	.LBE238:
 438:../Common/IQMath/ti/_IQNsqrt.c ****     return __IQNsqrt(a, 0, 25, TYPE_SQRT);
 1847              		.loc 1 438 1 view .LVU735
ARM GAS  C:\Users\57308\AppData\Local\Temp\ccWnCQ57.s 			page 56


 1848 0004 10B5     		push	{r4, lr}
 1849              	.LCFI18:
 1850              		.cfi_def_cfa_offset 8
 1851              		.cfi_offset 4, -8
 1852              		.cfi_offset 14, -4
 1853              	.LBB252:
 1854              	.LBB248:
 133:../Common/IQMath/ti/_IQNsqrt.c ****             iqNInputX <<= 1;
 1855              		.loc 1 133 9 is_stmt 1 view .LVU736
 134:../Common/IQMath/ti/_IQNsqrt.c ****             /* Start with positive exponent for sqrt */
 1856              		.loc 1 134 13 view .LVU737
 134:../Common/IQMath/ti/_IQNsqrt.c ****             /* Start with positive exponent for sqrt */
 1857              		.loc 1 134 23 is_stmt 0 view .LVU738
 1858 0006 4000     		lsls	r0, r0, #1
 1859              	.LVL214:
 136:../Common/IQMath/ti/_IQNsqrt.c ****                 i16Exponent = ((32 - q_value) - 1) >> 1;
 1860              		.loc 1 136 13 is_stmt 1 view .LVU739
 137:../Common/IQMath/ti/_IQNsqrt.c ****             }
 1861              		.loc 1 137 17 view .LVU740
 156:../Common/IQMath/ti/_IQNsqrt.c ****         
 1862              		.loc 1 156 9 view .LVU741
 159:../Common/IQMath/ti/_IQNsqrt.c ****             uiq32Input <<= 2;
 1863              		.loc 1 159 9 view .LVU742
 159:../Common/IQMath/ti/_IQNsqrt.c ****             uiq32Input <<= 2;
 1864              		.loc 1 159 15 is_stmt 0 view .LVU743
 1865 0008 4FF0030C 		mov	ip, #3
 1866 000c 02E0     		b	.L127
 1867              	.LVL215:
 1868              	.L128:
 160:../Common/IQMath/ti/_IQNsqrt.c ****             /* Decrement exponent for sqrt and mag */
 1869              		.loc 1 160 13 is_stmt 1 view .LVU744
 160:../Common/IQMath/ti/_IQNsqrt.c ****             /* Decrement exponent for sqrt and mag */
 1870              		.loc 1 160 24 is_stmt 0 view .LVU745
 1871 000e 8000     		lsls	r0, r0, #2
 1872              	.LVL216:
 162:../Common/IQMath/ti/_IQNsqrt.c ****                 i16Exponent--;
 1873              		.loc 1 162 13 is_stmt 1 view .LVU746
 163:../Common/IQMath/ti/_IQNsqrt.c ****             }
 1874              		.loc 1 163 17 view .LVU747
 163:../Common/IQMath/ti/_IQNsqrt.c ****             }
 1875              		.loc 1 163 28 is_stmt 0 view .LVU748
 1876 0010 0CF1FF3C 		add	ip, ip, #-1
 1877              	.LVL217:
 1878              	.L127:
 159:../Common/IQMath/ti/_IQNsqrt.c ****             uiq32Input <<= 2;
 1879              		.loc 1 159 15 is_stmt 1 view .LVU749
 1880 0014 B0F1804F 		cmp	r0, #1073741824
 1881 0018 F9D3     		bcc	.L128
 174:../Common/IQMath/ti/_IQNsqrt.c ****     ui8Index -= 32;
 1882              		.loc 1 174 5 view .LVU750
 174:../Common/IQMath/ti/_IQNsqrt.c ****     ui8Index -= 32;
 1883              		.loc 1 174 14 is_stmt 0 view .LVU751
 1884 001a 430E     		lsrs	r3, r0, #25
 1885              	.LVL218:
 175:../Common/IQMath/ti/_IQNsqrt.c ****     uiq30Guess = (uint_fast32_t)_IQ14sqrt_lookup[ui8Index] << 16;
 1886              		.loc 1 175 5 is_stmt 1 view .LVU752
 175:../Common/IQMath/ti/_IQNsqrt.c ****     uiq30Guess = (uint_fast32_t)_IQ14sqrt_lookup[ui8Index] << 16;
ARM GAS  C:\Users\57308\AppData\Local\Temp\ccWnCQ57.s 			page 57


 1887              		.loc 1 175 14 is_stmt 0 view .LVU753
 1888 001c 203B     		subs	r3, r3, #32
 1889              	.LVL219:
 175:../Common/IQMath/ti/_IQNsqrt.c ****     uiq30Guess = (uint_fast32_t)_IQ14sqrt_lookup[ui8Index] << 16;
 1890              		.loc 1 175 14 view .LVU754
 1891 001e DBB2     		uxtb	r3, r3
 1892              	.LVL220:
 176:../Common/IQMath/ti/_IQNsqrt.c ****     
 1893              		.loc 1 176 5 is_stmt 1 view .LVU755
 176:../Common/IQMath/ti/_IQNsqrt.c ****     
 1894              		.loc 1 176 49 is_stmt 0 view .LVU756
 1895 0020 1F4A     		ldr	r2, .L143
 1896 0022 52F82310 		ldr	r1, [r2, r3, lsl #2]
 176:../Common/IQMath/ti/_IQNsqrt.c ****     
 1897              		.loc 1 176 16 view .LVU757
 1898 0026 0904     		lsls	r1, r1, #16
 1899              	.LVL221:
 184:../Common/IQMath/ti/_IQNsqrt.c ****     
 1900              		.loc 1 184 5 is_stmt 1 view .LVU758
 184:../Common/IQMath/ti/_IQNsqrt.c ****     
 1901              		.loc 1 184 5 is_stmt 0 view .LVU759
 1902              	.LBE248:
 1903              	.LBE252:
  28:../Common/IQMath/ti/./support/RTS_support.h **** }
 1904              		.loc 2 28 5 is_stmt 1 view .LVU760
 1905              	.LBB253:
 1906              	.LBB249:
 192:../Common/IQMath/ti/_IQNsqrt.c ****         ui8Loops = 2;
 1907              		.loc 1 192 5 view .LVU761
 196:../Common/IQMath/ti/_IQNsqrt.c ****     }
 1908              		.loc 1 196 9 view .LVU762
 176:../Common/IQMath/ti/_IQNsqrt.c ****     
 1909              		.loc 1 176 16 is_stmt 0 view .LVU763
 1910 0028 0323     		movs	r3, #3
 1911              	.LVL222:
 176:../Common/IQMath/ti/_IQNsqrt.c ****     
 1912              		.loc 1 176 16 view .LVU764
 1913 002a 11E0     		b	.L129
 1914              	.LVL223:
 1915              	.L130:
 202:../Common/IQMath/ti/_IQNsqrt.c ****         
 1916              		.loc 1 202 9 is_stmt 1 view .LVU765
 1917              	.LBB240:
 1918              	.LBI240:
 254:../Common/IQMath/ti/./support/RTS_support.h **** {
 1919              		.loc 2 254 29 view .LVU766
 1920              	.LBB241:
 1921              		.loc 2 256 5 view .LVU767
 1922              		.loc 2 256 49 is_stmt 0 view .LVU768
 1923 002c A0FB0124 		umull	r2, r4, r0, r1
 1924              		.loc 2 256 72 view .LVU769
 1925 0030 D30F     		lsrs	r3, r2, #31
 1926 0032 43EA4403 		orr	r3, r3, r4, lsl #1
 1927              	.LVL224:
 1928              		.loc 2 256 72 view .LVU770
 1929              	.LBE241:
 1930              	.LBE240:
ARM GAS  C:\Users\57308\AppData\Local\Temp\ccWnCQ57.s 			page 58


 205:../Common/IQMath/ti/_IQNsqrt.c ****         
 1931              		.loc 1 205 9 is_stmt 1 view .LVU771
 1932              	.LBB242:
 1933              	.LBI242:
 254:../Common/IQMath/ti/./support/RTS_support.h **** {
 1934              		.loc 2 254 29 view .LVU772
 1935              	.LBB243:
 1936              		.loc 2 256 5 view .LVU773
 1937              		.loc 2 256 49 is_stmt 0 view .LVU774
 1938 0036 A3FB0132 		umull	r3, r2, r3, r1
 1939              	.LVL225:
 1940              		.loc 2 256 72 view .LVU775
 1941 003a DB0F     		lsrs	r3, r3, #31
 1942 003c 43EA4203 		orr	r3, r3, r2, lsl #1
 1943              	.LVL226:
 1944              		.loc 2 256 72 view .LVU776
 1945              	.LBE243:
 1946              	.LBE242:
 208:../Common/IQMath/ti/_IQNsqrt.c ****         
 1947              		.loc 1 208 9 is_stmt 1 view .LVU777
 208:../Common/IQMath/ti/_IQNsqrt.c ****         
 1948              		.loc 1 208 21 is_stmt 0 view .LVU778
 1949 0040 C3F14043 		rsb	r3, r3, #-1073741824
 1950              	.LVL227:
 214:../Common/IQMath/ti/_IQNsqrt.c ****     }
 1951              		.loc 1 214 9 is_stmt 1 view .LVU779
 1952              	.LBB244:
 1953              	.LBI244:
 254:../Common/IQMath/ti/./support/RTS_support.h **** {
 1954              		.loc 2 254 29 view .LVU780
 1955              	.LBB245:
 1956              		.loc 2 256 5 view .LVU781
 1957              		.loc 2 256 49 is_stmt 0 view .LVU782
 1958 0044 A1FB0331 		umull	r3, r1, r1, r3
 1959              	.LVL228:
 1960              		.loc 2 256 72 view .LVU783
 1961 0048 DB0F     		lsrs	r3, r3, #31
 1962 004a 43EA4101 		orr	r1, r3, r1, lsl #1
 1963              	.LVL229:
 1964              		.loc 2 256 72 view .LVU784
 1965              	.LBE245:
 1966              	.LBE244:
 200:../Common/IQMath/ti/_IQNsqrt.c ****         /* x*g */
 1967              		.loc 1 200 20 view .LVU785
 1968 004e 7346     		mov	r3, lr
 1969              	.LVL230:
 1970              	.L129:
 200:../Common/IQMath/ti/_IQNsqrt.c ****         /* x*g */
 1971              		.loc 1 200 11 is_stmt 1 view .LVU786
 200:../Common/IQMath/ti/_IQNsqrt.c ****         /* x*g */
 1972              		.loc 1 200 20 is_stmt 0 view .LVU787
 1973 0050 5A1E     		subs	r2, r3, #1
 1974 0052 5FFA82FE 		uxtb	lr, r2
 1975              	.LVL231:
 200:../Common/IQMath/ti/_IQNsqrt.c ****         /* x*g */
 1976              		.loc 1 200 11 view .LVU788
 1977 0056 002B     		cmp	r3, #0
ARM GAS  C:\Users\57308\AppData\Local\Temp\ccWnCQ57.s 			page 59


 1978 0058 E8D1     		bne	.L130
 218:../Common/IQMath/ti/_IQNsqrt.c ****         /*
 1979              		.loc 1 218 5 is_stmt 1 view .LVU789
 223:../Common/IQMath/ti/_IQNsqrt.c ****     
 1980              		.loc 1 223 9 view .LVU790
 1981              	.LVL232:
 1982              	.LBB246:
 1983              	.LBI246:
 254:../Common/IQMath/ti/./support/RTS_support.h **** {
 1984              		.loc 2 254 29 view .LVU791
 1985              	.LBB247:
 1986              		.loc 2 256 5 view .LVU792
 1987              		.loc 2 256 49 is_stmt 0 view .LVU793
 1988 005a A1FB0031 		umull	r3, r1, r1, r0
 1989              		.loc 2 256 72 view .LVU794
 1990 005e D80F     		lsrs	r0, r3, #31
 1991              	.LVL233:
 1992              		.loc 2 256 72 view .LVU795
 1993 0060 40EA4100 		orr	r0, r0, r1, lsl #1
 1994              	.LVL234:
 1995              		.loc 2 256 72 view .LVU796
 1996              	.LBE247:
 1997              	.LBE246:
 225:../Common/IQMath/ti/_IQNsqrt.c ****     
 1998              		.loc 1 225 9 is_stmt 1 view .LVU797
 225:../Common/IQMath/ti/_IQNsqrt.c ****     
 1999              		.loc 1 225 9 is_stmt 0 view .LVU798
 2000              	.LBE249:
 2001              	.LBE253:
  72:../Common/IQMath/ti/./support/RTS_support.h **** }
 2002              		.loc 2 72 5 is_stmt 1 view .LVU799
 2003              	.LBB254:
 2004              	.LBB250:
 230:../Common/IQMath/ti/_IQNsqrt.c ****         
 2005              		.loc 1 230 9 view .LVU800
 230:../Common/IQMath/ti/_IQNsqrt.c ****         
 2006              		.loc 1 230 21 is_stmt 0 view .LVU801
 2007 0064 ACF10603 		sub	r3, ip, #6
 2008              	.LVL235:
 233:../Common/IQMath/ti/_IQNsqrt.c ****             if (i16Exponent > 0) {
 2009              		.loc 1 233 9 is_stmt 1 view .LVU802
 240:../Common/IQMath/ti/_IQNsqrt.c ****             if (i16Exponent > 0) {
 2010              		.loc 1 240 9 view .LVU803
 265:../Common/IQMath/ti/_IQNsqrt.c ****         return 0;
 2011              		.loc 1 265 5 view .LVU804
 265:../Common/IQMath/ti/_IQNsqrt.c ****         return 0;
 2012              		.loc 1 265 8 is_stmt 0 view .LVU805
 2013 0068 13F11F0F 		cmn	r3, #31
 2014 006c 15DB     		blt	.L137
 268:../Common/IQMath/ti/_IQNsqrt.c ****         uiq31Result >>= 16;
 2015              		.loc 1 268 5 is_stmt 1 view .LVU806
 268:../Common/IQMath/ti/_IQNsqrt.c ****         uiq31Result >>= 16;
 2016              		.loc 1 268 8 is_stmt 0 view .LVU807
 2017 006e 13F10F0F 		cmn	r3, #15
 2018 0072 01DA     		bge	.L131
 269:../Common/IQMath/ti/_IQNsqrt.c ****         i16Exponent += 16;
 2019              		.loc 1 269 9 is_stmt 1 view .LVU808
ARM GAS  C:\Users\57308\AppData\Local\Temp\ccWnCQ57.s 			page 60


 269:../Common/IQMath/ti/_IQNsqrt.c ****         i16Exponent += 16;
 2020              		.loc 1 269 21 is_stmt 0 view .LVU809
 2021 0074 000C     		lsrs	r0, r0, #16
 2022              	.LVL236:
 270:../Common/IQMath/ti/_IQNsqrt.c ****     }
 2023              		.loc 1 270 9 is_stmt 1 view .LVU810
 270:../Common/IQMath/ti/_IQNsqrt.c ****     }
 2024              		.loc 1 270 21 is_stmt 0 view .LVU811
 2025 0076 1033     		adds	r3, r3, #16
 2026              	.LVL237:
 2027              	.L131:
 272:../Common/IQMath/ti/_IQNsqrt.c ****         uiq31Result >>= 8;
 2028              		.loc 1 272 5 is_stmt 1 view .LVU812
 272:../Common/IQMath/ti/_IQNsqrt.c ****         uiq31Result >>= 8;
 2029              		.loc 1 272 8 is_stmt 0 view .LVU813
 2030 0078 13F1070F 		cmn	r3, #7
 2031 007c 01DA     		bge	.L133
 273:../Common/IQMath/ti/_IQNsqrt.c ****         i16Exponent += 8;
 2032              		.loc 1 273 9 is_stmt 1 view .LVU814
 273:../Common/IQMath/ti/_IQNsqrt.c ****         i16Exponent += 8;
 2033              		.loc 1 273 21 is_stmt 0 view .LVU815
 2034 007e 000A     		lsrs	r0, r0, #8
 2035              	.LVL238:
 274:../Common/IQMath/ti/_IQNsqrt.c ****     }
 2036              		.loc 1 274 9 is_stmt 1 view .LVU816
 274:../Common/IQMath/ti/_IQNsqrt.c ****     }
 2037              		.loc 1 274 21 is_stmt 0 view .LVU817
 2038 0080 0833     		adds	r3, r3, #8
 2039              	.LVL239:
 2040              	.L133:
 276:../Common/IQMath/ti/_IQNsqrt.c ****         uiq31Result >>= 1;
 2041              		.loc 1 276 11 is_stmt 1 view .LVU818
 2042 0082 B3F1FF3F 		cmp	r3, #-1
 2043 0086 02DA     		bge	.L142
 277:../Common/IQMath/ti/_IQNsqrt.c ****         i16Exponent++;
 2044              		.loc 1 277 9 view .LVU819
 277:../Common/IQMath/ti/_IQNsqrt.c ****         i16Exponent++;
 2045              		.loc 1 277 21 is_stmt 0 view .LVU820
 2046 0088 4008     		lsrs	r0, r0, #1
 2047              	.LVL240:
 278:../Common/IQMath/ti/_IQNsqrt.c ****     }
 2048              		.loc 1 278 9 is_stmt 1 view .LVU821
 278:../Common/IQMath/ti/_IQNsqrt.c ****     }
 2049              		.loc 1 278 20 is_stmt 0 view .LVU822
 2050 008a 0133     		adds	r3, r3, #1
 2051              	.LVL241:
 278:../Common/IQMath/ti/_IQNsqrt.c ****     }
 2052              		.loc 1 278 20 view .LVU823
 2053 008c F9E7     		b	.L133
 2054              	.L142:
 280:../Common/IQMath/ti/_IQNsqrt.c ****         uiq31Result++;
 2055              		.loc 1 280 5 is_stmt 1 view .LVU824
 280:../Common/IQMath/ti/_IQNsqrt.c ****         uiq31Result++;
 2056              		.loc 1 280 8 is_stmt 0 view .LVU825
 2057 008e 2BB1     		cbz	r3, .L125
 281:../Common/IQMath/ti/_IQNsqrt.c ****         uiq31Result >>= 1;
 2058              		.loc 1 281 9 is_stmt 1 view .LVU826
ARM GAS  C:\Users\57308\AppData\Local\Temp\ccWnCQ57.s 			page 61


 281:../Common/IQMath/ti/_IQNsqrt.c ****         uiq31Result >>= 1;
 2059              		.loc 1 281 20 is_stmt 0 view .LVU827
 2060 0090 0130     		adds	r0, r0, #1
 2061              	.LVL242:
 282:../Common/IQMath/ti/_IQNsqrt.c ****     }        
 2062              		.loc 1 282 9 is_stmt 1 view .LVU828
 282:../Common/IQMath/ti/_IQNsqrt.c ****     }        
 2063              		.loc 1 282 21 is_stmt 0 view .LVU829
 2064 0092 4008     		lsrs	r0, r0, #1
 2065              	.LVL243:
 285:../Common/IQMath/ti/_IQNsqrt.c **** }
 2066              		.loc 1 285 5 is_stmt 1 view .LVU830
 285:../Common/IQMath/ti/_IQNsqrt.c **** }
 2067              		.loc 1 285 12 is_stmt 0 view .LVU831
 2068 0094 02E0     		b	.L125
 2069              	.LVL244:
 2070              	.L136:
 2071              	.LCFI19:
 2072              		.cfi_def_cfa_offset 0
 2073              		.cfi_restore 4
 2074              		.cfi_restore 14
 129:../Common/IQMath/ti/_IQNsqrt.c ****         }
 2075              		.loc 1 129 20 view .LVU832
 2076 0096 0020     		movs	r0, #0
 2077              	.LVL245:
 129:../Common/IQMath/ti/_IQNsqrt.c ****         }
 2078              		.loc 1 129 20 view .LVU833
 2079              	.LBE250:
 2080              	.LBE254:
 440:../Common/IQMath/ti/_IQNsqrt.c **** }
 2081              		.loc 1 440 1 view .LVU834
 2082 0098 7047     		bx	lr
 2083              	.LVL246:
 2084              	.L137:
 2085              	.LCFI20:
 2086              		.cfi_def_cfa_offset 8
 2087              		.cfi_offset 4, -8
 2088              		.cfi_offset 14, -4
 2089              	.LBB255:
 2090              	.LBB251:
 266:../Common/IQMath/ti/_IQNsqrt.c ****     }
 2091              		.loc 1 266 16 view .LVU835
 2092 009a 0020     		movs	r0, #0
 2093              	.LVL247:
 2094              	.L125:
 266:../Common/IQMath/ti/_IQNsqrt.c ****     }
 2095              		.loc 1 266 16 view .LVU836
 2096              	.LBE251:
 2097              	.LBE255:
 2098              		.loc 1 440 1 view .LVU837
 2099 009c 10BD     		pop	{r4, pc}
 2100              	.L144:
 2101 009e 00BF     		.align	2
 2102              	.L143:
 2103 00a0 00000000 		.word	_IQ14sqrt_lookup
 2104              		.cfi_endproc
 2105              	.LFE268:
ARM GAS  C:\Users\57308\AppData\Local\Temp\ccWnCQ57.s 			page 62


 2107              		.section	.text._IQ24sqrt,"ax",%progbits
 2108              		.align	1
 2109              		.global	_IQ24sqrt
 2110              		.syntax unified
 2111              		.thumb
 2112              		.thumb_func
 2114              	_IQ24sqrt:
 2115              	.LVL248:
 2116              	.LFB269:
 441:../Common/IQMath/ti/_IQNsqrt.c **** /**
 442:../Common/IQMath/ti/_IQNsqrt.c ****  * @brief Calculate square root of an IQ24 input.
 443:../Common/IQMath/ti/_IQNsqrt.c ****  *
 444:../Common/IQMath/ti/_IQNsqrt.c ****  * @param a                 IQ24 type input.
 445:../Common/IQMath/ti/_IQNsqrt.c ****  *
 446:../Common/IQMath/ti/_IQNsqrt.c ****  * @return                  IQ24 type result of the square root operation.
 447:../Common/IQMath/ti/_IQNsqrt.c ****  */
 448:../Common/IQMath/ti/_IQNsqrt.c **** int32_t _IQ24sqrt(int32_t a)
 449:../Common/IQMath/ti/_IQNsqrt.c **** {
 2117              		.loc 1 449 1 is_stmt 1 view -0
 2118              		.cfi_startproc
 2119              		@ args = 0, pretend = 0, frame = 0
 2120              		@ frame_needed = 0, uses_anonymous_args = 0
 450:../Common/IQMath/ti/_IQNsqrt.c ****     return __IQNsqrt(a, 0, 24, TYPE_SQRT);
 2121              		.loc 1 450 5 view .LVU839
 2122              	.LBB271:
 2123              	.LBI271:
  68:../Common/IQMath/ti/_IQNsqrt.c **** {
 2124              		.loc 1 68 30 view .LVU840
 2125              	.LBB272:
  70:../Common/IQMath/ti/_IQNsqrt.c ****     uint8_t ui8Loops;
 2126              		.loc 1 70 5 view .LVU841
  71:../Common/IQMath/ti/_IQNsqrt.c ****     int_fast16_t i16Exponent;
 2127              		.loc 1 71 5 view .LVU842
  72:../Common/IQMath/ti/_IQNsqrt.c ****     uint_fast16_t ui16IntState;
 2128              		.loc 1 72 5 view .LVU843
  73:../Common/IQMath/ti/_IQNsqrt.c ****     uint_fast16_t ui16MPYState;
 2129              		.loc 1 73 5 view .LVU844
  74:../Common/IQMath/ti/_IQNsqrt.c ****     uint_fast32_t uiq30Guess;
 2130              		.loc 1 74 5 view .LVU845
  75:../Common/IQMath/ti/_IQNsqrt.c ****     uint_fast32_t uiq30Result;
 2131              		.loc 1 75 5 view .LVU846
  76:../Common/IQMath/ti/_IQNsqrt.c ****     uint_fast32_t uiq31Result;
 2132              		.loc 1 76 5 view .LVU847
  77:../Common/IQMath/ti/_IQNsqrt.c ****     uint_fast32_t uiq32Input;
 2133              		.loc 1 77 5 view .LVU848
  78:../Common/IQMath/ti/_IQNsqrt.c ****     
 2134              		.loc 1 78 5 view .LVU849
  81:../Common/IQMath/ti/_IQNsqrt.c ****         uint_fast64_t ui64Sum;
 2135              		.loc 1 81 5 view .LVU850
 128:../Common/IQMath/ti/_IQNsqrt.c ****             return 0;
 2136              		.loc 1 128 9 view .LVU851
 128:../Common/IQMath/ti/_IQNsqrt.c ****             return 0;
 2137              		.loc 1 128 12 is_stmt 0 view .LVU852
 2138 0000 0028     		cmp	r0, #0
 128:../Common/IQMath/ti/_IQNsqrt.c ****             return 0;
 2139              		.loc 1 128 12 view .LVU853
 2140 0002 47DD     		ble	.L156
ARM GAS  C:\Users\57308\AppData\Local\Temp\ccWnCQ57.s 			page 63


 2141              	.LBE272:
 2142              	.LBE271:
 449:../Common/IQMath/ti/_IQNsqrt.c ****     return __IQNsqrt(a, 0, 24, TYPE_SQRT);
 2143              		.loc 1 449 1 view .LVU854
 2144 0004 10B5     		push	{r4, lr}
 2145              	.LCFI21:
 2146              		.cfi_def_cfa_offset 8
 2147              		.cfi_offset 4, -8
 2148              		.cfi_offset 14, -4
 2149              	.LBB285:
 2150              	.LBB281:
 133:../Common/IQMath/ti/_IQNsqrt.c ****             iqNInputX <<= 1;
 2151              		.loc 1 133 9 is_stmt 1 view .LVU855
 146:../Common/IQMath/ti/_IQNsqrt.c ****                 i16Exponent = (32 - q_value) >> 1;
 2152              		.loc 1 146 13 view .LVU856
 147:../Common/IQMath/ti/_IQNsqrt.c ****             }
 2153              		.loc 1 147 17 view .LVU857
 2154              	.LVL249:
 156:../Common/IQMath/ti/_IQNsqrt.c ****         
 2155              		.loc 1 156 9 view .LVU858
 159:../Common/IQMath/ti/_IQNsqrt.c ****             uiq32Input <<= 2;
 2156              		.loc 1 159 9 view .LVU859
 159:../Common/IQMath/ti/_IQNsqrt.c ****             uiq32Input <<= 2;
 2157              		.loc 1 159 15 is_stmt 0 view .LVU860
 2158 0006 4FF0040C 		mov	ip, #4
 2159 000a 02E0     		b	.L147
 2160              	.LVL250:
 2161              	.L148:
 160:../Common/IQMath/ti/_IQNsqrt.c ****             /* Decrement exponent for sqrt and mag */
 2162              		.loc 1 160 13 is_stmt 1 view .LVU861
 160:../Common/IQMath/ti/_IQNsqrt.c ****             /* Decrement exponent for sqrt and mag */
 2163              		.loc 1 160 24 is_stmt 0 view .LVU862
 2164 000c 8000     		lsls	r0, r0, #2
 2165              	.LVL251:
 162:../Common/IQMath/ti/_IQNsqrt.c ****                 i16Exponent--;
 2166              		.loc 1 162 13 is_stmt 1 view .LVU863
 163:../Common/IQMath/ti/_IQNsqrt.c ****             }
 2167              		.loc 1 163 17 view .LVU864
 163:../Common/IQMath/ti/_IQNsqrt.c ****             }
 2168              		.loc 1 163 28 is_stmt 0 view .LVU865
 2169 000e 0CF1FF3C 		add	ip, ip, #-1
 2170              	.LVL252:
 2171              	.L147:
 159:../Common/IQMath/ti/_IQNsqrt.c ****             uiq32Input <<= 2;
 2172              		.loc 1 159 15 is_stmt 1 view .LVU866
 2173 0012 B0F1804F 		cmp	r0, #1073741824
 2174 0016 F9D3     		bcc	.L148
 174:../Common/IQMath/ti/_IQNsqrt.c ****     ui8Index -= 32;
 2175              		.loc 1 174 5 view .LVU867
 174:../Common/IQMath/ti/_IQNsqrt.c ****     ui8Index -= 32;
 2176              		.loc 1 174 14 is_stmt 0 view .LVU868
 2177 0018 430E     		lsrs	r3, r0, #25
 2178              	.LVL253:
 175:../Common/IQMath/ti/_IQNsqrt.c ****     uiq30Guess = (uint_fast32_t)_IQ14sqrt_lookup[ui8Index] << 16;
 2179              		.loc 1 175 5 is_stmt 1 view .LVU869
 175:../Common/IQMath/ti/_IQNsqrt.c ****     uiq30Guess = (uint_fast32_t)_IQ14sqrt_lookup[ui8Index] << 16;
 2180              		.loc 1 175 14 is_stmt 0 view .LVU870
ARM GAS  C:\Users\57308\AppData\Local\Temp\ccWnCQ57.s 			page 64


 2181 001a 203B     		subs	r3, r3, #32
 2182              	.LVL254:
 175:../Common/IQMath/ti/_IQNsqrt.c ****     uiq30Guess = (uint_fast32_t)_IQ14sqrt_lookup[ui8Index] << 16;
 2183              		.loc 1 175 14 view .LVU871
 2184 001c DBB2     		uxtb	r3, r3
 2185              	.LVL255:
 176:../Common/IQMath/ti/_IQNsqrt.c ****     
 2186              		.loc 1 176 5 is_stmt 1 view .LVU872
 176:../Common/IQMath/ti/_IQNsqrt.c ****     
 2187              		.loc 1 176 49 is_stmt 0 view .LVU873
 2188 001e 1F4A     		ldr	r2, .L163
 2189 0020 52F82310 		ldr	r1, [r2, r3, lsl #2]
 176:../Common/IQMath/ti/_IQNsqrt.c ****     
 2190              		.loc 1 176 16 view .LVU874
 2191 0024 0904     		lsls	r1, r1, #16
 2192              	.LVL256:
 184:../Common/IQMath/ti/_IQNsqrt.c ****     
 2193              		.loc 1 184 5 is_stmt 1 view .LVU875
 184:../Common/IQMath/ti/_IQNsqrt.c ****     
 2194              		.loc 1 184 5 is_stmt 0 view .LVU876
 2195              	.LBE281:
 2196              	.LBE285:
  28:../Common/IQMath/ti/./support/RTS_support.h **** }
 2197              		.loc 2 28 5 is_stmt 1 view .LVU877
 2198              	.LBB286:
 2199              	.LBB282:
 192:../Common/IQMath/ti/_IQNsqrt.c ****         ui8Loops = 2;
 2200              		.loc 1 192 5 view .LVU878
 196:../Common/IQMath/ti/_IQNsqrt.c ****     }
 2201              		.loc 1 196 9 view .LVU879
 176:../Common/IQMath/ti/_IQNsqrt.c ****     
 2202              		.loc 1 176 16 is_stmt 0 view .LVU880
 2203 0026 0323     		movs	r3, #3
 2204              	.LVL257:
 176:../Common/IQMath/ti/_IQNsqrt.c ****     
 2205              		.loc 1 176 16 view .LVU881
 2206 0028 11E0     		b	.L149
 2207              	.LVL258:
 2208              	.L150:
 202:../Common/IQMath/ti/_IQNsqrt.c ****         
 2209              		.loc 1 202 9 is_stmt 1 view .LVU882
 2210              	.LBB273:
 2211              	.LBI273:
 254:../Common/IQMath/ti/./support/RTS_support.h **** {
 2212              		.loc 2 254 29 view .LVU883
 2213              	.LBB274:
 2214              		.loc 2 256 5 view .LVU884
 2215              		.loc 2 256 49 is_stmt 0 view .LVU885
 2216 002a A0FB0124 		umull	r2, r4, r0, r1
 2217              		.loc 2 256 72 view .LVU886
 2218 002e D30F     		lsrs	r3, r2, #31
 2219 0030 43EA4403 		orr	r3, r3, r4, lsl #1
 2220              	.LVL259:
 2221              		.loc 2 256 72 view .LVU887
 2222              	.LBE274:
 2223              	.LBE273:
 205:../Common/IQMath/ti/_IQNsqrt.c ****         
ARM GAS  C:\Users\57308\AppData\Local\Temp\ccWnCQ57.s 			page 65


 2224              		.loc 1 205 9 is_stmt 1 view .LVU888
 2225              	.LBB275:
 2226              	.LBI275:
 254:../Common/IQMath/ti/./support/RTS_support.h **** {
 2227              		.loc 2 254 29 view .LVU889
 2228              	.LBB276:
 2229              		.loc 2 256 5 view .LVU890
 2230              		.loc 2 256 49 is_stmt 0 view .LVU891
 2231 0034 A3FB0132 		umull	r3, r2, r3, r1
 2232              	.LVL260:
 2233              		.loc 2 256 72 view .LVU892
 2234 0038 DB0F     		lsrs	r3, r3, #31
 2235 003a 43EA4203 		orr	r3, r3, r2, lsl #1
 2236              	.LVL261:
 2237              		.loc 2 256 72 view .LVU893
 2238              	.LBE276:
 2239              	.LBE275:
 208:../Common/IQMath/ti/_IQNsqrt.c ****         
 2240              		.loc 1 208 9 is_stmt 1 view .LVU894
 208:../Common/IQMath/ti/_IQNsqrt.c ****         
 2241              		.loc 1 208 21 is_stmt 0 view .LVU895
 2242 003e C3F14043 		rsb	r3, r3, #-1073741824
 2243              	.LVL262:
 214:../Common/IQMath/ti/_IQNsqrt.c ****     }
 2244              		.loc 1 214 9 is_stmt 1 view .LVU896
 2245              	.LBB277:
 2246              	.LBI277:
 254:../Common/IQMath/ti/./support/RTS_support.h **** {
 2247              		.loc 2 254 29 view .LVU897
 2248              	.LBB278:
 2249              		.loc 2 256 5 view .LVU898
 2250              		.loc 2 256 49 is_stmt 0 view .LVU899
 2251 0042 A1FB0331 		umull	r3, r1, r1, r3
 2252              	.LVL263:
 2253              		.loc 2 256 72 view .LVU900
 2254 0046 DB0F     		lsrs	r3, r3, #31
 2255 0048 43EA4101 		orr	r1, r3, r1, lsl #1
 2256              	.LVL264:
 2257              		.loc 2 256 72 view .LVU901
 2258              	.LBE278:
 2259              	.LBE277:
 200:../Common/IQMath/ti/_IQNsqrt.c ****         /* x*g */
 2260              		.loc 1 200 20 view .LVU902
 2261 004c 7346     		mov	r3, lr
 2262              	.LVL265:
 2263              	.L149:
 200:../Common/IQMath/ti/_IQNsqrt.c ****         /* x*g */
 2264              		.loc 1 200 11 is_stmt 1 view .LVU903
 200:../Common/IQMath/ti/_IQNsqrt.c ****         /* x*g */
 2265              		.loc 1 200 20 is_stmt 0 view .LVU904
 2266 004e 5A1E     		subs	r2, r3, #1
 2267 0050 5FFA82FE 		uxtb	lr, r2
 2268              	.LVL266:
 200:../Common/IQMath/ti/_IQNsqrt.c ****         /* x*g */
 2269              		.loc 1 200 11 view .LVU905
 2270 0054 002B     		cmp	r3, #0
 2271 0056 E8D1     		bne	.L150
ARM GAS  C:\Users\57308\AppData\Local\Temp\ccWnCQ57.s 			page 66


 218:../Common/IQMath/ti/_IQNsqrt.c ****         /*
 2272              		.loc 1 218 5 is_stmt 1 view .LVU906
 223:../Common/IQMath/ti/_IQNsqrt.c ****     
 2273              		.loc 1 223 9 view .LVU907
 2274              	.LVL267:
 2275              	.LBB279:
 2276              	.LBI279:
 254:../Common/IQMath/ti/./support/RTS_support.h **** {
 2277              		.loc 2 254 29 view .LVU908
 2278              	.LBB280:
 2279              		.loc 2 256 5 view .LVU909
 2280              		.loc 2 256 49 is_stmt 0 view .LVU910
 2281 0058 A1FB0031 		umull	r3, r1, r1, r0
 2282              		.loc 2 256 72 view .LVU911
 2283 005c D80F     		lsrs	r0, r3, #31
 2284              	.LVL268:
 2285              		.loc 2 256 72 view .LVU912
 2286 005e 40EA4100 		orr	r0, r0, r1, lsl #1
 2287              	.LVL269:
 2288              		.loc 2 256 72 view .LVU913
 2289              	.LBE280:
 2290              	.LBE279:
 225:../Common/IQMath/ti/_IQNsqrt.c ****     
 2291              		.loc 1 225 9 is_stmt 1 view .LVU914
 225:../Common/IQMath/ti/_IQNsqrt.c ****     
 2292              		.loc 1 225 9 is_stmt 0 view .LVU915
 2293              	.LBE282:
 2294              	.LBE286:
  72:../Common/IQMath/ti/./support/RTS_support.h **** }
 2295              		.loc 2 72 5 is_stmt 1 view .LVU916
 2296              	.LBB287:
 2297              	.LBB283:
 230:../Common/IQMath/ti/_IQNsqrt.c ****         
 2298              		.loc 1 230 9 view .LVU917
 230:../Common/IQMath/ti/_IQNsqrt.c ****         
 2299              		.loc 1 230 21 is_stmt 0 view .LVU918
 2300 0062 ACF10703 		sub	r3, ip, #7
 2301              	.LVL270:
 233:../Common/IQMath/ti/_IQNsqrt.c ****             if (i16Exponent > 0) {
 2302              		.loc 1 233 9 is_stmt 1 view .LVU919
 240:../Common/IQMath/ti/_IQNsqrt.c ****             if (i16Exponent > 0) {
 2303              		.loc 1 240 9 view .LVU920
 265:../Common/IQMath/ti/_IQNsqrt.c ****         return 0;
 2304              		.loc 1 265 5 view .LVU921
 265:../Common/IQMath/ti/_IQNsqrt.c ****         return 0;
 2305              		.loc 1 265 8 is_stmt 0 view .LVU922
 2306 0066 13F11F0F 		cmn	r3, #31
 2307 006a 15DB     		blt	.L157
 268:../Common/IQMath/ti/_IQNsqrt.c ****         uiq31Result >>= 16;
 2308              		.loc 1 268 5 is_stmt 1 view .LVU923
 268:../Common/IQMath/ti/_IQNsqrt.c ****         uiq31Result >>= 16;
 2309              		.loc 1 268 8 is_stmt 0 view .LVU924
 2310 006c 13F10F0F 		cmn	r3, #15
 2311 0070 01DA     		bge	.L151
 269:../Common/IQMath/ti/_IQNsqrt.c ****         i16Exponent += 16;
 2312              		.loc 1 269 9 is_stmt 1 view .LVU925
 269:../Common/IQMath/ti/_IQNsqrt.c ****         i16Exponent += 16;
ARM GAS  C:\Users\57308\AppData\Local\Temp\ccWnCQ57.s 			page 67


 2313              		.loc 1 269 21 is_stmt 0 view .LVU926
 2314 0072 000C     		lsrs	r0, r0, #16
 2315              	.LVL271:
 270:../Common/IQMath/ti/_IQNsqrt.c ****     }
 2316              		.loc 1 270 9 is_stmt 1 view .LVU927
 270:../Common/IQMath/ti/_IQNsqrt.c ****     }
 2317              		.loc 1 270 21 is_stmt 0 view .LVU928
 2318 0074 1033     		adds	r3, r3, #16
 2319              	.LVL272:
 2320              	.L151:
 272:../Common/IQMath/ti/_IQNsqrt.c ****         uiq31Result >>= 8;
 2321              		.loc 1 272 5 is_stmt 1 view .LVU929
 272:../Common/IQMath/ti/_IQNsqrt.c ****         uiq31Result >>= 8;
 2322              		.loc 1 272 8 is_stmt 0 view .LVU930
 2323 0076 13F1070F 		cmn	r3, #7
 2324 007a 01DA     		bge	.L153
 273:../Common/IQMath/ti/_IQNsqrt.c ****         i16Exponent += 8;
 2325              		.loc 1 273 9 is_stmt 1 view .LVU931
 273:../Common/IQMath/ti/_IQNsqrt.c ****         i16Exponent += 8;
 2326              		.loc 1 273 21 is_stmt 0 view .LVU932
 2327 007c 000A     		lsrs	r0, r0, #8
 2328              	.LVL273:
 274:../Common/IQMath/ti/_IQNsqrt.c ****     }
 2329              		.loc 1 274 9 is_stmt 1 view .LVU933
 274:../Common/IQMath/ti/_IQNsqrt.c ****     }
 2330              		.loc 1 274 21 is_stmt 0 view .LVU934
 2331 007e 0833     		adds	r3, r3, #8
 2332              	.LVL274:
 2333              	.L153:
 276:../Common/IQMath/ti/_IQNsqrt.c ****         uiq31Result >>= 1;
 2334              		.loc 1 276 11 is_stmt 1 view .LVU935
 2335 0080 B3F1FF3F 		cmp	r3, #-1
 2336 0084 02DA     		bge	.L162
 277:../Common/IQMath/ti/_IQNsqrt.c ****         i16Exponent++;
 2337              		.loc 1 277 9 view .LVU936
 277:../Common/IQMath/ti/_IQNsqrt.c ****         i16Exponent++;
 2338              		.loc 1 277 21 is_stmt 0 view .LVU937
 2339 0086 4008     		lsrs	r0, r0, #1
 2340              	.LVL275:
 278:../Common/IQMath/ti/_IQNsqrt.c ****     }
 2341              		.loc 1 278 9 is_stmt 1 view .LVU938
 278:../Common/IQMath/ti/_IQNsqrt.c ****     }
 2342              		.loc 1 278 20 is_stmt 0 view .LVU939
 2343 0088 0133     		adds	r3, r3, #1
 2344              	.LVL276:
 278:../Common/IQMath/ti/_IQNsqrt.c ****     }
 2345              		.loc 1 278 20 view .LVU940
 2346 008a F9E7     		b	.L153
 2347              	.L162:
 280:../Common/IQMath/ti/_IQNsqrt.c ****         uiq31Result++;
 2348              		.loc 1 280 5 is_stmt 1 view .LVU941
 280:../Common/IQMath/ti/_IQNsqrt.c ****         uiq31Result++;
 2349              		.loc 1 280 8 is_stmt 0 view .LVU942
 2350 008c 2BB1     		cbz	r3, .L145
 281:../Common/IQMath/ti/_IQNsqrt.c ****         uiq31Result >>= 1;
 2351              		.loc 1 281 9 is_stmt 1 view .LVU943
 281:../Common/IQMath/ti/_IQNsqrt.c ****         uiq31Result >>= 1;
ARM GAS  C:\Users\57308\AppData\Local\Temp\ccWnCQ57.s 			page 68


 2352              		.loc 1 281 20 is_stmt 0 view .LVU944
 2353 008e 0130     		adds	r0, r0, #1
 2354              	.LVL277:
 282:../Common/IQMath/ti/_IQNsqrt.c ****     }        
 2355              		.loc 1 282 9 is_stmt 1 view .LVU945
 282:../Common/IQMath/ti/_IQNsqrt.c ****     }        
 2356              		.loc 1 282 21 is_stmt 0 view .LVU946
 2357 0090 4008     		lsrs	r0, r0, #1
 2358              	.LVL278:
 285:../Common/IQMath/ti/_IQNsqrt.c **** }
 2359              		.loc 1 285 5 is_stmt 1 view .LVU947
 285:../Common/IQMath/ti/_IQNsqrt.c **** }
 2360              		.loc 1 285 12 is_stmt 0 view .LVU948
 2361 0092 02E0     		b	.L145
 2362              	.LVL279:
 2363              	.L156:
 2364              	.LCFI22:
 2365              		.cfi_def_cfa_offset 0
 2366              		.cfi_restore 4
 2367              		.cfi_restore 14
 129:../Common/IQMath/ti/_IQNsqrt.c ****         }
 2368              		.loc 1 129 20 view .LVU949
 2369 0094 0020     		movs	r0, #0
 2370              	.LVL280:
 129:../Common/IQMath/ti/_IQNsqrt.c ****         }
 2371              		.loc 1 129 20 view .LVU950
 2372              	.LBE283:
 2373              	.LBE287:
 451:../Common/IQMath/ti/_IQNsqrt.c **** }
 2374              		.loc 1 451 1 view .LVU951
 2375 0096 7047     		bx	lr
 2376              	.LVL281:
 2377              	.L157:
 2378              	.LCFI23:
 2379              		.cfi_def_cfa_offset 8
 2380              		.cfi_offset 4, -8
 2381              		.cfi_offset 14, -4
 2382              	.LBB288:
 2383              	.LBB284:
 266:../Common/IQMath/ti/_IQNsqrt.c ****     }
 2384              		.loc 1 266 16 view .LVU952
 2385 0098 0020     		movs	r0, #0
 2386              	.LVL282:
 2387              	.L145:
 266:../Common/IQMath/ti/_IQNsqrt.c ****     }
 2388              		.loc 1 266 16 view .LVU953
 2389              	.LBE284:
 2390              	.LBE288:
 2391              		.loc 1 451 1 view .LVU954
 2392 009a 10BD     		pop	{r4, pc}
 2393              	.L164:
 2394              		.align	2
 2395              	.L163:
 2396 009c 00000000 		.word	_IQ14sqrt_lookup
 2397              		.cfi_endproc
 2398              	.LFE269:
 2400              		.section	.text._IQ23sqrt,"ax",%progbits
ARM GAS  C:\Users\57308\AppData\Local\Temp\ccWnCQ57.s 			page 69


 2401              		.align	1
 2402              		.global	_IQ23sqrt
 2403              		.syntax unified
 2404              		.thumb
 2405              		.thumb_func
 2407              	_IQ23sqrt:
 2408              	.LVL283:
 2409              	.LFB270:
 452:../Common/IQMath/ti/_IQNsqrt.c **** /**
 453:../Common/IQMath/ti/_IQNsqrt.c ****  * @brief Calculate square root of an IQ23 input.
 454:../Common/IQMath/ti/_IQNsqrt.c ****  *
 455:../Common/IQMath/ti/_IQNsqrt.c ****  * @param a                 IQ23 type input.
 456:../Common/IQMath/ti/_IQNsqrt.c ****  *
 457:../Common/IQMath/ti/_IQNsqrt.c ****  * @return                  IQ23 type result of the square root operation.
 458:../Common/IQMath/ti/_IQNsqrt.c ****  */
 459:../Common/IQMath/ti/_IQNsqrt.c **** int32_t _IQ23sqrt(int32_t a)
 460:../Common/IQMath/ti/_IQNsqrt.c **** {
 2410              		.loc 1 460 1 is_stmt 1 view -0
 2411              		.cfi_startproc
 2412              		@ args = 0, pretend = 0, frame = 0
 2413              		@ frame_needed = 0, uses_anonymous_args = 0
 461:../Common/IQMath/ti/_IQNsqrt.c ****     return __IQNsqrt(a, 0, 23, TYPE_SQRT);
 2414              		.loc 1 461 5 view .LVU956
 2415              	.LBB304:
 2416              	.LBI304:
  68:../Common/IQMath/ti/_IQNsqrt.c **** {
 2417              		.loc 1 68 30 view .LVU957
 2418              	.LBB305:
  70:../Common/IQMath/ti/_IQNsqrt.c ****     uint8_t ui8Loops;
 2419              		.loc 1 70 5 view .LVU958
  71:../Common/IQMath/ti/_IQNsqrt.c ****     int_fast16_t i16Exponent;
 2420              		.loc 1 71 5 view .LVU959
  72:../Common/IQMath/ti/_IQNsqrt.c ****     uint_fast16_t ui16IntState;
 2421              		.loc 1 72 5 view .LVU960
  73:../Common/IQMath/ti/_IQNsqrt.c ****     uint_fast16_t ui16MPYState;
 2422              		.loc 1 73 5 view .LVU961
  74:../Common/IQMath/ti/_IQNsqrt.c ****     uint_fast32_t uiq30Guess;
 2423              		.loc 1 74 5 view .LVU962
  75:../Common/IQMath/ti/_IQNsqrt.c ****     uint_fast32_t uiq30Result;
 2424              		.loc 1 75 5 view .LVU963
  76:../Common/IQMath/ti/_IQNsqrt.c ****     uint_fast32_t uiq31Result;
 2425              		.loc 1 76 5 view .LVU964
  77:../Common/IQMath/ti/_IQNsqrt.c ****     uint_fast32_t uiq32Input;
 2426              		.loc 1 77 5 view .LVU965
  78:../Common/IQMath/ti/_IQNsqrt.c ****     
 2427              		.loc 1 78 5 view .LVU966
  81:../Common/IQMath/ti/_IQNsqrt.c ****         uint_fast64_t ui64Sum;
 2428              		.loc 1 81 5 view .LVU967
 128:../Common/IQMath/ti/_IQNsqrt.c ****             return 0;
 2429              		.loc 1 128 9 view .LVU968
 128:../Common/IQMath/ti/_IQNsqrt.c ****             return 0;
 2430              		.loc 1 128 12 is_stmt 0 view .LVU969
 2431 0000 0028     		cmp	r0, #0
 128:../Common/IQMath/ti/_IQNsqrt.c ****             return 0;
 2432              		.loc 1 128 12 view .LVU970
 2433 0002 48DD     		ble	.L176
 2434              	.LBE305:
ARM GAS  C:\Users\57308\AppData\Local\Temp\ccWnCQ57.s 			page 70


 2435              	.LBE304:
 460:../Common/IQMath/ti/_IQNsqrt.c ****     return __IQNsqrt(a, 0, 23, TYPE_SQRT);
 2436              		.loc 1 460 1 view .LVU971
 2437 0004 10B5     		push	{r4, lr}
 2438              	.LCFI24:
 2439              		.cfi_def_cfa_offset 8
 2440              		.cfi_offset 4, -8
 2441              		.cfi_offset 14, -4
 2442              	.LBB318:
 2443              	.LBB314:
 133:../Common/IQMath/ti/_IQNsqrt.c ****             iqNInputX <<= 1;
 2444              		.loc 1 133 9 is_stmt 1 view .LVU972
 134:../Common/IQMath/ti/_IQNsqrt.c ****             /* Start with positive exponent for sqrt */
 2445              		.loc 1 134 13 view .LVU973
 134:../Common/IQMath/ti/_IQNsqrt.c ****             /* Start with positive exponent for sqrt */
 2446              		.loc 1 134 23 is_stmt 0 view .LVU974
 2447 0006 4000     		lsls	r0, r0, #1
 2448              	.LVL284:
 136:../Common/IQMath/ti/_IQNsqrt.c ****                 i16Exponent = ((32 - q_value) - 1) >> 1;
 2449              		.loc 1 136 13 is_stmt 1 view .LVU975
 137:../Common/IQMath/ti/_IQNsqrt.c ****             }
 2450              		.loc 1 137 17 view .LVU976
 156:../Common/IQMath/ti/_IQNsqrt.c ****         
 2451              		.loc 1 156 9 view .LVU977
 159:../Common/IQMath/ti/_IQNsqrt.c ****             uiq32Input <<= 2;
 2452              		.loc 1 159 9 view .LVU978
 159:../Common/IQMath/ti/_IQNsqrt.c ****             uiq32Input <<= 2;
 2453              		.loc 1 159 15 is_stmt 0 view .LVU979
 2454 0008 4FF0040C 		mov	ip, #4
 2455 000c 02E0     		b	.L167
 2456              	.LVL285:
 2457              	.L168:
 160:../Common/IQMath/ti/_IQNsqrt.c ****             /* Decrement exponent for sqrt and mag */
 2458              		.loc 1 160 13 is_stmt 1 view .LVU980
 160:../Common/IQMath/ti/_IQNsqrt.c ****             /* Decrement exponent for sqrt and mag */
 2459              		.loc 1 160 24 is_stmt 0 view .LVU981
 2460 000e 8000     		lsls	r0, r0, #2
 2461              	.LVL286:
 162:../Common/IQMath/ti/_IQNsqrt.c ****                 i16Exponent--;
 2462              		.loc 1 162 13 is_stmt 1 view .LVU982
 163:../Common/IQMath/ti/_IQNsqrt.c ****             }
 2463              		.loc 1 163 17 view .LVU983
 163:../Common/IQMath/ti/_IQNsqrt.c ****             }
 2464              		.loc 1 163 28 is_stmt 0 view .LVU984
 2465 0010 0CF1FF3C 		add	ip, ip, #-1
 2466              	.LVL287:
 2467              	.L167:
 159:../Common/IQMath/ti/_IQNsqrt.c ****             uiq32Input <<= 2;
 2468              		.loc 1 159 15 is_stmt 1 view .LVU985
 2469 0014 B0F1804F 		cmp	r0, #1073741824
 2470 0018 F9D3     		bcc	.L168
 174:../Common/IQMath/ti/_IQNsqrt.c ****     ui8Index -= 32;
 2471              		.loc 1 174 5 view .LVU986
 174:../Common/IQMath/ti/_IQNsqrt.c ****     ui8Index -= 32;
 2472              		.loc 1 174 14 is_stmt 0 view .LVU987
 2473 001a 430E     		lsrs	r3, r0, #25
 2474              	.LVL288:
ARM GAS  C:\Users\57308\AppData\Local\Temp\ccWnCQ57.s 			page 71


 175:../Common/IQMath/ti/_IQNsqrt.c ****     uiq30Guess = (uint_fast32_t)_IQ14sqrt_lookup[ui8Index] << 16;
 2475              		.loc 1 175 5 is_stmt 1 view .LVU988
 175:../Common/IQMath/ti/_IQNsqrt.c ****     uiq30Guess = (uint_fast32_t)_IQ14sqrt_lookup[ui8Index] << 16;
 2476              		.loc 1 175 14 is_stmt 0 view .LVU989
 2477 001c 203B     		subs	r3, r3, #32
 2478              	.LVL289:
 175:../Common/IQMath/ti/_IQNsqrt.c ****     uiq30Guess = (uint_fast32_t)_IQ14sqrt_lookup[ui8Index] << 16;
 2479              		.loc 1 175 14 view .LVU990
 2480 001e DBB2     		uxtb	r3, r3
 2481              	.LVL290:
 176:../Common/IQMath/ti/_IQNsqrt.c ****     
 2482              		.loc 1 176 5 is_stmt 1 view .LVU991
 176:../Common/IQMath/ti/_IQNsqrt.c ****     
 2483              		.loc 1 176 49 is_stmt 0 view .LVU992
 2484 0020 1F4A     		ldr	r2, .L183
 2485 0022 52F82310 		ldr	r1, [r2, r3, lsl #2]
 176:../Common/IQMath/ti/_IQNsqrt.c ****     
 2486              		.loc 1 176 16 view .LVU993
 2487 0026 0904     		lsls	r1, r1, #16
 2488              	.LVL291:
 184:../Common/IQMath/ti/_IQNsqrt.c ****     
 2489              		.loc 1 184 5 is_stmt 1 view .LVU994
 184:../Common/IQMath/ti/_IQNsqrt.c ****     
 2490              		.loc 1 184 5 is_stmt 0 view .LVU995
 2491              	.LBE314:
 2492              	.LBE318:
  28:../Common/IQMath/ti/./support/RTS_support.h **** }
 2493              		.loc 2 28 5 is_stmt 1 view .LVU996
 2494              	.LBB319:
 2495              	.LBB315:
 192:../Common/IQMath/ti/_IQNsqrt.c ****         ui8Loops = 2;
 2496              		.loc 1 192 5 view .LVU997
 176:../Common/IQMath/ti/_IQNsqrt.c ****     
 2497              		.loc 1 176 16 is_stmt 0 view .LVU998
 2498 0028 0223     		movs	r3, #2
 2499              	.LVL292:
 176:../Common/IQMath/ti/_IQNsqrt.c ****     
 2500              		.loc 1 176 16 view .LVU999
 2501 002a 11E0     		b	.L169
 2502              	.LVL293:
 2503              	.L170:
 202:../Common/IQMath/ti/_IQNsqrt.c ****         
 2504              		.loc 1 202 9 is_stmt 1 view .LVU1000
 2505              	.LBB306:
 2506              	.LBI306:
 254:../Common/IQMath/ti/./support/RTS_support.h **** {
 2507              		.loc 2 254 29 view .LVU1001
 2508              	.LBB307:
 2509              		.loc 2 256 5 view .LVU1002
 2510              		.loc 2 256 49 is_stmt 0 view .LVU1003
 2511 002c A0FB0124 		umull	r2, r4, r0, r1
 2512              		.loc 2 256 72 view .LVU1004
 2513 0030 D30F     		lsrs	r3, r2, #31
 2514 0032 43EA4403 		orr	r3, r3, r4, lsl #1
 2515              	.LVL294:
 2516              		.loc 2 256 72 view .LVU1005
 2517              	.LBE307:
ARM GAS  C:\Users\57308\AppData\Local\Temp\ccWnCQ57.s 			page 72


 2518              	.LBE306:
 205:../Common/IQMath/ti/_IQNsqrt.c ****         
 2519              		.loc 1 205 9 is_stmt 1 view .LVU1006
 2520              	.LBB308:
 2521              	.LBI308:
 254:../Common/IQMath/ti/./support/RTS_support.h **** {
 2522              		.loc 2 254 29 view .LVU1007
 2523              	.LBB309:
 2524              		.loc 2 256 5 view .LVU1008
 2525              		.loc 2 256 49 is_stmt 0 view .LVU1009
 2526 0036 A3FB0132 		umull	r3, r2, r3, r1
 2527              	.LVL295:
 2528              		.loc 2 256 72 view .LVU1010
 2529 003a DB0F     		lsrs	r3, r3, #31
 2530 003c 43EA4203 		orr	r3, r3, r2, lsl #1
 2531              	.LVL296:
 2532              		.loc 2 256 72 view .LVU1011
 2533              	.LBE309:
 2534              	.LBE308:
 208:../Common/IQMath/ti/_IQNsqrt.c ****         
 2535              		.loc 1 208 9 is_stmt 1 view .LVU1012
 208:../Common/IQMath/ti/_IQNsqrt.c ****         
 2536              		.loc 1 208 21 is_stmt 0 view .LVU1013
 2537 0040 C3F14043 		rsb	r3, r3, #-1073741824
 2538              	.LVL297:
 214:../Common/IQMath/ti/_IQNsqrt.c ****     }
 2539              		.loc 1 214 9 is_stmt 1 view .LVU1014
 2540              	.LBB310:
 2541              	.LBI310:
 254:../Common/IQMath/ti/./support/RTS_support.h **** {
 2542              		.loc 2 254 29 view .LVU1015
 2543              	.LBB311:
 2544              		.loc 2 256 5 view .LVU1016
 2545              		.loc 2 256 49 is_stmt 0 view .LVU1017
 2546 0044 A1FB0331 		umull	r3, r1, r1, r3
 2547              	.LVL298:
 2548              		.loc 2 256 72 view .LVU1018
 2549 0048 DB0F     		lsrs	r3, r3, #31
 2550 004a 43EA4101 		orr	r1, r3, r1, lsl #1
 2551              	.LVL299:
 2552              		.loc 2 256 72 view .LVU1019
 2553              	.LBE311:
 2554              	.LBE310:
 200:../Common/IQMath/ti/_IQNsqrt.c ****         /* x*g */
 2555              		.loc 1 200 20 view .LVU1020
 2556 004e 7346     		mov	r3, lr
 2557              	.LVL300:
 2558              	.L169:
 200:../Common/IQMath/ti/_IQNsqrt.c ****         /* x*g */
 2559              		.loc 1 200 11 is_stmt 1 view .LVU1021
 200:../Common/IQMath/ti/_IQNsqrt.c ****         /* x*g */
 2560              		.loc 1 200 20 is_stmt 0 view .LVU1022
 2561 0050 5A1E     		subs	r2, r3, #1
 2562 0052 5FFA82FE 		uxtb	lr, r2
 2563              	.LVL301:
 200:../Common/IQMath/ti/_IQNsqrt.c ****         /* x*g */
 2564              		.loc 1 200 11 view .LVU1023
ARM GAS  C:\Users\57308\AppData\Local\Temp\ccWnCQ57.s 			page 73


 2565 0056 002B     		cmp	r3, #0
 2566 0058 E8D1     		bne	.L170
 218:../Common/IQMath/ti/_IQNsqrt.c ****         /*
 2567              		.loc 1 218 5 is_stmt 1 view .LVU1024
 223:../Common/IQMath/ti/_IQNsqrt.c ****     
 2568              		.loc 1 223 9 view .LVU1025
 2569              	.LVL302:
 2570              	.LBB312:
 2571              	.LBI312:
 254:../Common/IQMath/ti/./support/RTS_support.h **** {
 2572              		.loc 2 254 29 view .LVU1026
 2573              	.LBB313:
 2574              		.loc 2 256 5 view .LVU1027
 2575              		.loc 2 256 49 is_stmt 0 view .LVU1028
 2576 005a A1FB0031 		umull	r3, r1, r1, r0
 2577              		.loc 2 256 72 view .LVU1029
 2578 005e D80F     		lsrs	r0, r3, #31
 2579              	.LVL303:
 2580              		.loc 2 256 72 view .LVU1030
 2581 0060 40EA4100 		orr	r0, r0, r1, lsl #1
 2582              	.LVL304:
 2583              		.loc 2 256 72 view .LVU1031
 2584              	.LBE313:
 2585              	.LBE312:
 225:../Common/IQMath/ti/_IQNsqrt.c ****     
 2586              		.loc 1 225 9 is_stmt 1 view .LVU1032
 225:../Common/IQMath/ti/_IQNsqrt.c ****     
 2587              		.loc 1 225 9 is_stmt 0 view .LVU1033
 2588              	.LBE315:
 2589              	.LBE319:
  72:../Common/IQMath/ti/./support/RTS_support.h **** }
 2590              		.loc 2 72 5 is_stmt 1 view .LVU1034
 2591              	.LBB320:
 2592              	.LBB316:
 230:../Common/IQMath/ti/_IQNsqrt.c ****         
 2593              		.loc 1 230 9 view .LVU1035
 230:../Common/IQMath/ti/_IQNsqrt.c ****         
 2594              		.loc 1 230 21 is_stmt 0 view .LVU1036
 2595 0064 ACF10803 		sub	r3, ip, #8
 2596              	.LVL305:
 233:../Common/IQMath/ti/_IQNsqrt.c ****             if (i16Exponent > 0) {
 2597              		.loc 1 233 9 is_stmt 1 view .LVU1037
 240:../Common/IQMath/ti/_IQNsqrt.c ****             if (i16Exponent > 0) {
 2598              		.loc 1 240 9 view .LVU1038
 265:../Common/IQMath/ti/_IQNsqrt.c ****         return 0;
 2599              		.loc 1 265 5 view .LVU1039
 265:../Common/IQMath/ti/_IQNsqrt.c ****         return 0;
 2600              		.loc 1 265 8 is_stmt 0 view .LVU1040
 2601 0068 13F11F0F 		cmn	r3, #31
 2602 006c 15DB     		blt	.L177
 268:../Common/IQMath/ti/_IQNsqrt.c ****         uiq31Result >>= 16;
 2603              		.loc 1 268 5 is_stmt 1 view .LVU1041
 268:../Common/IQMath/ti/_IQNsqrt.c ****         uiq31Result >>= 16;
 2604              		.loc 1 268 8 is_stmt 0 view .LVU1042
 2605 006e 13F10F0F 		cmn	r3, #15
 2606 0072 01DA     		bge	.L171
 269:../Common/IQMath/ti/_IQNsqrt.c ****         i16Exponent += 16;
ARM GAS  C:\Users\57308\AppData\Local\Temp\ccWnCQ57.s 			page 74


 2607              		.loc 1 269 9 is_stmt 1 view .LVU1043
 269:../Common/IQMath/ti/_IQNsqrt.c ****         i16Exponent += 16;
 2608              		.loc 1 269 21 is_stmt 0 view .LVU1044
 2609 0074 000C     		lsrs	r0, r0, #16
 2610              	.LVL306:
 270:../Common/IQMath/ti/_IQNsqrt.c ****     }
 2611              		.loc 1 270 9 is_stmt 1 view .LVU1045
 270:../Common/IQMath/ti/_IQNsqrt.c ****     }
 2612              		.loc 1 270 21 is_stmt 0 view .LVU1046
 2613 0076 1033     		adds	r3, r3, #16
 2614              	.LVL307:
 2615              	.L171:
 272:../Common/IQMath/ti/_IQNsqrt.c ****         uiq31Result >>= 8;
 2616              		.loc 1 272 5 is_stmt 1 view .LVU1047
 272:../Common/IQMath/ti/_IQNsqrt.c ****         uiq31Result >>= 8;
 2617              		.loc 1 272 8 is_stmt 0 view .LVU1048
 2618 0078 13F1070F 		cmn	r3, #7
 2619 007c 01DA     		bge	.L173
 273:../Common/IQMath/ti/_IQNsqrt.c ****         i16Exponent += 8;
 2620              		.loc 1 273 9 is_stmt 1 view .LVU1049
 273:../Common/IQMath/ti/_IQNsqrt.c ****         i16Exponent += 8;
 2621              		.loc 1 273 21 is_stmt 0 view .LVU1050
 2622 007e 000A     		lsrs	r0, r0, #8
 2623              	.LVL308:
 274:../Common/IQMath/ti/_IQNsqrt.c ****     }
 2624              		.loc 1 274 9 is_stmt 1 view .LVU1051
 274:../Common/IQMath/ti/_IQNsqrt.c ****     }
 2625              		.loc 1 274 21 is_stmt 0 view .LVU1052
 2626 0080 0833     		adds	r3, r3, #8
 2627              	.LVL309:
 2628              	.L173:
 276:../Common/IQMath/ti/_IQNsqrt.c ****         uiq31Result >>= 1;
 2629              		.loc 1 276 11 is_stmt 1 view .LVU1053
 2630 0082 B3F1FF3F 		cmp	r3, #-1
 2631 0086 02DA     		bge	.L182
 277:../Common/IQMath/ti/_IQNsqrt.c ****         i16Exponent++;
 2632              		.loc 1 277 9 view .LVU1054
 277:../Common/IQMath/ti/_IQNsqrt.c ****         i16Exponent++;
 2633              		.loc 1 277 21 is_stmt 0 view .LVU1055
 2634 0088 4008     		lsrs	r0, r0, #1
 2635              	.LVL310:
 278:../Common/IQMath/ti/_IQNsqrt.c ****     }
 2636              		.loc 1 278 9 is_stmt 1 view .LVU1056
 278:../Common/IQMath/ti/_IQNsqrt.c ****     }
 2637              		.loc 1 278 20 is_stmt 0 view .LVU1057
 2638 008a 0133     		adds	r3, r3, #1
 2639              	.LVL311:
 278:../Common/IQMath/ti/_IQNsqrt.c ****     }
 2640              		.loc 1 278 20 view .LVU1058
 2641 008c F9E7     		b	.L173
 2642              	.L182:
 280:../Common/IQMath/ti/_IQNsqrt.c ****         uiq31Result++;
 2643              		.loc 1 280 5 is_stmt 1 view .LVU1059
 280:../Common/IQMath/ti/_IQNsqrt.c ****         uiq31Result++;
 2644              		.loc 1 280 8 is_stmt 0 view .LVU1060
 2645 008e 2BB1     		cbz	r3, .L165
 281:../Common/IQMath/ti/_IQNsqrt.c ****         uiq31Result >>= 1;
ARM GAS  C:\Users\57308\AppData\Local\Temp\ccWnCQ57.s 			page 75


 2646              		.loc 1 281 9 is_stmt 1 view .LVU1061
 281:../Common/IQMath/ti/_IQNsqrt.c ****         uiq31Result >>= 1;
 2647              		.loc 1 281 20 is_stmt 0 view .LVU1062
 2648 0090 0130     		adds	r0, r0, #1
 2649              	.LVL312:
 282:../Common/IQMath/ti/_IQNsqrt.c ****     }        
 2650              		.loc 1 282 9 is_stmt 1 view .LVU1063
 282:../Common/IQMath/ti/_IQNsqrt.c ****     }        
 2651              		.loc 1 282 21 is_stmt 0 view .LVU1064
 2652 0092 4008     		lsrs	r0, r0, #1
 2653              	.LVL313:
 285:../Common/IQMath/ti/_IQNsqrt.c **** }
 2654              		.loc 1 285 5 is_stmt 1 view .LVU1065
 285:../Common/IQMath/ti/_IQNsqrt.c **** }
 2655              		.loc 1 285 12 is_stmt 0 view .LVU1066
 2656 0094 02E0     		b	.L165
 2657              	.LVL314:
 2658              	.L176:
 2659              	.LCFI25:
 2660              		.cfi_def_cfa_offset 0
 2661              		.cfi_restore 4
 2662              		.cfi_restore 14
 129:../Common/IQMath/ti/_IQNsqrt.c ****         }
 2663              		.loc 1 129 20 view .LVU1067
 2664 0096 0020     		movs	r0, #0
 2665              	.LVL315:
 129:../Common/IQMath/ti/_IQNsqrt.c ****         }
 2666              		.loc 1 129 20 view .LVU1068
 2667              	.LBE316:
 2668              	.LBE320:
 462:../Common/IQMath/ti/_IQNsqrt.c **** }
 2669              		.loc 1 462 1 view .LVU1069
 2670 0098 7047     		bx	lr
 2671              	.LVL316:
 2672              	.L177:
 2673              	.LCFI26:
 2674              		.cfi_def_cfa_offset 8
 2675              		.cfi_offset 4, -8
 2676              		.cfi_offset 14, -4
 2677              	.LBB321:
 2678              	.LBB317:
 266:../Common/IQMath/ti/_IQNsqrt.c ****     }
 2679              		.loc 1 266 16 view .LVU1070
 2680 009a 0020     		movs	r0, #0
 2681              	.LVL317:
 2682              	.L165:
 266:../Common/IQMath/ti/_IQNsqrt.c ****     }
 2683              		.loc 1 266 16 view .LVU1071
 2684              	.LBE317:
 2685              	.LBE321:
 2686              		.loc 1 462 1 view .LVU1072
 2687 009c 10BD     		pop	{r4, pc}
 2688              	.L184:
 2689 009e 00BF     		.align	2
 2690              	.L183:
 2691 00a0 00000000 		.word	_IQ14sqrt_lookup
 2692              		.cfi_endproc
ARM GAS  C:\Users\57308\AppData\Local\Temp\ccWnCQ57.s 			page 76


 2693              	.LFE270:
 2695              		.section	.text._IQ22sqrt,"ax",%progbits
 2696              		.align	1
 2697              		.global	_IQ22sqrt
 2698              		.syntax unified
 2699              		.thumb
 2700              		.thumb_func
 2702              	_IQ22sqrt:
 2703              	.LVL318:
 2704              	.LFB271:
 463:../Common/IQMath/ti/_IQNsqrt.c **** /**
 464:../Common/IQMath/ti/_IQNsqrt.c ****  * @brief Calculate square root of an IQ22 input.
 465:../Common/IQMath/ti/_IQNsqrt.c ****  *
 466:../Common/IQMath/ti/_IQNsqrt.c ****  * @param a                 IQ22 type input.
 467:../Common/IQMath/ti/_IQNsqrt.c ****  *
 468:../Common/IQMath/ti/_IQNsqrt.c ****  * @return                  IQ22 type result of the square root operation.
 469:../Common/IQMath/ti/_IQNsqrt.c ****  */
 470:../Common/IQMath/ti/_IQNsqrt.c **** int32_t _IQ22sqrt(int32_t a)
 471:../Common/IQMath/ti/_IQNsqrt.c **** {
 2705              		.loc 1 471 1 is_stmt 1 view -0
 2706              		.cfi_startproc
 2707              		@ args = 0, pretend = 0, frame = 0
 2708              		@ frame_needed = 0, uses_anonymous_args = 0
 472:../Common/IQMath/ti/_IQNsqrt.c ****     return __IQNsqrt(a, 0, 22, TYPE_SQRT);
 2709              		.loc 1 472 5 view .LVU1074
 2710              	.LBB337:
 2711              	.LBI337:
  68:../Common/IQMath/ti/_IQNsqrt.c **** {
 2712              		.loc 1 68 30 view .LVU1075
 2713              	.LBB338:
  70:../Common/IQMath/ti/_IQNsqrt.c ****     uint8_t ui8Loops;
 2714              		.loc 1 70 5 view .LVU1076
  71:../Common/IQMath/ti/_IQNsqrt.c ****     int_fast16_t i16Exponent;
 2715              		.loc 1 71 5 view .LVU1077
  72:../Common/IQMath/ti/_IQNsqrt.c ****     uint_fast16_t ui16IntState;
 2716              		.loc 1 72 5 view .LVU1078
  73:../Common/IQMath/ti/_IQNsqrt.c ****     uint_fast16_t ui16MPYState;
 2717              		.loc 1 73 5 view .LVU1079
  74:../Common/IQMath/ti/_IQNsqrt.c ****     uint_fast32_t uiq30Guess;
 2718              		.loc 1 74 5 view .LVU1080
  75:../Common/IQMath/ti/_IQNsqrt.c ****     uint_fast32_t uiq30Result;
 2719              		.loc 1 75 5 view .LVU1081
  76:../Common/IQMath/ti/_IQNsqrt.c ****     uint_fast32_t uiq31Result;
 2720              		.loc 1 76 5 view .LVU1082
  77:../Common/IQMath/ti/_IQNsqrt.c ****     uint_fast32_t uiq32Input;
 2721              		.loc 1 77 5 view .LVU1083
  78:../Common/IQMath/ti/_IQNsqrt.c ****     
 2722              		.loc 1 78 5 view .LVU1084
  81:../Common/IQMath/ti/_IQNsqrt.c ****         uint_fast64_t ui64Sum;
 2723              		.loc 1 81 5 view .LVU1085
 128:../Common/IQMath/ti/_IQNsqrt.c ****             return 0;
 2724              		.loc 1 128 9 view .LVU1086
 128:../Common/IQMath/ti/_IQNsqrt.c ****             return 0;
 2725              		.loc 1 128 12 is_stmt 0 view .LVU1087
 2726 0000 0028     		cmp	r0, #0
 128:../Common/IQMath/ti/_IQNsqrt.c ****             return 0;
 2727              		.loc 1 128 12 view .LVU1088
ARM GAS  C:\Users\57308\AppData\Local\Temp\ccWnCQ57.s 			page 77


 2728 0002 47DD     		ble	.L196
 2729              	.LBE338:
 2730              	.LBE337:
 471:../Common/IQMath/ti/_IQNsqrt.c ****     return __IQNsqrt(a, 0, 22, TYPE_SQRT);
 2731              		.loc 1 471 1 view .LVU1089
 2732 0004 10B5     		push	{r4, lr}
 2733              	.LCFI27:
 2734              		.cfi_def_cfa_offset 8
 2735              		.cfi_offset 4, -8
 2736              		.cfi_offset 14, -4
 2737              	.LBB351:
 2738              	.LBB347:
 133:../Common/IQMath/ti/_IQNsqrt.c ****             iqNInputX <<= 1;
 2739              		.loc 1 133 9 is_stmt 1 view .LVU1090
 146:../Common/IQMath/ti/_IQNsqrt.c ****                 i16Exponent = (32 - q_value) >> 1;
 2740              		.loc 1 146 13 view .LVU1091
 147:../Common/IQMath/ti/_IQNsqrt.c ****             }
 2741              		.loc 1 147 17 view .LVU1092
 2742              	.LVL319:
 156:../Common/IQMath/ti/_IQNsqrt.c ****         
 2743              		.loc 1 156 9 view .LVU1093
 159:../Common/IQMath/ti/_IQNsqrt.c ****             uiq32Input <<= 2;
 2744              		.loc 1 159 9 view .LVU1094
 159:../Common/IQMath/ti/_IQNsqrt.c ****             uiq32Input <<= 2;
 2745              		.loc 1 159 15 is_stmt 0 view .LVU1095
 2746 0006 4FF0050C 		mov	ip, #5
 2747 000a 02E0     		b	.L187
 2748              	.LVL320:
 2749              	.L188:
 160:../Common/IQMath/ti/_IQNsqrt.c ****             /* Decrement exponent for sqrt and mag */
 2750              		.loc 1 160 13 is_stmt 1 view .LVU1096
 160:../Common/IQMath/ti/_IQNsqrt.c ****             /* Decrement exponent for sqrt and mag */
 2751              		.loc 1 160 24 is_stmt 0 view .LVU1097
 2752 000c 8000     		lsls	r0, r0, #2
 2753              	.LVL321:
 162:../Common/IQMath/ti/_IQNsqrt.c ****                 i16Exponent--;
 2754              		.loc 1 162 13 is_stmt 1 view .LVU1098
 163:../Common/IQMath/ti/_IQNsqrt.c ****             }
 2755              		.loc 1 163 17 view .LVU1099
 163:../Common/IQMath/ti/_IQNsqrt.c ****             }
 2756              		.loc 1 163 28 is_stmt 0 view .LVU1100
 2757 000e 0CF1FF3C 		add	ip, ip, #-1
 2758              	.LVL322:
 2759              	.L187:
 159:../Common/IQMath/ti/_IQNsqrt.c ****             uiq32Input <<= 2;
 2760              		.loc 1 159 15 is_stmt 1 view .LVU1101
 2761 0012 B0F1804F 		cmp	r0, #1073741824
 2762 0016 F9D3     		bcc	.L188
 174:../Common/IQMath/ti/_IQNsqrt.c ****     ui8Index -= 32;
 2763              		.loc 1 174 5 view .LVU1102
 174:../Common/IQMath/ti/_IQNsqrt.c ****     ui8Index -= 32;
 2764              		.loc 1 174 14 is_stmt 0 view .LVU1103
 2765 0018 430E     		lsrs	r3, r0, #25
 2766              	.LVL323:
 175:../Common/IQMath/ti/_IQNsqrt.c ****     uiq30Guess = (uint_fast32_t)_IQ14sqrt_lookup[ui8Index] << 16;
 2767              		.loc 1 175 5 is_stmt 1 view .LVU1104
 175:../Common/IQMath/ti/_IQNsqrt.c ****     uiq30Guess = (uint_fast32_t)_IQ14sqrt_lookup[ui8Index] << 16;
ARM GAS  C:\Users\57308\AppData\Local\Temp\ccWnCQ57.s 			page 78


 2768              		.loc 1 175 14 is_stmt 0 view .LVU1105
 2769 001a 203B     		subs	r3, r3, #32
 2770              	.LVL324:
 175:../Common/IQMath/ti/_IQNsqrt.c ****     uiq30Guess = (uint_fast32_t)_IQ14sqrt_lookup[ui8Index] << 16;
 2771              		.loc 1 175 14 view .LVU1106
 2772 001c DBB2     		uxtb	r3, r3
 2773              	.LVL325:
 176:../Common/IQMath/ti/_IQNsqrt.c ****     
 2774              		.loc 1 176 5 is_stmt 1 view .LVU1107
 176:../Common/IQMath/ti/_IQNsqrt.c ****     
 2775              		.loc 1 176 49 is_stmt 0 view .LVU1108
 2776 001e 1F4A     		ldr	r2, .L203
 2777 0020 52F82310 		ldr	r1, [r2, r3, lsl #2]
 176:../Common/IQMath/ti/_IQNsqrt.c ****     
 2778              		.loc 1 176 16 view .LVU1109
 2779 0024 0904     		lsls	r1, r1, #16
 2780              	.LVL326:
 184:../Common/IQMath/ti/_IQNsqrt.c ****     
 2781              		.loc 1 184 5 is_stmt 1 view .LVU1110
 184:../Common/IQMath/ti/_IQNsqrt.c ****     
 2782              		.loc 1 184 5 is_stmt 0 view .LVU1111
 2783              	.LBE347:
 2784              	.LBE351:
  28:../Common/IQMath/ti/./support/RTS_support.h **** }
 2785              		.loc 2 28 5 is_stmt 1 view .LVU1112
 2786              	.LBB352:
 2787              	.LBB348:
 192:../Common/IQMath/ti/_IQNsqrt.c ****         ui8Loops = 2;
 2788              		.loc 1 192 5 view .LVU1113
 176:../Common/IQMath/ti/_IQNsqrt.c ****     
 2789              		.loc 1 176 16 is_stmt 0 view .LVU1114
 2790 0026 0223     		movs	r3, #2
 2791              	.LVL327:
 176:../Common/IQMath/ti/_IQNsqrt.c ****     
 2792              		.loc 1 176 16 view .LVU1115
 2793 0028 11E0     		b	.L189
 2794              	.LVL328:
 2795              	.L190:
 202:../Common/IQMath/ti/_IQNsqrt.c ****         
 2796              		.loc 1 202 9 is_stmt 1 view .LVU1116
 2797              	.LBB339:
 2798              	.LBI339:
 254:../Common/IQMath/ti/./support/RTS_support.h **** {
 2799              		.loc 2 254 29 view .LVU1117
 2800              	.LBB340:
 2801              		.loc 2 256 5 view .LVU1118
 2802              		.loc 2 256 49 is_stmt 0 view .LVU1119
 2803 002a A0FB0124 		umull	r2, r4, r0, r1
 2804              		.loc 2 256 72 view .LVU1120
 2805 002e D30F     		lsrs	r3, r2, #31
 2806 0030 43EA4403 		orr	r3, r3, r4, lsl #1
 2807              	.LVL329:
 2808              		.loc 2 256 72 view .LVU1121
 2809              	.LBE340:
 2810              	.LBE339:
 205:../Common/IQMath/ti/_IQNsqrt.c ****         
 2811              		.loc 1 205 9 is_stmt 1 view .LVU1122
ARM GAS  C:\Users\57308\AppData\Local\Temp\ccWnCQ57.s 			page 79


 2812              	.LBB341:
 2813              	.LBI341:
 254:../Common/IQMath/ti/./support/RTS_support.h **** {
 2814              		.loc 2 254 29 view .LVU1123
 2815              	.LBB342:
 2816              		.loc 2 256 5 view .LVU1124
 2817              		.loc 2 256 49 is_stmt 0 view .LVU1125
 2818 0034 A3FB0132 		umull	r3, r2, r3, r1
 2819              	.LVL330:
 2820              		.loc 2 256 72 view .LVU1126
 2821 0038 DB0F     		lsrs	r3, r3, #31
 2822 003a 43EA4203 		orr	r3, r3, r2, lsl #1
 2823              	.LVL331:
 2824              		.loc 2 256 72 view .LVU1127
 2825              	.LBE342:
 2826              	.LBE341:
 208:../Common/IQMath/ti/_IQNsqrt.c ****         
 2827              		.loc 1 208 9 is_stmt 1 view .LVU1128
 208:../Common/IQMath/ti/_IQNsqrt.c ****         
 2828              		.loc 1 208 21 is_stmt 0 view .LVU1129
 2829 003e C3F14043 		rsb	r3, r3, #-1073741824
 2830              	.LVL332:
 214:../Common/IQMath/ti/_IQNsqrt.c ****     }
 2831              		.loc 1 214 9 is_stmt 1 view .LVU1130
 2832              	.LBB343:
 2833              	.LBI343:
 254:../Common/IQMath/ti/./support/RTS_support.h **** {
 2834              		.loc 2 254 29 view .LVU1131
 2835              	.LBB344:
 2836              		.loc 2 256 5 view .LVU1132
 2837              		.loc 2 256 49 is_stmt 0 view .LVU1133
 2838 0042 A1FB0331 		umull	r3, r1, r1, r3
 2839              	.LVL333:
 2840              		.loc 2 256 72 view .LVU1134
 2841 0046 DB0F     		lsrs	r3, r3, #31
 2842 0048 43EA4101 		orr	r1, r3, r1, lsl #1
 2843              	.LVL334:
 2844              		.loc 2 256 72 view .LVU1135
 2845              	.LBE344:
 2846              	.LBE343:
 200:../Common/IQMath/ti/_IQNsqrt.c ****         /* x*g */
 2847              		.loc 1 200 20 view .LVU1136
 2848 004c 7346     		mov	r3, lr
 2849              	.LVL335:
 2850              	.L189:
 200:../Common/IQMath/ti/_IQNsqrt.c ****         /* x*g */
 2851              		.loc 1 200 11 is_stmt 1 view .LVU1137
 200:../Common/IQMath/ti/_IQNsqrt.c ****         /* x*g */
 2852              		.loc 1 200 20 is_stmt 0 view .LVU1138
 2853 004e 5A1E     		subs	r2, r3, #1
 2854 0050 5FFA82FE 		uxtb	lr, r2
 2855              	.LVL336:
 200:../Common/IQMath/ti/_IQNsqrt.c ****         /* x*g */
 2856              		.loc 1 200 11 view .LVU1139
 2857 0054 002B     		cmp	r3, #0
 2858 0056 E8D1     		bne	.L190
 218:../Common/IQMath/ti/_IQNsqrt.c ****         /*
ARM GAS  C:\Users\57308\AppData\Local\Temp\ccWnCQ57.s 			page 80


 2859              		.loc 1 218 5 is_stmt 1 view .LVU1140
 223:../Common/IQMath/ti/_IQNsqrt.c ****     
 2860              		.loc 1 223 9 view .LVU1141
 2861              	.LVL337:
 2862              	.LBB345:
 2863              	.LBI345:
 254:../Common/IQMath/ti/./support/RTS_support.h **** {
 2864              		.loc 2 254 29 view .LVU1142
 2865              	.LBB346:
 2866              		.loc 2 256 5 view .LVU1143
 2867              		.loc 2 256 49 is_stmt 0 view .LVU1144
 2868 0058 A1FB0031 		umull	r3, r1, r1, r0
 2869              		.loc 2 256 72 view .LVU1145
 2870 005c D80F     		lsrs	r0, r3, #31
 2871              	.LVL338:
 2872              		.loc 2 256 72 view .LVU1146
 2873 005e 40EA4100 		orr	r0, r0, r1, lsl #1
 2874              	.LVL339:
 2875              		.loc 2 256 72 view .LVU1147
 2876              	.LBE346:
 2877              	.LBE345:
 225:../Common/IQMath/ti/_IQNsqrt.c ****     
 2878              		.loc 1 225 9 is_stmt 1 view .LVU1148
 225:../Common/IQMath/ti/_IQNsqrt.c ****     
 2879              		.loc 1 225 9 is_stmt 0 view .LVU1149
 2880              	.LBE348:
 2881              	.LBE352:
  72:../Common/IQMath/ti/./support/RTS_support.h **** }
 2882              		.loc 2 72 5 is_stmt 1 view .LVU1150
 2883              	.LBB353:
 2884              	.LBB349:
 230:../Common/IQMath/ti/_IQNsqrt.c ****         
 2885              		.loc 1 230 9 view .LVU1151
 230:../Common/IQMath/ti/_IQNsqrt.c ****         
 2886              		.loc 1 230 21 is_stmt 0 view .LVU1152
 2887 0062 ACF10903 		sub	r3, ip, #9
 2888              	.LVL340:
 233:../Common/IQMath/ti/_IQNsqrt.c ****             if (i16Exponent > 0) {
 2889              		.loc 1 233 9 is_stmt 1 view .LVU1153
 240:../Common/IQMath/ti/_IQNsqrt.c ****             if (i16Exponent > 0) {
 2890              		.loc 1 240 9 view .LVU1154
 265:../Common/IQMath/ti/_IQNsqrt.c ****         return 0;
 2891              		.loc 1 265 5 view .LVU1155
 265:../Common/IQMath/ti/_IQNsqrt.c ****         return 0;
 2892              		.loc 1 265 8 is_stmt 0 view .LVU1156
 2893 0066 13F11F0F 		cmn	r3, #31
 2894 006a 15DB     		blt	.L197
 268:../Common/IQMath/ti/_IQNsqrt.c ****         uiq31Result >>= 16;
 2895              		.loc 1 268 5 is_stmt 1 view .LVU1157
 268:../Common/IQMath/ti/_IQNsqrt.c ****         uiq31Result >>= 16;
 2896              		.loc 1 268 8 is_stmt 0 view .LVU1158
 2897 006c 13F10F0F 		cmn	r3, #15
 2898 0070 01DA     		bge	.L191
 269:../Common/IQMath/ti/_IQNsqrt.c ****         i16Exponent += 16;
 2899              		.loc 1 269 9 is_stmt 1 view .LVU1159
 269:../Common/IQMath/ti/_IQNsqrt.c ****         i16Exponent += 16;
 2900              		.loc 1 269 21 is_stmt 0 view .LVU1160
ARM GAS  C:\Users\57308\AppData\Local\Temp\ccWnCQ57.s 			page 81


 2901 0072 000C     		lsrs	r0, r0, #16
 2902              	.LVL341:
 270:../Common/IQMath/ti/_IQNsqrt.c ****     }
 2903              		.loc 1 270 9 is_stmt 1 view .LVU1161
 270:../Common/IQMath/ti/_IQNsqrt.c ****     }
 2904              		.loc 1 270 21 is_stmt 0 view .LVU1162
 2905 0074 1033     		adds	r3, r3, #16
 2906              	.LVL342:
 2907              	.L191:
 272:../Common/IQMath/ti/_IQNsqrt.c ****         uiq31Result >>= 8;
 2908              		.loc 1 272 5 is_stmt 1 view .LVU1163
 272:../Common/IQMath/ti/_IQNsqrt.c ****         uiq31Result >>= 8;
 2909              		.loc 1 272 8 is_stmt 0 view .LVU1164
 2910 0076 13F1070F 		cmn	r3, #7
 2911 007a 01DA     		bge	.L193
 273:../Common/IQMath/ti/_IQNsqrt.c ****         i16Exponent += 8;
 2912              		.loc 1 273 9 is_stmt 1 view .LVU1165
 273:../Common/IQMath/ti/_IQNsqrt.c ****         i16Exponent += 8;
 2913              		.loc 1 273 21 is_stmt 0 view .LVU1166
 2914 007c 000A     		lsrs	r0, r0, #8
 2915              	.LVL343:
 274:../Common/IQMath/ti/_IQNsqrt.c ****     }
 2916              		.loc 1 274 9 is_stmt 1 view .LVU1167
 274:../Common/IQMath/ti/_IQNsqrt.c ****     }
 2917              		.loc 1 274 21 is_stmt 0 view .LVU1168
 2918 007e 0833     		adds	r3, r3, #8
 2919              	.LVL344:
 2920              	.L193:
 276:../Common/IQMath/ti/_IQNsqrt.c ****         uiq31Result >>= 1;
 2921              		.loc 1 276 11 is_stmt 1 view .LVU1169
 2922 0080 B3F1FF3F 		cmp	r3, #-1
 2923 0084 02DA     		bge	.L202
 277:../Common/IQMath/ti/_IQNsqrt.c ****         i16Exponent++;
 2924              		.loc 1 277 9 view .LVU1170
 277:../Common/IQMath/ti/_IQNsqrt.c ****         i16Exponent++;
 2925              		.loc 1 277 21 is_stmt 0 view .LVU1171
 2926 0086 4008     		lsrs	r0, r0, #1
 2927              	.LVL345:
 278:../Common/IQMath/ti/_IQNsqrt.c ****     }
 2928              		.loc 1 278 9 is_stmt 1 view .LVU1172
 278:../Common/IQMath/ti/_IQNsqrt.c ****     }
 2929              		.loc 1 278 20 is_stmt 0 view .LVU1173
 2930 0088 0133     		adds	r3, r3, #1
 2931              	.LVL346:
 278:../Common/IQMath/ti/_IQNsqrt.c ****     }
 2932              		.loc 1 278 20 view .LVU1174
 2933 008a F9E7     		b	.L193
 2934              	.L202:
 280:../Common/IQMath/ti/_IQNsqrt.c ****         uiq31Result++;
 2935              		.loc 1 280 5 is_stmt 1 view .LVU1175
 280:../Common/IQMath/ti/_IQNsqrt.c ****         uiq31Result++;
 2936              		.loc 1 280 8 is_stmt 0 view .LVU1176
 2937 008c 2BB1     		cbz	r3, .L185
 281:../Common/IQMath/ti/_IQNsqrt.c ****         uiq31Result >>= 1;
 2938              		.loc 1 281 9 is_stmt 1 view .LVU1177
 281:../Common/IQMath/ti/_IQNsqrt.c ****         uiq31Result >>= 1;
 2939              		.loc 1 281 20 is_stmt 0 view .LVU1178
ARM GAS  C:\Users\57308\AppData\Local\Temp\ccWnCQ57.s 			page 82


 2940 008e 0130     		adds	r0, r0, #1
 2941              	.LVL347:
 282:../Common/IQMath/ti/_IQNsqrt.c ****     }        
 2942              		.loc 1 282 9 is_stmt 1 view .LVU1179
 282:../Common/IQMath/ti/_IQNsqrt.c ****     }        
 2943              		.loc 1 282 21 is_stmt 0 view .LVU1180
 2944 0090 4008     		lsrs	r0, r0, #1
 2945              	.LVL348:
 285:../Common/IQMath/ti/_IQNsqrt.c **** }
 2946              		.loc 1 285 5 is_stmt 1 view .LVU1181
 285:../Common/IQMath/ti/_IQNsqrt.c **** }
 2947              		.loc 1 285 12 is_stmt 0 view .LVU1182
 2948 0092 02E0     		b	.L185
 2949              	.LVL349:
 2950              	.L196:
 2951              	.LCFI28:
 2952              		.cfi_def_cfa_offset 0
 2953              		.cfi_restore 4
 2954              		.cfi_restore 14
 129:../Common/IQMath/ti/_IQNsqrt.c ****         }
 2955              		.loc 1 129 20 view .LVU1183
 2956 0094 0020     		movs	r0, #0
 2957              	.LVL350:
 129:../Common/IQMath/ti/_IQNsqrt.c ****         }
 2958              		.loc 1 129 20 view .LVU1184
 2959              	.LBE349:
 2960              	.LBE353:
 473:../Common/IQMath/ti/_IQNsqrt.c **** }
 2961              		.loc 1 473 1 view .LVU1185
 2962 0096 7047     		bx	lr
 2963              	.LVL351:
 2964              	.L197:
 2965              	.LCFI29:
 2966              		.cfi_def_cfa_offset 8
 2967              		.cfi_offset 4, -8
 2968              		.cfi_offset 14, -4
 2969              	.LBB354:
 2970              	.LBB350:
 266:../Common/IQMath/ti/_IQNsqrt.c ****     }
 2971              		.loc 1 266 16 view .LVU1186
 2972 0098 0020     		movs	r0, #0
 2973              	.LVL352:
 2974              	.L185:
 266:../Common/IQMath/ti/_IQNsqrt.c ****     }
 2975              		.loc 1 266 16 view .LVU1187
 2976              	.LBE350:
 2977              	.LBE354:
 2978              		.loc 1 473 1 view .LVU1188
 2979 009a 10BD     		pop	{r4, pc}
 2980              	.L204:
 2981              		.align	2
 2982              	.L203:
 2983 009c 00000000 		.word	_IQ14sqrt_lookup
 2984              		.cfi_endproc
 2985              	.LFE271:
 2987              		.section	.text._IQ21sqrt,"ax",%progbits
 2988              		.align	1
ARM GAS  C:\Users\57308\AppData\Local\Temp\ccWnCQ57.s 			page 83


 2989              		.global	_IQ21sqrt
 2990              		.syntax unified
 2991              		.thumb
 2992              		.thumb_func
 2994              	_IQ21sqrt:
 2995              	.LVL353:
 2996              	.LFB272:
 474:../Common/IQMath/ti/_IQNsqrt.c **** /**
 475:../Common/IQMath/ti/_IQNsqrt.c ****  * @brief Calculate square root of an IQ21 input.
 476:../Common/IQMath/ti/_IQNsqrt.c ****  *
 477:../Common/IQMath/ti/_IQNsqrt.c ****  * @param a                 IQ21 type input.
 478:../Common/IQMath/ti/_IQNsqrt.c ****  *
 479:../Common/IQMath/ti/_IQNsqrt.c ****  * @return                  IQ21 type result of the square root operation.
 480:../Common/IQMath/ti/_IQNsqrt.c ****  */
 481:../Common/IQMath/ti/_IQNsqrt.c **** int32_t _IQ21sqrt(int32_t a)
 482:../Common/IQMath/ti/_IQNsqrt.c **** {
 2997              		.loc 1 482 1 is_stmt 1 view -0
 2998              		.cfi_startproc
 2999              		@ args = 0, pretend = 0, frame = 0
 3000              		@ frame_needed = 0, uses_anonymous_args = 0
 483:../Common/IQMath/ti/_IQNsqrt.c ****     return __IQNsqrt(a, 0, 21, TYPE_SQRT);
 3001              		.loc 1 483 5 view .LVU1190
 3002              	.LBB370:
 3003              	.LBI370:
  68:../Common/IQMath/ti/_IQNsqrt.c **** {
 3004              		.loc 1 68 30 view .LVU1191
 3005              	.LBB371:
  70:../Common/IQMath/ti/_IQNsqrt.c ****     uint8_t ui8Loops;
 3006              		.loc 1 70 5 view .LVU1192
  71:../Common/IQMath/ti/_IQNsqrt.c ****     int_fast16_t i16Exponent;
 3007              		.loc 1 71 5 view .LVU1193
  72:../Common/IQMath/ti/_IQNsqrt.c ****     uint_fast16_t ui16IntState;
 3008              		.loc 1 72 5 view .LVU1194
  73:../Common/IQMath/ti/_IQNsqrt.c ****     uint_fast16_t ui16MPYState;
 3009              		.loc 1 73 5 view .LVU1195
  74:../Common/IQMath/ti/_IQNsqrt.c ****     uint_fast32_t uiq30Guess;
 3010              		.loc 1 74 5 view .LVU1196
  75:../Common/IQMath/ti/_IQNsqrt.c ****     uint_fast32_t uiq30Result;
 3011              		.loc 1 75 5 view .LVU1197
  76:../Common/IQMath/ti/_IQNsqrt.c ****     uint_fast32_t uiq31Result;
 3012              		.loc 1 76 5 view .LVU1198
  77:../Common/IQMath/ti/_IQNsqrt.c ****     uint_fast32_t uiq32Input;
 3013              		.loc 1 77 5 view .LVU1199
  78:../Common/IQMath/ti/_IQNsqrt.c ****     
 3014              		.loc 1 78 5 view .LVU1200
  81:../Common/IQMath/ti/_IQNsqrt.c ****         uint_fast64_t ui64Sum;
 3015              		.loc 1 81 5 view .LVU1201
 128:../Common/IQMath/ti/_IQNsqrt.c ****             return 0;
 3016              		.loc 1 128 9 view .LVU1202
 128:../Common/IQMath/ti/_IQNsqrt.c ****             return 0;
 3017              		.loc 1 128 12 is_stmt 0 view .LVU1203
 3018 0000 0028     		cmp	r0, #0
 128:../Common/IQMath/ti/_IQNsqrt.c ****             return 0;
 3019              		.loc 1 128 12 view .LVU1204
 3020 0002 48DD     		ble	.L216
 3021              	.LBE371:
 3022              	.LBE370:
ARM GAS  C:\Users\57308\AppData\Local\Temp\ccWnCQ57.s 			page 84


 482:../Common/IQMath/ti/_IQNsqrt.c ****     return __IQNsqrt(a, 0, 21, TYPE_SQRT);
 3023              		.loc 1 482 1 view .LVU1205
 3024 0004 10B5     		push	{r4, lr}
 3025              	.LCFI30:
 3026              		.cfi_def_cfa_offset 8
 3027              		.cfi_offset 4, -8
 3028              		.cfi_offset 14, -4
 3029              	.LBB384:
 3030              	.LBB380:
 133:../Common/IQMath/ti/_IQNsqrt.c ****             iqNInputX <<= 1;
 3031              		.loc 1 133 9 is_stmt 1 view .LVU1206
 134:../Common/IQMath/ti/_IQNsqrt.c ****             /* Start with positive exponent for sqrt */
 3032              		.loc 1 134 13 view .LVU1207
 134:../Common/IQMath/ti/_IQNsqrt.c ****             /* Start with positive exponent for sqrt */
 3033              		.loc 1 134 23 is_stmt 0 view .LVU1208
 3034 0006 4000     		lsls	r0, r0, #1
 3035              	.LVL354:
 136:../Common/IQMath/ti/_IQNsqrt.c ****                 i16Exponent = ((32 - q_value) - 1) >> 1;
 3036              		.loc 1 136 13 is_stmt 1 view .LVU1209
 137:../Common/IQMath/ti/_IQNsqrt.c ****             }
 3037              		.loc 1 137 17 view .LVU1210
 156:../Common/IQMath/ti/_IQNsqrt.c ****         
 3038              		.loc 1 156 9 view .LVU1211
 159:../Common/IQMath/ti/_IQNsqrt.c ****             uiq32Input <<= 2;
 3039              		.loc 1 159 9 view .LVU1212
 159:../Common/IQMath/ti/_IQNsqrt.c ****             uiq32Input <<= 2;
 3040              		.loc 1 159 15 is_stmt 0 view .LVU1213
 3041 0008 4FF0050C 		mov	ip, #5
 3042 000c 02E0     		b	.L207
 3043              	.LVL355:
 3044              	.L208:
 160:../Common/IQMath/ti/_IQNsqrt.c ****             /* Decrement exponent for sqrt and mag */
 3045              		.loc 1 160 13 is_stmt 1 view .LVU1214
 160:../Common/IQMath/ti/_IQNsqrt.c ****             /* Decrement exponent for sqrt and mag */
 3046              		.loc 1 160 24 is_stmt 0 view .LVU1215
 3047 000e 8000     		lsls	r0, r0, #2
 3048              	.LVL356:
 162:../Common/IQMath/ti/_IQNsqrt.c ****                 i16Exponent--;
 3049              		.loc 1 162 13 is_stmt 1 view .LVU1216
 163:../Common/IQMath/ti/_IQNsqrt.c ****             }
 3050              		.loc 1 163 17 view .LVU1217
 163:../Common/IQMath/ti/_IQNsqrt.c ****             }
 3051              		.loc 1 163 28 is_stmt 0 view .LVU1218
 3052 0010 0CF1FF3C 		add	ip, ip, #-1
 3053              	.LVL357:
 3054              	.L207:
 159:../Common/IQMath/ti/_IQNsqrt.c ****             uiq32Input <<= 2;
 3055              		.loc 1 159 15 is_stmt 1 view .LVU1219
 3056 0014 B0F1804F 		cmp	r0, #1073741824
 3057 0018 F9D3     		bcc	.L208
 174:../Common/IQMath/ti/_IQNsqrt.c ****     ui8Index -= 32;
 3058              		.loc 1 174 5 view .LVU1220
 174:../Common/IQMath/ti/_IQNsqrt.c ****     ui8Index -= 32;
 3059              		.loc 1 174 14 is_stmt 0 view .LVU1221
 3060 001a 430E     		lsrs	r3, r0, #25
 3061              	.LVL358:
 175:../Common/IQMath/ti/_IQNsqrt.c ****     uiq30Guess = (uint_fast32_t)_IQ14sqrt_lookup[ui8Index] << 16;
ARM GAS  C:\Users\57308\AppData\Local\Temp\ccWnCQ57.s 			page 85


 3062              		.loc 1 175 5 is_stmt 1 view .LVU1222
 175:../Common/IQMath/ti/_IQNsqrt.c ****     uiq30Guess = (uint_fast32_t)_IQ14sqrt_lookup[ui8Index] << 16;
 3063              		.loc 1 175 14 is_stmt 0 view .LVU1223
 3064 001c 203B     		subs	r3, r3, #32
 3065              	.LVL359:
 175:../Common/IQMath/ti/_IQNsqrt.c ****     uiq30Guess = (uint_fast32_t)_IQ14sqrt_lookup[ui8Index] << 16;
 3066              		.loc 1 175 14 view .LVU1224
 3067 001e DBB2     		uxtb	r3, r3
 3068              	.LVL360:
 176:../Common/IQMath/ti/_IQNsqrt.c ****     
 3069              		.loc 1 176 5 is_stmt 1 view .LVU1225
 176:../Common/IQMath/ti/_IQNsqrt.c ****     
 3070              		.loc 1 176 49 is_stmt 0 view .LVU1226
 3071 0020 1F4A     		ldr	r2, .L223
 3072 0022 52F82310 		ldr	r1, [r2, r3, lsl #2]
 176:../Common/IQMath/ti/_IQNsqrt.c ****     
 3073              		.loc 1 176 16 view .LVU1227
 3074 0026 0904     		lsls	r1, r1, #16
 3075              	.LVL361:
 184:../Common/IQMath/ti/_IQNsqrt.c ****     
 3076              		.loc 1 184 5 is_stmt 1 view .LVU1228
 184:../Common/IQMath/ti/_IQNsqrt.c ****     
 3077              		.loc 1 184 5 is_stmt 0 view .LVU1229
 3078              	.LBE380:
 3079              	.LBE384:
  28:../Common/IQMath/ti/./support/RTS_support.h **** }
 3080              		.loc 2 28 5 is_stmt 1 view .LVU1230
 3081              	.LBB385:
 3082              	.LBB381:
 192:../Common/IQMath/ti/_IQNsqrt.c ****         ui8Loops = 2;
 3083              		.loc 1 192 5 view .LVU1231
 176:../Common/IQMath/ti/_IQNsqrt.c ****     
 3084              		.loc 1 176 16 is_stmt 0 view .LVU1232
 3085 0028 0223     		movs	r3, #2
 3086              	.LVL362:
 176:../Common/IQMath/ti/_IQNsqrt.c ****     
 3087              		.loc 1 176 16 view .LVU1233
 3088 002a 11E0     		b	.L209
 3089              	.LVL363:
 3090              	.L210:
 202:../Common/IQMath/ti/_IQNsqrt.c ****         
 3091              		.loc 1 202 9 is_stmt 1 view .LVU1234
 3092              	.LBB372:
 3093              	.LBI372:
 254:../Common/IQMath/ti/./support/RTS_support.h **** {
 3094              		.loc 2 254 29 view .LVU1235
 3095              	.LBB373:
 3096              		.loc 2 256 5 view .LVU1236
 3097              		.loc 2 256 49 is_stmt 0 view .LVU1237
 3098 002c A0FB0124 		umull	r2, r4, r0, r1
 3099              		.loc 2 256 72 view .LVU1238
 3100 0030 D30F     		lsrs	r3, r2, #31
 3101 0032 43EA4403 		orr	r3, r3, r4, lsl #1
 3102              	.LVL364:
 3103              		.loc 2 256 72 view .LVU1239
 3104              	.LBE373:
 3105              	.LBE372:
ARM GAS  C:\Users\57308\AppData\Local\Temp\ccWnCQ57.s 			page 86


 205:../Common/IQMath/ti/_IQNsqrt.c ****         
 3106              		.loc 1 205 9 is_stmt 1 view .LVU1240
 3107              	.LBB374:
 3108              	.LBI374:
 254:../Common/IQMath/ti/./support/RTS_support.h **** {
 3109              		.loc 2 254 29 view .LVU1241
 3110              	.LBB375:
 3111              		.loc 2 256 5 view .LVU1242
 3112              		.loc 2 256 49 is_stmt 0 view .LVU1243
 3113 0036 A3FB0132 		umull	r3, r2, r3, r1
 3114              	.LVL365:
 3115              		.loc 2 256 72 view .LVU1244
 3116 003a DB0F     		lsrs	r3, r3, #31
 3117 003c 43EA4203 		orr	r3, r3, r2, lsl #1
 3118              	.LVL366:
 3119              		.loc 2 256 72 view .LVU1245
 3120              	.LBE375:
 3121              	.LBE374:
 208:../Common/IQMath/ti/_IQNsqrt.c ****         
 3122              		.loc 1 208 9 is_stmt 1 view .LVU1246
 208:../Common/IQMath/ti/_IQNsqrt.c ****         
 3123              		.loc 1 208 21 is_stmt 0 view .LVU1247
 3124 0040 C3F14043 		rsb	r3, r3, #-1073741824
 3125              	.LVL367:
 214:../Common/IQMath/ti/_IQNsqrt.c ****     }
 3126              		.loc 1 214 9 is_stmt 1 view .LVU1248
 3127              	.LBB376:
 3128              	.LBI376:
 254:../Common/IQMath/ti/./support/RTS_support.h **** {
 3129              		.loc 2 254 29 view .LVU1249
 3130              	.LBB377:
 3131              		.loc 2 256 5 view .LVU1250
 3132              		.loc 2 256 49 is_stmt 0 view .LVU1251
 3133 0044 A1FB0331 		umull	r3, r1, r1, r3
 3134              	.LVL368:
 3135              		.loc 2 256 72 view .LVU1252
 3136 0048 DB0F     		lsrs	r3, r3, #31
 3137 004a 43EA4101 		orr	r1, r3, r1, lsl #1
 3138              	.LVL369:
