ARM GAS  C:\Users\57308\AppData\Local\Temp\ccyuPR38.s 			page 1


   1              		.cpu cortex-m4
   2              		.arch armv7e-m
   3              		.fpu fpv4-sp-d16
   4              		.eabi_attribute 27, 1
   5              		.eabi_attribute 28, 1
   6              		.eabi_attribute 20, 1
   7              		.eabi_attribute 21, 1
   8              		.eabi_attribute 23, 3
   9              		.eabi_attribute 24, 1
  10              		.eabi_attribute 25, 1
  11              		.eabi_attribute 26, 1
  12              		.eabi_attribute 30, 1
  13              		.eabi_attribute 34, 1
  14              		.eabi_attribute 18, 4
  15              		.file	"_IQNexp.c"
  16              		.text
  17              	.Ltext0:
  18              		.cfi_sections	.debug_frame
  19              		.section	.text._IQ30exp,"ax",%progbits
  20              		.align	1
  21              		.global	_IQ30exp
  22              		.syntax unified
  23              		.thumb
  24              		.thumb_func
  26              	_IQ30exp:
  27              	.LVL0:
  28              	.LFB262:
  29              		.file 1 "../Common/IQMath/ti/_IQNexp.c"
   1:../Common/IQMath/ti/_IQNexp.c **** /*!****************************************************************************
   2:../Common/IQMath/ti/_IQNexp.c ****  *  @file       _IQNexp.c
   3:../Common/IQMath/ti/_IQNexp.c ****  *  @brief      Functions to compute the exponential of the input 
   4:../Common/IQMath/ti/_IQNexp.c ****  *              and return the result.
   5:../Common/IQMath/ti/_IQNexp.c ****  *
   6:../Common/IQMath/ti/_IQNexp.c ****  *  <hr>
   7:../Common/IQMath/ti/_IQNexp.c ****  ******************************************************************************/
   8:../Common/IQMath/ti/_IQNexp.c **** 
   9:../Common/IQMath/ti/_IQNexp.c **** #include <stdint.h>
  10:../Common/IQMath/ti/_IQNexp.c **** 
  11:../Common/IQMath/ti/_IQNexp.c **** #include "./support/support.h"
  12:../Common/IQMath/ti/_IQNexp.c **** #include "_IQNtables.h"
  13:../Common/IQMath/ti/_IQNexp.c **** 
  14:../Common/IQMath/ti/_IQNexp.c **** /**
  15:../Common/IQMath/ti/_IQNexp.c ****  * @brief Computes the exponential of an IQN input.
  16:../Common/IQMath/ti/_IQNexp.c ****  *
  17:../Common/IQMath/ti/_IQNexp.c ****  * @param iqNInput          IQN type input.
  18:../Common/IQMath/ti/_IQNexp.c ****  * @param iqNLookupTable    Integer result lookup table. 
  19:../Common/IQMath/ti/_IQNexp.c ****  * @param ui8IntegerOffset  Integer portion offset
  20:../Common/IQMath/ti/_IQNexp.c ****  * @param iqN_MIN           Minimum parameter value.
  21:../Common/IQMath/ti/_IQNexp.c ****  * @param iqN_MAX           Maximum parameter value.
  22:../Common/IQMath/ti/_IQNexp.c ****  * @param q_value           IQ format.
  23:../Common/IQMath/ti/_IQNexp.c ****  *
  24:../Common/IQMath/ti/_IQNexp.c ****  * 
  25:../Common/IQMath/ti/_IQNexp.c ****  * @return                  IQN type result of exponential.
  26:../Common/IQMath/ti/_IQNexp.c ****  */
  27:../Common/IQMath/ti/_IQNexp.c **** #if defined (__TI_COMPILER_VERSION__)
  28:../Common/IQMath/ti/_IQNexp.c ****     #pragma FUNC_ALWAYS_INLINE(__IQNexp)
  29:../Common/IQMath/ti/_IQNexp.c **** #elif defined(__IAR_SYSTEMS_ICC__)
ARM GAS  C:\Users\57308\AppData\Local\Temp\ccyuPR38.s 			page 2


  30:../Common/IQMath/ti/_IQNexp.c ****     #pragma inline=forced
  31:../Common/IQMath/ti/_IQNexp.c **** #endif
  32:../Common/IQMath/ti/_IQNexp.c **** __STATIC_INLINE int_fast32_t __IQNexp(int_fast32_t iqNInput, const uint_fast32_t *iqNLookupTable, u
  33:../Common/IQMath/ti/_IQNexp.c **** {
  34:../Common/IQMath/ti/_IQNexp.c ****     uint8_t ui8Count;
  35:../Common/IQMath/ti/_IQNexp.c ****     int_fast16_t i16Integer;
  36:../Common/IQMath/ti/_IQNexp.c ****     uint_fast16_t ui16IntState;
  37:../Common/IQMath/ti/_IQNexp.c ****     uint_fast16_t ui16MPYState;
  38:../Common/IQMath/ti/_IQNexp.c ****     int_fast32_t iq31Fractional;
  39:../Common/IQMath/ti/_IQNexp.c ****     uint_fast32_t uiqNResult;
  40:../Common/IQMath/ti/_IQNexp.c ****     uint_fast32_t uiqNIntegerResult;
  41:../Common/IQMath/ti/_IQNexp.c ****     uint_fast32_t uiq30FractionalResult;
  42:../Common/IQMath/ti/_IQNexp.c ****     uint_fast32_t uiq31FractionalResult;
  43:../Common/IQMath/ti/_IQNexp.c ****     const uint_fast32_t *piq30Coeffs;
  44:../Common/IQMath/ti/_IQNexp.c ****     
  45:../Common/IQMath/ti/_IQNexp.c ****     /* Input is negative. */
  46:../Common/IQMath/ti/_IQNexp.c ****     if (iqNInput < 0) {
  47:../Common/IQMath/ti/_IQNexp.c ****         /* Check for the minimum value. */
  48:../Common/IQMath/ti/_IQNexp.c ****         if (iqNInput < iqN_MIN) {
  49:../Common/IQMath/ti/_IQNexp.c ****             return 0;
  50:../Common/IQMath/ti/_IQNexp.c ****         }
  51:../Common/IQMath/ti/_IQNexp.c ****         
  52:../Common/IQMath/ti/_IQNexp.c ****         /* Extract the fractional portion in iq31 and set sign bit. */
  53:../Common/IQMath/ti/_IQNexp.c ****         iq31Fractional = iqNInput;
  54:../Common/IQMath/ti/_IQNexp.c ****         iq31Fractional <<= (31 - q_value);
  55:../Common/IQMath/ti/_IQNexp.c ****         iq31Fractional |= 0x80000000;
  56:../Common/IQMath/ti/_IQNexp.c ****     
  57:../Common/IQMath/ti/_IQNexp.c ****         /* Extract the integer portion. */
  58:../Common/IQMath/ti/_IQNexp.c ****         i16Integer = (int_fast16_t)(iqNInput >> q_value) + 1;
  59:../Common/IQMath/ti/_IQNexp.c ****     
  60:../Common/IQMath/ti/_IQNexp.c ****         /* Offset the integer portion and lookup the integer result. */
  61:../Common/IQMath/ti/_IQNexp.c ****         i16Integer += ui8IntegerOffset;
  62:../Common/IQMath/ti/_IQNexp.c ****         uiqNIntegerResult = iqNLookupTable[i16Integer];
  63:../Common/IQMath/ti/_IQNexp.c ****         
  64:../Common/IQMath/ti/_IQNexp.c ****         /* Reduce the fractional portion to -ln(2) < iq31Fractional < 0 */
  65:../Common/IQMath/ti/_IQNexp.c ****         if (iq31Fractional <= -iq31_ln2) {
  66:../Common/IQMath/ti/_IQNexp.c ****             iq31Fractional += iq31_ln2;
  67:../Common/IQMath/ti/_IQNexp.c ****             uiqNIntegerResult >>= 1;
  68:../Common/IQMath/ti/_IQNexp.c ****         }
  69:../Common/IQMath/ti/_IQNexp.c ****     }
  70:../Common/IQMath/ti/_IQNexp.c ****     /* Input is positive. */
  71:../Common/IQMath/ti/_IQNexp.c ****     else {
  72:../Common/IQMath/ti/_IQNexp.c ****         /* Check for the maximum value. */
  73:../Common/IQMath/ti/_IQNexp.c ****         if (iqNInput > iqN_MAX) {
  74:../Common/IQMath/ti/_IQNexp.c ****             return INT32_MAX;
  75:../Common/IQMath/ti/_IQNexp.c ****         }
  76:../Common/IQMath/ti/_IQNexp.c ****         
  77:../Common/IQMath/ti/_IQNexp.c ****         /* Extract the fractional portion in iq31 and clear sign bit. */
  78:../Common/IQMath/ti/_IQNexp.c ****         iq31Fractional = iqNInput;
  79:../Common/IQMath/ti/_IQNexp.c ****         iq31Fractional <<= (31 - q_value);
  80:../Common/IQMath/ti/_IQNexp.c ****         iq31Fractional &= 0x7fffffff;
  81:../Common/IQMath/ti/_IQNexp.c ****     
  82:../Common/IQMath/ti/_IQNexp.c ****         /* Extract the integer portion. */
  83:../Common/IQMath/ti/_IQNexp.c ****         i16Integer = (int_fast16_t)(iqNInput >> q_value);
  84:../Common/IQMath/ti/_IQNexp.c ****     
  85:../Common/IQMath/ti/_IQNexp.c ****         /* Offset the integer portion and lookup the integer result. */
  86:../Common/IQMath/ti/_IQNexp.c ****         i16Integer += ui8IntegerOffset;
ARM GAS  C:\Users\57308\AppData\Local\Temp\ccyuPR38.s 			page 3


  87:../Common/IQMath/ti/_IQNexp.c ****         uiqNIntegerResult = iqNLookupTable[i16Integer];
  88:../Common/IQMath/ti/_IQNexp.c ****         
  89:../Common/IQMath/ti/_IQNexp.c ****         /* Reduce the fractional portion to 0 < iq31Fractional < ln(2) */
  90:../Common/IQMath/ti/_IQNexp.c ****         if (iq31Fractional >= iq31_ln2) {
  91:../Common/IQMath/ti/_IQNexp.c ****             iq31Fractional -= iq31_ln2;
  92:../Common/IQMath/ti/_IQNexp.c ****             uiqNIntegerResult <<= 1;
  93:../Common/IQMath/ti/_IQNexp.c ****         }
  94:../Common/IQMath/ti/_IQNexp.c ****     }
  95:../Common/IQMath/ti/_IQNexp.c ****     
  96:../Common/IQMath/ti/_IQNexp.c ****     /*
  97:../Common/IQMath/ti/_IQNexp.c ****      * Mark the start of any multiplies. This will disable interrupts and set
  98:../Common/IQMath/ti/_IQNexp.c ****      * the multiplier to fractional mode. This is designed to reduce overhead
  99:../Common/IQMath/ti/_IQNexp.c ****      * of constantly switching states when using repeated multiplies (MSP430
 100:../Common/IQMath/ti/_IQNexp.c ****      * only).
 101:../Common/IQMath/ti/_IQNexp.c ****      */
 102:../Common/IQMath/ti/_IQNexp.c ****     __mpyf_start(&ui16IntState, &ui16MPYState);
 103:../Common/IQMath/ti/_IQNexp.c ****     
 104:../Common/IQMath/ti/_IQNexp.c ****     /*
 105:../Common/IQMath/ti/_IQNexp.c ****      * Initialize the coefficient pointer to the Taylor Series iq30 coefficients
 106:../Common/IQMath/ti/_IQNexp.c ****      * for the exponential functions. Set the iq30 result to the first
 107:../Common/IQMath/ti/_IQNexp.c ****      * coefficient in the table.
 108:../Common/IQMath/ti/_IQNexp.c ****      */
 109:../Common/IQMath/ti/_IQNexp.c ****     piq30Coeffs = _IQ30exp_coeffs;
 110:../Common/IQMath/ti/_IQNexp.c ****     uiq30FractionalResult = *piq30Coeffs++;
 111:../Common/IQMath/ti/_IQNexp.c ****     
 112:../Common/IQMath/ti/_IQNexp.c ****     /* Compute exp^(iq31Fractional). */
 113:../Common/IQMath/ti/_IQNexp.c ****     for (ui8Count = _IQ30exp_order; ui8Count > 0; ui8Count--) {
 114:../Common/IQMath/ti/_IQNexp.c ****         uiq30FractionalResult = __mpyf_l(iq31Fractional, uiq30FractionalResult);
 115:../Common/IQMath/ti/_IQNexp.c ****         uiq30FractionalResult += *piq30Coeffs++;
 116:../Common/IQMath/ti/_IQNexp.c ****     }
 117:../Common/IQMath/ti/_IQNexp.c ****     
 118:../Common/IQMath/ti/_IQNexp.c ****     /* Scale the iq30 fractional result by to iq31. */
 119:../Common/IQMath/ti/_IQNexp.c ****     uiq31FractionalResult = uiq30FractionalResult << 1;
 120:../Common/IQMath/ti/_IQNexp.c ****     
 121:../Common/IQMath/ti/_IQNexp.c ****     /*
 122:../Common/IQMath/ti/_IQNexp.c ****      * Multiply the integer result in iqN format and the fractional result in
 123:../Common/IQMath/ti/_IQNexp.c ****      * iq31 format to obtain the result in iqN format.
 124:../Common/IQMath/ti/_IQNexp.c ****      */
 125:../Common/IQMath/ti/_IQNexp.c ****     uiqNResult = __mpyf_ul(uiqNIntegerResult, uiq31FractionalResult);
 126:../Common/IQMath/ti/_IQNexp.c ****     
 127:../Common/IQMath/ti/_IQNexp.c ****     /* 
 128:../Common/IQMath/ti/_IQNexp.c ****      * Mark the end of all multiplies. This restores MPY and interrupt states
 129:../Common/IQMath/ti/_IQNexp.c ****      * (MSP430 only).
 130:../Common/IQMath/ti/_IQNexp.c ****      */
 131:../Common/IQMath/ti/_IQNexp.c ****     __mpy_stop(&ui16IntState, &ui16MPYState);
 132:../Common/IQMath/ti/_IQNexp.c ****     
 133:../Common/IQMath/ti/_IQNexp.c ****     /* The result is scaled by 2, round the result and scale to iqN format. */
 134:../Common/IQMath/ti/_IQNexp.c ****     uiqNResult++;
 135:../Common/IQMath/ti/_IQNexp.c ****     uiqNResult >>= 1;
 136:../Common/IQMath/ti/_IQNexp.c ****     
 137:../Common/IQMath/ti/_IQNexp.c ****     return uiqNResult;
 138:../Common/IQMath/ti/_IQNexp.c **** }
 139:../Common/IQMath/ti/_IQNexp.c **** 
 140:../Common/IQMath/ti/_IQNexp.c **** /**
 141:../Common/IQMath/ti/_IQNexp.c ****  * @brief Computes the exponential of an IQ30 input.
 142:../Common/IQMath/ti/_IQNexp.c ****  *
 143:../Common/IQMath/ti/_IQNexp.c ****  * @param a               IQ30 type input.
ARM GAS  C:\Users\57308\AppData\Local\Temp\ccyuPR38.s 			page 4


 144:../Common/IQMath/ti/_IQNexp.c ****  *
 145:../Common/IQMath/ti/_IQNexp.c ****  * @return                IQ30 type result of exponential.
 146:../Common/IQMath/ti/_IQNexp.c ****  */
 147:../Common/IQMath/ti/_IQNexp.c **** int32_t _IQ30exp(int32_t a)
 148:../Common/IQMath/ti/_IQNexp.c **** {
  30              		.loc 1 148 1 view -0
  31              		.cfi_startproc
  32              		@ args = 0, pretend = 0, frame = 0
  33              		@ frame_needed = 0, uses_anonymous_args = 0
  34              		@ link register save eliminated.
  35              		.loc 1 148 1 is_stmt 0 view .LVU1
  36 0000 30B4     		push	{r4, r5}
  37              	.LCFI0:
  38              		.cfi_def_cfa_offset 8
  39              		.cfi_offset 4, -8
  40              		.cfi_offset 5, -4
 149:../Common/IQMath/ti/_IQNexp.c ****     return __IQNexp(a, _IQNexp_lookup30, _IQNexp_offset[30-1], _IQNexp_min[30-1], _IQNexp_max[30-1]
  41              		.loc 1 149 5 is_stmt 1 view .LVU2
  42              		.loc 1 149 12 is_stmt 0 view .LVU3
  43 0002 2F4B     		ldr	r3, .L11
  44 0004 93F87430 		ldrb	r3, [r3, #116]	@ zero_extendqisi2
  45              		.loc 1 149 75 view .LVU4
  46 0008 2E4A     		ldr	r2, .L11+4
  47 000a 516F     		ldr	r1, [r2, #116]
  48              		.loc 1 149 94 view .LVU5
  49 000c 2E4A     		ldr	r2, .L11+8
  50 000e 526F     		ldr	r2, [r2, #116]
  51              	.LVL1:
  52              	.LBB16:
  53              	.LBI16:
  32:../Common/IQMath/ti/_IQNexp.c **** {
  54              		.loc 1 32 30 is_stmt 1 view .LVU6
  55              	.LBB17:
  34:../Common/IQMath/ti/_IQNexp.c ****     int_fast16_t i16Integer;
  56              		.loc 1 34 5 view .LVU7
  35:../Common/IQMath/ti/_IQNexp.c ****     uint_fast16_t ui16IntState;
  57              		.loc 1 35 5 view .LVU8
  36:../Common/IQMath/ti/_IQNexp.c ****     uint_fast16_t ui16MPYState;
  58              		.loc 1 36 5 view .LVU9
  37:../Common/IQMath/ti/_IQNexp.c ****     int_fast32_t iq31Fractional;
  59              		.loc 1 37 5 view .LVU10
  38:../Common/IQMath/ti/_IQNexp.c ****     uint_fast32_t uiqNResult;
  60              		.loc 1 38 5 view .LVU11
  39:../Common/IQMath/ti/_IQNexp.c ****     uint_fast32_t uiqNIntegerResult;
  61              		.loc 1 39 5 view .LVU12
  40:../Common/IQMath/ti/_IQNexp.c ****     uint_fast32_t uiq30FractionalResult;
  62              		.loc 1 40 5 view .LVU13
  41:../Common/IQMath/ti/_IQNexp.c ****     uint_fast32_t uiq31FractionalResult;
  63              		.loc 1 41 5 view .LVU14
  42:../Common/IQMath/ti/_IQNexp.c ****     const uint_fast32_t *piq30Coeffs;
  64              		.loc 1 42 5 view .LVU15
  43:../Common/IQMath/ti/_IQNexp.c ****     
  65              		.loc 1 43 5 view .LVU16
  46:../Common/IQMath/ti/_IQNexp.c ****         /* Check for the minimum value. */
  66              		.loc 1 46 5 view .LVU17
  46:../Common/IQMath/ti/_IQNexp.c ****         /* Check for the minimum value. */
  67              		.loc 1 46 8 is_stmt 0 view .LVU18
ARM GAS  C:\Users\57308\AppData\Local\Temp\ccyuPR38.s 			page 5


  68 0010 0028     		cmp	r0, #0
  46:../Common/IQMath/ti/_IQNexp.c ****         /* Check for the minimum value. */
  69              		.loc 1 46 8 view .LVU19
  70 0012 19DB     		blt	.L10
  73:../Common/IQMath/ti/_IQNexp.c ****             return INT32_MAX;
  71              		.loc 1 73 9 is_stmt 1 view .LVU20
  73:../Common/IQMath/ti/_IQNexp.c ****             return INT32_MAX;
  72              		.loc 1 73 12 is_stmt 0 view .LVU21
  73 0014 8242     		cmp	r2, r0
  74 0016 50DB     		blt	.L8
  78:../Common/IQMath/ti/_IQNexp.c ****         iq31Fractional <<= (31 - q_value);
  75              		.loc 1 78 9 is_stmt 1 view .LVU22
  76              	.LVL2:
  79:../Common/IQMath/ti/_IQNexp.c ****         iq31Fractional &= 0x7fffffff;
  77              		.loc 1 79 9 view .LVU23
  79:../Common/IQMath/ti/_IQNexp.c ****         iq31Fractional &= 0x7fffffff;
  78              		.loc 1 79 24 is_stmt 0 view .LVU24
  79 0018 4FEA400C 		lsl	ip, r0, #1
  80              	.LVL3:
  80:../Common/IQMath/ti/_IQNexp.c ****     
  81              		.loc 1 80 9 is_stmt 1 view .LVU25
  80:../Common/IQMath/ti/_IQNexp.c ****     
  82              		.loc 1 80 24 is_stmt 0 view .LVU26
  83 001c 2CF0004C 		bic	ip, ip, #-2147483648
  84              	.LVL4:
  83:../Common/IQMath/ti/_IQNexp.c ****     
  85              		.loc 1 83 9 is_stmt 1 view .LVU27
  86:../Common/IQMath/ti/_IQNexp.c ****         uiqNIntegerResult = iqNLookupTable[i16Integer];
  86              		.loc 1 86 9 view .LVU28
  86:../Common/IQMath/ti/_IQNexp.c ****         uiqNIntegerResult = iqNLookupTable[i16Integer];
  87              		.loc 1 86 20 is_stmt 0 view .LVU29
  88 0020 03EBA070 		add	r0, r3, r0, asr #30
  89              	.LVL5:
  87:../Common/IQMath/ti/_IQNexp.c ****         
  90              		.loc 1 87 9 is_stmt 1 view .LVU30
  87:../Common/IQMath/ti/_IQNexp.c ****         
  91              		.loc 1 87 43 is_stmt 0 view .LVU31
  92 0024 294B     		ldr	r3, .L11+12
  93              	.LVL6:
  87:../Common/IQMath/ti/_IQNexp.c ****         
  94              		.loc 1 87 27 view .LVU32
  95 0026 53F82050 		ldr	r5, [r3, r0, lsl #2]
  96              	.LVL7:
  90:../Common/IQMath/ti/_IQNexp.c ****             iq31Fractional -= iq31_ln2;
  97              		.loc 1 90 9 is_stmt 1 view .LVU33
  90:../Common/IQMath/ti/_IQNexp.c ****             iq31Fractional -= iq31_ln2;
  98              		.loc 1 90 12 is_stmt 0 view .LVU34
  99 002a 294B     		ldr	r3, .L11+16
 100 002c 9C45     		cmp	ip, r3
 101 002e 06DD     		ble	.L4
  91:../Common/IQMath/ti/_IQNexp.c ****             uiqNIntegerResult <<= 1;
 102              		.loc 1 91 13 is_stmt 1 view .LVU35
  91:../Common/IQMath/ti/_IQNexp.c ****             uiqNIntegerResult <<= 1;
 103              		.loc 1 91 28 is_stmt 0 view .LVU36
 104 0030 ACF1B14C 		sub	ip, ip, #1484783616
 105              	.LVL8:
  91:../Common/IQMath/ti/_IQNexp.c ****             uiqNIntegerResult <<= 1;
ARM GAS  C:\Users\57308\AppData\Local\Temp\ccyuPR38.s 			page 6


 106              		.loc 1 91 28 view .LVU37
 107 0034 ACF5641C 		sub	ip, ip, #3735552
 108              	.LVL9:
  91:../Common/IQMath/ti/_IQNexp.c ****             uiqNIntegerResult <<= 1;
 109              		.loc 1 91 28 view .LVU38
 110 0038 ACF6FC3C 		subw	ip, ip, #3068
 111              	.LVL10:
  92:../Common/IQMath/ti/_IQNexp.c ****         }
 112              		.loc 1 92 13 is_stmt 1 view .LVU39
  92:../Common/IQMath/ti/_IQNexp.c ****         }
 113              		.loc 1 92 31 is_stmt 0 view .LVU40
 114 003c 6D00     		lsls	r5, r5, #1
 115              	.LVL11:
 116              	.L4:
 102:../Common/IQMath/ti/_IQNexp.c ****     
 117              		.loc 1 102 5 is_stmt 1 view .LVU41
 102:../Common/IQMath/ti/_IQNexp.c ****     
 118              		.loc 1 102 5 is_stmt 0 view .LVU42
 119              	.LBE17:
 120              	.LBE16:
 121              		.file 2 "../Common/IQMath/ti/./support/RTS_support.h"
   1:../Common/IQMath/ti/./support/RTS_support.h **** #ifndef __RTS_SUPPORTH__
   2:../Common/IQMath/ti/./support/RTS_support.h **** #define __RTS_SUPPORTH__
   3:../Common/IQMath/ti/./support/RTS_support.h **** 
   4:../Common/IQMath/ti/./support/RTS_support.h **** ////////////////////////////////////////////////////////////
   5:../Common/IQMath/ti/./support/RTS_support.h **** //                                                        //
   6:../Common/IQMath/ti/./support/RTS_support.h **** //              MPY32 control functions.                  //
   7:../Common/IQMath/ti/./support/RTS_support.h **** //                                                        //
   8:../Common/IQMath/ti/./support/RTS_support.h **** ////////////////////////////////////////////////////////////
   9:../Common/IQMath/ti/./support/RTS_support.h **** #if defined (__TI_COMPILER_VERSION__)
  10:../Common/IQMath/ti/./support/RTS_support.h ****     #pragma FUNC_ALWAYS_INLINE(__mpy_start)
  11:../Common/IQMath/ti/./support/RTS_support.h **** #elif defined(__IAR_SYSTEMS_ICC__)
  12:../Common/IQMath/ti/./support/RTS_support.h ****     #pragma inline=forced
  13:../Common/IQMath/ti/./support/RTS_support.h **** #endif
  14:../Common/IQMath/ti/./support/RTS_support.h **** static inline void __mpy_start(uint_fast16_t *ui16IntState, uint_fast16_t *ui16MPYState)
  15:../Common/IQMath/ti/./support/RTS_support.h **** {
  16:../Common/IQMath/ti/./support/RTS_support.h ****     /* Do nothing. */
  17:../Common/IQMath/ti/./support/RTS_support.h ****     return;
  18:../Common/IQMath/ti/./support/RTS_support.h **** }
  19:../Common/IQMath/ti/./support/RTS_support.h **** 
  20:../Common/IQMath/ti/./support/RTS_support.h **** #if defined (__TI_COMPILER_VERSION__)
  21:../Common/IQMath/ti/./support/RTS_support.h ****     #pragma FUNC_ALWAYS_INLINE(__mpyf_start)
  22:../Common/IQMath/ti/./support/RTS_support.h **** #elif defined(__IAR_SYSTEMS_ICC__)
  23:../Common/IQMath/ti/./support/RTS_support.h ****     #pragma inline=forced
  24:../Common/IQMath/ti/./support/RTS_support.h **** #endif
  25:../Common/IQMath/ti/./support/RTS_support.h **** static inline void __mpyf_start(uint_fast16_t *ui16IntState, uint_fast16_t *ui16MPYState)
  26:../Common/IQMath/ti/./support/RTS_support.h **** {
  27:../Common/IQMath/ti/./support/RTS_support.h ****     /* Do nothing. */
  28:../Common/IQMath/ti/./support/RTS_support.h ****     return;
 122              		.loc 2 28 5 is_stmt 1 view .LVU43
 123              	.LBB25:
 124              	.LBB22:
 109:../Common/IQMath/ti/_IQNexp.c ****     uiq30FractionalResult = *piq30Coeffs++;
 125              		.loc 1 109 5 view .LVU44
 110:../Common/IQMath/ti/_IQNexp.c ****     
 126              		.loc 1 110 5 view .LVU45
 110:../Common/IQMath/ti/_IQNexp.c ****     
ARM GAS  C:\Users\57308\AppData\Local\Temp\ccyuPR38.s 			page 7


 127              		.loc 1 110 27 is_stmt 0 view .LVU46
 128 003e 2548     		ldr	r0, .L11+20
 129              	.LVL12:
 110:../Common/IQMath/ti/_IQNexp.c ****     
 130              		.loc 1 110 27 view .LVU47
 131 0040 50F8043B 		ldr	r3, [r0], #4
 132              	.LVL13:
 113:../Common/IQMath/ti/_IQNexp.c ****         uiq30FractionalResult = __mpyf_l(iq31Fractional, uiq30FractionalResult);
 133              		.loc 1 113 5 is_stmt 1 view .LVU48
 113:../Common/IQMath/ti/_IQNexp.c ****         uiq30FractionalResult = __mpyf_l(iq31Fractional, uiq30FractionalResult);
 134              		.loc 1 113 19 is_stmt 0 view .LVU49
 135 0044 0A24     		movs	r4, #10
 113:../Common/IQMath/ti/_IQNexp.c ****         uiq30FractionalResult = __mpyf_l(iq31Fractional, uiq30FractionalResult);
 136              		.loc 1 113 5 view .LVU50
 137 0046 2AE0     		b	.L5
 138              	.LVL14:
 139              	.L10:
  48:../Common/IQMath/ti/_IQNexp.c ****             return 0;
 140              		.loc 1 48 9 is_stmt 1 view .LVU51
  48:../Common/IQMath/ti/_IQNexp.c ****             return 0;
 141              		.loc 1 48 12 is_stmt 0 view .LVU52
 142 0048 8142     		cmp	r1, r0
 143 004a 34DC     		bgt	.L7
  53:../Common/IQMath/ti/_IQNexp.c ****         iq31Fractional <<= (31 - q_value);
 144              		.loc 1 53 9 is_stmt 1 view .LVU53
 145              	.LVL15:
  54:../Common/IQMath/ti/_IQNexp.c ****         iq31Fractional |= 0x80000000;
 146              		.loc 1 54 9 view .LVU54
  54:../Common/IQMath/ti/_IQNexp.c ****         iq31Fractional |= 0x80000000;
 147              		.loc 1 54 24 is_stmt 0 view .LVU55
 148 004c 4FEA400C 		lsl	ip, r0, #1
 149              	.LVL16:
  55:../Common/IQMath/ti/_IQNexp.c ****     
 150              		.loc 1 55 9 is_stmt 1 view .LVU56
  55:../Common/IQMath/ti/_IQNexp.c ****     
 151              		.loc 1 55 24 is_stmt 0 view .LVU57
 152 0050 4CF0004C 		orr	ip, ip, #-2147483648
 153              	.LVL17:
  58:../Common/IQMath/ti/_IQNexp.c ****     
 154              		.loc 1 58 9 is_stmt 1 view .LVU58
  58:../Common/IQMath/ti/_IQNexp.c ****     
 155              		.loc 1 58 46 is_stmt 0 view .LVU59
 156 0054 8017     		asrs	r0, r0, #30
 157              	.LVL18:
  58:../Common/IQMath/ti/_IQNexp.c ****     
 158              		.loc 1 58 20 view .LVU60
 159 0056 0130     		adds	r0, r0, #1
 160              	.LVL19:
  61:../Common/IQMath/ti/_IQNexp.c ****         uiqNIntegerResult = iqNLookupTable[i16Integer];
 161              		.loc 1 61 9 is_stmt 1 view .LVU61
  61:../Common/IQMath/ti/_IQNexp.c ****         uiqNIntegerResult = iqNLookupTable[i16Integer];
 162              		.loc 1 61 20 is_stmt 0 view .LVU62
 163 0058 1844     		add	r0, r0, r3
 164              	.LVL20:
  62:../Common/IQMath/ti/_IQNexp.c ****         
 165              		.loc 1 62 9 is_stmt 1 view .LVU63
  62:../Common/IQMath/ti/_IQNexp.c ****         
ARM GAS  C:\Users\57308\AppData\Local\Temp\ccyuPR38.s 			page 8


 166              		.loc 1 62 43 is_stmt 0 view .LVU64
 167 005a 1C4B     		ldr	r3, .L11+12
 168              	.LVL21:
  62:../Common/IQMath/ti/_IQNexp.c ****         
 169              		.loc 1 62 27 view .LVU65
 170 005c 53F82050 		ldr	r5, [r3, r0, lsl #2]
 171              	.LVL22:
  65:../Common/IQMath/ti/_IQNexp.c ****             iq31Fractional += iq31_ln2;
 172              		.loc 1 65 9 is_stmt 1 view .LVU66
  65:../Common/IQMath/ti/_IQNexp.c ****             iq31Fractional += iq31_ln2;
 173              		.loc 1 65 12 is_stmt 0 view .LVU67
 174 0060 1D4B     		ldr	r3, .L11+24
 175 0062 9C45     		cmp	ip, r3
 176 0064 EBDA     		bge	.L4
  66:../Common/IQMath/ti/_IQNexp.c ****             uiqNIntegerResult >>= 1;
 177              		.loc 1 66 13 is_stmt 1 view .LVU68
  66:../Common/IQMath/ti/_IQNexp.c ****             uiqNIntegerResult >>= 1;
 178              		.loc 1 66 28 is_stmt 0 view .LVU69
 179 0066 0CF1B14C 		add	ip, ip, #1484783616
 180              	.LVL23:
  66:../Common/IQMath/ti/_IQNexp.c ****             uiqNIntegerResult >>= 1;
 181              		.loc 1 66 28 view .LVU70
 182 006a 0CF5641C 		add	ip, ip, #3735552
 183              	.LVL24:
  66:../Common/IQMath/ti/_IQNexp.c ****             uiqNIntegerResult >>= 1;
 184              		.loc 1 66 28 view .LVU71
 185 006e 0CF6FC3C 		addw	ip, ip, #3068
 186              	.LVL25:
  67:../Common/IQMath/ti/_IQNexp.c ****         }
 187              		.loc 1 67 13 is_stmt 1 view .LVU72
  67:../Common/IQMath/ti/_IQNexp.c ****         }
 188              		.loc 1 67 31 is_stmt 0 view .LVU73
 189 0072 6D08     		lsrs	r5, r5, #1
 190              	.LVL26:
  67:../Common/IQMath/ti/_IQNexp.c ****         }
 191              		.loc 1 67 31 view .LVU74
 192 0074 E3E7     		b	.L4
 193              	.LVL27:
 194              	.L6:
 114:../Common/IQMath/ti/_IQNexp.c ****         uiq30FractionalResult += *piq30Coeffs++;
 195              		.loc 1 114 9 is_stmt 1 view .LVU75
 196              	.LBB18:
 197              	.LBI18:
  29:../Common/IQMath/ti/./support/RTS_support.h **** }
  30:../Common/IQMath/ti/./support/RTS_support.h **** 
  31:../Common/IQMath/ti/./support/RTS_support.h **** #if defined (__TI_COMPILER_VERSION__)
  32:../Common/IQMath/ti/./support/RTS_support.h ****     #pragma FUNC_ALWAYS_INLINE(__mpyfs_start)
  33:../Common/IQMath/ti/./support/RTS_support.h **** #elif defined(__IAR_SYSTEMS_ICC__)
  34:../Common/IQMath/ti/./support/RTS_support.h ****     #pragma inline=forced
  35:../Common/IQMath/ti/./support/RTS_support.h **** #endif
  36:../Common/IQMath/ti/./support/RTS_support.h **** static inline void __mpyfs_start(uint_fast16_t *ui16IntState, uint_fast16_t *ui16MPYState)
  37:../Common/IQMath/ti/./support/RTS_support.h **** {
  38:../Common/IQMath/ti/./support/RTS_support.h ****     /* Do nothing. */
  39:../Common/IQMath/ti/./support/RTS_support.h ****     return;
  40:../Common/IQMath/ti/./support/RTS_support.h **** }
  41:../Common/IQMath/ti/./support/RTS_support.h **** 
  42:../Common/IQMath/ti/./support/RTS_support.h **** #if defined (__TI_COMPILER_VERSION__)
ARM GAS  C:\Users\57308\AppData\Local\Temp\ccyuPR38.s 			page 9


  43:../Common/IQMath/ti/./support/RTS_support.h ****     #pragma FUNC_ALWAYS_INLINE(__mpy_clear_ctl0)
  44:../Common/IQMath/ti/./support/RTS_support.h **** #elif defined(__IAR_SYSTEMS_ICC__)
  45:../Common/IQMath/ti/./support/RTS_support.h ****     #pragma inline=forced
  46:../Common/IQMath/ti/./support/RTS_support.h **** #endif
  47:../Common/IQMath/ti/./support/RTS_support.h **** static inline void __mpy_clear_ctl0(void)
  48:../Common/IQMath/ti/./support/RTS_support.h **** {
  49:../Common/IQMath/ti/./support/RTS_support.h ****     /* Do nothing. */
  50:../Common/IQMath/ti/./support/RTS_support.h ****     return;
  51:../Common/IQMath/ti/./support/RTS_support.h **** }
  52:../Common/IQMath/ti/./support/RTS_support.h **** 
  53:../Common/IQMath/ti/./support/RTS_support.h **** #if defined (__TI_COMPILER_VERSION__)
  54:../Common/IQMath/ti/./support/RTS_support.h ****     #pragma FUNC_ALWAYS_INLINE(__mpy_set_frac)
  55:../Common/IQMath/ti/./support/RTS_support.h **** #elif defined(__IAR_SYSTEMS_ICC__)
  56:../Common/IQMath/ti/./support/RTS_support.h ****     #pragma inline=forced
  57:../Common/IQMath/ti/./support/RTS_support.h **** #endif
  58:../Common/IQMath/ti/./support/RTS_support.h **** static inline void __mpy_set_frac(void)
  59:../Common/IQMath/ti/./support/RTS_support.h **** {
  60:../Common/IQMath/ti/./support/RTS_support.h ****     /* Do nothing. */
  61:../Common/IQMath/ti/./support/RTS_support.h ****     return;
  62:../Common/IQMath/ti/./support/RTS_support.h **** }
  63:../Common/IQMath/ti/./support/RTS_support.h **** 
  64:../Common/IQMath/ti/./support/RTS_support.h **** #if defined (__TI_COMPILER_VERSION__)
  65:../Common/IQMath/ti/./support/RTS_support.h ****     #pragma FUNC_ALWAYS_INLINE(__mpy_stop)
  66:../Common/IQMath/ti/./support/RTS_support.h **** #elif defined(__IAR_SYSTEMS_ICC__)
  67:../Common/IQMath/ti/./support/RTS_support.h ****     #pragma inline=forced
  68:../Common/IQMath/ti/./support/RTS_support.h **** #endif
  69:../Common/IQMath/ti/./support/RTS_support.h **** static inline void __mpy_stop(uint_fast16_t *ui16IntState, uint_fast16_t *ui16MPYState)
  70:../Common/IQMath/ti/./support/RTS_support.h **** {
  71:../Common/IQMath/ti/./support/RTS_support.h ****     /* Do nothing. */
  72:../Common/IQMath/ti/./support/RTS_support.h ****     return;
  73:../Common/IQMath/ti/./support/RTS_support.h **** }
  74:../Common/IQMath/ti/./support/RTS_support.h **** 
  75:../Common/IQMath/ti/./support/RTS_support.h **** ////////////////////////////////////////////////////////////
  76:../Common/IQMath/ti/./support/RTS_support.h **** //                                                        //
  77:../Common/IQMath/ti/./support/RTS_support.h **** //                16-bit functions                        //
  78:../Common/IQMath/ti/./support/RTS_support.h **** //                                                        //
  79:../Common/IQMath/ti/./support/RTS_support.h **** ////////////////////////////////////////////////////////////
  80:../Common/IQMath/ti/./support/RTS_support.h **** #if defined (__TI_COMPILER_VERSION__)
  81:../Common/IQMath/ti/./support/RTS_support.h ****     #pragma FUNC_ALWAYS_INLINE(__mpy_w)
  82:../Common/IQMath/ti/./support/RTS_support.h **** #elif defined(__IAR_SYSTEMS_ICC__)
  83:../Common/IQMath/ti/./support/RTS_support.h ****     #pragma inline=forced
  84:../Common/IQMath/ti/./support/RTS_support.h **** #endif
  85:../Common/IQMath/ti/./support/RTS_support.h **** static inline int_fast16_t __mpy_w(int_fast16_t arg1, int_fast16_t arg2)
  86:../Common/IQMath/ti/./support/RTS_support.h **** {
  87:../Common/IQMath/ti/./support/RTS_support.h ****     return (arg1 * arg2);
  88:../Common/IQMath/ti/./support/RTS_support.h **** }
  89:../Common/IQMath/ti/./support/RTS_support.h **** 
  90:../Common/IQMath/ti/./support/RTS_support.h **** #if defined (__TI_COMPILER_VERSION__)
  91:../Common/IQMath/ti/./support/RTS_support.h ****     #pragma FUNC_ALWAYS_INLINE(__mpy_uw)
  92:../Common/IQMath/ti/./support/RTS_support.h **** #elif defined(__IAR_SYSTEMS_ICC__)
  93:../Common/IQMath/ti/./support/RTS_support.h ****     #pragma inline=forced
  94:../Common/IQMath/ti/./support/RTS_support.h **** #endif
  95:../Common/IQMath/ti/./support/RTS_support.h **** static inline uint_fast16_t __mpy_uw(uint_fast16_t arg1, uint_fast16_t arg2)
  96:../Common/IQMath/ti/./support/RTS_support.h **** {
  97:../Common/IQMath/ti/./support/RTS_support.h ****     return (arg1 * arg2);
  98:../Common/IQMath/ti/./support/RTS_support.h **** }
  99:../Common/IQMath/ti/./support/RTS_support.h **** 
ARM GAS  C:\Users\57308\AppData\Local\Temp\ccyuPR38.s 			page 10


 100:../Common/IQMath/ti/./support/RTS_support.h **** #if defined (__TI_COMPILER_VERSION__)
 101:../Common/IQMath/ti/./support/RTS_support.h ****     #pragma FUNC_ALWAYS_INLINE(__mpyx_w)
 102:../Common/IQMath/ti/./support/RTS_support.h **** #elif defined(__IAR_SYSTEMS_ICC__)
 103:../Common/IQMath/ti/./support/RTS_support.h ****     #pragma inline=forced
 104:../Common/IQMath/ti/./support/RTS_support.h **** #endif
 105:../Common/IQMath/ti/./support/RTS_support.h **** static inline int_fast32_t __mpyx_w(int_fast16_t arg1, int_fast16_t arg2)
 106:../Common/IQMath/ti/./support/RTS_support.h **** {
 107:../Common/IQMath/ti/./support/RTS_support.h ****     return ((int_fast32_t)arg1 * (int_fast32_t)arg2);
 108:../Common/IQMath/ti/./support/RTS_support.h **** }
 109:../Common/IQMath/ti/./support/RTS_support.h **** 
 110:../Common/IQMath/ti/./support/RTS_support.h **** #if defined (__TI_COMPILER_VERSION__)
 111:../Common/IQMath/ti/./support/RTS_support.h ****     #pragma FUNC_ALWAYS_INLINE(__mpyx_uw)
 112:../Common/IQMath/ti/./support/RTS_support.h **** #elif defined(__IAR_SYSTEMS_ICC__)
 113:../Common/IQMath/ti/./support/RTS_support.h ****     #pragma inline=forced
 114:../Common/IQMath/ti/./support/RTS_support.h **** #endif
 115:../Common/IQMath/ti/./support/RTS_support.h **** static inline uint_fast32_t __mpyx_uw(uint_fast16_t arg1, uint_fast16_t arg2)
 116:../Common/IQMath/ti/./support/RTS_support.h **** {
 117:../Common/IQMath/ti/./support/RTS_support.h ****     return ((uint_fast32_t)arg1 * (uint_fast32_t)arg2);
 118:../Common/IQMath/ti/./support/RTS_support.h **** }
 119:../Common/IQMath/ti/./support/RTS_support.h **** 
 120:../Common/IQMath/ti/./support/RTS_support.h **** #if defined (__TI_COMPILER_VERSION__)
 121:../Common/IQMath/ti/./support/RTS_support.h ****     #pragma FUNC_ALWAYS_INLINE(__mpyf_w)
 122:../Common/IQMath/ti/./support/RTS_support.h **** #elif defined(__IAR_SYSTEMS_ICC__)
 123:../Common/IQMath/ti/./support/RTS_support.h ****     #pragma inline=forced
 124:../Common/IQMath/ti/./support/RTS_support.h **** #endif
 125:../Common/IQMath/ti/./support/RTS_support.h **** static inline int_fast16_t __mpyf_w(int_fast16_t arg1, int_fast16_t arg2)
 126:../Common/IQMath/ti/./support/RTS_support.h **** {
 127:../Common/IQMath/ti/./support/RTS_support.h ****     return (int_fast16_t)(((int_fast32_t)arg1 * (int_fast32_t)arg2) >> 15);
 128:../Common/IQMath/ti/./support/RTS_support.h **** }
 129:../Common/IQMath/ti/./support/RTS_support.h **** 
 130:../Common/IQMath/ti/./support/RTS_support.h **** #if defined (__TI_COMPILER_VERSION__)
 131:../Common/IQMath/ti/./support/RTS_support.h ****     #pragma FUNC_ALWAYS_INLINE(__mpyf_w_reuse_arg1)
 132:../Common/IQMath/ti/./support/RTS_support.h **** #elif defined(__IAR_SYSTEMS_ICC__)
 133:../Common/IQMath/ti/./support/RTS_support.h ****     #pragma inline=forced
 134:../Common/IQMath/ti/./support/RTS_support.h **** #endif
 135:../Common/IQMath/ti/./support/RTS_support.h **** static inline int_fast16_t __mpyf_w_reuse_arg1(int_fast16_t arg1, int_fast16_t arg2)
 136:../Common/IQMath/ti/./support/RTS_support.h **** {
 137:../Common/IQMath/ti/./support/RTS_support.h ****     /* This is identical to __mpyf_w */
 138:../Common/IQMath/ti/./support/RTS_support.h ****     return (int_fast16_t)(((int_fast32_t)arg1 * (int_fast32_t)arg2) >> 15);
 139:../Common/IQMath/ti/./support/RTS_support.h **** }
 140:../Common/IQMath/ti/./support/RTS_support.h **** 
 141:../Common/IQMath/ti/./support/RTS_support.h **** #if defined (__TI_COMPILER_VERSION__)
 142:../Common/IQMath/ti/./support/RTS_support.h ****     #pragma FUNC_ALWAYS_INLINE(__mpyf_uw)
 143:../Common/IQMath/ti/./support/RTS_support.h **** #elif defined(__IAR_SYSTEMS_ICC__)
 144:../Common/IQMath/ti/./support/RTS_support.h ****     #pragma inline=forced
 145:../Common/IQMath/ti/./support/RTS_support.h **** #endif
 146:../Common/IQMath/ti/./support/RTS_support.h **** static inline uint_fast16_t __mpyf_uw(uint_fast16_t arg1, uint_fast16_t arg2)
 147:../Common/IQMath/ti/./support/RTS_support.h **** {
 148:../Common/IQMath/ti/./support/RTS_support.h ****     return (uint_fast16_t)(((uint_fast32_t)arg1 * (uint_fast32_t)arg2) >> 15);
 149:../Common/IQMath/ti/./support/RTS_support.h **** }
 150:../Common/IQMath/ti/./support/RTS_support.h **** 
 151:../Common/IQMath/ti/./support/RTS_support.h **** #if defined (__TI_COMPILER_VERSION__)
 152:../Common/IQMath/ti/./support/RTS_support.h ****     #pragma FUNC_ALWAYS_INLINE(__mpyf_uw_reuse_arg1)
 153:../Common/IQMath/ti/./support/RTS_support.h **** #elif defined(__IAR_SYSTEMS_ICC__)
 154:../Common/IQMath/ti/./support/RTS_support.h ****     #pragma inline=forced
 155:../Common/IQMath/ti/./support/RTS_support.h **** #endif
 156:../Common/IQMath/ti/./support/RTS_support.h **** static inline uint_fast16_t __mpyf_uw_reuse_arg1(uint_fast16_t arg1, uint_fast16_t arg2)
ARM GAS  C:\Users\57308\AppData\Local\Temp\ccyuPR38.s 			page 11


 157:../Common/IQMath/ti/./support/RTS_support.h **** {
 158:../Common/IQMath/ti/./support/RTS_support.h ****     /* This is identical to __mpyf_uw */
 159:../Common/IQMath/ti/./support/RTS_support.h ****     return (uint_fast16_t)(((uint_fast32_t)arg1 * (uint_fast32_t)arg2) >> 15);
 160:../Common/IQMath/ti/./support/RTS_support.h **** }
 161:../Common/IQMath/ti/./support/RTS_support.h **** 
 162:../Common/IQMath/ti/./support/RTS_support.h **** #if defined (__TI_COMPILER_VERSION__)
 163:../Common/IQMath/ti/./support/RTS_support.h ****     #pragma FUNC_ALWAYS_INLINE(__mpyfx_w)
 164:../Common/IQMath/ti/./support/RTS_support.h **** #elif defined(__IAR_SYSTEMS_ICC__)
 165:../Common/IQMath/ti/./support/RTS_support.h ****     #pragma inline=forced
 166:../Common/IQMath/ti/./support/RTS_support.h **** #endif
 167:../Common/IQMath/ti/./support/RTS_support.h **** static inline int_fast32_t __mpyfx_w(int_fast16_t arg1, int_fast16_t arg2)
 168:../Common/IQMath/ti/./support/RTS_support.h **** {
 169:../Common/IQMath/ti/./support/RTS_support.h ****     return (((int_fast32_t)arg1 * (int_fast32_t)arg2) << 1);
 170:../Common/IQMath/ti/./support/RTS_support.h **** }
 171:../Common/IQMath/ti/./support/RTS_support.h **** 
 172:../Common/IQMath/ti/./support/RTS_support.h **** #if defined (__TI_COMPILER_VERSION__)
 173:../Common/IQMath/ti/./support/RTS_support.h ****     #pragma FUNC_ALWAYS_INLINE(__mpyfx_uw)
 174:../Common/IQMath/ti/./support/RTS_support.h **** #elif defined(__IAR_SYSTEMS_ICC__)
 175:../Common/IQMath/ti/./support/RTS_support.h ****     #pragma inline=forced
 176:../Common/IQMath/ti/./support/RTS_support.h **** #endif
 177:../Common/IQMath/ti/./support/RTS_support.h **** static inline int_fast32_t __mpyfx_uw(uint_fast16_t arg1, uint_fast16_t arg2)
 178:../Common/IQMath/ti/./support/RTS_support.h **** {
 179:../Common/IQMath/ti/./support/RTS_support.h ****     return (((uint_fast32_t)arg1 * (uint_fast32_t)arg2) << 1);
 180:../Common/IQMath/ti/./support/RTS_support.h **** }
 181:../Common/IQMath/ti/./support/RTS_support.h **** 
 182:../Common/IQMath/ti/./support/RTS_support.h **** 
 183:../Common/IQMath/ti/./support/RTS_support.h **** ////////////////////////////////////////////////////////////
 184:../Common/IQMath/ti/./support/RTS_support.h **** //                                                        //
 185:../Common/IQMath/ti/./support/RTS_support.h **** //                 32-bit functions                       //
 186:../Common/IQMath/ti/./support/RTS_support.h **** //                                                        //
 187:../Common/IQMath/ti/./support/RTS_support.h **** ////////////////////////////////////////////////////////////
 188:../Common/IQMath/ti/./support/RTS_support.h **** #if defined (__TI_COMPILER_VERSION__)
 189:../Common/IQMath/ti/./support/RTS_support.h ****     #pragma FUNC_ALWAYS_INLINE(__mpy_l)
 190:../Common/IQMath/ti/./support/RTS_support.h **** #elif defined(__IAR_SYSTEMS_ICC__)
 191:../Common/IQMath/ti/./support/RTS_support.h ****     #pragma inline=forced
 192:../Common/IQMath/ti/./support/RTS_support.h **** #endif
 193:../Common/IQMath/ti/./support/RTS_support.h **** static inline int_fast32_t __mpy_l(int_fast32_t arg1, int_fast32_t arg2)
 194:../Common/IQMath/ti/./support/RTS_support.h **** {
 195:../Common/IQMath/ti/./support/RTS_support.h ****     return (arg1 * arg2);
 196:../Common/IQMath/ti/./support/RTS_support.h **** }
 197:../Common/IQMath/ti/./support/RTS_support.h **** 
 198:../Common/IQMath/ti/./support/RTS_support.h **** #if defined (__TI_COMPILER_VERSION__)
 199:../Common/IQMath/ti/./support/RTS_support.h ****     #pragma FUNC_ALWAYS_INLINE(__mpy_ul)
 200:../Common/IQMath/ti/./support/RTS_support.h **** #elif defined(__IAR_SYSTEMS_ICC__)
 201:../Common/IQMath/ti/./support/RTS_support.h ****     #pragma inline=forced
 202:../Common/IQMath/ti/./support/RTS_support.h **** #endif
 203:../Common/IQMath/ti/./support/RTS_support.h **** static inline uint_fast32_t __mpy_ul(uint_fast32_t arg1, uint_fast32_t arg2)
 204:../Common/IQMath/ti/./support/RTS_support.h **** {
 205:../Common/IQMath/ti/./support/RTS_support.h ****     return (arg1 * arg2);
 206:../Common/IQMath/ti/./support/RTS_support.h **** }
 207:../Common/IQMath/ti/./support/RTS_support.h **** 
 208:../Common/IQMath/ti/./support/RTS_support.h **** #if defined (__TI_COMPILER_VERSION__)
 209:../Common/IQMath/ti/./support/RTS_support.h ****     #pragma FUNC_ALWAYS_INLINE(__mpyx)
 210:../Common/IQMath/ti/./support/RTS_support.h **** #elif defined(__IAR_SYSTEMS_ICC__)
 211:../Common/IQMath/ti/./support/RTS_support.h ****     #pragma inline=forced
 212:../Common/IQMath/ti/./support/RTS_support.h **** #endif
 213:../Common/IQMath/ti/./support/RTS_support.h **** static inline int_fast64_t __mpyx(int_fast32_t arg1, int_fast32_t arg2)
ARM GAS  C:\Users\57308\AppData\Local\Temp\ccyuPR38.s 			page 12


 214:../Common/IQMath/ti/./support/RTS_support.h **** {
 215:../Common/IQMath/ti/./support/RTS_support.h ****     return ((int_fast64_t)arg1 * (int_fast64_t)arg2);
 216:../Common/IQMath/ti/./support/RTS_support.h **** }
 217:../Common/IQMath/ti/./support/RTS_support.h **** 
 218:../Common/IQMath/ti/./support/RTS_support.h **** #if defined (__TI_COMPILER_VERSION__)
 219:../Common/IQMath/ti/./support/RTS_support.h ****     #pragma FUNC_ALWAYS_INLINE(__mpyx_u)
 220:../Common/IQMath/ti/./support/RTS_support.h **** #elif defined(__IAR_SYSTEMS_ICC__)
 221:../Common/IQMath/ti/./support/RTS_support.h ****     #pragma inline=forced
 222:../Common/IQMath/ti/./support/RTS_support.h **** #endif
 223:../Common/IQMath/ti/./support/RTS_support.h **** static inline uint_fast64_t __mpyx_u(uint_fast32_t arg1, uint_fast32_t arg2)
 224:../Common/IQMath/ti/./support/RTS_support.h **** {
 225:../Common/IQMath/ti/./support/RTS_support.h ****     return ((uint_fast64_t)arg1 * (uint_fast64_t)arg2);
 226:../Common/IQMath/ti/./support/RTS_support.h **** }
 227:../Common/IQMath/ti/./support/RTS_support.h **** 
 228:../Common/IQMath/ti/./support/RTS_support.h **** #if defined (__TI_COMPILER_VERSION__)
 229:../Common/IQMath/ti/./support/RTS_support.h ****     #pragma FUNC_ALWAYS_INLINE(__mpyf_l)
 230:../Common/IQMath/ti/./support/RTS_support.h **** #elif defined(__IAR_SYSTEMS_ICC__)
 231:../Common/IQMath/ti/./support/RTS_support.h ****     #pragma inline=forced
 232:../Common/IQMath/ti/./support/RTS_support.h **** #endif
 233:../Common/IQMath/ti/./support/RTS_support.h **** static inline int_fast32_t __mpyf_l(int_fast32_t arg1, int_fast32_t arg2)
 198              		.loc 2 233 28 view .LVU76
 199              	.LBB19:
 234:../Common/IQMath/ti/./support/RTS_support.h **** {
 235:../Common/IQMath/ti/./support/RTS_support.h ****     return (int_fast32_t)(((int_fast64_t)arg1 * (int_fast64_t)arg2) >> 31);
 200              		.loc 2 235 5 view .LVU77
 201              		.loc 2 235 28 is_stmt 0 view .LVU78
 202 0076 4FEAEC72 		asr	r2, ip, #31
 203              		.loc 2 235 49 view .LVU79
 204 007a D917     		asrs	r1, r3, #31
 205              		.loc 2 235 47 view .LVU80
 206 007c 0CFB01F1 		mul	r1, ip, r1
 207 0080 03FB0212 		mla	r2, r3, r2, r1
 208 0084 ACFB0331 		umull	r3, r1, ip, r3
 209              	.LVL28:
 210              		.loc 2 235 47 view .LVU81
 211 0088 0A44     		add	r2, r2, r1
 212              		.loc 2 235 69 view .LVU82
 213 008a DB0F     		lsrs	r3, r3, #31
 214 008c 43EA4203 		orr	r3, r3, r2, lsl #1
 215              	.LVL29:
 216              		.loc 2 235 69 view .LVU83
 217              	.LBE19:
 218              	.LBE18:
 115:../Common/IQMath/ti/_IQNexp.c ****     }
 219              		.loc 1 115 9 is_stmt 1 view .LVU84
 115:../Common/IQMath/ti/_IQNexp.c ****     }
 220              		.loc 1 115 46 is_stmt 0 view .LVU85
 221 0090 0246     		mov	r2, r0
 222              	.LVL30:
 115:../Common/IQMath/ti/_IQNexp.c ****     }
 223              		.loc 1 115 34 view .LVU86
 224 0092 52F8041B 		ldr	r1, [r2], #4
 225              	.LVL31:
 115:../Common/IQMath/ti/_IQNexp.c ****     }
 226              		.loc 1 115 31 view .LVU87
 227 0096 0B44     		add	r3, r3, r1
 228              	.LVL32:
ARM GAS  C:\Users\57308\AppData\Local\Temp\ccyuPR38.s 			page 13


 113:../Common/IQMath/ti/_IQNexp.c ****         uiq30FractionalResult = __mpyf_l(iq31Fractional, uiq30FractionalResult);
 229              		.loc 1 113 51 is_stmt 1 view .LVU88
 113:../Common/IQMath/ti/_IQNexp.c ****         uiq30FractionalResult = __mpyf_l(iq31Fractional, uiq30FractionalResult);
 230              		.loc 1 113 59 is_stmt 0 view .LVU89
 231 0098 013C     		subs	r4, r4, #1
 232              	.LVL33:
 113:../Common/IQMath/ti/_IQNexp.c ****         uiq30FractionalResult = __mpyf_l(iq31Fractional, uiq30FractionalResult);
 233              		.loc 1 113 59 view .LVU90
 234 009a E4B2     		uxtb	r4, r4
 235              	.LVL34:
 115:../Common/IQMath/ti/_IQNexp.c ****     }
 236              		.loc 1 115 46 view .LVU91
 237 009c 1046     		mov	r0, r2
 238              	.LVL35:
 239              	.L5:
 113:../Common/IQMath/ti/_IQNexp.c ****         uiq30FractionalResult = __mpyf_l(iq31Fractional, uiq30FractionalResult);
 240              		.loc 1 113 37 is_stmt 1 view .LVU92
 113:../Common/IQMath/ti/_IQNexp.c ****         uiq30FractionalResult = __mpyf_l(iq31Fractional, uiq30FractionalResult);
 241              		.loc 1 113 5 is_stmt 0 view .LVU93
 242 009e 002C     		cmp	r4, #0
 243 00a0 E9D1     		bne	.L6
 119:../Common/IQMath/ti/_IQNexp.c ****     
 244              		.loc 1 119 5 is_stmt 1 view .LVU94
 119:../Common/IQMath/ti/_IQNexp.c ****     
 245              		.loc 1 119 27 is_stmt 0 view .LVU95
 246 00a2 5B00     		lsls	r3, r3, #1
 247              	.LVL36:
 125:../Common/IQMath/ti/_IQNexp.c ****     
 248              		.loc 1 125 5 is_stmt 1 view .LVU96
 249              	.LBB20:
 250              	.LBI20:
 236:../Common/IQMath/ti/./support/RTS_support.h **** }
 237:../Common/IQMath/ti/./support/RTS_support.h **** 
 238:../Common/IQMath/ti/./support/RTS_support.h **** #if defined (__TI_COMPILER_VERSION__)
 239:../Common/IQMath/ti/./support/RTS_support.h ****     #pragma FUNC_ALWAYS_INLINE(__mpyf_l_reuse_arg1)
 240:../Common/IQMath/ti/./support/RTS_support.h **** #elif defined(__IAR_SYSTEMS_ICC__)
 241:../Common/IQMath/ti/./support/RTS_support.h ****     #pragma inline=forced
 242:../Common/IQMath/ti/./support/RTS_support.h **** #endif
 243:../Common/IQMath/ti/./support/RTS_support.h **** static inline int_fast32_t __mpyf_l_reuse_arg1(int_fast32_t arg1, int_fast32_t arg2)
 244:../Common/IQMath/ti/./support/RTS_support.h **** {
 245:../Common/IQMath/ti/./support/RTS_support.h ****     /* This is identical to __mpyf_l */
 246:../Common/IQMath/ti/./support/RTS_support.h ****     return (int_fast32_t)(((int_fast64_t)arg1 * (int_fast64_t)arg2) >> 31);
 247:../Common/IQMath/ti/./support/RTS_support.h **** }
 248:../Common/IQMath/ti/./support/RTS_support.h **** 
 249:../Common/IQMath/ti/./support/RTS_support.h **** #if defined (__TI_COMPILER_VERSION__)
 250:../Common/IQMath/ti/./support/RTS_support.h ****     #pragma FUNC_ALWAYS_INLINE(__mpyf_ul)
 251:../Common/IQMath/ti/./support/RTS_support.h **** #elif defined(__IAR_SYSTEMS_ICC__)
 252:../Common/IQMath/ti/./support/RTS_support.h ****     #pragma inline=forced
 253:../Common/IQMath/ti/./support/RTS_support.h **** #endif
 254:../Common/IQMath/ti/./support/RTS_support.h **** static inline uint_fast32_t __mpyf_ul(uint_fast32_t arg1, uint_fast32_t arg2)
 251              		.loc 2 254 29 view .LVU97
 252              	.LBB21:
 255:../Common/IQMath/ti/./support/RTS_support.h **** {
 256:../Common/IQMath/ti/./support/RTS_support.h ****     return (uint_fast32_t)(((uint_fast64_t)arg1 * (uint_fast64_t)arg2) >> 31);
 253              		.loc 2 256 5 view .LVU98
 254              		.loc 2 256 49 is_stmt 0 view .LVU99
 255 00a4 A5FB0353 		umull	r5, r3, r5, r3
ARM GAS  C:\Users\57308\AppData\Local\Temp\ccyuPR38.s 			page 14


 256              	.LVL37:
 257              		.loc 2 256 72 view .LVU100
 258 00a8 ED0F     		lsrs	r5, r5, #31
 259 00aa 45EA4305 		orr	r5, r5, r3, lsl #1
 260              	.LVL38:
 261              		.loc 2 256 72 view .LVU101
 262              	.LBE21:
 263              	.LBE20:
 131:../Common/IQMath/ti/_IQNexp.c ****     
 264              		.loc 1 131 5 is_stmt 1 view .LVU102
 131:../Common/IQMath/ti/_IQNexp.c ****     
 265              		.loc 1 131 5 is_stmt 0 view .LVU103
 266              	.LBE22:
 267              	.LBE25:
  72:../Common/IQMath/ti/./support/RTS_support.h **** }
 268              		.loc 2 72 5 is_stmt 1 view .LVU104
 269              	.LBB26:
 270              	.LBB23:
 134:../Common/IQMath/ti/_IQNexp.c ****     uiqNResult >>= 1;
 271              		.loc 1 134 5 view .LVU105
 134:../Common/IQMath/ti/_IQNexp.c ****     uiqNResult >>= 1;
 272              		.loc 1 134 15 is_stmt 0 view .LVU106
 273 00ae 0135     		adds	r5, r5, #1
 274              	.LVL39:
 135:../Common/IQMath/ti/_IQNexp.c ****     
 275              		.loc 1 135 5 is_stmt 1 view .LVU107
 135:../Common/IQMath/ti/_IQNexp.c ****     
 276              		.loc 1 135 16 is_stmt 0 view .LVU108
 277 00b0 6808     		lsrs	r0, r5, #1
 278              	.LVL40:
 137:../Common/IQMath/ti/_IQNexp.c **** }
 279              		.loc 1 137 5 is_stmt 1 view .LVU109
 280              	.L1:
 137:../Common/IQMath/ti/_IQNexp.c **** }
 281              		.loc 1 137 5 is_stmt 0 view .LVU110
 282              	.LBE23:
 283              	.LBE26:
 150:../Common/IQMath/ti/_IQNexp.c **** }
 284              		.loc 1 150 1 view .LVU111
 285 00b2 30BC     		pop	{r4, r5}
 286              	.LCFI1:
 287              		.cfi_remember_state
 288              		.cfi_restore 5
 289              		.cfi_restore 4
 290              		.cfi_def_cfa_offset 0
 291 00b4 7047     		bx	lr
 292              	.LVL41:
 293              	.L7:
 294              	.LCFI2:
 295              		.cfi_restore_state
 296              	.LBB27:
 297              	.LBB24:
  49:../Common/IQMath/ti/_IQNexp.c ****         }
 298              		.loc 1 49 20 view .LVU112
 299 00b6 0020     		movs	r0, #0
 300              	.LVL42:
  49:../Common/IQMath/ti/_IQNexp.c ****         }
ARM GAS  C:\Users\57308\AppData\Local\Temp\ccyuPR38.s 			page 15


 301              		.loc 1 49 20 view .LVU113
 302 00b8 FBE7     		b	.L1
 303              	.LVL43:
 304              	.L8:
  74:../Common/IQMath/ti/_IQNexp.c ****         }
 305              		.loc 1 74 20 view .LVU114
 306 00ba 6FF00040 		mvn	r0, #-2147483648
 307              	.LVL44:
  74:../Common/IQMath/ti/_IQNexp.c ****         }
 308              		.loc 1 74 20 view .LVU115
 309              	.LBE24:
 310              	.LBE27:
 149:../Common/IQMath/ti/_IQNexp.c **** }
 311              		.loc 1 149 12 view .LVU116
 312 00be F8E7     		b	.L1
 313              	.L12:
 314              		.align	2
 315              	.L11:
 316 00c0 00000000 		.word	_IQNexp_offset
 317 00c4 00000000 		.word	_IQNexp_min
 318 00c8 00000000 		.word	_IQNexp_max
 319 00cc 00000000 		.word	_IQNexp_lookup30
 320 00d0 FB0BB958 		.word	1488522235
 321 00d4 00000000 		.word	_IQ30exp_coeffs
 322 00d8 05F446A7 		.word	-1488522235
 323              		.cfi_endproc
 324              	.LFE262:
 326              		.section	.text._IQ29exp,"ax",%progbits
 327              		.align	1
 328              		.global	_IQ29exp
 329              		.syntax unified
 330              		.thumb
 331              		.thumb_func
 333              	_IQ29exp:
 334              	.LVL45:
 335              	.LFB263:
 151:../Common/IQMath/ti/_IQNexp.c **** /**
 152:../Common/IQMath/ti/_IQNexp.c ****  * @brief Computes the exponential of an IQ29 input.
 153:../Common/IQMath/ti/_IQNexp.c ****  *
 154:../Common/IQMath/ti/_IQNexp.c ****  * @param a               IQ29 type input.
 155:../Common/IQMath/ti/_IQNexp.c ****  *
 156:../Common/IQMath/ti/_IQNexp.c ****  * @return                IQ29 type result of exponential.
 157:../Common/IQMath/ti/_IQNexp.c ****  */
 158:../Common/IQMath/ti/_IQNexp.c **** int32_t _IQ29exp(int32_t a)
 159:../Common/IQMath/ti/_IQNexp.c **** {
 336              		.loc 1 159 1 is_stmt 1 view -0
 337              		.cfi_startproc
 338              		@ args = 0, pretend = 0, frame = 0
 339              		@ frame_needed = 0, uses_anonymous_args = 0
 340              		@ link register save eliminated.
 341              		.loc 1 159 1 is_stmt 0 view .LVU118
 342 0000 30B4     		push	{r4, r5}
 343              	.LCFI3:
 344              		.cfi_def_cfa_offset 8
 345              		.cfi_offset 4, -8
 346              		.cfi_offset 5, -4
 160:../Common/IQMath/ti/_IQNexp.c ****     return __IQNexp(a, _IQNexp_lookup29, _IQNexp_offset[29-1], _IQNexp_min[29-1], _IQNexp_max[29-1]
ARM GAS  C:\Users\57308\AppData\Local\Temp\ccyuPR38.s 			page 16


 347              		.loc 1 160 5 is_stmt 1 view .LVU119
 348              		.loc 1 160 12 is_stmt 0 view .LVU120
 349 0002 2F4B     		ldr	r3, .L23
 350 0004 93F87030 		ldrb	r3, [r3, #112]	@ zero_extendqisi2
 351              		.loc 1 160 75 view .LVU121
 352 0008 2E4A     		ldr	r2, .L23+4
 353 000a 116F     		ldr	r1, [r2, #112]
 354              		.loc 1 160 94 view .LVU122
 355 000c 2E4A     		ldr	r2, .L23+8
 356 000e 126F     		ldr	r2, [r2, #112]
 357              	.LVL46:
 358              	.LBB34:
 359              	.LBI34:
  32:../Common/IQMath/ti/_IQNexp.c **** {
 360              		.loc 1 32 30 is_stmt 1 view .LVU123
 361              	.LBB35:
  34:../Common/IQMath/ti/_IQNexp.c ****     int_fast16_t i16Integer;
 362              		.loc 1 34 5 view .LVU124
  35:../Common/IQMath/ti/_IQNexp.c ****     uint_fast16_t ui16IntState;
 363              		.loc 1 35 5 view .LVU125
  36:../Common/IQMath/ti/_IQNexp.c ****     uint_fast16_t ui16MPYState;
 364              		.loc 1 36 5 view .LVU126
  37:../Common/IQMath/ti/_IQNexp.c ****     int_fast32_t iq31Fractional;
 365              		.loc 1 37 5 view .LVU127
  38:../Common/IQMath/ti/_IQNexp.c ****     uint_fast32_t uiqNResult;
 366              		.loc 1 38 5 view .LVU128
  39:../Common/IQMath/ti/_IQNexp.c ****     uint_fast32_t uiqNIntegerResult;
 367              		.loc 1 39 5 view .LVU129
  40:../Common/IQMath/ti/_IQNexp.c ****     uint_fast32_t uiq30FractionalResult;
 368              		.loc 1 40 5 view .LVU130
  41:../Common/IQMath/ti/_IQNexp.c ****     uint_fast32_t uiq31FractionalResult;
 369              		.loc 1 41 5 view .LVU131
  42:../Common/IQMath/ti/_IQNexp.c ****     const uint_fast32_t *piq30Coeffs;
 370              		.loc 1 42 5 view .LVU132
  43:../Common/IQMath/ti/_IQNexp.c ****     
 371              		.loc 1 43 5 view .LVU133
  46:../Common/IQMath/ti/_IQNexp.c ****         /* Check for the minimum value. */
 372              		.loc 1 46 5 view .LVU134
  46:../Common/IQMath/ti/_IQNexp.c ****         /* Check for the minimum value. */
 373              		.loc 1 46 8 is_stmt 0 view .LVU135
 374 0010 0028     		cmp	r0, #0
  46:../Common/IQMath/ti/_IQNexp.c ****         /* Check for the minimum value. */
 375              		.loc 1 46 8 view .LVU136
 376 0012 19DB     		blt	.L22
  73:../Common/IQMath/ti/_IQNexp.c ****             return INT32_MAX;
 377              		.loc 1 73 9 is_stmt 1 view .LVU137
  73:../Common/IQMath/ti/_IQNexp.c ****             return INT32_MAX;
 378              		.loc 1 73 12 is_stmt 0 view .LVU138
 379 0014 8242     		cmp	r2, r0
 380 0016 50DB     		blt	.L20
  78:../Common/IQMath/ti/_IQNexp.c ****         iq31Fractional <<= (31 - q_value);
 381              		.loc 1 78 9 is_stmt 1 view .LVU139
 382              	.LVL47:
  79:../Common/IQMath/ti/_IQNexp.c ****         iq31Fractional &= 0x7fffffff;
 383              		.loc 1 79 9 view .LVU140
  79:../Common/IQMath/ti/_IQNexp.c ****         iq31Fractional &= 0x7fffffff;
 384              		.loc 1 79 24 is_stmt 0 view .LVU141
ARM GAS  C:\Users\57308\AppData\Local\Temp\ccyuPR38.s 			page 17


 385 0018 4FEA800C 		lsl	ip, r0, #2
 386              	.LVL48:
  80:../Common/IQMath/ti/_IQNexp.c ****     
 387              		.loc 1 80 9 is_stmt 1 view .LVU142
  80:../Common/IQMath/ti/_IQNexp.c ****     
 388              		.loc 1 80 24 is_stmt 0 view .LVU143
 389 001c 2CF0004C 		bic	ip, ip, #-2147483648
 390              	.LVL49:
  83:../Common/IQMath/ti/_IQNexp.c ****     
 391              		.loc 1 83 9 is_stmt 1 view .LVU144
  86:../Common/IQMath/ti/_IQNexp.c ****         uiqNIntegerResult = iqNLookupTable[i16Integer];
 392              		.loc 1 86 9 view .LVU145
  86:../Common/IQMath/ti/_IQNexp.c ****         uiqNIntegerResult = iqNLookupTable[i16Integer];
 393              		.loc 1 86 20 is_stmt 0 view .LVU146
 394 0020 03EB6070 		add	r0, r3, r0, asr #29
 395              	.LVL50:
  87:../Common/IQMath/ti/_IQNexp.c ****         
 396              		.loc 1 87 9 is_stmt 1 view .LVU147
  87:../Common/IQMath/ti/_IQNexp.c ****         
 397              		.loc 1 87 43 is_stmt 0 view .LVU148
 398 0024 294B     		ldr	r3, .L23+12
 399              	.LVL51:
  87:../Common/IQMath/ti/_IQNexp.c ****         
 400              		.loc 1 87 27 view .LVU149
 401 0026 53F82050 		ldr	r5, [r3, r0, lsl #2]
 402              	.LVL52:
  90:../Common/IQMath/ti/_IQNexp.c ****             iq31Fractional -= iq31_ln2;
 403              		.loc 1 90 9 is_stmt 1 view .LVU150
  90:../Common/IQMath/ti/_IQNexp.c ****             iq31Fractional -= iq31_ln2;
 404              		.loc 1 90 12 is_stmt 0 view .LVU151
 405 002a 294B     		ldr	r3, .L23+16
 406 002c 9C45     		cmp	ip, r3
 407 002e 06DD     		ble	.L16
  91:../Common/IQMath/ti/_IQNexp.c ****             uiqNIntegerResult <<= 1;
 408              		.loc 1 91 13 is_stmt 1 view .LVU152
  91:../Common/IQMath/ti/_IQNexp.c ****             uiqNIntegerResult <<= 1;
 409              		.loc 1 91 28 is_stmt 0 view .LVU153
 410 0030 ACF1B14C 		sub	ip, ip, #1484783616
 411              	.LVL53:
  91:../Common/IQMath/ti/_IQNexp.c ****             uiqNIntegerResult <<= 1;
 412              		.loc 1 91 28 view .LVU154
 413 0034 ACF5641C 		sub	ip, ip, #3735552
 414              	.LVL54:
  91:../Common/IQMath/ti/_IQNexp.c ****             uiqNIntegerResult <<= 1;
 415              		.loc 1 91 28 view .LVU155
 416 0038 ACF6FC3C 		subw	ip, ip, #3068
 417              	.LVL55:
  92:../Common/IQMath/ti/_IQNexp.c ****         }
 418              		.loc 1 92 13 is_stmt 1 view .LVU156
  92:../Common/IQMath/ti/_IQNexp.c ****         }
 419              		.loc 1 92 31 is_stmt 0 view .LVU157
 420 003c 6D00     		lsls	r5, r5, #1
 421              	.LVL56:
 422              	.L16:
 102:../Common/IQMath/ti/_IQNexp.c ****     
 423              		.loc 1 102 5 is_stmt 1 view .LVU158
 102:../Common/IQMath/ti/_IQNexp.c ****     
ARM GAS  C:\Users\57308\AppData\Local\Temp\ccyuPR38.s 			page 18


 424              		.loc 1 102 5 is_stmt 0 view .LVU159
 425              	.LBE35:
 426              	.LBE34:
  28:../Common/IQMath/ti/./support/RTS_support.h **** }
 427              		.loc 2 28 5 is_stmt 1 view .LVU160
 428              	.LBB43:
 429              	.LBB40:
 109:../Common/IQMath/ti/_IQNexp.c ****     uiq30FractionalResult = *piq30Coeffs++;
 430              		.loc 1 109 5 view .LVU161
 110:../Common/IQMath/ti/_IQNexp.c ****     
 431              		.loc 1 110 5 view .LVU162
 110:../Common/IQMath/ti/_IQNexp.c ****     
 432              		.loc 1 110 27 is_stmt 0 view .LVU163
 433 003e 2548     		ldr	r0, .L23+20
 434              	.LVL57:
 110:../Common/IQMath/ti/_IQNexp.c ****     
 435              		.loc 1 110 27 view .LVU164
 436 0040 50F8043B 		ldr	r3, [r0], #4
 437              	.LVL58:
 113:../Common/IQMath/ti/_IQNexp.c ****         uiq30FractionalResult = __mpyf_l(iq31Fractional, uiq30FractionalResult);
 438              		.loc 1 113 5 is_stmt 1 view .LVU165
 113:../Common/IQMath/ti/_IQNexp.c ****         uiq30FractionalResult = __mpyf_l(iq31Fractional, uiq30FractionalResult);
 439              		.loc 1 113 19 is_stmt 0 view .LVU166
 440 0044 0A24     		movs	r4, #10
 113:../Common/IQMath/ti/_IQNexp.c ****         uiq30FractionalResult = __mpyf_l(iq31Fractional, uiq30FractionalResult);
 441              		.loc 1 113 5 view .LVU167
 442 0046 2AE0     		b	.L17
 443              	.LVL59:
 444              	.L22:
  48:../Common/IQMath/ti/_IQNexp.c ****             return 0;
 445              		.loc 1 48 9 is_stmt 1 view .LVU168
  48:../Common/IQMath/ti/_IQNexp.c ****             return 0;
 446              		.loc 1 48 12 is_stmt 0 view .LVU169
 447 0048 8142     		cmp	r1, r0
 448 004a 34DC     		bgt	.L19
  53:../Common/IQMath/ti/_IQNexp.c ****         iq31Fractional <<= (31 - q_value);
 449              		.loc 1 53 9 is_stmt 1 view .LVU170
 450              	.LVL60:
  54:../Common/IQMath/ti/_IQNexp.c ****         iq31Fractional |= 0x80000000;
 451              		.loc 1 54 9 view .LVU171
  54:../Common/IQMath/ti/_IQNexp.c ****         iq31Fractional |= 0x80000000;
 452              		.loc 1 54 24 is_stmt 0 view .LVU172
 453 004c 4FEA800C 		lsl	ip, r0, #2
 454              	.LVL61:
  55:../Common/IQMath/ti/_IQNexp.c ****     
 455              		.loc 1 55 9 is_stmt 1 view .LVU173
  55:../Common/IQMath/ti/_IQNexp.c ****     
 456              		.loc 1 55 24 is_stmt 0 view .LVU174
 457 0050 4CF0004C 		orr	ip, ip, #-2147483648
 458              	.LVL62:
  58:../Common/IQMath/ti/_IQNexp.c ****     
 459              		.loc 1 58 9 is_stmt 1 view .LVU175
  58:../Common/IQMath/ti/_IQNexp.c ****     
 460              		.loc 1 58 46 is_stmt 0 view .LVU176
 461 0054 4017     		asrs	r0, r0, #29
 462              	.LVL63:
  58:../Common/IQMath/ti/_IQNexp.c ****     
ARM GAS  C:\Users\57308\AppData\Local\Temp\ccyuPR38.s 			page 19


 463              		.loc 1 58 20 view .LVU177
 464 0056 0130     		adds	r0, r0, #1
 465              	.LVL64:
  61:../Common/IQMath/ti/_IQNexp.c ****         uiqNIntegerResult = iqNLookupTable[i16Integer];
 466              		.loc 1 61 9 is_stmt 1 view .LVU178
  61:../Common/IQMath/ti/_IQNexp.c ****         uiqNIntegerResult = iqNLookupTable[i16Integer];
 467              		.loc 1 61 20 is_stmt 0 view .LVU179
 468 0058 1844     		add	r0, r0, r3
 469              	.LVL65:
  62:../Common/IQMath/ti/_IQNexp.c ****         
 470              		.loc 1 62 9 is_stmt 1 view .LVU180
  62:../Common/IQMath/ti/_IQNexp.c ****         
 471              		.loc 1 62 43 is_stmt 0 view .LVU181
 472 005a 1C4B     		ldr	r3, .L23+12
 473              	.LVL66:
  62:../Common/IQMath/ti/_IQNexp.c ****         
 474              		.loc 1 62 27 view .LVU182
 475 005c 53F82050 		ldr	r5, [r3, r0, lsl #2]
 476              	.LVL67:
  65:../Common/IQMath/ti/_IQNexp.c ****             iq31Fractional += iq31_ln2;
 477              		.loc 1 65 9 is_stmt 1 view .LVU183
  65:../Common/IQMath/ti/_IQNexp.c ****             iq31Fractional += iq31_ln2;
 478              		.loc 1 65 12 is_stmt 0 view .LVU184
 479 0060 1D4B     		ldr	r3, .L23+24
 480 0062 9C45     		cmp	ip, r3
 481 0064 EBDA     		bge	.L16
  66:../Common/IQMath/ti/_IQNexp.c ****             uiqNIntegerResult >>= 1;
 482              		.loc 1 66 13 is_stmt 1 view .LVU185
  66:../Common/IQMath/ti/_IQNexp.c ****             uiqNIntegerResult >>= 1;
 483              		.loc 1 66 28 is_stmt 0 view .LVU186
 484 0066 0CF1B14C 		add	ip, ip, #1484783616
 485              	.LVL68:
  66:../Common/IQMath/ti/_IQNexp.c ****             uiqNIntegerResult >>= 1;
 486              		.loc 1 66 28 view .LVU187
 487 006a 0CF5641C 		add	ip, ip, #3735552
 488              	.LVL69:
  66:../Common/IQMath/ti/_IQNexp.c ****             uiqNIntegerResult >>= 1;
 489              		.loc 1 66 28 view .LVU188
 490 006e 0CF6FC3C 		addw	ip, ip, #3068
 491              	.LVL70:
  67:../Common/IQMath/ti/_IQNexp.c ****         }
 492              		.loc 1 67 13 is_stmt 1 view .LVU189
  67:../Common/IQMath/ti/_IQNexp.c ****         }
 493              		.loc 1 67 31 is_stmt 0 view .LVU190
 494 0072 6D08     		lsrs	r5, r5, #1
 495              	.LVL71:
  67:../Common/IQMath/ti/_IQNexp.c ****         }
 496              		.loc 1 67 31 view .LVU191
 497 0074 E3E7     		b	.L16
 498              	.LVL72:
 499              	.L18:
 114:../Common/IQMath/ti/_IQNexp.c ****         uiq30FractionalResult += *piq30Coeffs++;
 500              		.loc 1 114 9 is_stmt 1 view .LVU192
 501              	.LBB36:
 502              	.LBI36:
 233:../Common/IQMath/ti/./support/RTS_support.h **** {
 503              		.loc 2 233 28 view .LVU193
ARM GAS  C:\Users\57308\AppData\Local\Temp\ccyuPR38.s 			page 20


 504              	.LBB37:
 235:../Common/IQMath/ti/./support/RTS_support.h **** }
 505              		.loc 2 235 5 view .LVU194
 235:../Common/IQMath/ti/./support/RTS_support.h **** }
 506              		.loc 2 235 28 is_stmt 0 view .LVU195
 507 0076 4FEAEC72 		asr	r2, ip, #31
 235:../Common/IQMath/ti/./support/RTS_support.h **** }
 508              		.loc 2 235 49 view .LVU196
 509 007a D917     		asrs	r1, r3, #31
 235:../Common/IQMath/ti/./support/RTS_support.h **** }
 510              		.loc 2 235 47 view .LVU197
 511 007c 0CFB01F1 		mul	r1, ip, r1
 512 0080 03FB0212 		mla	r2, r3, r2, r1
 513 0084 ACFB0331 		umull	r3, r1, ip, r3
 514              	.LVL73:
 235:../Common/IQMath/ti/./support/RTS_support.h **** }
 515              		.loc 2 235 47 view .LVU198
 516 0088 0A44     		add	r2, r2, r1
 235:../Common/IQMath/ti/./support/RTS_support.h **** }
 517              		.loc 2 235 69 view .LVU199
 518 008a DB0F     		lsrs	r3, r3, #31
 519 008c 43EA4203 		orr	r3, r3, r2, lsl #1
 520              	.LVL74:
 235:../Common/IQMath/ti/./support/RTS_support.h **** }
 521              		.loc 2 235 69 view .LVU200
 522              	.LBE37:
 523              	.LBE36:
 115:../Common/IQMath/ti/_IQNexp.c ****     }
 524              		.loc 1 115 9 is_stmt 1 view .LVU201
 115:../Common/IQMath/ti/_IQNexp.c ****     }
 525              		.loc 1 115 46 is_stmt 0 view .LVU202
 526 0090 0246     		mov	r2, r0
 527              	.LVL75:
 115:../Common/IQMath/ti/_IQNexp.c ****     }
 528              		.loc 1 115 34 view .LVU203
 529 0092 52F8041B 		ldr	r1, [r2], #4
 530              	.LVL76:
 115:../Common/IQMath/ti/_IQNexp.c ****     }
 531              		.loc 1 115 31 view .LVU204
 532 0096 0B44     		add	r3, r3, r1
 533              	.LVL77:
 113:../Common/IQMath/ti/_IQNexp.c ****         uiq30FractionalResult = __mpyf_l(iq31Fractional, uiq30FractionalResult);
 534              		.loc 1 113 51 is_stmt 1 view .LVU205
 113:../Common/IQMath/ti/_IQNexp.c ****         uiq30FractionalResult = __mpyf_l(iq31Fractional, uiq30FractionalResult);
 535              		.loc 1 113 59 is_stmt 0 view .LVU206
 536 0098 013C     		subs	r4, r4, #1
 537              	.LVL78:
 113:../Common/IQMath/ti/_IQNexp.c ****         uiq30FractionalResult = __mpyf_l(iq31Fractional, uiq30FractionalResult);
 538              		.loc 1 113 59 view .LVU207
 539 009a E4B2     		uxtb	r4, r4
 540              	.LVL79:
 115:../Common/IQMath/ti/_IQNexp.c ****     }
 541              		.loc 1 115 46 view .LVU208
 542 009c 1046     		mov	r0, r2
 543              	.LVL80:
 544              	.L17:
 113:../Common/IQMath/ti/_IQNexp.c ****         uiq30FractionalResult = __mpyf_l(iq31Fractional, uiq30FractionalResult);
ARM GAS  C:\Users\57308\AppData\Local\Temp\ccyuPR38.s 			page 21


 545              		.loc 1 113 37 is_stmt 1 view .LVU209
 113:../Common/IQMath/ti/_IQNexp.c ****         uiq30FractionalResult = __mpyf_l(iq31Fractional, uiq30FractionalResult);
 546              		.loc 1 113 5 is_stmt 0 view .LVU210
 547 009e 002C     		cmp	r4, #0
 548 00a0 E9D1     		bne	.L18
 119:../Common/IQMath/ti/_IQNexp.c ****     
 549              		.loc 1 119 5 is_stmt 1 view .LVU211
 119:../Common/IQMath/ti/_IQNexp.c ****     
 550              		.loc 1 119 27 is_stmt 0 view .LVU212
 551 00a2 5B00     		lsls	r3, r3, #1
 552              	.LVL81:
 125:../Common/IQMath/ti/_IQNexp.c ****     
 553              		.loc 1 125 5 is_stmt 1 view .LVU213
 554              	.LBB38:
 555              	.LBI38:
 254:../Common/IQMath/ti/./support/RTS_support.h **** {
 556              		.loc 2 254 29 view .LVU214
 557              	.LBB39:
 558              		.loc 2 256 5 view .LVU215
 559              		.loc 2 256 49 is_stmt 0 view .LVU216
 560 00a4 A5FB0353 		umull	r5, r3, r5, r3
 561              	.LVL82:
 562              		.loc 2 256 72 view .LVU217
 563 00a8 ED0F     		lsrs	r5, r5, #31
 564 00aa 45EA4305 		orr	r5, r5, r3, lsl #1
 565              	.LVL83:
 566              		.loc 2 256 72 view .LVU218
 567              	.LBE39:
 568              	.LBE38:
 131:../Common/IQMath/ti/_IQNexp.c ****     
 569              		.loc 1 131 5 is_stmt 1 view .LVU219
 131:../Common/IQMath/ti/_IQNexp.c ****     
 570              		.loc 1 131 5 is_stmt 0 view .LVU220
 571              	.LBE40:
 572              	.LBE43:
  72:../Common/IQMath/ti/./support/RTS_support.h **** }
 573              		.loc 2 72 5 is_stmt 1 view .LVU221
 574              	.LBB44:
 575              	.LBB41:
 134:../Common/IQMath/ti/_IQNexp.c ****     uiqNResult >>= 1;
 576              		.loc 1 134 5 view .LVU222
 134:../Common/IQMath/ti/_IQNexp.c ****     uiqNResult >>= 1;
 577              		.loc 1 134 15 is_stmt 0 view .LVU223
 578 00ae 0135     		adds	r5, r5, #1
 579              	.LVL84:
 135:../Common/IQMath/ti/_IQNexp.c ****     
 580              		.loc 1 135 5 is_stmt 1 view .LVU224
 135:../Common/IQMath/ti/_IQNexp.c ****     
 581              		.loc 1 135 16 is_stmt 0 view .LVU225
 582 00b0 6808     		lsrs	r0, r5, #1
 583              	.LVL85:
 137:../Common/IQMath/ti/_IQNexp.c **** }
 584              		.loc 1 137 5 is_stmt 1 view .LVU226
 585              	.L13:
 137:../Common/IQMath/ti/_IQNexp.c **** }
 586              		.loc 1 137 5 is_stmt 0 view .LVU227
 587              	.LBE41:
ARM GAS  C:\Users\57308\AppData\Local\Temp\ccyuPR38.s 			page 22


 588              	.LBE44:
 161:../Common/IQMath/ti/_IQNexp.c **** }
 589              		.loc 1 161 1 view .LVU228
 590 00b2 30BC     		pop	{r4, r5}
 591              	.LCFI4:
 592              		.cfi_remember_state
 593              		.cfi_restore 5
 594              		.cfi_restore 4
 595              		.cfi_def_cfa_offset 0
 596 00b4 7047     		bx	lr
 597              	.LVL86:
 598              	.L19:
 599              	.LCFI5:
 600              		.cfi_restore_state
 601              	.LBB45:
 602              	.LBB42:
  49:../Common/IQMath/ti/_IQNexp.c ****         }
 603              		.loc 1 49 20 view .LVU229
 604 00b6 0020     		movs	r0, #0
 605              	.LVL87:
  49:../Common/IQMath/ti/_IQNexp.c ****         }
 606              		.loc 1 49 20 view .LVU230
 607 00b8 FBE7     		b	.L13
 608              	.LVL88:
 609              	.L20:
  74:../Common/IQMath/ti/_IQNexp.c ****         }
 610              		.loc 1 74 20 view .LVU231
 611 00ba 6FF00040 		mvn	r0, #-2147483648
 612              	.LVL89:
  74:../Common/IQMath/ti/_IQNexp.c ****         }
 613              		.loc 1 74 20 view .LVU232
 614              	.LBE42:
 615              	.LBE45:
 160:../Common/IQMath/ti/_IQNexp.c **** }
 616              		.loc 1 160 12 view .LVU233
 617 00be F8E7     		b	.L13
 618              	.L24:
 619              		.align	2
 620              	.L23:
 621 00c0 00000000 		.word	_IQNexp_offset
 622 00c4 00000000 		.word	_IQNexp_min
 623 00c8 00000000 		.word	_IQNexp_max
 624 00cc 00000000 		.word	_IQNexp_lookup29
 625 00d0 FB0BB958 		.word	1488522235
 626 00d4 00000000 		.word	_IQ30exp_coeffs
 627 00d8 05F446A7 		.word	-1488522235
 628              		.cfi_endproc
 629              	.LFE263:
 631              		.section	.text._IQ28exp,"ax",%progbits
 632              		.align	1
 633              		.global	_IQ28exp
 634              		.syntax unified
 635              		.thumb
 636              		.thumb_func
 638              	_IQ28exp:
 639              	.LVL90:
 640              	.LFB264:
ARM GAS  C:\Users\57308\AppData\Local\Temp\ccyuPR38.s 			page 23


 162:../Common/IQMath/ti/_IQNexp.c **** /**
 163:../Common/IQMath/ti/_IQNexp.c ****  * @brief Computes the exponential of an IQ28 input.
 164:../Common/IQMath/ti/_IQNexp.c ****  *
 165:../Common/IQMath/ti/_IQNexp.c ****  * @param a               IQ28 type input.
 166:../Common/IQMath/ti/_IQNexp.c ****  *
 167:../Common/IQMath/ti/_IQNexp.c ****  * @return                IQ28 type result of exponential.
 168:../Common/IQMath/ti/_IQNexp.c ****  */
 169:../Common/IQMath/ti/_IQNexp.c **** int32_t _IQ28exp(int32_t a)
 170:../Common/IQMath/ti/_IQNexp.c **** {
 641              		.loc 1 170 1 is_stmt 1 view -0
 642              		.cfi_startproc
 643              		@ args = 0, pretend = 0, frame = 0
 644              		@ frame_needed = 0, uses_anonymous_args = 0
 645              		@ link register save eliminated.
 646              		.loc 1 170 1 is_stmt 0 view .LVU235
 647 0000 30B4     		push	{r4, r5}
 648              	.LCFI6:
 649              		.cfi_def_cfa_offset 8
 650              		.cfi_offset 4, -8
 651              		.cfi_offset 5, -4
 171:../Common/IQMath/ti/_IQNexp.c ****     return __IQNexp(a, _IQNexp_lookup28, _IQNexp_offset[28-1], _IQNexp_min[28-1], _IQNexp_max[28-1]
 652              		.loc 1 171 5 is_stmt 1 view .LVU236
 653              		.loc 1 171 12 is_stmt 0 view .LVU237
 654 0002 2F4B     		ldr	r3, .L35
 655 0004 93F86C30 		ldrb	r3, [r3, #108]	@ zero_extendqisi2
 656              		.loc 1 171 75 view .LVU238
 657 0008 2E4A     		ldr	r2, .L35+4
 658 000a D16E     		ldr	r1, [r2, #108]
 659              		.loc 1 171 94 view .LVU239
 660 000c 2E4A     		ldr	r2, .L35+8
 661 000e D26E     		ldr	r2, [r2, #108]
 662              	.LVL91:
 663              	.LBB52:
 664              	.LBI52:
  32:../Common/IQMath/ti/_IQNexp.c **** {
 665              		.loc 1 32 30 is_stmt 1 view .LVU240
 666              	.LBB53:
  34:../Common/IQMath/ti/_IQNexp.c ****     int_fast16_t i16Integer;
 667              		.loc 1 34 5 view .LVU241
  35:../Common/IQMath/ti/_IQNexp.c ****     uint_fast16_t ui16IntState;
 668              		.loc 1 35 5 view .LVU242
  36:../Common/IQMath/ti/_IQNexp.c ****     uint_fast16_t ui16MPYState;
 669              		.loc 1 36 5 view .LVU243
  37:../Common/IQMath/ti/_IQNexp.c ****     int_fast32_t iq31Fractional;
 670              		.loc 1 37 5 view .LVU244
  38:../Common/IQMath/ti/_IQNexp.c ****     uint_fast32_t uiqNResult;
 671              		.loc 1 38 5 view .LVU245
  39:../Common/IQMath/ti/_IQNexp.c ****     uint_fast32_t uiqNIntegerResult;
 672              		.loc 1 39 5 view .LVU246
  40:../Common/IQMath/ti/_IQNexp.c ****     uint_fast32_t uiq30FractionalResult;
 673              		.loc 1 40 5 view .LVU247
  41:../Common/IQMath/ti/_IQNexp.c ****     uint_fast32_t uiq31FractionalResult;
 674              		.loc 1 41 5 view .LVU248
  42:../Common/IQMath/ti/_IQNexp.c ****     const uint_fast32_t *piq30Coeffs;
 675              		.loc 1 42 5 view .LVU249
  43:../Common/IQMath/ti/_IQNexp.c ****     
 676              		.loc 1 43 5 view .LVU250
ARM GAS  C:\Users\57308\AppData\Local\Temp\ccyuPR38.s 			page 24


  46:../Common/IQMath/ti/_IQNexp.c ****         /* Check for the minimum value. */
 677              		.loc 1 46 5 view .LVU251
  46:../Common/IQMath/ti/_IQNexp.c ****         /* Check for the minimum value. */
 678              		.loc 1 46 8 is_stmt 0 view .LVU252
 679 0010 0028     		cmp	r0, #0
  46:../Common/IQMath/ti/_IQNexp.c ****         /* Check for the minimum value. */
 680              		.loc 1 46 8 view .LVU253
 681 0012 19DB     		blt	.L34
  73:../Common/IQMath/ti/_IQNexp.c ****             return INT32_MAX;
 682              		.loc 1 73 9 is_stmt 1 view .LVU254
  73:../Common/IQMath/ti/_IQNexp.c ****             return INT32_MAX;
 683              		.loc 1 73 12 is_stmt 0 view .LVU255
 684 0014 8242     		cmp	r2, r0
 685 0016 50DB     		blt	.L32
  78:../Common/IQMath/ti/_IQNexp.c ****         iq31Fractional <<= (31 - q_value);
 686              		.loc 1 78 9 is_stmt 1 view .LVU256
 687              	.LVL92:
  79:../Common/IQMath/ti/_IQNexp.c ****         iq31Fractional &= 0x7fffffff;
 688              		.loc 1 79 9 view .LVU257
  79:../Common/IQMath/ti/_IQNexp.c ****         iq31Fractional &= 0x7fffffff;
 689              		.loc 1 79 24 is_stmt 0 view .LVU258
 690 0018 4FEAC00C 		lsl	ip, r0, #3
 691              	.LVL93:
  80:../Common/IQMath/ti/_IQNexp.c ****     
 692              		.loc 1 80 9 is_stmt 1 view .LVU259
  80:../Common/IQMath/ti/_IQNexp.c ****     
 693              		.loc 1 80 24 is_stmt 0 view .LVU260
 694 001c 2CF0004C 		bic	ip, ip, #-2147483648
 695              	.LVL94:
  83:../Common/IQMath/ti/_IQNexp.c ****     
 696              		.loc 1 83 9 is_stmt 1 view .LVU261
  86:../Common/IQMath/ti/_IQNexp.c ****         uiqNIntegerResult = iqNLookupTable[i16Integer];
 697              		.loc 1 86 9 view .LVU262
  86:../Common/IQMath/ti/_IQNexp.c ****         uiqNIntegerResult = iqNLookupTable[i16Integer];
 698              		.loc 1 86 20 is_stmt 0 view .LVU263
 699 0020 03EB2070 		add	r0, r3, r0, asr #28
 700              	.LVL95:
  87:../Common/IQMath/ti/_IQNexp.c ****         
 701              		.loc 1 87 9 is_stmt 1 view .LVU264
  87:../Common/IQMath/ti/_IQNexp.c ****         
 702              		.loc 1 87 43 is_stmt 0 view .LVU265
 703 0024 294B     		ldr	r3, .L35+12
 704              	.LVL96:
  87:../Common/IQMath/ti/_IQNexp.c ****         
 705              		.loc 1 87 27 view .LVU266
 706 0026 53F82050 		ldr	r5, [r3, r0, lsl #2]
 707              	.LVL97:
  90:../Common/IQMath/ti/_IQNexp.c ****             iq31Fractional -= iq31_ln2;
 708              		.loc 1 90 9 is_stmt 1 view .LVU267
  90:../Common/IQMath/ti/_IQNexp.c ****             iq31Fractional -= iq31_ln2;
 709              		.loc 1 90 12 is_stmt 0 view .LVU268
 710 002a 294B     		ldr	r3, .L35+16
 711 002c 9C45     		cmp	ip, r3
 712 002e 06DD     		ble	.L28
  91:../Common/IQMath/ti/_IQNexp.c ****             uiqNIntegerResult <<= 1;
 713              		.loc 1 91 13 is_stmt 1 view .LVU269
  91:../Common/IQMath/ti/_IQNexp.c ****             uiqNIntegerResult <<= 1;
ARM GAS  C:\Users\57308\AppData\Local\Temp\ccyuPR38.s 			page 25


 714              		.loc 1 91 28 is_stmt 0 view .LVU270
 715 0030 ACF1B14C 		sub	ip, ip, #1484783616
 716              	.LVL98:
  91:../Common/IQMath/ti/_IQNexp.c ****             uiqNIntegerResult <<= 1;
 717              		.loc 1 91 28 view .LVU271
 718 0034 ACF5641C 		sub	ip, ip, #3735552
 719              	.LVL99:
  91:../Common/IQMath/ti/_IQNexp.c ****             uiqNIntegerResult <<= 1;
 720              		.loc 1 91 28 view .LVU272
 721 0038 ACF6FC3C 		subw	ip, ip, #3068
 722              	.LVL100:
  92:../Common/IQMath/ti/_IQNexp.c ****         }
 723              		.loc 1 92 13 is_stmt 1 view .LVU273
  92:../Common/IQMath/ti/_IQNexp.c ****         }
 724              		.loc 1 92 31 is_stmt 0 view .LVU274
 725 003c 6D00     		lsls	r5, r5, #1
 726              	.LVL101:
 727              	.L28:
 102:../Common/IQMath/ti/_IQNexp.c ****     
 728              		.loc 1 102 5 is_stmt 1 view .LVU275
 102:../Common/IQMath/ti/_IQNexp.c ****     
 729              		.loc 1 102 5 is_stmt 0 view .LVU276
 730              	.LBE53:
 731              	.LBE52:
  28:../Common/IQMath/ti/./support/RTS_support.h **** }
 732              		.loc 2 28 5 is_stmt 1 view .LVU277
 733              	.LBB61:
 734              	.LBB58:
 109:../Common/IQMath/ti/_IQNexp.c ****     uiq30FractionalResult = *piq30Coeffs++;
 735              		.loc 1 109 5 view .LVU278
 110:../Common/IQMath/ti/_IQNexp.c ****     
 736              		.loc 1 110 5 view .LVU279
 110:../Common/IQMath/ti/_IQNexp.c ****     
 737              		.loc 1 110 27 is_stmt 0 view .LVU280
 738 003e 2548     		ldr	r0, .L35+20
 739              	.LVL102:
 110:../Common/IQMath/ti/_IQNexp.c ****     
 740              		.loc 1 110 27 view .LVU281
 741 0040 50F8043B 		ldr	r3, [r0], #4
 742              	.LVL103:
 113:../Common/IQMath/ti/_IQNexp.c ****         uiq30FractionalResult = __mpyf_l(iq31Fractional, uiq30FractionalResult);
 743              		.loc 1 113 5 is_stmt 1 view .LVU282
 113:../Common/IQMath/ti/_IQNexp.c ****         uiq30FractionalResult = __mpyf_l(iq31Fractional, uiq30FractionalResult);
 744              		.loc 1 113 19 is_stmt 0 view .LVU283
 745 0044 0A24     		movs	r4, #10
 113:../Common/IQMath/ti/_IQNexp.c ****         uiq30FractionalResult = __mpyf_l(iq31Fractional, uiq30FractionalResult);
 746              		.loc 1 113 5 view .LVU284
 747 0046 2AE0     		b	.L29
 748              	.LVL104:
 749              	.L34:
  48:../Common/IQMath/ti/_IQNexp.c ****             return 0;
 750              		.loc 1 48 9 is_stmt 1 view .LVU285
  48:../Common/IQMath/ti/_IQNexp.c ****             return 0;
 751              		.loc 1 48 12 is_stmt 0 view .LVU286
 752 0048 8142     		cmp	r1, r0
 753 004a 34DC     		bgt	.L31
  53:../Common/IQMath/ti/_IQNexp.c ****         iq31Fractional <<= (31 - q_value);
ARM GAS  C:\Users\57308\AppData\Local\Temp\ccyuPR38.s 			page 26


 754              		.loc 1 53 9 is_stmt 1 view .LVU287
 755              	.LVL105:
  54:../Common/IQMath/ti/_IQNexp.c ****         iq31Fractional |= 0x80000000;
 756              		.loc 1 54 9 view .LVU288
  54:../Common/IQMath/ti/_IQNexp.c ****         iq31Fractional |= 0x80000000;
 757              		.loc 1 54 24 is_stmt 0 view .LVU289
 758 004c 4FEAC00C 		lsl	ip, r0, #3
 759              	.LVL106:
  55:../Common/IQMath/ti/_IQNexp.c ****     
 760              		.loc 1 55 9 is_stmt 1 view .LVU290
  55:../Common/IQMath/ti/_IQNexp.c ****     
 761              		.loc 1 55 24 is_stmt 0 view .LVU291
 762 0050 4CF0004C 		orr	ip, ip, #-2147483648
 763              	.LVL107:
  58:../Common/IQMath/ti/_IQNexp.c ****     
 764              		.loc 1 58 9 is_stmt 1 view .LVU292
  58:../Common/IQMath/ti/_IQNexp.c ****     
 765              		.loc 1 58 46 is_stmt 0 view .LVU293
 766 0054 0017     		asrs	r0, r0, #28
 767              	.LVL108:
  58:../Common/IQMath/ti/_IQNexp.c ****     
 768              		.loc 1 58 20 view .LVU294
 769 0056 0130     		adds	r0, r0, #1
 770              	.LVL109:
  61:../Common/IQMath/ti/_IQNexp.c ****         uiqNIntegerResult = iqNLookupTable[i16Integer];
 771              		.loc 1 61 9 is_stmt 1 view .LVU295
  61:../Common/IQMath/ti/_IQNexp.c ****         uiqNIntegerResult = iqNLookupTable[i16Integer];
 772              		.loc 1 61 20 is_stmt 0 view .LVU296
 773 0058 1844     		add	r0, r0, r3
 774              	.LVL110:
  62:../Common/IQMath/ti/_IQNexp.c ****         
 775              		.loc 1 62 9 is_stmt 1 view .LVU297
  62:../Common/IQMath/ti/_IQNexp.c ****         
 776              		.loc 1 62 43 is_stmt 0 view .LVU298
 777 005a 1C4B     		ldr	r3, .L35+12
 778              	.LVL111:
  62:../Common/IQMath/ti/_IQNexp.c ****         
 779              		.loc 1 62 27 view .LVU299
 780 005c 53F82050 		ldr	r5, [r3, r0, lsl #2]
 781              	.LVL112:
  65:../Common/IQMath/ti/_IQNexp.c ****             iq31Fractional += iq31_ln2;
 782              		.loc 1 65 9 is_stmt 1 view .LVU300
  65:../Common/IQMath/ti/_IQNexp.c ****             iq31Fractional += iq31_ln2;
 783              		.loc 1 65 12 is_stmt 0 view .LVU301
 784 0060 1D4B     		ldr	r3, .L35+24
 785 0062 9C45     		cmp	ip, r3
 786 0064 EBDA     		bge	.L28
  66:../Common/IQMath/ti/_IQNexp.c ****             uiqNIntegerResult >>= 1;
 787              		.loc 1 66 13 is_stmt 1 view .LVU302
  66:../Common/IQMath/ti/_IQNexp.c ****             uiqNIntegerResult >>= 1;
 788              		.loc 1 66 28 is_stmt 0 view .LVU303
 789 0066 0CF1B14C 		add	ip, ip, #1484783616
 790              	.LVL113:
  66:../Common/IQMath/ti/_IQNexp.c ****             uiqNIntegerResult >>= 1;
 791              		.loc 1 66 28 view .LVU304
 792 006a 0CF5641C 		add	ip, ip, #3735552
 793              	.LVL114:
ARM GAS  C:\Users\57308\AppData\Local\Temp\ccyuPR38.s 			page 27


  66:../Common/IQMath/ti/_IQNexp.c ****             uiqNIntegerResult >>= 1;
 794              		.loc 1 66 28 view .LVU305
 795 006e 0CF6FC3C 		addw	ip, ip, #3068
 796              	.LVL115:
  67:../Common/IQMath/ti/_IQNexp.c ****         }
 797              		.loc 1 67 13 is_stmt 1 view .LVU306
  67:../Common/IQMath/ti/_IQNexp.c ****         }
 798              		.loc 1 67 31 is_stmt 0 view .LVU307
 799 0072 6D08     		lsrs	r5, r5, #1
 800              	.LVL116:
  67:../Common/IQMath/ti/_IQNexp.c ****         }
 801              		.loc 1 67 31 view .LVU308
 802 0074 E3E7     		b	.L28
 803              	.LVL117:
 804              	.L30:
 114:../Common/IQMath/ti/_IQNexp.c ****         uiq30FractionalResult += *piq30Coeffs++;
 805              		.loc 1 114 9 is_stmt 1 view .LVU309
 806              	.LBB54:
 807              	.LBI54:
 233:../Common/IQMath/ti/./support/RTS_support.h **** {
 808              		.loc 2 233 28 view .LVU310
 809              	.LBB55:
 235:../Common/IQMath/ti/./support/RTS_support.h **** }
 810              		.loc 2 235 5 view .LVU311
 235:../Common/IQMath/ti/./support/RTS_support.h **** }
 811              		.loc 2 235 28 is_stmt 0 view .LVU312
 812 0076 4FEAEC72 		asr	r2, ip, #31
 235:../Common/IQMath/ti/./support/RTS_support.h **** }
 813              		.loc 2 235 49 view .LVU313
 814 007a D917     		asrs	r1, r3, #31
 235:../Common/IQMath/ti/./support/RTS_support.h **** }
 815              		.loc 2 235 47 view .LVU314
 816 007c 0CFB01F1 		mul	r1, ip, r1
 817 0080 03FB0212 		mla	r2, r3, r2, r1
 818 0084 ACFB0331 		umull	r3, r1, ip, r3
 819              	.LVL118:
 235:../Common/IQMath/ti/./support/RTS_support.h **** }
 820              		.loc 2 235 47 view .LVU315
 821 0088 0A44     		add	r2, r2, r1
 235:../Common/IQMath/ti/./support/RTS_support.h **** }
 822              		.loc 2 235 69 view .LVU316
 823 008a DB0F     		lsrs	r3, r3, #31
 824 008c 43EA4203 		orr	r3, r3, r2, lsl #1
 825              	.LVL119:
 235:../Common/IQMath/ti/./support/RTS_support.h **** }
 826              		.loc 2 235 69 view .LVU317
 827              	.LBE55:
 828              	.LBE54:
 115:../Common/IQMath/ti/_IQNexp.c ****     }
 829              		.loc 1 115 9 is_stmt 1 view .LVU318
 115:../Common/IQMath/ti/_IQNexp.c ****     }
 830              		.loc 1 115 46 is_stmt 0 view .LVU319
 831 0090 0246     		mov	r2, r0
 832              	.LVL120:
 115:../Common/IQMath/ti/_IQNexp.c ****     }
 833              		.loc 1 115 34 view .LVU320
 834 0092 52F8041B 		ldr	r1, [r2], #4
ARM GAS  C:\Users\57308\AppData\Local\Temp\ccyuPR38.s 			page 28


 835              	.LVL121:
 115:../Common/IQMath/ti/_IQNexp.c ****     }
 836              		.loc 1 115 31 view .LVU321
 837 0096 0B44     		add	r3, r3, r1
 838              	.LVL122:
 113:../Common/IQMath/ti/_IQNexp.c ****         uiq30FractionalResult = __mpyf_l(iq31Fractional, uiq30FractionalResult);
 839              		.loc 1 113 51 is_stmt 1 view .LVU322
 113:../Common/IQMath/ti/_IQNexp.c ****         uiq30FractionalResult = __mpyf_l(iq31Fractional, uiq30FractionalResult);
 840              		.loc 1 113 59 is_stmt 0 view .LVU323
 841 0098 013C     		subs	r4, r4, #1
 842              	.LVL123:
 113:../Common/IQMath/ti/_IQNexp.c ****         uiq30FractionalResult = __mpyf_l(iq31Fractional, uiq30FractionalResult);
 843              		.loc 1 113 59 view .LVU324
 844 009a E4B2     		uxtb	r4, r4
 845              	.LVL124:
 115:../Common/IQMath/ti/_IQNexp.c ****     }
 846              		.loc 1 115 46 view .LVU325
 847 009c 1046     		mov	r0, r2
 848              	.LVL125:
 849              	.L29:
 113:../Common/IQMath/ti/_IQNexp.c ****         uiq30FractionalResult = __mpyf_l(iq31Fractional, uiq30FractionalResult);
 850              		.loc 1 113 37 is_stmt 1 view .LVU326
 113:../Common/IQMath/ti/_IQNexp.c ****         uiq30FractionalResult = __mpyf_l(iq31Fractional, uiq30FractionalResult);
 851              		.loc 1 113 5 is_stmt 0 view .LVU327
 852 009e 002C     		cmp	r4, #0
 853 00a0 E9D1     		bne	.L30
 119:../Common/IQMath/ti/_IQNexp.c ****     
 854              		.loc 1 119 5 is_stmt 1 view .LVU328
 119:../Common/IQMath/ti/_IQNexp.c ****     
 855              		.loc 1 119 27 is_stmt 0 view .LVU329
 856 00a2 5B00     		lsls	r3, r3, #1
 857              	.LVL126:
 125:../Common/IQMath/ti/_IQNexp.c ****     
 858              		.loc 1 125 5 is_stmt 1 view .LVU330
 859              	.LBB56:
 860              	.LBI56:
 254:../Common/IQMath/ti/./support/RTS_support.h **** {
 861              		.loc 2 254 29 view .LVU331
 862              	.LBB57:
 863              		.loc 2 256 5 view .LVU332
 864              		.loc 2 256 49 is_stmt 0 view .LVU333
 865 00a4 A5FB0353 		umull	r5, r3, r5, r3
 866              	.LVL127:
 867              		.loc 2 256 72 view .LVU334
 868 00a8 ED0F     		lsrs	r5, r5, #31
 869 00aa 45EA4305 		orr	r5, r5, r3, lsl #1
 870              	.LVL128:
 871              		.loc 2 256 72 view .LVU335
 872              	.LBE57:
 873              	.LBE56:
 131:../Common/IQMath/ti/_IQNexp.c ****     
 874              		.loc 1 131 5 is_stmt 1 view .LVU336
 131:../Common/IQMath/ti/_IQNexp.c ****     
 875              		.loc 1 131 5 is_stmt 0 view .LVU337
 876              	.LBE58:
 877              	.LBE61:
  72:../Common/IQMath/ti/./support/RTS_support.h **** }
ARM GAS  C:\Users\57308\AppData\Local\Temp\ccyuPR38.s 			page 29


 878              		.loc 2 72 5 is_stmt 1 view .LVU338
 879              	.LBB62:
 880              	.LBB59:
 134:../Common/IQMath/ti/_IQNexp.c ****     uiqNResult >>= 1;
 881              		.loc 1 134 5 view .LVU339
 134:../Common/IQMath/ti/_IQNexp.c ****     uiqNResult >>= 1;
 882              		.loc 1 134 15 is_stmt 0 view .LVU340
 883 00ae 0135     		adds	r5, r5, #1
 884              	.LVL129:
 135:../Common/IQMath/ti/_IQNexp.c ****     
 885              		.loc 1 135 5 is_stmt 1 view .LVU341
 135:../Common/IQMath/ti/_IQNexp.c ****     
 886              		.loc 1 135 16 is_stmt 0 view .LVU342
 887 00b0 6808     		lsrs	r0, r5, #1
 888              	.LVL130:
 137:../Common/IQMath/ti/_IQNexp.c **** }
 889              		.loc 1 137 5 is_stmt 1 view .LVU343
 890              	.L25:
 137:../Common/IQMath/ti/_IQNexp.c **** }
 891              		.loc 1 137 5 is_stmt 0 view .LVU344
 892              	.LBE59:
 893              	.LBE62:
 172:../Common/IQMath/ti/_IQNexp.c **** }
 894              		.loc 1 172 1 view .LVU345
 895 00b2 30BC     		pop	{r4, r5}
 896              	.LCFI7:
 897              		.cfi_remember_state
 898              		.cfi_restore 5
 899              		.cfi_restore 4
 900              		.cfi_def_cfa_offset 0
 901 00b4 7047     		bx	lr
 902              	.LVL131:
 903              	.L31:
 904              	.LCFI8:
 905              		.cfi_restore_state
 906              	.LBB63:
 907              	.LBB60:
  49:../Common/IQMath/ti/_IQNexp.c ****         }
 908              		.loc 1 49 20 view .LVU346
 909 00b6 0020     		movs	r0, #0
 910              	.LVL132:
  49:../Common/IQMath/ti/_IQNexp.c ****         }
 911              		.loc 1 49 20 view .LVU347
 912 00b8 FBE7     		b	.L25
 913              	.LVL133:
 914              	.L32:
  74:../Common/IQMath/ti/_IQNexp.c ****         }
 915              		.loc 1 74 20 view .LVU348
 916 00ba 6FF00040 		mvn	r0, #-2147483648
 917              	.LVL134:
  74:../Common/IQMath/ti/_IQNexp.c ****         }
 918              		.loc 1 74 20 view .LVU349
 919              	.LBE60:
 920              	.LBE63:
 171:../Common/IQMath/ti/_IQNexp.c **** }
 921              		.loc 1 171 12 view .LVU350
 922 00be F8E7     		b	.L25
ARM GAS  C:\Users\57308\AppData\Local\Temp\ccyuPR38.s 			page 30


 923              	.L36:
 924              		.align	2
 925              	.L35:
 926 00c0 00000000 		.word	_IQNexp_offset
 927 00c4 00000000 		.word	_IQNexp_min
 928 00c8 00000000 		.word	_IQNexp_max
 929 00cc 00000000 		.word	_IQNexp_lookup28
 930 00d0 FB0BB958 		.word	1488522235
 931 00d4 00000000 		.word	_IQ30exp_coeffs
 932 00d8 05F446A7 		.word	-1488522235
 933              		.cfi_endproc
 934              	.LFE264:
 936              		.section	.text._IQ27exp,"ax",%progbits
 937              		.align	1
 938              		.global	_IQ27exp
 939              		.syntax unified
 940              		.thumb
 941              		.thumb_func
 943              	_IQ27exp:
 944              	.LVL135:
 945              	.LFB265:
 173:../Common/IQMath/ti/_IQNexp.c **** /**
 174:../Common/IQMath/ti/_IQNexp.c ****  * @brief Computes the exponential of an IQ27 input.
 175:../Common/IQMath/ti/_IQNexp.c ****  *
 176:../Common/IQMath/ti/_IQNexp.c ****  * @param a               IQ27 type input.
 177:../Common/IQMath/ti/_IQNexp.c ****  *
 178:../Common/IQMath/ti/_IQNexp.c ****  * @return                IQ27 type result of exponential.
 179:../Common/IQMath/ti/_IQNexp.c ****  */
 180:../Common/IQMath/ti/_IQNexp.c **** int32_t _IQ27exp(int32_t a)
 181:../Common/IQMath/ti/_IQNexp.c **** {
 946              		.loc 1 181 1 is_stmt 1 view -0
 947              		.cfi_startproc
 948              		@ args = 0, pretend = 0, frame = 0
 949              		@ frame_needed = 0, uses_anonymous_args = 0
 950              		@ link register save eliminated.
 951              		.loc 1 181 1 is_stmt 0 view .LVU352
 952 0000 30B4     		push	{r4, r5}
 953              	.LCFI9:
 954              		.cfi_def_cfa_offset 8
 955              		.cfi_offset 4, -8
 956              		.cfi_offset 5, -4
 182:../Common/IQMath/ti/_IQNexp.c ****     return __IQNexp(a, _IQNexp_lookup27, _IQNexp_offset[27-1], _IQNexp_min[27-1], _IQNexp_max[27-1]
 957              		.loc 1 182 5 is_stmt 1 view .LVU353
 958              		.loc 1 182 12 is_stmt 0 view .LVU354
 959 0002 2F4B     		ldr	r3, .L47
 960 0004 93F86830 		ldrb	r3, [r3, #104]	@ zero_extendqisi2
 961              		.loc 1 182 75 view .LVU355
 962 0008 2E4A     		ldr	r2, .L47+4
 963 000a 916E     		ldr	r1, [r2, #104]
 964              		.loc 1 182 94 view .LVU356
 965 000c 2E4A     		ldr	r2, .L47+8
 966 000e 926E     		ldr	r2, [r2, #104]
 967              	.LVL136:
 968              	.LBB70:
 969              	.LBI70:
  32:../Common/IQMath/ti/_IQNexp.c **** {
 970              		.loc 1 32 30 is_stmt 1 view .LVU357
ARM GAS  C:\Users\57308\AppData\Local\Temp\ccyuPR38.s 			page 31


 971              	.LBB71:
  34:../Common/IQMath/ti/_IQNexp.c ****     int_fast16_t i16Integer;
 972              		.loc 1 34 5 view .LVU358
  35:../Common/IQMath/ti/_IQNexp.c ****     uint_fast16_t ui16IntState;
 973              		.loc 1 35 5 view .LVU359
  36:../Common/IQMath/ti/_IQNexp.c ****     uint_fast16_t ui16MPYState;
 974              		.loc 1 36 5 view .LVU360
  37:../Common/IQMath/ti/_IQNexp.c ****     int_fast32_t iq31Fractional;
 975              		.loc 1 37 5 view .LVU361
  38:../Common/IQMath/ti/_IQNexp.c ****     uint_fast32_t uiqNResult;
 976              		.loc 1 38 5 view .LVU362
  39:../Common/IQMath/ti/_IQNexp.c ****     uint_fast32_t uiqNIntegerResult;
 977              		.loc 1 39 5 view .LVU363
  40:../Common/IQMath/ti/_IQNexp.c ****     uint_fast32_t uiq30FractionalResult;
 978              		.loc 1 40 5 view .LVU364
  41:../Common/IQMath/ti/_IQNexp.c ****     uint_fast32_t uiq31FractionalResult;
 979              		.loc 1 41 5 view .LVU365
  42:../Common/IQMath/ti/_IQNexp.c ****     const uint_fast32_t *piq30Coeffs;
 980              		.loc 1 42 5 view .LVU366
  43:../Common/IQMath/ti/_IQNexp.c ****     
 981              		.loc 1 43 5 view .LVU367
  46:../Common/IQMath/ti/_IQNexp.c ****         /* Check for the minimum value. */
 982              		.loc 1 46 5 view .LVU368
  46:../Common/IQMath/ti/_IQNexp.c ****         /* Check for the minimum value. */
 983              		.loc 1 46 8 is_stmt 0 view .LVU369
 984 0010 0028     		cmp	r0, #0
  46:../Common/IQMath/ti/_IQNexp.c ****         /* Check for the minimum value. */
 985              		.loc 1 46 8 view .LVU370
 986 0012 19DB     		blt	.L46
  73:../Common/IQMath/ti/_IQNexp.c ****             return INT32_MAX;
 987              		.loc 1 73 9 is_stmt 1 view .LVU371
  73:../Common/IQMath/ti/_IQNexp.c ****             return INT32_MAX;
 988              		.loc 1 73 12 is_stmt 0 view .LVU372
 989 0014 8242     		cmp	r2, r0
 990 0016 50DB     		blt	.L44
  78:../Common/IQMath/ti/_IQNexp.c ****         iq31Fractional <<= (31 - q_value);
 991              		.loc 1 78 9 is_stmt 1 view .LVU373
 992              	.LVL137:
  79:../Common/IQMath/ti/_IQNexp.c ****         iq31Fractional &= 0x7fffffff;
 993              		.loc 1 79 9 view .LVU374
  79:../Common/IQMath/ti/_IQNexp.c ****         iq31Fractional &= 0x7fffffff;
 994              		.loc 1 79 24 is_stmt 0 view .LVU375
 995 0018 4FEA001C 		lsl	ip, r0, #4
 996              	.LVL138:
  80:../Common/IQMath/ti/_IQNexp.c ****     
 997              		.loc 1 80 9 is_stmt 1 view .LVU376
  80:../Common/IQMath/ti/_IQNexp.c ****     
 998              		.loc 1 80 24 is_stmt 0 view .LVU377
 999 001c 2CF0004C 		bic	ip, ip, #-2147483648
 1000              	.LVL139:
  83:../Common/IQMath/ti/_IQNexp.c ****     
 1001              		.loc 1 83 9 is_stmt 1 view .LVU378
  86:../Common/IQMath/ti/_IQNexp.c ****         uiqNIntegerResult = iqNLookupTable[i16Integer];
 1002              		.loc 1 86 9 view .LVU379
  86:../Common/IQMath/ti/_IQNexp.c ****         uiqNIntegerResult = iqNLookupTable[i16Integer];
 1003              		.loc 1 86 20 is_stmt 0 view .LVU380
 1004 0020 03EBE060 		add	r0, r3, r0, asr #27
ARM GAS  C:\Users\57308\AppData\Local\Temp\ccyuPR38.s 			page 32


 1005              	.LVL140:
  87:../Common/IQMath/ti/_IQNexp.c ****         
 1006              		.loc 1 87 9 is_stmt 1 view .LVU381
  87:../Common/IQMath/ti/_IQNexp.c ****         
 1007              		.loc 1 87 43 is_stmt 0 view .LVU382
 1008 0024 294B     		ldr	r3, .L47+12
 1009              	.LVL141:
  87:../Common/IQMath/ti/_IQNexp.c ****         
 1010              		.loc 1 87 27 view .LVU383
 1011 0026 53F82050 		ldr	r5, [r3, r0, lsl #2]
 1012              	.LVL142:
  90:../Common/IQMath/ti/_IQNexp.c ****             iq31Fractional -= iq31_ln2;
 1013              		.loc 1 90 9 is_stmt 1 view .LVU384
  90:../Common/IQMath/ti/_IQNexp.c ****             iq31Fractional -= iq31_ln2;
 1014              		.loc 1 90 12 is_stmt 0 view .LVU385
 1015 002a 294B     		ldr	r3, .L47+16
 1016 002c 9C45     		cmp	ip, r3
 1017 002e 06DD     		ble	.L40
  91:../Common/IQMath/ti/_IQNexp.c ****             uiqNIntegerResult <<= 1;
 1018              		.loc 1 91 13 is_stmt 1 view .LVU386
  91:../Common/IQMath/ti/_IQNexp.c ****             uiqNIntegerResult <<= 1;
 1019              		.loc 1 91 28 is_stmt 0 view .LVU387
 1020 0030 ACF1B14C 		sub	ip, ip, #1484783616
 1021              	.LVL143:
  91:../Common/IQMath/ti/_IQNexp.c ****             uiqNIntegerResult <<= 1;
 1022              		.loc 1 91 28 view .LVU388
 1023 0034 ACF5641C 		sub	ip, ip, #3735552
 1024              	.LVL144:
  91:../Common/IQMath/ti/_IQNexp.c ****             uiqNIntegerResult <<= 1;
 1025              		.loc 1 91 28 view .LVU389
 1026 0038 ACF6FC3C 		subw	ip, ip, #3068
 1027              	.LVL145:
  92:../Common/IQMath/ti/_IQNexp.c ****         }
 1028              		.loc 1 92 13 is_stmt 1 view .LVU390
  92:../Common/IQMath/ti/_IQNexp.c ****         }
 1029              		.loc 1 92 31 is_stmt 0 view .LVU391
 1030 003c 6D00     		lsls	r5, r5, #1
 1031              	.LVL146:
 1032              	.L40:
 102:../Common/IQMath/ti/_IQNexp.c ****     
 1033              		.loc 1 102 5 is_stmt 1 view .LVU392
 102:../Common/IQMath/ti/_IQNexp.c ****     
 1034              		.loc 1 102 5 is_stmt 0 view .LVU393
 1035              	.LBE71:
 1036              	.LBE70:
  28:../Common/IQMath/ti/./support/RTS_support.h **** }
 1037              		.loc 2 28 5 is_stmt 1 view .LVU394
 1038              	.LBB79:
 1039              	.LBB76:
 109:../Common/IQMath/ti/_IQNexp.c ****     uiq30FractionalResult = *piq30Coeffs++;
 1040              		.loc 1 109 5 view .LVU395
 110:../Common/IQMath/ti/_IQNexp.c ****     
 1041              		.loc 1 110 5 view .LVU396
 110:../Common/IQMath/ti/_IQNexp.c ****     
 1042              		.loc 1 110 27 is_stmt 0 view .LVU397
 1043 003e 2548     		ldr	r0, .L47+20
 1044              	.LVL147:
ARM GAS  C:\Users\57308\AppData\Local\Temp\ccyuPR38.s 			page 33


 110:../Common/IQMath/ti/_IQNexp.c ****     
 1045              		.loc 1 110 27 view .LVU398
 1046 0040 50F8043B 		ldr	r3, [r0], #4
 1047              	.LVL148:
 113:../Common/IQMath/ti/_IQNexp.c ****         uiq30FractionalResult = __mpyf_l(iq31Fractional, uiq30FractionalResult);
 1048              		.loc 1 113 5 is_stmt 1 view .LVU399
 113:../Common/IQMath/ti/_IQNexp.c ****         uiq30FractionalResult = __mpyf_l(iq31Fractional, uiq30FractionalResult);
 1049              		.loc 1 113 19 is_stmt 0 view .LVU400
 1050 0044 0A24     		movs	r4, #10
 113:../Common/IQMath/ti/_IQNexp.c ****         uiq30FractionalResult = __mpyf_l(iq31Fractional, uiq30FractionalResult);
 1051              		.loc 1 113 5 view .LVU401
 1052 0046 2AE0     		b	.L41
 1053              	.LVL149:
 1054              	.L46:
  48:../Common/IQMath/ti/_IQNexp.c ****             return 0;
 1055              		.loc 1 48 9 is_stmt 1 view .LVU402
  48:../Common/IQMath/ti/_IQNexp.c ****             return 0;
 1056              		.loc 1 48 12 is_stmt 0 view .LVU403
 1057 0048 8142     		cmp	r1, r0
 1058 004a 34DC     		bgt	.L43
  53:../Common/IQMath/ti/_IQNexp.c ****         iq31Fractional <<= (31 - q_value);
 1059              		.loc 1 53 9 is_stmt 1 view .LVU404
 1060              	.LVL150:
  54:../Common/IQMath/ti/_IQNexp.c ****         iq31Fractional |= 0x80000000;
 1061              		.loc 1 54 9 view .LVU405
  54:../Common/IQMath/ti/_IQNexp.c ****         iq31Fractional |= 0x80000000;
 1062              		.loc 1 54 24 is_stmt 0 view .LVU406
 1063 004c 4FEA001C 		lsl	ip, r0, #4
 1064              	.LVL151:
  55:../Common/IQMath/ti/_IQNexp.c ****     
 1065              		.loc 1 55 9 is_stmt 1 view .LVU407
  55:../Common/IQMath/ti/_IQNexp.c ****     
 1066              		.loc 1 55 24 is_stmt 0 view .LVU408
 1067 0050 4CF0004C 		orr	ip, ip, #-2147483648
 1068              	.LVL152:
  58:../Common/IQMath/ti/_IQNexp.c ****     
 1069              		.loc 1 58 9 is_stmt 1 view .LVU409
  58:../Common/IQMath/ti/_IQNexp.c ****     
 1070              		.loc 1 58 46 is_stmt 0 view .LVU410
 1071 0054 C016     		asrs	r0, r0, #27
 1072              	.LVL153:
  58:../Common/IQMath/ti/_IQNexp.c ****     
 1073              		.loc 1 58 20 view .LVU411
 1074 0056 0130     		adds	r0, r0, #1
 1075              	.LVL154:
  61:../Common/IQMath/ti/_IQNexp.c ****         uiqNIntegerResult = iqNLookupTable[i16Integer];
 1076              		.loc 1 61 9 is_stmt 1 view .LVU412
  61:../Common/IQMath/ti/_IQNexp.c ****         uiqNIntegerResult = iqNLookupTable[i16Integer];
 1077              		.loc 1 61 20 is_stmt 0 view .LVU413
 1078 0058 1844     		add	r0, r0, r3
 1079              	.LVL155:
  62:../Common/IQMath/ti/_IQNexp.c ****         
 1080              		.loc 1 62 9 is_stmt 1 view .LVU414
  62:../Common/IQMath/ti/_IQNexp.c ****         
 1081              		.loc 1 62 43 is_stmt 0 view .LVU415
 1082 005a 1C4B     		ldr	r3, .L47+12
 1083              	.LVL156:
ARM GAS  C:\Users\57308\AppData\Local\Temp\ccyuPR38.s 			page 34


  62:../Common/IQMath/ti/_IQNexp.c ****         
 1084              		.loc 1 62 27 view .LVU416
 1085 005c 53F82050 		ldr	r5, [r3, r0, lsl #2]
 1086              	.LVL157:
  65:../Common/IQMath/ti/_IQNexp.c ****             iq31Fractional += iq31_ln2;
 1087              		.loc 1 65 9 is_stmt 1 view .LVU417
  65:../Common/IQMath/ti/_IQNexp.c ****             iq31Fractional += iq31_ln2;
 1088              		.loc 1 65 12 is_stmt 0 view .LVU418
 1089 0060 1D4B     		ldr	r3, .L47+24
 1090 0062 9C45     		cmp	ip, r3
 1091 0064 EBDA     		bge	.L40
  66:../Common/IQMath/ti/_IQNexp.c ****             uiqNIntegerResult >>= 1;
 1092              		.loc 1 66 13 is_stmt 1 view .LVU419
  66:../Common/IQMath/ti/_IQNexp.c ****             uiqNIntegerResult >>= 1;
 1093              		.loc 1 66 28 is_stmt 0 view .LVU420
 1094 0066 0CF1B14C 		add	ip, ip, #1484783616
 1095              	.LVL158:
  66:../Common/IQMath/ti/_IQNexp.c ****             uiqNIntegerResult >>= 1;
 1096              		.loc 1 66 28 view .LVU421
 1097 006a 0CF5641C 		add	ip, ip, #3735552
 1098              	.LVL159:
  66:../Common/IQMath/ti/_IQNexp.c ****             uiqNIntegerResult >>= 1;
 1099              		.loc 1 66 28 view .LVU422
 1100 006e 0CF6FC3C 		addw	ip, ip, #3068
 1101              	.LVL160:
  67:../Common/IQMath/ti/_IQNexp.c ****         }
 1102              		.loc 1 67 13 is_stmt 1 view .LVU423
  67:../Common/IQMath/ti/_IQNexp.c ****         }
 1103              		.loc 1 67 31 is_stmt 0 view .LVU424
 1104 0072 6D08     		lsrs	r5, r5, #1
 1105              	.LVL161:
  67:../Common/IQMath/ti/_IQNexp.c ****         }
 1106              		.loc 1 67 31 view .LVU425
 1107 0074 E3E7     		b	.L40
 1108              	.LVL162:
 1109              	.L42:
 114:../Common/IQMath/ti/_IQNexp.c ****         uiq30FractionalResult += *piq30Coeffs++;
 1110              		.loc 1 114 9 is_stmt 1 view .LVU426
 1111              	.LBB72:
 1112              	.LBI72:
 233:../Common/IQMath/ti/./support/RTS_support.h **** {
 1113              		.loc 2 233 28 view .LVU427
 1114              	.LBB73:
 235:../Common/IQMath/ti/./support/RTS_support.h **** }
 1115              		.loc 2 235 5 view .LVU428
 235:../Common/IQMath/ti/./support/RTS_support.h **** }
 1116              		.loc 2 235 28 is_stmt 0 view .LVU429
 1117 0076 4FEAEC72 		asr	r2, ip, #31
 235:../Common/IQMath/ti/./support/RTS_support.h **** }
 1118              		.loc 2 235 49 view .LVU430
 1119 007a D917     		asrs	r1, r3, #31
 235:../Common/IQMath/ti/./support/RTS_support.h **** }
 1120              		.loc 2 235 47 view .LVU431
 1121 007c 0CFB01F1 		mul	r1, ip, r1
 1122 0080 03FB0212 		mla	r2, r3, r2, r1
 1123 0084 ACFB0331 		umull	r3, r1, ip, r3
 1124              	.LVL163:
ARM GAS  C:\Users\57308\AppData\Local\Temp\ccyuPR38.s 			page 35


 235:../Common/IQMath/ti/./support/RTS_support.h **** }
 1125              		.loc 2 235 47 view .LVU432
 1126 0088 0A44     		add	r2, r2, r1
 235:../Common/IQMath/ti/./support/RTS_support.h **** }
 1127              		.loc 2 235 69 view .LVU433
 1128 008a DB0F     		lsrs	r3, r3, #31
 1129 008c 43EA4203 		orr	r3, r3, r2, lsl #1
 1130              	.LVL164:
 235:../Common/IQMath/ti/./support/RTS_support.h **** }
 1131              		.loc 2 235 69 view .LVU434
 1132              	.LBE73:
 1133              	.LBE72:
 115:../Common/IQMath/ti/_IQNexp.c ****     }
 1134              		.loc 1 115 9 is_stmt 1 view .LVU435
 115:../Common/IQMath/ti/_IQNexp.c ****     }
 1135              		.loc 1 115 46 is_stmt 0 view .LVU436
 1136 0090 0246     		mov	r2, r0
 1137              	.LVL165:
 115:../Common/IQMath/ti/_IQNexp.c ****     }
 1138              		.loc 1 115 34 view .LVU437
 1139 0092 52F8041B 		ldr	r1, [r2], #4
 1140              	.LVL166:
 115:../Common/IQMath/ti/_IQNexp.c ****     }
 1141              		.loc 1 115 31 view .LVU438
 1142 0096 0B44     		add	r3, r3, r1
 1143              	.LVL167:
 113:../Common/IQMath/ti/_IQNexp.c ****         uiq30FractionalResult = __mpyf_l(iq31Fractional, uiq30FractionalResult);
 1144              		.loc 1 113 51 is_stmt 1 view .LVU439
 113:../Common/IQMath/ti/_IQNexp.c ****         uiq30FractionalResult = __mpyf_l(iq31Fractional, uiq30FractionalResult);
 1145              		.loc 1 113 59 is_stmt 0 view .LVU440
 1146 0098 013C     		subs	r4, r4, #1
 1147              	.LVL168:
 113:../Common/IQMath/ti/_IQNexp.c ****         uiq30FractionalResult = __mpyf_l(iq31Fractional, uiq30FractionalResult);
 1148              		.loc 1 113 59 view .LVU441
 1149 009a E4B2     		uxtb	r4, r4
 1150              	.LVL169:
 115:../Common/IQMath/ti/_IQNexp.c ****     }
 1151              		.loc 1 115 46 view .LVU442
 1152 009c 1046     		mov	r0, r2
 1153              	.LVL170:
 1154              	.L41:
 113:../Common/IQMath/ti/_IQNexp.c ****         uiq30FractionalResult = __mpyf_l(iq31Fractional, uiq30FractionalResult);
 1155              		.loc 1 113 37 is_stmt 1 view .LVU443
 113:../Common/IQMath/ti/_IQNexp.c ****         uiq30FractionalResult = __mpyf_l(iq31Fractional, uiq30FractionalResult);
 1156              		.loc 1 113 5 is_stmt 0 view .LVU444
 1157 009e 002C     		cmp	r4, #0
 1158 00a0 E9D1     		bne	.L42
 119:../Common/IQMath/ti/_IQNexp.c ****     
 1159              		.loc 1 119 5 is_stmt 1 view .LVU445
 119:../Common/IQMath/ti/_IQNexp.c ****     
 1160              		.loc 1 119 27 is_stmt 0 view .LVU446
 1161 00a2 5B00     		lsls	r3, r3, #1
 1162              	.LVL171:
 125:../Common/IQMath/ti/_IQNexp.c ****     
 1163              		.loc 1 125 5 is_stmt 1 view .LVU447
 1164              	.LBB74:
 1165              	.LBI74:
ARM GAS  C:\Users\57308\AppData\Local\Temp\ccyuPR38.s 			page 36


 254:../Common/IQMath/ti/./support/RTS_support.h **** {
 1166              		.loc 2 254 29 view .LVU448
 1167              	.LBB75:
 1168              		.loc 2 256 5 view .LVU449
 1169              		.loc 2 256 49 is_stmt 0 view .LVU450
 1170 00a4 A5FB0353 		umull	r5, r3, r5, r3
 1171              	.LVL172:
 1172              		.loc 2 256 72 view .LVU451
 1173 00a8 ED0F     		lsrs	r5, r5, #31
 1174 00aa 45EA4305 		orr	r5, r5, r3, lsl #1
 1175              	.LVL173:
 1176              		.loc 2 256 72 view .LVU452
 1177              	.LBE75:
 1178              	.LBE74:
 131:../Common/IQMath/ti/_IQNexp.c ****     
 1179              		.loc 1 131 5 is_stmt 1 view .LVU453
 131:../Common/IQMath/ti/_IQNexp.c ****     
 1180              		.loc 1 131 5 is_stmt 0 view .LVU454
 1181              	.LBE76:
 1182              	.LBE79:
  72:../Common/IQMath/ti/./support/RTS_support.h **** }
 1183              		.loc 2 72 5 is_stmt 1 view .LVU455
 1184              	.LBB80:
 1185              	.LBB77:
 134:../Common/IQMath/ti/_IQNexp.c ****     uiqNResult >>= 1;
 1186              		.loc 1 134 5 view .LVU456
 134:../Common/IQMath/ti/_IQNexp.c ****     uiqNResult >>= 1;
 1187              		.loc 1 134 15 is_stmt 0 view .LVU457
 1188 00ae 0135     		adds	r5, r5, #1
 1189              	.LVL174:
 135:../Common/IQMath/ti/_IQNexp.c ****     
 1190              		.loc 1 135 5 is_stmt 1 view .LVU458
 135:../Common/IQMath/ti/_IQNexp.c ****     
 1191              		.loc 1 135 16 is_stmt 0 view .LVU459
 1192 00b0 6808     		lsrs	r0, r5, #1
 1193              	.LVL175:
 137:../Common/IQMath/ti/_IQNexp.c **** }
 1194              		.loc 1 137 5 is_stmt 1 view .LVU460
 1195              	.L37:
 137:../Common/IQMath/ti/_IQNexp.c **** }
 1196              		.loc 1 137 5 is_stmt 0 view .LVU461
 1197              	.LBE77:
 1198              	.LBE80:
 183:../Common/IQMath/ti/_IQNexp.c **** }
 1199              		.loc 1 183 1 view .LVU462
 1200 00b2 30BC     		pop	{r4, r5}
 1201              	.LCFI10:
 1202              		.cfi_remember_state
 1203              		.cfi_restore 5
 1204              		.cfi_restore 4
 1205              		.cfi_def_cfa_offset 0
 1206 00b4 7047     		bx	lr
 1207              	.LVL176:
 1208              	.L43:
 1209              	.LCFI11:
 1210              		.cfi_restore_state
 1211              	.LBB81:
ARM GAS  C:\Users\57308\AppData\Local\Temp\ccyuPR38.s 			page 37


 1212              	.LBB78:
  49:../Common/IQMath/ti/_IQNexp.c ****         }
 1213              		.loc 1 49 20 view .LVU463
 1214 00b6 0020     		movs	r0, #0
 1215              	.LVL177:
  49:../Common/IQMath/ti/_IQNexp.c ****         }
 1216              		.loc 1 49 20 view .LVU464
 1217 00b8 FBE7     		b	.L37
 1218              	.LVL178:
 1219              	.L44:
  74:../Common/IQMath/ti/_IQNexp.c ****         }
 1220              		.loc 1 74 20 view .LVU465
 1221 00ba 6FF00040 		mvn	r0, #-2147483648
 1222              	.LVL179:
  74:../Common/IQMath/ti/_IQNexp.c ****         }
 1223              		.loc 1 74 20 view .LVU466
 1224              	.LBE78:
 1225              	.LBE81:
 182:../Common/IQMath/ti/_IQNexp.c **** }
 1226              		.loc 1 182 12 view .LVU467
 1227 00be F8E7     		b	.L37
 1228              	.L48:
 1229              		.align	2
 1230              	.L47:
 1231 00c0 00000000 		.word	_IQNexp_offset
 1232 00c4 00000000 		.word	_IQNexp_min
 1233 00c8 00000000 		.word	_IQNexp_max
 1234 00cc 00000000 		.word	_IQNexp_lookup27
 1235 00d0 FB0BB958 		.word	1488522235
 1236 00d4 00000000 		.word	_IQ30exp_coeffs
 1237 00d8 05F446A7 		.word	-1488522235
 1238              		.cfi_endproc
 1239              	.LFE265:
 1241              		.section	.text._IQ26exp,"ax",%progbits
 1242              		.align	1
 1243              		.global	_IQ26exp
 1244              		.syntax unified
 1245              		.thumb
 1246              		.thumb_func
 1248              	_IQ26exp:
 1249              	.LVL180:
 1250              	.LFB266:
 184:../Common/IQMath/ti/_IQNexp.c **** /**
 185:../Common/IQMath/ti/_IQNexp.c ****  * @brief Computes the exponential of an IQ26 input.
 186:../Common/IQMath/ti/_IQNexp.c ****  *
 187:../Common/IQMath/ti/_IQNexp.c ****  * @param a               IQ26 type input.
 188:../Common/IQMath/ti/_IQNexp.c ****  *
 189:../Common/IQMath/ti/_IQNexp.c ****  * @return                IQ26 type result of exponential.
 190:../Common/IQMath/ti/_IQNexp.c ****  */
 191:../Common/IQMath/ti/_IQNexp.c **** int32_t _IQ26exp(int32_t a)
 192:../Common/IQMath/ti/_IQNexp.c **** {
 1251              		.loc 1 192 1 is_stmt 1 view -0
 1252              		.cfi_startproc
 1253              		@ args = 0, pretend = 0, frame = 0
 1254              		@ frame_needed = 0, uses_anonymous_args = 0
 1255              		@ link register save eliminated.
 1256              		.loc 1 192 1 is_stmt 0 view .LVU469
ARM GAS  C:\Users\57308\AppData\Local\Temp\ccyuPR38.s 			page 38


 1257 0000 30B4     		push	{r4, r5}
 1258              	.LCFI12:
 1259              		.cfi_def_cfa_offset 8
 1260              		.cfi_offset 4, -8
 1261              		.cfi_offset 5, -4
 193:../Common/IQMath/ti/_IQNexp.c ****     return __IQNexp(a, _IQNexp_lookup26, _IQNexp_offset[26-1], _IQNexp_min[26-1], _IQNexp_max[26-1]
 1262              		.loc 1 193 5 is_stmt 1 view .LVU470
 1263              		.loc 1 193 12 is_stmt 0 view .LVU471
 1264 0002 2F4B     		ldr	r3, .L59
 1265 0004 93F86430 		ldrb	r3, [r3, #100]	@ zero_extendqisi2
 1266              		.loc 1 193 75 view .LVU472
 1267 0008 2E4A     		ldr	r2, .L59+4
 1268 000a 516E     		ldr	r1, [r2, #100]
 1269              		.loc 1 193 94 view .LVU473
 1270 000c 2E4A     		ldr	r2, .L59+8
 1271 000e 526E     		ldr	r2, [r2, #100]
 1272              	.LVL181:
 1273              	.LBB88:
 1274              	.LBI88:
  32:../Common/IQMath/ti/_IQNexp.c **** {
 1275              		.loc 1 32 30 is_stmt 1 view .LVU474
 1276              	.LBB89:
  34:../Common/IQMath/ti/_IQNexp.c ****     int_fast16_t i16Integer;
 1277              		.loc 1 34 5 view .LVU475
  35:../Common/IQMath/ti/_IQNexp.c ****     uint_fast16_t ui16IntState;
 1278              		.loc 1 35 5 view .LVU476
  36:../Common/IQMath/ti/_IQNexp.c ****     uint_fast16_t ui16MPYState;
 1279              		.loc 1 36 5 view .LVU477
  37:../Common/IQMath/ti/_IQNexp.c ****     int_fast32_t iq31Fractional;
 1280              		.loc 1 37 5 view .LVU478
  38:../Common/IQMath/ti/_IQNexp.c ****     uint_fast32_t uiqNResult;
 1281              		.loc 1 38 5 view .LVU479
  39:../Common/IQMath/ti/_IQNexp.c ****     uint_fast32_t uiqNIntegerResult;
 1282              		.loc 1 39 5 view .LVU480
  40:../Common/IQMath/ti/_IQNexp.c ****     uint_fast32_t uiq30FractionalResult;
 1283              		.loc 1 40 5 view .LVU481
  41:../Common/IQMath/ti/_IQNexp.c ****     uint_fast32_t uiq31FractionalResult;
 1284              		.loc 1 41 5 view .LVU482
  42:../Common/IQMath/ti/_IQNexp.c ****     const uint_fast32_t *piq30Coeffs;
 1285              		.loc 1 42 5 view .LVU483
  43:../Common/IQMath/ti/_IQNexp.c ****     
 1286              		.loc 1 43 5 view .LVU484
  46:../Common/IQMath/ti/_IQNexp.c ****         /* Check for the minimum value. */
 1287              		.loc 1 46 5 view .LVU485
  46:../Common/IQMath/ti/_IQNexp.c ****         /* Check for the minimum value. */
 1288              		.loc 1 46 8 is_stmt 0 view .LVU486
 1289 0010 0028     		cmp	r0, #0
  46:../Common/IQMath/ti/_IQNexp.c ****         /* Check for the minimum value. */
 1290              		.loc 1 46 8 view .LVU487
 1291 0012 19DB     		blt	.L58
  73:../Common/IQMath/ti/_IQNexp.c ****             return INT32_MAX;
 1292              		.loc 1 73 9 is_stmt 1 view .LVU488
  73:../Common/IQMath/ti/_IQNexp.c ****             return INT32_MAX;
 1293              		.loc 1 73 12 is_stmt 0 view .LVU489
 1294 0014 8242     		cmp	r2, r0
 1295 0016 50DB     		blt	.L56
  78:../Common/IQMath/ti/_IQNexp.c ****         iq31Fractional <<= (31 - q_value);
ARM GAS  C:\Users\57308\AppData\Local\Temp\ccyuPR38.s 			page 39


 1296              		.loc 1 78 9 is_stmt 1 view .LVU490
 1297              	.LVL182:
  79:../Common/IQMath/ti/_IQNexp.c ****         iq31Fractional &= 0x7fffffff;
 1298              		.loc 1 79 9 view .LVU491
  79:../Common/IQMath/ti/_IQNexp.c ****         iq31Fractional &= 0x7fffffff;
 1299              		.loc 1 79 24 is_stmt 0 view .LVU492
 1300 0018 4FEA401C 		lsl	ip, r0, #5
 1301              	.LVL183:
  80:../Common/IQMath/ti/_IQNexp.c ****     
 1302              		.loc 1 80 9 is_stmt 1 view .LVU493
  80:../Common/IQMath/ti/_IQNexp.c ****     
 1303              		.loc 1 80 24 is_stmt 0 view .LVU494
 1304 001c 2CF0004C 		bic	ip, ip, #-2147483648
 1305              	.LVL184:
  83:../Common/IQMath/ti/_IQNexp.c ****     
 1306              		.loc 1 83 9 is_stmt 1 view .LVU495
  86:../Common/IQMath/ti/_IQNexp.c ****         uiqNIntegerResult = iqNLookupTable[i16Integer];
 1307              		.loc 1 86 9 view .LVU496
  86:../Common/IQMath/ti/_IQNexp.c ****         uiqNIntegerResult = iqNLookupTable[i16Integer];
 1308              		.loc 1 86 20 is_stmt 0 view .LVU497
 1309 0020 03EBA060 		add	r0, r3, r0, asr #26
 1310              	.LVL185:
  87:../Common/IQMath/ti/_IQNexp.c ****         
 1311              		.loc 1 87 9 is_stmt 1 view .LVU498
  87:../Common/IQMath/ti/_IQNexp.c ****         
 1312              		.loc 1 87 43 is_stmt 0 view .LVU499
 1313 0024 294B     		ldr	r3, .L59+12
 1314              	.LVL186:
  87:../Common/IQMath/ti/_IQNexp.c ****         
 1315              		.loc 1 87 27 view .LVU500
 1316 0026 53F82050 		ldr	r5, [r3, r0, lsl #2]
 1317              	.LVL187:
  90:../Common/IQMath/ti/_IQNexp.c ****             iq31Fractional -= iq31_ln2;
 1318              		.loc 1 90 9 is_stmt 1 view .LVU501
  90:../Common/IQMath/ti/_IQNexp.c ****             iq31Fractional -= iq31_ln2;
 1319              		.loc 1 90 12 is_stmt 0 view .LVU502
 1320 002a 294B     		ldr	r3, .L59+16
 1321 002c 9C45     		cmp	ip, r3
 1322 002e 06DD     		ble	.L52
  91:../Common/IQMath/ti/_IQNexp.c ****             uiqNIntegerResult <<= 1;
 1323              		.loc 1 91 13 is_stmt 1 view .LVU503
  91:../Common/IQMath/ti/_IQNexp.c ****             uiqNIntegerResult <<= 1;
 1324              		.loc 1 91 28 is_stmt 0 view .LVU504
 1325 0030 ACF1B14C 		sub	ip, ip, #1484783616
 1326              	.LVL188:
  91:../Common/IQMath/ti/_IQNexp.c ****             uiqNIntegerResult <<= 1;
 1327              		.loc 1 91 28 view .LVU505
 1328 0034 ACF5641C 		sub	ip, ip, #3735552
 1329              	.LVL189:
  91:../Common/IQMath/ti/_IQNexp.c ****             uiqNIntegerResult <<= 1;
 1330              		.loc 1 91 28 view .LVU506
 1331 0038 ACF6FC3C 		subw	ip, ip, #3068
 1332              	.LVL190:
  92:../Common/IQMath/ti/_IQNexp.c ****         }
 1333              		.loc 1 92 13 is_stmt 1 view .LVU507
  92:../Common/IQMath/ti/_IQNexp.c ****         }
 1334              		.loc 1 92 31 is_stmt 0 view .LVU508
ARM GAS  C:\Users\57308\AppData\Local\Temp\ccyuPR38.s 			page 40


 1335 003c 6D00     		lsls	r5, r5, #1
 1336              	.LVL191:
 1337              	.L52:
 102:../Common/IQMath/ti/_IQNexp.c ****     
 1338              		.loc 1 102 5 is_stmt 1 view .LVU509
 102:../Common/IQMath/ti/_IQNexp.c ****     
 1339              		.loc 1 102 5 is_stmt 0 view .LVU510
 1340              	.LBE89:
 1341              	.LBE88:
  28:../Common/IQMath/ti/./support/RTS_support.h **** }
 1342              		.loc 2 28 5 is_stmt 1 view .LVU511
 1343              	.LBB97:
 1344              	.LBB94:
 109:../Common/IQMath/ti/_IQNexp.c ****     uiq30FractionalResult = *piq30Coeffs++;
 1345              		.loc 1 109 5 view .LVU512
 110:../Common/IQMath/ti/_IQNexp.c ****     
 1346              		.loc 1 110 5 view .LVU513
 110:../Common/IQMath/ti/_IQNexp.c ****     
 1347              		.loc 1 110 27 is_stmt 0 view .LVU514
 1348 003e 2548     		ldr	r0, .L59+20
 1349              	.LVL192:
 110:../Common/IQMath/ti/_IQNexp.c ****     
 1350              		.loc 1 110 27 view .LVU515
 1351 0040 50F8043B 		ldr	r3, [r0], #4
 1352              	.LVL193:
 113:../Common/IQMath/ti/_IQNexp.c ****         uiq30FractionalResult = __mpyf_l(iq31Fractional, uiq30FractionalResult);
 1353              		.loc 1 113 5 is_stmt 1 view .LVU516
 113:../Common/IQMath/ti/_IQNexp.c ****         uiq30FractionalResult = __mpyf_l(iq31Fractional, uiq30FractionalResult);
 1354              		.loc 1 113 19 is_stmt 0 view .LVU517
 1355 0044 0A24     		movs	r4, #10
 113:../Common/IQMath/ti/_IQNexp.c ****         uiq30FractionalResult = __mpyf_l(iq31Fractional, uiq30FractionalResult);
 1356              		.loc 1 113 5 view .LVU518
 1357 0046 2AE0     		b	.L53
 1358              	.LVL194:
 1359              	.L58:
  48:../Common/IQMath/ti/_IQNexp.c ****             return 0;
 1360              		.loc 1 48 9 is_stmt 1 view .LVU519
  48:../Common/IQMath/ti/_IQNexp.c ****             return 0;
 1361              		.loc 1 48 12 is_stmt 0 view .LVU520
 1362 0048 8142     		cmp	r1, r0
 1363 004a 34DC     		bgt	.L55
  53:../Common/IQMath/ti/_IQNexp.c ****         iq31Fractional <<= (31 - q_value);
 1364              		.loc 1 53 9 is_stmt 1 view .LVU521
 1365              	.LVL195:
  54:../Common/IQMath/ti/_IQNexp.c ****         iq31Fractional |= 0x80000000;
 1366              		.loc 1 54 9 view .LVU522
  54:../Common/IQMath/ti/_IQNexp.c ****         iq31Fractional |= 0x80000000;
 1367              		.loc 1 54 24 is_stmt 0 view .LVU523
 1368 004c 4FEA401C 		lsl	ip, r0, #5
 1369              	.LVL196:
  55:../Common/IQMath/ti/_IQNexp.c ****     
 1370              		.loc 1 55 9 is_stmt 1 view .LVU524
  55:../Common/IQMath/ti/_IQNexp.c ****     
 1371              		.loc 1 55 24 is_stmt 0 view .LVU525
 1372 0050 4CF0004C 		orr	ip, ip, #-2147483648
 1373              	.LVL197:
  58:../Common/IQMath/ti/_IQNexp.c ****     
ARM GAS  C:\Users\57308\AppData\Local\Temp\ccyuPR38.s 			page 41


 1374              		.loc 1 58 9 is_stmt 1 view .LVU526
  58:../Common/IQMath/ti/_IQNexp.c ****     
 1375              		.loc 1 58 46 is_stmt 0 view .LVU527
 1376 0054 8016     		asrs	r0, r0, #26
 1377              	.LVL198:
  58:../Common/IQMath/ti/_IQNexp.c ****     
 1378              		.loc 1 58 20 view .LVU528
 1379 0056 0130     		adds	r0, r0, #1
 1380              	.LVL199:
  61:../Common/IQMath/ti/_IQNexp.c ****         uiqNIntegerResult = iqNLookupTable[i16Integer];
 1381              		.loc 1 61 9 is_stmt 1 view .LVU529
  61:../Common/IQMath/ti/_IQNexp.c ****         uiqNIntegerResult = iqNLookupTable[i16Integer];
 1382              		.loc 1 61 20 is_stmt 0 view .LVU530
 1383 0058 1844     		add	r0, r0, r3
 1384              	.LVL200:
  62:../Common/IQMath/ti/_IQNexp.c ****         
 1385              		.loc 1 62 9 is_stmt 1 view .LVU531
  62:../Common/IQMath/ti/_IQNexp.c ****         
 1386              		.loc 1 62 43 is_stmt 0 view .LVU532
 1387 005a 1C4B     		ldr	r3, .L59+12
 1388              	.LVL201:
  62:../Common/IQMath/ti/_IQNexp.c ****         
 1389              		.loc 1 62 27 view .LVU533
 1390 005c 53F82050 		ldr	r5, [r3, r0, lsl #2]
 1391              	.LVL202:
  65:../Common/IQMath/ti/_IQNexp.c ****             iq31Fractional += iq31_ln2;
 1392              		.loc 1 65 9 is_stmt 1 view .LVU534
  65:../Common/IQMath/ti/_IQNexp.c ****             iq31Fractional += iq31_ln2;
 1393              		.loc 1 65 12 is_stmt 0 view .LVU535
 1394 0060 1D4B     		ldr	r3, .L59+24
 1395 0062 9C45     		cmp	ip, r3
 1396 0064 EBDA     		bge	.L52
  66:../Common/IQMath/ti/_IQNexp.c ****             uiqNIntegerResult >>= 1;
 1397              		.loc 1 66 13 is_stmt 1 view .LVU536
  66:../Common/IQMath/ti/_IQNexp.c ****             uiqNIntegerResult >>= 1;
 1398              		.loc 1 66 28 is_stmt 0 view .LVU537
 1399 0066 0CF1B14C 		add	ip, ip, #1484783616
 1400              	.LVL203:
  66:../Common/IQMath/ti/_IQNexp.c ****             uiqNIntegerResult >>= 1;
 1401              		.loc 1 66 28 view .LVU538
 1402 006a 0CF5641C 		add	ip, ip, #3735552
 1403              	.LVL204:
  66:../Common/IQMath/ti/_IQNexp.c ****             uiqNIntegerResult >>= 1;
 1404              		.loc 1 66 28 view .LVU539
 1405 006e 0CF6FC3C 		addw	ip, ip, #3068
 1406              	.LVL205:
  67:../Common/IQMath/ti/_IQNexp.c ****         }
 1407              		.loc 1 67 13 is_stmt 1 view .LVU540
  67:../Common/IQMath/ti/_IQNexp.c ****         }
 1408              		.loc 1 67 31 is_stmt 0 view .LVU541
 1409 0072 6D08     		lsrs	r5, r5, #1
 1410              	.LVL206:
  67:../Common/IQMath/ti/_IQNexp.c ****         }
 1411              		.loc 1 67 31 view .LVU542
 1412 0074 E3E7     		b	.L52
 1413              	.LVL207:
 1414              	.L54:
ARM GAS  C:\Users\57308\AppData\Local\Temp\ccyuPR38.s 			page 42


 114:../Common/IQMath/ti/_IQNexp.c ****         uiq30FractionalResult += *piq30Coeffs++;
 1415              		.loc 1 114 9 is_stmt 1 view .LVU543
 1416              	.LBB90:
 1417              	.LBI90:
 233:../Common/IQMath/ti/./support/RTS_support.h **** {
 1418              		.loc 2 233 28 view .LVU544
 1419              	.LBB91:
 235:../Common/IQMath/ti/./support/RTS_support.h **** }
 1420              		.loc 2 235 5 view .LVU545
 235:../Common/IQMath/ti/./support/RTS_support.h **** }
 1421              		.loc 2 235 28 is_stmt 0 view .LVU546
 1422 0076 4FEAEC72 		asr	r2, ip, #31
 235:../Common/IQMath/ti/./support/RTS_support.h **** }
 1423              		.loc 2 235 49 view .LVU547
 1424 007a D917     		asrs	r1, r3, #31
 235:../Common/IQMath/ti/./support/RTS_support.h **** }
 1425              		.loc 2 235 47 view .LVU548
 1426 007c 0CFB01F1 		mul	r1, ip, r1
 1427 0080 03FB0212 		mla	r2, r3, r2, r1
 1428 0084 ACFB0331 		umull	r3, r1, ip, r3
 1429              	.LVL208:
 235:../Common/IQMath/ti/./support/RTS_support.h **** }
 1430              		.loc 2 235 47 view .LVU549
 1431 0088 0A44     		add	r2, r2, r1
 235:../Common/IQMath/ti/./support/RTS_support.h **** }
 1432              		.loc 2 235 69 view .LVU550
 1433 008a DB0F     		lsrs	r3, r3, #31
 1434 008c 43EA4203 		orr	r3, r3, r2, lsl #1
 1435              	.LVL209:
 235:../Common/IQMath/ti/./support/RTS_support.h **** }
 1436              		.loc 2 235 69 view .LVU551
 1437              	.LBE91:
 1438              	.LBE90:
 115:../Common/IQMath/ti/_IQNexp.c ****     }
 1439              		.loc 1 115 9 is_stmt 1 view .LVU552
 115:../Common/IQMath/ti/_IQNexp.c ****     }
 1440              		.loc 1 115 46 is_stmt 0 view .LVU553
 1441 0090 0246     		mov	r2, r0
 1442              	.LVL210:
 115:../Common/IQMath/ti/_IQNexp.c ****     }
 1443              		.loc 1 115 34 view .LVU554
 1444 0092 52F8041B 		ldr	r1, [r2], #4
 1445              	.LVL211:
 115:../Common/IQMath/ti/_IQNexp.c ****     }
 1446              		.loc 1 115 31 view .LVU555
 1447 0096 0B44     		add	r3, r3, r1
 1448              	.LVL212:
 113:../Common/IQMath/ti/_IQNexp.c ****         uiq30FractionalResult = __mpyf_l(iq31Fractional, uiq30FractionalResult);
 1449              		.loc 1 113 51 is_stmt 1 view .LVU556
 113:../Common/IQMath/ti/_IQNexp.c ****         uiq30FractionalResult = __mpyf_l(iq31Fractional, uiq30FractionalResult);
 1450              		.loc 1 113 59 is_stmt 0 view .LVU557
 1451 0098 013C     		subs	r4, r4, #1
 1452              	.LVL213:
 113:../Common/IQMath/ti/_IQNexp.c ****         uiq30FractionalResult = __mpyf_l(iq31Fractional, uiq30FractionalResult);
 1453              		.loc 1 113 59 view .LVU558
 1454 009a E4B2     		uxtb	r4, r4
 1455              	.LVL214:
ARM GAS  C:\Users\57308\AppData\Local\Temp\ccyuPR38.s 			page 43


 115:../Common/IQMath/ti/_IQNexp.c ****     }
 1456              		.loc 1 115 46 view .LVU559
 1457 009c 1046     		mov	r0, r2
 1458              	.LVL215:
 1459              	.L53:
 113:../Common/IQMath/ti/_IQNexp.c ****         uiq30FractionalResult = __mpyf_l(iq31Fractional, uiq30FractionalResult);
 1460              		.loc 1 113 37 is_stmt 1 view .LVU560
 113:../Common/IQMath/ti/_IQNexp.c ****         uiq30FractionalResult = __mpyf_l(iq31Fractional, uiq30FractionalResult);
 1461              		.loc 1 113 5 is_stmt 0 view .LVU561
 1462 009e 002C     		cmp	r4, #0
 1463 00a0 E9D1     		bne	.L54
 119:../Common/IQMath/ti/_IQNexp.c ****     
 1464              		.loc 1 119 5 is_stmt 1 view .LVU562
 119:../Common/IQMath/ti/_IQNexp.c ****     
 1465              		.loc 1 119 27 is_stmt 0 view .LVU563
 1466 00a2 5B00     		lsls	r3, r3, #1
 1467              	.LVL216:
 125:../Common/IQMath/ti/_IQNexp.c ****     
 1468              		.loc 1 125 5 is_stmt 1 view .LVU564
 1469              	.LBB92:
 1470              	.LBI92:
 254:../Common/IQMath/ti/./support/RTS_support.h **** {
 1471              		.loc 2 254 29 view .LVU565
 1472              	.LBB93:
 1473              		.loc 2 256 5 view .LVU566
 1474              		.loc 2 256 49 is_stmt 0 view .LVU567
 1475 00a4 A5FB0353 		umull	r5, r3, r5, r3
 1476              	.LVL217:
 1477              		.loc 2 256 72 view .LVU568
 1478 00a8 ED0F     		lsrs	r5, r5, #31
 1479 00aa 45EA4305 		orr	r5, r5, r3, lsl #1
 1480              	.LVL218:
 1481              		.loc 2 256 72 view .LVU569
 1482              	.LBE93:
 1483              	.LBE92:
 131:../Common/IQMath/ti/_IQNexp.c ****     
 1484              		.loc 1 131 5 is_stmt 1 view .LVU570
 131:../Common/IQMath/ti/_IQNexp.c ****     
 1485              		.loc 1 131 5 is_stmt 0 view .LVU571
 1486              	.LBE94:
 1487              	.LBE97:
  72:../Common/IQMath/ti/./support/RTS_support.h **** }
 1488              		.loc 2 72 5 is_stmt 1 view .LVU572
 1489              	.LBB98:
 1490              	.LBB95:
 134:../Common/IQMath/ti/_IQNexp.c ****     uiqNResult >>= 1;
 1491              		.loc 1 134 5 view .LVU573
 134:../Common/IQMath/ti/_IQNexp.c ****     uiqNResult >>= 1;
 1492              		.loc 1 134 15 is_stmt 0 view .LVU574
 1493 00ae 0135     		adds	r5, r5, #1
 1494              	.LVL219:
 135:../Common/IQMath/ti/_IQNexp.c ****     
 1495              		.loc 1 135 5 is_stmt 1 view .LVU575
 135:../Common/IQMath/ti/_IQNexp.c ****     
 1496              		.loc 1 135 16 is_stmt 0 view .LVU576
 1497 00b0 6808     		lsrs	r0, r5, #1
 1498              	.LVL220:
ARM GAS  C:\Users\57308\AppData\Local\Temp\ccyuPR38.s 			page 44


 137:../Common/IQMath/ti/_IQNexp.c **** }
 1499              		.loc 1 137 5 is_stmt 1 view .LVU577
 1500              	.L49:
 137:../Common/IQMath/ti/_IQNexp.c **** }
 1501              		.loc 1 137 5 is_stmt 0 view .LVU578
 1502              	.LBE95:
 1503              	.LBE98:
 194:../Common/IQMath/ti/_IQNexp.c **** }
 1504              		.loc 1 194 1 view .LVU579
 1505 00b2 30BC     		pop	{r4, r5}
 1506              	.LCFI13:
 1507              		.cfi_remember_state
 1508              		.cfi_restore 5
 1509              		.cfi_restore 4
 1510              		.cfi_def_cfa_offset 0
 1511 00b4 7047     		bx	lr
 1512              	.LVL221:
 1513              	.L55:
 1514              	.LCFI14:
 1515              		.cfi_restore_state
 1516              	.LBB99:
 1517              	.LBB96:
  49:../Common/IQMath/ti/_IQNexp.c ****         }
 1518              		.loc 1 49 20 view .LVU580
 1519 00b6 0020     		movs	r0, #0
 1520              	.LVL222:
  49:../Common/IQMath/ti/_IQNexp.c ****         }
 1521              		.loc 1 49 20 view .LVU581
 1522 00b8 FBE7     		b	.L49
 1523              	.LVL223:
 1524              	.L56:
  74:../Common/IQMath/ti/_IQNexp.c ****         }
 1525              		.loc 1 74 20 view .LVU582
 1526 00ba 6FF00040 		mvn	r0, #-2147483648
 1527              	.LVL224:
  74:../Common/IQMath/ti/_IQNexp.c ****         }
 1528              		.loc 1 74 20 view .LVU583
 1529              	.LBE96:
 1530              	.LBE99:
 193:../Common/IQMath/ti/_IQNexp.c **** }
 1531              		.loc 1 193 12 view .LVU584
 1532 00be F8E7     		b	.L49
 1533              	.L60:
 1534              		.align	2
 1535              	.L59:
 1536 00c0 00000000 		.word	_IQNexp_offset
 1537 00c4 00000000 		.word	_IQNexp_min
 1538 00c8 00000000 		.word	_IQNexp_max
 1539 00cc 00000000 		.word	_IQNexp_lookup26
 1540 00d0 FB0BB958 		.word	1488522235
 1541 00d4 00000000 		.word	_IQ30exp_coeffs
 1542 00d8 05F446A7 		.word	-1488522235
 1543              		.cfi_endproc
 1544              	.LFE266:
 1546              		.section	.text._IQ25exp,"ax",%progbits
 1547              		.align	1
 1548              		.global	_IQ25exp
ARM GAS  C:\Users\57308\AppData\Local\Temp\ccyuPR38.s 			page 45


 1549              		.syntax unified
 1550              		.thumb
 1551              		.thumb_func
 1553              	_IQ25exp:
 1554              	.LVL225:
 1555              	.LFB267:
 195:../Common/IQMath/ti/_IQNexp.c **** /**
 196:../Common/IQMath/ti/_IQNexp.c ****  * @brief Computes the exponential of an IQ25 input.
 197:../Common/IQMath/ti/_IQNexp.c ****  *
 198:../Common/IQMath/ti/_IQNexp.c ****  * @param a               IQ25 type input.
 199:../Common/IQMath/ti/_IQNexp.c ****  *
 200:../Common/IQMath/ti/_IQNexp.c ****  * @return                IQ25 type result of exponential.
 201:../Common/IQMath/ti/_IQNexp.c ****  */
 202:../Common/IQMath/ti/_IQNexp.c **** int32_t _IQ25exp(int32_t a)
 203:../Common/IQMath/ti/_IQNexp.c **** {
 1556              		.loc 1 203 1 is_stmt 1 view -0
 1557              		.cfi_startproc
 1558              		@ args = 0, pretend = 0, frame = 0
 1559              		@ frame_needed = 0, uses_anonymous_args = 0
 1560              		@ link register save eliminated.
 1561              		.loc 1 203 1 is_stmt 0 view .LVU586
 1562 0000 30B4     		push	{r4, r5}
 1563              	.LCFI15:
 1564              		.cfi_def_cfa_offset 8
 1565              		.cfi_offset 4, -8
 1566              		.cfi_offset 5, -4
 204:../Common/IQMath/ti/_IQNexp.c ****     return __IQNexp(a, _IQNexp_lookup25, _IQNexp_offset[25-1], _IQNexp_min[25-1], _IQNexp_max[25-1]
 1567              		.loc 1 204 5 is_stmt 1 view .LVU587
 1568              		.loc 1 204 12 is_stmt 0 view .LVU588
 1569 0002 2F4B     		ldr	r3, .L71
 1570 0004 93F86030 		ldrb	r3, [r3, #96]	@ zero_extendqisi2
 1571              		.loc 1 204 75 view .LVU589
 1572 0008 2E4A     		ldr	r2, .L71+4
 1573 000a 116E     		ldr	r1, [r2, #96]
 1574              		.loc 1 204 94 view .LVU590
 1575 000c 2E4A     		ldr	r2, .L71+8
 1576 000e 126E     		ldr	r2, [r2, #96]
 1577              	.LVL226:
 1578              	.LBB106:
 1579              	.LBI106:
  32:../Common/IQMath/ti/_IQNexp.c **** {
 1580              		.loc 1 32 30 is_stmt 1 view .LVU591
 1581              	.LBB107:
  34:../Common/IQMath/ti/_IQNexp.c ****     int_fast16_t i16Integer;
 1582              		.loc 1 34 5 view .LVU592
  35:../Common/IQMath/ti/_IQNexp.c ****     uint_fast16_t ui16IntState;
 1583              		.loc 1 35 5 view .LVU593
  36:../Common/IQMath/ti/_IQNexp.c ****     uint_fast16_t ui16MPYState;
 1584              		.loc 1 36 5 view .LVU594
  37:../Common/IQMath/ti/_IQNexp.c ****     int_fast32_t iq31Fractional;
 1585              		.loc 1 37 5 view .LVU595
  38:../Common/IQMath/ti/_IQNexp.c ****     uint_fast32_t uiqNResult;
 1586              		.loc 1 38 5 view .LVU596
  39:../Common/IQMath/ti/_IQNexp.c ****     uint_fast32_t uiqNIntegerResult;
 1587              		.loc 1 39 5 view .LVU597
  40:../Common/IQMath/ti/_IQNexp.c ****     uint_fast32_t uiq30FractionalResult;
 1588              		.loc 1 40 5 view .LVU598
ARM GAS  C:\Users\57308\AppData\Local\Temp\ccyuPR38.s 			page 46


  41:../Common/IQMath/ti/_IQNexp.c ****     uint_fast32_t uiq31FractionalResult;
 1589              		.loc 1 41 5 view .LVU599
  42:../Common/IQMath/ti/_IQNexp.c ****     const uint_fast32_t *piq30Coeffs;
 1590              		.loc 1 42 5 view .LVU600
  43:../Common/IQMath/ti/_IQNexp.c ****     
 1591              		.loc 1 43 5 view .LVU601
  46:../Common/IQMath/ti/_IQNexp.c ****         /* Check for the minimum value. */
 1592              		.loc 1 46 5 view .LVU602
  46:../Common/IQMath/ti/_IQNexp.c ****         /* Check for the minimum value. */
 1593              		.loc 1 46 8 is_stmt 0 view .LVU603
 1594 0010 0028     		cmp	r0, #0
  46:../Common/IQMath/ti/_IQNexp.c ****         /* Check for the minimum value. */
 1595              		.loc 1 46 8 view .LVU604
 1596 0012 19DB     		blt	.L70
  73:../Common/IQMath/ti/_IQNexp.c ****             return INT32_MAX;
 1597              		.loc 1 73 9 is_stmt 1 view .LVU605
  73:../Common/IQMath/ti/_IQNexp.c ****             return INT32_MAX;
 1598              		.loc 1 73 12 is_stmt 0 view .LVU606
 1599 0014 8242     		cmp	r2, r0
 1600 0016 50DB     		blt	.L68
  78:../Common/IQMath/ti/_IQNexp.c ****         iq31Fractional <<= (31 - q_value);
 1601              		.loc 1 78 9 is_stmt 1 view .LVU607
 1602              	.LVL227:
  79:../Common/IQMath/ti/_IQNexp.c ****         iq31Fractional &= 0x7fffffff;
 1603              		.loc 1 79 9 view .LVU608
  79:../Common/IQMath/ti/_IQNexp.c ****         iq31Fractional &= 0x7fffffff;
 1604              		.loc 1 79 24 is_stmt 0 view .LVU609
 1605 0018 4FEA801C 		lsl	ip, r0, #6
 1606              	.LVL228:
  80:../Common/IQMath/ti/_IQNexp.c ****     
 1607              		.loc 1 80 9 is_stmt 1 view .LVU610
  80:../Common/IQMath/ti/_IQNexp.c ****     
 1608              		.loc 1 80 24 is_stmt 0 view .LVU611
 1609 001c 2CF0004C 		bic	ip, ip, #-2147483648
 1610              	.LVL229:
  83:../Common/IQMath/ti/_IQNexp.c ****     
 1611              		.loc 1 83 9 is_stmt 1 view .LVU612
  86:../Common/IQMath/ti/_IQNexp.c ****         uiqNIntegerResult = iqNLookupTable[i16Integer];
 1612              		.loc 1 86 9 view .LVU613
  86:../Common/IQMath/ti/_IQNexp.c ****         uiqNIntegerResult = iqNLookupTable[i16Integer];
 1613              		.loc 1 86 20 is_stmt 0 view .LVU614
 1614 0020 03EB6060 		add	r0, r3, r0, asr #25
 1615              	.LVL230:
  87:../Common/IQMath/ti/_IQNexp.c ****         
 1616              		.loc 1 87 9 is_stmt 1 view .LVU615
  87:../Common/IQMath/ti/_IQNexp.c ****         
 1617              		.loc 1 87 43 is_stmt 0 view .LVU616
 1618 0024 294B     		ldr	r3, .L71+12
 1619              	.LVL231:
  87:../Common/IQMath/ti/_IQNexp.c ****         
 1620              		.loc 1 87 27 view .LVU617
 1621 0026 53F82050 		ldr	r5, [r3, r0, lsl #2]
 1622              	.LVL232:
  90:../Common/IQMath/ti/_IQNexp.c ****             iq31Fractional -= iq31_ln2;
 1623              		.loc 1 90 9 is_stmt 1 view .LVU618
  90:../Common/IQMath/ti/_IQNexp.c ****             iq31Fractional -= iq31_ln2;
 1624              		.loc 1 90 12 is_stmt 0 view .LVU619
ARM GAS  C:\Users\57308\AppData\Local\Temp\ccyuPR38.s 			page 47


 1625 002a 294B     		ldr	r3, .L71+16
 1626 002c 9C45     		cmp	ip, r3
 1627 002e 06DD     		ble	.L64
  91:../Common/IQMath/ti/_IQNexp.c ****             uiqNIntegerResult <<= 1;
 1628              		.loc 1 91 13 is_stmt 1 view .LVU620
  91:../Common/IQMath/ti/_IQNexp.c ****             uiqNIntegerResult <<= 1;
 1629              		.loc 1 91 28 is_stmt 0 view .LVU621
 1630 0030 ACF1B14C 		sub	ip, ip, #1484783616
 1631              	.LVL233:
  91:../Common/IQMath/ti/_IQNexp.c ****             uiqNIntegerResult <<= 1;
 1632              		.loc 1 91 28 view .LVU622
 1633 0034 ACF5641C 		sub	ip, ip, #3735552
 1634              	.LVL234:
  91:../Common/IQMath/ti/_IQNexp.c ****             uiqNIntegerResult <<= 1;
 1635              		.loc 1 91 28 view .LVU623
 1636 0038 ACF6FC3C 		subw	ip, ip, #3068
 1637              	.LVL235:
  92:../Common/IQMath/ti/_IQNexp.c ****         }
 1638              		.loc 1 92 13 is_stmt 1 view .LVU624
  92:../Common/IQMath/ti/_IQNexp.c ****         }
 1639              		.loc 1 92 31 is_stmt 0 view .LVU625
 1640 003c 6D00     		lsls	r5, r5, #1
 1641              	.LVL236:
 1642              	.L64:
 102:../Common/IQMath/ti/_IQNexp.c ****     
 1643              		.loc 1 102 5 is_stmt 1 view .LVU626
 102:../Common/IQMath/ti/_IQNexp.c ****     
 1644              		.loc 1 102 5 is_stmt 0 view .LVU627
 1645              	.LBE107:
 1646              	.LBE106:
  28:../Common/IQMath/ti/./support/RTS_support.h **** }
 1647              		.loc 2 28 5 is_stmt 1 view .LVU628
 1648              	.LBB115:
 1649              	.LBB112:
 109:../Common/IQMath/ti/_IQNexp.c ****     uiq30FractionalResult = *piq30Coeffs++;
 1650              		.loc 1 109 5 view .LVU629
 110:../Common/IQMath/ti/_IQNexp.c ****     
 1651              		.loc 1 110 5 view .LVU630
 110:../Common/IQMath/ti/_IQNexp.c ****     
 1652              		.loc 1 110 27 is_stmt 0 view .LVU631
 1653 003e 2548     		ldr	r0, .L71+20
 1654              	.LVL237:
 110:../Common/IQMath/ti/_IQNexp.c ****     
 1655              		.loc 1 110 27 view .LVU632
 1656 0040 50F8043B 		ldr	r3, [r0], #4
 1657              	.LVL238:
 113:../Common/IQMath/ti/_IQNexp.c ****         uiq30FractionalResult = __mpyf_l(iq31Fractional, uiq30FractionalResult);
 1658              		.loc 1 113 5 is_stmt 1 view .LVU633
 113:../Common/IQMath/ti/_IQNexp.c ****         uiq30FractionalResult = __mpyf_l(iq31Fractional, uiq30FractionalResult);
 1659              		.loc 1 113 19 is_stmt 0 view .LVU634
 1660 0044 0A24     		movs	r4, #10
 113:../Common/IQMath/ti/_IQNexp.c ****         uiq30FractionalResult = __mpyf_l(iq31Fractional, uiq30FractionalResult);
 1661              		.loc 1 113 5 view .LVU635
 1662 0046 2AE0     		b	.L65
 1663              	.LVL239:
 1664              	.L70:
  48:../Common/IQMath/ti/_IQNexp.c ****             return 0;
ARM GAS  C:\Users\57308\AppData\Local\Temp\ccyuPR38.s 			page 48


 1665              		.loc 1 48 9 is_stmt 1 view .LVU636
  48:../Common/IQMath/ti/_IQNexp.c ****             return 0;
 1666              		.loc 1 48 12 is_stmt 0 view .LVU637
 1667 0048 8142     		cmp	r1, r0
 1668 004a 34DC     		bgt	.L67
  53:../Common/IQMath/ti/_IQNexp.c ****         iq31Fractional <<= (31 - q_value);
 1669              		.loc 1 53 9 is_stmt 1 view .LVU638
 1670              	.LVL240:
  54:../Common/IQMath/ti/_IQNexp.c ****         iq31Fractional |= 0x80000000;
 1671              		.loc 1 54 9 view .LVU639
  54:../Common/IQMath/ti/_IQNexp.c ****         iq31Fractional |= 0x80000000;
 1672              		.loc 1 54 24 is_stmt 0 view .LVU640
 1673 004c 4FEA801C 		lsl	ip, r0, #6
 1674              	.LVL241:
  55:../Common/IQMath/ti/_IQNexp.c ****     
 1675              		.loc 1 55 9 is_stmt 1 view .LVU641
  55:../Common/IQMath/ti/_IQNexp.c ****     
 1676              		.loc 1 55 24 is_stmt 0 view .LVU642
 1677 0050 4CF0004C 		orr	ip, ip, #-2147483648
 1678              	.LVL242:
  58:../Common/IQMath/ti/_IQNexp.c ****     
 1679              		.loc 1 58 9 is_stmt 1 view .LVU643
  58:../Common/IQMath/ti/_IQNexp.c ****     
 1680              		.loc 1 58 46 is_stmt 0 view .LVU644
 1681 0054 4016     		asrs	r0, r0, #25
 1682              	.LVL243:
  58:../Common/IQMath/ti/_IQNexp.c ****     
 1683              		.loc 1 58 20 view .LVU645
 1684 0056 0130     		adds	r0, r0, #1
 1685              	.LVL244:
  61:../Common/IQMath/ti/_IQNexp.c ****         uiqNIntegerResult = iqNLookupTable[i16Integer];
 1686              		.loc 1 61 9 is_stmt 1 view .LVU646
  61:../Common/IQMath/ti/_IQNexp.c ****         uiqNIntegerResult = iqNLookupTable[i16Integer];
 1687              		.loc 1 61 20 is_stmt 0 view .LVU647
 1688 0058 1844     		add	r0, r0, r3
 1689              	.LVL245:
  62:../Common/IQMath/ti/_IQNexp.c ****         
 1690              		.loc 1 62 9 is_stmt 1 view .LVU648
  62:../Common/IQMath/ti/_IQNexp.c ****         
 1691              		.loc 1 62 43 is_stmt 0 view .LVU649
 1692 005a 1C4B     		ldr	r3, .L71+12
 1693              	.LVL246:
  62:../Common/IQMath/ti/_IQNexp.c ****         
 1694              		.loc 1 62 27 view .LVU650
 1695 005c 53F82050 		ldr	r5, [r3, r0, lsl #2]
 1696              	.LVL247:
  65:../Common/IQMath/ti/_IQNexp.c ****             iq31Fractional += iq31_ln2;
 1697              		.loc 1 65 9 is_stmt 1 view .LVU651
  65:../Common/IQMath/ti/_IQNexp.c ****             iq31Fractional += iq31_ln2;
 1698              		.loc 1 65 12 is_stmt 0 view .LVU652
 1699 0060 1D4B     		ldr	r3, .L71+24
 1700 0062 9C45     		cmp	ip, r3
 1701 0064 EBDA     		bge	.L64
  66:../Common/IQMath/ti/_IQNexp.c ****             uiqNIntegerResult >>= 1;
 1702              		.loc 1 66 13 is_stmt 1 view .LVU653
  66:../Common/IQMath/ti/_IQNexp.c ****             uiqNIntegerResult >>= 1;
 1703              		.loc 1 66 28 is_stmt 0 view .LVU654
ARM GAS  C:\Users\57308\AppData\Local\Temp\ccyuPR38.s 			page 49


 1704 0066 0CF1B14C 		add	ip, ip, #1484783616
 1705              	.LVL248:
  66:../Common/IQMath/ti/_IQNexp.c ****             uiqNIntegerResult >>= 1;
 1706              		.loc 1 66 28 view .LVU655
 1707 006a 0CF5641C 		add	ip, ip, #3735552
 1708              	.LVL249:
  66:../Common/IQMath/ti/_IQNexp.c ****             uiqNIntegerResult >>= 1;
 1709              		.loc 1 66 28 view .LVU656
 1710 006e 0CF6FC3C 		addw	ip, ip, #3068
 1711              	.LVL250:
  67:../Common/IQMath/ti/_IQNexp.c ****         }
 1712              		.loc 1 67 13 is_stmt 1 view .LVU657
  67:../Common/IQMath/ti/_IQNexp.c ****         }
 1713              		.loc 1 67 31 is_stmt 0 view .LVU658
 1714 0072 6D08     		lsrs	r5, r5, #1
 1715              	.LVL251:
  67:../Common/IQMath/ti/_IQNexp.c ****         }
 1716              		.loc 1 67 31 view .LVU659
 1717 0074 E3E7     		b	.L64
 1718              	.LVL252:
 1719              	.L66:
 114:../Common/IQMath/ti/_IQNexp.c ****         uiq30FractionalResult += *piq30Coeffs++;
 1720              		.loc 1 114 9 is_stmt 1 view .LVU660
 1721              	.LBB108:
 1722              	.LBI108:
 233:../Common/IQMath/ti/./support/RTS_support.h **** {
 1723              		.loc 2 233 28 view .LVU661
 1724              	.LBB109:
 235:../Common/IQMath/ti/./support/RTS_support.h **** }
 1725              		.loc 2 235 5 view .LVU662
 235:../Common/IQMath/ti/./support/RTS_support.h **** }
 1726              		.loc 2 235 28 is_stmt 0 view .LVU663
 1727 0076 4FEAEC72 		asr	r2, ip, #31
 235:../Common/IQMath/ti/./support/RTS_support.h **** }
 1728              		.loc 2 235 49 view .LVU664
 1729 007a D917     		asrs	r1, r3, #31
 235:../Common/IQMath/ti/./support/RTS_support.h **** }
 1730              		.loc 2 235 47 view .LVU665
 1731 007c 0CFB01F1 		mul	r1, ip, r1
 1732 0080 03FB0212 		mla	r2, r3, r2, r1
 1733 0084 ACFB0331 		umull	r3, r1, ip, r3
 1734              	.LVL253:
 235:../Common/IQMath/ti/./support/RTS_support.h **** }
 1735              		.loc 2 235 47 view .LVU666
 1736 0088 0A44     		add	r2, r2, r1
 235:../Common/IQMath/ti/./support/RTS_support.h **** }
 1737              		.loc 2 235 69 view .LVU667
 1738 008a DB0F     		lsrs	r3, r3, #31
 1739 008c 43EA4203 		orr	r3, r3, r2, lsl #1
 1740              	.LVL254:
 235:../Common/IQMath/ti/./support/RTS_support.h **** }
 1741              		.loc 2 235 69 view .LVU668
 1742              	.LBE109:
 1743              	.LBE108:
 115:../Common/IQMath/ti/_IQNexp.c ****     }
 1744              		.loc 1 115 9 is_stmt 1 view .LVU669
 115:../Common/IQMath/ti/_IQNexp.c ****     }
ARM GAS  C:\Users\57308\AppData\Local\Temp\ccyuPR38.s 			page 50


 1745              		.loc 1 115 46 is_stmt 0 view .LVU670
 1746 0090 0246     		mov	r2, r0
 1747              	.LVL255:
 115:../Common/IQMath/ti/_IQNexp.c ****     }
 1748              		.loc 1 115 34 view .LVU671
 1749 0092 52F8041B 		ldr	r1, [r2], #4
 1750              	.LVL256:
 115:../Common/IQMath/ti/_IQNexp.c ****     }
 1751              		.loc 1 115 31 view .LVU672
 1752 0096 0B44     		add	r3, r3, r1
 1753              	.LVL257:
 113:../Common/IQMath/ti/_IQNexp.c ****         uiq30FractionalResult = __mpyf_l(iq31Fractional, uiq30FractionalResult);
 1754              		.loc 1 113 51 is_stmt 1 view .LVU673
 113:../Common/IQMath/ti/_IQNexp.c ****         uiq30FractionalResult = __mpyf_l(iq31Fractional, uiq30FractionalResult);
 1755              		.loc 1 113 59 is_stmt 0 view .LVU674
 1756 0098 013C     		subs	r4, r4, #1
 1757              	.LVL258:
 113:../Common/IQMath/ti/_IQNexp.c ****         uiq30FractionalResult = __mpyf_l(iq31Fractional, uiq30FractionalResult);
 1758              		.loc 1 113 59 view .LVU675
 1759 009a E4B2     		uxtb	r4, r4
 1760              	.LVL259:
 115:../Common/IQMath/ti/_IQNexp.c ****     }
 1761              		.loc 1 115 46 view .LVU676
 1762 009c 1046     		mov	r0, r2
 1763              	.LVL260:
 1764              	.L65:
 113:../Common/IQMath/ti/_IQNexp.c ****         uiq30FractionalResult = __mpyf_l(iq31Fractional, uiq30FractionalResult);
 1765              		.loc 1 113 37 is_stmt 1 view .LVU677
 113:../Common/IQMath/ti/_IQNexp.c ****         uiq30FractionalResult = __mpyf_l(iq31Fractional, uiq30FractionalResult);
 1766              		.loc 1 113 5 is_stmt 0 view .LVU678
 1767 009e 002C     		cmp	r4, #0
 1768 00a0 E9D1     		bne	.L66
 119:../Common/IQMath/ti/_IQNexp.c ****     
 1769              		.loc 1 119 5 is_stmt 1 view .LVU679
 119:../Common/IQMath/ti/_IQNexp.c ****     
 1770              		.loc 1 119 27 is_stmt 0 view .LVU680
 1771 00a2 5B00     		lsls	r3, r3, #1
 1772              	.LVL261:
 125:../Common/IQMath/ti/_IQNexp.c ****     
 1773              		.loc 1 125 5 is_stmt 1 view .LVU681
 1774              	.LBB110:
 1775              	.LBI110:
 254:../Common/IQMath/ti/./support/RTS_support.h **** {
 1776              		.loc 2 254 29 view .LVU682
 1777              	.LBB111:
 1778              		.loc 2 256 5 view .LVU683
 1779              		.loc 2 256 49 is_stmt 0 view .LVU684
 1780 00a4 A5FB0353 		umull	r5, r3, r5, r3
 1781              	.LVL262:
 1782              		.loc 2 256 72 view .LVU685
 1783 00a8 ED0F     		lsrs	r5, r5, #31
 1784 00aa 45EA4305 		orr	r5, r5, r3, lsl #1
 1785              	.LVL263:
 1786              		.loc 2 256 72 view .LVU686
 1787              	.LBE111:
 1788              	.LBE110:
 131:../Common/IQMath/ti/_IQNexp.c ****     
ARM GAS  C:\Users\57308\AppData\Local\Temp\ccyuPR38.s 			page 51


 1789              		.loc 1 131 5 is_stmt 1 view .LVU687
 131:../Common/IQMath/ti/_IQNexp.c ****     
 1790              		.loc 1 131 5 is_stmt 0 view .LVU688
 1791              	.LBE112:
 1792              	.LBE115:
  72:../Common/IQMath/ti/./support/RTS_support.h **** }
 1793              		.loc 2 72 5 is_stmt 1 view .LVU689
 1794              	.LBB116:
 1795              	.LBB113:
 134:../Common/IQMath/ti/_IQNexp.c ****     uiqNResult >>= 1;
 1796              		.loc 1 134 5 view .LVU690
 134:../Common/IQMath/ti/_IQNexp.c ****     uiqNResult >>= 1;
 1797              		.loc 1 134 15 is_stmt 0 view .LVU691
 1798 00ae 0135     		adds	r5, r5, #1
 1799              	.LVL264:
 135:../Common/IQMath/ti/_IQNexp.c ****     
 1800              		.loc 1 135 5 is_stmt 1 view .LVU692
 135:../Common/IQMath/ti/_IQNexp.c ****     
 1801              		.loc 1 135 16 is_stmt 0 view .LVU693
 1802 00b0 6808     		lsrs	r0, r5, #1
 1803              	.LVL265:
 137:../Common/IQMath/ti/_IQNexp.c **** }
 1804              		.loc 1 137 5 is_stmt 1 view .LVU694
 1805              	.L61:
 137:../Common/IQMath/ti/_IQNexp.c **** }
 1806              		.loc 1 137 5 is_stmt 0 view .LVU695
 1807              	.LBE113:
 1808              	.LBE116:
 205:../Common/IQMath/ti/_IQNexp.c **** }
 1809              		.loc 1 205 1 view .LVU696
 1810 00b2 30BC     		pop	{r4, r5}
 1811              	.LCFI16:
 1812              		.cfi_remember_state
 1813              		.cfi_restore 5
 1814              		.cfi_restore 4
 1815              		.cfi_def_cfa_offset 0
 1816 00b4 7047     		bx	lr
 1817              	.LVL266:
 1818              	.L67:
 1819              	.LCFI17:
 1820              		.cfi_restore_state
 1821              	.LBB117:
 1822              	.LBB114:
  49:../Common/IQMath/ti/_IQNexp.c ****         }
 1823              		.loc 1 49 20 view .LVU697
 1824 00b6 0020     		movs	r0, #0
 1825              	.LVL267:
  49:../Common/IQMath/ti/_IQNexp.c ****         }
 1826              		.loc 1 49 20 view .LVU698
 1827 00b8 FBE7     		b	.L61
 1828              	.LVL268:
 1829              	.L68:
  74:../Common/IQMath/ti/_IQNexp.c ****         }
 1830              		.loc 1 74 20 view .LVU699
 1831 00ba 6FF00040 		mvn	r0, #-2147483648
 1832              	.LVL269:
  74:../Common/IQMath/ti/_IQNexp.c ****         }
ARM GAS  C:\Users\57308\AppData\Local\Temp\ccyuPR38.s 			page 52


 1833              		.loc 1 74 20 view .LVU700
 1834              	.LBE114:
 1835              	.LBE117:
 204:../Common/IQMath/ti/_IQNexp.c **** }
 1836              		.loc 1 204 12 view .LVU701
 1837 00be F8E7     		b	.L61
 1838              	.L72:
 1839              		.align	2
 1840              	.L71:
 1841 00c0 00000000 		.word	_IQNexp_offset
 1842 00c4 00000000 		.word	_IQNexp_min
 1843 00c8 00000000 		.word	_IQNexp_max
 1844 00cc 00000000 		.word	_IQNexp_lookup25
 1845 00d0 FB0BB958 		.word	1488522235
 1846 00d4 00000000 		.word	_IQ30exp_coeffs
 1847 00d8 05F446A7 		.word	-1488522235
 1848              		.cfi_endproc
 1849              	.LFE267:
 1851              		.section	.text._IQ24exp,"ax",%progbits
 1852              		.align	1
 1853              		.global	_IQ24exp
 1854              		.syntax unified
 1855              		.thumb
 1856              		.thumb_func
 1858              	_IQ24exp:
 1859              	.LVL270:
 1860              	.LFB268:
 206:../Common/IQMath/ti/_IQNexp.c **** /**
 207:../Common/IQMath/ti/_IQNexp.c ****  * @brief Computes the exponential of an IQ24 input.
 208:../Common/IQMath/ti/_IQNexp.c ****  *
 209:../Common/IQMath/ti/_IQNexp.c ****  * @param a               IQ24 type input.
 210:../Common/IQMath/ti/_IQNexp.c ****  *
 211:../Common/IQMath/ti/_IQNexp.c ****  * @return                IQ24 type result of exponential.
 212:../Common/IQMath/ti/_IQNexp.c ****  */
 213:../Common/IQMath/ti/_IQNexp.c **** int32_t _IQ24exp(int32_t a)
 214:../Common/IQMath/ti/_IQNexp.c **** {
 1861              		.loc 1 214 1 is_stmt 1 view -0
 1862              		.cfi_startproc
 1863              		@ args = 0, pretend = 0, frame = 0
 1864              		@ frame_needed = 0, uses_anonymous_args = 0
 1865              		@ link register save eliminated.
 1866              		.loc 1 214 1 is_stmt 0 view .LVU703
 1867 0000 30B4     		push	{r4, r5}
 1868              	.LCFI18:
 1869              		.cfi_def_cfa_offset 8
 1870              		.cfi_offset 4, -8
 1871              		.cfi_offset 5, -4
 215:../Common/IQMath/ti/_IQNexp.c ****     return __IQNexp(a, _IQNexp_lookup24, _IQNexp_offset[24-1], _IQNexp_min[24-1], _IQNexp_max[24-1]
 1872              		.loc 1 215 5 is_stmt 1 view .LVU704
 1873              		.loc 1 215 12 is_stmt 0 view .LVU705
 1874 0002 2F4B     		ldr	r3, .L83
 1875 0004 93F85C30 		ldrb	r3, [r3, #92]	@ zero_extendqisi2
 1876              		.loc 1 215 75 view .LVU706
 1877 0008 2E4A     		ldr	r2, .L83+4
 1878 000a D16D     		ldr	r1, [r2, #92]
 1879              		.loc 1 215 94 view .LVU707
 1880 000c 2E4A     		ldr	r2, .L83+8
ARM GAS  C:\Users\57308\AppData\Local\Temp\ccyuPR38.s 			page 53


 1881 000e D26D     		ldr	r2, [r2, #92]
 1882              	.LVL271:
 1883              	.LBB124:
 1884              	.LBI124:
  32:../Common/IQMath/ti/_IQNexp.c **** {
 1885              		.loc 1 32 30 is_stmt 1 view .LVU708
 1886              	.LBB125:
  34:../Common/IQMath/ti/_IQNexp.c ****     int_fast16_t i16Integer;
 1887              		.loc 1 34 5 view .LVU709
  35:../Common/IQMath/ti/_IQNexp.c ****     uint_fast16_t ui16IntState;
 1888              		.loc 1 35 5 view .LVU710
  36:../Common/IQMath/ti/_IQNexp.c ****     uint_fast16_t ui16MPYState;
 1889              		.loc 1 36 5 view .LVU711
  37:../Common/IQMath/ti/_IQNexp.c ****     int_fast32_t iq31Fractional;
 1890              		.loc 1 37 5 view .LVU712
  38:../Common/IQMath/ti/_IQNexp.c ****     uint_fast32_t uiqNResult;
 1891              		.loc 1 38 5 view .LVU713
  39:../Common/IQMath/ti/_IQNexp.c ****     uint_fast32_t uiqNIntegerResult;
 1892              		.loc 1 39 5 view .LVU714
  40:../Common/IQMath/ti/_IQNexp.c ****     uint_fast32_t uiq30FractionalResult;
 1893              		.loc 1 40 5 view .LVU715
  41:../Common/IQMath/ti/_IQNexp.c ****     uint_fast32_t uiq31FractionalResult;
 1894              		.loc 1 41 5 view .LVU716
  42:../Common/IQMath/ti/_IQNexp.c ****     const uint_fast32_t *piq30Coeffs;
 1895              		.loc 1 42 5 view .LVU717
  43:../Common/IQMath/ti/_IQNexp.c ****     
 1896              		.loc 1 43 5 view .LVU718
  46:../Common/IQMath/ti/_IQNexp.c ****         /* Check for the minimum value. */
 1897              		.loc 1 46 5 view .LVU719
  46:../Common/IQMath/ti/_IQNexp.c ****         /* Check for the minimum value. */
 1898              		.loc 1 46 8 is_stmt 0 view .LVU720
 1899 0010 0028     		cmp	r0, #0
  46:../Common/IQMath/ti/_IQNexp.c ****         /* Check for the minimum value. */
 1900              		.loc 1 46 8 view .LVU721
 1901 0012 19DB     		blt	.L82
  73:../Common/IQMath/ti/_IQNexp.c ****             return INT32_MAX;
 1902              		.loc 1 73 9 is_stmt 1 view .LVU722
  73:../Common/IQMath/ti/_IQNexp.c ****             return INT32_MAX;
 1903              		.loc 1 73 12 is_stmt 0 view .LVU723
 1904 0014 8242     		cmp	r2, r0
 1905 0016 50DB     		blt	.L80
  78:../Common/IQMath/ti/_IQNexp.c ****         iq31Fractional <<= (31 - q_value);
 1906              		.loc 1 78 9 is_stmt 1 view .LVU724
 1907              	.LVL272:
  79:../Common/IQMath/ti/_IQNexp.c ****         iq31Fractional &= 0x7fffffff;
 1908              		.loc 1 79 9 view .LVU725
  79:../Common/IQMath/ti/_IQNexp.c ****         iq31Fractional &= 0x7fffffff;
 1909              		.loc 1 79 24 is_stmt 0 view .LVU726
 1910 0018 4FEAC01C 		lsl	ip, r0, #7
 1911              	.LVL273:
  80:../Common/IQMath/ti/_IQNexp.c ****     
 1912              		.loc 1 80 9 is_stmt 1 view .LVU727
  80:../Common/IQMath/ti/_IQNexp.c ****     
 1913              		.loc 1 80 24 is_stmt 0 view .LVU728
 1914 001c 2CF0004C 		bic	ip, ip, #-2147483648
 1915              	.LVL274:
  83:../Common/IQMath/ti/_IQNexp.c ****     
ARM GAS  C:\Users\57308\AppData\Local\Temp\ccyuPR38.s 			page 54


 1916              		.loc 1 83 9 is_stmt 1 view .LVU729
  86:../Common/IQMath/ti/_IQNexp.c ****         uiqNIntegerResult = iqNLookupTable[i16Integer];
 1917              		.loc 1 86 9 view .LVU730
  86:../Common/IQMath/ti/_IQNexp.c ****         uiqNIntegerResult = iqNLookupTable[i16Integer];
 1918              		.loc 1 86 20 is_stmt 0 view .LVU731
 1919 0020 03EB2060 		add	r0, r3, r0, asr #24
 1920              	.LVL275:
  87:../Common/IQMath/ti/_IQNexp.c ****         
 1921              		.loc 1 87 9 is_stmt 1 view .LVU732
  87:../Common/IQMath/ti/_IQNexp.c ****         
 1922              		.loc 1 87 43 is_stmt 0 view .LVU733
 1923 0024 294B     		ldr	r3, .L83+12
 1924              	.LVL276:
  87:../Common/IQMath/ti/_IQNexp.c ****         
 1925              		.loc 1 87 27 view .LVU734
 1926 0026 53F82050 		ldr	r5, [r3, r0, lsl #2]
 1927              	.LVL277:
  90:../Common/IQMath/ti/_IQNexp.c ****             iq31Fractional -= iq31_ln2;
 1928              		.loc 1 90 9 is_stmt 1 view .LVU735
  90:../Common/IQMath/ti/_IQNexp.c ****             iq31Fractional -= iq31_ln2;
 1929              		.loc 1 90 12 is_stmt 0 view .LVU736
 1930 002a 294B     		ldr	r3, .L83+16
 1931 002c 9C45     		cmp	ip, r3
 1932 002e 06DD     		ble	.L76
  91:../Common/IQMath/ti/_IQNexp.c ****             uiqNIntegerResult <<= 1;
 1933              		.loc 1 91 13 is_stmt 1 view .LVU737
  91:../Common/IQMath/ti/_IQNexp.c ****             uiqNIntegerResult <<= 1;
 1934              		.loc 1 91 28 is_stmt 0 view .LVU738
 1935 0030 ACF1B14C 		sub	ip, ip, #1484783616
 1936              	.LVL278:
  91:../Common/IQMath/ti/_IQNexp.c ****             uiqNIntegerResult <<= 1;
 1937              		.loc 1 91 28 view .LVU739
 1938 0034 ACF5641C 		sub	ip, ip, #3735552
 1939              	.LVL279:
  91:../Common/IQMath/ti/_IQNexp.c ****             uiqNIntegerResult <<= 1;
 1940              		.loc 1 91 28 view .LVU740
 1941 0038 ACF6FC3C 		subw	ip, ip, #3068
 1942              	.LVL280:
  92:../Common/IQMath/ti/_IQNexp.c ****         }
 1943              		.loc 1 92 13 is_stmt 1 view .LVU741
  92:../Common/IQMath/ti/_IQNexp.c ****         }
 1944              		.loc 1 92 31 is_stmt 0 view .LVU742
 1945 003c 6D00     		lsls	r5, r5, #1
 1946              	.LVL281:
 1947              	.L76:
 102:../Common/IQMath/ti/_IQNexp.c ****     
 1948              		.loc 1 102 5 is_stmt 1 view .LVU743
 102:../Common/IQMath/ti/_IQNexp.c ****     
 1949              		.loc 1 102 5 is_stmt 0 view .LVU744
 1950              	.LBE125:
 1951              	.LBE124:
  28:../Common/IQMath/ti/./support/RTS_support.h **** }
 1952              		.loc 2 28 5 is_stmt 1 view .LVU745
 1953              	.LBB133:
 1954              	.LBB130:
 109:../Common/IQMath/ti/_IQNexp.c ****     uiq30FractionalResult = *piq30Coeffs++;
 1955              		.loc 1 109 5 view .LVU746
ARM GAS  C:\Users\57308\AppData\Local\Temp\ccyuPR38.s 			page 55


 110:../Common/IQMath/ti/_IQNexp.c ****     
 1956              		.loc 1 110 5 view .LVU747
 110:../Common/IQMath/ti/_IQNexp.c ****     
 1957              		.loc 1 110 27 is_stmt 0 view .LVU748
 1958 003e 2548     		ldr	r0, .L83+20
 1959              	.LVL282:
 110:../Common/IQMath/ti/_IQNexp.c ****     
 1960              		.loc 1 110 27 view .LVU749
 1961 0040 50F8043B 		ldr	r3, [r0], #4
 1962              	.LVL283:
 113:../Common/IQMath/ti/_IQNexp.c ****         uiq30FractionalResult = __mpyf_l(iq31Fractional, uiq30FractionalResult);
 1963              		.loc 1 113 5 is_stmt 1 view .LVU750
 113:../Common/IQMath/ti/_IQNexp.c ****         uiq30FractionalResult = __mpyf_l(iq31Fractional, uiq30FractionalResult);
 1964              		.loc 1 113 19 is_stmt 0 view .LVU751
 1965 0044 0A24     		movs	r4, #10
 113:../Common/IQMath/ti/_IQNexp.c ****         uiq30FractionalResult = __mpyf_l(iq31Fractional, uiq30FractionalResult);
 1966              		.loc 1 113 5 view .LVU752
 1967 0046 2AE0     		b	.L77
 1968              	.LVL284:
 1969              	.L82:
  48:../Common/IQMath/ti/_IQNexp.c ****             return 0;
 1970              		.loc 1 48 9 is_stmt 1 view .LVU753
  48:../Common/IQMath/ti/_IQNexp.c ****             return 0;
 1971              		.loc 1 48 12 is_stmt 0 view .LVU754
 1972 0048 8142     		cmp	r1, r0
 1973 004a 34DC     		bgt	.L79
  53:../Common/IQMath/ti/_IQNexp.c ****         iq31Fractional <<= (31 - q_value);
 1974              		.loc 1 53 9 is_stmt 1 view .LVU755
 1975              	.LVL285:
  54:../Common/IQMath/ti/_IQNexp.c ****         iq31Fractional |= 0x80000000;
 1976              		.loc 1 54 9 view .LVU756
  54:../Common/IQMath/ti/_IQNexp.c ****         iq31Fractional |= 0x80000000;
 1977              		.loc 1 54 24 is_stmt 0 view .LVU757
 1978 004c 4FEAC01C 		lsl	ip, r0, #7
 1979              	.LVL286:
  55:../Common/IQMath/ti/_IQNexp.c ****     
 1980              		.loc 1 55 9 is_stmt 1 view .LVU758
  55:../Common/IQMath/ti/_IQNexp.c ****     
 1981              		.loc 1 55 24 is_stmt 0 view .LVU759
 1982 0050 4CF0004C 		orr	ip, ip, #-2147483648
 1983              	.LVL287:
  58:../Common/IQMath/ti/_IQNexp.c ****     
 1984              		.loc 1 58 9 is_stmt 1 view .LVU760
  58:../Common/IQMath/ti/_IQNexp.c ****     
 1985              		.loc 1 58 46 is_stmt 0 view .LVU761
 1986 0054 0016     		asrs	r0, r0, #24
 1987              	.LVL288:
  58:../Common/IQMath/ti/_IQNexp.c ****     
 1988              		.loc 1 58 20 view .LVU762
 1989 0056 0130     		adds	r0, r0, #1
 1990              	.LVL289:
  61:../Common/IQMath/ti/_IQNexp.c ****         uiqNIntegerResult = iqNLookupTable[i16Integer];
 1991              		.loc 1 61 9 is_stmt 1 view .LVU763
  61:../Common/IQMath/ti/_IQNexp.c ****         uiqNIntegerResult = iqNLookupTable[i16Integer];
 1992              		.loc 1 61 20 is_stmt 0 view .LVU764
 1993 0058 1844     		add	r0, r0, r3
 1994              	.LVL290:
ARM GAS  C:\Users\57308\AppData\Local\Temp\ccyuPR38.s 			page 56


  62:../Common/IQMath/ti/_IQNexp.c ****         
 1995              		.loc 1 62 9 is_stmt 1 view .LVU765
  62:../Common/IQMath/ti/_IQNexp.c ****         
 1996              		.loc 1 62 43 is_stmt 0 view .LVU766
 1997 005a 1C4B     		ldr	r3, .L83+12
 1998              	.LVL291:
  62:../Common/IQMath/ti/_IQNexp.c ****         
 1999              		.loc 1 62 27 view .LVU767
 2000 005c 53F82050 		ldr	r5, [r3, r0, lsl #2]
 2001              	.LVL292:
  65:../Common/IQMath/ti/_IQNexp.c ****             iq31Fractional += iq31_ln2;
 2002              		.loc 1 65 9 is_stmt 1 view .LVU768
  65:../Common/IQMath/ti/_IQNexp.c ****             iq31Fractional += iq31_ln2;
 2003              		.loc 1 65 12 is_stmt 0 view .LVU769
 2004 0060 1D4B     		ldr	r3, .L83+24
 2005 0062 9C45     		cmp	ip, r3
 2006 0064 EBDA     		bge	.L76
  66:../Common/IQMath/ti/_IQNexp.c ****             uiqNIntegerResult >>= 1;
 2007              		.loc 1 66 13 is_stmt 1 view .LVU770
  66:../Common/IQMath/ti/_IQNexp.c ****             uiqNIntegerResult >>= 1;
 2008              		.loc 1 66 28 is_stmt 0 view .LVU771
 2009 0066 0CF1B14C 		add	ip, ip, #1484783616
 2010              	.LVL293:
  66:../Common/IQMath/ti/_IQNexp.c ****             uiqNIntegerResult >>= 1;
 2011              		.loc 1 66 28 view .LVU772
 2012 006a 0CF5641C 		add	ip, ip, #3735552
 2013              	.LVL294:
  66:../Common/IQMath/ti/_IQNexp.c ****             uiqNIntegerResult >>= 1;
 2014              		.loc 1 66 28 view .LVU773
 2015 006e 0CF6FC3C 		addw	ip, ip, #3068
 2016              	.LVL295:
  67:../Common/IQMath/ti/_IQNexp.c ****         }
 2017              		.loc 1 67 13 is_stmt 1 view .LVU774
  67:../Common/IQMath/ti/_IQNexp.c ****         }
 2018              		.loc 1 67 31 is_stmt 0 view .LVU775
 2019 0072 6D08     		lsrs	r5, r5, #1
 2020              	.LVL296:
  67:../Common/IQMath/ti/_IQNexp.c ****         }
 2021              		.loc 1 67 31 view .LVU776
 2022 0074 E3E7     		b	.L76
 2023              	.LVL297:
 2024              	.L78:
 114:../Common/IQMath/ti/_IQNexp.c ****         uiq30FractionalResult += *piq30Coeffs++;
 2025              		.loc 1 114 9 is_stmt 1 view .LVU777
 2026              	.LBB126:
 2027              	.LBI126:
 233:../Common/IQMath/ti/./support/RTS_support.h **** {
 2028              		.loc 2 233 28 view .LVU778
 2029              	.LBB127:
 235:../Common/IQMath/ti/./support/RTS_support.h **** }
 2030              		.loc 2 235 5 view .LVU779
 235:../Common/IQMath/ti/./support/RTS_support.h **** }
 2031              		.loc 2 235 28 is_stmt 0 view .LVU780
 2032 0076 4FEAEC72 		asr	r2, ip, #31
 235:../Common/IQMath/ti/./support/RTS_support.h **** }
 2033              		.loc 2 235 49 view .LVU781
 2034 007a D917     		asrs	r1, r3, #31
ARM GAS  C:\Users\57308\AppData\Local\Temp\ccyuPR38.s 			page 57


 235:../Common/IQMath/ti/./support/RTS_support.h **** }
 2035              		.loc 2 235 47 view .LVU782
 2036 007c 0CFB01F1 		mul	r1, ip, r1
 2037 0080 03FB0212 		mla	r2, r3, r2, r1
 2038 0084 ACFB0331 		umull	r3, r1, ip, r3
 2039              	.LVL298:
 235:../Common/IQMath/ti/./support/RTS_support.h **** }
 2040              		.loc 2 235 47 view .LVU783
 2041 0088 0A44     		add	r2, r2, r1
 235:../Common/IQMath/ti/./support/RTS_support.h **** }
 2042              		.loc 2 235 69 view .LVU784
 2043 008a DB0F     		lsrs	r3, r3, #31
 2044 008c 43EA4203 		orr	r3, r3, r2, lsl #1
 2045              	.LVL299:
 235:../Common/IQMath/ti/./support/RTS_support.h **** }
 2046              		.loc 2 235 69 view .LVU785
 2047              	.LBE127:
 2048              	.LBE126:
 115:../Common/IQMath/ti/_IQNexp.c ****     }
 2049              		.loc 1 115 9 is_stmt 1 view .LVU786
 115:../Common/IQMath/ti/_IQNexp.c ****     }
 2050              		.loc 1 115 46 is_stmt 0 view .LVU787
 2051 0090 0246     		mov	r2, r0
 2052              	.LVL300:
 115:../Common/IQMath/ti/_IQNexp.c ****     }
 2053              		.loc 1 115 34 view .LVU788
 2054 0092 52F8041B 		ldr	r1, [r2], #4
 2055              	.LVL301:
 115:../Common/IQMath/ti/_IQNexp.c ****     }
 2056              		.loc 1 115 31 view .LVU789
 2057 0096 0B44     		add	r3, r3, r1
 2058              	.LVL302:
 113:../Common/IQMath/ti/_IQNexp.c ****         uiq30FractionalResult = __mpyf_l(iq31Fractional, uiq30FractionalResult);
 2059              		.loc 1 113 51 is_stmt 1 view .LVU790
 113:../Common/IQMath/ti/_IQNexp.c ****         uiq30FractionalResult = __mpyf_l(iq31Fractional, uiq30FractionalResult);
 2060              		.loc 1 113 59 is_stmt 0 view .LVU791
 2061 0098 013C     		subs	r4, r4, #1
 2062              	.LVL303:
 113:../Common/IQMath/ti/_IQNexp.c ****         uiq30FractionalResult = __mpyf_l(iq31Fractional, uiq30FractionalResult);
 2063              		.loc 1 113 59 view .LVU792
 2064 009a E4B2     		uxtb	r4, r4
 2065              	.LVL304:
 115:../Common/IQMath/ti/_IQNexp.c ****     }
 2066              		.loc 1 115 46 view .LVU793
 2067 009c 1046     		mov	r0, r2
 2068              	.LVL305:
 2069              	.L77:
 113:../Common/IQMath/ti/_IQNexp.c ****         uiq30FractionalResult = __mpyf_l(iq31Fractional, uiq30FractionalResult);
 2070              		.loc 1 113 37 is_stmt 1 view .LVU794
 113:../Common/IQMath/ti/_IQNexp.c ****         uiq30FractionalResult = __mpyf_l(iq31Fractional, uiq30FractionalResult);
 2071              		.loc 1 113 5 is_stmt 0 view .LVU795
 2072 009e 002C     		cmp	r4, #0
 2073 00a0 E9D1     		bne	.L78
 119:../Common/IQMath/ti/_IQNexp.c ****     
 2074              		.loc 1 119 5 is_stmt 1 view .LVU796
 119:../Common/IQMath/ti/_IQNexp.c ****     
 2075              		.loc 1 119 27 is_stmt 0 view .LVU797
ARM GAS  C:\Users\57308\AppData\Local\Temp\ccyuPR38.s 			page 58


 2076 00a2 5B00     		lsls	r3, r3, #1
 2077              	.LVL306:
 125:../Common/IQMath/ti/_IQNexp.c ****     
 2078              		.loc 1 125 5 is_stmt 1 view .LVU798
 2079              	.LBB128:
 2080              	.LBI128:
 254:../Common/IQMath/ti/./support/RTS_support.h **** {
 2081              		.loc 2 254 29 view .LVU799
 2082              	.LBB129:
 2083              		.loc 2 256 5 view .LVU800
 2084              		.loc 2 256 49 is_stmt 0 view .LVU801
 2085 00a4 A5FB0353 		umull	r5, r3, r5, r3
 2086              	.LVL307:
 2087              		.loc 2 256 72 view .LVU802
 2088 00a8 ED0F     		lsrs	r5, r5, #31
 2089 00aa 45EA4305 		orr	r5, r5, r3, lsl #1
 2090              	.LVL308:
 2091              		.loc 2 256 72 view .LVU803
 2092              	.LBE129:
 2093              	.LBE128:
 131:../Common/IQMath/ti/_IQNexp.c ****     
 2094              		.loc 1 131 5 is_stmt 1 view .LVU804
 131:../Common/IQMath/ti/_IQNexp.c ****     
 2095              		.loc 1 131 5 is_stmt 0 view .LVU805
 2096              	.LBE130:
 2097              	.LBE133:
  72:../Common/IQMath/ti/./support/RTS_support.h **** }
 2098              		.loc 2 72 5 is_stmt 1 view .LVU806
 2099              	.LBB134:
 2100              	.LBB131:
 134:../Common/IQMath/ti/_IQNexp.c ****     uiqNResult >>= 1;
 2101              		.loc 1 134 5 view .LVU807
 134:../Common/IQMath/ti/_IQNexp.c ****     uiqNResult >>= 1;
 2102              		.loc 1 134 15 is_stmt 0 view .LVU808
 2103 00ae 0135     		adds	r5, r5, #1
 2104              	.LVL309:
 135:../Common/IQMath/ti/_IQNexp.c ****     
 2105              		.loc 1 135 5 is_stmt 1 view .LVU809
 135:../Common/IQMath/ti/_IQNexp.c ****     
 2106              		.loc 1 135 16 is_stmt 0 view .LVU810
 2107 00b0 6808     		lsrs	r0, r5, #1
 2108              	.LVL310:
 137:../Common/IQMath/ti/_IQNexp.c **** }
 2109              		.loc 1 137 5 is_stmt 1 view .LVU811
 2110              	.L73:
 137:../Common/IQMath/ti/_IQNexp.c **** }
 2111              		.loc 1 137 5 is_stmt 0 view .LVU812
 2112              	.LBE131:
 2113              	.LBE134:
 216:../Common/IQMath/ti/_IQNexp.c **** }
 2114              		.loc 1 216 1 view .LVU813
 2115 00b2 30BC     		pop	{r4, r5}
 2116              	.LCFI19:
 2117              		.cfi_remember_state
 2118              		.cfi_restore 5
 2119              		.cfi_restore 4
 2120              		.cfi_def_cfa_offset 0
ARM GAS  C:\Users\57308\AppData\Local\Temp\ccyuPR38.s 			page 59


 2121 00b4 7047     		bx	lr
 2122              	.LVL311:
 2123              	.L79:
 2124              	.LCFI20:
 2125              		.cfi_restore_state
 2126              	.LBB135:
 2127              	.LBB132:
  49:../Common/IQMath/ti/_IQNexp.c ****         }
 2128              		.loc 1 49 20 view .LVU814
 2129 00b6 0020     		movs	r0, #0
 2130              	.LVL312:
  49:../Common/IQMath/ti/_IQNexp.c ****         }
 2131              		.loc 1 49 20 view .LVU815
 2132 00b8 FBE7     		b	.L73
 2133              	.LVL313:
 2134              	.L80:
  74:../Common/IQMath/ti/_IQNexp.c ****         }
 2135              		.loc 1 74 20 view .LVU816
 2136 00ba 6FF00040 		mvn	r0, #-2147483648
 2137              	.LVL314:
  74:../Common/IQMath/ti/_IQNexp.c ****         }
 2138              		.loc 1 74 20 view .LVU817
 2139              	.LBE132:
 2140              	.LBE135:
 215:../Common/IQMath/ti/_IQNexp.c **** }
 2141              		.loc 1 215 12 view .LVU818
 2142 00be F8E7     		b	.L73
 2143              	.L84:
 2144              		.align	2
 2145              	.L83:
 2146 00c0 00000000 		.word	_IQNexp_offset
 2147 00c4 00000000 		.word	_IQNexp_min
 2148 00c8 00000000 		.word	_IQNexp_max
 2149 00cc 00000000 		.word	_IQNexp_lookup24
 2150 00d0 FB0BB958 		.word	1488522235
 2151 00d4 00000000 		.word	_IQ30exp_coeffs
 2152 00d8 05F446A7 		.word	-1488522235
 2153              		.cfi_endproc
 2154              	.LFE268:
 2156              		.section	.text._IQ23exp,"ax",%progbits
 2157              		.align	1
 2158              		.global	_IQ23exp
 2159              		.syntax unified
 2160              		.thumb
 2161              		.thumb_func
 2163              	_IQ23exp:
 2164              	.LVL315:
 2165              	.LFB269:
 217:../Common/IQMath/ti/_IQNexp.c **** /**
 218:../Common/IQMath/ti/_IQNexp.c ****  * @brief Computes the exponential of an IQ23 input.
 219:../Common/IQMath/ti/_IQNexp.c ****  *
 220:../Common/IQMath/ti/_IQNexp.c ****  * @param a               IQ23 type input.
 221:../Common/IQMath/ti/_IQNexp.c ****  *
 222:../Common/IQMath/ti/_IQNexp.c ****  * @return                IQ23 type result of exponential.
 223:../Common/IQMath/ti/_IQNexp.c ****  */
 224:../Common/IQMath/ti/_IQNexp.c **** int32_t _IQ23exp(int32_t a)
 225:../Common/IQMath/ti/_IQNexp.c **** {
ARM GAS  C:\Users\57308\AppData\Local\Temp\ccyuPR38.s 			page 60


 2166              		.loc 1 225 1 is_stmt 1 view -0
 2167              		.cfi_startproc
 2168              		@ args = 0, pretend = 0, frame = 0
 2169              		@ frame_needed = 0, uses_anonymous_args = 0
 2170              		@ link register save eliminated.
 2171              		.loc 1 225 1 is_stmt 0 view .LVU820
 2172 0000 30B4     		push	{r4, r5}
 2173              	.LCFI21:
 2174              		.cfi_def_cfa_offset 8
 2175              		.cfi_offset 4, -8
 2176              		.cfi_offset 5, -4
 226:../Common/IQMath/ti/_IQNexp.c ****     return __IQNexp(a, _IQNexp_lookup23, _IQNexp_offset[23-1], _IQNexp_min[23-1], _IQNexp_max[23-1]
 2177              		.loc 1 226 5 is_stmt 1 view .LVU821
 2178              		.loc 1 226 12 is_stmt 0 view .LVU822
 2179 0002 2F4B     		ldr	r3, .L95
 2180 0004 93F85830 		ldrb	r3, [r3, #88]	@ zero_extendqisi2
 2181              		.loc 1 226 75 view .LVU823
 2182 0008 2E4A     		ldr	r2, .L95+4
 2183 000a 916D     		ldr	r1, [r2, #88]
 2184              		.loc 1 226 94 view .LVU824
 2185 000c 2E4A     		ldr	r2, .L95+8
 2186 000e 926D     		ldr	r2, [r2, #88]
 2187              	.LVL316:
 2188              	.LBB142:
 2189              	.LBI142:
  32:../Common/IQMath/ti/_IQNexp.c **** {
 2190              		.loc 1 32 30 is_stmt 1 view .LVU825
 2191              	.LBB143:
  34:../Common/IQMath/ti/_IQNexp.c ****     int_fast16_t i16Integer;
 2192              		.loc 1 34 5 view .LVU826
  35:../Common/IQMath/ti/_IQNexp.c ****     uint_fast16_t ui16IntState;
 2193              		.loc 1 35 5 view .LVU827
  36:../Common/IQMath/ti/_IQNexp.c ****     uint_fast16_t ui16MPYState;
 2194              		.loc 1 36 5 view .LVU828
  37:../Common/IQMath/ti/_IQNexp.c ****     int_fast32_t iq31Fractional;
 2195              		.loc 1 37 5 view .LVU829
  38:../Common/IQMath/ti/_IQNexp.c ****     uint_fast32_t uiqNResult;
 2196              		.loc 1 38 5 view .LVU830
  39:../Common/IQMath/ti/_IQNexp.c ****     uint_fast32_t uiqNIntegerResult;
 2197              		.loc 1 39 5 view .LVU831
  40:../Common/IQMath/ti/_IQNexp.c ****     uint_fast32_t uiq30FractionalResult;
 2198              		.loc 1 40 5 view .LVU832
  41:../Common/IQMath/ti/_IQNexp.c ****     uint_fast32_t uiq31FractionalResult;
 2199              		.loc 1 41 5 view .LVU833
  42:../Common/IQMath/ti/_IQNexp.c ****     const uint_fast32_t *piq30Coeffs;
 2200              		.loc 1 42 5 view .LVU834
  43:../Common/IQMath/ti/_IQNexp.c ****     
 2201              		.loc 1 43 5 view .LVU835
  46:../Common/IQMath/ti/_IQNexp.c ****         /* Check for the minimum value. */
 2202              		.loc 1 46 5 view .LVU836
  46:../Common/IQMath/ti/_IQNexp.c ****         /* Check for the minimum value. */
 2203              		.loc 1 46 8 is_stmt 0 view .LVU837
 2204 0010 0028     		cmp	r0, #0
  46:../Common/IQMath/ti/_IQNexp.c ****         /* Check for the minimum value. */
 2205              		.loc 1 46 8 view .LVU838
 2206 0012 19DB     		blt	.L94
  73:../Common/IQMath/ti/_IQNexp.c ****             return INT32_MAX;
ARM GAS  C:\Users\57308\AppData\Local\Temp\ccyuPR38.s 			page 61


 2207              		.loc 1 73 9 is_stmt 1 view .LVU839
  73:../Common/IQMath/ti/_IQNexp.c ****             return INT32_MAX;
 2208              		.loc 1 73 12 is_stmt 0 view .LVU840
 2209 0014 8242     		cmp	r2, r0
 2210 0016 50DB     		blt	.L92
  78:../Common/IQMath/ti/_IQNexp.c ****         iq31Fractional <<= (31 - q_value);
 2211              		.loc 1 78 9 is_stmt 1 view .LVU841
 2212              	.LVL317:
  79:../Common/IQMath/ti/_IQNexp.c ****         iq31Fractional &= 0x7fffffff;
 2213              		.loc 1 79 9 view .LVU842
  79:../Common/IQMath/ti/_IQNexp.c ****         iq31Fractional &= 0x7fffffff;
 2214              		.loc 1 79 24 is_stmt 0 view .LVU843
 2215 0018 4FEA002C 		lsl	ip, r0, #8
 2216              	.LVL318:
  80:../Common/IQMath/ti/_IQNexp.c ****     
 2217              		.loc 1 80 9 is_stmt 1 view .LVU844
  80:../Common/IQMath/ti/_IQNexp.c ****     
 2218              		.loc 1 80 24 is_stmt 0 view .LVU845
 2219 001c 2CF0004C 		bic	ip, ip, #-2147483648
 2220              	.LVL319:
  83:../Common/IQMath/ti/_IQNexp.c ****     
 2221              		.loc 1 83 9 is_stmt 1 view .LVU846
  86:../Common/IQMath/ti/_IQNexp.c ****         uiqNIntegerResult = iqNLookupTable[i16Integer];
 2222              		.loc 1 86 9 view .LVU847
  86:../Common/IQMath/ti/_IQNexp.c ****         uiqNIntegerResult = iqNLookupTable[i16Integer];
 2223              		.loc 1 86 20 is_stmt 0 view .LVU848
 2224 0020 03EBE050 		add	r0, r3, r0, asr #23
 2225              	.LVL320:
  87:../Common/IQMath/ti/_IQNexp.c ****         
 2226              		.loc 1 87 9 is_stmt 1 view .LVU849
  87:../Common/IQMath/ti/_IQNexp.c ****         
 2227              		.loc 1 87 43 is_stmt 0 view .LVU850
 2228 0024 294B     		ldr	r3, .L95+12
 2229              	.LVL321:
  87:../Common/IQMath/ti/_IQNexp.c ****         
 2230              		.loc 1 87 27 view .LVU851
 2231 0026 53F82050 		ldr	r5, [r3, r0, lsl #2]
 2232              	.LVL322:
  90:../Common/IQMath/ti/_IQNexp.c ****             iq31Fractional -= iq31_ln2;
 2233              		.loc 1 90 9 is_stmt 1 view .LVU852
  90:../Common/IQMath/ti/_IQNexp.c ****             iq31Fractional -= iq31_ln2;
 2234              		.loc 1 90 12 is_stmt 0 view .LVU853
 2235 002a 294B     		ldr	r3, .L95+16
 2236 002c 9C45     		cmp	ip, r3
 2237 002e 06DD     		ble	.L88
  91:../Common/IQMath/ti/_IQNexp.c ****             uiqNIntegerResult <<= 1;
 2238              		.loc 1 91 13 is_stmt 1 view .LVU854
  91:../Common/IQMath/ti/_IQNexp.c ****             uiqNIntegerResult <<= 1;
 2239              		.loc 1 91 28 is_stmt 0 view .LVU855
 2240 0030 ACF1B14C 		sub	ip, ip, #1484783616
 2241              	.LVL323:
  91:../Common/IQMath/ti/_IQNexp.c ****             uiqNIntegerResult <<= 1;
 2242              		.loc 1 91 28 view .LVU856
 2243 0034 ACF5641C 		sub	ip, ip, #3735552
 2244              	.LVL324:
  91:../Common/IQMath/ti/_IQNexp.c ****             uiqNIntegerResult <<= 1;
 2245              		.loc 1 91 28 view .LVU857
ARM GAS  C:\Users\57308\AppData\Local\Temp\ccyuPR38.s 			page 62


 2246 0038 ACF6FC3C 		subw	ip, ip, #3068
 2247              	.LVL325:
  92:../Common/IQMath/ti/_IQNexp.c ****         }
 2248              		.loc 1 92 13 is_stmt 1 view .LVU858
  92:../Common/IQMath/ti/_IQNexp.c ****         }
 2249              		.loc 1 92 31 is_stmt 0 view .LVU859
 2250 003c 6D00     		lsls	r5, r5, #1
 2251              	.LVL326:
 2252              	.L88:
 102:../Common/IQMath/ti/_IQNexp.c ****     
 2253              		.loc 1 102 5 is_stmt 1 view .LVU860
 102:../Common/IQMath/ti/_IQNexp.c ****     
 2254              		.loc 1 102 5 is_stmt 0 view .LVU861
 2255              	.LBE143:
 2256              	.LBE142:
  28:../Common/IQMath/ti/./support/RTS_support.h **** }
 2257              		.loc 2 28 5 is_stmt 1 view .LVU862
 2258              	.LBB151:
 2259              	.LBB148:
 109:../Common/IQMath/ti/_IQNexp.c ****     uiq30FractionalResult = *piq30Coeffs++;
 2260              		.loc 1 109 5 view .LVU863
 110:../Common/IQMath/ti/_IQNexp.c ****     
 2261              		.loc 1 110 5 view .LVU864
 110:../Common/IQMath/ti/_IQNexp.c ****     
 2262              		.loc 1 110 27 is_stmt 0 view .LVU865
 2263 003e 2548     		ldr	r0, .L95+20
 2264              	.LVL327:
 110:../Common/IQMath/ti/_IQNexp.c ****     
 2265              		.loc 1 110 27 view .LVU866
 2266 0040 50F8043B 		ldr	r3, [r0], #4
 2267              	.LVL328:
 113:../Common/IQMath/ti/_IQNexp.c ****         uiq30FractionalResult = __mpyf_l(iq31Fractional, uiq30FractionalResult);
 2268              		.loc 1 113 5 is_stmt 1 view .LVU867
 113:../Common/IQMath/ti/_IQNexp.c ****         uiq30FractionalResult = __mpyf_l(iq31Fractional, uiq30FractionalResult);
 2269              		.loc 1 113 19 is_stmt 0 view .LVU868
 2270 0044 0A24     		movs	r4, #10
 113:../Common/IQMath/ti/_IQNexp.c ****         uiq30FractionalResult = __mpyf_l(iq31Fractional, uiq30FractionalResult);
 2271              		.loc 1 113 5 view .LVU869
 2272 0046 2AE0     		b	.L89
 2273              	.LVL329:
 2274              	.L94:
  48:../Common/IQMath/ti/_IQNexp.c ****             return 0;
 2275              		.loc 1 48 9 is_stmt 1 view .LVU870
  48:../Common/IQMath/ti/_IQNexp.c ****             return 0;
 2276              		.loc 1 48 12 is_stmt 0 view .LVU871
 2277 0048 8142     		cmp	r1, r0
 2278 004a 34DC     		bgt	.L91
  53:../Common/IQMath/ti/_IQNexp.c ****         iq31Fractional <<= (31 - q_value);
 2279              		.loc 1 53 9 is_stmt 1 view .LVU872
 2280              	.LVL330:
  54:../Common/IQMath/ti/_IQNexp.c ****         iq31Fractional |= 0x80000000;
 2281              		.loc 1 54 9 view .LVU873
  54:../Common/IQMath/ti/_IQNexp.c ****         iq31Fractional |= 0x80000000;
 2282              		.loc 1 54 24 is_stmt 0 view .LVU874
 2283 004c 4FEA002C 		lsl	ip, r0, #8
 2284              	.LVL331:
  55:../Common/IQMath/ti/_IQNexp.c ****     
ARM GAS  C:\Users\57308\AppData\Local\Temp\ccyuPR38.s 			page 63


 2285              		.loc 1 55 9 is_stmt 1 view .LVU875
  55:../Common/IQMath/ti/_IQNexp.c ****     
 2286              		.loc 1 55 24 is_stmt 0 view .LVU876
 2287 0050 4CF0004C 		orr	ip, ip, #-2147483648
 2288              	.LVL332:
  58:../Common/IQMath/ti/_IQNexp.c ****     
 2289              		.loc 1 58 9 is_stmt 1 view .LVU877
  58:../Common/IQMath/ti/_IQNexp.c ****     
 2290              		.loc 1 58 46 is_stmt 0 view .LVU878
 2291 0054 C015     		asrs	r0, r0, #23
 2292              	.LVL333:
  58:../Common/IQMath/ti/_IQNexp.c ****     
 2293              		.loc 1 58 20 view .LVU879
 2294 0056 0130     		adds	r0, r0, #1
 2295              	.LVL334:
  61:../Common/IQMath/ti/_IQNexp.c ****         uiqNIntegerResult = iqNLookupTable[i16Integer];
 2296              		.loc 1 61 9 is_stmt 1 view .LVU880
  61:../Common/IQMath/ti/_IQNexp.c ****         uiqNIntegerResult = iqNLookupTable[i16Integer];
 2297              		.loc 1 61 20 is_stmt 0 view .LVU881
 2298 0058 1844     		add	r0, r0, r3
 2299              	.LVL335:
  62:../Common/IQMath/ti/_IQNexp.c ****         
 2300              		.loc 1 62 9 is_stmt 1 view .LVU882
  62:../Common/IQMath/ti/_IQNexp.c ****         
 2301              		.loc 1 62 43 is_stmt 0 view .LVU883
 2302 005a 1C4B     		ldr	r3, .L95+12
 2303              	.LVL336:
  62:../Common/IQMath/ti/_IQNexp.c ****         
 2304              		.loc 1 62 27 view .LVU884
 2305 005c 53F82050 		ldr	r5, [r3, r0, lsl #2]
 2306              	.LVL337:
  65:../Common/IQMath/ti/_IQNexp.c ****             iq31Fractional += iq31_ln2;
 2307              		.loc 1 65 9 is_stmt 1 view .LVU885
  65:../Common/IQMath/ti/_IQNexp.c ****             iq31Fractional += iq31_ln2;
 2308              		.loc 1 65 12 is_stmt 0 view .LVU886
 2309 0060 1D4B     		ldr	r3, .L95+24
 2310 0062 9C45     		cmp	ip, r3
 2311 0064 EBDA     		bge	.L88
  66:../Common/IQMath/ti/_IQNexp.c ****             uiqNIntegerResult >>= 1;
 2312              		.loc 1 66 13 is_stmt 1 view .LVU887
  66:../Common/IQMath/ti/_IQNexp.c ****             uiqNIntegerResult >>= 1;
 2313              		.loc 1 66 28 is_stmt 0 view .LVU888
 2314 0066 0CF1B14C 		add	ip, ip, #1484783616
 2315              	.LVL338:
  66:../Common/IQMath/ti/_IQNexp.c ****             uiqNIntegerResult >>= 1;
 2316              		.loc 1 66 28 view .LVU889
 2317 006a 0CF5641C 		add	ip, ip, #3735552
 2318              	.LVL339:
  66:../Common/IQMath/ti/_IQNexp.c ****             uiqNIntegerResult >>= 1;
 2319              		.loc 1 66 28 view .LVU890
 2320 006e 0CF6FC3C 		addw	ip, ip, #3068
 2321              	.LVL340:
  67:../Common/IQMath/ti/_IQNexp.c ****         }
 2322              		.loc 1 67 13 is_stmt 1 view .LVU891
  67:../Common/IQMath/ti/_IQNexp.c ****         }
 2323              		.loc 1 67 31 is_stmt 0 view .LVU892
 2324 0072 6D08     		lsrs	r5, r5, #1
ARM GAS  C:\Users\57308\AppData\Local\Temp\ccyuPR38.s 			page 64


 2325              	.LVL341:
  67:../Common/IQMath/ti/_IQNexp.c ****         }
 2326              		.loc 1 67 31 view .LVU893
 2327 0074 E3E7     		b	.L88
 2328              	.LVL342:
 2329              	.L90:
 114:../Common/IQMath/ti/_IQNexp.c ****         uiq30FractionalResult += *piq30Coeffs++;
 2330              		.loc 1 114 9 is_stmt 1 view .LVU894
 2331              	.LBB144:
 2332              	.LBI144:
 233:../Common/IQMath/ti/./support/RTS_support.h **** {
 2333              		.loc 2 233 28 view .LVU895
 2334              	.LBB145:
 235:../Common/IQMath/ti/./support/RTS_support.h **** }
 2335              		.loc 2 235 5 view .LVU896
 235:../Common/IQMath/ti/./support/RTS_support.h **** }
 2336              		.loc 2 235 28 is_stmt 0 view .LVU897
 2337 0076 4FEAEC72 		asr	r2, ip, #31
 235:../Common/IQMath/ti/./support/RTS_support.h **** }
 2338              		.loc 2 235 49 view .LVU898
 2339 007a D917     		asrs	r1, r3, #31
 235:../Common/IQMath/ti/./support/RTS_support.h **** }
 2340              		.loc 2 235 47 view .LVU899
 2341 007c 0CFB01F1 		mul	r1, ip, r1
 2342 0080 03FB0212 		mla	r2, r3, r2, r1
 2343 0084 ACFB0331 		umull	r3, r1, ip, r3
 2344              	.LVL343:
 235:../Common/IQMath/ti/./support/RTS_support.h **** }
 2345              		.loc 2 235 47 view .LVU900
 2346 0088 0A44     		add	r2, r2, r1
 235:../Common/IQMath/ti/./support/RTS_support.h **** }
 2347              		.loc 2 235 69 view .LVU901
 2348 008a DB0F     		lsrs	r3, r3, #31
 2349 008c 43EA4203 		orr	r3, r3, r2, lsl #1
 2350              	.LVL344:
 235:../Common/IQMath/ti/./support/RTS_support.h **** }
 2351              		.loc 2 235 69 view .LVU902
 2352              	.LBE145:
 2353              	.LBE144:
 115:../Common/IQMath/ti/_IQNexp.c ****     }
 2354              		.loc 1 115 9 is_stmt 1 view .LVU903
 115:../Common/IQMath/ti/_IQNexp.c ****     }
 2355              		.loc 1 115 46 is_stmt 0 view .LVU904
 2356 0090 0246     		mov	r2, r0
 2357              	.LVL345:
 115:../Common/IQMath/ti/_IQNexp.c ****     }
 2358              		.loc 1 115 34 view .LVU905
 2359 0092 52F8041B 		ldr	r1, [r2], #4
 2360              	.LVL346:
 115:../Common/IQMath/ti/_IQNexp.c ****     }
 2361              		.loc 1 115 31 view .LVU906
 2362 0096 0B44     		add	r3, r3, r1
 2363              	.LVL347:
 113:../Common/IQMath/ti/_IQNexp.c ****         uiq30FractionalResult = __mpyf_l(iq31Fractional, uiq30FractionalResult);
 2364              		.loc 1 113 51 is_stmt 1 view .LVU907
 113:../Common/IQMath/ti/_IQNexp.c ****         uiq30FractionalResult = __mpyf_l(iq31Fractional, uiq30FractionalResult);
 2365              		.loc 1 113 59 is_stmt 0 view .LVU908
ARM GAS  C:\Users\57308\AppData\Local\Temp\ccyuPR38.s 			page 65


 2366 0098 013C     		subs	r4, r4, #1
 2367              	.LVL348:
 113:../Common/IQMath/ti/_IQNexp.c ****         uiq30FractionalResult = __mpyf_l(iq31Fractional, uiq30FractionalResult);
 2368              		.loc 1 113 59 view .LVU909
 2369 009a E4B2     		uxtb	r4, r4
 2370              	.LVL349:
 115:../Common/IQMath/ti/_IQNexp.c ****     }
 2371              		.loc 1 115 46 view .LVU910
 2372 009c 1046     		mov	r0, r2
 2373              	.LVL350:
 2374              	.L89:
 113:../Common/IQMath/ti/_IQNexp.c ****         uiq30FractionalResult = __mpyf_l(iq31Fractional, uiq30FractionalResult);
 2375              		.loc 1 113 37 is_stmt 1 view .LVU911
 113:../Common/IQMath/ti/_IQNexp.c ****         uiq30FractionalResult = __mpyf_l(iq31Fractional, uiq30FractionalResult);
 2376              		.loc 1 113 5 is_stmt 0 view .LVU912
 2377 009e 002C     		cmp	r4, #0
 2378 00a0 E9D1     		bne	.L90
 119:../Common/IQMath/ti/_IQNexp.c ****     
 2379              		.loc 1 119 5 is_stmt 1 view .LVU913
 119:../Common/IQMath/ti/_IQNexp.c ****     
 2380              		.loc 1 119 27 is_stmt 0 view .LVU914
 2381 00a2 5B00     		lsls	r3, r3, #1
 2382              	.LVL351:
 125:../Common/IQMath/ti/_IQNexp.c ****     
 2383              		.loc 1 125 5 is_stmt 1 view .LVU915
 2384              	.LBB146:
 2385              	.LBI146:
 254:../Common/IQMath/ti/./support/RTS_support.h **** {
 2386              		.loc 2 254 29 view .LVU916
 2387              	.LBB147:
 2388              		.loc 2 256 5 view .LVU917
 2389              		.loc 2 256 49 is_stmt 0 view .LVU918
 2390 00a4 A5FB0353 		umull	r5, r3, r5, r3
 2391              	.LVL352:
 2392              		.loc 2 256 72 view .LVU919
 2393 00a8 ED0F     		lsrs	r5, r5, #31
 2394 00aa 45EA4305 		orr	r5, r5, r3, lsl #1
 2395              	.LVL353:
 2396              		.loc 2 256 72 view .LVU920
 2397              	.LBE147:
 2398              	.LBE146:
 131:../Common/IQMath/ti/_IQNexp.c ****     
 2399              		.loc 1 131 5 is_stmt 1 view .LVU921
 131:../Common/IQMath/ti/_IQNexp.c ****     
 2400              		.loc 1 131 5 is_stmt 0 view .LVU922
 2401              	.LBE148:
 2402              	.LBE151:
  72:../Common/IQMath/ti/./support/RTS_support.h **** }
 2403              		.loc 2 72 5 is_stmt 1 view .LVU923
 2404              	.LBB152:
 2405              	.LBB149:
 134:../Common/IQMath/ti/_IQNexp.c ****     uiqNResult >>= 1;
 2406              		.loc 1 134 5 view .LVU924
 134:../Common/IQMath/ti/_IQNexp.c ****     uiqNResult >>= 1;
 2407              		.loc 1 134 15 is_stmt 0 view .LVU925
 2408 00ae 0135     		adds	r5, r5, #1
 2409              	.LVL354:
ARM GAS  C:\Users\57308\AppData\Local\Temp\ccyuPR38.s 			page 66


 135:../Common/IQMath/ti/_IQNexp.c ****     
 2410              		.loc 1 135 5 is_stmt 1 view .LVU926
 135:../Common/IQMath/ti/_IQNexp.c ****     
 2411              		.loc 1 135 16 is_stmt 0 view .LVU927
 2412 00b0 6808     		lsrs	r0, r5, #1
 2413              	.LVL355:
 137:../Common/IQMath/ti/_IQNexp.c **** }
 2414              		.loc 1 137 5 is_stmt 1 view .LVU928
 2415              	.L85:
 137:../Common/IQMath/ti/_IQNexp.c **** }
 2416              		.loc 1 137 5 is_stmt 0 view .LVU929
 2417              	.LBE149:
 2418              	.LBE152:
 227:../Common/IQMath/ti/_IQNexp.c **** }
 2419              		.loc 1 227 1 view .LVU930
 2420 00b2 30BC     		pop	{r4, r5}
 2421              	.LCFI22:
 2422              		.cfi_remember_state
 2423              		.cfi_restore 5
 2424              		.cfi_restore 4
 2425              		.cfi_def_cfa_offset 0
 2426 00b4 7047     		bx	lr
 2427              	.LVL356:
 2428              	.L91:
 2429              	.LCFI23:
 2430              		.cfi_restore_state
 2431              	.LBB153:
 2432              	.LBB150:
  49:../Common/IQMath/ti/_IQNexp.c ****         }
 2433              		.loc 1 49 20 view .LVU931
 2434 00b6 0020     		movs	r0, #0
 2435              	.LVL357:
  49:../Common/IQMath/ti/_IQNexp.c ****         }
 2436              		.loc 1 49 20 view .LVU932
 2437 00b8 FBE7     		b	.L85
 2438              	.LVL358:
 2439              	.L92:
  74:../Common/IQMath/ti/_IQNexp.c ****         }
 2440              		.loc 1 74 20 view .LVU933
 2441 00ba 6FF00040 		mvn	r0, #-2147483648
 2442              	.LVL359:
  74:../Common/IQMath/ti/_IQNexp.c ****         }
 2443              		.loc 1 74 20 view .LVU934
 2444              	.LBE150:
 2445              	.LBE153:
 226:../Common/IQMath/ti/_IQNexp.c **** }
 2446              		.loc 1 226 12 view .LVU935
 2447 00be F8E7     		b	.L85
 2448              	.L96:
 2449              		.align	2
 2450              	.L95:
 2451 00c0 00000000 		.word	_IQNexp_offset
 2452 00c4 00000000 		.word	_IQNexp_min
 2453 00c8 00000000 		.word	_IQNexp_max
 2454 00cc 00000000 		.word	_IQNexp_lookup23
 2455 00d0 FB0BB958 		.word	1488522235
 2456 00d4 00000000 		.word	_IQ30exp_coeffs
ARM GAS  C:\Users\57308\AppData\Local\Temp\ccyuPR38.s 			page 67


 2457 00d8 05F446A7 		.word	-1488522235
 2458              		.cfi_endproc
 2459              	.LFE269:
 2461              		.section	.text._IQ22exp,"ax",%progbits
 2462              		.align	1
 2463              		.global	_IQ22exp
 2464              		.syntax unified
 2465              		.thumb
 2466              		.thumb_func
 2468              	_IQ22exp:
 2469              	.LVL360:
 2470              	.LFB270:
 228:../Common/IQMath/ti/_IQNexp.c **** /**
 229:../Common/IQMath/ti/_IQNexp.c ****  * @brief Computes the exponential of an IQ22 input.
 230:../Common/IQMath/ti/_IQNexp.c ****  *
 231:../Common/IQMath/ti/_IQNexp.c ****  * @param a               IQ22 type input.
 232:../Common/IQMath/ti/_IQNexp.c ****  *
 233:../Common/IQMath/ti/_IQNexp.c ****  * @return                IQ22 type result of exponential.
 234:../Common/IQMath/ti/_IQNexp.c ****  */
 235:../Common/IQMath/ti/_IQNexp.c **** int32_t _IQ22exp(int32_t a)
 236:../Common/IQMath/ti/_IQNexp.c **** {
 2471              		.loc 1 236 1 is_stmt 1 view -0
 2472              		.cfi_startproc
 2473              		@ args = 0, pretend = 0, frame = 0
 2474              		@ frame_needed = 0, uses_anonymous_args = 0
 2475              		@ link register save eliminated.
 2476              		.loc 1 236 1 is_stmt 0 view .LVU937
 2477 0000 30B4     		push	{r4, r5}
 2478              	.LCFI24:
 2479              		.cfi_def_cfa_offset 8
 2480              		.cfi_offset 4, -8
 2481              		.cfi_offset 5, -4
 237:../Common/IQMath/ti/_IQNexp.c ****     return __IQNexp(a, _IQNexp_lookup22, _IQNexp_offset[22-1], _IQNexp_min[22-1], _IQNexp_max[22-1]
 2482              		.loc 1 237 5 is_stmt 1 view .LVU938
 2483              		.loc 1 237 12 is_stmt 0 view .LVU939
 2484 0002 2F4B     		ldr	r3, .L107
 2485 0004 93F85430 		ldrb	r3, [r3, #84]	@ zero_extendqisi2
 2486              		.loc 1 237 75 view .LVU940
 2487 0008 2E4A     		ldr	r2, .L107+4
 2488 000a 516D     		ldr	r1, [r2, #84]
 2489              		.loc 1 237 94 view .LVU941
 2490 000c 2E4A     		ldr	r2, .L107+8
 2491 000e 526D     		ldr	r2, [r2, #84]
 2492              	.LVL361:
 2493              	.LBB160:
 2494              	.LBI160:
  32:../Common/IQMath/ti/_IQNexp.c **** {
 2495              		.loc 1 32 30 is_stmt 1 view .LVU942
 2496              	.LBB161:
  34:../Common/IQMath/ti/_IQNexp.c ****     int_fast16_t i16Integer;
 2497              		.loc 1 34 5 view .LVU943
  35:../Common/IQMath/ti/_IQNexp.c ****     uint_fast16_t ui16IntState;
 2498              		.loc 1 35 5 view .LVU944
  36:../Common/IQMath/ti/_IQNexp.c ****     uint_fast16_t ui16MPYState;
 2499              		.loc 1 36 5 view .LVU945
  37:../Common/IQMath/ti/_IQNexp.c ****     int_fast32_t iq31Fractional;
 2500              		.loc 1 37 5 view .LVU946
ARM GAS  C:\Users\57308\AppData\Local\Temp\ccyuPR38.s 			page 68


  38:../Common/IQMath/ti/_IQNexp.c ****     uint_fast32_t uiqNResult;
 2501              		.loc 1 38 5 view .LVU947
  39:../Common/IQMath/ti/_IQNexp.c ****     uint_fast32_t uiqNIntegerResult;
 2502              		.loc 1 39 5 view .LVU948
  40:../Common/IQMath/ti/_IQNexp.c ****     uint_fast32_t uiq30FractionalResult;
 2503              		.loc 1 40 5 view .LVU949
  41:../Common/IQMath/ti/_IQNexp.c ****     uint_fast32_t uiq31FractionalResult;
 2504              		.loc 1 41 5 view .LVU950
  42:../Common/IQMath/ti/_IQNexp.c ****     const uint_fast32_t *piq30Coeffs;
 2505              		.loc 1 42 5 view .LVU951
  43:../Common/IQMath/ti/_IQNexp.c ****     
 2506              		.loc 1 43 5 view .LVU952
  46:../Common/IQMath/ti/_IQNexp.c ****         /* Check for the minimum value. */
 2507              		.loc 1 46 5 view .LVU953
  46:../Common/IQMath/ti/_IQNexp.c ****         /* Check for the minimum value. */
 2508              		.loc 1 46 8 is_stmt 0 view .LVU954
 2509 0010 0028     		cmp	r0, #0
  46:../Common/IQMath/ti/_IQNexp.c ****         /* Check for the minimum value. */
 2510              		.loc 1 46 8 view .LVU955
 2511 0012 19DB     		blt	.L106
  73:../Common/IQMath/ti/_IQNexp.c ****             return INT32_MAX;
 2512              		.loc 1 73 9 is_stmt 1 view .LVU956
  73:../Common/IQMath/ti/_IQNexp.c ****             return INT32_MAX;
 2513              		.loc 1 73 12 is_stmt 0 view .LVU957
 2514 0014 8242     		cmp	r2, r0
 2515 0016 50DB     		blt	.L104
  78:../Common/IQMath/ti/_IQNexp.c ****         iq31Fractional <<= (31 - q_value);
 2516              		.loc 1 78 9 is_stmt 1 view .LVU958
 2517              	.LVL362:
  79:../Common/IQMath/ti/_IQNexp.c ****         iq31Fractional &= 0x7fffffff;
 2518              		.loc 1 79 9 view .LVU959
  79:../Common/IQMath/ti/_IQNexp.c ****         iq31Fractional &= 0x7fffffff;
 2519              		.loc 1 79 24 is_stmt 0 view .LVU960
 2520 0018 4FEA402C 		lsl	ip, r0, #9
 2521              	.LVL363:
  80:../Common/IQMath/ti/_IQNexp.c ****     
 2522              		.loc 1 80 9 is_stmt 1 view .LVU961
  80:../Common/IQMath/ti/_IQNexp.c ****     
 2523              		.loc 1 80 24 is_stmt 0 view .LVU962
 2524 001c 2CF0004C 		bic	ip, ip, #-2147483648
 2525              	.LVL364:
  83:../Common/IQMath/ti/_IQNexp.c ****     
 2526              		.loc 1 83 9 is_stmt 1 view .LVU963
  86:../Common/IQMath/ti/_IQNexp.c ****         uiqNIntegerResult = iqNLookupTable[i16Integer];
 2527              		.loc 1 86 9 view .LVU964
  86:../Common/IQMath/ti/_IQNexp.c ****         uiqNIntegerResult = iqNLookupTable[i16Integer];
 2528              		.loc 1 86 20 is_stmt 0 view .LVU965
 2529 0020 03EBA050 		add	r0, r3, r0, asr #22
 2530              	.LVL365:
  87:../Common/IQMath/ti/_IQNexp.c ****         
 2531              		.loc 1 87 9 is_stmt 1 view .LVU966
  87:../Common/IQMath/ti/_IQNexp.c ****         
 2532              		.loc 1 87 43 is_stmt 0 view .LVU967
 2533 0024 294B     		ldr	r3, .L107+12
 2534              	.LVL366:
  87:../Common/IQMath/ti/_IQNexp.c ****         
 2535              		.loc 1 87 27 view .LVU968
ARM GAS  C:\Users\57308\AppData\Local\Temp\ccyuPR38.s 			page 69


 2536 0026 53F82050 		ldr	r5, [r3, r0, lsl #2]
 2537              	.LVL367:
  90:../Common/IQMath/ti/_IQNexp.c ****             iq31Fractional -= iq31_ln2;
 2538              		.loc 1 90 9 is_stmt 1 view .LVU969
  90:../Common/IQMath/ti/_IQNexp.c ****             iq31Fractional -= iq31_ln2;
 2539              		.loc 1 90 12 is_stmt 0 view .LVU970
 2540 002a 294B     		ldr	r3, .L107+16
 2541 002c 9C45     		cmp	ip, r3
 2542 002e 06DD     		ble	.L100
  91:../Common/IQMath/ti/_IQNexp.c ****             uiqNIntegerResult <<= 1;
 2543              		.loc 1 91 13 is_stmt 1 view .LVU971
  91:../Common/IQMath/ti/_IQNexp.c ****             uiqNIntegerResult <<= 1;
 2544              		.loc 1 91 28 is_stmt 0 view .LVU972
 2545 0030 ACF1B14C 		sub	ip, ip, #1484783616
 2546              	.LVL368:
  91:../Common/IQMath/ti/_IQNexp.c ****             uiqNIntegerResult <<= 1;
 2547              		.loc 1 91 28 view .LVU973
 2548 0034 ACF5641C 		sub	ip, ip, #3735552
 2549              	.LVL369:
  91:../Common/IQMath/ti/_IQNexp.c ****             uiqNIntegerResult <<= 1;
 2550              		.loc 1 91 28 view .LVU974
 2551 0038 ACF6FC3C 		subw	ip, ip, #3068
 2552              	.LVL370:
  92:../Common/IQMath/ti/_IQNexp.c ****         }
 2553              		.loc 1 92 13 is_stmt 1 view .LVU975
  92:../Common/IQMath/ti/_IQNexp.c ****         }
 2554              		.loc 1 92 31 is_stmt 0 view .LVU976
 2555 003c 6D00     		lsls	r5, r5, #1
 2556              	.LVL371:
 2557              	.L100:
 102:../Common/IQMath/ti/_IQNexp.c ****     
 2558              		.loc 1 102 5 is_stmt 1 view .LVU977
 102:../Common/IQMath/ti/_IQNexp.c ****     
 2559              		.loc 1 102 5 is_stmt 0 view .LVU978
 2560              	.LBE161:
 2561              	.LBE160:
  28:../Common/IQMath/ti/./support/RTS_support.h **** }
 2562              		.loc 2 28 5 is_stmt 1 view .LVU979
 2563              	.LBB169:
 2564              	.LBB166:
 109:../Common/IQMath/ti/_IQNexp.c ****     uiq30FractionalResult = *piq30Coeffs++;
 2565              		.loc 1 109 5 view .LVU980
 110:../Common/IQMath/ti/_IQNexp.c ****     
 2566              		.loc 1 110 5 view .LVU981
 110:../Common/IQMath/ti/_IQNexp.c ****     
 2567              		.loc 1 110 27 is_stmt 0 view .LVU982
 2568 003e 2548     		ldr	r0, .L107+20
 2569              	.LVL372:
 110:../Common/IQMath/ti/_IQNexp.c ****     
 2570              		.loc 1 110 27 view .LVU983
 2571 0040 50F8043B 		ldr	r3, [r0], #4
 2572              	.LVL373:
 113:../Common/IQMath/ti/_IQNexp.c ****         uiq30FractionalResult = __mpyf_l(iq31Fractional, uiq30FractionalResult);
 2573              		.loc 1 113 5 is_stmt 1 view .LVU984
 113:../Common/IQMath/ti/_IQNexp.c ****         uiq30FractionalResult = __mpyf_l(iq31Fractional, uiq30FractionalResult);
 2574              		.loc 1 113 19 is_stmt 0 view .LVU985
 2575 0044 0A24     		movs	r4, #10
ARM GAS  C:\Users\57308\AppData\Local\Temp\ccyuPR38.s 			page 70


 113:../Common/IQMath/ti/_IQNexp.c ****         uiq30FractionalResult = __mpyf_l(iq31Fractional, uiq30FractionalResult);
 2576              		.loc 1 113 5 view .LVU986
 2577 0046 2AE0     		b	.L101
 2578              	.LVL374:
 2579              	.L106:
  48:../Common/IQMath/ti/_IQNexp.c ****             return 0;
 2580              		.loc 1 48 9 is_stmt 1 view .LVU987
  48:../Common/IQMath/ti/_IQNexp.c ****             return 0;
 2581              		.loc 1 48 12 is_stmt 0 view .LVU988
 2582 0048 8142     		cmp	r1, r0
 2583 004a 34DC     		bgt	.L103
  53:../Common/IQMath/ti/_IQNexp.c ****         iq31Fractional <<= (31 - q_value);
 2584              		.loc 1 53 9 is_stmt 1 view .LVU989
 2585              	.LVL375:
  54:../Common/IQMath/ti/_IQNexp.c ****         iq31Fractional |= 0x80000000;
 2586              		.loc 1 54 9 view .LVU990
  54:../Common/IQMath/ti/_IQNexp.c ****         iq31Fractional |= 0x80000000;
 2587              		.loc 1 54 24 is_stmt 0 view .LVU991
 2588 004c 4FEA402C 		lsl	ip, r0, #9
 2589              	.LVL376:
  55:../Common/IQMath/ti/_IQNexp.c ****     
 2590              		.loc 1 55 9 is_stmt 1 view .LVU992
  55:../Common/IQMath/ti/_IQNexp.c ****     
 2591              		.loc 1 55 24 is_stmt 0 view .LVU993
 2592 0050 4CF0004C 		orr	ip, ip, #-2147483648
 2593              	.LVL377:
  58:../Common/IQMath/ti/_IQNexp.c ****     
 2594              		.loc 1 58 9 is_stmt 1 view .LVU994
  58:../Common/IQMath/ti/_IQNexp.c ****     
 2595              		.loc 1 58 46 is_stmt 0 view .LVU995
 2596 0054 8015     		asrs	r0, r0, #22
 2597              	.LVL378:
  58:../Common/IQMath/ti/_IQNexp.c ****     
 2598              		.loc 1 58 20 view .LVU996
 2599 0056 0130     		adds	r0, r0, #1
 2600              	.LVL379:
  61:../Common/IQMath/ti/_IQNexp.c ****         uiqNIntegerResult = iqNLookupTable[i16Integer];
 2601              		.loc 1 61 9 is_stmt 1 view .LVU997
  61:../Common/IQMath/ti/_IQNexp.c ****         uiqNIntegerResult = iqNLookupTable[i16Integer];
 2602              		.loc 1 61 20 is_stmt 0 view .LVU998
 2603 0058 1844     		add	r0, r0, r3
 2604              	.LVL380:
  62:../Common/IQMath/ti/_IQNexp.c ****         
 2605              		.loc 1 62 9 is_stmt 1 view .LVU999
  62:../Common/IQMath/ti/_IQNexp.c ****         
 2606              		.loc 1 62 43 is_stmt 0 view .LVU1000
 2607 005a 1C4B     		ldr	r3, .L107+12
 2608              	.LVL381:
  62:../Common/IQMath/ti/_IQNexp.c ****         
 2609              		.loc 1 62 27 view .LVU1001
 2610 005c 53F82050 		ldr	r5, [r3, r0, lsl #2]
 2611              	.LVL382:
  65:../Common/IQMath/ti/_IQNexp.c ****             iq31Fractional += iq31_ln2;
 2612              		.loc 1 65 9 is_stmt 1 view .LVU1002
  65:../Common/IQMath/ti/_IQNexp.c ****             iq31Fractional += iq31_ln2;
 2613              		.loc 1 65 12 is_stmt 0 view .LVU1003
 2614 0060 1D4B     		ldr	r3, .L107+24
ARM GAS  C:\Users\57308\AppData\Local\Temp\ccyuPR38.s 			page 71


 2615 0062 9C45     		cmp	ip, r3
 2616 0064 EBDA     		bge	.L100
  66:../Common/IQMath/ti/_IQNexp.c ****             uiqNIntegerResult >>= 1;
 2617              		.loc 1 66 13 is_stmt 1 view .LVU1004
  66:../Common/IQMath/ti/_IQNexp.c ****             uiqNIntegerResult >>= 1;
 2618              		.loc 1 66 28 is_stmt 0 view .LVU1005
 2619 0066 0CF1B14C 		add	ip, ip, #1484783616
 2620              	.LVL383:
  66:../Common/IQMath/ti/_IQNexp.c ****             uiqNIntegerResult >>= 1;
 2621              		.loc 1 66 28 view .LVU1006
 2622 006a 0CF5641C 		add	ip, ip, #3735552
 2623              	.LVL384:
  66:../Common/IQMath/ti/_IQNexp.c ****             uiqNIntegerResult >>= 1;
 2624              		.loc 1 66 28 view .LVU1007
 2625 006e 0CF6FC3C 		addw	ip, ip, #3068
 2626              	.LVL385:
  67:../Common/IQMath/ti/_IQNexp.c ****         }
 2627              		.loc 1 67 13 is_stmt 1 view .LVU1008
  67:../Common/IQMath/ti/_IQNexp.c ****         }
 2628              		.loc 1 67 31 is_stmt 0 view .LVU1009
 2629 0072 6D08     		lsrs	r5, r5, #1
 2630              	.LVL386:
  67:../Common/IQMath/ti/_IQNexp.c ****         }
 2631              		.loc 1 67 31 view .LVU1010
 2632 0074 E3E7     		b	.L100
 2633              	.LVL387:
 2634              	.L102:
 114:../Common/IQMath/ti/_IQNexp.c ****         uiq30FractionalResult += *piq30Coeffs++;
 2635              		.loc 1 114 9 is_stmt 1 view .LVU1011
 2636              	.LBB162:
 2637              	.LBI162:
 233:../Common/IQMath/ti/./support/RTS_support.h **** {
 2638              		.loc 2 233 28 view .LVU1012
 2639              	.LBB163:
 235:../Common/IQMath/ti/./support/RTS_support.h **** }
 2640              		.loc 2 235 5 view .LVU1013
 235:../Common/IQMath/ti/./support/RTS_support.h **** }
 2641              		.loc 2 235 28 is_stmt 0 view .LVU1014
 2642 0076 4FEAEC72 		asr	r2, ip, #31
 235:../Common/IQMath/ti/./support/RTS_support.h **** }
 2643              		.loc 2 235 49 view .LVU1015
 2644 007a D917     		asrs	r1, r3, #31
 235:../Common/IQMath/ti/./support/RTS_support.h **** }
 2645              		.loc 2 235 47 view .LVU1016
 2646 007c 0CFB01F1 		mul	r1, ip, r1
 2647 0080 03FB0212 		mla	r2, r3, r2, r1
 2648 0084 ACFB0331 		umull	r3, r1, ip, r3
 2649              	.LVL388:
 235:../Common/IQMath/ti/./support/RTS_support.h **** }
 2650              		.loc 2 235 47 view .LVU1017
 2651 0088 0A44     		add	r2, r2, r1
 235:../Common/IQMath/ti/./support/RTS_support.h **** }
 2652              		.loc 2 235 69 view .LVU1018
 2653 008a DB0F     		lsrs	r3, r3, #31
 2654 008c 43EA4203 		orr	r3, r3, r2, lsl #1
 2655              	.LVL389:
 235:../Common/IQMath/ti/./support/RTS_support.h **** }
ARM GAS  C:\Users\57308\AppData\Local\Temp\ccyuPR38.s 			page 72


 2656              		.loc 2 235 69 view .LVU1019
 2657              	.LBE163:
 2658              	.LBE162:
 115:../Common/IQMath/ti/_IQNexp.c ****     }
 2659              		.loc 1 115 9 is_stmt 1 view .LVU1020
 115:../Common/IQMath/ti/_IQNexp.c ****     }
 2660              		.loc 1 115 46 is_stmt 0 view .LVU1021
 2661 0090 0246     		mov	r2, r0
 2662              	.LVL390:
 115:../Common/IQMath/ti/_IQNexp.c ****     }
 2663              		.loc 1 115 34 view .LVU1022
 2664 0092 52F8041B 		ldr	r1, [r2], #4
 2665              	.LVL391:
 115:../Common/IQMath/ti/_IQNexp.c ****     }
 2666              		.loc 1 115 31 view .LVU1023
 2667 0096 0B44     		add	r3, r3, r1
 2668              	.LVL392:
 113:../Common/IQMath/ti/_IQNexp.c ****         uiq30FractionalResult = __mpyf_l(iq31Fractional, uiq30FractionalResult);
 2669              		.loc 1 113 51 is_stmt 1 view .LVU1024
 113:../Common/IQMath/ti/_IQNexp.c ****         uiq30FractionalResult = __mpyf_l(iq31Fractional, uiq30FractionalResult);
 2670              		.loc 1 113 59 is_stmt 0 view .LVU1025
 2671 0098 013C     		subs	r4, r4, #1
 2672              	.LVL393:
 113:../Common/IQMath/ti/_IQNexp.c ****         uiq30FractionalResult = __mpyf_l(iq31Fractional, uiq30FractionalResult);
 2673              		.loc 1 113 59 view .LVU1026
 2674 009a E4B2     		uxtb	r4, r4
 2675              	.LVL394:
 115:../Common/IQMath/ti/_IQNexp.c ****     }
 2676              		.loc 1 115 46 view .LVU1027
 2677 009c 1046     		mov	r0, r2
 2678              	.LVL395:
 2679              	.L101:
 113:../Common/IQMath/ti/_IQNexp.c ****         uiq30FractionalResult = __mpyf_l(iq31Fractional, uiq30FractionalResult);
 2680              		.loc 1 113 37 is_stmt 1 view .LVU1028
 113:../Common/IQMath/ti/_IQNexp.c ****         uiq30FractionalResult = __mpyf_l(iq31Fractional, uiq30FractionalResult);
 2681              		.loc 1 113 5 is_stmt 0 view .LVU1029
 2682 009e 002C     		cmp	r4, #0
 2683 00a0 E9D1     		bne	.L102
 119:../Common/IQMath/ti/_IQNexp.c ****     
 2684              		.loc 1 119 5 is_stmt 1 view .LVU1030
 119:../Common/IQMath/ti/_IQNexp.c ****     
 2685              		.loc 1 119 27 is_stmt 0 view .LVU1031
 2686 00a2 5B00     		lsls	r3, r3, #1
 2687              	.LVL396:
 125:../Common/IQMath/ti/_IQNexp.c ****     
 2688              		.loc 1 125 5 is_stmt 1 view .LVU1032
 2689              	.LBB164:
 2690              	.LBI164:
 254:../Common/IQMath/ti/./support/RTS_support.h **** {
 2691              		.loc 2 254 29 view .LVU1033
 2692              	.LBB165:
 2693              		.loc 2 256 5 view .LVU1034
 2694              		.loc 2 256 49 is_stmt 0 view .LVU1035
 2695 00a4 A5FB0353 		umull	r5, r3, r5, r3
 2696              	.LVL397:
 2697              		.loc 2 256 72 view .LVU1036
 2698 00a8 ED0F     		lsrs	r5, r5, #31
ARM GAS  C:\Users\57308\AppData\Local\Temp\ccyuPR38.s 			page 73


 2699 00aa 45EA4305 		orr	r5, r5, r3, lsl #1
 2700              	.LVL398:
 2701              		.loc 2 256 72 view .LVU1037
 2702              	.LBE165:
 2703              	.LBE164:
 131:../Common/IQMath/ti/_IQNexp.c ****     
 2704              		.loc 1 131 5 is_stmt 1 view .LVU1038
 131:../Common/IQMath/ti/_IQNexp.c ****     
 2705              		.loc 1 131 5 is_stmt 0 view .LVU1039
 2706              	.LBE166:
 2707              	.LBE169:
  72:../Common/IQMath/ti/./support/RTS_support.h **** }
 2708              		.loc 2 72 5 is_stmt 1 view .LVU1040
 2709              	.LBB170:
 2710              	.LBB167:
 134:../Common/IQMath/ti/_IQNexp.c ****     uiqNResult >>= 1;
 2711              		.loc 1 134 5 view .LVU1041
 134:../Common/IQMath/ti/_IQNexp.c ****     uiqNResult >>= 1;
 2712              		.loc 1 134 15 is_stmt 0 view .LVU1042
 2713 00ae 0135     		adds	r5, r5, #1
 2714              	.LVL399:
 135:../Common/IQMath/ti/_IQNexp.c ****     
 2715              		.loc 1 135 5 is_stmt 1 view .LVU1043
 135:../Common/IQMath/ti/_IQNexp.c ****     
 2716              		.loc 1 135 16 is_stmt 0 view .LVU1044
 2717 00b0 6808     		lsrs	r0, r5, #1
 2718              	.LVL400:
 137:../Common/IQMath/ti/_IQNexp.c **** }
 2719              		.loc 1 137 5 is_stmt 1 view .LVU1045
 2720              	.L97:
 137:../Common/IQMath/ti/_IQNexp.c **** }
 2721              		.loc 1 137 5 is_stmt 0 view .LVU1046
 2722              	.LBE167:
 2723              	.LBE170:
 238:../Common/IQMath/ti/_IQNexp.c **** }
 2724              		.loc 1 238 1 view .LVU1047
 2725 00b2 30BC     		pop	{r4, r5}
 2726              	.LCFI25:
 2727              		.cfi_remember_state
 2728              		.cfi_restore 5
 2729              		.cfi_restore 4
 2730              		.cfi_def_cfa_offset 0
 2731 00b4 7047     		bx	lr
 2732              	.LVL401:
 2733              	.L103:
 2734              	.LCFI26:
 2735              		.cfi_restore_state
 2736              	.LBB171:
 2737              	.LBB168:
  49:../Common/IQMath/ti/_IQNexp.c ****         }
 2738              		.loc 1 49 20 view .LVU1048
 2739 00b6 0020     		movs	r0, #0
 2740              	.LVL402:
  49:../Common/IQMath/ti/_IQNexp.c ****         }
 2741              		.loc 1 49 20 view .LVU1049
 2742 00b8 FBE7     		b	.L97
 2743              	.LVL403:
ARM GAS  C:\Users\57308\AppData\Local\Temp\ccyuPR38.s 			page 74


 2744              	.L104:
  74:../Common/IQMath/ti/_IQNexp.c ****         }
 2745              		.loc 1 74 20 view .LVU1050
 2746 00ba 6FF00040 		mvn	r0, #-2147483648
 2747              	.LVL404:
  74:../Common/IQMath/ti/_IQNexp.c ****         }
 2748              		.loc 1 74 20 view .LVU1051
 2749              	.LBE168:
 2750              	.LBE171:
 237:../Common/IQMath/ti/_IQNexp.c **** }
 2751              		.loc 1 237 12 view .LVU1052
 2752 00be F8E7     		b	.L97
 2753              	.L108:
 2754              		.align	2
 2755              	.L107:
 2756 00c0 00000000 		.word	_IQNexp_offset
 2757 00c4 00000000 		.word	_IQNexp_min
 2758 00c8 00000000 		.word	_IQNexp_max
 2759 00cc 00000000 		.word	_IQNexp_lookup22
 2760 00d0 FB0BB958 		.word	1488522235
 2761 00d4 00000000 		.word	_IQ30exp_coeffs
 2762 00d8 05F446A7 		.word	-1488522235
 2763              		.cfi_endproc
 2764              	.LFE270:
 2766              		.section	.text._IQ21exp,"ax",%progbits
 2767              		.align	1
 2768              		.global	_IQ21exp
 2769              		.syntax unified
 2770              		.thumb
 2771              		.thumb_func
 2773              	_IQ21exp:
 2774              	.LVL405:
 2775              	.LFB271:
 239:../Common/IQMath/ti/_IQNexp.c **** /**
 240:../Common/IQMath/ti/_IQNexp.c ****  * @brief Computes the exponential of an IQ21 input.
 241:../Common/IQMath/ti/_IQNexp.c ****  *
 242:../Common/IQMath/ti/_IQNexp.c ****  * @param a               IQ21 type input.
 243:../Common/IQMath/ti/_IQNexp.c ****  *
 244:../Common/IQMath/ti/_IQNexp.c ****  * @return                IQ21 type result of exponential.
 245:../Common/IQMath/ti/_IQNexp.c ****  */
 246:../Common/IQMath/ti/_IQNexp.c **** int32_t _IQ21exp(int32_t a)
 247:../Common/IQMath/ti/_IQNexp.c **** {
 2776              		.loc 1 247 1 is_stmt 1 view -0
 2777              		.cfi_startproc
 2778              		@ args = 0, pretend = 0, frame = 0
 2779              		@ frame_needed = 0, uses_anonymous_args = 0
 2780              		@ link register save eliminated.
 2781              		.loc 1 247 1 is_stmt 0 view .LVU1054
 2782 0000 30B4     		push	{r4, r5}
 2783              	.LCFI27:
 2784              		.cfi_def_cfa_offset 8
 2785              		.cfi_offset 4, -8
 2786              		.cfi_offset 5, -4
 248:../Common/IQMath/ti/_IQNexp.c ****     return __IQNexp(a, _IQNexp_lookup21, _IQNexp_offset[21-1], _IQNexp_min[21-1], _IQNexp_max[21-1]
 2787              		.loc 1 248 5 is_stmt 1 view .LVU1055
 2788              		.loc 1 248 12 is_stmt 0 view .LVU1056
 2789 0002 2F4B     		ldr	r3, .L119
ARM GAS  C:\Users\57308\AppData\Local\Temp\ccyuPR38.s 			page 75


 2790 0004 93F85030 		ldrb	r3, [r3, #80]	@ zero_extendqisi2
 2791              		.loc 1 248 75 view .LVU1057
 2792 0008 2E4A     		ldr	r2, .L119+4
 2793 000a 116D     		ldr	r1, [r2, #80]
 2794              		.loc 1 248 94 view .LVU1058
 2795 000c 2E4A     		ldr	r2, .L119+8
 2796 000e 126D     		ldr	r2, [r2, #80]
 2797              	.LVL406:
 2798              	.LBB178:
 2799              	.LBI178:
  32:../Common/IQMath/ti/_IQNexp.c **** {
 2800              		.loc 1 32 30 is_stmt 1 view .LVU1059
 2801              	.LBB179:
  34:../Common/IQMath/ti/_IQNexp.c ****     int_fast16_t i16Integer;
 2802              		.loc 1 34 5 view .LVU1060
  35:../Common/IQMath/ti/_IQNexp.c ****     uint_fast16_t ui16IntState;
 2803              		.loc 1 35 5 view .LVU1061
  36:../Common/IQMath/ti/_IQNexp.c ****     uint_fast16_t ui16MPYState;
 2804              		.loc 1 36 5 view .LVU1062
  37:../Common/IQMath/ti/_IQNexp.c ****     int_fast32_t iq31Fractional;
 2805              		.loc 1 37 5 view .LVU1063
  38:../Common/IQMath/ti/_IQNexp.c ****     uint_fast32_t uiqNResult;
 2806              		.loc 1 38 5 view .LVU1064
  39:../Common/IQMath/ti/_IQNexp.c ****     uint_fast32_t uiqNIntegerResult;
 2807              		.loc 1 39 5 view .LVU1065
  40:../Common/IQMath/ti/_IQNexp.c ****     uint_fast32_t uiq30FractionalResult;
 2808              		.loc 1 40 5 view .LVU1066
  41:../Common/IQMath/ti/_IQNexp.c ****     uint_fast32_t uiq31FractionalResult;
 2809              		.loc 1 41 5 view .LVU1067
  42:../Common/IQMath/ti/_IQNexp.c ****     const uint_fast32_t *piq30Coeffs;
 2810              		.loc 1 42 5 view .LVU1068
  43:../Common/IQMath/ti/_IQNexp.c ****     
 2811              		.loc 1 43 5 view .LVU1069
  46:../Common/IQMath/ti/_IQNexp.c ****         /* Check for the minimum value. */
 2812              		.loc 1 46 5 view .LVU1070
  46:../Common/IQMath/ti/_IQNexp.c ****         /* Check for the minimum value. */
 2813              		.loc 1 46 8 is_stmt 0 view .LVU1071
 2814 0010 0028     		cmp	r0, #0
  46:../Common/IQMath/ti/_IQNexp.c ****         /* Check for the minimum value. */
 2815              		.loc 1 46 8 view .LVU1072
 2816 0012 19DB     		blt	.L118
  73:../Common/IQMath/ti/_IQNexp.c ****             return INT32_MAX;
 2817              		.loc 1 73 9 is_stmt 1 view .LVU1073
  73:../Common/IQMath/ti/_IQNexp.c ****             return INT32_MAX;
 2818              		.loc 1 73 12 is_stmt 0 view .LVU1074
 2819 0014 8242     		cmp	r2, r0
 2820 0016 50DB     		blt	.L116
  78:../Common/IQMath/ti/_IQNexp.c ****         iq31Fractional <<= (31 - q_value);
 2821              		.loc 1 78 9 is_stmt 1 view .LVU1075
 2822              	.LVL407:
  79:../Common/IQMath/ti/_IQNexp.c ****         iq31Fractional &= 0x7fffffff;
 2823              		.loc 1 79 9 view .LVU1076
  79:../Common/IQMath/ti/_IQNexp.c ****         iq31Fractional &= 0x7fffffff;
 2824              		.loc 1 79 24 is_stmt 0 view .LVU1077
 2825 0018 4FEA802C 		lsl	ip, r0, #10
 2826              	.LVL408:
  80:../Common/IQMath/ti/_IQNexp.c ****     
ARM GAS  C:\Users\57308\AppData\Local\Temp\ccyuPR38.s 			page 76


 2827              		.loc 1 80 9 is_stmt 1 view .LVU1078
  80:../Common/IQMath/ti/_IQNexp.c ****     
 2828              		.loc 1 80 24 is_stmt 0 view .LVU1079
 2829 001c 2CF0004C 		bic	ip, ip, #-2147483648
 2830              	.LVL409:
  83:../Common/IQMath/ti/_IQNexp.c ****     
 2831              		.loc 1 83 9 is_stmt 1 view .LVU1080
  86:../Common/IQMath/ti/_IQNexp.c ****         uiqNIntegerResult = iqNLookupTable[i16Integer];
 2832              		.loc 1 86 9 view .LVU1081
  86:../Common/IQMath/ti/_IQNexp.c ****         uiqNIntegerResult = iqNLookupTable[i16Integer];
 2833              		.loc 1 86 20 is_stmt 0 view .LVU1082
 2834 0020 03EB6050 		add	r0, r3, r0, asr #21
 2835              	.LVL410:
  87:../Common/IQMath/ti/_IQNexp.c ****         
 2836              		.loc 1 87 9 is_stmt 1 view .LVU1083
  87:../Common/IQMath/ti/_IQNexp.c ****         
 2837              		.loc 1 87 43 is_stmt 0 view .LVU1084
 2838 0024 294B     		ldr	r3, .L119+12
 2839              	.LVL411:
  87:../Common/IQMath/ti/_IQNexp.c ****         
 2840              		.loc 1 87 27 view .LVU1085
 2841 0026 53F82050 		ldr	r5, [r3, r0, lsl #2]
 2842              	.LVL412:
  90:../Common/IQMath/ti/_IQNexp.c ****             iq31Fractional -= iq31_ln2;
 2843              		.loc 1 90 9 is_stmt 1 view .LVU1086
  90:../Common/IQMath/ti/_IQNexp.c ****             iq31Fractional -= iq31_ln2;
 2844              		.loc 1 90 12 is_stmt 0 view .LVU1087
 2845 002a 294B     		ldr	r3, .L119+16
 2846 002c 9C45     		cmp	ip, r3
 2847 002e 06DD     		ble	.L112
  91:../Common/IQMath/ti/_IQNexp.c ****             uiqNIntegerResult <<= 1;
 2848              		.loc 1 91 13 is_stmt 1 view .LVU1088
  91:../Common/IQMath/ti/_IQNexp.c ****             uiqNIntegerResult <<= 1;
 2849              		.loc 1 91 28 is_stmt 0 view .LVU1089
 2850 0030 ACF1B14C 		sub	ip, ip, #1484783616
 2851              	.LVL413:
  91:../Common/IQMath/ti/_IQNexp.c ****             uiqNIntegerResult <<= 1;
 2852              		.loc 1 91 28 view .LVU1090
 2853 0034 ACF5641C 		sub	ip, ip, #3735552
 2854              	.LVL414:
  91:../Common/IQMath/ti/_IQNexp.c ****             uiqNIntegerResult <<= 1;
 2855              		.loc 1 91 28 view .LVU1091
 2856 0038 ACF6FC3C 		subw	ip, ip, #3068
 2857              	.LVL415:
  92:../Common/IQMath/ti/_IQNexp.c ****         }
 2858              		.loc 1 92 13 is_stmt 1 view .LVU1092
  92:../Common/IQMath/ti/_IQNexp.c ****         }
 2859              		.loc 1 92 31 is_stmt 0 view .LVU1093
 2860 003c 6D00     		lsls	r5, r5, #1
 2861              	.LVL416:
 2862              	.L112:
 102:../Common/IQMath/ti/_IQNexp.c ****     
 2863              		.loc 1 102 5 is_stmt 1 view .LVU1094
 102:../Common/IQMath/ti/_IQNexp.c ****     
 2864              		.loc 1 102 5 is_stmt 0 view .LVU1095
 2865              	.LBE179:
 2866              	.LBE178:
ARM GAS  C:\Users\57308\AppData\Local\Temp\ccyuPR38.s 			page 77


  28:../Common/IQMath/ti/./support/RTS_support.h **** }
 2867              		.loc 2 28 5 is_stmt 1 view .LVU1096
 2868              	.LBB187:
 2869              	.LBB184:
 109:../Common/IQMath/ti/_IQNexp.c ****     uiq30FractionalResult = *piq30Coeffs++;
 2870              		.loc 1 109 5 view .LVU1097
 110:../Common/IQMath/ti/_IQNexp.c ****     
 2871              		.loc 1 110 5 view .LVU1098
 110:../Common/IQMath/ti/_IQNexp.c ****     
 2872              		.loc 1 110 27 is_stmt 0 view .LVU1099
 2873 003e 2548     		ldr	r0, .L119+20
 2874              	.LVL417:
 110:../Common/IQMath/ti/_IQNexp.c ****     
 2875              		.loc 1 110 27 view .LVU1100
 2876 0040 50F8043B 		ldr	r3, [r0], #4
 2877              	.LVL418:
 113:../Common/IQMath/ti/_IQNexp.c ****         uiq30FractionalResult = __mpyf_l(iq31Fractional, uiq30FractionalResult);
 2878              		.loc 1 113 5 is_stmt 1 view .LVU1101
 113:../Common/IQMath/ti/_IQNexp.c ****         uiq30FractionalResult = __mpyf_l(iq31Fractional, uiq30FractionalResult);
 2879              		.loc 1 113 19 is_stmt 0 view .LVU1102
 2880 0044 0A24     		movs	r4, #10
 113:../Common/IQMath/ti/_IQNexp.c ****         uiq30FractionalResult = __mpyf_l(iq31Fractional, uiq30FractionalResult);
 2881              		.loc 1 113 5 view .LVU1103
 2882 0046 2AE0     		b	.L113
 2883              	.LVL419:
 2884              	.L118:
  48:../Common/IQMath/ti/_IQNexp.c ****             return 0;
 2885              		.loc 1 48 9 is_stmt 1 view .LVU1104
  48:../Common/IQMath/ti/_IQNexp.c ****             return 0;
 2886              		.loc 1 48 12 is_stmt 0 view .LVU1105
 2887 0048 8142     		cmp	r1, r0
 2888 004a 34DC     		bgt	.L115
  53:../Common/IQMath/ti/_IQNexp.c ****         iq31Fractional <<= (31 - q_value);
 2889              		.loc 1 53 9 is_stmt 1 view .LVU1106
 2890              	.LVL420:
  54:../Common/IQMath/ti/_IQNexp.c ****         iq31Fractional |= 0x80000000;
 2891              		.loc 1 54 9 view .LVU1107
  54:../Common/IQMath/ti/_IQNexp.c ****         iq31Fractional |= 0x80000000;
 2892              		.loc 1 54 24 is_stmt 0 view .LVU1108
 2893 004c 4FEA802C 		lsl	ip, r0, #10
 2894              	.LVL421:
  55:../Common/IQMath/ti/_IQNexp.c ****     
 2895              		.loc 1 55 9 is_stmt 1 view .LVU1109
  55:../Common/IQMath/ti/_IQNexp.c ****     
 2896              		.loc 1 55 24 is_stmt 0 view .LVU1110
 2897 0050 4CF0004C 		orr	ip, ip, #-2147483648
 2898              	.LVL422:
  58:../Common/IQMath/ti/_IQNexp.c ****     
 2899              		.loc 1 58 9 is_stmt 1 view .LVU1111
  58:../Common/IQMath/ti/_IQNexp.c ****     
 2900              		.loc 1 58 46 is_stmt 0 view .LVU1112
 2901 0054 4015     		asrs	r0, r0, #21
 2902              	.LVL423:
  58:../Common/IQMath/ti/_IQNexp.c ****     
 2903              		.loc 1 58 20 view .LVU1113
 2904 0056 0130     		adds	r0, r0, #1
 2905              	.LVL424:
ARM GAS  C:\Users\57308\AppData\Local\Temp\ccyuPR38.s 			page 78


  61:../Common/IQMath/ti/_IQNexp.c ****         uiqNIntegerResult = iqNLookupTable[i16Integer];
 2906              		.loc 1 61 9 is_stmt 1 view .LVU1114
  61:../Common/IQMath/ti/_IQNexp.c ****         uiqNIntegerResult = iqNLookupTable[i16Integer];
 2907              		.loc 1 61 20 is_stmt 0 view .LVU1115
 2908 0058 1844     		add	r0, r0, r3
 2909              	.LVL425:
  62:../Common/IQMath/ti/_IQNexp.c ****         
 2910              		.loc 1 62 9 is_stmt 1 view .LVU1116
  62:../Common/IQMath/ti/_IQNexp.c ****         
 2911              		.loc 1 62 43 is_stmt 0 view .LVU1117
 2912 005a 1C4B     		ldr	r3, .L119+12
 2913              	.LVL426:
  62:../Common/IQMath/ti/_IQNexp.c ****         
 2914              		.loc 1 62 27 view .LVU1118
 2915 005c 53F82050 		ldr	r5, [r3, r0, lsl #2]
 2916              	.LVL427:
  65:../Common/IQMath/ti/_IQNexp.c ****             iq31Fractional += iq31_ln2;
 2917              		.loc 1 65 9 is_stmt 1 view .LVU1119
  65:../Common/IQMath/ti/_IQNexp.c ****             iq31Fractional += iq31_ln2;
 2918              		.loc 1 65 12 is_stmt 0 view .LVU1120
 2919 0060 1D4B     		ldr	r3, .L119+24
 2920 0062 9C45     		cmp	ip, r3
 2921 0064 EBDA     		bge	.L112
  66:../Common/IQMath/ti/_IQNexp.c ****             uiqNIntegerResult >>= 1;
 2922              		.loc 1 66 13 is_stmt 1 view .LVU1121
  66:../Common/IQMath/ti/_IQNexp.c ****             uiqNIntegerResult >>= 1;
 2923              		.loc 1 66 28 is_stmt 0 view .LVU1122
 2924 0066 0CF1B14C 		add	ip, ip, #1484783616
 2925              	.LVL428:
  66:../Common/IQMath/ti/_IQNexp.c ****             uiqNIntegerResult >>= 1;
 2926              		.loc 1 66 28 view .LVU1123
 2927 006a 0CF5641C 		add	ip, ip, #3735552
 2928              	.LVL429:
  66:../Common/IQMath/ti/_IQNexp.c ****             uiqNIntegerResult >>= 1;
 2929              		.loc 1 66 28 view .LVU1124
 2930 006e 0CF6FC3C 		addw	ip, ip, #3068
 2931              	.LVL430:
  67:../Common/IQMath/ti/_IQNexp.c ****         }
 2932              		.loc 1 67 13 is_stmt 1 view .LVU1125
  67:../Common/IQMath/ti/_IQNexp.c ****         }
 2933              		.loc 1 67 31 is_stmt 0 view .LVU1126
 2934 0072 6D08     		lsrs	r5, r5, #1
 2935              	.LVL431:
  67:../Common/IQMath/ti/_IQNexp.c ****         }
 2936              		.loc 1 67 31 view .LVU1127
 2937 0074 E3E7     		b	.L112
 2938              	.LVL432:
 2939              	.L114:
 114:../Common/IQMath/ti/_IQNexp.c ****         uiq30FractionalResult += *piq30Coeffs++;
 2940              		.loc 1 114 9 is_stmt 1 view .LVU1128
 2941              	.LBB180:
 2942              	.LBI180:
 233:../Common/IQMath/ti/./support/RTS_support.h **** {
 2943              		.loc 2 233 28 view .LVU1129
 2944              	.LBB181:
 235:../Common/IQMath/ti/./support/RTS_support.h **** }
 2945              		.loc 2 235 5 view .LVU1130
ARM GAS  C:\Users\57308\AppData\Local\Temp\ccyuPR38.s 			page 79


 235:../Common/IQMath/ti/./support/RTS_support.h **** }
 2946              		.loc 2 235 28 is_stmt 0 view .LVU1131
 2947 0076 4FEAEC72 		asr	r2, ip, #31
 235:../Common/IQMath/ti/./support/RTS_support.h **** }
 2948              		.loc 2 235 49 view .LVU1132
 2949 007a D917     		asrs	r1, r3, #31
 235:../Common/IQMath/ti/./support/RTS_support.h **** }
 2950              		.loc 2 235 47 view .LVU1133
 2951 007c 0CFB01F1 		mul	r1, ip, r1
 2952 0080 03FB0212 		mla	r2, r3, r2, r1
 2953 0084 ACFB0331 		umull	r3, r1, ip, r3
 2954              	.LVL433:
 235:../Common/IQMath/ti/./support/RTS_support.h **** }
 2955              		.loc 2 235 47 view .LVU1134
 2956 0088 0A44     		add	r2, r2, r1
 235:../Common/IQMath/ti/./support/RTS_support.h **** }
 2957              		.loc 2 235 69 view .LVU1135
 2958 008a DB0F     		lsrs	r3, r3, #31
 2959 008c 43EA4203 		orr	r3, r3, r2, lsl #1
 2960              	.LVL434:
 235:../Common/IQMath/ti/./support/RTS_support.h **** }
 2961              		.loc 2 235 69 view .LVU1136
 2962              	.LBE181:
 2963              	.LBE180:
 115:../Common/IQMath/ti/_IQNexp.c ****     }
 2964              		.loc 1 115 9 is_stmt 1 view .LVU1137
 115:../Common/IQMath/ti/_IQNexp.c ****     }
 2965              		.loc 1 115 46 is_stmt 0 view .LVU1138
 2966 0090 0246     		mov	r2, r0
 2967              	.LVL435:
 115:../Common/IQMath/ti/_IQNexp.c ****     }
 2968              		.loc 1 115 34 view .LVU1139
 2969 0092 52F8041B 		ldr	r1, [r2], #4
 2970              	.LVL436:
 115:../Common/IQMath/ti/_IQNexp.c ****     }
 2971              		.loc 1 115 31 view .LVU1140
 2972 0096 0B44     		add	r3, r3, r1
 2973              	.LVL437:
 113:../Common/IQMath/ti/_IQNexp.c ****         uiq30FractionalResult = __mpyf_l(iq31Fractional, uiq30FractionalResult);
 2974              		.loc 1 113 51 is_stmt 1 view .LVU1141
 113:../Common/IQMath/ti/_IQNexp.c ****         uiq30FractionalResult = __mpyf_l(iq31Fractional, uiq30FractionalResult);
 2975              		.loc 1 113 59 is_stmt 0 view .LVU1142
 2976 0098 013C     		subs	r4, r4, #1
 2977              	.LVL438:
 113:../Common/IQMath/ti/_IQNexp.c ****         uiq30FractionalResult = __mpyf_l(iq31Fractional, uiq30FractionalResult);
 2978              		.loc 1 113 59 view .LVU1143
 2979 009a E4B2     		uxtb	r4, r4
 2980              	.LVL439:
 115:../Common/IQMath/ti/_IQNexp.c ****     }
 2981              		.loc 1 115 46 view .LVU1144
 2982 009c 1046     		mov	r0, r2
 2983              	.LVL440:
 2984              	.L113:
 113:../Common/IQMath/ti/_IQNexp.c ****         uiq30FractionalResult = __mpyf_l(iq31Fractional, uiq30FractionalResult);
 2985              		.loc 1 113 37 is_stmt 1 view .LVU1145
 113:../Common/IQMath/ti/_IQNexp.c ****         uiq30FractionalResult = __mpyf_l(iq31Fractional, uiq30FractionalResult);
 2986              		.loc 1 113 5 is_stmt 0 view .LVU1146
ARM GAS  C:\Users\57308\AppData\Local\Temp\ccyuPR38.s 			page 80


 2987 009e 002C     		cmp	r4, #0
 2988 00a0 E9D1     		bne	.L114
 119:../Common/IQMath/ti/_IQNexp.c ****     
 2989              		.loc 1 119 5 is_stmt 1 view .LVU1147
 119:../Common/IQMath/ti/_IQNexp.c ****     
 2990              		.loc 1 119 27 is_stmt 0 view .LVU1148
 2991 00a2 5B00     		lsls	r3, r3, #1
 2992              	.LVL441:
 125:../Common/IQMath/ti/_IQNexp.c ****     
 2993              		.loc 1 125 5 is_stmt 1 view .LVU1149
 2994              	.LBB182:
 2995              	.LBI182:
 254:../Common/IQMath/ti/./support/RTS_support.h **** {
 2996              		.loc 2 254 29 view .LVU1150
 2997              	.LBB183:
 2998              		.loc 2 256 5 view .LVU1151
 2999              		.loc 2 256 49 is_stmt 0 view .LVU1152
 3000 00a4 A5FB0353 		umull	r5, r3, r5, r3
 3001              	.LVL442:
 3002              		.loc 2 256 72 view .LVU1153
 3003 00a8 ED0F     		lsrs	r5, r5, #31
 3004 00aa 45EA4305 		orr	r5, r5, r3, lsl #1
 3005              	.LVL443:
 3006              		.loc 2 256 72 view .LVU1154
 3007              	.LBE183:
 3008              	.LBE182:
 131:../Common/IQMath/ti/_IQNexp.c ****     
 3009              		.loc 1 131 5 is_stmt 1 view .LVU1155
 131:../Common/IQMath/ti/_IQNexp.c ****     
 3010              		.loc 1 131 5 is_stmt 0 view .LVU1156
 3011              	.LBE184:
 3012              	.LBE187:
  72:../Common/IQMath/ti/./support/RTS_support.h **** }
 3013              		.loc 2 72 5 is_stmt 1 view .LVU1157
 3014              	.LBB188:
 3015              	.LBB185:
 134:../Common/IQMath/ti/_IQNexp.c ****     uiqNResult >>= 1;
 3016              		.loc 1 134 5 view .LVU1158
 134:../Common/IQMath/ti/_IQNexp.c ****     uiqNResult >>= 1;
 3017              		.loc 1 134 15 is_stmt 0 view .LVU1159
 3018 00ae 0135     		adds	r5, r5, #1
 3019              	.LVL444:
 135:../Common/IQMath/ti/_IQNexp.c ****     
 3020              		.loc 1 135 5 is_stmt 1 view .LVU1160
 135:../Common/IQMath/ti/_IQNexp.c ****     
 3021              		.loc 1 135 16 is_stmt 0 view .LVU1161
 3022 00b0 6808     		lsrs	r0, r5, #1
 3023              	.LVL445:
 137:../Common/IQMath/ti/_IQNexp.c **** }
 3024              		.loc 1 137 5 is_stmt 1 view .LVU1162
 3025              	.L109:
 137:../Common/IQMath/ti/_IQNexp.c **** }
 3026              		.loc 1 137 5 is_stmt 0 view .LVU1163
 3027              	.LBE185:
 3028              	.LBE188:
 249:../Common/IQMath/ti/_IQNexp.c **** }
 3029              		.loc 1 249 1 view .LVU1164
ARM GAS  C:\Users\57308\AppData\Local\Temp\ccyuPR38.s 			page 81


 3030 00b2 30BC     		pop	{r4, r5}
 3031              	.LCFI28:
 3032              		.cfi_remember_state
 3033              		.cfi_restore 5
 3034              		.cfi_restore 4
 3035              		.cfi_def_cfa_offset 0
 3036 00b4 7047     		bx	lr
 3037              	.LVL446:
 3038              	.L115:
 3039              	.LCFI29:
 3040              		.cfi_restore_state
 3041              	.LBB189:
 3042              	.LBB186:
  49:../Common/IQMath/ti/_IQNexp.c ****         }
 3043              		.loc 1 49 20 view .LVU1165
 3044 00b6 0020     		movs	r0, #0
 3045              	.LVL447:
  49:../Common/IQMath/ti/_IQNexp.c ****         }
 3046              		.loc 1 49 20 view .LVU1166
 3047 00b8 FBE7     		b	.L109
 3048              	.LVL448:
 3049              	.L116:
  74:../Common/IQMath/ti/_IQNexp.c ****         }
 3050              		.loc 1 74 20 view .LVU1167
 3051 00ba 6FF00040 		mvn	r0, #-2147483648
 3052              	.LVL449:
  74:../Common/IQMath/ti/_IQNexp.c ****         }
 3053              		.loc 1 74 20 view .LVU1168
 3054              	.LBE186:
 3055              	.LBE189:
 248:../Common/IQMath/ti/_IQNexp.c **** }
 3056              		.loc 1 248 12 view .LVU1169
 3057 00be F8E7     		b	.L109
 3058              	.L120:
 3059              		.align	2
 3060              	.L119:
 3061 00c0 00000000 		.word	_IQNexp_offset
 3062 00c4 00000000 		.word	_IQNexp_min
 3063 00c8 00000000 		.word	_IQNexp_max
 3064 00cc 00000000 		.word	_IQNexp_lookup21
 3065 00d0 FB0BB958 		.word	1488522235
 3066 00d4 00000000 		.word	_IQ30exp_coeffs
 3067 00d8 05F446A7 		.word	-1488522235
 3068              		.cfi_endproc
 3069              	.LFE271:
 3071              		.section	.text._IQ20exp,"ax",%progbits
 3072              		.align	1
 3073              		.global	_IQ20exp
 3074              		.syntax unified
 3075              		.thumb
 3076              		.thumb_func
 3078              	_IQ20exp:
 3079              	.LVL450:
 3080              	.LFB272:
 250:../Common/IQMath/ti/_IQNexp.c **** /**
 251:../Common/IQMath/ti/_IQNexp.c ****  * @brief Computes the exponential of an IQ20 input.
 252:../Common/IQMath/ti/_IQNexp.c ****  *
ARM GAS  C:\Users\57308\AppData\Local\Temp\ccyuPR38.s 			page 82


 253:../Common/IQMath/ti/_IQNexp.c ****  * @param a               IQ20 type input.
 254:../Common/IQMath/ti/_IQNexp.c ****  *
 255:../Common/IQMath/ti/_IQNexp.c ****  * @return                IQ20 type result of exponential.
 256:../Common/IQMath/ti/_IQNexp.c ****  */
 257:../Common/IQMath/ti/_IQNexp.c **** int32_t _IQ20exp(int32_t a)
 258:../Common/IQMath/ti/_IQNexp.c **** {
 3081              		.loc 1 258 1 is_stmt 1 view -0
 3082              		.cfi_startproc
 3083              		@ args = 0, pretend = 0, frame = 0
 3084              		@ frame_needed = 0, uses_anonymous_args = 0
 3085              		@ link register save eliminated.
 3086              		.loc 1 258 1 is_stmt 0 view .LVU1171
 3087 0000 30B4     		push	{r4, r5}
 3088              	.LCFI30:
 3089              		.cfi_def_cfa_offset 8
 3090              		.cfi_offset 4, -8
 3091              		.cfi_offset 5, -4
 259:../Common/IQMath/ti/_IQNexp.c ****     return __IQNexp(a, _IQNexp_lookup20, _IQNexp_offset[20-1], _IQNexp_min[20-1], _IQNexp_max[20-1]
 3092              		.loc 1 259 5 is_stmt 1 view .LVU1172
 3093              		.loc 1 259 12 is_stmt 0 view .LVU1173
 3094 0002 2F4B     		ldr	r3, .L131
 3095 0004 93F84C30 		ldrb	r3, [r3, #76]	@ zero_extendqisi2
 3096              		.loc 1 259 75 view .LVU1174
 3097 0008 2E4A     		ldr	r2, .L131+4
 3098 000a D16C     		ldr	r1, [r2, #76]
 3099              		.loc 1 259 94 view .LVU1175
 3100 000c 2E4A     		ldr	r2, .L131+8
 3101 000e D26C     		ldr	r2, [r2, #76]
 3102              	.LVL451:
 3103              	.LBB196:
 3104              	.LBI196:
  32:../Common/IQMath/ti/_IQNexp.c **** {
 3105              		.loc 1 32 30 is_stmt 1 view .LVU1176
 3106              	.LBB197:
  34:../Common/IQMath/ti/_IQNexp.c ****     int_fast16_t i16Integer;
 3107              		.loc 1 34 5 view .LVU1177
  35:../Common/IQMath/ti/_IQNexp.c ****     uint_fast16_t ui16IntState;
 3108              		.loc 1 35 5 view .LVU1178
  36:../Common/IQMath/ti/_IQNexp.c ****     uint_fast16_t ui16MPYState;
 3109              		.loc 1 36 5 view .LVU1179
  37:../Common/IQMath/ti/_IQNexp.c ****     int_fast32_t iq31Fractional;
 3110              		.loc 1 37 5 view .LVU1180
  38:../Common/IQMath/ti/_IQNexp.c ****     uint_fast32_t uiqNResult;
 3111              		.loc 1 38 5 view .LVU1181
  39:../Common/IQMath/ti/_IQNexp.c ****     uint_fast32_t uiqNIntegerResult;
 3112              		.loc 1 39 5 view .LVU1182
  40:../Common/IQMath/ti/_IQNexp.c ****     uint_fast32_t uiq30FractionalResult;
 3113              		.loc 1 40 5 view .LVU1183
  41:../Common/IQMath/ti/_IQNexp.c ****     uint_fast32_t uiq31FractionalResult;
 3114              		.loc 1 41 5 view .LVU1184
  42:../Common/IQMath/ti/_IQNexp.c ****     const uint_fast32_t *piq30Coeffs;
 3115              		.loc 1 42 5 view .LVU1185
  43:../Common/IQMath/ti/_IQNexp.c ****     
 3116              		.loc 1 43 5 view .LVU1186
  46:../Common/IQMath/ti/_IQNexp.c ****         /* Check for the minimum value. */
 3117              		.loc 1 46 5 view .LVU1187
  46:../Common/IQMath/ti/_IQNexp.c ****         /* Check for the minimum value. */
ARM GAS  C:\Users\57308\AppData\Local\Temp\ccyuPR38.s 			page 83


 3118              		.loc 1 46 8 is_stmt 0 view .LVU1188
 3119 0010 0028     		cmp	r0, #0
  46:../Common/IQMath/ti/_IQNexp.c ****         /* Check for the minimum value. */
 3120              		.loc 1 46 8 view .LVU1189
 3121 0012 19DB     		blt	.L130
  73:../Common/IQMath/ti/_IQNexp.c ****             return INT32_MAX;
 3122              		.loc 1 73 9 is_stmt 1 view .LVU1190
  73:../Common/IQMath/ti/_IQNexp.c ****             return INT32_MAX;
 3123              		.loc 1 73 12 is_stmt 0 view .LVU1191
 3124 0014 8242     		cmp	r2, r0
 3125 0016 50DB     		blt	.L128
  78:../Common/IQMath/ti/_IQNexp.c ****         iq31Fractional <<= (31 - q_value);
 3126              		.loc 1 78 9 is_stmt 1 view .LVU1192
 3127              	.LVL452:
  79:../Common/IQMath/ti/_IQNexp.c ****         iq31Fractional &= 0x7fffffff;
 3128              		.loc 1 79 9 view .LVU1193
  79:../Common/IQMath/ti/_IQNexp.c ****         iq31Fractional &= 0x7fffffff;
 3129              		.loc 1 79 24 is_stmt 0 view .LVU1194
 3130 0018 4FEAC02C 		lsl	ip, r0, #11
 3131              	.LVL453:
  80:../Common/IQMath/ti/_IQNexp.c ****     
 3132              		.loc 1 80 9 is_stmt 1 view .LVU1195
  80:../Common/IQMath/ti/_IQNexp.c ****     
 3133              		.loc 1 80 24 is_stmt 0 view .LVU1196
 3134 001c 2CF0004C 		bic	ip, ip, #-2147483648
 3135              	.LVL454:
  83:../Common/IQMath/ti/_IQNexp.c ****     
 3136              		.loc 1 83 9 is_stmt 1 view .LVU1197
  86:../Common/IQMath/ti/_IQNexp.c ****         uiqNIntegerResult = iqNLookupTable[i16Integer];
 3137              		.loc 1 86 9 view .LVU1198
  86:../Common/IQMath/ti/_IQNexp.c ****         uiqNIntegerResult = iqNLookupTable[i16Integer];
 3138              		.loc 1 86 20 is_stmt 0 view .LVU1199
 3139 0020 03EB2050 		add	r0, r3, r0, asr #20
 3140              	.LVL455:
  87:../Common/IQMath/ti/_IQNexp.c ****         
 3141              		.loc 1 87 9 is_stmt 1 view .LVU1200
  87:../Common/IQMath/ti/_IQNexp.c ****         
 3142              		.loc 1 87 43 is_stmt 0 view .LVU1201
 3143 0024 294B     		ldr	r3, .L131+12
 3144              	.LVL456:
  87:../Common/IQMath/ti/_IQNexp.c ****         
 3145              		.loc 1 87 27 view .LVU1202
 3146 0026 53F82050 		ldr	r5, [r3, r0, lsl #2]
 3147              	.LVL457:
  90:../Common/IQMath/ti/_IQNexp.c ****             iq31Fractional -= iq31_ln2;
 3148              		.loc 1 90 9 is_stmt 1 view .LVU1203
  90:../Common/IQMath/ti/_IQNexp.c ****             iq31Fractional -= iq31_ln2;
 3149              		.loc 1 90 12 is_stmt 0 view .LVU1204
 3150 002a 294B     		ldr	r3, .L131+16
 3151 002c 9C45     		cmp	ip, r3
 3152 002e 06DD     		ble	.L124
  91:../Common/IQMath/ti/_IQNexp.c ****             uiqNIntegerResult <<= 1;
 3153              		.loc 1 91 13 is_stmt 1 view .LVU1205
  91:../Common/IQMath/ti/_IQNexp.c ****             uiqNIntegerResult <<= 1;
 3154              		.loc 1 91 28 is_stmt 0 view .LVU1206
 3155 0030 ACF1B14C 		sub	ip, ip, #1484783616
 3156              	.LVL458:
ARM GAS  C:\Users\57308\AppData\Local\Temp\ccyuPR38.s 			page 84


  91:../Common/IQMath/ti/_IQNexp.c ****             uiqNIntegerResult <<= 1;
 3157              		.loc 1 91 28 view .LVU1207
 3158 0034 ACF5641C 		sub	ip, ip, #3735552
 3159              	.LVL459:
  91:../Common/IQMath/ti/_IQNexp.c ****             uiqNIntegerResult <<= 1;
 3160              		.loc 1 91 28 view .LVU1208
 3161 0038 ACF6FC3C 		subw	ip, ip, #3068
 3162              	.LVL460:
  92:../Common/IQMath/ti/_IQNexp.c ****         }
 3163              		.loc 1 92 13 is_stmt 1 view .LVU1209
  92:../Common/IQMath/ti/_IQNexp.c ****         }
 3164              		.loc 1 92 31 is_stmt 0 view .LVU1210
 3165 003c 6D00     		lsls	r5, r5, #1
 3166              	.LVL461:
 3167              	.L124:
 102:../Common/IQMath/ti/_IQNexp.c ****     
 3168              		.loc 1 102 5 is_stmt 1 view .LVU1211
 102:../Common/IQMath/ti/_IQNexp.c ****     
 3169              		.loc 1 102 5 is_stmt 0 view .LVU1212
 3170              	.LBE197:
 3171              	.LBE196:
  28:../Common/IQMath/ti/./support/RTS_support.h **** }
 3172              		.loc 2 28 5 is_stmt 1 view .LVU1213
 3173              	.LBB205:
 3174              	.LBB202:
 109:../Common/IQMath/ti/_IQNexp.c ****     uiq30FractionalResult = *piq30Coeffs++;
 3175              		.loc 1 109 5 view .LVU1214
 110:../Common/IQMath/ti/_IQNexp.c ****     
 3176              		.loc 1 110 5 view .LVU1215
 110:../Common/IQMath/ti/_IQNexp.c ****     
 3177              		.loc 1 110 27 is_stmt 0 view .LVU1216
 3178 003e 2548     		ldr	r0, .L131+20
 3179              	.LVL462:
 110:../Common/IQMath/ti/_IQNexp.c ****     
 3180              		.loc 1 110 27 view .LVU1217
 3181 0040 50F8043B 		ldr	r3, [r0], #4
 3182              	.LVL463:
 113:../Common/IQMath/ti/_IQNexp.c ****         uiq30FractionalResult = __mpyf_l(iq31Fractional, uiq30FractionalResult);
 3183              		.loc 1 113 5 is_stmt 1 view .LVU1218
 113:../Common/IQMath/ti/_IQNexp.c ****         uiq30FractionalResult = __mpyf_l(iq31Fractional, uiq30FractionalResult);
 3184              		.loc 1 113 19 is_stmt 0 view .LVU1219
 3185 0044 0A24     		movs	r4, #10
 113:../Common/IQMath/ti/_IQNexp.c ****         uiq30FractionalResult = __mpyf_l(iq31Fractional, uiq30FractionalResult);
 3186              		.loc 1 113 5 view .LVU1220
 3187 0046 2AE0     		b	.L125
 3188              	.LVL464:
 3189              	.L130:
  48:../Common/IQMath/ti/_IQNexp.c ****             return 0;
 3190              		.loc 1 48 9 is_stmt 1 view .LVU1221
  48:../Common/IQMath/ti/_IQNexp.c ****             return 0;
 3191              		.loc 1 48 12 is_stmt 0 view .LVU1222
 3192 0048 8142     		cmp	r1, r0
 3193 004a 34DC     		bgt	.L127
  53:../Common/IQMath/ti/_IQNexp.c ****         iq31Fractional <<= (31 - q_value);
 3194              		.loc 1 53 9 is_stmt 1 view .LVU1223
 3195              	.LVL465:
  54:../Common/IQMath/ti/_IQNexp.c ****         iq31Fractional |= 0x80000000;
ARM GAS  C:\Users\57308\AppData\Local\Temp\ccyuPR38.s 			page 85


 3196              		.loc 1 54 9 view .LVU1224
  54:../Common/IQMath/ti/_IQNexp.c ****         iq31Fractional |= 0x80000000;
 3197              		.loc 1 54 24 is_stmt 0 view .LVU1225
 3198 004c 4FEAC02C 		lsl	ip, r0, #11
 3199              	.LVL466:
  55:../Common/IQMath/ti/_IQNexp.c ****     
 3200              		.loc 1 55 9 is_stmt 1 view .LVU1226
  55:../Common/IQMath/ti/_IQNexp.c ****     
 3201              		.loc 1 55 24 is_stmt 0 view .LVU1227
 3202 0050 4CF0004C 		orr	ip, ip, #-2147483648
 3203              	.LVL467:
  58:../Common/IQMath/ti/_IQNexp.c ****     
 3204              		.loc 1 58 9 is_stmt 1 view .LVU1228
  58:../Common/IQMath/ti/_IQNexp.c ****     
 3205              		.loc 1 58 46 is_stmt 0 view .LVU1229
 3206 0054 0015     		asrs	r0, r0, #20
 3207              	.LVL468:
  58:../Common/IQMath/ti/_IQNexp.c ****     
 3208              		.loc 1 58 20 view .LVU1230
 3209 0056 0130     		adds	r0, r0, #1
 3210              	.LVL469:
  61:../Common/IQMath/ti/_IQNexp.c ****         uiqNIntegerResult = iqNLookupTable[i16Integer];
 3211              		.loc 1 61 9 is_stmt 1 view .LVU1231
  61:../Common/IQMath/ti/_IQNexp.c ****         uiqNIntegerResult = iqNLookupTable[i16Integer];
 3212              		.loc 1 61 20 is_stmt 0 view .LVU1232
 3213 0058 1844     		add	r0, r0, r3
 3214              	.LVL470:
  62:../Common/IQMath/ti/_IQNexp.c ****         
 3215              		.loc 1 62 9 is_stmt 1 view .LVU1233
  62:../Common/IQMath/ti/_IQNexp.c ****         
 3216              		.loc 1 62 43 is_stmt 0 view .LVU1234
 3217 005a 1C4B     		ldr	r3, .L131+12
 3218              	.LVL471:
  62:../Common/IQMath/ti/_IQNexp.c ****         
 3219              		.loc 1 62 27 view .LVU1235
 3220 005c 53F82050 		ldr	r5, [r3, r0, lsl #2]
 3221              	.LVL472:
  65:../Common/IQMath/ti/_IQNexp.c ****             iq31Fractional += iq31_ln2;
 3222              		.loc 1 65 9 is_stmt 1 view .LVU1236
  65:../Common/IQMath/ti/_IQNexp.c ****             iq31Fractional += iq31_ln2;
 3223              		.loc 1 65 12 is_stmt 0 view .LVU1237
 3224 0060 1D4B     		ldr	r3, .L131+24
 3225 0062 9C45     		cmp	ip, r3
 3226 0064 EBDA     		bge	.L124
  66:../Common/IQMath/ti/_IQNexp.c ****             uiqNIntegerResult >>= 1;
