ARM GAS  C:\Users\57308\AppData\Local\Temp\ccaQbdhz.s 			page 1


   1              		.cpu cortex-m4
   2              		.arch armv7e-m
   3              		.fpu fpv4-sp-d16
   4              		.eabi_attribute 27, 1
   5              		.eabi_attribute 28, 1
   6              		.eabi_attribute 20, 1
   7              		.eabi_attribute 21, 1
   8              		.eabi_attribute 23, 3
   9              		.eabi_attribute 24, 1
  10              		.eabi_attribute 25, 1
  11              		.eabi_attribute 26, 1
  12              		.eabi_attribute 30, 1
  13              		.eabi_attribute 34, 1
  14              		.eabi_attribute 18, 4
  15              		.file	"main.c"
  16              		.text
  17              	.Ltext0:
  18              		.cfi_sections	.debug_frame
  19              		.section	.text.sysrunning_process,"ax",%progbits
  20              		.align	1
  21              		.global	sysrunning_process
  22              		.syntax unified
  23              		.thumb
  24              		.thumb_func
  26              	sysrunning_process:
  27              	.LFB235:
  28              		.file 1 "Src/main.c"
   1:Src/main.c    **** /* USER CODE BEGIN Header */
   2:Src/main.c    **** /**
   3:Src/main.c    ****   ******************************************************************************
   4:Src/main.c    ****   * @file           : main.c
   5:Src/main.c    ****   * @brief          : Main program body
   6:Src/main.c    ****   ******************************************************************************
   7:Src/main.c    ****   * @attention
   8:Src/main.c    ****   *
   9:Src/main.c    ****   * Copyright (c) 2024 STMicroelectronics.
  10:Src/main.c    ****   * All rights reserved.
  11:Src/main.c    ****   *
  12:Src/main.c    ****   * This software is licensed under terms that can be found in the LICENSE file
  13:Src/main.c    ****   * in the root directory of this software component.
  14:Src/main.c    ****   * If no LICENSE file comes with this software, it is provided AS-IS.
  15:Src/main.c    ****   *
  16:Src/main.c    ****   ******************************************************************************
  17:Src/main.c    ****   */
  18:Src/main.c    **** /* USER CODE END Header */
  19:Src/main.c    **** /* Includes ------------------------------------------------------------------*/
  20:Src/main.c    **** #include "main.h"
  21:Src/main.c    **** #include "adc.h"
  22:Src/main.c    **** #include "dma.h"
  23:Src/main.c    **** #include "spi.h"
  24:Src/main.c    **** #include "tim.h"
  25:Src/main.c    **** #include "usart.h"
  26:Src/main.c    **** #include "gpio.h"
  27:Src/main.c    **** 
  28:Src/main.c    **** /* Private includes ----------------------------------------------------------*/
  29:Src/main.c    **** /* USER CODE BEGIN Includes */
  30:Src/main.c    **** #include "debuglog.h"
ARM GAS  C:\Users\57308\AppData\Local\Temp\ccaQbdhz.s 			page 2


  31:Src/main.c    **** #include "as5047.h"
  32:Src/main.c    **** #include "sensor.h"
  33:Src/main.c    **** #include "hardware.h"
  34:Src/main.c    **** #include "motorctrl.h"
  35:Src/main.c    **** #include "protocol.h"
  36:Src/main.c    **** /* USER CODE END Includes */
  37:Src/main.c    **** 
  38:Src/main.c    **** /* Private typedef -----------------------------------------------------------*/
  39:Src/main.c    **** /* USER CODE BEGIN PTD */
  40:Src/main.c    **** 
  41:Src/main.c    **** /* USER CODE END PTD */
  42:Src/main.c    **** 
  43:Src/main.c    **** /* Private define ------------------------------------------------------------*/
  44:Src/main.c    **** /* USER CODE BEGIN PD */
  45:Src/main.c    **** 
  46:Src/main.c    **** /* USER CODE END PD */
  47:Src/main.c    **** 
  48:Src/main.c    **** /* Private macro -------------------------------------------------------------*/
  49:Src/main.c    **** /* USER CODE BEGIN PM */
  50:Src/main.c    **** 
  51:Src/main.c    **** /* USER CODE END PM */
  52:Src/main.c    **** 
  53:Src/main.c    **** /* Private variables ---------------------------------------------------------*/
  54:Src/main.c    **** 
  55:Src/main.c    **** /* USER CODE BEGIN PV */
  56:Src/main.c    **** 
  57:Src/main.c    **** /* USER CODE END PV */
  58:Src/main.c    **** 
  59:Src/main.c    **** /* Private function prototypes -----------------------------------------------*/
  60:Src/main.c    **** void SystemClock_Config(void);
  61:Src/main.c    **** /* USER CODE BEGIN PFP */
  62:Src/main.c    **** 
  63:Src/main.c    **** /* USER CODE END PFP */
  64:Src/main.c    **** 
  65:Src/main.c    **** /* Private user code ---------------------------------------------------------*/
  66:Src/main.c    **** /* USER CODE BEGIN 0 */
  67:Src/main.c    **** #define SYSRUNNING_PERCI            (1)
  68:Src/main.c    **** #define DELAY_1MS                   (1)/SYSRUNNING_PERCI
  69:Src/main.c    **** #define DELAY_2MS                   (2)/SYSRUNNING_PERCI
  70:Src/main.c    **** #define DELAY_5MS                   (5)/SYSRUNNING_PERCI
  71:Src/main.c    **** #define DELAY_20MS                  (20)/SYSRUNNING_PERCI
  72:Src/main.c    **** #define DELAY_500MS                 (500)/SYSRUNNING_PERCI
  73:Src/main.c    **** #define DELAY_1000MS                (1000)/SYSRUNNING_PERCI
  74:Src/main.c    **** #define DELAY_5000MS                (5000)/SYSRUNNING_PERCI
  75:Src/main.c    **** typedef struct
  76:Src/main.c    **** {
  77:Src/main.c    ****     /* data */
  78:Src/main.c    ****     unsigned int time_cnt;
  79:Src/main.c    ****     unsigned char state;
  80:Src/main.c    **** }sys_run_t;
  81:Src/main.c    **** static sys_run_t sg_SYSRuning;
  82:Src/main.c    **** void sysrunning_process(void)
  83:Src/main.c    **** {
  29              		.loc 1 83 1 view -0
  30              		.cfi_startproc
  31              		@ args = 0, pretend = 0, frame = 0
  32              		@ frame_needed = 0, uses_anonymous_args = 0
ARM GAS  C:\Users\57308\AppData\Local\Temp\ccaQbdhz.s 			page 3


  33 0000 08B5     		push	{r3, lr}
  34              	.LCFI0:
  35              		.cfi_def_cfa_offset 8
  36              		.cfi_offset 3, -8
  37              		.cfi_offset 14, -4
  84:Src/main.c    ****     enum{
  38              		.loc 1 84 5 view .LVU1
  85:Src/main.c    ****         SYS_IDLE,
  86:Src/main.c    ****         SYS_NORMLE,
  87:Src/main.c    ****     };
  88:Src/main.c    ****     /*-----------------------*/
  89:Src/main.c    ****     sg_SYSRuning.time_cnt++;
  39              		.loc 1 89 5 view .LVU2
  40              		.loc 1 89 17 is_stmt 0 view .LVU3
  41 0002 104A     		ldr	r2, .L6
  42 0004 1368     		ldr	r3, [r2]
  43              		.loc 1 89 26 view .LVU4
  44 0006 0133     		adds	r3, r3, #1
  45 0008 1360     		str	r3, [r2]
  90:Src/main.c    ****     switch (sg_SYSRuning.state)
  46              		.loc 1 90 5 is_stmt 1 view .LVU5
  47              		.loc 1 90 25 is_stmt 0 view .LVU6
  48 000a 1279     		ldrb	r2, [r2, #4]	@ zero_extendqisi2
  49              		.loc 1 90 5 view .LVU7
  50 000c 52B9     		cbnz	r2, .L1
  91:Src/main.c    ****     {
  92:Src/main.c    ****         case SYS_IDLE:
  93:Src/main.c    ****             if(!(sg_SYSRuning.time_cnt % (DELAY_5000MS))){
  51              		.loc 1 93 13 is_stmt 1 view .LVU8
  52              		.loc 1 93 40 is_stmt 0 view .LVU9
  53 000e 0E4A     		ldr	r2, .L6+4
  54 0010 A2FB0312 		umull	r1, r2, r2, r3
  55 0014 120B     		lsrs	r2, r2, #12
  56 0016 41F28831 		movw	r1, #5000
  57 001a 01FB1232 		mls	r2, r1, r2, r3
  58              		.loc 1 93 15 view .LVU10
  59 001e 12B9     		cbnz	r2, .L3
  94:Src/main.c    ****                 sg_SYSRuning.time_cnt = 0;
  60              		.loc 1 94 17 is_stmt 1 view .LVU11
  61              		.loc 1 94 39 is_stmt 0 view .LVU12
  62 0020 084B     		ldr	r3, .L6
  63 0022 1A60     		str	r2, [r3]
  95:Src/main.c    ****                 break;
  64              		.loc 1 95 17 is_stmt 1 view .LVU13
  65              	.L1:
  96:Src/main.c    ****             }
  97:Src/main.c    ****             if(!(sg_SYSRuning.time_cnt % (DELAY_1000MS))){
  98:Src/main.c    ****             }
  99:Src/main.c    ****             if(!(sg_SYSRuning.time_cnt % (DELAY_500MS)))
 100:Src/main.c    ****             {
 101:Src/main.c    ****             }            
 102:Src/main.c    ****             if(!(sg_SYSRuning.time_cnt % (DELAY_20MS)))
 103:Src/main.c    ****             {
 104:Src/main.c    ****                 HAL_GPIO_TogglePin(LED_01_GPIO_Port,LED_01_Pin);                
 105:Src/main.c    ****             }
 106:Src/main.c    ****             if(!(sg_SYSRuning.time_cnt % (DELAY_2MS))){
 107:Src/main.c    ****             }
ARM GAS  C:\Users\57308\AppData\Local\Temp\ccaQbdhz.s 			page 4


 108:Src/main.c    ****         default:
 109:Src/main.c    ****             break;
 110:Src/main.c    ****     }
 111:Src/main.c    **** }
  66              		.loc 1 111 1 is_stmt 0 view .LVU14
  67 0024 08BD     		pop	{r3, pc}
  68              	.L3:
  97:Src/main.c    ****             }
  69              		.loc 1 97 13 is_stmt 1 view .LVU15
  98:Src/main.c    ****             if(!(sg_SYSRuning.time_cnt % (DELAY_500MS)))
  70              		.loc 1 98 13 view .LVU16
  99:Src/main.c    ****             {
  71              		.loc 1 99 13 view .LVU17
 101:Src/main.c    ****             if(!(sg_SYSRuning.time_cnt % (DELAY_20MS)))
  72              		.loc 1 101 13 view .LVU18
 102:Src/main.c    ****             {
  73              		.loc 1 102 13 view .LVU19
 102:Src/main.c    ****             {
  74              		.loc 1 102 40 is_stmt 0 view .LVU20
  75 0026 094A     		ldr	r2, .L6+8
  76 0028 A2FB0312 		umull	r1, r2, r2, r3
  77 002c 1209     		lsrs	r2, r2, #4
  78 002e 02EB8202 		add	r2, r2, r2, lsl #2
  79 0032 9100     		lsls	r1, r2, #2
 102:Src/main.c    ****             {
  80              		.loc 1 102 15 view .LVU21
  81 0034 8B42     		cmp	r3, r1
  82 0036 F5D1     		bne	.L1
 104:Src/main.c    ****             }
  83              		.loc 1 104 17 is_stmt 1 view .LVU22
  84 0038 0421     		movs	r1, #4
  85 003a 0548     		ldr	r0, .L6+12
  86 003c FFF7FEFF 		bl	HAL_GPIO_TogglePin
  87              	.LVL0:
 106:Src/main.c    ****             }
  88              		.loc 1 106 13 view .LVU23
  89              		.loc 1 111 1 is_stmt 0 view .LVU24
  90 0040 F0E7     		b	.L1
  91              	.L7:
  92 0042 00BF     		.align	2
  93              	.L6:
  94 0044 00000000 		.word	.LANCHOR0
  95 0048 5917B7D1 		.word	-776530087
  96 004c CDCCCCCC 		.word	-858993459
  97 0050 000C0240 		.word	1073875968
  98              		.cfi_endproc
  99              	.LFE235:
 101              		.section	.text.Error_Handler,"ax",%progbits
 102              		.align	1
 103              		.global	Error_Handler
 104              		.syntax unified
 105              		.thumb
 106              		.thumb_func
 108              	Error_Handler:
 109              	.LFB238:
 112:Src/main.c    **** /* USER CODE END 0 */
 113:Src/main.c    **** 
ARM GAS  C:\Users\57308\AppData\Local\Temp\ccaQbdhz.s 			page 5


 114:Src/main.c    **** /**
 115:Src/main.c    ****   * @brief  The application entry point.
 116:Src/main.c    ****   * @retval int
 117:Src/main.c    ****   */
 118:Src/main.c    **** int main(void)
 119:Src/main.c    **** {
 120:Src/main.c    ****   /* USER CODE BEGIN 1 */
 121:Src/main.c    **** 
 122:Src/main.c    ****   /* USER CODE END 1 */
 123:Src/main.c    **** 
 124:Src/main.c    ****   /* MCU Configuration--------------------------------------------------------*/
 125:Src/main.c    **** 
 126:Src/main.c    ****   /* Reset of all peripherals, Initializes the Flash interface and the Systick. */
 127:Src/main.c    ****   HAL_Init();
 128:Src/main.c    **** 
 129:Src/main.c    ****   /* USER CODE BEGIN Init */
 130:Src/main.c    **** 
 131:Src/main.c    ****   /* USER CODE END Init */
 132:Src/main.c    **** 
 133:Src/main.c    ****   /* Configure the system clock */
 134:Src/main.c    ****   SystemClock_Config();
 135:Src/main.c    **** 
 136:Src/main.c    ****   /* USER CODE BEGIN SysInit */
 137:Src/main.c    **** 
 138:Src/main.c    ****   /* USER CODE END SysInit */
 139:Src/main.c    **** 
 140:Src/main.c    ****   /* Initialize all configured peripherals */
 141:Src/main.c    ****   MX_GPIO_Init();
 142:Src/main.c    ****   MX_DMA_Init();
 143:Src/main.c    ****   MX_SPI3_Init();
 144:Src/main.c    ****   MX_TIM1_Init();
 145:Src/main.c    ****   MX_ADC2_Init();
 146:Src/main.c    ****   MX_USART2_UART_Init();
 147:Src/main.c    ****   /* USER CODE BEGIN 2 */
 148:Src/main.c    ****   User_Printf_Init();
 149:Src/main.c    ****   USER_DEBUG_NORMAL("F405 Hello world\r\n");
 150:Src/main.c    ****   hw_init();
 151:Src/main.c    ****   protocol_init();
 152:Src/main.c    **** 
 153:Src/main.c    ****   HAL_Delay(1500);
 154:Src/main.c    ****   /* USER CODE END 2 */
 155:Src/main.c    **** 
 156:Src/main.c    ****   /* Infinite loop */
 157:Src/main.c    ****   /* USER CODE BEGIN WHILE */
 158:Src/main.c    ****   while (1)
 159:Src/main.c    ****   {
 160:Src/main.c    ****     HAL_Delay(1);
 161:Src/main.c    ****     sysrunning_process();
 162:Src/main.c    ****     hw_sensor_process();
 163:Src/main.c    ****     motortctrl_process();    
 164:Src/main.c    ****     /* USER CODE END WHILE */
 165:Src/main.c    **** 
 166:Src/main.c    ****     /* USER CODE BEGIN 3 */
 167:Src/main.c    ****   }
 168:Src/main.c    ****   /* USER CODE END 3 */
 169:Src/main.c    **** }
 170:Src/main.c    **** 
ARM GAS  C:\Users\57308\AppData\Local\Temp\ccaQbdhz.s 			page 6


 171:Src/main.c    **** /**
 172:Src/main.c    ****   * @brief System Clock Configuration
 173:Src/main.c    ****   * @retval None
 174:Src/main.c    ****   */
 175:Src/main.c    **** void SystemClock_Config(void)
 176:Src/main.c    **** {
 177:Src/main.c    ****   RCC_OscInitTypeDef RCC_OscInitStruct = {0};
 178:Src/main.c    ****   RCC_ClkInitTypeDef RCC_ClkInitStruct = {0};
 179:Src/main.c    **** 
 180:Src/main.c    ****   /** Configure the main internal regulator output voltage
 181:Src/main.c    ****   */
 182:Src/main.c    ****   __HAL_RCC_PWR_CLK_ENABLE();
 183:Src/main.c    ****   __HAL_PWR_VOLTAGESCALING_CONFIG(PWR_REGULATOR_VOLTAGE_SCALE1);
 184:Src/main.c    **** 
 185:Src/main.c    ****   /** Initializes the RCC Oscillators according to the specified parameters
 186:Src/main.c    ****   * in the RCC_OscInitTypeDef structure.
 187:Src/main.c    ****   */
 188:Src/main.c    ****   RCC_OscInitStruct.OscillatorType = RCC_OSCILLATORTYPE_HSI;
 189:Src/main.c    ****   RCC_OscInitStruct.HSIState = RCC_HSI_ON;
 190:Src/main.c    ****   RCC_OscInitStruct.HSICalibrationValue = RCC_HSICALIBRATION_DEFAULT;
 191:Src/main.c    ****   RCC_OscInitStruct.PLL.PLLState = RCC_PLL_ON;
 192:Src/main.c    ****   RCC_OscInitStruct.PLL.PLLSource = RCC_PLLSOURCE_HSI;
 193:Src/main.c    ****   RCC_OscInitStruct.PLL.PLLM = 8;
 194:Src/main.c    ****   RCC_OscInitStruct.PLL.PLLN = 168;
 195:Src/main.c    ****   RCC_OscInitStruct.PLL.PLLP = RCC_PLLP_DIV2;
 196:Src/main.c    ****   RCC_OscInitStruct.PLL.PLLQ = 4;
 197:Src/main.c    ****   if (HAL_RCC_OscConfig(&RCC_OscInitStruct) != HAL_OK)
 198:Src/main.c    ****   {
 199:Src/main.c    ****     Error_Handler();
 200:Src/main.c    ****   }
 201:Src/main.c    **** 
 202:Src/main.c    ****   /** Initializes the CPU, AHB and APB buses clocks
 203:Src/main.c    ****   */
 204:Src/main.c    ****   RCC_ClkInitStruct.ClockType = RCC_CLOCKTYPE_HCLK|RCC_CLOCKTYPE_SYSCLK
 205:Src/main.c    ****                               |RCC_CLOCKTYPE_PCLK1|RCC_CLOCKTYPE_PCLK2;
 206:Src/main.c    ****   RCC_ClkInitStruct.SYSCLKSource = RCC_SYSCLKSOURCE_PLLCLK;
 207:Src/main.c    ****   RCC_ClkInitStruct.AHBCLKDivider = RCC_SYSCLK_DIV1;
 208:Src/main.c    ****   RCC_ClkInitStruct.APB1CLKDivider = RCC_HCLK_DIV4;
 209:Src/main.c    ****   RCC_ClkInitStruct.APB2CLKDivider = RCC_HCLK_DIV2;
 210:Src/main.c    **** 
 211:Src/main.c    ****   if (HAL_RCC_ClockConfig(&RCC_ClkInitStruct, FLASH_LATENCY_5) != HAL_OK)
 212:Src/main.c    ****   {
 213:Src/main.c    ****     Error_Handler();
 214:Src/main.c    ****   }
 215:Src/main.c    **** }
 216:Src/main.c    **** 
 217:Src/main.c    **** /* USER CODE BEGIN 4 */
 218:Src/main.c    **** 
 219:Src/main.c    **** /* USER CODE END 4 */
 220:Src/main.c    **** 
 221:Src/main.c    **** /**
 222:Src/main.c    ****   * @brief  This function is executed in case of error occurrence.
 223:Src/main.c    ****   * @retval None
 224:Src/main.c    ****   */
 225:Src/main.c    **** void Error_Handler(void)
 226:Src/main.c    **** {
 110              		.loc 1 226 1 is_stmt 1 view -0
ARM GAS  C:\Users\57308\AppData\Local\Temp\ccaQbdhz.s 			page 7


 111              		.cfi_startproc
 112              		@ Volatile: function does not return.
 113              		@ args = 0, pretend = 0, frame = 0
 114              		@ frame_needed = 0, uses_anonymous_args = 0
 115              		@ link register save eliminated.
 227:Src/main.c    ****   /* USER CODE BEGIN Error_Handler_Debug */
 228:Src/main.c    ****   /* User can add his own implementation to report the HAL error return state */
 229:Src/main.c    ****   __disable_irq();
 116              		.loc 1 229 3 view .LVU26
 117              	.LBB4:
 118              	.LBI4:
 119              		.file 2 "Drivers/CMSIS/Include/cmsis_gcc.h"
   1:Drivers/CMSIS/Include/cmsis_gcc.h **** /**************************************************************************//**
   2:Drivers/CMSIS/Include/cmsis_gcc.h ****  * @file     cmsis_gcc.h
   3:Drivers/CMSIS/Include/cmsis_gcc.h ****  * @brief    CMSIS compiler GCC header file
   4:Drivers/CMSIS/Include/cmsis_gcc.h ****  * @version  V5.0.4
   5:Drivers/CMSIS/Include/cmsis_gcc.h ****  * @date     09. April 2018
   6:Drivers/CMSIS/Include/cmsis_gcc.h ****  ******************************************************************************/
   7:Drivers/CMSIS/Include/cmsis_gcc.h **** /*
   8:Drivers/CMSIS/Include/cmsis_gcc.h ****  * Copyright (c) 2009-2018 Arm Limited. All rights reserved.
   9:Drivers/CMSIS/Include/cmsis_gcc.h ****  *
  10:Drivers/CMSIS/Include/cmsis_gcc.h ****  * SPDX-License-Identifier: Apache-2.0
  11:Drivers/CMSIS/Include/cmsis_gcc.h ****  *
  12:Drivers/CMSIS/Include/cmsis_gcc.h ****  * Licensed under the Apache License, Version 2.0 (the License); you may
  13:Drivers/CMSIS/Include/cmsis_gcc.h ****  * not use this file except in compliance with the License.
  14:Drivers/CMSIS/Include/cmsis_gcc.h ****  * You may obtain a copy of the License at
  15:Drivers/CMSIS/Include/cmsis_gcc.h ****  *
  16:Drivers/CMSIS/Include/cmsis_gcc.h ****  * www.apache.org/licenses/LICENSE-2.0
  17:Drivers/CMSIS/Include/cmsis_gcc.h ****  *
  18:Drivers/CMSIS/Include/cmsis_gcc.h ****  * Unless required by applicable law or agreed to in writing, software
  19:Drivers/CMSIS/Include/cmsis_gcc.h ****  * distributed under the License is distributed on an AS IS BASIS, WITHOUT
  20:Drivers/CMSIS/Include/cmsis_gcc.h ****  * WARRANTIES OR CONDITIONS OF ANY KIND, either express or implied.
  21:Drivers/CMSIS/Include/cmsis_gcc.h ****  * See the License for the specific language governing permissions and
  22:Drivers/CMSIS/Include/cmsis_gcc.h ****  * limitations under the License.
  23:Drivers/CMSIS/Include/cmsis_gcc.h ****  */
  24:Drivers/CMSIS/Include/cmsis_gcc.h **** 
  25:Drivers/CMSIS/Include/cmsis_gcc.h **** #ifndef __CMSIS_GCC_H
  26:Drivers/CMSIS/Include/cmsis_gcc.h **** #define __CMSIS_GCC_H
  27:Drivers/CMSIS/Include/cmsis_gcc.h **** 
  28:Drivers/CMSIS/Include/cmsis_gcc.h **** /* ignore some GCC warnings */
  29:Drivers/CMSIS/Include/cmsis_gcc.h **** #pragma GCC diagnostic push
  30:Drivers/CMSIS/Include/cmsis_gcc.h **** #pragma GCC diagnostic ignored "-Wsign-conversion"
  31:Drivers/CMSIS/Include/cmsis_gcc.h **** #pragma GCC diagnostic ignored "-Wconversion"
  32:Drivers/CMSIS/Include/cmsis_gcc.h **** #pragma GCC diagnostic ignored "-Wunused-parameter"
  33:Drivers/CMSIS/Include/cmsis_gcc.h **** 
  34:Drivers/CMSIS/Include/cmsis_gcc.h **** /* Fallback for __has_builtin */
  35:Drivers/CMSIS/Include/cmsis_gcc.h **** #ifndef __has_builtin
  36:Drivers/CMSIS/Include/cmsis_gcc.h ****   #define __has_builtin(x) (0)
  37:Drivers/CMSIS/Include/cmsis_gcc.h **** #endif
  38:Drivers/CMSIS/Include/cmsis_gcc.h **** 
  39:Drivers/CMSIS/Include/cmsis_gcc.h **** /* CMSIS compiler specific defines */
  40:Drivers/CMSIS/Include/cmsis_gcc.h **** #ifndef   __ASM
  41:Drivers/CMSIS/Include/cmsis_gcc.h ****   #define __ASM                                  __asm
  42:Drivers/CMSIS/Include/cmsis_gcc.h **** #endif
  43:Drivers/CMSIS/Include/cmsis_gcc.h **** #ifndef   __INLINE
  44:Drivers/CMSIS/Include/cmsis_gcc.h ****   #define __INLINE                               inline
  45:Drivers/CMSIS/Include/cmsis_gcc.h **** #endif
ARM GAS  C:\Users\57308\AppData\Local\Temp\ccaQbdhz.s 			page 8


  46:Drivers/CMSIS/Include/cmsis_gcc.h **** #ifndef   __STATIC_INLINE
  47:Drivers/CMSIS/Include/cmsis_gcc.h ****   #define __STATIC_INLINE                        static inline
  48:Drivers/CMSIS/Include/cmsis_gcc.h **** #endif
  49:Drivers/CMSIS/Include/cmsis_gcc.h **** #ifndef   __STATIC_FORCEINLINE                 
  50:Drivers/CMSIS/Include/cmsis_gcc.h ****   #define __STATIC_FORCEINLINE                   __attribute__((always_inline)) static inline
  51:Drivers/CMSIS/Include/cmsis_gcc.h **** #endif                                           
  52:Drivers/CMSIS/Include/cmsis_gcc.h **** #ifndef   __NO_RETURN
  53:Drivers/CMSIS/Include/cmsis_gcc.h ****   #define __NO_RETURN                            __attribute__((__noreturn__))
  54:Drivers/CMSIS/Include/cmsis_gcc.h **** #endif
  55:Drivers/CMSIS/Include/cmsis_gcc.h **** #ifndef   __USED
  56:Drivers/CMSIS/Include/cmsis_gcc.h ****   #define __USED                                 __attribute__((used))
  57:Drivers/CMSIS/Include/cmsis_gcc.h **** #endif
  58:Drivers/CMSIS/Include/cmsis_gcc.h **** #ifndef   __WEAK
  59:Drivers/CMSIS/Include/cmsis_gcc.h ****   #define __WEAK                                 __attribute__((weak))
  60:Drivers/CMSIS/Include/cmsis_gcc.h **** #endif
  61:Drivers/CMSIS/Include/cmsis_gcc.h **** #ifndef   __PACKED
  62:Drivers/CMSIS/Include/cmsis_gcc.h ****   #define __PACKED                               __attribute__((packed, aligned(1)))
  63:Drivers/CMSIS/Include/cmsis_gcc.h **** #endif
  64:Drivers/CMSIS/Include/cmsis_gcc.h **** #ifndef   __PACKED_STRUCT
  65:Drivers/CMSIS/Include/cmsis_gcc.h ****   #define __PACKED_STRUCT                        struct __attribute__((packed, aligned(1)))
  66:Drivers/CMSIS/Include/cmsis_gcc.h **** #endif
  67:Drivers/CMSIS/Include/cmsis_gcc.h **** #ifndef   __PACKED_UNION
  68:Drivers/CMSIS/Include/cmsis_gcc.h ****   #define __PACKED_UNION                         union __attribute__((packed, aligned(1)))
  69:Drivers/CMSIS/Include/cmsis_gcc.h **** #endif
  70:Drivers/CMSIS/Include/cmsis_gcc.h **** #ifndef   __UNALIGNED_UINT32        /* deprecated */
  71:Drivers/CMSIS/Include/cmsis_gcc.h ****   #pragma GCC diagnostic push
  72:Drivers/CMSIS/Include/cmsis_gcc.h ****   #pragma GCC diagnostic ignored "-Wpacked"
  73:Drivers/CMSIS/Include/cmsis_gcc.h ****   #pragma GCC diagnostic ignored "-Wattributes"
  74:Drivers/CMSIS/Include/cmsis_gcc.h ****   struct __attribute__((packed)) T_UINT32 { uint32_t v; };
  75:Drivers/CMSIS/Include/cmsis_gcc.h ****   #pragma GCC diagnostic pop
  76:Drivers/CMSIS/Include/cmsis_gcc.h ****   #define __UNALIGNED_UINT32(x)                  (((struct T_UINT32 *)(x))->v)
  77:Drivers/CMSIS/Include/cmsis_gcc.h **** #endif
  78:Drivers/CMSIS/Include/cmsis_gcc.h **** #ifndef   __UNALIGNED_UINT16_WRITE
  79:Drivers/CMSIS/Include/cmsis_gcc.h ****   #pragma GCC diagnostic push
  80:Drivers/CMSIS/Include/cmsis_gcc.h ****   #pragma GCC diagnostic ignored "-Wpacked"
  81:Drivers/CMSIS/Include/cmsis_gcc.h ****   #pragma GCC diagnostic ignored "-Wattributes"
  82:Drivers/CMSIS/Include/cmsis_gcc.h ****   __PACKED_STRUCT T_UINT16_WRITE { uint16_t v; };
  83:Drivers/CMSIS/Include/cmsis_gcc.h ****   #pragma GCC diagnostic pop
  84:Drivers/CMSIS/Include/cmsis_gcc.h ****   #define __UNALIGNED_UINT16_WRITE(addr, val)    (void)((((struct T_UINT16_WRITE *)(void *)(addr))-
  85:Drivers/CMSIS/Include/cmsis_gcc.h **** #endif
  86:Drivers/CMSIS/Include/cmsis_gcc.h **** #ifndef   __UNALIGNED_UINT16_READ
  87:Drivers/CMSIS/Include/cmsis_gcc.h ****   #pragma GCC diagnostic push
  88:Drivers/CMSIS/Include/cmsis_gcc.h ****   #pragma GCC diagnostic ignored "-Wpacked"
  89:Drivers/CMSIS/Include/cmsis_gcc.h ****   #pragma GCC diagnostic ignored "-Wattributes"
  90:Drivers/CMSIS/Include/cmsis_gcc.h ****   __PACKED_STRUCT T_UINT16_READ { uint16_t v; };
  91:Drivers/CMSIS/Include/cmsis_gcc.h ****   #pragma GCC diagnostic pop
  92:Drivers/CMSIS/Include/cmsis_gcc.h ****   #define __UNALIGNED_UINT16_READ(addr)          (((const struct T_UINT16_READ *)(const void *)(add
  93:Drivers/CMSIS/Include/cmsis_gcc.h **** #endif
  94:Drivers/CMSIS/Include/cmsis_gcc.h **** #ifndef   __UNALIGNED_UINT32_WRITE
  95:Drivers/CMSIS/Include/cmsis_gcc.h ****   #pragma GCC diagnostic push
  96:Drivers/CMSIS/Include/cmsis_gcc.h ****   #pragma GCC diagnostic ignored "-Wpacked"
  97:Drivers/CMSIS/Include/cmsis_gcc.h ****   #pragma GCC diagnostic ignored "-Wattributes"
  98:Drivers/CMSIS/Include/cmsis_gcc.h ****   __PACKED_STRUCT T_UINT32_WRITE { uint32_t v; };
  99:Drivers/CMSIS/Include/cmsis_gcc.h ****   #pragma GCC diagnostic pop
 100:Drivers/CMSIS/Include/cmsis_gcc.h ****   #define __UNALIGNED_UINT32_WRITE(addr, val)    (void)((((struct T_UINT32_WRITE *)(void *)(addr))-
 101:Drivers/CMSIS/Include/cmsis_gcc.h **** #endif
 102:Drivers/CMSIS/Include/cmsis_gcc.h **** #ifndef   __UNALIGNED_UINT32_READ
ARM GAS  C:\Users\57308\AppData\Local\Temp\ccaQbdhz.s 			page 9


 103:Drivers/CMSIS/Include/cmsis_gcc.h ****   #pragma GCC diagnostic push
 104:Drivers/CMSIS/Include/cmsis_gcc.h ****   #pragma GCC diagnostic ignored "-Wpacked"
 105:Drivers/CMSIS/Include/cmsis_gcc.h ****   #pragma GCC diagnostic ignored "-Wattributes"
 106:Drivers/CMSIS/Include/cmsis_gcc.h ****   __PACKED_STRUCT T_UINT32_READ { uint32_t v; };
 107:Drivers/CMSIS/Include/cmsis_gcc.h ****   #pragma GCC diagnostic pop
 108:Drivers/CMSIS/Include/cmsis_gcc.h ****   #define __UNALIGNED_UINT32_READ(addr)          (((const struct T_UINT32_READ *)(const void *)(add
 109:Drivers/CMSIS/Include/cmsis_gcc.h **** #endif
 110:Drivers/CMSIS/Include/cmsis_gcc.h **** #ifndef   __ALIGNED
 111:Drivers/CMSIS/Include/cmsis_gcc.h ****   #define __ALIGNED(x)                           __attribute__((aligned(x)))
 112:Drivers/CMSIS/Include/cmsis_gcc.h **** #endif
 113:Drivers/CMSIS/Include/cmsis_gcc.h **** #ifndef   __RESTRICT
 114:Drivers/CMSIS/Include/cmsis_gcc.h ****   #define __RESTRICT                             __restrict
 115:Drivers/CMSIS/Include/cmsis_gcc.h **** #endif
 116:Drivers/CMSIS/Include/cmsis_gcc.h **** 
 117:Drivers/CMSIS/Include/cmsis_gcc.h **** 
 118:Drivers/CMSIS/Include/cmsis_gcc.h **** /* ###########################  Core Function Access  ########################### */
 119:Drivers/CMSIS/Include/cmsis_gcc.h **** /** \ingroup  CMSIS_Core_FunctionInterface
 120:Drivers/CMSIS/Include/cmsis_gcc.h ****     \defgroup CMSIS_Core_RegAccFunctions CMSIS Core Register Access Functions
 121:Drivers/CMSIS/Include/cmsis_gcc.h ****   @{
 122:Drivers/CMSIS/Include/cmsis_gcc.h ****  */
 123:Drivers/CMSIS/Include/cmsis_gcc.h **** 
 124:Drivers/CMSIS/Include/cmsis_gcc.h **** /**
 125:Drivers/CMSIS/Include/cmsis_gcc.h ****   \brief   Enable IRQ Interrupts
 126:Drivers/CMSIS/Include/cmsis_gcc.h ****   \details Enables IRQ interrupts by clearing the I-bit in the CPSR.
 127:Drivers/CMSIS/Include/cmsis_gcc.h ****            Can only be executed in Privileged modes.
 128:Drivers/CMSIS/Include/cmsis_gcc.h ****  */
 129:Drivers/CMSIS/Include/cmsis_gcc.h **** __STATIC_FORCEINLINE void __enable_irq(void)
 130:Drivers/CMSIS/Include/cmsis_gcc.h **** {
 131:Drivers/CMSIS/Include/cmsis_gcc.h ****   __ASM volatile ("cpsie i" : : : "memory");
 132:Drivers/CMSIS/Include/cmsis_gcc.h **** }
 133:Drivers/CMSIS/Include/cmsis_gcc.h **** 
 134:Drivers/CMSIS/Include/cmsis_gcc.h **** 
 135:Drivers/CMSIS/Include/cmsis_gcc.h **** /**
 136:Drivers/CMSIS/Include/cmsis_gcc.h ****   \brief   Disable IRQ Interrupts
 137:Drivers/CMSIS/Include/cmsis_gcc.h ****   \details Disables IRQ interrupts by setting the I-bit in the CPSR.
 138:Drivers/CMSIS/Include/cmsis_gcc.h ****            Can only be executed in Privileged modes.
 139:Drivers/CMSIS/Include/cmsis_gcc.h ****  */
 140:Drivers/CMSIS/Include/cmsis_gcc.h **** __STATIC_FORCEINLINE void __disable_irq(void)
 120              		.loc 2 140 27 view .LVU27
 121              	.LBB5:
 141:Drivers/CMSIS/Include/cmsis_gcc.h **** {
 142:Drivers/CMSIS/Include/cmsis_gcc.h ****   __ASM volatile ("cpsid i" : : : "memory");
 122              		.loc 2 142 3 view .LVU28
 123              		.syntax unified
 124              	@ 142 "Drivers/CMSIS/Include/cmsis_gcc.h" 1
 125 0000 72B6     		cpsid i
 126              	@ 0 "" 2
 127              		.thumb
 128              		.syntax unified
 129              	.L9:
 130              	.LBE5:
 131              	.LBE4:
 230:Src/main.c    ****   while (1)
 132              		.loc 1 230 3 discriminator 1 view .LVU29
 231:Src/main.c    ****   {
 232:Src/main.c    ****   }
 133              		.loc 1 232 3 discriminator 1 view .LVU30
ARM GAS  C:\Users\57308\AppData\Local\Temp\ccaQbdhz.s 			page 10


 230:Src/main.c    ****   while (1)
 134              		.loc 1 230 9 discriminator 1 view .LVU31
 135 0002 FEE7     		b	.L9
 136              		.cfi_endproc
 137              	.LFE238:
 139              		.section	.text.SystemClock_Config,"ax",%progbits
 140              		.align	1
 141              		.global	SystemClock_Config
 142              		.syntax unified
 143              		.thumb
 144              		.thumb_func
 146              	SystemClock_Config:
 147              	.LFB237:
 176:Src/main.c    ****   RCC_OscInitTypeDef RCC_OscInitStruct = {0};
 148              		.loc 1 176 1 view -0
 149              		.cfi_startproc
 150              		@ args = 0, pretend = 0, frame = 80
 151              		@ frame_needed = 0, uses_anonymous_args = 0
 152 0000 00B5     		push	{lr}
 153              	.LCFI1:
 154              		.cfi_def_cfa_offset 4
 155              		.cfi_offset 14, -4
 156 0002 95B0     		sub	sp, sp, #84
 157              	.LCFI2:
 158              		.cfi_def_cfa_offset 88
 177:Src/main.c    ****   RCC_ClkInitTypeDef RCC_ClkInitStruct = {0};
 159              		.loc 1 177 3 view .LVU33
 177:Src/main.c    ****   RCC_ClkInitTypeDef RCC_ClkInitStruct = {0};
 160              		.loc 1 177 22 is_stmt 0 view .LVU34
 161 0004 3022     		movs	r2, #48
 162 0006 0021     		movs	r1, #0
 163 0008 08A8     		add	r0, sp, #32
 164 000a FFF7FEFF 		bl	memset
 165              	.LVL1:
 178:Src/main.c    **** 
 166              		.loc 1 178 3 is_stmt 1 view .LVU35
 178:Src/main.c    **** 
 167              		.loc 1 178 22 is_stmt 0 view .LVU36
 168 000e 0023     		movs	r3, #0
 169 0010 0393     		str	r3, [sp, #12]
 170 0012 0493     		str	r3, [sp, #16]
 171 0014 0593     		str	r3, [sp, #20]
 172 0016 0693     		str	r3, [sp, #24]
 173 0018 0793     		str	r3, [sp, #28]
 182:Src/main.c    ****   __HAL_PWR_VOLTAGESCALING_CONFIG(PWR_REGULATOR_VOLTAGE_SCALE1);
 174              		.loc 1 182 3 is_stmt 1 view .LVU37
 175              	.LBB6:
 182:Src/main.c    ****   __HAL_PWR_VOLTAGESCALING_CONFIG(PWR_REGULATOR_VOLTAGE_SCALE1);
 176              		.loc 1 182 3 view .LVU38
 177 001a 0193     		str	r3, [sp, #4]
 182:Src/main.c    ****   __HAL_PWR_VOLTAGESCALING_CONFIG(PWR_REGULATOR_VOLTAGE_SCALE1);
 178              		.loc 1 182 3 view .LVU39
 179 001c 1F4A     		ldr	r2, .L16
 180 001e 116C     		ldr	r1, [r2, #64]
 181 0020 41F08051 		orr	r1, r1, #268435456
 182 0024 1164     		str	r1, [r2, #64]
 182:Src/main.c    ****   __HAL_PWR_VOLTAGESCALING_CONFIG(PWR_REGULATOR_VOLTAGE_SCALE1);
ARM GAS  C:\Users\57308\AppData\Local\Temp\ccaQbdhz.s 			page 11


 183              		.loc 1 182 3 view .LVU40
 184 0026 126C     		ldr	r2, [r2, #64]
 185 0028 02F08052 		and	r2, r2, #268435456
 186 002c 0192     		str	r2, [sp, #4]
 182:Src/main.c    ****   __HAL_PWR_VOLTAGESCALING_CONFIG(PWR_REGULATOR_VOLTAGE_SCALE1);
 187              		.loc 1 182 3 view .LVU41
 188 002e 019A     		ldr	r2, [sp, #4]
 189              	.LBE6:
 182:Src/main.c    ****   __HAL_PWR_VOLTAGESCALING_CONFIG(PWR_REGULATOR_VOLTAGE_SCALE1);
 190              		.loc 1 182 3 view .LVU42
 183:Src/main.c    **** 
 191              		.loc 1 183 3 view .LVU43
 192              	.LBB7:
 183:Src/main.c    **** 
 193              		.loc 1 183 3 view .LVU44
 194 0030 0293     		str	r3, [sp, #8]
 183:Src/main.c    **** 
 195              		.loc 1 183 3 view .LVU45
 196 0032 1B4A     		ldr	r2, .L16+4
 197 0034 1168     		ldr	r1, [r2]
 198 0036 41F48041 		orr	r1, r1, #16384
 199 003a 1160     		str	r1, [r2]
 183:Src/main.c    **** 
 200              		.loc 1 183 3 view .LVU46
 201 003c 1268     		ldr	r2, [r2]
 202 003e 02F48042 		and	r2, r2, #16384
 203 0042 0292     		str	r2, [sp, #8]
 183:Src/main.c    **** 
 204              		.loc 1 183 3 view .LVU47
 205 0044 029A     		ldr	r2, [sp, #8]
 206              	.LBE7:
 183:Src/main.c    **** 
 207              		.loc 1 183 3 view .LVU48
 188:Src/main.c    ****   RCC_OscInitStruct.HSIState = RCC_HSI_ON;
 208              		.loc 1 188 3 view .LVU49
 188:Src/main.c    ****   RCC_OscInitStruct.HSIState = RCC_HSI_ON;
 209              		.loc 1 188 36 is_stmt 0 view .LVU50
 210 0046 0222     		movs	r2, #2
 211 0048 0892     		str	r2, [sp, #32]
 189:Src/main.c    ****   RCC_OscInitStruct.HSICalibrationValue = RCC_HSICALIBRATION_DEFAULT;
 212              		.loc 1 189 3 is_stmt 1 view .LVU51
 189:Src/main.c    ****   RCC_OscInitStruct.HSICalibrationValue = RCC_HSICALIBRATION_DEFAULT;
 213              		.loc 1 189 30 is_stmt 0 view .LVU52
 214 004a 0121     		movs	r1, #1
 215 004c 0B91     		str	r1, [sp, #44]
 190:Src/main.c    ****   RCC_OscInitStruct.PLL.PLLState = RCC_PLL_ON;
 216              		.loc 1 190 3 is_stmt 1 view .LVU53
 190:Src/main.c    ****   RCC_OscInitStruct.PLL.PLLState = RCC_PLL_ON;
 217              		.loc 1 190 41 is_stmt 0 view .LVU54
 218 004e 1021     		movs	r1, #16
 219 0050 0C91     		str	r1, [sp, #48]
 191:Src/main.c    ****   RCC_OscInitStruct.PLL.PLLSource = RCC_PLLSOURCE_HSI;
 220              		.loc 1 191 3 is_stmt 1 view .LVU55
 191:Src/main.c    ****   RCC_OscInitStruct.PLL.PLLSource = RCC_PLLSOURCE_HSI;
 221              		.loc 1 191 34 is_stmt 0 view .LVU56
 222 0052 0E92     		str	r2, [sp, #56]
 192:Src/main.c    ****   RCC_OscInitStruct.PLL.PLLM = 8;
ARM GAS  C:\Users\57308\AppData\Local\Temp\ccaQbdhz.s 			page 12


 223              		.loc 1 192 3 is_stmt 1 view .LVU57
 192:Src/main.c    ****   RCC_OscInitStruct.PLL.PLLM = 8;
 224              		.loc 1 192 35 is_stmt 0 view .LVU58
 225 0054 0F93     		str	r3, [sp, #60]
 193:Src/main.c    ****   RCC_OscInitStruct.PLL.PLLN = 168;
 226              		.loc 1 193 3 is_stmt 1 view .LVU59
 193:Src/main.c    ****   RCC_OscInitStruct.PLL.PLLN = 168;
 227              		.loc 1 193 30 is_stmt 0 view .LVU60
 228 0056 0823     		movs	r3, #8
 229 0058 1093     		str	r3, [sp, #64]
 194:Src/main.c    ****   RCC_OscInitStruct.PLL.PLLP = RCC_PLLP_DIV2;
 230              		.loc 1 194 3 is_stmt 1 view .LVU61
 194:Src/main.c    ****   RCC_OscInitStruct.PLL.PLLP = RCC_PLLP_DIV2;
 231              		.loc 1 194 30 is_stmt 0 view .LVU62
 232 005a A823     		movs	r3, #168
 233 005c 1193     		str	r3, [sp, #68]
 195:Src/main.c    ****   RCC_OscInitStruct.PLL.PLLQ = 4;
 234              		.loc 1 195 3 is_stmt 1 view .LVU63
 195:Src/main.c    ****   RCC_OscInitStruct.PLL.PLLQ = 4;
 235              		.loc 1 195 30 is_stmt 0 view .LVU64
 236 005e 1292     		str	r2, [sp, #72]
 196:Src/main.c    ****   if (HAL_RCC_OscConfig(&RCC_OscInitStruct) != HAL_OK)
 237              		.loc 1 196 3 is_stmt 1 view .LVU65
 196:Src/main.c    ****   if (HAL_RCC_OscConfig(&RCC_OscInitStruct) != HAL_OK)
 238              		.loc 1 196 30 is_stmt 0 view .LVU66
 239 0060 0423     		movs	r3, #4
 240 0062 1393     		str	r3, [sp, #76]
 197:Src/main.c    ****   {
 241              		.loc 1 197 3 is_stmt 1 view .LVU67
 197:Src/main.c    ****   {
 242              		.loc 1 197 7 is_stmt 0 view .LVU68
 243 0064 08A8     		add	r0, sp, #32
 244 0066 FFF7FEFF 		bl	HAL_RCC_OscConfig
 245              	.LVL2:
 197:Src/main.c    ****   {
 246              		.loc 1 197 6 view .LVU69
 247 006a 98B9     		cbnz	r0, .L14
 204:Src/main.c    ****                               |RCC_CLOCKTYPE_PCLK1|RCC_CLOCKTYPE_PCLK2;
 248              		.loc 1 204 3 is_stmt 1 view .LVU70
 204:Src/main.c    ****                               |RCC_CLOCKTYPE_PCLK1|RCC_CLOCKTYPE_PCLK2;
 249              		.loc 1 204 31 is_stmt 0 view .LVU71
 250 006c 0F23     		movs	r3, #15
 251 006e 0393     		str	r3, [sp, #12]
 206:Src/main.c    ****   RCC_ClkInitStruct.AHBCLKDivider = RCC_SYSCLK_DIV1;
 252              		.loc 1 206 3 is_stmt 1 view .LVU72
 206:Src/main.c    ****   RCC_ClkInitStruct.AHBCLKDivider = RCC_SYSCLK_DIV1;
 253              		.loc 1 206 34 is_stmt 0 view .LVU73
 254 0070 0223     		movs	r3, #2
 255 0072 0493     		str	r3, [sp, #16]
 207:Src/main.c    ****   RCC_ClkInitStruct.APB1CLKDivider = RCC_HCLK_DIV4;
 256              		.loc 1 207 3 is_stmt 1 view .LVU74
 207:Src/main.c    ****   RCC_ClkInitStruct.APB1CLKDivider = RCC_HCLK_DIV4;
 257              		.loc 1 207 35 is_stmt 0 view .LVU75
 258 0074 0023     		movs	r3, #0
 259 0076 0593     		str	r3, [sp, #20]
 208:Src/main.c    ****   RCC_ClkInitStruct.APB2CLKDivider = RCC_HCLK_DIV2;
 260              		.loc 1 208 3 is_stmt 1 view .LVU76
ARM GAS  C:\Users\57308\AppData\Local\Temp\ccaQbdhz.s 			page 13


 208:Src/main.c    ****   RCC_ClkInitStruct.APB2CLKDivider = RCC_HCLK_DIV2;
 261              		.loc 1 208 36 is_stmt 0 view .LVU77
 262 0078 4FF4A053 		mov	r3, #5120
 263 007c 0693     		str	r3, [sp, #24]
 209:Src/main.c    **** 
 264              		.loc 1 209 3 is_stmt 1 view .LVU78
 209:Src/main.c    **** 
 265              		.loc 1 209 36 is_stmt 0 view .LVU79
 266 007e 4FF48053 		mov	r3, #4096
 267 0082 0793     		str	r3, [sp, #28]
 211:Src/main.c    ****   {
 268              		.loc 1 211 3 is_stmt 1 view .LVU80
 211:Src/main.c    ****   {
 269              		.loc 1 211 7 is_stmt 0 view .LVU81
 270 0084 0521     		movs	r1, #5
 271 0086 03A8     		add	r0, sp, #12
 272 0088 FFF7FEFF 		bl	HAL_RCC_ClockConfig
 273              	.LVL3:
 211:Src/main.c    ****   {
 274              		.loc 1 211 6 view .LVU82
 275 008c 20B9     		cbnz	r0, .L15
 215:Src/main.c    **** 
 276              		.loc 1 215 1 view .LVU83
 277 008e 15B0     		add	sp, sp, #84
 278              	.LCFI3:
 279              		.cfi_remember_state
 280              		.cfi_def_cfa_offset 4
 281              		@ sp needed
 282 0090 5DF804FB 		ldr	pc, [sp], #4
 283              	.L14:
 284              	.LCFI4:
 285              		.cfi_restore_state
 199:Src/main.c    ****   }
 286              		.loc 1 199 5 is_stmt 1 view .LVU84
 287 0094 FFF7FEFF 		bl	Error_Handler
 288              	.LVL4:
 289              	.L15:
 213:Src/main.c    ****   }
 290              		.loc 1 213 5 view .LVU85
 291 0098 FFF7FEFF 		bl	Error_Handler
 292              	.LVL5:
 293              	.L17:
 294              		.align	2
 295              	.L16:
 296 009c 00380240 		.word	1073887232
 297 00a0 00700040 		.word	1073770496
 298              		.cfi_endproc
 299              	.LFE237:
 301              		.section	.rodata.main.str1.4,"aMS",%progbits,1
 302              		.align	2
 303              	.LC0:
 304 0000 46343035 		.ascii	"F405 Hello world\015\012\000"
 304      2048656C 
 304      6C6F2077 
 304      6F726C64 
 304      0D0A00
 305              		.section	.text.main,"ax",%progbits
ARM GAS  C:\Users\57308\AppData\Local\Temp\ccaQbdhz.s 			page 14


 306              		.align	1
 307              		.global	main
 308              		.syntax unified
 309              		.thumb
 310              		.thumb_func
 312              	main:
 313              	.LFB236:
 119:Src/main.c    ****   /* USER CODE BEGIN 1 */
 314              		.loc 1 119 1 view -0
 315              		.cfi_startproc
 316              		@ Volatile: function does not return.
 317              		@ args = 0, pretend = 0, frame = 0
 318              		@ frame_needed = 0, uses_anonymous_args = 0
 319 0000 08B5     		push	{r3, lr}
 320              	.LCFI5:
 321              		.cfi_def_cfa_offset 8
 322              		.cfi_offset 3, -8
 323              		.cfi_offset 14, -4
 127:Src/main.c    **** 
 324              		.loc 1 127 3 view .LVU87
 325 0002 FFF7FEFF 		bl	HAL_Init
 326              	.LVL6:
 134:Src/main.c    **** 
 327              		.loc 1 134 3 view .LVU88
 328 0006 FFF7FEFF 		bl	SystemClock_Config
 329              	.LVL7:
 141:Src/main.c    ****   MX_DMA_Init();
 330              		.loc 1 141 3 view .LVU89
 331 000a FFF7FEFF 		bl	MX_GPIO_Init
 332              	.LVL8:
 142:Src/main.c    ****   MX_SPI3_Init();
 333              		.loc 1 142 3 view .LVU90
 334 000e FFF7FEFF 		bl	MX_DMA_Init
 335              	.LVL9:
 143:Src/main.c    ****   MX_TIM1_Init();
 336              		.loc 1 143 3 view .LVU91
 337 0012 FFF7FEFF 		bl	MX_SPI3_Init
 338              	.LVL10:
 144:Src/main.c    ****   MX_ADC2_Init();
 339              		.loc 1 144 3 view .LVU92
 340 0016 FFF7FEFF 		bl	MX_TIM1_Init
 341              	.LVL11:
 145:Src/main.c    ****   MX_USART2_UART_Init();
 342              		.loc 1 145 3 view .LVU93
 343 001a FFF7FEFF 		bl	MX_ADC2_Init
 344              	.LVL12:
 146:Src/main.c    ****   /* USER CODE BEGIN 2 */
 345              		.loc 1 146 3 view .LVU94
 346 001e FFF7FEFF 		bl	MX_USART2_UART_Init
 347              	.LVL13:
 148:Src/main.c    ****   USER_DEBUG_NORMAL("F405 Hello world\r\n");
 348              		.loc 1 148 3 view .LVU95
 349 0022 FFF7FEFF 		bl	User_Printf_Init
 350              	.LVL14:
 149:Src/main.c    ****   hw_init();
 351              		.loc 1 149 3 view .LVU96
 352 0026 0B49     		ldr	r1, .L21
ARM GAS  C:\Users\57308\AppData\Local\Temp\ccaQbdhz.s 			page 15


 353 0028 0020     		movs	r0, #0
 354 002a FFF7FEFF 		bl	SEGGER_RTT_printf
 355              	.LVL15:
 150:Src/main.c    ****   protocol_init();
 356              		.loc 1 150 3 view .LVU97
 357 002e FFF7FEFF 		bl	hw_init
 358              	.LVL16:
 151:Src/main.c    **** 
 359              		.loc 1 151 3 view .LVU98
 360 0032 FFF7FEFF 		bl	protocol_init
 361              	.LVL17:
 153:Src/main.c    ****   /* USER CODE END 2 */
 362              		.loc 1 153 3 view .LVU99
 363 0036 40F2DC50 		movw	r0, #1500
 364 003a FFF7FEFF 		bl	HAL_Delay
 365              	.LVL18:
 366              	.L19:
 158:Src/main.c    ****   {
 367              		.loc 1 158 3 discriminator 1 view .LVU100
 160:Src/main.c    ****     sysrunning_process();
 368              		.loc 1 160 5 discriminator 1 view .LVU101
 369 003e 0120     		movs	r0, #1
 370 0040 FFF7FEFF 		bl	HAL_Delay
 371              	.LVL19:
 161:Src/main.c    ****     hw_sensor_process();
 372              		.loc 1 161 5 discriminator 1 view .LVU102
 373 0044 FFF7FEFF 		bl	sysrunning_process
 374              	.LVL20:
 162:Src/main.c    ****     motortctrl_process();    
 375              		.loc 1 162 5 discriminator 1 view .LVU103
 376 0048 FFF7FEFF 		bl	hw_sensor_process
 377              	.LVL21:
 163:Src/main.c    ****     /* USER CODE END WHILE */
 378              		.loc 1 163 5 discriminator 1 view .LVU104
 379 004c FFF7FEFF 		bl	motortctrl_process
 380              	.LVL22:
 158:Src/main.c    ****   {
 381              		.loc 1 158 9 discriminator 1 view .LVU105
 382 0050 F5E7     		b	.L19
 383              	.L22:
 384 0052 00BF     		.align	2
 385              	.L21:
 386 0054 00000000 		.word	.LC0
 387              		.cfi_endproc
 388              	.LFE236:
 390              		.section	.bss.sg_SYSRuning,"aw",%nobits
 391              		.align	2
 392              		.set	.LANCHOR0,. + 0
 395              	sg_SYSRuning:
 396 0000 00000000 		.space	8
 396      00000000 
 397              		.weak	User_Printf_Init
 398              		.text
 399              	.Letext0:
 400              		.file 3 "d:\\program files\\gcc-arm-none-eabi-10.3-2021.10\\arm-none-eabi\\include\\machine\\_defa
 401              		.file 4 "d:\\program files\\gcc-arm-none-eabi-10.3-2021.10\\arm-none-eabi\\include\\sys\\_stdint.h
 402              		.file 5 "Drivers/CMSIS/Device/ST/STM32F4xx/Include/stm32f405xx.h"
ARM GAS  C:\Users\57308\AppData\Local\Temp\ccaQbdhz.s 			page 16


 403              		.file 6 "Drivers/STM32F4xx_HAL_Driver/Inc/stm32f4xx_hal_rcc_ex.h"
 404              		.file 7 "Drivers/STM32F4xx_HAL_Driver/Inc/stm32f4xx_hal_rcc.h"
 405              		.file 8 "Drivers/STM32F4xx_HAL_Driver/Inc/stm32f4xx_hal_def.h"
 406              		.file 9 "Drivers/STM32F4xx_HAL_Driver/Inc/stm32f4xx_hal.h"
 407              		.file 10 "Inc/gpio.h"
 408              		.file 11 "Inc/dma.h"
 409              		.file 12 "Inc/spi.h"
 410              		.file 13 "Inc/tim.h"
 411              		.file 14 "Inc/adc.h"
 412              		.file 15 "Inc/usart.h"
 413              		.file 16 "../Common/debuglog/debuglog.h"
 414              		.file 17 "../Common/debuglog/SEGGER_RTT_V792h/RTT/SEGGER_RTT.h"
 415              		.file 18 "./Hardware/hardware.h"
 416              		.file 19 "../protocol/protocol.h"
 417              		.file 20 "../BLDCMotor/motorctrl.h"
 418              		.file 21 "Drivers/STM32F4xx_HAL_Driver/Inc/stm32f4xx_hal_gpio.h"
 419              		.file 22 "<built-in>"
ARM GAS  C:\Users\57308\AppData\Local\Temp\ccaQbdhz.s 			page 17

