ARM GAS  C:\Users\57308\AppData\Local\Temp\cc3Asqm8.s 			page 1


   1              		.cpu cortex-m4
   2              		.arch armv7e-m
   3              		.fpu fpv4-sp-d16
   4              		.eabi_attribute 27, 1
   5              		.eabi_attribute 28, 1
   6              		.eabi_attribute 20, 1
   7              		.eabi_attribute 21, 1
   8              		.eabi_attribute 23, 3
   9              		.eabi_attribute 24, 1
  10              		.eabi_attribute 25, 1
  11              		.eabi_attribute 26, 1
  12              		.eabi_attribute 30, 1
  13              		.eabi_attribute 34, 1
  14              		.eabi_attribute 18, 4
  15              		.file	"motor_protocol.c"
  16              		.text
  17              	.Ltext0:
  18              		.cfi_sections	.debug_frame
  19              		.section	.text._set_motorstart,"ax",%progbits
  20              		.align	1
  21              		.syntax unified
  22              		.thumb
  23              		.thumb_func
  25              	_set_motorstart:
  26              	.LVL0:
  27              	.LFB245:
  28              		.file 1 "../BLDCMotor/motor_protocol.c"
   1:../BLDCMotor/motor_protocol.c **** 
   2:../BLDCMotor/motor_protocol.c **** /*
   3:../BLDCMotor/motor_protocol.c **** mc_tar_speed:200.0f  
   4:../BLDCMotor/motor_protocol.c **** mc_tar_id0.5f
   5:../BLDCMotor/motor_protocol.c **** mc_tar_iq:0.8f
   6:../BLDCMotor/motor_protocol.c **** 
   7:../BLDCMotor/motor_protocol.c **** */
   8:../BLDCMotor/motor_protocol.c **** #include "motorctrl_common.h"
   9:../BLDCMotor/motor_protocol.c **** #include "motor_protocol.h"
  10:../BLDCMotor/motor_protocol.c **** #include "protocol.h"
  11:../BLDCMotor/motor_protocol.c **** #include "board.h"
  12:../BLDCMotor/motor_protocol.c **** #include "string.h"
  13:../BLDCMotor/motor_protocol.c **** #include "stdio.h"
  14:../BLDCMotor/motor_protocol.c **** #include "stdint.h"
  15:../BLDCMotor/motor_protocol.c **** #include <stdlib.h>  
  16:../BLDCMotor/motor_protocol.c **** #include <ctype.h> // for isspace()  
  17:../BLDCMotor/motor_protocol.c **** 
  18:../BLDCMotor/motor_protocol.c **** 
  19:../BLDCMotor/motor_protocol.c **** 
  20:../BLDCMotor/motor_protocol.c **** 
  21:../BLDCMotor/motor_protocol.c **** 
  22:../BLDCMotor/motor_protocol.c **** static void* _set_tarid(char *str,int32_t id);
  23:../BLDCMotor/motor_protocol.c **** static void* _set_tariq(char *str,int32_t iq);
  24:../BLDCMotor/motor_protocol.c **** static void* _set_motorstop(char *str,int32_t iq);
  25:../BLDCMotor/motor_protocol.c **** static void* _set_motorstart(char *str,int32_t iq);
  26:../BLDCMotor/motor_protocol.c **** static void* _set_d_kp(char *str,int32_t kp);
  27:../BLDCMotor/motor_protocol.c **** static void* _set_d_ki(char *str,int32_t ki);
  28:../BLDCMotor/motor_protocol.c **** static void* _set_pidpara_cmd(char *str,int32_t param);
  29:../BLDCMotor/motor_protocol.c **** static void* _set_tarspeed(char *str,int32_t iq);
  30:../BLDCMotor/motor_protocol.c **** 
ARM GAS  C:\Users\57308\AppData\Local\Temp\cc3Asqm8.s 			page 2


  31:../BLDCMotor/motor_protocol.c **** static int _findF_from_str(const char *str, float *val) ;
  32:../BLDCMotor/motor_protocol.c **** static unsigned short _findcmd_from_map(const char *str, const commandmap_t *map, size_t mapSize);
  33:../BLDCMotor/motor_protocol.c ****  
  34:../BLDCMotor/motor_protocol.c **** // 命令映射表  
  35:../BLDCMotor/motor_protocol.c **** commandmap_t sg_commandmap[] = {  
  36:../BLDCMotor/motor_protocol.c ****     {"mc_tar_speed",    1,   NULL,                NULL},  
  37:../BLDCMotor/motor_protocol.c ****     {"mc_tar_id",       2,   _set_tarid,          NULL},  
  38:../BLDCMotor/motor_protocol.c ****     {"mc_tar_iq",       3,   _set_tariq,          NULL},
  39:../BLDCMotor/motor_protocol.c ****     {"motor_stop",      4,   _set_motorstop,      "motor state stop"},
  40:../BLDCMotor/motor_protocol.c ****     {"motor_start",     5,   _set_motorstart,     "motor state runing"},
  41:../BLDCMotor/motor_protocol.c ****     {"mc_setd_kp",      6,   _set_d_kp,           NULL},
  42:../BLDCMotor/motor_protocol.c ****     {"mc_setd_ki",      7,   _set_d_ki,           NULL},
  43:../BLDCMotor/motor_protocol.c ****     {"mc_pid_paraset",  8,   _set_pidpara_cmd,    NULL},
  44:../BLDCMotor/motor_protocol.c ****     {"mc_tar_speed",    9,   _set_tarspeed,       NULL},
  45:../BLDCMotor/motor_protocol.c **** 
  46:../BLDCMotor/motor_protocol.c **** };
  47:../BLDCMotor/motor_protocol.c **** static char *Rx_Buf[62] = {0};
  48:../BLDCMotor/motor_protocol.c **** void motorprotocol_getdata(char *data)
  49:../BLDCMotor/motor_protocol.c **** {
  50:../BLDCMotor/motor_protocol.c ****     strcpy(Rx_Buf,data);
  51:../BLDCMotor/motor_protocol.c **** }
  52:../BLDCMotor/motor_protocol.c **** 
  53:../BLDCMotor/motor_protocol.c **** void motorprotocol_pause(char *cmd)
  54:../BLDCMotor/motor_protocol.c **** {
  55:../BLDCMotor/motor_protocol.c ****     float value =0.0f;
  56:../BLDCMotor/motor_protocol.c ****     unsigned short cmd_ID;
  57:../BLDCMotor/motor_protocol.c ****     if (cmd[0] == 0 && cmd[1] == 0)
  58:../BLDCMotor/motor_protocol.c ****     {
  59:../BLDCMotor/motor_protocol.c ****         return;
  60:../BLDCMotor/motor_protocol.c ****     }
  61:../BLDCMotor/motor_protocol.c ****     const size_t mapSize = sizeof(sg_commandmap) / sizeof(sg_commandmap[0]); 
  62:../BLDCMotor/motor_protocol.c ****     cmd_ID = _findcmd_from_map(cmd,sg_commandmap,mapSize);    
  63:../BLDCMotor/motor_protocol.c **** }
  64:../BLDCMotor/motor_protocol.c **** 
  65:../BLDCMotor/motor_protocol.c **** void motorprotocol_process(void)
  66:../BLDCMotor/motor_protocol.c **** {   
  67:../BLDCMotor/motor_protocol.c ****     motorprotocol_pause(Rx_Buf);
  68:../BLDCMotor/motor_protocol.c ****     memset(Rx_Buf, 0, sizeof(Rx_Buf));
  69:../BLDCMotor/motor_protocol.c **** }
  70:../BLDCMotor/motor_protocol.c **** void motorprotocol_tramit(char *pstr,uint16_t len)
  71:../BLDCMotor/motor_protocol.c **** {
  72:../BLDCMotor/motor_protocol.c ****     _bsp_protransmit((unsigned char *)pstr,len);
  73:../BLDCMotor/motor_protocol.c **** }
  74:../BLDCMotor/motor_protocol.c **** static void* _set_d_kp(char *str,int32_t kp)
  75:../BLDCMotor/motor_protocol.c **** {
  76:../BLDCMotor/motor_protocol.c ****     float val = 0.0f;
  77:../BLDCMotor/motor_protocol.c ****     if (!_findF_from_str(str,&val))
  78:../BLDCMotor/motor_protocol.c ****     {
  79:../BLDCMotor/motor_protocol.c ****         return 0;
  80:../BLDCMotor/motor_protocol.c ****     }
  81:../BLDCMotor/motor_protocol.c ****     motordebug.pid_d_kp = val;
  82:../BLDCMotor/motor_protocol.c ****     return 0;    
  83:../BLDCMotor/motor_protocol.c **** }
  84:../BLDCMotor/motor_protocol.c **** static void* _set_d_ki(char *str,int32_t ki)
  85:../BLDCMotor/motor_protocol.c **** {
  86:../BLDCMotor/motor_protocol.c ****     float val = 0.0f;            
  87:../BLDCMotor/motor_protocol.c ****     if (!_findF_from_str(str,&val))
ARM GAS  C:\Users\57308\AppData\Local\Temp\cc3Asqm8.s 			page 3


  88:../BLDCMotor/motor_protocol.c ****     {
  89:../BLDCMotor/motor_protocol.c ****         return 0;
  90:../BLDCMotor/motor_protocol.c ****     }  
  91:../BLDCMotor/motor_protocol.c ****     motordebug.pid_d_ki = val;
  92:../BLDCMotor/motor_protocol.c ****     return 0; 
  93:../BLDCMotor/motor_protocol.c **** }
  94:../BLDCMotor/motor_protocol.c **** static void* _set_motorstart(char *str,int32_t iq)
  95:../BLDCMotor/motor_protocol.c **** {
  29              		.loc 1 95 1 view -0
  30              		.cfi_startproc
  31              		@ args = 0, pretend = 0, frame = 0
  32              		@ frame_needed = 0, uses_anonymous_args = 0
  33              		@ link register save eliminated.
  96:../BLDCMotor/motor_protocol.c ****     // motordebug.cur_cmd = "motor start";// sg_commandmap[CMD_SET_START].cmd;
  97:../BLDCMotor/motor_protocol.c ****     motordebug.cur_cmd = sg_commandmap[CMD_SET_START].cmd;
  34              		.loc 1 97 5 view .LVU1
  35              		.loc 1 97 54 is_stmt 0 view .LVU2
  36 0000 034B     		ldr	r3, .L2
  37 0002 1A6C     		ldr	r2, [r3, #64]
  38              		.loc 1 97 24 view .LVU3
  39 0004 034B     		ldr	r3, .L2+4
  40 0006 C3F88420 		str	r2, [r3, #132]
  98:../BLDCMotor/motor_protocol.c ****     return 0;
  41              		.loc 1 98 5 is_stmt 1 view .LVU4
  99:../BLDCMotor/motor_protocol.c **** }
  42              		.loc 1 99 1 is_stmt 0 view .LVU5
  43 000a 0020     		movs	r0, #0
  44              	.LVL1:
  45              		.loc 1 99 1 view .LVU6
  46 000c 7047     		bx	lr
  47              	.L3:
  48 000e 00BF     		.align	2
  49              	.L2:
  50 0010 00000000 		.word	.LANCHOR0
  51 0014 00000000 		.word	motordebug
  52              		.cfi_endproc
  53              	.LFE245:
  55              		.section	.text._set_motorstop,"ax",%progbits
  56              		.align	1
  57              		.syntax unified
  58              		.thumb
  59              		.thumb_func
  61              	_set_motorstop:
  62              	.LVL2:
  63              	.LFB246:
 100:../BLDCMotor/motor_protocol.c **** static void* _set_motorstop(char *str,int32_t iq)
 101:../BLDCMotor/motor_protocol.c **** {
  64              		.loc 1 101 1 is_stmt 1 view -0
  65              		.cfi_startproc
  66              		@ args = 0, pretend = 0, frame = 0
  67              		@ frame_needed = 0, uses_anonymous_args = 0
  68              		@ link register save eliminated.
 102:../BLDCMotor/motor_protocol.c ****     motordebug.cur_cmd = sg_commandmap[CMD_SET_STOP].cmd;
  69              		.loc 1 102 5 view .LVU8
  70              		.loc 1 102 53 is_stmt 0 view .LVU9
  71 0000 034B     		ldr	r3, .L5
  72 0002 1A6B     		ldr	r2, [r3, #48]
ARM GAS  C:\Users\57308\AppData\Local\Temp\cc3Asqm8.s 			page 4


  73              		.loc 1 102 24 view .LVU10
  74 0004 034B     		ldr	r3, .L5+4
  75 0006 C3F88420 		str	r2, [r3, #132]
 103:../BLDCMotor/motor_protocol.c ****     return 0;
  76              		.loc 1 103 5 is_stmt 1 view .LVU11
 104:../BLDCMotor/motor_protocol.c **** }
  77              		.loc 1 104 1 is_stmt 0 view .LVU12
  78 000a 0020     		movs	r0, #0
  79              	.LVL3:
  80              		.loc 1 104 1 view .LVU13
  81 000c 7047     		bx	lr
  82              	.L6:
  83 000e 00BF     		.align	2
  84              	.L5:
  85 0010 00000000 		.word	.LANCHOR0
  86 0014 00000000 		.word	motordebug
  87              		.cfi_endproc
  88              	.LFE246:
  90              		.section	.text._set_pidpara_cmd,"ax",%progbits
  91              		.align	1
  92              		.syntax unified
  93              		.thumb
  94              		.thumb_func
  96              	_set_pidpara_cmd:
  97              	.LVL4:
  98              	.LFB249:
 105:../BLDCMotor/motor_protocol.c **** static void* _set_tarid(char *str,int32_t id)
 106:../BLDCMotor/motor_protocol.c **** {
 107:../BLDCMotor/motor_protocol.c ****     float val = 0.0f;            
 108:../BLDCMotor/motor_protocol.c ****     if (!_findF_from_str(str,&val))
 109:../BLDCMotor/motor_protocol.c ****     {
 110:../BLDCMotor/motor_protocol.c ****         return 0;
 111:../BLDCMotor/motor_protocol.c ****     }
 112:../BLDCMotor/motor_protocol.c ****     motordebug.id_targe = val;
 113:../BLDCMotor/motor_protocol.c ****     return 0;
 114:../BLDCMotor/motor_protocol.c **** } 
 115:../BLDCMotor/motor_protocol.c **** 
 116:../BLDCMotor/motor_protocol.c **** static void* _set_tariq(char *str,int32_t iq)
 117:../BLDCMotor/motor_protocol.c **** {
 118:../BLDCMotor/motor_protocol.c ****     float val = 0.0f;            
 119:../BLDCMotor/motor_protocol.c ****     if (!_findF_from_str(str,&val))
 120:../BLDCMotor/motor_protocol.c ****     {
 121:../BLDCMotor/motor_protocol.c ****         return 0;
 122:../BLDCMotor/motor_protocol.c ****     }
 123:../BLDCMotor/motor_protocol.c ****     motordebug.iq_targe = val;
 124:../BLDCMotor/motor_protocol.c ****     return 0;    
 125:../BLDCMotor/motor_protocol.c **** }
 126:../BLDCMotor/motor_protocol.c **** 
 127:../BLDCMotor/motor_protocol.c **** static void* _set_pidpara_cmd(char *str,int32_t param)
 128:../BLDCMotor/motor_protocol.c **** {
  99              		.loc 1 128 1 is_stmt 1 view -0
 100              		.cfi_startproc
 101              		@ args = 0, pretend = 0, frame = 0
 102              		@ frame_needed = 0, uses_anonymous_args = 0
 103              		@ link register save eliminated.
 129:../BLDCMotor/motor_protocol.c ****     motordebug.motor_stat = 4;
 104              		.loc 1 129 5 view .LVU15
ARM GAS  C:\Users\57308\AppData\Local\Temp\cc3Asqm8.s 			page 5


 105              		.loc 1 129 27 is_stmt 0 view .LVU16
 106 0000 024B     		ldr	r3, .L8
 107 0002 0422     		movs	r2, #4
 108 0004 C3F88020 		str	r2, [r3, #128]
 130:../BLDCMotor/motor_protocol.c ****     return 0;
 109              		.loc 1 130 5 is_stmt 1 view .LVU17
 131:../BLDCMotor/motor_protocol.c **** }
 110              		.loc 1 131 1 is_stmt 0 view .LVU18
 111 0008 0020     		movs	r0, #0
 112              	.LVL5:
 113              		.loc 1 131 1 view .LVU19
 114 000a 7047     		bx	lr
 115              	.L9:
 116              		.align	2
 117              	.L8:
 118 000c 00000000 		.word	motordebug
 119              		.cfi_endproc
 120              	.LFE249:
 122              		.section	.text._findF_from_str,"ax",%progbits
 123              		.align	1
 124              		.syntax unified
 125              		.thumb
 126              		.thumb_func
 128              	_findF_from_str:
 129              	.LVL6:
 130              	.LFB252:
 132:../BLDCMotor/motor_protocol.c **** 
 133:../BLDCMotor/motor_protocol.c **** static void* _set_tarspeed(char *str,int32_t iq)
 134:../BLDCMotor/motor_protocol.c **** {
 135:../BLDCMotor/motor_protocol.c ****     float val = 0.0f;            
 136:../BLDCMotor/motor_protocol.c ****     if (!_findF_from_str(str,&val))
 137:../BLDCMotor/motor_protocol.c ****     {
 138:../BLDCMotor/motor_protocol.c ****         return 0;
 139:../BLDCMotor/motor_protocol.c ****     }
 140:../BLDCMotor/motor_protocol.c ****     motordebug.speed_targe = val;
 141:../BLDCMotor/motor_protocol.c ****     return 0; 
 142:../BLDCMotor/motor_protocol.c **** }
 143:../BLDCMotor/motor_protocol.c **** // 查找命令的函数  
 144:../BLDCMotor/motor_protocol.c **** static unsigned short _findcmd_from_map(const char *str, const commandmap_t *map, size_t mapSize) {
 145:../BLDCMotor/motor_protocol.c ****     if (str == NULL) {  
 146:../BLDCMotor/motor_protocol.c ****         return 0; // 如果传入的字符串为空，则返回0表示不匹配  
 147:../BLDCMotor/motor_protocol.c ****     }  
 148:../BLDCMotor/motor_protocol.c ****       
 149:../BLDCMotor/motor_protocol.c ****     for (size_t i = 0; i < mapSize; ++i) {  
 150:../BLDCMotor/motor_protocol.c ****         // 使用strncmp比较直到遇到冒号或字符串结束  
 151:../BLDCMotor/motor_protocol.c ****         size_t cmdLen = strlen(map[i].cmd);  
 152:../BLDCMotor/motor_protocol.c ****         if (strncmp(str, map[i].cmd, cmdLen) == 0 && str[cmdLen] == ':') { 
 153:../BLDCMotor/motor_protocol.c **** 
 154:../BLDCMotor/motor_protocol.c ****             if (!map[i].pf_cmdexcue)
 155:../BLDCMotor/motor_protocol.c ****             {
 156:../BLDCMotor/motor_protocol.c ****                 return 0;
 157:../BLDCMotor/motor_protocol.c ****             }
 158:../BLDCMotor/motor_protocol.c **** 
 159:../BLDCMotor/motor_protocol.c ****             map[i].pf_cmdexcue(str,0);
 160:../BLDCMotor/motor_protocol.c ****             return map[i].cmd_index; // 找到匹配项，返回对应值  
 161:../BLDCMotor/motor_protocol.c ****         }
 162:../BLDCMotor/motor_protocol.c ****     }
ARM GAS  C:\Users\57308\AppData\Local\Temp\cc3Asqm8.s 			page 6


 163:../BLDCMotor/motor_protocol.c ****     return 0; // 未找到匹配项，返回0  
 164:../BLDCMotor/motor_protocol.c **** }  
 165:../BLDCMotor/motor_protocol.c **** 
 166:../BLDCMotor/motor_protocol.c **** static int _findF_from_str(const char *str, float *val) {  
 131              		.loc 1 166 57 is_stmt 1 view -0
 132              		.cfi_startproc
 133              		@ args = 0, pretend = 0, frame = 8
 134              		@ frame_needed = 0, uses_anonymous_args = 0
 167:../BLDCMotor/motor_protocol.c ****     if (str == NULL || val == NULL) {  
 135              		.loc 1 167 5 view .LVU21
 136              		.loc 1 167 8 is_stmt 0 view .LVU22
 137 0000 38B3     		cbz	r0, .L15
 166:../BLDCMotor/motor_protocol.c ****     if (str == NULL || val == NULL) {  
 138              		.loc 1 166 57 discriminator 1 view .LVU23
 139 0002 30B5     		push	{r4, r5, lr}
 140              	.LCFI0:
 141              		.cfi_def_cfa_offset 12
 142              		.cfi_offset 4, -12
 143              		.cfi_offset 5, -8
 144              		.cfi_offset 14, -4
 145 0004 83B0     		sub	sp, sp, #12
 146              	.LCFI1:
 147              		.cfi_def_cfa_offset 24
 148 0006 0D46     		mov	r5, r1
 149              		.loc 1 167 21 discriminator 1 view .LVU24
 150 0008 29B3     		cbz	r1, .L16
 168:../BLDCMotor/motor_protocol.c ****         return 0; // Invalid arguments  
 169:../BLDCMotor/motor_protocol.c ****     }  
 170:../BLDCMotor/motor_protocol.c ****   
 171:../BLDCMotor/motor_protocol.c ****     const char *colonPos = strchr(str, ':'); // Find the colon in the string  
 151              		.loc 1 171 5 is_stmt 1 view .LVU25
 152              		.loc 1 171 28 is_stmt 0 view .LVU26
 153 000a 3A21     		movs	r1, #58
 154              	.LVL7:
 155              		.loc 1 171 28 view .LVU27
 156 000c FFF7FEFF 		bl	strchr
 157              	.LVL8:
 172:../BLDCMotor/motor_protocol.c ****     if (colonPos == NULL || *(colonPos + 1) == '\0') {  
 158              		.loc 1 172 5 is_stmt 1 view .LVU28
 159              		.loc 1 172 8 is_stmt 0 view .LVU29
 160 0010 0446     		mov	r4, r0
 161 0012 10B3     		cbz	r0, .L17
 162              		.loc 1 172 29 discriminator 1 view .LVU30
 163 0014 4378     		ldrb	r3, [r0, #1]	@ zero_extendqisi2
 164              		.loc 1 172 26 discriminator 1 view .LVU31
 165 0016 13B3     		cbz	r3, .L18
 173:../BLDCMotor/motor_protocol.c ****         return 0; // No colon found or no characters after colon  
 174:../BLDCMotor/motor_protocol.c ****     }  
 175:../BLDCMotor/motor_protocol.c ****   
 176:../BLDCMotor/motor_protocol.c ****     // Skip the colon and any following whitespace  
 177:../BLDCMotor/motor_protocol.c ****     const char *numStart = colonPos + 1;  
 166              		.loc 1 177 5 is_stmt 1 view .LVU32
 167              		.loc 1 177 17 is_stmt 0 view .LVU33
 168 0018 0134     		adds	r4, r4, #1
 169              	.LVL9:
 178:../BLDCMotor/motor_protocol.c ****     while (isspace((unsigned char)*numStart)) {  
 170              		.loc 1 178 5 is_stmt 1 view .LVU34
ARM GAS  C:\Users\57308\AppData\Local\Temp\cc3Asqm8.s 			page 7


 171              		.loc 1 178 11 is_stmt 0 view .LVU35
 172 001a 00E0     		b	.L12
 173              	.L13:
 179:../BLDCMotor/motor_protocol.c ****         numStart++;  
 174              		.loc 1 179 9 is_stmt 1 view .LVU36
 175              		.loc 1 179 17 is_stmt 0 view .LVU37
 176 001c 0134     		adds	r4, r4, #1
 177              	.LVL10:
 178              	.L12:
 178:../BLDCMotor/motor_protocol.c ****     while (isspace((unsigned char)*numStart)) {  
 179              		.loc 1 178 11 is_stmt 1 view .LVU38
 178:../BLDCMotor/motor_protocol.c ****     while (isspace((unsigned char)*numStart)) {  
 180              		.loc 1 178 12 is_stmt 0 view .LVU39
 181 001e 2278     		ldrb	r2, [r4]	@ zero_extendqisi2
 182 0020 114B     		ldr	r3, .L25
 183 0022 D35C     		ldrb	r3, [r2, r3]	@ zero_extendqisi2
 178:../BLDCMotor/motor_protocol.c ****     while (isspace((unsigned char)*numStart)) {  
 184              		.loc 1 178 11 view .LVU40
 185 0024 13F0080F 		tst	r3, #8
 186 0028 F8D1     		bne	.L13
 180:../BLDCMotor/motor_protocol.c ****     }  
 181:../BLDCMotor/motor_protocol.c ****   
 182:../BLDCMotor/motor_protocol.c ****     // Attempt to parse the number  
 183:../BLDCMotor/motor_protocol.c ****     char *endPtr;  
 187              		.loc 1 183 5 is_stmt 1 view .LVU41
 184:../BLDCMotor/motor_protocol.c ****     float parsedValue = strtof(numStart, &endPtr);  
 188              		.loc 1 184 5 view .LVU42
 189              		.loc 1 184 25 is_stmt 0 view .LVU43
 190 002a 01A9     		add	r1, sp, #4
 191 002c 2046     		mov	r0, r4
 192              	.LVL11:
 193              		.loc 1 184 25 view .LVU44
 194 002e FFF7FEFF 		bl	strtof
 195              	.LVL12:
 185:../BLDCMotor/motor_protocol.c ****   
 186:../BLDCMotor/motor_protocol.c ****     // Check if a valid number was parsed  
 187:../BLDCMotor/motor_protocol.c ****     if (endPtr != numStart && (*endPtr == '\0' || isspace((unsigned char)*endPtr))) {  
 196              		.loc 1 187 5 is_stmt 1 view .LVU45
 197              		.loc 1 187 16 is_stmt 0 view .LVU46
 198 0032 019B     		ldr	r3, [sp, #4]
 199              		.loc 1 187 8 view .LVU47
 200 0034 A342     		cmp	r3, r4
 201 0036 15D0     		beq	.L19
 202              		.loc 1 187 32 discriminator 1 view .LVU48
 203 0038 1B78     		ldrb	r3, [r3]	@ zero_extendqisi2
 204              		.loc 1 187 28 discriminator 1 view .LVU49
 205 003a 33B1     		cbz	r3, .L14
 206              		.loc 1 187 51 discriminator 2 view .LVU50
 207 003c 0A4A     		ldr	r2, .L25
 208 003e 9B5C     		ldrb	r3, [r3, r2]	@ zero_extendqisi2
 209              		.loc 1 187 48 discriminator 2 view .LVU51
 210 0040 13F0080F 		tst	r3, #8
 211 0044 01D1     		bne	.L14
 188:../BLDCMotor/motor_protocol.c ****         *val = parsedValue;  
 189:../BLDCMotor/motor_protocol.c ****         return 1; // Success  
 190:../BLDCMotor/motor_protocol.c ****     }
 191:../BLDCMotor/motor_protocol.c ****   
ARM GAS  C:\Users\57308\AppData\Local\Temp\cc3Asqm8.s 			page 8


 192:../BLDCMotor/motor_protocol.c ****     return 0; // Failure: no valid number found or trailing non-whitespace characters  
 212              		.loc 1 192 12 view .LVU52
 213 0046 0020     		movs	r0, #0
 214 0048 0AE0     		b	.L10
 215              	.L14:
 188:../BLDCMotor/motor_protocol.c ****         *val = parsedValue;  
 216              		.loc 1 188 9 is_stmt 1 view .LVU53
 188:../BLDCMotor/motor_protocol.c ****         *val = parsedValue;  
 217              		.loc 1 188 14 is_stmt 0 view .LVU54
 218 004a 85ED000A 		vstr.32	s0, [r5]
 189:../BLDCMotor/motor_protocol.c ****     }
 219              		.loc 1 189 9 is_stmt 1 view .LVU55
 189:../BLDCMotor/motor_protocol.c ****     }
 220              		.loc 1 189 16 is_stmt 0 view .LVU56
 221 004e 0120     		movs	r0, #1
 222 0050 06E0     		b	.L10
 223              	.LVL13:
 224              	.L15:
 225              	.LCFI2:
 226              		.cfi_def_cfa_offset 0
 227              		.cfi_restore 4
 228              		.cfi_restore 5
 229              		.cfi_restore 14
 168:../BLDCMotor/motor_protocol.c ****     }  
 230              		.loc 1 168 16 view .LVU57
 231 0052 0020     		movs	r0, #0
 232              	.LVL14:
 193:../BLDCMotor/motor_protocol.c **** }  
 233              		.loc 1 193 1 view .LVU58
 234 0054 7047     		bx	lr
 235              	.LVL15:
 236              	.L16:
 237              	.LCFI3:
 238              		.cfi_def_cfa_offset 24
 239              		.cfi_offset 4, -12
 240              		.cfi_offset 5, -8
 241              		.cfi_offset 14, -4
 168:../BLDCMotor/motor_protocol.c ****     }  
 242              		.loc 1 168 16 view .LVU59
 243 0056 0020     		movs	r0, #0
 244              	.LVL16:
 168:../BLDCMotor/motor_protocol.c ****     }  
 245              		.loc 1 168 16 view .LVU60
 246 0058 02E0     		b	.L10
 247              	.LVL17:
 248              	.L17:
 173:../BLDCMotor/motor_protocol.c ****     }  
 249              		.loc 1 173 16 view .LVU61
 250 005a 0020     		movs	r0, #0
 251              	.LVL18:
 173:../BLDCMotor/motor_protocol.c ****     }  
 252              		.loc 1 173 16 view .LVU62
 253 005c 00E0     		b	.L10
 254              	.LVL19:
 255              	.L18:
 173:../BLDCMotor/motor_protocol.c ****     }  
 256              		.loc 1 173 16 view .LVU63
ARM GAS  C:\Users\57308\AppData\Local\Temp\cc3Asqm8.s 			page 9


 257 005e 0020     		movs	r0, #0
 258              	.LVL20:
 259              	.L10:
 260              		.loc 1 193 1 view .LVU64
 261 0060 03B0     		add	sp, sp, #12
 262              	.LCFI4:
 263              		.cfi_remember_state
 264              		.cfi_def_cfa_offset 12
 265              		@ sp needed
 266 0062 30BD     		pop	{r4, r5, pc}
 267              	.LVL21:
 268              	.L19:
 269              	.LCFI5:
 270              		.cfi_restore_state
 192:../BLDCMotor/motor_protocol.c **** }  
 271              		.loc 1 192 12 view .LVU65
 272 0064 0020     		movs	r0, #0
 273 0066 FBE7     		b	.L10
 274              	.L26:
 275              		.align	2
 276              	.L25:
 277 0068 01000000 		.word	_ctype_+1
 278              		.cfi_endproc
 279              	.LFE252:
 281              		.section	.text._set_tarspeed,"ax",%progbits
 282              		.align	1
 283              		.syntax unified
 284              		.thumb
 285              		.thumb_func
 287              	_set_tarspeed:
 288              	.LVL22:
 289              	.LFB250:
 134:../BLDCMotor/motor_protocol.c ****     float val = 0.0f;            
 290              		.loc 1 134 1 is_stmt 1 view -0
 291              		.cfi_startproc
 292              		@ args = 0, pretend = 0, frame = 8
 293              		@ frame_needed = 0, uses_anonymous_args = 0
 134:../BLDCMotor/motor_protocol.c ****     float val = 0.0f;            
 294              		.loc 1 134 1 is_stmt 0 view .LVU67
 295 0000 00B5     		push	{lr}
 296              	.LCFI6:
 297              		.cfi_def_cfa_offset 4
 298              		.cfi_offset 14, -4
 299 0002 83B0     		sub	sp, sp, #12
 300              	.LCFI7:
 301              		.cfi_def_cfa_offset 16
 135:../BLDCMotor/motor_protocol.c ****     if (!_findF_from_str(str,&val))
 302              		.loc 1 135 5 is_stmt 1 view .LVU68
 135:../BLDCMotor/motor_protocol.c ****     if (!_findF_from_str(str,&val))
 303              		.loc 1 135 11 is_stmt 0 view .LVU69
 304 0004 0023     		movs	r3, #0
 305 0006 0193     		str	r3, [sp, #4]	@ float
 136:../BLDCMotor/motor_protocol.c ****     {
 306              		.loc 1 136 5 is_stmt 1 view .LVU70
 136:../BLDCMotor/motor_protocol.c ****     {
 307              		.loc 1 136 10 is_stmt 0 view .LVU71
 308 0008 01A9     		add	r1, sp, #4
ARM GAS  C:\Users\57308\AppData\Local\Temp\cc3Asqm8.s 			page 10


 309              	.LVL23:
 136:../BLDCMotor/motor_protocol.c ****     {
 310              		.loc 1 136 10 view .LVU72
 311 000a FFF7FEFF 		bl	_findF_from_str
 312              	.LVL24:
 136:../BLDCMotor/motor_protocol.c ****     {
 313              		.loc 1 136 8 view .LVU73
 314 000e 10B1     		cbz	r0, .L28
 140:../BLDCMotor/motor_protocol.c ****     return 0; 
 315              		.loc 1 140 5 is_stmt 1 view .LVU74
 140:../BLDCMotor/motor_protocol.c ****     return 0; 
 316              		.loc 1 140 28 is_stmt 0 view .LVU75
 317 0010 034B     		ldr	r3, .L30
 318 0012 019A     		ldr	r2, [sp, #4]	@ float
 319 0014 5A65     		str	r2, [r3, #84]	@ float
 141:../BLDCMotor/motor_protocol.c **** }
 320              		.loc 1 141 5 is_stmt 1 view .LVU76
 321              	.L28:
 142:../BLDCMotor/motor_protocol.c **** // 查找命令的函数  
 322              		.loc 1 142 1 is_stmt 0 view .LVU77
 323 0016 0020     		movs	r0, #0
 324 0018 03B0     		add	sp, sp, #12
 325              	.LCFI8:
 326              		.cfi_def_cfa_offset 4
 327              		@ sp needed
 328 001a 5DF804FB 		ldr	pc, [sp], #4
 329              	.L31:
 330 001e 00BF     		.align	2
 331              	.L30:
 332 0020 00000000 		.word	motordebug
 333              		.cfi_endproc
 334              	.LFE250:
 336              		.section	.text._set_d_ki,"ax",%progbits
 337              		.align	1
 338              		.syntax unified
 339              		.thumb
 340              		.thumb_func
 342              	_set_d_ki:
 343              	.LVL25:
 344              	.LFB244:
  85:../BLDCMotor/motor_protocol.c ****     float val = 0.0f;            
 345              		.loc 1 85 1 is_stmt 1 view -0
 346              		.cfi_startproc
 347              		@ args = 0, pretend = 0, frame = 8
 348              		@ frame_needed = 0, uses_anonymous_args = 0
  85:../BLDCMotor/motor_protocol.c ****     float val = 0.0f;            
 349              		.loc 1 85 1 is_stmt 0 view .LVU79
 350 0000 00B5     		push	{lr}
 351              	.LCFI9:
 352              		.cfi_def_cfa_offset 4
 353              		.cfi_offset 14, -4
 354 0002 83B0     		sub	sp, sp, #12
 355              	.LCFI10:
 356              		.cfi_def_cfa_offset 16
  86:../BLDCMotor/motor_protocol.c ****     if (!_findF_from_str(str,&val))
 357              		.loc 1 86 5 is_stmt 1 view .LVU80
  86:../BLDCMotor/motor_protocol.c ****     if (!_findF_from_str(str,&val))
ARM GAS  C:\Users\57308\AppData\Local\Temp\cc3Asqm8.s 			page 11


 358              		.loc 1 86 11 is_stmt 0 view .LVU81
 359 0004 0023     		movs	r3, #0
 360 0006 0193     		str	r3, [sp, #4]	@ float
  87:../BLDCMotor/motor_protocol.c ****     {
 361              		.loc 1 87 5 is_stmt 1 view .LVU82
  87:../BLDCMotor/motor_protocol.c ****     {
 362              		.loc 1 87 10 is_stmt 0 view .LVU83
 363 0008 01A9     		add	r1, sp, #4
 364              	.LVL26:
  87:../BLDCMotor/motor_protocol.c ****     {
 365              		.loc 1 87 10 view .LVU84
 366 000a FFF7FEFF 		bl	_findF_from_str
 367              	.LVL27:
  87:../BLDCMotor/motor_protocol.c ****     {
 368              		.loc 1 87 8 view .LVU85
 369 000e 10B1     		cbz	r0, .L33
  91:../BLDCMotor/motor_protocol.c ****     return 0; 
 370              		.loc 1 91 5 is_stmt 1 view .LVU86
  91:../BLDCMotor/motor_protocol.c ****     return 0; 
 371              		.loc 1 91 25 is_stmt 0 view .LVU87
 372 0010 034B     		ldr	r3, .L35
 373 0012 019A     		ldr	r2, [sp, #4]	@ float
 374 0014 DA66     		str	r2, [r3, #108]	@ float
  92:../BLDCMotor/motor_protocol.c **** }
 375              		.loc 1 92 5 is_stmt 1 view .LVU88
 376              	.L33:
  93:../BLDCMotor/motor_protocol.c **** static void* _set_motorstart(char *str,int32_t iq)
 377              		.loc 1 93 1 is_stmt 0 view .LVU89
 378 0016 0020     		movs	r0, #0
 379 0018 03B0     		add	sp, sp, #12
 380              	.LCFI11:
 381              		.cfi_def_cfa_offset 4
 382              		@ sp needed
 383 001a 5DF804FB 		ldr	pc, [sp], #4
 384              	.L36:
 385 001e 00BF     		.align	2
 386              	.L35:
 387 0020 00000000 		.word	motordebug
 388              		.cfi_endproc
 389              	.LFE244:
 391              		.section	.text._set_d_kp,"ax",%progbits
 392              		.align	1
 393              		.syntax unified
 394              		.thumb
 395              		.thumb_func
 397              	_set_d_kp:
 398              	.LVL28:
 399              	.LFB243:
  75:../BLDCMotor/motor_protocol.c ****     float val = 0.0f;
 400              		.loc 1 75 1 is_stmt 1 view -0
 401              		.cfi_startproc
 402              		@ args = 0, pretend = 0, frame = 8
 403              		@ frame_needed = 0, uses_anonymous_args = 0
  75:../BLDCMotor/motor_protocol.c ****     float val = 0.0f;
 404              		.loc 1 75 1 is_stmt 0 view .LVU91
 405 0000 00B5     		push	{lr}
 406              	.LCFI12:
ARM GAS  C:\Users\57308\AppData\Local\Temp\cc3Asqm8.s 			page 12


 407              		.cfi_def_cfa_offset 4
 408              		.cfi_offset 14, -4
 409 0002 83B0     		sub	sp, sp, #12
 410              	.LCFI13:
 411              		.cfi_def_cfa_offset 16
  76:../BLDCMotor/motor_protocol.c ****     if (!_findF_from_str(str,&val))
 412              		.loc 1 76 5 is_stmt 1 view .LVU92
  76:../BLDCMotor/motor_protocol.c ****     if (!_findF_from_str(str,&val))
 413              		.loc 1 76 11 is_stmt 0 view .LVU93
 414 0004 0023     		movs	r3, #0
 415 0006 0193     		str	r3, [sp, #4]	@ float
  77:../BLDCMotor/motor_protocol.c ****     {
 416              		.loc 1 77 5 is_stmt 1 view .LVU94
  77:../BLDCMotor/motor_protocol.c ****     {
 417              		.loc 1 77 10 is_stmt 0 view .LVU95
 418 0008 01A9     		add	r1, sp, #4
 419              	.LVL29:
  77:../BLDCMotor/motor_protocol.c ****     {
 420              		.loc 1 77 10 view .LVU96
 421 000a FFF7FEFF 		bl	_findF_from_str
 422              	.LVL30:
  77:../BLDCMotor/motor_protocol.c ****     {
 423              		.loc 1 77 8 view .LVU97
 424 000e 10B1     		cbz	r0, .L38
  81:../BLDCMotor/motor_protocol.c ****     return 0;    
 425              		.loc 1 81 5 is_stmt 1 view .LVU98
  81:../BLDCMotor/motor_protocol.c ****     return 0;    
 426              		.loc 1 81 25 is_stmt 0 view .LVU99
 427 0010 034B     		ldr	r3, .L40
 428 0012 019A     		ldr	r2, [sp, #4]	@ float
 429 0014 9A66     		str	r2, [r3, #104]	@ float
  82:../BLDCMotor/motor_protocol.c **** }
 430              		.loc 1 82 5 is_stmt 1 view .LVU100
 431              	.L38:
  83:../BLDCMotor/motor_protocol.c **** static void* _set_d_ki(char *str,int32_t ki)
 432              		.loc 1 83 1 is_stmt 0 view .LVU101
 433 0016 0020     		movs	r0, #0
 434 0018 03B0     		add	sp, sp, #12
 435              	.LCFI14:
 436              		.cfi_def_cfa_offset 4
 437              		@ sp needed
 438 001a 5DF804FB 		ldr	pc, [sp], #4
 439              	.L41:
 440 001e 00BF     		.align	2
 441              	.L40:
 442 0020 00000000 		.word	motordebug
 443              		.cfi_endproc
 444              	.LFE243:
 446              		.section	.text._set_tariq,"ax",%progbits
 447              		.align	1
 448              		.syntax unified
 449              		.thumb
 450              		.thumb_func
 452              	_set_tariq:
 453              	.LVL31:
 454              	.LFB248:
 117:../BLDCMotor/motor_protocol.c ****     float val = 0.0f;            
ARM GAS  C:\Users\57308\AppData\Local\Temp\cc3Asqm8.s 			page 13


 455              		.loc 1 117 1 is_stmt 1 view -0
 456              		.cfi_startproc
 457              		@ args = 0, pretend = 0, frame = 8
 458              		@ frame_needed = 0, uses_anonymous_args = 0
 117:../BLDCMotor/motor_protocol.c ****     float val = 0.0f;            
 459              		.loc 1 117 1 is_stmt 0 view .LVU103
 460 0000 00B5     		push	{lr}
 461              	.LCFI15:
 462              		.cfi_def_cfa_offset 4
 463              		.cfi_offset 14, -4
 464 0002 83B0     		sub	sp, sp, #12
 465              	.LCFI16:
 466              		.cfi_def_cfa_offset 16
 118:../BLDCMotor/motor_protocol.c ****     if (!_findF_from_str(str,&val))
 467              		.loc 1 118 5 is_stmt 1 view .LVU104
 118:../BLDCMotor/motor_protocol.c ****     if (!_findF_from_str(str,&val))
 468              		.loc 1 118 11 is_stmt 0 view .LVU105
 469 0004 0023     		movs	r3, #0
 470 0006 0193     		str	r3, [sp, #4]	@ float
 119:../BLDCMotor/motor_protocol.c ****     {
 471              		.loc 1 119 5 is_stmt 1 view .LVU106
 119:../BLDCMotor/motor_protocol.c ****     {
 472              		.loc 1 119 10 is_stmt 0 view .LVU107
 473 0008 01A9     		add	r1, sp, #4
 474              	.LVL32:
 119:../BLDCMotor/motor_protocol.c ****     {
 475              		.loc 1 119 10 view .LVU108
 476 000a FFF7FEFF 		bl	_findF_from_str
 477              	.LVL33:
 119:../BLDCMotor/motor_protocol.c ****     {
 478              		.loc 1 119 8 view .LVU109
 479 000e 10B1     		cbz	r0, .L43
 123:../BLDCMotor/motor_protocol.c ****     return 0;    
 480              		.loc 1 123 5 is_stmt 1 view .LVU110
 123:../BLDCMotor/motor_protocol.c ****     return 0;    
 481              		.loc 1 123 25 is_stmt 0 view .LVU111
 482 0010 034B     		ldr	r3, .L45
 483 0012 019A     		ldr	r2, [sp, #4]	@ float
 484 0014 9A64     		str	r2, [r3, #72]	@ float
 124:../BLDCMotor/motor_protocol.c **** }
 485              		.loc 1 124 5 is_stmt 1 view .LVU112
 486              	.L43:
 125:../BLDCMotor/motor_protocol.c **** 
 487              		.loc 1 125 1 is_stmt 0 view .LVU113
 488 0016 0020     		movs	r0, #0
 489 0018 03B0     		add	sp, sp, #12
 490              	.LCFI17:
 491              		.cfi_def_cfa_offset 4
 492              		@ sp needed
 493 001a 5DF804FB 		ldr	pc, [sp], #4
 494              	.L46:
 495 001e 00BF     		.align	2
 496              	.L45:
 497 0020 00000000 		.word	motordebug
 498              		.cfi_endproc
 499              	.LFE248:
 501              		.section	.text._set_tarid,"ax",%progbits
ARM GAS  C:\Users\57308\AppData\Local\Temp\cc3Asqm8.s 			page 14


 502              		.align	1
 503              		.syntax unified
 504              		.thumb
 505              		.thumb_func
 507              	_set_tarid:
 508              	.LVL34:
 509              	.LFB247:
 106:../BLDCMotor/motor_protocol.c ****     float val = 0.0f;            
 510              		.loc 1 106 1 is_stmt 1 view -0
 511              		.cfi_startproc
 512              		@ args = 0, pretend = 0, frame = 8
 513              		@ frame_needed = 0, uses_anonymous_args = 0
 106:../BLDCMotor/motor_protocol.c ****     float val = 0.0f;            
 514              		.loc 1 106 1 is_stmt 0 view .LVU115
 515 0000 00B5     		push	{lr}
 516              	.LCFI18:
 517              		.cfi_def_cfa_offset 4
 518              		.cfi_offset 14, -4
 519 0002 83B0     		sub	sp, sp, #12
 520              	.LCFI19:
 521              		.cfi_def_cfa_offset 16
 107:../BLDCMotor/motor_protocol.c ****     if (!_findF_from_str(str,&val))
 522              		.loc 1 107 5 is_stmt 1 view .LVU116
 107:../BLDCMotor/motor_protocol.c ****     if (!_findF_from_str(str,&val))
 523              		.loc 1 107 11 is_stmt 0 view .LVU117
 524 0004 0023     		movs	r3, #0
 525 0006 0193     		str	r3, [sp, #4]	@ float
 108:../BLDCMotor/motor_protocol.c ****     {
 526              		.loc 1 108 5 is_stmt 1 view .LVU118
 108:../BLDCMotor/motor_protocol.c ****     {
 527              		.loc 1 108 10 is_stmt 0 view .LVU119
 528 0008 01A9     		add	r1, sp, #4
 529              	.LVL35:
 108:../BLDCMotor/motor_protocol.c ****     {
 530              		.loc 1 108 10 view .LVU120
 531 000a FFF7FEFF 		bl	_findF_from_str
 532              	.LVL36:
 108:../BLDCMotor/motor_protocol.c ****     {
 533              		.loc 1 108 8 view .LVU121
 534 000e 10B1     		cbz	r0, .L48
 112:../BLDCMotor/motor_protocol.c ****     return 0;
 535              		.loc 1 112 5 is_stmt 1 view .LVU122
 112:../BLDCMotor/motor_protocol.c ****     return 0;
 536              		.loc 1 112 25 is_stmt 0 view .LVU123
 537 0010 034B     		ldr	r3, .L50
 538 0012 019A     		ldr	r2, [sp, #4]	@ float
 539 0014 1A64     		str	r2, [r3, #64]	@ float
 113:../BLDCMotor/motor_protocol.c **** } 
 540              		.loc 1 113 5 is_stmt 1 view .LVU124
 541              	.L48:
 114:../BLDCMotor/motor_protocol.c **** 
 542              		.loc 1 114 1 is_stmt 0 view .LVU125
 543 0016 0020     		movs	r0, #0
 544 0018 03B0     		add	sp, sp, #12
 545              	.LCFI20:
 546              		.cfi_def_cfa_offset 4
 547              		@ sp needed
ARM GAS  C:\Users\57308\AppData\Local\Temp\cc3Asqm8.s 			page 15


 548 001a 5DF804FB 		ldr	pc, [sp], #4
 549              	.L51:
 550 001e 00BF     		.align	2
 551              	.L50:
 552 0020 00000000 		.word	motordebug
 553              		.cfi_endproc
 554              	.LFE247:
 556              		.section	.text._findcmd_from_map,"ax",%progbits
 557              		.align	1
 558              		.syntax unified
 559              		.thumb
 560              		.thumb_func
 562              	_findcmd_from_map:
 563              	.LVL37:
 564              	.LFB251:
 144:../BLDCMotor/motor_protocol.c ****     if (str == NULL) {  
 565              		.loc 1 144 99 is_stmt 1 view -0
 566              		.cfi_startproc
 567              		@ args = 0, pretend = 0, frame = 0
 568              		@ frame_needed = 0, uses_anonymous_args = 0
 145:../BLDCMotor/motor_protocol.c ****         return 0; // 如果传入的字符串为空，则返回0表示不匹配  
 569              		.loc 1 145 5 view .LVU127
 145:../BLDCMotor/motor_protocol.c ****         return 0; // 如果传入的字符串为空，则返回0表示不匹配  
 570              		.loc 1 145 8 is_stmt 0 view .LVU128
 571 0000 40B3     		cbz	r0, .L57
 144:../BLDCMotor/motor_protocol.c ****     if (str == NULL) {  
 572              		.loc 1 144 99 view .LVU129
 573 0002 2DE9F047 		push	{r4, r5, r6, r7, r8, r9, r10, lr}
 574              	.LCFI21:
 575              		.cfi_def_cfa_offset 32
 576              		.cfi_offset 4, -32
 577              		.cfi_offset 5, -28
 578              		.cfi_offset 6, -24
 579              		.cfi_offset 7, -20
 580              		.cfi_offset 8, -16
 581              		.cfi_offset 9, -12
 582              		.cfi_offset 10, -8
 583              		.cfi_offset 14, -4
 584 0006 0E46     		mov	r6, r1
 585 0008 9046     		mov	r8, r2
 586 000a 0746     		mov	r7, r0
 587              	.LBB2:
 149:../BLDCMotor/motor_protocol.c ****         // 使用strncmp比较直到遇到冒号或字符串结束  
 588              		.loc 1 149 17 view .LVU130
 589 000c 0024     		movs	r4, #0
 590 000e 00E0     		b	.L54
 591              	.LVL38:
 592              	.L55:
 149:../BLDCMotor/motor_protocol.c ****         // 使用strncmp比较直到遇到冒号或字符串结束  
 593              		.loc 1 149 37 is_stmt 1 discriminator 2 view .LVU131
 594 0010 0134     		adds	r4, r4, #1
 595              	.LVL39:
 596              	.L54:
 149:../BLDCMotor/motor_protocol.c ****         // 使用strncmp比较直到遇到冒号或字符串结束  
 597              		.loc 1 149 24 discriminator 1 view .LVU132
 149:../BLDCMotor/motor_protocol.c ****         // 使用strncmp比较直到遇到冒号或字符串结束  
 598              		.loc 1 149 5 is_stmt 0 discriminator 1 view .LVU133
ARM GAS  C:\Users\57308\AppData\Local\Temp\cc3Asqm8.s 			page 16


 599 0012 4445     		cmp	r4, r8
 600 0014 1BD2     		bcs	.L63
 601              	.LBB3:
 151:../BLDCMotor/motor_protocol.c ****         if (strncmp(str, map[i].cmd, cmdLen) == 0 && str[cmdLen] == ':') { 
 602              		.loc 1 151 9 is_stmt 1 view .LVU134
 151:../BLDCMotor/motor_protocol.c ****         if (strncmp(str, map[i].cmd, cmdLen) == 0 && str[cmdLen] == ':') { 
 603              		.loc 1 151 35 is_stmt 0 view .LVU135
 604 0016 2301     		lsls	r3, r4, #4
 605 0018 06EB0419 		add	r9, r6, r4, lsl #4
 151:../BLDCMotor/motor_protocol.c ****         if (strncmp(str, map[i].cmd, cmdLen) == 0 && str[cmdLen] == ':') { 
 606              		.loc 1 151 25 view .LVU136
 607 001c 56F803A0 		ldr	r10, [r6, r3]
 608 0020 5046     		mov	r0, r10
 609 0022 FFF7FEFF 		bl	strlen
 610              	.LVL40:
 611 0026 0546     		mov	r5, r0
 612              	.LVL41:
 152:../BLDCMotor/motor_protocol.c **** 
 613              		.loc 1 152 9 is_stmt 1 view .LVU137
 152:../BLDCMotor/motor_protocol.c **** 
 614              		.loc 1 152 13 is_stmt 0 view .LVU138
 615 0028 0246     		mov	r2, r0
 616 002a 5146     		mov	r1, r10
 617 002c 3846     		mov	r0, r7
 618              	.LVL42:
 152:../BLDCMotor/motor_protocol.c **** 
 619              		.loc 1 152 13 view .LVU139
 620 002e FFF7FEFF 		bl	strncmp
 621              	.LVL43:
 152:../BLDCMotor/motor_protocol.c **** 
 622              		.loc 1 152 12 view .LVU140
 623 0032 0028     		cmp	r0, #0
 624 0034 ECD1     		bne	.L55
 152:../BLDCMotor/motor_protocol.c **** 
 625              		.loc 1 152 57 discriminator 1 view .LVU141
 626 0036 7B5D     		ldrb	r3, [r7, r5]	@ zero_extendqisi2
 152:../BLDCMotor/motor_protocol.c **** 
 627              		.loc 1 152 51 discriminator 1 view .LVU142
 628 0038 3A2B     		cmp	r3, #58
 629 003a E9D1     		bne	.L55
 154:../BLDCMotor/motor_protocol.c ****             {
 630              		.loc 1 154 13 is_stmt 1 view .LVU143
 154:../BLDCMotor/motor_protocol.c ****             {
 631              		.loc 1 154 24 is_stmt 0 view .LVU144
 632 003c D9F80830 		ldr	r3, [r9, #8]
 154:../BLDCMotor/motor_protocol.c ****             {
 633              		.loc 1 154 16 view .LVU145
 634 0040 53B1     		cbz	r3, .L58
 159:../BLDCMotor/motor_protocol.c ****             return map[i].cmd_index; // 找到匹配项，返回对应值  
 635              		.loc 1 159 13 is_stmt 1 view .LVU146
 636 0042 0021     		movs	r1, #0
 637 0044 3846     		mov	r0, r7
 638 0046 9847     		blx	r3
 639              	.LVL44:
 160:../BLDCMotor/motor_protocol.c ****         }
 640              		.loc 1 160 13 view .LVU147
 160:../BLDCMotor/motor_protocol.c ****         }
ARM GAS  C:\Users\57308\AppData\Local\Temp\cc3Asqm8.s 			page 17


 641              		.loc 1 160 26 is_stmt 0 view .LVU148
 642 0048 B9F80400 		ldrh	r0, [r9, #4]
 643 004c 00E0     		b	.L53
 644              	.LVL45:
 645              	.L63:
 160:../BLDCMotor/motor_protocol.c ****         }
 646              		.loc 1 160 26 view .LVU149
 647              	.LBE3:
 648              	.LBE2:
 163:../BLDCMotor/motor_protocol.c **** }  
 649              		.loc 1 163 12 view .LVU150
 650 004e 0020     		movs	r0, #0
 651              	.L53:
 164:../BLDCMotor/motor_protocol.c **** 
 652              		.loc 1 164 1 view .LVU151
 653 0050 BDE8F087 		pop	{r4, r5, r6, r7, r8, r9, r10, pc}
 654              	.LVL46:
 655              	.L57:
 656              	.LCFI22:
 657              		.cfi_def_cfa_offset 0
 658              		.cfi_restore 4
 659              		.cfi_restore 5
 660              		.cfi_restore 6
 661              		.cfi_restore 7
 662              		.cfi_restore 8
 663              		.cfi_restore 9
 664              		.cfi_restore 10
 665              		.cfi_restore 14
 146:../BLDCMotor/motor_protocol.c ****     }  
 666              		.loc 1 146 16 view .LVU152
 667 0054 0020     		movs	r0, #0
 668              	.LVL47:
 164:../BLDCMotor/motor_protocol.c **** 
 669              		.loc 1 164 1 view .LVU153
 670 0056 7047     		bx	lr
 671              	.LVL48:
 672              	.L58:
 673              	.LCFI23:
 674              		.cfi_def_cfa_offset 32
 675              		.cfi_offset 4, -32
 676              		.cfi_offset 5, -28
 677              		.cfi_offset 6, -24
 678              		.cfi_offset 7, -20
 679              		.cfi_offset 8, -16
 680              		.cfi_offset 9, -12
 681              		.cfi_offset 10, -8
 682              		.cfi_offset 14, -4
 683              	.LBB5:
 684              	.LBB4:
 156:../BLDCMotor/motor_protocol.c ****             }
 685              		.loc 1 156 24 view .LVU154
 686 0058 0020     		movs	r0, #0
 687 005a F9E7     		b	.L53
 688              	.LBE4:
 689              	.LBE5:
 690              		.cfi_endproc
 691              	.LFE251:
ARM GAS  C:\Users\57308\AppData\Local\Temp\cc3Asqm8.s 			page 18


 693              		.section	.text.motorprotocol_getdata,"ax",%progbits
 694              		.align	1
 695              		.global	motorprotocol_getdata
 696              		.syntax unified
 697              		.thumb
 698              		.thumb_func
 700              	motorprotocol_getdata:
 701              	.LVL49:
 702              	.LFB239:
  49:../BLDCMotor/motor_protocol.c ****     strcpy(Rx_Buf,data);
 703              		.loc 1 49 1 is_stmt 1 view -0
 704              		.cfi_startproc
 705              		@ args = 0, pretend = 0, frame = 0
 706              		@ frame_needed = 0, uses_anonymous_args = 0
  49:../BLDCMotor/motor_protocol.c ****     strcpy(Rx_Buf,data);
 707              		.loc 1 49 1 is_stmt 0 view .LVU156
 708 0000 08B5     		push	{r3, lr}
 709              	.LCFI24:
 710              		.cfi_def_cfa_offset 8
 711              		.cfi_offset 3, -8
 712              		.cfi_offset 14, -4
 713 0002 0146     		mov	r1, r0
  50:../BLDCMotor/motor_protocol.c **** }
 714              		.loc 1 50 5 is_stmt 1 view .LVU157
 715 0004 0148     		ldr	r0, .L66
 716              	.LVL50:
  50:../BLDCMotor/motor_protocol.c **** }
 717              		.loc 1 50 5 is_stmt 0 view .LVU158
 718 0006 FFF7FEFF 		bl	strcpy
 719              	.LVL51:
  51:../BLDCMotor/motor_protocol.c **** 
 720              		.loc 1 51 1 view .LVU159
 721 000a 08BD     		pop	{r3, pc}
 722              	.L67:
 723              		.align	2
 724              	.L66:
 725 000c 00000000 		.word	.LANCHOR1
 726              		.cfi_endproc
 727              	.LFE239:
 729              		.section	.text.motorprotocol_pause,"ax",%progbits
 730              		.align	1
 731              		.global	motorprotocol_pause
 732              		.syntax unified
 733              		.thumb
 734              		.thumb_func
 736              	motorprotocol_pause:
 737              	.LVL52:
 738              	.LFB240:
  54:../BLDCMotor/motor_protocol.c ****     float value =0.0f;
 739              		.loc 1 54 1 is_stmt 1 view -0
 740              		.cfi_startproc
 741              		@ args = 0, pretend = 0, frame = 0
 742              		@ frame_needed = 0, uses_anonymous_args = 0
  54:../BLDCMotor/motor_protocol.c ****     float value =0.0f;
 743              		.loc 1 54 1 is_stmt 0 view .LVU161
 744 0000 08B5     		push	{r3, lr}
 745              	.LCFI25:
ARM GAS  C:\Users\57308\AppData\Local\Temp\cc3Asqm8.s 			page 19


 746              		.cfi_def_cfa_offset 8
 747              		.cfi_offset 3, -8
 748              		.cfi_offset 14, -4
  55:../BLDCMotor/motor_protocol.c ****     unsigned short cmd_ID;
 749              		.loc 1 55 5 is_stmt 1 view .LVU162
 750              	.LVL53:
  56:../BLDCMotor/motor_protocol.c ****     if (cmd[0] == 0 && cmd[1] == 0)
 751              		.loc 1 56 5 view .LVU163
  57:../BLDCMotor/motor_protocol.c ****     {
 752              		.loc 1 57 5 view .LVU164
  57:../BLDCMotor/motor_protocol.c ****     {
 753              		.loc 1 57 12 is_stmt 0 view .LVU165
 754 0002 0378     		ldrb	r3, [r0]	@ zero_extendqisi2
  57:../BLDCMotor/motor_protocol.c ****     {
 755              		.loc 1 57 8 view .LVU166
 756 0004 0BB9     		cbnz	r3, .L69
  57:../BLDCMotor/motor_protocol.c ****     {
 757              		.loc 1 57 27 discriminator 1 view .LVU167
 758 0006 4378     		ldrb	r3, [r0, #1]	@ zero_extendqisi2
  57:../BLDCMotor/motor_protocol.c ****     {
 759              		.loc 1 57 21 discriminator 1 view .LVU168
 760 0008 1BB1     		cbz	r3, .L68
 761              	.L69:
  61:../BLDCMotor/motor_protocol.c ****     cmd_ID = _findcmd_from_map(cmd,sg_commandmap,mapSize);    
 762              		.loc 1 61 5 is_stmt 1 view .LVU169
 763              	.LVL54:
  62:../BLDCMotor/motor_protocol.c **** }
 764              		.loc 1 62 5 view .LVU170
  62:../BLDCMotor/motor_protocol.c **** }
 765              		.loc 1 62 14 is_stmt 0 view .LVU171
 766 000a 0922     		movs	r2, #9
 767 000c 0149     		ldr	r1, .L72
 768 000e FFF7FEFF 		bl	_findcmd_from_map
 769              	.LVL55:
 770              	.L68:
  63:../BLDCMotor/motor_protocol.c **** 
 771              		.loc 1 63 1 view .LVU172
 772 0012 08BD     		pop	{r3, pc}
 773              	.L73:
 774              		.align	2
 775              	.L72:
 776 0014 00000000 		.word	.LANCHOR0
 777              		.cfi_endproc
 778              	.LFE240:
 780              		.section	.text.motorprotocol_process,"ax",%progbits
 781              		.align	1
 782              		.global	motorprotocol_process
 783              		.syntax unified
 784              		.thumb
 785              		.thumb_func
 787              	motorprotocol_process:
 788              	.LFB241:
  66:../BLDCMotor/motor_protocol.c ****     motorprotocol_pause(Rx_Buf);
 789              		.loc 1 66 1 is_stmt 1 view -0
 790              		.cfi_startproc
 791              		@ args = 0, pretend = 0, frame = 0
 792              		@ frame_needed = 0, uses_anonymous_args = 0
ARM GAS  C:\Users\57308\AppData\Local\Temp\cc3Asqm8.s 			page 20


 793 0000 10B5     		push	{r4, lr}
 794              	.LCFI26:
 795              		.cfi_def_cfa_offset 8
 796              		.cfi_offset 4, -8
 797              		.cfi_offset 14, -4
  67:../BLDCMotor/motor_protocol.c ****     memset(Rx_Buf, 0, sizeof(Rx_Buf));
 798              		.loc 1 67 5 view .LVU174
 799 0002 054C     		ldr	r4, .L76
 800 0004 2046     		mov	r0, r4
 801 0006 FFF7FEFF 		bl	motorprotocol_pause
 802              	.LVL56:
  68:../BLDCMotor/motor_protocol.c **** }
 803              		.loc 1 68 5 view .LVU175
 804 000a F822     		movs	r2, #248
 805 000c 0021     		movs	r1, #0
 806 000e 2046     		mov	r0, r4
 807 0010 FFF7FEFF 		bl	memset
 808              	.LVL57:
  69:../BLDCMotor/motor_protocol.c **** void motorprotocol_tramit(char *pstr,uint16_t len)
 809              		.loc 1 69 1 is_stmt 0 view .LVU176
 810 0014 10BD     		pop	{r4, pc}
 811              	.L77:
 812 0016 00BF     		.align	2
 813              	.L76:
 814 0018 00000000 		.word	.LANCHOR1
 815              		.cfi_endproc
 816              	.LFE241:
 818              		.section	.text.motorprotocol_tramit,"ax",%progbits
 819              		.align	1
 820              		.global	motorprotocol_tramit
 821              		.syntax unified
 822              		.thumb
 823              		.thumb_func
 825              	motorprotocol_tramit:
 826              	.LVL58:
 827              	.LFB242:
  71:../BLDCMotor/motor_protocol.c ****     _bsp_protransmit((unsigned char *)pstr,len);
 828              		.loc 1 71 1 is_stmt 1 view -0
 829              		.cfi_startproc
 830              		@ args = 0, pretend = 0, frame = 0
 831              		@ frame_needed = 0, uses_anonymous_args = 0
  71:../BLDCMotor/motor_protocol.c ****     _bsp_protransmit((unsigned char *)pstr,len);
 832              		.loc 1 71 1 is_stmt 0 view .LVU178
 833 0000 08B5     		push	{r3, lr}
 834              	.LCFI27:
 835              		.cfi_def_cfa_offset 8
 836              		.cfi_offset 3, -8
 837              		.cfi_offset 14, -4
  72:../BLDCMotor/motor_protocol.c **** }
 838              		.loc 1 72 5 is_stmt 1 view .LVU179
 839 0002 FFF7FEFF 		bl	_bsp_protransmit
 840              	.LVL59:
  73:../BLDCMotor/motor_protocol.c **** static void* _set_d_kp(char *str,int32_t kp)
 841              		.loc 1 73 1 is_stmt 0 view .LVU180
 842 0006 08BD     		pop	{r3, pc}
 843              		.cfi_endproc
 844              	.LFE242:
ARM GAS  C:\Users\57308\AppData\Local\Temp\cc3Asqm8.s 			page 21


 846              		.global	sg_commandmap
 847              		.section	.rodata.str1.4,"aMS",%progbits,1
 848              		.align	2
 849              	.LC0:
 850 0000 6D635F74 		.ascii	"mc_tar_speed\000"
 850      61725F73 
 850      70656564 
 850      00
 851 000d 000000   		.align	2
 852              	.LC1:
 853 0010 6D635F74 		.ascii	"mc_tar_id\000"
 853      61725F69 
 853      6400
 854 001a 0000     		.align	2
 855              	.LC2:
 856 001c 6D635F74 		.ascii	"mc_tar_iq\000"
 856      61725F69 
 856      7100
 857 0026 0000     		.align	2
 858              	.LC3:
 859 0028 6D6F746F 		.ascii	"motor_stop\000"
 859      725F7374 
 859      6F7000
 860 0033 00       		.align	2
 861              	.LC4:
 862 0034 6D6F746F 		.ascii	"motor state stop\000"
 862      72207374 
 862      61746520 
 862      73746F70 
 862      00
 863 0045 000000   		.align	2
 864              	.LC5:
 865 0048 6D6F746F 		.ascii	"motor_start\000"
 865      725F7374 
 865      61727400 
 866              		.align	2
 867              	.LC6:
 868 0054 6D6F746F 		.ascii	"motor state runing\000"
 868      72207374 
 868      61746520 
 868      72756E69 
 868      6E6700
 869 0067 00       		.align	2
 870              	.LC7:
 871 0068 6D635F73 		.ascii	"mc_setd_kp\000"
 871      6574645F 
 871      6B7000
 872 0073 00       		.align	2
 873              	.LC8:
 874 0074 6D635F73 		.ascii	"mc_setd_ki\000"
 874      6574645F 
 874      6B6900
 875 007f 00       		.align	2
 876              	.LC9:
 877 0080 6D635F70 		.ascii	"mc_pid_paraset\000"
 877      69645F70 
 877      61726173 
ARM GAS  C:\Users\57308\AppData\Local\Temp\cc3Asqm8.s 			page 22


 877      657400
 878              		.section	.bss.Rx_Buf,"aw",%nobits
 879              		.align	2
 880              		.set	.LANCHOR1,. + 0
 883              	Rx_Buf:
 884 0000 00000000 		.space	248
 884      00000000 
 884      00000000 
 884      00000000 
 884      00000000 
 885              		.section	.data.sg_commandmap,"aw"
 886              		.align	2
 887              		.set	.LANCHOR0,. + 0
 890              	sg_commandmap:
 891 0000 00000000 		.word	.LC0
 892 0004 0100     		.short	1
 893 0006 0000     		.space	2
 894 0008 00000000 		.word	0
 895 000c 00000000 		.word	0
 896 0010 10000000 		.word	.LC1
 897 0014 0200     		.short	2
 898 0016 0000     		.space	2
 899 0018 00000000 		.word	_set_tarid
 900 001c 00000000 		.word	0
 901 0020 1C000000 		.word	.LC2
 902 0024 0300     		.short	3
 903 0026 0000     		.space	2
 904 0028 00000000 		.word	_set_tariq
 905 002c 00000000 		.word	0
 906 0030 28000000 		.word	.LC3
 907 0034 0400     		.short	4
 908 0036 0000     		.space	2
 909 0038 00000000 		.word	_set_motorstop
 910 003c 34000000 		.word	.LC4
 911 0040 48000000 		.word	.LC5
 912 0044 0500     		.short	5
 913 0046 0000     		.space	2
 914 0048 00000000 		.word	_set_motorstart
 915 004c 54000000 		.word	.LC6
 916 0050 68000000 		.word	.LC7
 917 0054 0600     		.short	6
 918 0056 0000     		.space	2
 919 0058 00000000 		.word	_set_d_kp
 920 005c 00000000 		.word	0
 921 0060 74000000 		.word	.LC8
 922 0064 0700     		.short	7
 923 0066 0000     		.space	2
 924 0068 00000000 		.word	_set_d_ki
 925 006c 00000000 		.word	0
 926 0070 80000000 		.word	.LC9
 927 0074 0800     		.short	8
 928 0076 0000     		.space	2
 929 0078 00000000 		.word	_set_pidpara_cmd
 930 007c 00000000 		.word	0
 931 0080 00000000 		.word	.LC0
 932 0084 0900     		.short	9
 933 0086 0000     		.space	2
ARM GAS  C:\Users\57308\AppData\Local\Temp\cc3Asqm8.s 			page 23


 934 0088 00000000 		.word	_set_tarspeed
 935 008c 00000000 		.word	0
 936              		.text
 937              	.Letext0:
 938              		.file 2 "d:\\program files\\gcc-arm-none-eabi-10.3-2021.10\\arm-none-eabi\\include\\machine\\_defa
 939              		.file 3 "d:\\program files\\gcc-arm-none-eabi-10.3-2021.10\\arm-none-eabi\\include\\sys\\_stdint.h
 940              		.file 4 "d:\\program files\\gcc-arm-none-eabi-10.3-2021.10\\lib\\gcc\\arm-none-eabi\\10.3.1\\inclu
 941              		.file 5 "../BLDCMotor/motorctrl_common.h"
 942              		.file 6 "../BLDCMotor/motor_protocol.h"
 943              		.file 7 "d:\\program files\\gcc-arm-none-eabi-10.3-2021.10\\arm-none-eabi\\include\\ctype.h"
 944              		.file 8 "d:\\program files\\gcc-arm-none-eabi-10.3-2021.10\\arm-none-eabi\\include\\string.h"
 945              		.file 9 "d:\\program files\\gcc-arm-none-eabi-10.3-2021.10\\arm-none-eabi\\include\\stdlib.h"
 946              		.file 10 "../protocol/protocol.h"
 947              		.file 11 "<built-in>"
ARM GAS  C:\Users\57308\AppData\Local\Temp\cc3Asqm8.s 			page 24

