ARM GAS  C:\Users\57308\AppData\Local\Temp\ccxYTDEW.s 			page 1


   1              		.cpu cortex-m4
   2              		.arch armv7e-m
   3              		.fpu fpv4-sp-d16
   4              		.eabi_attribute 27, 1
   5              		.eabi_attribute 28, 1
   6              		.eabi_attribute 20, 1
   7              		.eabi_attribute 21, 1
   8              		.eabi_attribute 23, 3
   9              		.eabi_attribute 24, 1
  10              		.eabi_attribute 25, 1
  11              		.eabi_attribute 26, 1
  12              		.eabi_attribute 30, 1
  13              		.eabi_attribute 34, 1
  14              		.eabi_attribute 18, 4
  15              		.file	"motor_protocol.c"
  16              		.text
  17              	.Ltext0:
  18              		.cfi_sections	.debug_frame
  19              		.section	.text._set_motorstart,"ax",%progbits
  20              		.align	1
  21              		.syntax unified
  22              		.thumb
  23              		.thumb_func
  25              	_set_motorstart:
  26              	.LVL0:
  27              	.LFB244:
  28              		.file 1 "../BLDCMotor/motor_protocol.c"
   1:../BLDCMotor/motor_protocol.c **** 
   2:../BLDCMotor/motor_protocol.c **** /*
   3:../BLDCMotor/motor_protocol.c **** mc_tar_speed:200.0f  
   4:../BLDCMotor/motor_protocol.c **** mc_tar_id0.5f
   5:../BLDCMotor/motor_protocol.c **** mc_tar_iq:0.8f
   6:../BLDCMotor/motor_protocol.c **** 
   7:../BLDCMotor/motor_protocol.c **** */
   8:../BLDCMotor/motor_protocol.c **** #include "motorctrl_common.h"
   9:../BLDCMotor/motor_protocol.c **** #include "board.h"
  10:../BLDCMotor/motor_protocol.c **** #include "string.h"
  11:../BLDCMotor/motor_protocol.c **** #include "stdio.h"
  12:../BLDCMotor/motor_protocol.c **** #include "stdint.h"
  13:../BLDCMotor/motor_protocol.c **** #include <stdlib.h>  
  14:../BLDCMotor/motor_protocol.c **** #include <ctype.h> // for isspace()  
  15:../BLDCMotor/motor_protocol.c **** 
  16:../BLDCMotor/motor_protocol.c **** typedef void* (*pfunc)(char *,int32_t);
  17:../BLDCMotor/motor_protocol.c **** typedef struct {  
  18:../BLDCMotor/motor_protocol.c ****     const char *cmd;  
  19:../BLDCMotor/motor_protocol.c ****     unsigned short cmd_index;
  20:../BLDCMotor/motor_protocol.c ****     pfunc pf_cmdexcue;
  21:../BLDCMotor/motor_protocol.c **** } commandmap_t; 
  22:../BLDCMotor/motor_protocol.c **** 
  23:../BLDCMotor/motor_protocol.c **** 
  24:../BLDCMotor/motor_protocol.c **** 
  25:../BLDCMotor/motor_protocol.c **** static void* _set_tarid(char *str,int32_t id);
  26:../BLDCMotor/motor_protocol.c **** static void* _set_tariq(char *str,int32_t iq);
  27:../BLDCMotor/motor_protocol.c **** static void* _set_motorstop(char *str,int32_t iq);
  28:../BLDCMotor/motor_protocol.c **** static void* _set_motorstart(char *str,int32_t iq);
  29:../BLDCMotor/motor_protocol.c **** static void* _set_d_kp(char *str,int32_t kp);
  30:../BLDCMotor/motor_protocol.c **** static void* _set_d_ki(char *str,int32_t ki);
ARM GAS  C:\Users\57308\AppData\Local\Temp\ccxYTDEW.s 			page 2


  31:../BLDCMotor/motor_protocol.c **** static void* _set_pidpara_cmd(char *str,int32_t param);
  32:../BLDCMotor/motor_protocol.c **** static void* _set_tarspeed(char *str,int32_t iq);
  33:../BLDCMotor/motor_protocol.c **** 
  34:../BLDCMotor/motor_protocol.c **** static int _findF_from_str(const char *str, float *val) ;
  35:../BLDCMotor/motor_protocol.c **** static unsigned short _findcmd_from_map(const char *str, const commandmap_t *map, size_t mapSize);
  36:../BLDCMotor/motor_protocol.c ****  
  37:../BLDCMotor/motor_protocol.c **** 
  38:../BLDCMotor/motor_protocol.c **** // 命令映射表  
  39:../BLDCMotor/motor_protocol.c **** commandmap_t sg_commandmap[] = {  
  40:../BLDCMotor/motor_protocol.c ****     {"mc_tar_speed", 1,NULL},  
  41:../BLDCMotor/motor_protocol.c ****     {"mc_tar_id", 2,_set_tarid},  
  42:../BLDCMotor/motor_protocol.c ****     {"mc_tar_iq", 3,_set_tariq},
  43:../BLDCMotor/motor_protocol.c ****     {"motor_stop",4,_set_motorstop},
  44:../BLDCMotor/motor_protocol.c ****     {"motor_start",5,_set_motorstart},
  45:../BLDCMotor/motor_protocol.c ****     {"mc_setd_kp",6,_set_d_kp},
  46:../BLDCMotor/motor_protocol.c ****     {"mc_setd_ki",7,_set_d_ki},
  47:../BLDCMotor/motor_protocol.c ****     {"mc_pid_paraset",8,_set_pidpara_cmd},
  48:../BLDCMotor/motor_protocol.c ****     {"mc_tar_speed",9,_set_tarspeed},
  49:../BLDCMotor/motor_protocol.c **** 
  50:../BLDCMotor/motor_protocol.c **** };
  51:../BLDCMotor/motor_protocol.c **** static char *Rx_Buf[62] = {0};
  52:../BLDCMotor/motor_protocol.c **** void motorprotocol_getdata(char *data)
  53:../BLDCMotor/motor_protocol.c **** {
  54:../BLDCMotor/motor_protocol.c ****     strcpy(Rx_Buf,data);
  55:../BLDCMotor/motor_protocol.c **** }
  56:../BLDCMotor/motor_protocol.c **** 
  57:../BLDCMotor/motor_protocol.c **** void motorprotocol_pause(char *cmd)
  58:../BLDCMotor/motor_protocol.c **** {
  59:../BLDCMotor/motor_protocol.c ****     float value =0.0f;
  60:../BLDCMotor/motor_protocol.c ****     unsigned short cmd_ID;
  61:../BLDCMotor/motor_protocol.c ****     if (cmd[0] == 0 && cmd[1] == 0)
  62:../BLDCMotor/motor_protocol.c ****     {
  63:../BLDCMotor/motor_protocol.c ****         /* code */
  64:../BLDCMotor/motor_protocol.c ****         return;
  65:../BLDCMotor/motor_protocol.c ****     }
  66:../BLDCMotor/motor_protocol.c ****     const size_t mapSize = sizeof(sg_commandmap) / sizeof(sg_commandmap[0]); 
  67:../BLDCMotor/motor_protocol.c ****     cmd_ID = _findcmd_from_map(cmd,sg_commandmap,mapSize);    
  68:../BLDCMotor/motor_protocol.c **** }
  69:../BLDCMotor/motor_protocol.c **** 
  70:../BLDCMotor/motor_protocol.c **** void motorprotocol_process(void)
  71:../BLDCMotor/motor_protocol.c **** {   
  72:../BLDCMotor/motor_protocol.c ****     motorprotocol_pause(Rx_Buf);
  73:../BLDCMotor/motor_protocol.c ****     memset(Rx_Buf, 0, sizeof(Rx_Buf));
  74:../BLDCMotor/motor_protocol.c **** }
  75:../BLDCMotor/motor_protocol.c **** static void* _set_d_kp(char *str,int32_t kp)
  76:../BLDCMotor/motor_protocol.c **** {
  77:../BLDCMotor/motor_protocol.c ****     float val = 0.0f;
  78:../BLDCMotor/motor_protocol.c ****     if (!_findF_from_str(str,&val))
  79:../BLDCMotor/motor_protocol.c ****     {
  80:../BLDCMotor/motor_protocol.c ****         return 0;
  81:../BLDCMotor/motor_protocol.c ****     }
  82:../BLDCMotor/motor_protocol.c ****     sg_motordebug.pid_d_kp = val;
  83:../BLDCMotor/motor_protocol.c ****     return 0;    
  84:../BLDCMotor/motor_protocol.c **** }
  85:../BLDCMotor/motor_protocol.c **** static void* _set_d_ki(char *str,int32_t ki)
  86:../BLDCMotor/motor_protocol.c **** {
  87:../BLDCMotor/motor_protocol.c ****     float val = 0.0f;            
ARM GAS  C:\Users\57308\AppData\Local\Temp\ccxYTDEW.s 			page 3


  88:../BLDCMotor/motor_protocol.c ****     if (!_findF_from_str(str,&val))
  89:../BLDCMotor/motor_protocol.c ****     {
  90:../BLDCMotor/motor_protocol.c ****         return 0;
  91:../BLDCMotor/motor_protocol.c ****     }  
  92:../BLDCMotor/motor_protocol.c ****     sg_motordebug.pid_d_ki = val;
  93:../BLDCMotor/motor_protocol.c ****     return 0; 
  94:../BLDCMotor/motor_protocol.c **** }
  95:../BLDCMotor/motor_protocol.c **** static void* _set_motorstart(char *str,int32_t iq)
  96:../BLDCMotor/motor_protocol.c **** {
  29              		.loc 1 96 1 view -0
  30              		.cfi_startproc
  31              		@ args = 0, pretend = 0, frame = 0
  32              		@ frame_needed = 0, uses_anonymous_args = 0
  33              		@ link register save eliminated.
  97:../BLDCMotor/motor_protocol.c ****     sg_motordebug.motor_stat = 3;
  34              		.loc 1 97 5 view .LVU1
  35              		.loc 1 97 30 is_stmt 0 view .LVU2
  36 0000 034B     		ldr	r3, .L2
  37 0002 0322     		movs	r2, #3
  38 0004 C3F88020 		str	r2, [r3, #128]
  98:../BLDCMotor/motor_protocol.c ****     sg_motordebug.pid_Q_out = 0xFF;
  39              		.loc 1 98 5 is_stmt 1 view .LVU3
  40              		.loc 1 98 29 is_stmt 0 view .LVU4
  41 0008 024A     		ldr	r2, .L2+4
  42 000a 9A65     		str	r2, [r3, #88]	@ float
  99:../BLDCMotor/motor_protocol.c ****     return 0;
  43              		.loc 1 99 5 is_stmt 1 view .LVU5
 100:../BLDCMotor/motor_protocol.c **** }
  44              		.loc 1 100 1 is_stmt 0 view .LVU6
  45 000c 0020     		movs	r0, #0
  46              	.LVL1:
  47              		.loc 1 100 1 view .LVU7
  48 000e 7047     		bx	lr
  49              	.L3:
  50              		.align	2
  51              	.L2:
  52 0010 00000000 		.word	sg_motordebug
  53 0014 00007F43 		.word	1132396544
  54              		.cfi_endproc
  55              	.LFE244:
  57              		.section	.rodata._set_motorstop.str1.4,"aMS",%progbits,1
  58              		.align	2
  59              	.LC0:
  60 0000 6D6F746F 		.ascii	"motor stop\000"
  60      72207374 
  60      6F7000
  61              		.section	.text._set_motorstop,"ax",%progbits
  62              		.align	1
  63              		.syntax unified
  64              		.thumb
  65              		.thumb_func
  67              	_set_motorstop:
  68              	.LVL2:
  69              	.LFB245:
 101:../BLDCMotor/motor_protocol.c **** static void* _set_motorstop(char *str,int32_t iq)
 102:../BLDCMotor/motor_protocol.c **** {
  70              		.loc 1 102 1 is_stmt 1 view -0
ARM GAS  C:\Users\57308\AppData\Local\Temp\ccxYTDEW.s 			page 4


  71              		.cfi_startproc
  72              		@ args = 0, pretend = 0, frame = 0
  73              		@ frame_needed = 0, uses_anonymous_args = 0
  74              		@ link register save eliminated.
 103:../BLDCMotor/motor_protocol.c ****     sg_motordebug.motor_statue_To = "motor stop";
  75              		.loc 1 103 5 view .LVU9
  76              		.loc 1 103 35 is_stmt 0 view .LVU10
  77 0000 024B     		ldr	r3, .L5
  78 0002 034A     		ldr	r2, .L5+4
  79 0004 C3F88420 		str	r2, [r3, #132]
 104:../BLDCMotor/motor_protocol.c ****     return 0;
  80              		.loc 1 104 5 is_stmt 1 view .LVU11
 105:../BLDCMotor/motor_protocol.c **** }
  81              		.loc 1 105 1 is_stmt 0 view .LVU12
  82 0008 0020     		movs	r0, #0
  83              	.LVL3:
  84              		.loc 1 105 1 view .LVU13
  85 000a 7047     		bx	lr
  86              	.L6:
  87              		.align	2
  88              	.L5:
  89 000c 00000000 		.word	sg_motordebug
  90 0010 00000000 		.word	.LC0
  91              		.cfi_endproc
  92              	.LFE245:
  94              		.section	.text._set_pidpara_cmd,"ax",%progbits
  95              		.align	1
  96              		.syntax unified
  97              		.thumb
  98              		.thumb_func
 100              	_set_pidpara_cmd:
 101              	.LVL4:
 102              	.LFB248:
 106:../BLDCMotor/motor_protocol.c **** static void* _set_tarid(char *str,int32_t id)
 107:../BLDCMotor/motor_protocol.c **** {
 108:../BLDCMotor/motor_protocol.c ****     USER_DEBUG_NORMAL("set id\r\n");
 109:../BLDCMotor/motor_protocol.c ****     float val = 0.0f;            
 110:../BLDCMotor/motor_protocol.c ****     if (!_findF_from_str(str,&val))
 111:../BLDCMotor/motor_protocol.c ****     {
 112:../BLDCMotor/motor_protocol.c ****         return 0;
 113:../BLDCMotor/motor_protocol.c ****     }
 114:../BLDCMotor/motor_protocol.c ****     sg_motordebug.id_targe = val;
 115:../BLDCMotor/motor_protocol.c ****     return 0;
 116:../BLDCMotor/motor_protocol.c **** } 
 117:../BLDCMotor/motor_protocol.c **** 
 118:../BLDCMotor/motor_protocol.c **** static void* _set_tariq(char *str,int32_t iq)
 119:../BLDCMotor/motor_protocol.c **** {
 120:../BLDCMotor/motor_protocol.c ****     float val = 0.0f;            
 121:../BLDCMotor/motor_protocol.c ****     if (!_findF_from_str(str,&val))
 122:../BLDCMotor/motor_protocol.c ****     {
 123:../BLDCMotor/motor_protocol.c ****         return 0;
 124:../BLDCMotor/motor_protocol.c ****     }
 125:../BLDCMotor/motor_protocol.c ****     sg_motordebug.iq_targe = val;
 126:../BLDCMotor/motor_protocol.c ****     return 0;    
 127:../BLDCMotor/motor_protocol.c **** }
 128:../BLDCMotor/motor_protocol.c **** 
 129:../BLDCMotor/motor_protocol.c **** static void* _set_pidpara_cmd(char *str,int32_t param)
ARM GAS  C:\Users\57308\AppData\Local\Temp\ccxYTDEW.s 			page 5


 130:../BLDCMotor/motor_protocol.c **** {
 103              		.loc 1 130 1 is_stmt 1 view -0
 104              		.cfi_startproc
 105              		@ args = 0, pretend = 0, frame = 0
 106              		@ frame_needed = 0, uses_anonymous_args = 0
 107              		@ link register save eliminated.
 131:../BLDCMotor/motor_protocol.c ****     sg_motordebug.motor_stat = 4;
 108              		.loc 1 131 5 view .LVU15
 109              		.loc 1 131 30 is_stmt 0 view .LVU16
 110 0000 024B     		ldr	r3, .L8
 111 0002 0422     		movs	r2, #4
 112 0004 C3F88020 		str	r2, [r3, #128]
 132:../BLDCMotor/motor_protocol.c ****     // sg_motordebug.motor_statue = ""
 133:../BLDCMotor/motor_protocol.c ****     return 0;
 113              		.loc 1 133 5 is_stmt 1 view .LVU17
 134:../BLDCMotor/motor_protocol.c **** }
 114              		.loc 1 134 1 is_stmt 0 view .LVU18
 115 0008 0020     		movs	r0, #0
 116              	.LVL5:
 117              		.loc 1 134 1 view .LVU19
 118 000a 7047     		bx	lr
 119              	.L9:
 120              		.align	2
 121              	.L8:
 122 000c 00000000 		.word	sg_motordebug
 123              		.cfi_endproc
 124              	.LFE248:
 126              		.section	.text._findF_from_str,"ax",%progbits
 127              		.align	1
 128              		.syntax unified
 129              		.thumb
 130              		.thumb_func
 132              	_findF_from_str:
 133              	.LVL6:
 134              	.LFB251:
 135:../BLDCMotor/motor_protocol.c **** 
 136:../BLDCMotor/motor_protocol.c **** static void* _set_tarspeed(char *str,int32_t iq)
 137:../BLDCMotor/motor_protocol.c **** {
 138:../BLDCMotor/motor_protocol.c ****     float val = 0.0f;            
 139:../BLDCMotor/motor_protocol.c ****     if (!_findF_from_str(str,&val))
 140:../BLDCMotor/motor_protocol.c ****     {
 141:../BLDCMotor/motor_protocol.c ****         return 0;
 142:../BLDCMotor/motor_protocol.c ****     }
 143:../BLDCMotor/motor_protocol.c ****     sg_motordebug.speed_targe = val;
 144:../BLDCMotor/motor_protocol.c ****     return 0; 
 145:../BLDCMotor/motor_protocol.c **** }
 146:../BLDCMotor/motor_protocol.c **** // 查找命令的函数  
 147:../BLDCMotor/motor_protocol.c **** static unsigned short _findcmd_from_map(const char *str, const commandmap_t *map, size_t mapSize) {
 148:../BLDCMotor/motor_protocol.c ****     if (str == NULL) {  
 149:../BLDCMotor/motor_protocol.c ****         return 0; // 如果传入的字符串为空，则返回0表示不匹配  
 150:../BLDCMotor/motor_protocol.c ****     }  
 151:../BLDCMotor/motor_protocol.c ****       
 152:../BLDCMotor/motor_protocol.c ****     for (size_t i = 0; i < mapSize; ++i) {  
 153:../BLDCMotor/motor_protocol.c ****         // 使用strncmp比较直到遇到冒号或字符串结束  
 154:../BLDCMotor/motor_protocol.c ****         size_t cmdLen = strlen(map[i].cmd);  
 155:../BLDCMotor/motor_protocol.c ****         if (strncmp(str, map[i].cmd, cmdLen) == 0 && str[cmdLen] == ':') { 
 156:../BLDCMotor/motor_protocol.c **** 
ARM GAS  C:\Users\57308\AppData\Local\Temp\ccxYTDEW.s 			page 6


 157:../BLDCMotor/motor_protocol.c ****             if (!map[i].pf_cmdexcue)
 158:../BLDCMotor/motor_protocol.c ****             {
 159:../BLDCMotor/motor_protocol.c ****                 USER_DEBUG_NORMAL("pf_cmdexcue NULL\r\n");
 160:../BLDCMotor/motor_protocol.c ****                 return 0;
 161:../BLDCMotor/motor_protocol.c ****             }
 162:../BLDCMotor/motor_protocol.c **** 
 163:../BLDCMotor/motor_protocol.c ****             map[i].pf_cmdexcue(str,0);
 164:../BLDCMotor/motor_protocol.c ****             return map[i].cmd_index; // 找到匹配项，返回对应值  
 165:../BLDCMotor/motor_protocol.c ****         }
 166:../BLDCMotor/motor_protocol.c ****     }
 167:../BLDCMotor/motor_protocol.c ****     USER_DEBUG_NORMAL("NO Cmd PATH\r\n");
 168:../BLDCMotor/motor_protocol.c ****     return 0; // 未找到匹配项，返回0  
 169:../BLDCMotor/motor_protocol.c **** }  
 170:../BLDCMotor/motor_protocol.c **** 
 171:../BLDCMotor/motor_protocol.c **** static int _findF_from_str(const char *str, float *val) {  
 135              		.loc 1 171 57 is_stmt 1 view -0
 136              		.cfi_startproc
 137              		@ args = 0, pretend = 0, frame = 8
 138              		@ frame_needed = 0, uses_anonymous_args = 0
 172:../BLDCMotor/motor_protocol.c ****     if (str == NULL || val == NULL) {  
 139              		.loc 1 172 5 view .LVU21
 140              		.loc 1 172 8 is_stmt 0 view .LVU22
 141 0000 38B3     		cbz	r0, .L15
 171:../BLDCMotor/motor_protocol.c ****     if (str == NULL || val == NULL) {  
 142              		.loc 1 171 57 discriminator 1 view .LVU23
 143 0002 30B5     		push	{r4, r5, lr}
 144              	.LCFI0:
 145              		.cfi_def_cfa_offset 12
 146              		.cfi_offset 4, -12
 147              		.cfi_offset 5, -8
 148              		.cfi_offset 14, -4
 149 0004 83B0     		sub	sp, sp, #12
 150              	.LCFI1:
 151              		.cfi_def_cfa_offset 24
 152 0006 0D46     		mov	r5, r1
 153              		.loc 1 172 21 discriminator 1 view .LVU24
 154 0008 29B3     		cbz	r1, .L16
 173:../BLDCMotor/motor_protocol.c ****         return 0; // Invalid arguments  
 174:../BLDCMotor/motor_protocol.c ****     }  
 175:../BLDCMotor/motor_protocol.c ****   
 176:../BLDCMotor/motor_protocol.c ****     const char *colonPos = strchr(str, ':'); // Find the colon in the string  
 155              		.loc 1 176 5 is_stmt 1 view .LVU25
 156              		.loc 1 176 28 is_stmt 0 view .LVU26
 157 000a 3A21     		movs	r1, #58
 158              	.LVL7:
 159              		.loc 1 176 28 view .LVU27
 160 000c FFF7FEFF 		bl	strchr
 161              	.LVL8:
 177:../BLDCMotor/motor_protocol.c ****     if (colonPos == NULL || *(colonPos + 1) == '\0') {  
 162              		.loc 1 177 5 is_stmt 1 view .LVU28
 163              		.loc 1 177 8 is_stmt 0 view .LVU29
 164 0010 0446     		mov	r4, r0
 165 0012 10B3     		cbz	r0, .L17
 166              		.loc 1 177 29 discriminator 1 view .LVU30
 167 0014 4378     		ldrb	r3, [r0, #1]	@ zero_extendqisi2
 168              		.loc 1 177 26 discriminator 1 view .LVU31
 169 0016 13B3     		cbz	r3, .L18
ARM GAS  C:\Users\57308\AppData\Local\Temp\ccxYTDEW.s 			page 7


 178:../BLDCMotor/motor_protocol.c ****         return 0; // No colon found or no characters after colon  
 179:../BLDCMotor/motor_protocol.c ****     }  
 180:../BLDCMotor/motor_protocol.c ****   
 181:../BLDCMotor/motor_protocol.c ****     // Skip the colon and any following whitespace  
 182:../BLDCMotor/motor_protocol.c ****     const char *numStart = colonPos + 1;  
 170              		.loc 1 182 5 is_stmt 1 view .LVU32
 171              		.loc 1 182 17 is_stmt 0 view .LVU33
 172 0018 0134     		adds	r4, r4, #1
 173              	.LVL9:
 183:../BLDCMotor/motor_protocol.c ****     while (isspace((unsigned char)*numStart)) {  
 174              		.loc 1 183 5 is_stmt 1 view .LVU34
 175              		.loc 1 183 11 is_stmt 0 view .LVU35
 176 001a 00E0     		b	.L12
 177              	.L13:
 184:../BLDCMotor/motor_protocol.c ****         numStart++;  
 178              		.loc 1 184 9 is_stmt 1 view .LVU36
 179              		.loc 1 184 17 is_stmt 0 view .LVU37
 180 001c 0134     		adds	r4, r4, #1
 181              	.LVL10:
 182              	.L12:
 183:../BLDCMotor/motor_protocol.c ****     while (isspace((unsigned char)*numStart)) {  
 183              		.loc 1 183 11 is_stmt 1 view .LVU38
 183:../BLDCMotor/motor_protocol.c ****     while (isspace((unsigned char)*numStart)) {  
 184              		.loc 1 183 12 is_stmt 0 view .LVU39
 185 001e 2278     		ldrb	r2, [r4]	@ zero_extendqisi2
 186 0020 114B     		ldr	r3, .L25
 187 0022 D35C     		ldrb	r3, [r2, r3]	@ zero_extendqisi2
 183:../BLDCMotor/motor_protocol.c ****     while (isspace((unsigned char)*numStart)) {  
 188              		.loc 1 183 11 view .LVU40
 189 0024 13F0080F 		tst	r3, #8
 190 0028 F8D1     		bne	.L13
 185:../BLDCMotor/motor_protocol.c ****     }  
 186:../BLDCMotor/motor_protocol.c ****   
 187:../BLDCMotor/motor_protocol.c ****     // Attempt to parse the number  
 188:../BLDCMotor/motor_protocol.c ****     char *endPtr;  
 191              		.loc 1 188 5 is_stmt 1 view .LVU41
 189:../BLDCMotor/motor_protocol.c ****     float parsedValue = strtof(numStart, &endPtr);  
 192              		.loc 1 189 5 view .LVU42
 193              		.loc 1 189 25 is_stmt 0 view .LVU43
 194 002a 01A9     		add	r1, sp, #4
 195 002c 2046     		mov	r0, r4
 196              	.LVL11:
 197              		.loc 1 189 25 view .LVU44
 198 002e FFF7FEFF 		bl	strtof
 199              	.LVL12:
 190:../BLDCMotor/motor_protocol.c ****   
 191:../BLDCMotor/motor_protocol.c ****     // Check if a valid number was parsed  
 192:../BLDCMotor/motor_protocol.c ****     if (endPtr != numStart && (*endPtr == '\0' || isspace((unsigned char)*endPtr))) {  
 200              		.loc 1 192 5 is_stmt 1 view .LVU45
 201              		.loc 1 192 16 is_stmt 0 view .LVU46
 202 0032 019B     		ldr	r3, [sp, #4]
 203              		.loc 1 192 8 view .LVU47
 204 0034 A342     		cmp	r3, r4
 205 0036 15D0     		beq	.L19
 206              		.loc 1 192 32 discriminator 1 view .LVU48
 207 0038 1B78     		ldrb	r3, [r3]	@ zero_extendqisi2
 208              		.loc 1 192 28 discriminator 1 view .LVU49
ARM GAS  C:\Users\57308\AppData\Local\Temp\ccxYTDEW.s 			page 8


 209 003a 33B1     		cbz	r3, .L14
 210              		.loc 1 192 51 discriminator 2 view .LVU50
 211 003c 0A4A     		ldr	r2, .L25
 212 003e 9B5C     		ldrb	r3, [r3, r2]	@ zero_extendqisi2
 213              		.loc 1 192 48 discriminator 2 view .LVU51
 214 0040 13F0080F 		tst	r3, #8
 215 0044 01D1     		bne	.L14
 193:../BLDCMotor/motor_protocol.c ****         *val = parsedValue;  
 194:../BLDCMotor/motor_protocol.c ****         return 1; // Success  
 195:../BLDCMotor/motor_protocol.c ****     }
 196:../BLDCMotor/motor_protocol.c ****   
 197:../BLDCMotor/motor_protocol.c ****     return 0; // Failure: no valid number found or trailing non-whitespace characters  
 216              		.loc 1 197 12 view .LVU52
 217 0046 0020     		movs	r0, #0
 218 0048 0AE0     		b	.L10
 219              	.L14:
 193:../BLDCMotor/motor_protocol.c ****         *val = parsedValue;  
 220              		.loc 1 193 9 is_stmt 1 view .LVU53
 193:../BLDCMotor/motor_protocol.c ****         *val = parsedValue;  
 221              		.loc 1 193 14 is_stmt 0 view .LVU54
 222 004a 85ED000A 		vstr.32	s0, [r5]
 194:../BLDCMotor/motor_protocol.c ****     }
 223              		.loc 1 194 9 is_stmt 1 view .LVU55
 194:../BLDCMotor/motor_protocol.c ****     }
 224              		.loc 1 194 16 is_stmt 0 view .LVU56
 225 004e 0120     		movs	r0, #1
 226 0050 06E0     		b	.L10
 227              	.LVL13:
 228              	.L15:
 229              	.LCFI2:
 230              		.cfi_def_cfa_offset 0
 231              		.cfi_restore 4
 232              		.cfi_restore 5
 233              		.cfi_restore 14
 173:../BLDCMotor/motor_protocol.c ****     }  
 234              		.loc 1 173 16 view .LVU57
 235 0052 0020     		movs	r0, #0
 236              	.LVL14:
 198:../BLDCMotor/motor_protocol.c **** }  
 237              		.loc 1 198 1 view .LVU58
 238 0054 7047     		bx	lr
 239              	.LVL15:
 240              	.L16:
 241              	.LCFI3:
 242              		.cfi_def_cfa_offset 24
 243              		.cfi_offset 4, -12
 244              		.cfi_offset 5, -8
 245              		.cfi_offset 14, -4
 173:../BLDCMotor/motor_protocol.c ****     }  
 246              		.loc 1 173 16 view .LVU59
 247 0056 0020     		movs	r0, #0
 248              	.LVL16:
 173:../BLDCMotor/motor_protocol.c ****     }  
 249              		.loc 1 173 16 view .LVU60
 250 0058 02E0     		b	.L10
 251              	.LVL17:
 252              	.L17:
ARM GAS  C:\Users\57308\AppData\Local\Temp\ccxYTDEW.s 			page 9


 178:../BLDCMotor/motor_protocol.c ****     }  
 253              		.loc 1 178 16 view .LVU61
 254 005a 0020     		movs	r0, #0
 255              	.LVL18:
 178:../BLDCMotor/motor_protocol.c ****     }  
 256              		.loc 1 178 16 view .LVU62
 257 005c 00E0     		b	.L10
 258              	.LVL19:
 259              	.L18:
 178:../BLDCMotor/motor_protocol.c ****     }  
 260              		.loc 1 178 16 view .LVU63
 261 005e 0020     		movs	r0, #0
 262              	.LVL20:
 263              	.L10:
 264              		.loc 1 198 1 view .LVU64
 265 0060 03B0     		add	sp, sp, #12
 266              	.LCFI4:
 267              		.cfi_remember_state
 268              		.cfi_def_cfa_offset 12
 269              		@ sp needed
 270 0062 30BD     		pop	{r4, r5, pc}
 271              	.LVL21:
 272              	.L19:
 273              	.LCFI5:
 274              		.cfi_restore_state
 197:../BLDCMotor/motor_protocol.c **** }  
 275              		.loc 1 197 12 view .LVU65
 276 0064 0020     		movs	r0, #0
 277 0066 FBE7     		b	.L10
 278              	.L26:
 279              		.align	2
 280              	.L25:
 281 0068 01000000 		.word	_ctype_+1
 282              		.cfi_endproc
 283              	.LFE251:
 285              		.section	.text._set_tarspeed,"ax",%progbits
 286              		.align	1
 287              		.syntax unified
 288              		.thumb
 289              		.thumb_func
 291              	_set_tarspeed:
 292              	.LVL22:
 293              	.LFB249:
 137:../BLDCMotor/motor_protocol.c ****     float val = 0.0f;            
 294              		.loc 1 137 1 is_stmt 1 view -0
 295              		.cfi_startproc
 296              		@ args = 0, pretend = 0, frame = 8
 297              		@ frame_needed = 0, uses_anonymous_args = 0
 137:../BLDCMotor/motor_protocol.c ****     float val = 0.0f;            
 298              		.loc 1 137 1 is_stmt 0 view .LVU67
 299 0000 00B5     		push	{lr}
 300              	.LCFI6:
 301              		.cfi_def_cfa_offset 4
 302              		.cfi_offset 14, -4
 303 0002 83B0     		sub	sp, sp, #12
 304              	.LCFI7:
 305              		.cfi_def_cfa_offset 16
ARM GAS  C:\Users\57308\AppData\Local\Temp\ccxYTDEW.s 			page 10


 138:../BLDCMotor/motor_protocol.c ****     if (!_findF_from_str(str,&val))
 306              		.loc 1 138 5 is_stmt 1 view .LVU68
 138:../BLDCMotor/motor_protocol.c ****     if (!_findF_from_str(str,&val))
 307              		.loc 1 138 11 is_stmt 0 view .LVU69
 308 0004 0023     		movs	r3, #0
 309 0006 0193     		str	r3, [sp, #4]	@ float
 139:../BLDCMotor/motor_protocol.c ****     {
 310              		.loc 1 139 5 is_stmt 1 view .LVU70
 139:../BLDCMotor/motor_protocol.c ****     {
 311              		.loc 1 139 10 is_stmt 0 view .LVU71
 312 0008 01A9     		add	r1, sp, #4
 313              	.LVL23:
 139:../BLDCMotor/motor_protocol.c ****     {
 314              		.loc 1 139 10 view .LVU72
 315 000a FFF7FEFF 		bl	_findF_from_str
 316              	.LVL24:
 139:../BLDCMotor/motor_protocol.c ****     {
 317              		.loc 1 139 8 view .LVU73
 318 000e 10B1     		cbz	r0, .L28
 143:../BLDCMotor/motor_protocol.c ****     return 0; 
 319              		.loc 1 143 5 is_stmt 1 view .LVU74
 143:../BLDCMotor/motor_protocol.c ****     return 0; 
 320              		.loc 1 143 31 is_stmt 0 view .LVU75
 321 0010 034B     		ldr	r3, .L30
 322 0012 019A     		ldr	r2, [sp, #4]	@ float
 323 0014 5A65     		str	r2, [r3, #84]	@ float
 144:../BLDCMotor/motor_protocol.c **** }
 324              		.loc 1 144 5 is_stmt 1 view .LVU76
 325              	.L28:
 145:../BLDCMotor/motor_protocol.c **** // 查找命令的函数  
 326              		.loc 1 145 1 is_stmt 0 view .LVU77
 327 0016 0020     		movs	r0, #0
 328 0018 03B0     		add	sp, sp, #12
 329              	.LCFI8:
 330              		.cfi_def_cfa_offset 4
 331              		@ sp needed
 332 001a 5DF804FB 		ldr	pc, [sp], #4
 333              	.L31:
 334 001e 00BF     		.align	2
 335              	.L30:
 336 0020 00000000 		.word	sg_motordebug
 337              		.cfi_endproc
 338              	.LFE249:
 340              		.section	.text._set_d_ki,"ax",%progbits
 341              		.align	1
 342              		.syntax unified
 343              		.thumb
 344              		.thumb_func
 346              	_set_d_ki:
 347              	.LVL25:
 348              	.LFB243:
  86:../BLDCMotor/motor_protocol.c ****     float val = 0.0f;            
 349              		.loc 1 86 1 is_stmt 1 view -0
 350              		.cfi_startproc
 351              		@ args = 0, pretend = 0, frame = 8
 352              		@ frame_needed = 0, uses_anonymous_args = 0
  86:../BLDCMotor/motor_protocol.c ****     float val = 0.0f;            
ARM GAS  C:\Users\57308\AppData\Local\Temp\ccxYTDEW.s 			page 11


 353              		.loc 1 86 1 is_stmt 0 view .LVU79
 354 0000 00B5     		push	{lr}
 355              	.LCFI9:
 356              		.cfi_def_cfa_offset 4
 357              		.cfi_offset 14, -4
 358 0002 83B0     		sub	sp, sp, #12
 359              	.LCFI10:
 360              		.cfi_def_cfa_offset 16
  87:../BLDCMotor/motor_protocol.c ****     if (!_findF_from_str(str,&val))
 361              		.loc 1 87 5 is_stmt 1 view .LVU80
  87:../BLDCMotor/motor_protocol.c ****     if (!_findF_from_str(str,&val))
 362              		.loc 1 87 11 is_stmt 0 view .LVU81
 363 0004 0023     		movs	r3, #0
 364 0006 0193     		str	r3, [sp, #4]	@ float
  88:../BLDCMotor/motor_protocol.c ****     {
 365              		.loc 1 88 5 is_stmt 1 view .LVU82
  88:../BLDCMotor/motor_protocol.c ****     {
 366              		.loc 1 88 10 is_stmt 0 view .LVU83
 367 0008 01A9     		add	r1, sp, #4
 368              	.LVL26:
  88:../BLDCMotor/motor_protocol.c ****     {
 369              		.loc 1 88 10 view .LVU84
 370 000a FFF7FEFF 		bl	_findF_from_str
 371              	.LVL27:
  88:../BLDCMotor/motor_protocol.c ****     {
 372              		.loc 1 88 8 view .LVU85
 373 000e 10B1     		cbz	r0, .L33
  92:../BLDCMotor/motor_protocol.c ****     return 0; 
 374              		.loc 1 92 5 is_stmt 1 view .LVU86
  92:../BLDCMotor/motor_protocol.c ****     return 0; 
 375              		.loc 1 92 28 is_stmt 0 view .LVU87
 376 0010 034B     		ldr	r3, .L35
 377 0012 019A     		ldr	r2, [sp, #4]	@ float
 378 0014 DA66     		str	r2, [r3, #108]	@ float
  93:../BLDCMotor/motor_protocol.c **** }
 379              		.loc 1 93 5 is_stmt 1 view .LVU88
 380              	.L33:
  94:../BLDCMotor/motor_protocol.c **** static void* _set_motorstart(char *str,int32_t iq)
 381              		.loc 1 94 1 is_stmt 0 view .LVU89
 382 0016 0020     		movs	r0, #0
 383 0018 03B0     		add	sp, sp, #12
 384              	.LCFI11:
 385              		.cfi_def_cfa_offset 4
 386              		@ sp needed
 387 001a 5DF804FB 		ldr	pc, [sp], #4
 388              	.L36:
 389 001e 00BF     		.align	2
 390              	.L35:
 391 0020 00000000 		.word	sg_motordebug
 392              		.cfi_endproc
 393              	.LFE243:
 395              		.section	.text._set_d_kp,"ax",%progbits
 396              		.align	1
 397              		.syntax unified
 398              		.thumb
 399              		.thumb_func
 401              	_set_d_kp:
ARM GAS  C:\Users\57308\AppData\Local\Temp\ccxYTDEW.s 			page 12


 402              	.LVL28:
 403              	.LFB242:
  76:../BLDCMotor/motor_protocol.c ****     float val = 0.0f;
 404              		.loc 1 76 1 is_stmt 1 view -0
 405              		.cfi_startproc
 406              		@ args = 0, pretend = 0, frame = 8
 407              		@ frame_needed = 0, uses_anonymous_args = 0
  76:../BLDCMotor/motor_protocol.c ****     float val = 0.0f;
 408              		.loc 1 76 1 is_stmt 0 view .LVU91
 409 0000 00B5     		push	{lr}
 410              	.LCFI12:
 411              		.cfi_def_cfa_offset 4
 412              		.cfi_offset 14, -4
 413 0002 83B0     		sub	sp, sp, #12
 414              	.LCFI13:
 415              		.cfi_def_cfa_offset 16
  77:../BLDCMotor/motor_protocol.c ****     if (!_findF_from_str(str,&val))
 416              		.loc 1 77 5 is_stmt 1 view .LVU92
  77:../BLDCMotor/motor_protocol.c ****     if (!_findF_from_str(str,&val))
 417              		.loc 1 77 11 is_stmt 0 view .LVU93
 418 0004 0023     		movs	r3, #0
 419 0006 0193     		str	r3, [sp, #4]	@ float
  78:../BLDCMotor/motor_protocol.c ****     {
 420              		.loc 1 78 5 is_stmt 1 view .LVU94
  78:../BLDCMotor/motor_protocol.c ****     {
 421              		.loc 1 78 10 is_stmt 0 view .LVU95
 422 0008 01A9     		add	r1, sp, #4
 423              	.LVL29:
  78:../BLDCMotor/motor_protocol.c ****     {
 424              		.loc 1 78 10 view .LVU96
 425 000a FFF7FEFF 		bl	_findF_from_str
 426              	.LVL30:
  78:../BLDCMotor/motor_protocol.c ****     {
 427              		.loc 1 78 8 view .LVU97
 428 000e 10B1     		cbz	r0, .L38
  82:../BLDCMotor/motor_protocol.c ****     return 0;    
 429              		.loc 1 82 5 is_stmt 1 view .LVU98
  82:../BLDCMotor/motor_protocol.c ****     return 0;    
 430              		.loc 1 82 28 is_stmt 0 view .LVU99
 431 0010 034B     		ldr	r3, .L40
 432 0012 019A     		ldr	r2, [sp, #4]	@ float
 433 0014 9A66     		str	r2, [r3, #104]	@ float
  83:../BLDCMotor/motor_protocol.c **** }
 434              		.loc 1 83 5 is_stmt 1 view .LVU100
 435              	.L38:
  84:../BLDCMotor/motor_protocol.c **** static void* _set_d_ki(char *str,int32_t ki)
 436              		.loc 1 84 1 is_stmt 0 view .LVU101
 437 0016 0020     		movs	r0, #0
 438 0018 03B0     		add	sp, sp, #12
 439              	.LCFI14:
 440              		.cfi_def_cfa_offset 4
 441              		@ sp needed
 442 001a 5DF804FB 		ldr	pc, [sp], #4
 443              	.L41:
 444 001e 00BF     		.align	2
 445              	.L40:
 446 0020 00000000 		.word	sg_motordebug
ARM GAS  C:\Users\57308\AppData\Local\Temp\ccxYTDEW.s 			page 13


 447              		.cfi_endproc
 448              	.LFE242:
 450              		.section	.text._set_tariq,"ax",%progbits
 451              		.align	1
 452              		.syntax unified
 453              		.thumb
 454              		.thumb_func
 456              	_set_tariq:
 457              	.LVL31:
 458              	.LFB247:
 119:../BLDCMotor/motor_protocol.c ****     float val = 0.0f;            
 459              		.loc 1 119 1 is_stmt 1 view -0
 460              		.cfi_startproc
 461              		@ args = 0, pretend = 0, frame = 8
 462              		@ frame_needed = 0, uses_anonymous_args = 0
 119:../BLDCMotor/motor_protocol.c ****     float val = 0.0f;            
 463              		.loc 1 119 1 is_stmt 0 view .LVU103
 464 0000 00B5     		push	{lr}
 465              	.LCFI15:
 466              		.cfi_def_cfa_offset 4
 467              		.cfi_offset 14, -4
 468 0002 83B0     		sub	sp, sp, #12
 469              	.LCFI16:
 470              		.cfi_def_cfa_offset 16
 120:../BLDCMotor/motor_protocol.c ****     if (!_findF_from_str(str,&val))
 471              		.loc 1 120 5 is_stmt 1 view .LVU104
 120:../BLDCMotor/motor_protocol.c ****     if (!_findF_from_str(str,&val))
 472              		.loc 1 120 11 is_stmt 0 view .LVU105
 473 0004 0023     		movs	r3, #0
 474 0006 0193     		str	r3, [sp, #4]	@ float
 121:../BLDCMotor/motor_protocol.c ****     {
 475              		.loc 1 121 5 is_stmt 1 view .LVU106
 121:../BLDCMotor/motor_protocol.c ****     {
 476              		.loc 1 121 10 is_stmt 0 view .LVU107
 477 0008 01A9     		add	r1, sp, #4
 478              	.LVL32:
 121:../BLDCMotor/motor_protocol.c ****     {
 479              		.loc 1 121 10 view .LVU108
 480 000a FFF7FEFF 		bl	_findF_from_str
 481              	.LVL33:
 121:../BLDCMotor/motor_protocol.c ****     {
 482              		.loc 1 121 8 view .LVU109
 483 000e 10B1     		cbz	r0, .L43
 125:../BLDCMotor/motor_protocol.c ****     return 0;    
 484              		.loc 1 125 5 is_stmt 1 view .LVU110
 125:../BLDCMotor/motor_protocol.c ****     return 0;    
 485              		.loc 1 125 28 is_stmt 0 view .LVU111
 486 0010 034B     		ldr	r3, .L45
 487 0012 019A     		ldr	r2, [sp, #4]	@ float
 488 0014 9A64     		str	r2, [r3, #72]	@ float
 126:../BLDCMotor/motor_protocol.c **** }
 489              		.loc 1 126 5 is_stmt 1 view .LVU112
 490              	.L43:
 127:../BLDCMotor/motor_protocol.c **** 
 491              		.loc 1 127 1 is_stmt 0 view .LVU113
 492 0016 0020     		movs	r0, #0
 493 0018 03B0     		add	sp, sp, #12
ARM GAS  C:\Users\57308\AppData\Local\Temp\ccxYTDEW.s 			page 14


 494              	.LCFI17:
 495              		.cfi_def_cfa_offset 4
 496              		@ sp needed
 497 001a 5DF804FB 		ldr	pc, [sp], #4
 498              	.L46:
 499 001e 00BF     		.align	2
 500              	.L45:
 501 0020 00000000 		.word	sg_motordebug
 502              		.cfi_endproc
 503              	.LFE247:
 505              		.section	.rodata._set_tarid.str1.4,"aMS",%progbits,1
 506              		.align	2
 507              	.LC1:
 508 0000 73657420 		.ascii	"set id\015\012\000"
 508      69640D0A 
 508      00
 509              		.section	.text._set_tarid,"ax",%progbits
 510              		.align	1
 511              		.syntax unified
 512              		.thumb
 513              		.thumb_func
 515              	_set_tarid:
 516              	.LVL34:
 517              	.LFB246:
 107:../BLDCMotor/motor_protocol.c ****     USER_DEBUG_NORMAL("set id\r\n");
 518              		.loc 1 107 1 is_stmt 1 view -0
 519              		.cfi_startproc
 520              		@ args = 0, pretend = 0, frame = 8
 521              		@ frame_needed = 0, uses_anonymous_args = 0
 107:../BLDCMotor/motor_protocol.c ****     USER_DEBUG_NORMAL("set id\r\n");
 522              		.loc 1 107 1 is_stmt 0 view .LVU115
 523 0000 10B5     		push	{r4, lr}
 524              	.LCFI18:
 525              		.cfi_def_cfa_offset 8
 526              		.cfi_offset 4, -8
 527              		.cfi_offset 14, -4
 528 0002 82B0     		sub	sp, sp, #8
 529              	.LCFI19:
 530              		.cfi_def_cfa_offset 16
 531 0004 0446     		mov	r4, r0
 108:../BLDCMotor/motor_protocol.c ****     float val = 0.0f;            
 532              		.loc 1 108 5 is_stmt 1 view .LVU116
 533 0006 0849     		ldr	r1, .L50
 534              	.LVL35:
 108:../BLDCMotor/motor_protocol.c ****     float val = 0.0f;            
 535              		.loc 1 108 5 is_stmt 0 view .LVU117
 536 0008 0020     		movs	r0, #0
 537              	.LVL36:
 108:../BLDCMotor/motor_protocol.c ****     float val = 0.0f;            
 538              		.loc 1 108 5 view .LVU118
 539 000a FFF7FEFF 		bl	SEGGER_RTT_printf
 540              	.LVL37:
 109:../BLDCMotor/motor_protocol.c ****     if (!_findF_from_str(str,&val))
 541              		.loc 1 109 5 is_stmt 1 view .LVU119
 109:../BLDCMotor/motor_protocol.c ****     if (!_findF_from_str(str,&val))
 542              		.loc 1 109 11 is_stmt 0 view .LVU120
 543 000e 0023     		movs	r3, #0
ARM GAS  C:\Users\57308\AppData\Local\Temp\ccxYTDEW.s 			page 15


 544 0010 0193     		str	r3, [sp, #4]	@ float
 110:../BLDCMotor/motor_protocol.c ****     {
 545              		.loc 1 110 5 is_stmt 1 view .LVU121
 110:../BLDCMotor/motor_protocol.c ****     {
 546              		.loc 1 110 10 is_stmt 0 view .LVU122
 547 0012 01A9     		add	r1, sp, #4
 548 0014 2046     		mov	r0, r4
 549 0016 FFF7FEFF 		bl	_findF_from_str
 550              	.LVL38:
 110:../BLDCMotor/motor_protocol.c ****     {
 551              		.loc 1 110 8 view .LVU123
 552 001a 10B1     		cbz	r0, .L48
 114:../BLDCMotor/motor_protocol.c ****     return 0;
 553              		.loc 1 114 5 is_stmt 1 view .LVU124
 114:../BLDCMotor/motor_protocol.c ****     return 0;
 554              		.loc 1 114 28 is_stmt 0 view .LVU125
 555 001c 034B     		ldr	r3, .L50+4
 556 001e 019A     		ldr	r2, [sp, #4]	@ float
 557 0020 1A64     		str	r2, [r3, #64]	@ float
 115:../BLDCMotor/motor_protocol.c **** } 
 558              		.loc 1 115 5 is_stmt 1 view .LVU126
 559              	.L48:
 116:../BLDCMotor/motor_protocol.c **** 
 560              		.loc 1 116 1 is_stmt 0 view .LVU127
 561 0022 0020     		movs	r0, #0
 562 0024 02B0     		add	sp, sp, #8
 563              	.LCFI20:
 564              		.cfi_def_cfa_offset 8
 565              		@ sp needed
 566 0026 10BD     		pop	{r4, pc}
 567              	.LVL39:
 568              	.L51:
 116:../BLDCMotor/motor_protocol.c **** 
 569              		.loc 1 116 1 view .LVU128
 570              		.align	2
 571              	.L50:
 572 0028 00000000 		.word	.LC1
 573 002c 00000000 		.word	sg_motordebug
 574              		.cfi_endproc
 575              	.LFE246:
 577              		.section	.rodata._findcmd_from_map.str1.4,"aMS",%progbits,1
 578              		.align	2
 579              	.LC2:
 580 0000 70665F63 		.ascii	"pf_cmdexcue NULL\015\012\000"
 580      6D646578 
 580      63756520 
 580      4E554C4C 
 580      0D0A00
 581 0013 00       		.align	2
 582              	.LC3:
 583 0014 4E4F2043 		.ascii	"NO Cmd PATH\015\012\000"
 583      6D642050 
 583      4154480D 
 583      0A00
 584              		.section	.text._findcmd_from_map,"ax",%progbits
 585              		.align	1
 586              		.syntax unified
ARM GAS  C:\Users\57308\AppData\Local\Temp\ccxYTDEW.s 			page 16


 587              		.thumb
 588              		.thumb_func
 590              	_findcmd_from_map:
 591              	.LVL40:
 592              	.LFB250:
 147:../BLDCMotor/motor_protocol.c ****     if (str == NULL) {  
 593              		.loc 1 147 99 is_stmt 1 view -0
 594              		.cfi_startproc
 595              		@ args = 0, pretend = 0, frame = 0
 596              		@ frame_needed = 0, uses_anonymous_args = 0
 148:../BLDCMotor/motor_protocol.c ****         return 0; // 如果传入的字符串为空，则返回0表示不匹配  
 597              		.loc 1 148 5 view .LVU130
 148:../BLDCMotor/motor_protocol.c ****         return 0; // 如果传入的字符串为空，则返回0表示不匹配  
 598              		.loc 1 148 8 is_stmt 0 view .LVU131
 599 0000 A0B3     		cbz	r0, .L58
 147:../BLDCMotor/motor_protocol.c ****     if (str == NULL) {  
 600              		.loc 1 147 99 view .LVU132
 601 0002 2DE9F047 		push	{r4, r5, r6, r7, r8, r9, r10, lr}
 602              	.LCFI21:
 603              		.cfi_def_cfa_offset 32
 604              		.cfi_offset 4, -32
 605              		.cfi_offset 5, -28
 606              		.cfi_offset 6, -24
 607              		.cfi_offset 7, -20
 608              		.cfi_offset 8, -16
 609              		.cfi_offset 9, -12
 610              		.cfi_offset 10, -8
 611              		.cfi_offset 14, -4
 612 0006 0F46     		mov	r7, r1
 613 0008 9146     		mov	r9, r2
 614 000a 8046     		mov	r8, r0
 615              	.LBB2:
 152:../BLDCMotor/motor_protocol.c ****         // 使用strncmp比较直到遇到冒号或字符串结束  
 616              		.loc 1 152 17 view .LVU133
 617 000c 0024     		movs	r4, #0
 618 000e 05E0     		b	.L54
 619              	.LVL41:
 620              	.L64:
 621              	.LBB3:
 159:../BLDCMotor/motor_protocol.c ****                 return 0;
 622              		.loc 1 159 17 is_stmt 1 view .LVU134
 623 0010 1749     		ldr	r1, .L65
 624 0012 FFF7FEFF 		bl	SEGGER_RTT_printf
 625              	.LVL42:
 160:../BLDCMotor/motor_protocol.c ****             }
 626              		.loc 1 160 17 view .LVU135
 160:../BLDCMotor/motor_protocol.c ****             }
 627              		.loc 1 160 24 is_stmt 0 view .LVU136
 628 0016 0020     		movs	r0, #0
 629 0018 26E0     		b	.L53
 630              	.L55:
 631              	.LBE3:
 152:../BLDCMotor/motor_protocol.c ****         // 使用strncmp比较直到遇到冒号或字符串结束  
 632              		.loc 1 152 37 is_stmt 1 discriminator 2 view .LVU137
 633 001a 0134     		adds	r4, r4, #1
 634              	.LVL43:
 635              	.L54:
ARM GAS  C:\Users\57308\AppData\Local\Temp\ccxYTDEW.s 			page 17


 152:../BLDCMotor/motor_protocol.c ****         // 使用strncmp比较直到遇到冒号或字符串结束  
 636              		.loc 1 152 24 discriminator 1 view .LVU138
 152:../BLDCMotor/motor_protocol.c ****         // 使用strncmp比较直到遇到冒号或字符串结束  
 637              		.loc 1 152 5 is_stmt 0 discriminator 1 view .LVU139
 638 001c 4C45     		cmp	r4, r9
 639 001e 1ED2     		bcs	.L63
 640              	.LBB4:
 154:../BLDCMotor/motor_protocol.c ****         if (strncmp(str, map[i].cmd, cmdLen) == 0 && str[cmdLen] == ':') { 
 641              		.loc 1 154 9 is_stmt 1 view .LVU140
 154:../BLDCMotor/motor_protocol.c ****         if (strncmp(str, map[i].cmd, cmdLen) == 0 && str[cmdLen] == ':') { 
 642              		.loc 1 154 35 is_stmt 0 view .LVU141
 643 0020 04EB4403 		add	r3, r4, r4, lsl #1
 644 0024 07EB830A 		add	r10, r7, r3, lsl #2
 154:../BLDCMotor/motor_protocol.c ****         if (strncmp(str, map[i].cmd, cmdLen) == 0 && str[cmdLen] == ':') { 
 645              		.loc 1 154 25 view .LVU142
 646 0028 57F82360 		ldr	r6, [r7, r3, lsl #2]
 647 002c 3046     		mov	r0, r6
 648 002e FFF7FEFF 		bl	strlen
 649              	.LVL44:
 650 0032 0546     		mov	r5, r0
 651              	.LVL45:
 155:../BLDCMotor/motor_protocol.c **** 
 652              		.loc 1 155 9 is_stmt 1 view .LVU143
 155:../BLDCMotor/motor_protocol.c **** 
 653              		.loc 1 155 13 is_stmt 0 view .LVU144
 654 0034 0246     		mov	r2, r0
 655 0036 3146     		mov	r1, r6
 656 0038 4046     		mov	r0, r8
 657              	.LVL46:
 155:../BLDCMotor/motor_protocol.c **** 
 658              		.loc 1 155 13 view .LVU145
 659 003a FFF7FEFF 		bl	strncmp
 660              	.LVL47:
 155:../BLDCMotor/motor_protocol.c **** 
 661              		.loc 1 155 12 view .LVU146
 662 003e 0028     		cmp	r0, #0
 663 0040 EBD1     		bne	.L55
 155:../BLDCMotor/motor_protocol.c **** 
 664              		.loc 1 155 57 discriminator 1 view .LVU147
 665 0042 18F80530 		ldrb	r3, [r8, r5]	@ zero_extendqisi2
 155:../BLDCMotor/motor_protocol.c **** 
 666              		.loc 1 155 51 discriminator 1 view .LVU148
 667 0046 3A2B     		cmp	r3, #58
 668 0048 E7D1     		bne	.L55
 157:../BLDCMotor/motor_protocol.c ****             {
 669              		.loc 1 157 13 is_stmt 1 view .LVU149
 157:../BLDCMotor/motor_protocol.c ****             {
 670              		.loc 1 157 24 is_stmt 0 view .LVU150
 671 004a DAF80830 		ldr	r3, [r10, #8]
 157:../BLDCMotor/motor_protocol.c ****             {
 672              		.loc 1 157 16 view .LVU151
 673 004e 002B     		cmp	r3, #0
 674 0050 DED0     		beq	.L64
 163:../BLDCMotor/motor_protocol.c ****             return map[i].cmd_index; // 找到匹配项，返回对应值  
 675              		.loc 1 163 13 is_stmt 1 view .LVU152
 676 0052 0021     		movs	r1, #0
 677 0054 4046     		mov	r0, r8
ARM GAS  C:\Users\57308\AppData\Local\Temp\ccxYTDEW.s 			page 18


 678 0056 9847     		blx	r3
 679              	.LVL48:
 164:../BLDCMotor/motor_protocol.c ****         }
 680              		.loc 1 164 13 view .LVU153
 164:../BLDCMotor/motor_protocol.c ****         }
 681              		.loc 1 164 26 is_stmt 0 view .LVU154
 682 0058 BAF80400 		ldrh	r0, [r10, #4]
 683 005c 04E0     		b	.L53
 684              	.LVL49:
 685              	.L63:
 164:../BLDCMotor/motor_protocol.c ****         }
 686              		.loc 1 164 26 view .LVU155
 687              	.LBE4:
 688              	.LBE2:
 167:../BLDCMotor/motor_protocol.c ****     return 0; // 未找到匹配项，返回0  
 689              		.loc 1 167 5 is_stmt 1 view .LVU156
 690 005e 0549     		ldr	r1, .L65+4
 691 0060 0020     		movs	r0, #0
 692 0062 FFF7FEFF 		bl	SEGGER_RTT_printf
 693              	.LVL50:
 168:../BLDCMotor/motor_protocol.c **** }  
 694              		.loc 1 168 5 view .LVU157
 168:../BLDCMotor/motor_protocol.c **** }  
 695              		.loc 1 168 12 is_stmt 0 view .LVU158
 696 0066 0020     		movs	r0, #0
 697              	.L53:
 169:../BLDCMotor/motor_protocol.c **** 
 698              		.loc 1 169 1 view .LVU159
 699 0068 BDE8F087 		pop	{r4, r5, r6, r7, r8, r9, r10, pc}
 700              	.LVL51:
 701              	.L58:
 702              	.LCFI22:
 703              		.cfi_def_cfa_offset 0
 704              		.cfi_restore 4
 705              		.cfi_restore 5
 706              		.cfi_restore 6
 707              		.cfi_restore 7
 708              		.cfi_restore 8
 709              		.cfi_restore 9
 710              		.cfi_restore 10
 711              		.cfi_restore 14
 149:../BLDCMotor/motor_protocol.c ****     }  
 712              		.loc 1 149 16 view .LVU160
 713 006c 0020     		movs	r0, #0
 714              	.LVL52:
 169:../BLDCMotor/motor_protocol.c **** 
 715              		.loc 1 169 1 view .LVU161
 716 006e 7047     		bx	lr
 717              	.L66:
 718              		.align	2
 719              	.L65:
 720 0070 00000000 		.word	.LC2
 721 0074 14000000 		.word	.LC3
 722              		.cfi_endproc
 723              	.LFE250:
 725              		.section	.text.motorprotocol_getdata,"ax",%progbits
 726              		.align	1
ARM GAS  C:\Users\57308\AppData\Local\Temp\ccxYTDEW.s 			page 19


 727              		.global	motorprotocol_getdata
 728              		.syntax unified
 729              		.thumb
 730              		.thumb_func
 732              	motorprotocol_getdata:
 733              	.LVL53:
 734              	.LFB239:
  53:../BLDCMotor/motor_protocol.c ****     strcpy(Rx_Buf,data);
 735              		.loc 1 53 1 is_stmt 1 view -0
 736              		.cfi_startproc
 737              		@ args = 0, pretend = 0, frame = 0
 738              		@ frame_needed = 0, uses_anonymous_args = 0
  53:../BLDCMotor/motor_protocol.c ****     strcpy(Rx_Buf,data);
 739              		.loc 1 53 1 is_stmt 0 view .LVU163
 740 0000 08B5     		push	{r3, lr}
 741              	.LCFI23:
 742              		.cfi_def_cfa_offset 8
 743              		.cfi_offset 3, -8
 744              		.cfi_offset 14, -4
 745 0002 0146     		mov	r1, r0
  54:../BLDCMotor/motor_protocol.c **** }
 746              		.loc 1 54 5 is_stmt 1 view .LVU164
 747 0004 0148     		ldr	r0, .L69
 748              	.LVL54:
  54:../BLDCMotor/motor_protocol.c **** }
 749              		.loc 1 54 5 is_stmt 0 view .LVU165
 750 0006 FFF7FEFF 		bl	strcpy
 751              	.LVL55:
  55:../BLDCMotor/motor_protocol.c **** 
 752              		.loc 1 55 1 view .LVU166
 753 000a 08BD     		pop	{r3, pc}
 754              	.L70:
 755              		.align	2
 756              	.L69:
 757 000c 00000000 		.word	.LANCHOR0
 758              		.cfi_endproc
 759              	.LFE239:
 761              		.section	.text.motorprotocol_pause,"ax",%progbits
 762              		.align	1
 763              		.global	motorprotocol_pause
 764              		.syntax unified
 765              		.thumb
 766              		.thumb_func
 768              	motorprotocol_pause:
 769              	.LVL56:
 770              	.LFB240:
  58:../BLDCMotor/motor_protocol.c ****     float value =0.0f;
 771              		.loc 1 58 1 is_stmt 1 view -0
 772              		.cfi_startproc
 773              		@ args = 0, pretend = 0, frame = 0
 774              		@ frame_needed = 0, uses_anonymous_args = 0
  58:../BLDCMotor/motor_protocol.c ****     float value =0.0f;
 775              		.loc 1 58 1 is_stmt 0 view .LVU168
 776 0000 08B5     		push	{r3, lr}
 777              	.LCFI24:
 778              		.cfi_def_cfa_offset 8
 779              		.cfi_offset 3, -8
ARM GAS  C:\Users\57308\AppData\Local\Temp\ccxYTDEW.s 			page 20


 780              		.cfi_offset 14, -4
  59:../BLDCMotor/motor_protocol.c ****     unsigned short cmd_ID;
 781              		.loc 1 59 5 is_stmt 1 view .LVU169
 782              	.LVL57:
  60:../BLDCMotor/motor_protocol.c ****     if (cmd[0] == 0 && cmd[1] == 0)
 783              		.loc 1 60 5 view .LVU170
  61:../BLDCMotor/motor_protocol.c ****     {
 784              		.loc 1 61 5 view .LVU171
  61:../BLDCMotor/motor_protocol.c ****     {
 785              		.loc 1 61 12 is_stmt 0 view .LVU172
 786 0002 0378     		ldrb	r3, [r0]	@ zero_extendqisi2
  61:../BLDCMotor/motor_protocol.c ****     {
 787              		.loc 1 61 8 view .LVU173
 788 0004 0BB9     		cbnz	r3, .L72
  61:../BLDCMotor/motor_protocol.c ****     {
 789              		.loc 1 61 27 discriminator 1 view .LVU174
 790 0006 4378     		ldrb	r3, [r0, #1]	@ zero_extendqisi2
  61:../BLDCMotor/motor_protocol.c ****     {
 791              		.loc 1 61 21 discriminator 1 view .LVU175
 792 0008 1BB1     		cbz	r3, .L71
 793              	.L72:
  66:../BLDCMotor/motor_protocol.c ****     cmd_ID = _findcmd_from_map(cmd,sg_commandmap,mapSize);    
 794              		.loc 1 66 5 is_stmt 1 view .LVU176
 795              	.LVL58:
  67:../BLDCMotor/motor_protocol.c **** }
 796              		.loc 1 67 5 view .LVU177
  67:../BLDCMotor/motor_protocol.c **** }
 797              		.loc 1 67 14 is_stmt 0 view .LVU178
 798 000a 0922     		movs	r2, #9
 799 000c 0149     		ldr	r1, .L75
 800 000e FFF7FEFF 		bl	_findcmd_from_map
 801              	.LVL59:
 802              	.L71:
  68:../BLDCMotor/motor_protocol.c **** 
 803              		.loc 1 68 1 view .LVU179
 804 0012 08BD     		pop	{r3, pc}
 805              	.L76:
 806              		.align	2
 807              	.L75:
 808 0014 00000000 		.word	.LANCHOR1
 809              		.cfi_endproc
 810              	.LFE240:
 812              		.section	.text.motorprotocol_process,"ax",%progbits
 813              		.align	1
 814              		.global	motorprotocol_process
 815              		.syntax unified
 816              		.thumb
 817              		.thumb_func
 819              	motorprotocol_process:
 820              	.LFB241:
  71:../BLDCMotor/motor_protocol.c ****     motorprotocol_pause(Rx_Buf);
 821              		.loc 1 71 1 is_stmt 1 view -0
 822              		.cfi_startproc
 823              		@ args = 0, pretend = 0, frame = 0
 824              		@ frame_needed = 0, uses_anonymous_args = 0
 825 0000 10B5     		push	{r4, lr}
 826              	.LCFI25:
ARM GAS  C:\Users\57308\AppData\Local\Temp\ccxYTDEW.s 			page 21


 827              		.cfi_def_cfa_offset 8
 828              		.cfi_offset 4, -8
 829              		.cfi_offset 14, -4
  72:../BLDCMotor/motor_protocol.c ****     memset(Rx_Buf, 0, sizeof(Rx_Buf));
 830              		.loc 1 72 5 view .LVU181
 831 0002 054C     		ldr	r4, .L79
 832 0004 2046     		mov	r0, r4
 833 0006 FFF7FEFF 		bl	motorprotocol_pause
 834              	.LVL60:
  73:../BLDCMotor/motor_protocol.c **** }
 835              		.loc 1 73 5 view .LVU182
 836 000a F822     		movs	r2, #248
 837 000c 0021     		movs	r1, #0
 838 000e 2046     		mov	r0, r4
 839 0010 FFF7FEFF 		bl	memset
 840              	.LVL61:
  74:../BLDCMotor/motor_protocol.c **** static void* _set_d_kp(char *str,int32_t kp)
 841              		.loc 1 74 1 is_stmt 0 view .LVU183
 842 0014 10BD     		pop	{r4, pc}
 843              	.L80:
 844 0016 00BF     		.align	2
 845              	.L79:
 846 0018 00000000 		.word	.LANCHOR0
 847              		.cfi_endproc
 848              	.LFE241:
 850              		.global	sg_commandmap
 851              		.section	.rodata.str1.4,"aMS",%progbits,1
 852              		.align	2
 853              	.LC4:
 854 0000 6D635F74 		.ascii	"mc_tar_speed\000"
 854      61725F73 
 854      70656564 
 854      00
 855 000d 000000   		.align	2
 856              	.LC5:
 857 0010 6D635F74 		.ascii	"mc_tar_id\000"
 857      61725F69 
 857      6400
 858 001a 0000     		.align	2
 859              	.LC6:
 860 001c 6D635F74 		.ascii	"mc_tar_iq\000"
 860      61725F69 
 860      7100
 861 0026 0000     		.align	2
 862              	.LC7:
 863 0028 6D6F746F 		.ascii	"motor_stop\000"
 863      725F7374 
 863      6F7000
 864 0033 00       		.align	2
 865              	.LC8:
 866 0034 6D6F746F 		.ascii	"motor_start\000"
 866      725F7374 
 866      61727400 
 867              		.align	2
 868              	.LC9:
 869 0040 6D635F73 		.ascii	"mc_setd_kp\000"
 869      6574645F 
ARM GAS  C:\Users\57308\AppData\Local\Temp\ccxYTDEW.s 			page 22


 869      6B7000
 870 004b 00       		.align	2
 871              	.LC10:
 872 004c 6D635F73 		.ascii	"mc_setd_ki\000"
 872      6574645F 
 872      6B6900
 873 0057 00       		.align	2
 874              	.LC11:
 875 0058 6D635F70 		.ascii	"mc_pid_paraset\000"
 875      69645F70 
 875      61726173 
 875      657400
 876              		.section	.bss.Rx_Buf,"aw",%nobits
 877              		.align	2
 878              		.set	.LANCHOR0,. + 0
 881              	Rx_Buf:
 882 0000 00000000 		.space	248
 882      00000000 
 882      00000000 
 882      00000000 
 882      00000000 
 883              		.section	.data.sg_commandmap,"aw"
 884              		.align	2
 885              		.set	.LANCHOR1,. + 0
 888              	sg_commandmap:
 889 0000 00000000 		.word	.LC4
 890 0004 0100     		.short	1
 891 0006 0000     		.space	2
 892 0008 00000000 		.word	0
 893 000c 10000000 		.word	.LC5
 894 0010 0200     		.short	2
 895 0012 0000     		.space	2
 896 0014 00000000 		.word	_set_tarid
 897 0018 1C000000 		.word	.LC6
 898 001c 0300     		.short	3
 899 001e 0000     		.space	2
 900 0020 00000000 		.word	_set_tariq
 901 0024 28000000 		.word	.LC7
 902 0028 0400     		.short	4
 903 002a 0000     		.space	2
 904 002c 00000000 		.word	_set_motorstop
 905 0030 34000000 		.word	.LC8
 906 0034 0500     		.short	5
 907 0036 0000     		.space	2
 908 0038 00000000 		.word	_set_motorstart
 909 003c 40000000 		.word	.LC9
 910 0040 0600     		.short	6
 911 0042 0000     		.space	2
 912 0044 00000000 		.word	_set_d_kp
 913 0048 4C000000 		.word	.LC10
 914 004c 0700     		.short	7
 915 004e 0000     		.space	2
 916 0050 00000000 		.word	_set_d_ki
 917 0054 58000000 		.word	.LC11
 918 0058 0800     		.short	8
 919 005a 0000     		.space	2
 920 005c 00000000 		.word	_set_pidpara_cmd
ARM GAS  C:\Users\57308\AppData\Local\Temp\ccxYTDEW.s 			page 23


 921 0060 00000000 		.word	.LC4
 922 0064 0900     		.short	9
 923 0066 0000     		.space	2
 924 0068 00000000 		.word	_set_tarspeed
 925              		.text
 926              	.Letext0:
 927              		.file 2 "d:\\program files\\gcc-arm-none-eabi-10.3-2021.10\\arm-none-eabi\\include\\machine\\_defa
 928              		.file 3 "d:\\program files\\gcc-arm-none-eabi-10.3-2021.10\\arm-none-eabi\\include\\sys\\_stdint.h
 929              		.file 4 "d:\\program files\\gcc-arm-none-eabi-10.3-2021.10\\lib\\gcc\\arm-none-eabi\\10.3.1\\inclu
 930              		.file 5 "../BLDCMotor/motorctrl_common.h"
 931              		.file 6 "d:\\program files\\gcc-arm-none-eabi-10.3-2021.10\\arm-none-eabi\\include\\ctype.h"
 932              		.file 7 "d:\\program files\\gcc-arm-none-eabi-10.3-2021.10\\arm-none-eabi\\include\\string.h"
 933              		.file 8 "d:\\program files\\gcc-arm-none-eabi-10.3-2021.10\\arm-none-eabi\\include\\stdlib.h"
 934              		.file 9 "../Common/debuglog/SEGGER_RTT_V792h/RTT/SEGGER_RTT.h"
 935              		.file 10 "<built-in>"
ARM GAS  C:\Users\57308\AppData\Local\Temp\ccxYTDEW.s 			page 24


DEFINED SYMBOLS
                            *ABS*:00000000 motor_protocol.c
C:\Users\57308\AppData\Local\Temp\ccxYTDEW.s:20     .text._set_motorstart:00000000 $t
C:\Users\57308\AppData\Local\Temp\ccxYTDEW.s:25     .text._set_motorstart:00000000 _set_motorstart
C:\Users\57308\AppData\Local\Temp\ccxYTDEW.s:52     .text._set_motorstart:00000010 $d
C:\Users\57308\AppData\Local\Temp\ccxYTDEW.s:58     .rodata._set_motorstop.str1.4:00000000 $d
C:\Users\57308\AppData\Local\Temp\ccxYTDEW.s:62     .text._set_motorstop:00000000 $t
C:\Users\57308\AppData\Local\Temp\ccxYTDEW.s:67     .text._set_motorstop:00000000 _set_motorstop
C:\Users\57308\AppData\Local\Temp\ccxYTDEW.s:89     .text._set_motorstop:0000000c $d
C:\Users\57308\AppData\Local\Temp\ccxYTDEW.s:95     .text._set_pidpara_cmd:00000000 $t
C:\Users\57308\AppData\Local\Temp\ccxYTDEW.s:100    .text._set_pidpara_cmd:00000000 _set_pidpara_cmd
C:\Users\57308\AppData\Local\Temp\ccxYTDEW.s:122    .text._set_pidpara_cmd:0000000c $d
C:\Users\57308\AppData\Local\Temp\ccxYTDEW.s:127    .text._findF_from_str:00000000 $t
C:\Users\57308\AppData\Local\Temp\ccxYTDEW.s:132    .text._findF_from_str:00000000 _findF_from_str
C:\Users\57308\AppData\Local\Temp\ccxYTDEW.s:281    .text._findF_from_str:00000068 $d
C:\Users\57308\AppData\Local\Temp\ccxYTDEW.s:286    .text._set_tarspeed:00000000 $t
C:\Users\57308\AppData\Local\Temp\ccxYTDEW.s:291    .text._set_tarspeed:00000000 _set_tarspeed
C:\Users\57308\AppData\Local\Temp\ccxYTDEW.s:336    .text._set_tarspeed:00000020 $d
C:\Users\57308\AppData\Local\Temp\ccxYTDEW.s:341    .text._set_d_ki:00000000 $t
C:\Users\57308\AppData\Local\Temp\ccxYTDEW.s:346    .text._set_d_ki:00000000 _set_d_ki
C:\Users\57308\AppData\Local\Temp\ccxYTDEW.s:391    .text._set_d_ki:00000020 $d
C:\Users\57308\AppData\Local\Temp\ccxYTDEW.s:396    .text._set_d_kp:00000000 $t
C:\Users\57308\AppData\Local\Temp\ccxYTDEW.s:401    .text._set_d_kp:00000000 _set_d_kp
C:\Users\57308\AppData\Local\Temp\ccxYTDEW.s:446    .text._set_d_kp:00000020 $d
C:\Users\57308\AppData\Local\Temp\ccxYTDEW.s:451    .text._set_tariq:00000000 $t
C:\Users\57308\AppData\Local\Temp\ccxYTDEW.s:456    .text._set_tariq:00000000 _set_tariq
C:\Users\57308\AppData\Local\Temp\ccxYTDEW.s:501    .text._set_tariq:00000020 $d
C:\Users\57308\AppData\Local\Temp\ccxYTDEW.s:506    .rodata._set_tarid.str1.4:00000000 $d
C:\Users\57308\AppData\Local\Temp\ccxYTDEW.s:510    .text._set_tarid:00000000 $t
C:\Users\57308\AppData\Local\Temp\ccxYTDEW.s:515    .text._set_tarid:00000000 _set_tarid
C:\Users\57308\AppData\Local\Temp\ccxYTDEW.s:572    .text._set_tarid:00000028 $d
C:\Users\57308\AppData\Local\Temp\ccxYTDEW.s:578    .rodata._findcmd_from_map.str1.4:00000000 $d
C:\Users\57308\AppData\Local\Temp\ccxYTDEW.s:585    .text._findcmd_from_map:00000000 $t
C:\Users\57308\AppData\Local\Temp\ccxYTDEW.s:590    .text._findcmd_from_map:00000000 _findcmd_from_map
C:\Users\57308\AppData\Local\Temp\ccxYTDEW.s:720    .text._findcmd_from_map:00000070 $d
C:\Users\57308\AppData\Local\Temp\ccxYTDEW.s:726    .text.motorprotocol_getdata:00000000 $t
C:\Users\57308\AppData\Local\Temp\ccxYTDEW.s:732    .text.motorprotocol_getdata:00000000 motorprotocol_getdata
C:\Users\57308\AppData\Local\Temp\ccxYTDEW.s:757    .text.motorprotocol_getdata:0000000c $d
C:\Users\57308\AppData\Local\Temp\ccxYTDEW.s:762    .text.motorprotocol_pause:00000000 $t
C:\Users\57308\AppData\Local\Temp\ccxYTDEW.s:768    .text.motorprotocol_pause:00000000 motorprotocol_pause
C:\Users\57308\AppData\Local\Temp\ccxYTDEW.s:808    .text.motorprotocol_pause:00000014 $d
C:\Users\57308\AppData\Local\Temp\ccxYTDEW.s:813    .text.motorprotocol_process:00000000 $t
C:\Users\57308\AppData\Local\Temp\ccxYTDEW.s:819    .text.motorprotocol_process:00000000 motorprotocol_process
C:\Users\57308\AppData\Local\Temp\ccxYTDEW.s:846    .text.motorprotocol_process:00000018 $d
C:\Users\57308\AppData\Local\Temp\ccxYTDEW.s:888    .data.sg_commandmap:00000000 sg_commandmap
C:\Users\57308\AppData\Local\Temp\ccxYTDEW.s:852    .rodata.str1.4:00000000 $d
C:\Users\57308\AppData\Local\Temp\ccxYTDEW.s:877    .bss.Rx_Buf:00000000 $d
C:\Users\57308\AppData\Local\Temp\ccxYTDEW.s:881    .bss.Rx_Buf:00000000 Rx_Buf
C:\Users\57308\AppData\Local\Temp\ccxYTDEW.s:884    .data.sg_commandmap:00000000 $d

UNDEFINED SYMBOLS
sg_motordebug
strchr
strtof
_ctype_
SEGGER_RTT_printf
strlen
ARM GAS  C:\Users\57308\AppData\Local\Temp\ccxYTDEW.s 			page 25


strncmp
strcpy
memset
