ARM GAS  C:\Users\57308\AppData\Local\Temp\ccteq3kE.s 			page 1


   1              		.cpu cortex-m4
   2              		.arch armv7e-m
   3              		.fpu fpv4-sp-d16
   4              		.eabi_attribute 27, 1
   5              		.eabi_attribute 28, 1
   6              		.eabi_attribute 20, 1
   7              		.eabi_attribute 21, 1
   8              		.eabi_attribute 23, 3
   9              		.eabi_attribute 24, 1
  10              		.eabi_attribute 25, 1
  11              		.eabi_attribute 26, 1
  12              		.eabi_attribute 30, 1
  13              		.eabi_attribute 34, 1
  14              		.eabi_attribute 18, 4
  15              		.file	"SEGGER_RTT_printf.c"
  16              		.text
  17              	.Ltext0:
  18              		.cfi_sections	.debug_frame
  19              		.section	.text._StoreChar,"ax",%progbits
  20              		.align	1
  21              		.syntax unified
  22              		.thumb
  23              		.thumb_func
  25              	_StoreChar:
  26              	.LVL0:
  27              	.LFB0:
  28              		.file 1 "../Common/debuglog/SEGGER_RTT_V792h/RTT/SEGGER_RTT_printf.c"
   1:../Common/debuglog/SEGGER_RTT_V792h/RTT/SEGGER_RTT_printf.c **** /*********************************************************************
   2:../Common/debuglog/SEGGER_RTT_V792h/RTT/SEGGER_RTT_printf.c **** *                    SEGGER Microcontroller GmbH                     *
   3:../Common/debuglog/SEGGER_RTT_V792h/RTT/SEGGER_RTT_printf.c **** *                        The Embedded Experts                        *
   4:../Common/debuglog/SEGGER_RTT_V792h/RTT/SEGGER_RTT_printf.c **** **********************************************************************
   5:../Common/debuglog/SEGGER_RTT_V792h/RTT/SEGGER_RTT_printf.c **** *                                                                    *
   6:../Common/debuglog/SEGGER_RTT_V792h/RTT/SEGGER_RTT_printf.c **** *            (c) 1995 - 2021 SEGGER Microcontroller GmbH             *
   7:../Common/debuglog/SEGGER_RTT_V792h/RTT/SEGGER_RTT_printf.c **** *                                                                    *
   8:../Common/debuglog/SEGGER_RTT_V792h/RTT/SEGGER_RTT_printf.c **** *       www.segger.com     Support: support@segger.com               *
   9:../Common/debuglog/SEGGER_RTT_V792h/RTT/SEGGER_RTT_printf.c **** *                                                                    *
  10:../Common/debuglog/SEGGER_RTT_V792h/RTT/SEGGER_RTT_printf.c **** **********************************************************************
  11:../Common/debuglog/SEGGER_RTT_V792h/RTT/SEGGER_RTT_printf.c **** *                                                                    *
  12:../Common/debuglog/SEGGER_RTT_V792h/RTT/SEGGER_RTT_printf.c **** *       SEGGER RTT * Real Time Transfer for embedded targets         *
  13:../Common/debuglog/SEGGER_RTT_V792h/RTT/SEGGER_RTT_printf.c **** *                                                                    *
  14:../Common/debuglog/SEGGER_RTT_V792h/RTT/SEGGER_RTT_printf.c **** **********************************************************************
  15:../Common/debuglog/SEGGER_RTT_V792h/RTT/SEGGER_RTT_printf.c **** *                                                                    *
  16:../Common/debuglog/SEGGER_RTT_V792h/RTT/SEGGER_RTT_printf.c **** * All rights reserved.                                               *
  17:../Common/debuglog/SEGGER_RTT_V792h/RTT/SEGGER_RTT_printf.c **** *                                                                    *
  18:../Common/debuglog/SEGGER_RTT_V792h/RTT/SEGGER_RTT_printf.c **** * SEGGER strongly recommends to not make any changes                 *
  19:../Common/debuglog/SEGGER_RTT_V792h/RTT/SEGGER_RTT_printf.c **** * to or modify the source code of this software in order to stay     *
  20:../Common/debuglog/SEGGER_RTT_V792h/RTT/SEGGER_RTT_printf.c **** * compatible with the RTT protocol and J-Link.                       *
  21:../Common/debuglog/SEGGER_RTT_V792h/RTT/SEGGER_RTT_printf.c **** *                                                                    *
  22:../Common/debuglog/SEGGER_RTT_V792h/RTT/SEGGER_RTT_printf.c **** * Redistribution and use in source and binary forms, with or         *
  23:../Common/debuglog/SEGGER_RTT_V792h/RTT/SEGGER_RTT_printf.c **** * without modification, are permitted provided that the following    *
  24:../Common/debuglog/SEGGER_RTT_V792h/RTT/SEGGER_RTT_printf.c **** * condition is met:                                                  *
  25:../Common/debuglog/SEGGER_RTT_V792h/RTT/SEGGER_RTT_printf.c **** *                                                                    *
  26:../Common/debuglog/SEGGER_RTT_V792h/RTT/SEGGER_RTT_printf.c **** * o Redistributions of source code must retain the above copyright   *
  27:../Common/debuglog/SEGGER_RTT_V792h/RTT/SEGGER_RTT_printf.c **** *   notice, this condition and the following disclaimer.             *
  28:../Common/debuglog/SEGGER_RTT_V792h/RTT/SEGGER_RTT_printf.c **** *                                                                    *
  29:../Common/debuglog/SEGGER_RTT_V792h/RTT/SEGGER_RTT_printf.c **** * THIS SOFTWARE IS PROVIDED BY THE COPYRIGHT HOLDERS AND             *
  30:../Common/debuglog/SEGGER_RTT_V792h/RTT/SEGGER_RTT_printf.c **** * CONTRIBUTORS "AS IS" AND ANY EXPRESS OR IMPLIED WARRANTIES,        *
ARM GAS  C:\Users\57308\AppData\Local\Temp\ccteq3kE.s 			page 2


  31:../Common/debuglog/SEGGER_RTT_V792h/RTT/SEGGER_RTT_printf.c **** * INCLUDING, BUT NOT LIMITED TO, THE IMPLIED WARRANTIES OF           *
  32:../Common/debuglog/SEGGER_RTT_V792h/RTT/SEGGER_RTT_printf.c **** * MERCHANTABILITY AND FITNESS FOR A PARTICULAR PURPOSE ARE           *
  33:../Common/debuglog/SEGGER_RTT_V792h/RTT/SEGGER_RTT_printf.c **** * DISCLAIMED. IN NO EVENT SHALL SEGGER Microcontroller BE LIABLE FOR *
  34:../Common/debuglog/SEGGER_RTT_V792h/RTT/SEGGER_RTT_printf.c **** * ANY DIRECT, INDIRECT, INCIDENTAL, SPECIAL, EXEMPLARY, OR           *
  35:../Common/debuglog/SEGGER_RTT_V792h/RTT/SEGGER_RTT_printf.c **** * CONSEQUENTIAL DAMAGES (INCLUDING, BUT NOT LIMITED TO, PROCUREMENT  *
  36:../Common/debuglog/SEGGER_RTT_V792h/RTT/SEGGER_RTT_printf.c **** * OF SUBSTITUTE GOODS OR SERVICES; LOSS OF USE, DATA, OR PROFITS;    *
  37:../Common/debuglog/SEGGER_RTT_V792h/RTT/SEGGER_RTT_printf.c **** * OR BUSINESS INTERRUPTION) HOWEVER CAUSED AND ON ANY THEORY OF      *
  38:../Common/debuglog/SEGGER_RTT_V792h/RTT/SEGGER_RTT_printf.c **** * LIABILITY, WHETHER IN CONTRACT, STRICT LIABILITY, OR TORT          *
  39:../Common/debuglog/SEGGER_RTT_V792h/RTT/SEGGER_RTT_printf.c **** * (INCLUDING NEGLIGENCE OR OTHERWISE) ARISING IN ANY WAY OUT OF THE  *
  40:../Common/debuglog/SEGGER_RTT_V792h/RTT/SEGGER_RTT_printf.c **** * USE OF THIS SOFTWARE, EVEN IF ADVISED OF THE POSSIBILITY OF SUCH   *
  41:../Common/debuglog/SEGGER_RTT_V792h/RTT/SEGGER_RTT_printf.c **** * DAMAGE.                                                            *
  42:../Common/debuglog/SEGGER_RTT_V792h/RTT/SEGGER_RTT_printf.c **** *                                                                    *
  43:../Common/debuglog/SEGGER_RTT_V792h/RTT/SEGGER_RTT_printf.c **** **********************************************************************
  44:../Common/debuglog/SEGGER_RTT_V792h/RTT/SEGGER_RTT_printf.c **** *                                                                    *
  45:../Common/debuglog/SEGGER_RTT_V792h/RTT/SEGGER_RTT_printf.c **** *       RTT version: 7.92h                                           *
  46:../Common/debuglog/SEGGER_RTT_V792h/RTT/SEGGER_RTT_printf.c **** *                                                                    *
  47:../Common/debuglog/SEGGER_RTT_V792h/RTT/SEGGER_RTT_printf.c **** **********************************************************************
  48:../Common/debuglog/SEGGER_RTT_V792h/RTT/SEGGER_RTT_printf.c **** 
  49:../Common/debuglog/SEGGER_RTT_V792h/RTT/SEGGER_RTT_printf.c **** ---------------------------END-OF-HEADER------------------------------
  50:../Common/debuglog/SEGGER_RTT_V792h/RTT/SEGGER_RTT_printf.c **** File    : SEGGER_RTT_printf.c
  51:../Common/debuglog/SEGGER_RTT_V792h/RTT/SEGGER_RTT_printf.c **** Purpose : Replacement for printf to write formatted data via RTT
  52:../Common/debuglog/SEGGER_RTT_V792h/RTT/SEGGER_RTT_printf.c **** Revision: $Rev: 17697 $
  53:../Common/debuglog/SEGGER_RTT_V792h/RTT/SEGGER_RTT_printf.c **** ----------------------------------------------------------------------
  54:../Common/debuglog/SEGGER_RTT_V792h/RTT/SEGGER_RTT_printf.c **** */
  55:../Common/debuglog/SEGGER_RTT_V792h/RTT/SEGGER_RTT_printf.c **** #include "SEGGER_RTT.h"
  56:../Common/debuglog/SEGGER_RTT_V792h/RTT/SEGGER_RTT_printf.c **** #include "SEGGER_RTT_Conf.h"
  57:../Common/debuglog/SEGGER_RTT_V792h/RTT/SEGGER_RTT_printf.c **** 
  58:../Common/debuglog/SEGGER_RTT_V792h/RTT/SEGGER_RTT_printf.c **** /*********************************************************************
  59:../Common/debuglog/SEGGER_RTT_V792h/RTT/SEGGER_RTT_printf.c **** *
  60:../Common/debuglog/SEGGER_RTT_V792h/RTT/SEGGER_RTT_printf.c **** *       Defines, configurable
  61:../Common/debuglog/SEGGER_RTT_V792h/RTT/SEGGER_RTT_printf.c **** *
  62:../Common/debuglog/SEGGER_RTT_V792h/RTT/SEGGER_RTT_printf.c **** **********************************************************************
  63:../Common/debuglog/SEGGER_RTT_V792h/RTT/SEGGER_RTT_printf.c **** */
  64:../Common/debuglog/SEGGER_RTT_V792h/RTT/SEGGER_RTT_printf.c **** 
  65:../Common/debuglog/SEGGER_RTT_V792h/RTT/SEGGER_RTT_printf.c **** #ifndef SEGGER_RTT_PRINTF_BUFFER_SIZE
  66:../Common/debuglog/SEGGER_RTT_V792h/RTT/SEGGER_RTT_printf.c ****   #define SEGGER_RTT_PRINTF_BUFFER_SIZE (64)
  67:../Common/debuglog/SEGGER_RTT_V792h/RTT/SEGGER_RTT_printf.c **** #endif
  68:../Common/debuglog/SEGGER_RTT_V792h/RTT/SEGGER_RTT_printf.c **** 
  69:../Common/debuglog/SEGGER_RTT_V792h/RTT/SEGGER_RTT_printf.c **** #include <stdlib.h>
  70:../Common/debuglog/SEGGER_RTT_V792h/RTT/SEGGER_RTT_printf.c **** #include <stdarg.h>
  71:../Common/debuglog/SEGGER_RTT_V792h/RTT/SEGGER_RTT_printf.c **** 
  72:../Common/debuglog/SEGGER_RTT_V792h/RTT/SEGGER_RTT_printf.c **** 
  73:../Common/debuglog/SEGGER_RTT_V792h/RTT/SEGGER_RTT_printf.c **** #define FORMAT_FLAG_LEFT_JUSTIFY   (1u << 0)
  74:../Common/debuglog/SEGGER_RTT_V792h/RTT/SEGGER_RTT_printf.c **** #define FORMAT_FLAG_PAD_ZERO       (1u << 1)
  75:../Common/debuglog/SEGGER_RTT_V792h/RTT/SEGGER_RTT_printf.c **** #define FORMAT_FLAG_PRINT_SIGN     (1u << 2)
  76:../Common/debuglog/SEGGER_RTT_V792h/RTT/SEGGER_RTT_printf.c **** #define FORMAT_FLAG_ALTERNATE      (1u << 3)
  77:../Common/debuglog/SEGGER_RTT_V792h/RTT/SEGGER_RTT_printf.c **** 
  78:../Common/debuglog/SEGGER_RTT_V792h/RTT/SEGGER_RTT_printf.c **** /*********************************************************************
  79:../Common/debuglog/SEGGER_RTT_V792h/RTT/SEGGER_RTT_printf.c **** *
  80:../Common/debuglog/SEGGER_RTT_V792h/RTT/SEGGER_RTT_printf.c **** *       Types
  81:../Common/debuglog/SEGGER_RTT_V792h/RTT/SEGGER_RTT_printf.c **** *
  82:../Common/debuglog/SEGGER_RTT_V792h/RTT/SEGGER_RTT_printf.c **** **********************************************************************
  83:../Common/debuglog/SEGGER_RTT_V792h/RTT/SEGGER_RTT_printf.c **** */
  84:../Common/debuglog/SEGGER_RTT_V792h/RTT/SEGGER_RTT_printf.c **** 
  85:../Common/debuglog/SEGGER_RTT_V792h/RTT/SEGGER_RTT_printf.c **** typedef struct {
  86:../Common/debuglog/SEGGER_RTT_V792h/RTT/SEGGER_RTT_printf.c ****   char*     pBuffer;
  87:../Common/debuglog/SEGGER_RTT_V792h/RTT/SEGGER_RTT_printf.c ****   unsigned  BufferSize;
ARM GAS  C:\Users\57308\AppData\Local\Temp\ccteq3kE.s 			page 3


  88:../Common/debuglog/SEGGER_RTT_V792h/RTT/SEGGER_RTT_printf.c ****   unsigned  Cnt;
  89:../Common/debuglog/SEGGER_RTT_V792h/RTT/SEGGER_RTT_printf.c **** 
  90:../Common/debuglog/SEGGER_RTT_V792h/RTT/SEGGER_RTT_printf.c ****   int   ReturnValue;
  91:../Common/debuglog/SEGGER_RTT_V792h/RTT/SEGGER_RTT_printf.c **** 
  92:../Common/debuglog/SEGGER_RTT_V792h/RTT/SEGGER_RTT_printf.c ****   unsigned RTTBufferIndex;
  93:../Common/debuglog/SEGGER_RTT_V792h/RTT/SEGGER_RTT_printf.c **** } SEGGER_RTT_PRINTF_DESC;
  94:../Common/debuglog/SEGGER_RTT_V792h/RTT/SEGGER_RTT_printf.c **** 
  95:../Common/debuglog/SEGGER_RTT_V792h/RTT/SEGGER_RTT_printf.c **** /*********************************************************************
  96:../Common/debuglog/SEGGER_RTT_V792h/RTT/SEGGER_RTT_printf.c **** *
  97:../Common/debuglog/SEGGER_RTT_V792h/RTT/SEGGER_RTT_printf.c **** *       Function prototypes
  98:../Common/debuglog/SEGGER_RTT_V792h/RTT/SEGGER_RTT_printf.c **** *
  99:../Common/debuglog/SEGGER_RTT_V792h/RTT/SEGGER_RTT_printf.c **** **********************************************************************
 100:../Common/debuglog/SEGGER_RTT_V792h/RTT/SEGGER_RTT_printf.c **** */
 101:../Common/debuglog/SEGGER_RTT_V792h/RTT/SEGGER_RTT_printf.c **** 
 102:../Common/debuglog/SEGGER_RTT_V792h/RTT/SEGGER_RTT_printf.c **** /*********************************************************************
 103:../Common/debuglog/SEGGER_RTT_V792h/RTT/SEGGER_RTT_printf.c **** *
 104:../Common/debuglog/SEGGER_RTT_V792h/RTT/SEGGER_RTT_printf.c **** *       Static code
 105:../Common/debuglog/SEGGER_RTT_V792h/RTT/SEGGER_RTT_printf.c **** *
 106:../Common/debuglog/SEGGER_RTT_V792h/RTT/SEGGER_RTT_printf.c **** **********************************************************************
 107:../Common/debuglog/SEGGER_RTT_V792h/RTT/SEGGER_RTT_printf.c **** */
 108:../Common/debuglog/SEGGER_RTT_V792h/RTT/SEGGER_RTT_printf.c **** /*********************************************************************
 109:../Common/debuglog/SEGGER_RTT_V792h/RTT/SEGGER_RTT_printf.c **** *
 110:../Common/debuglog/SEGGER_RTT_V792h/RTT/SEGGER_RTT_printf.c **** *       _StoreChar
 111:../Common/debuglog/SEGGER_RTT_V792h/RTT/SEGGER_RTT_printf.c **** */
 112:../Common/debuglog/SEGGER_RTT_V792h/RTT/SEGGER_RTT_printf.c **** static void _StoreChar(SEGGER_RTT_PRINTF_DESC * p, char c) {
  29              		.loc 1 112 60 view -0
  30              		.cfi_startproc
  31              		@ args = 0, pretend = 0, frame = 0
  32              		@ frame_needed = 0, uses_anonymous_args = 0
  33              		.loc 1 112 60 is_stmt 0 view .LVU1
  34 0000 10B5     		push	{r4, lr}
  35              	.LCFI0:
  36              		.cfi_def_cfa_offset 8
  37              		.cfi_offset 4, -8
  38              		.cfi_offset 14, -4
  39 0002 0446     		mov	r4, r0
 113:../Common/debuglog/SEGGER_RTT_V792h/RTT/SEGGER_RTT_printf.c ****   unsigned Cnt;
  40              		.loc 1 113 3 is_stmt 1 view .LVU2
 114:../Common/debuglog/SEGGER_RTT_V792h/RTT/SEGGER_RTT_printf.c **** 
 115:../Common/debuglog/SEGGER_RTT_V792h/RTT/SEGGER_RTT_printf.c ****   Cnt = p->Cnt;
  41              		.loc 1 115 3 view .LVU3
  42              		.loc 1 115 7 is_stmt 0 view .LVU4
  43 0004 8268     		ldr	r2, [r0, #8]
  44              	.LVL1:
 116:../Common/debuglog/SEGGER_RTT_V792h/RTT/SEGGER_RTT_printf.c ****   if ((Cnt + 1u) <= p->BufferSize) {
  45              		.loc 1 116 3 is_stmt 1 view .LVU5
  46              		.loc 1 116 12 is_stmt 0 view .LVU6
  47 0006 531C     		adds	r3, r2, #1
  48              		.loc 1 116 22 view .LVU7
  49 0008 4068     		ldr	r0, [r0, #4]
  50              	.LVL2:
  51              		.loc 1 116 6 view .LVU8
  52 000a 8342     		cmp	r3, r0
  53 000c 05D8     		bhi	.L2
 117:../Common/debuglog/SEGGER_RTT_V792h/RTT/SEGGER_RTT_printf.c ****     *(p->pBuffer + Cnt) = c;
  54              		.loc 1 117 5 is_stmt 1 view .LVU9
  55              		.loc 1 117 8 is_stmt 0 view .LVU10
ARM GAS  C:\Users\57308\AppData\Local\Temp\ccteq3kE.s 			page 4


  56 000e 2068     		ldr	r0, [r4]
  57              		.loc 1 117 25 view .LVU11
  58 0010 8154     		strb	r1, [r0, r2]
 118:../Common/debuglog/SEGGER_RTT_V792h/RTT/SEGGER_RTT_printf.c ****     p->Cnt = Cnt + 1u;
  59              		.loc 1 118 5 is_stmt 1 view .LVU12
  60              		.loc 1 118 12 is_stmt 0 view .LVU13
  61 0012 A360     		str	r3, [r4, #8]
 119:../Common/debuglog/SEGGER_RTT_V792h/RTT/SEGGER_RTT_printf.c ****     p->ReturnValue++;
  62              		.loc 1 119 5 is_stmt 1 view .LVU14
  63              		.loc 1 119 6 is_stmt 0 view .LVU15
  64 0014 E368     		ldr	r3, [r4, #12]
  65              		.loc 1 119 19 view .LVU16
  66 0016 0133     		adds	r3, r3, #1
  67 0018 E360     		str	r3, [r4, #12]
  68              	.L2:
 120:../Common/debuglog/SEGGER_RTT_V792h/RTT/SEGGER_RTT_printf.c ****   }
 121:../Common/debuglog/SEGGER_RTT_V792h/RTT/SEGGER_RTT_printf.c ****   //
 122:../Common/debuglog/SEGGER_RTT_V792h/RTT/SEGGER_RTT_printf.c ****   // Write part of string, when the buffer is full
 123:../Common/debuglog/SEGGER_RTT_V792h/RTT/SEGGER_RTT_printf.c ****   //
 124:../Common/debuglog/SEGGER_RTT_V792h/RTT/SEGGER_RTT_printf.c ****   if (p->Cnt == p->BufferSize) {
  69              		.loc 1 124 3 is_stmt 1 view .LVU17
  70              		.loc 1 124 8 is_stmt 0 view .LVU18
  71 001a A268     		ldr	r2, [r4, #8]
  72              	.LVL3:
  73              		.loc 1 124 18 view .LVU19
  74 001c 6368     		ldr	r3, [r4, #4]
  75              		.loc 1 124 6 view .LVU20
  76 001e 9A42     		cmp	r2, r3
  77 0020 00D0     		beq	.L6
  78              	.LVL4:
  79              	.L1:
 125:../Common/debuglog/SEGGER_RTT_V792h/RTT/SEGGER_RTT_printf.c ****     if (SEGGER_RTT_Write(p->RTTBufferIndex, p->pBuffer, p->Cnt) != p->Cnt) {
 126:../Common/debuglog/SEGGER_RTT_V792h/RTT/SEGGER_RTT_printf.c ****       p->ReturnValue = -1;
 127:../Common/debuglog/SEGGER_RTT_V792h/RTT/SEGGER_RTT_printf.c ****     } else {
 128:../Common/debuglog/SEGGER_RTT_V792h/RTT/SEGGER_RTT_printf.c ****       p->Cnt = 0u;
 129:../Common/debuglog/SEGGER_RTT_V792h/RTT/SEGGER_RTT_printf.c ****     }
 130:../Common/debuglog/SEGGER_RTT_V792h/RTT/SEGGER_RTT_printf.c ****   }
 131:../Common/debuglog/SEGGER_RTT_V792h/RTT/SEGGER_RTT_printf.c **** }
  80              		.loc 1 131 1 view .LVU21
  81 0022 10BD     		pop	{r4, pc}
  82              	.LVL5:
  83              	.L6:
 125:../Common/debuglog/SEGGER_RTT_V792h/RTT/SEGGER_RTT_printf.c ****     if (SEGGER_RTT_Write(p->RTTBufferIndex, p->pBuffer, p->Cnt) != p->Cnt) {
  84              		.loc 1 125 5 is_stmt 1 view .LVU22
 125:../Common/debuglog/SEGGER_RTT_V792h/RTT/SEGGER_RTT_printf.c ****     if (SEGGER_RTT_Write(p->RTTBufferIndex, p->pBuffer, p->Cnt) != p->Cnt) {
  85              		.loc 1 125 9 is_stmt 0 view .LVU23
  86 0024 2168     		ldr	r1, [r4]
  87              	.LVL6:
 125:../Common/debuglog/SEGGER_RTT_V792h/RTT/SEGGER_RTT_printf.c ****     if (SEGGER_RTT_Write(p->RTTBufferIndex, p->pBuffer, p->Cnt) != p->Cnt) {
  88              		.loc 1 125 9 view .LVU24
  89 0026 2069     		ldr	r0, [r4, #16]
  90 0028 FFF7FEFF 		bl	SEGGER_RTT_Write
  91              	.LVL7:
 125:../Common/debuglog/SEGGER_RTT_V792h/RTT/SEGGER_RTT_printf.c ****     if (SEGGER_RTT_Write(p->RTTBufferIndex, p->pBuffer, p->Cnt) != p->Cnt) {
  92              		.loc 1 125 69 view .LVU25
  93 002c A368     		ldr	r3, [r4, #8]
 125:../Common/debuglog/SEGGER_RTT_V792h/RTT/SEGGER_RTT_printf.c ****     if (SEGGER_RTT_Write(p->RTTBufferIndex, p->pBuffer, p->Cnt) != p->Cnt) {
ARM GAS  C:\Users\57308\AppData\Local\Temp\ccteq3kE.s 			page 5


  94              		.loc 1 125 8 view .LVU26
  95 002e 9842     		cmp	r0, r3
  96 0030 03D0     		beq	.L4
 126:../Common/debuglog/SEGGER_RTT_V792h/RTT/SEGGER_RTT_printf.c ****     } else {
  97              		.loc 1 126 7 is_stmt 1 view .LVU27
 126:../Common/debuglog/SEGGER_RTT_V792h/RTT/SEGGER_RTT_printf.c ****     } else {
  98              		.loc 1 126 22 is_stmt 0 view .LVU28
  99 0032 4FF0FF33 		mov	r3, #-1
 100 0036 E360     		str	r3, [r4, #12]
 101 0038 F3E7     		b	.L1
 102              	.L4:
 128:../Common/debuglog/SEGGER_RTT_V792h/RTT/SEGGER_RTT_printf.c ****     }
 103              		.loc 1 128 7 is_stmt 1 view .LVU29
 128:../Common/debuglog/SEGGER_RTT_V792h/RTT/SEGGER_RTT_printf.c ****     }
 104              		.loc 1 128 14 is_stmt 0 view .LVU30
 105 003a 0023     		movs	r3, #0
 106 003c A360     		str	r3, [r4, #8]
 107              		.loc 1 131 1 view .LVU31
 108 003e F0E7     		b	.L1
 109              		.cfi_endproc
 110              	.LFE0:
 112              		.section	.text._PrintUnsigned,"ax",%progbits
 113              		.align	1
 114              		.syntax unified
 115              		.thumb
 116              		.thumb_func
 118              	_PrintUnsigned:
 119              	.LVL8:
 120              	.LFB1:
 132:../Common/debuglog/SEGGER_RTT_V792h/RTT/SEGGER_RTT_printf.c **** 
 133:../Common/debuglog/SEGGER_RTT_V792h/RTT/SEGGER_RTT_printf.c **** /*********************************************************************
 134:../Common/debuglog/SEGGER_RTT_V792h/RTT/SEGGER_RTT_printf.c **** *
 135:../Common/debuglog/SEGGER_RTT_V792h/RTT/SEGGER_RTT_printf.c **** *       _PrintUnsigned
 136:../Common/debuglog/SEGGER_RTT_V792h/RTT/SEGGER_RTT_printf.c **** */
 137:../Common/debuglog/SEGGER_RTT_V792h/RTT/SEGGER_RTT_printf.c **** static void _PrintUnsigned(SEGGER_RTT_PRINTF_DESC * pBufferDesc, unsigned v, unsigned Base, unsigne
 121              		.loc 1 137 156 is_stmt 1 view -0
 122              		.cfi_startproc
 123              		@ args = 8, pretend = 0, frame = 0
 124              		@ frame_needed = 0, uses_anonymous_args = 0
 125              		.loc 1 137 156 is_stmt 0 view .LVU33
 126 0000 2DE9F84F 		push	{r3, r4, r5, r6, r7, r8, r9, r10, fp, lr}
 127              	.LCFI1:
 128              		.cfi_def_cfa_offset 40
 129              		.cfi_offset 3, -40
 130              		.cfi_offset 4, -36
 131              		.cfi_offset 5, -32
 132              		.cfi_offset 6, -28
 133              		.cfi_offset 7, -24
 134              		.cfi_offset 8, -20
 135              		.cfi_offset 9, -16
 136              		.cfi_offset 10, -12
 137              		.cfi_offset 11, -8
 138              		.cfi_offset 14, -4
 139 0004 8146     		mov	r9, r0
 140 0006 0F46     		mov	r7, r1
 141 0008 1546     		mov	r5, r2
 142 000a 1E46     		mov	r6, r3
ARM GAS  C:\Users\57308\AppData\Local\Temp\ccteq3kE.s 			page 6


 143 000c DDF828A0 		ldr	r10, [sp, #40]
 144 0010 0B9A     		ldr	r2, [sp, #44]
 145              	.LVL9:
 138:../Common/debuglog/SEGGER_RTT_V792h/RTT/SEGGER_RTT_printf.c ****   static const char _aV2C[16] = {'0', '1', '2', '3', '4', '5', '6', '7', '8', '9', 'A', 'B', 'C', '
 146              		.loc 1 138 3 is_stmt 1 view .LVU34
 139:../Common/debuglog/SEGGER_RTT_V792h/RTT/SEGGER_RTT_printf.c ****   unsigned Div;
 147              		.loc 1 139 3 view .LVU35
 140:../Common/debuglog/SEGGER_RTT_V792h/RTT/SEGGER_RTT_printf.c ****   unsigned Digit;
 148              		.loc 1 140 3 view .LVU36
 141:../Common/debuglog/SEGGER_RTT_V792h/RTT/SEGGER_RTT_printf.c ****   unsigned Number;
 149              		.loc 1 141 3 view .LVU37
 142:../Common/debuglog/SEGGER_RTT_V792h/RTT/SEGGER_RTT_printf.c ****   unsigned Width;
 150              		.loc 1 142 3 view .LVU38
 143:../Common/debuglog/SEGGER_RTT_V792h/RTT/SEGGER_RTT_printf.c ****   char c;
 151              		.loc 1 143 3 view .LVU39
 144:../Common/debuglog/SEGGER_RTT_V792h/RTT/SEGGER_RTT_printf.c **** 
 145:../Common/debuglog/SEGGER_RTT_V792h/RTT/SEGGER_RTT_printf.c ****   Number = v;
 152              		.loc 1 145 3 view .LVU40
 146:../Common/debuglog/SEGGER_RTT_V792h/RTT/SEGGER_RTT_printf.c ****   Digit = 1u;
 153              		.loc 1 146 3 view .LVU41
 147:../Common/debuglog/SEGGER_RTT_V792h/RTT/SEGGER_RTT_printf.c ****   //
 148:../Common/debuglog/SEGGER_RTT_V792h/RTT/SEGGER_RTT_printf.c ****   // Get actual field width
 149:../Common/debuglog/SEGGER_RTT_V792h/RTT/SEGGER_RTT_printf.c ****   //
 150:../Common/debuglog/SEGGER_RTT_V792h/RTT/SEGGER_RTT_printf.c ****   Width = 1u;
 154              		.loc 1 150 3 view .LVU42
 151:../Common/debuglog/SEGGER_RTT_V792h/RTT/SEGGER_RTT_printf.c ****   while (Number >= Base) {
 155              		.loc 1 151 3 view .LVU43
 145:../Common/debuglog/SEGGER_RTT_V792h/RTT/SEGGER_RTT_printf.c ****   Digit = 1u;
 156              		.loc 1 145 10 is_stmt 0 view .LVU44
 157 0012 0B46     		mov	r3, r1
 158              	.LVL10:
 150:../Common/debuglog/SEGGER_RTT_V792h/RTT/SEGGER_RTT_printf.c ****   while (Number >= Base) {
 159              		.loc 1 150 9 view .LVU45
 160 0014 4FF00108 		mov	r8, #1
 161              		.loc 1 151 9 view .LVU46
 162 0018 03E0     		b	.L8
 163              	.LVL11:
 164              	.L9:
 152:../Common/debuglog/SEGGER_RTT_V792h/RTT/SEGGER_RTT_printf.c ****     Number = (Number / Base);
 165              		.loc 1 152 5 is_stmt 1 view .LVU47
 166              		.loc 1 152 12 is_stmt 0 view .LVU48
 167 001a B3FBF5F3 		udiv	r3, r3, r5
 168              	.LVL12:
 153:../Common/debuglog/SEGGER_RTT_V792h/RTT/SEGGER_RTT_printf.c ****     Width++;
 169              		.loc 1 153 5 is_stmt 1 view .LVU49
 170              		.loc 1 153 10 is_stmt 0 view .LVU50
 171 001e 08F10108 		add	r8, r8, #1
 172              	.LVL13:
 173              	.L8:
 151:../Common/debuglog/SEGGER_RTT_V792h/RTT/SEGGER_RTT_printf.c ****     Number = (Number / Base);
 174              		.loc 1 151 9 is_stmt 1 view .LVU51
 175 0022 AB42     		cmp	r3, r5
 176 0024 F9D2     		bcs	.L9
 154:../Common/debuglog/SEGGER_RTT_V792h/RTT/SEGGER_RTT_printf.c ****   }
 155:../Common/debuglog/SEGGER_RTT_V792h/RTT/SEGGER_RTT_printf.c ****   if (NumDigits > Width) {
 177              		.loc 1 155 3 view .LVU52
 178              		.loc 1 155 6 is_stmt 0 view .LVU53
ARM GAS  C:\Users\57308\AppData\Local\Temp\ccteq3kE.s 			page 7


 179 0026 B045     		cmp	r8, r6
 180 0028 00D2     		bcs	.L10
 156:../Common/debuglog/SEGGER_RTT_V792h/RTT/SEGGER_RTT_printf.c ****     Width = NumDigits;
 181              		.loc 1 156 11 view .LVU54
 182 002a B046     		mov	r8, r6
 183              	.LVL14:
 184              	.L10:
 157:../Common/debuglog/SEGGER_RTT_V792h/RTT/SEGGER_RTT_printf.c ****   }
 158:../Common/debuglog/SEGGER_RTT_V792h/RTT/SEGGER_RTT_printf.c ****   //
 159:../Common/debuglog/SEGGER_RTT_V792h/RTT/SEGGER_RTT_printf.c ****   // Print leading chars if necessary
 160:../Common/debuglog/SEGGER_RTT_V792h/RTT/SEGGER_RTT_printf.c ****   //
 161:../Common/debuglog/SEGGER_RTT_V792h/RTT/SEGGER_RTT_printf.c ****   if ((FormatFlags & FORMAT_FLAG_LEFT_JUSTIFY) == 0u) {
 185              		.loc 1 161 3 is_stmt 1 view .LVU55
 186              		.loc 1 161 6 is_stmt 0 view .LVU56
 187 002c 12F0010B 		ands	fp, r2, #1
 188 0030 18D1     		bne	.L11
 162:../Common/debuglog/SEGGER_RTT_V792h/RTT/SEGGER_RTT_printf.c ****     if (FieldWidth != 0u) {
 189              		.loc 1 162 5 is_stmt 1 view .LVU57
 190              		.loc 1 162 8 is_stmt 0 view .LVU58
 191 0032 BAF1000F 		cmp	r10, #0
 192 0036 15D0     		beq	.L11
 163:../Common/debuglog/SEGGER_RTT_V792h/RTT/SEGGER_RTT_printf.c ****       if (((FormatFlags & FORMAT_FLAG_PAD_ZERO) == FORMAT_FLAG_PAD_ZERO) && (NumDigits == 0u)) {
 193              		.loc 1 163 7 is_stmt 1 view .LVU59
 194              		.loc 1 163 10 is_stmt 0 view .LVU60
 195 0038 12F0020F 		tst	r2, #2
 196 003c 02D0     		beq	.L24
 197              		.loc 1 163 74 discriminator 1 view .LVU61
 198 003e BEB1     		cbz	r6, .L25
 164:../Common/debuglog/SEGGER_RTT_V792h/RTT/SEGGER_RTT_printf.c ****         c = '0';
 165:../Common/debuglog/SEGGER_RTT_V792h/RTT/SEGGER_RTT_printf.c ****       } else {
 166:../Common/debuglog/SEGGER_RTT_V792h/RTT/SEGGER_RTT_printf.c ****         c = ' ';
 199              		.loc 1 166 11 view .LVU62
 200 0040 2024     		movs	r4, #32
 201 0042 00E0     		b	.L13
 202              	.L24:
 203 0044 2024     		movs	r4, #32
 204              	.LVL15:
 205              	.L13:
 167:../Common/debuglog/SEGGER_RTT_V792h/RTT/SEGGER_RTT_printf.c ****       }
 168:../Common/debuglog/SEGGER_RTT_V792h/RTT/SEGGER_RTT_printf.c ****       while ((FieldWidth != 0u) && (Width < FieldWidth)) {
 206              		.loc 1 168 13 is_stmt 1 view .LVU63
 207 0046 BAF1000F 		cmp	r10, #0
 208 004a 0BD0     		beq	.L11
 209              		.loc 1 168 33 is_stmt 0 discriminator 1 view .LVU64
 210 004c C245     		cmp	r10, r8
 211 004e 09D9     		bls	.L11
 169:../Common/debuglog/SEGGER_RTT_V792h/RTT/SEGGER_RTT_printf.c ****         FieldWidth--;
 212              		.loc 1 169 9 is_stmt 1 view .LVU65
 213              		.loc 1 169 19 is_stmt 0 view .LVU66
 214 0050 0AF1FF3A 		add	r10, r10, #-1
 215              	.LVL16:
 170:../Common/debuglog/SEGGER_RTT_V792h/RTT/SEGGER_RTT_printf.c ****         _StoreChar(pBufferDesc, c);
 216              		.loc 1 170 9 is_stmt 1 view .LVU67
 217 0054 2146     		mov	r1, r4
 218 0056 4846     		mov	r0, r9
 219 0058 FFF7FEFF 		bl	_StoreChar
 220              	.LVL17:
ARM GAS  C:\Users\57308\AppData\Local\Temp\ccteq3kE.s 			page 8


 171:../Common/debuglog/SEGGER_RTT_V792h/RTT/SEGGER_RTT_printf.c ****         if (pBufferDesc->ReturnValue < 0) {
 221              		.loc 1 171 9 view .LVU68
 222              		.loc 1 171 24 is_stmt 0 view .LVU69
 223 005c D9F80C30 		ldr	r3, [r9, #12]
 224              		.loc 1 171 12 view .LVU70
 225 0060 002B     		cmp	r3, #0
 226 0062 F0DA     		bge	.L13
 227              	.LVL18:
 228              	.L11:
 172:../Common/debuglog/SEGGER_RTT_V792h/RTT/SEGGER_RTT_printf.c ****           break;
 173:../Common/debuglog/SEGGER_RTT_V792h/RTT/SEGGER_RTT_printf.c ****         }
 174:../Common/debuglog/SEGGER_RTT_V792h/RTT/SEGGER_RTT_printf.c ****       }
 175:../Common/debuglog/SEGGER_RTT_V792h/RTT/SEGGER_RTT_printf.c ****     }
 176:../Common/debuglog/SEGGER_RTT_V792h/RTT/SEGGER_RTT_printf.c ****   }
 177:../Common/debuglog/SEGGER_RTT_V792h/RTT/SEGGER_RTT_printf.c ****   if (pBufferDesc->ReturnValue >= 0) {
 229              		.loc 1 177 3 is_stmt 1 view .LVU71
 230              		.loc 1 177 18 is_stmt 0 view .LVU72
 231 0064 D9F80C30 		ldr	r3, [r9, #12]
 232              		.loc 1 177 6 view .LVU73
 233 0068 002B     		cmp	r3, #0
 234 006a 25DB     		blt	.L7
 146:../Common/debuglog/SEGGER_RTT_V792h/RTT/SEGGER_RTT_printf.c ****   //
 235              		.loc 1 146 9 view .LVU74
 236 006c 0124     		movs	r4, #1
 237 006e 04E0     		b	.L19
 238              	.LVL19:
 239              	.L25:
 164:../Common/debuglog/SEGGER_RTT_V792h/RTT/SEGGER_RTT_printf.c ****       } else {
 240              		.loc 1 164 11 view .LVU75
 241 0070 3024     		movs	r4, #48
 242 0072 E8E7     		b	.L13
 243              	.LVL20:
 244              	.L28:
 178:../Common/debuglog/SEGGER_RTT_V792h/RTT/SEGGER_RTT_printf.c ****     //
 179:../Common/debuglog/SEGGER_RTT_V792h/RTT/SEGGER_RTT_printf.c ****     // Compute Digit.
 180:../Common/debuglog/SEGGER_RTT_V792h/RTT/SEGGER_RTT_printf.c ****     // Loop until Digit has the value of the highest digit required.
 181:../Common/debuglog/SEGGER_RTT_V792h/RTT/SEGGER_RTT_printf.c ****     // Example: If the output is 345 (Base 10), loop 2 times until Digit is 100.
 182:../Common/debuglog/SEGGER_RTT_V792h/RTT/SEGGER_RTT_printf.c ****     //
 183:../Common/debuglog/SEGGER_RTT_V792h/RTT/SEGGER_RTT_printf.c ****     while (1) {
 184:../Common/debuglog/SEGGER_RTT_V792h/RTT/SEGGER_RTT_printf.c ****       if (NumDigits > 1u) {       // User specified a min number of digits to print? => Make sure w
 185:../Common/debuglog/SEGGER_RTT_V792h/RTT/SEGGER_RTT_printf.c ****         NumDigits--;
 245              		.loc 1 185 9 is_stmt 1 view .LVU76
 246              		.loc 1 185 18 is_stmt 0 view .LVU77
 247 0074 013E     		subs	r6, r6, #1
 248              	.LVL21:
 249              	.L17:
 186:../Common/debuglog/SEGGER_RTT_V792h/RTT/SEGGER_RTT_printf.c ****       } else {
 187:../Common/debuglog/SEGGER_RTT_V792h/RTT/SEGGER_RTT_printf.c ****         Div = v / Digit;
 188:../Common/debuglog/SEGGER_RTT_V792h/RTT/SEGGER_RTT_printf.c ****         if (Div < Base) {        // Is our divider big enough to extract the highest digit from val
 189:../Common/debuglog/SEGGER_RTT_V792h/RTT/SEGGER_RTT_printf.c ****           break;
 190:../Common/debuglog/SEGGER_RTT_V792h/RTT/SEGGER_RTT_printf.c ****         }
 191:../Common/debuglog/SEGGER_RTT_V792h/RTT/SEGGER_RTT_printf.c ****       }
 192:../Common/debuglog/SEGGER_RTT_V792h/RTT/SEGGER_RTT_printf.c ****       Digit *= Base;
 250              		.loc 1 192 7 is_stmt 1 view .LVU78
 251              		.loc 1 192 13 is_stmt 0 view .LVU79
 252 0076 05FB04F4 		mul	r4, r5, r4
 253              	.LVL22:
ARM GAS  C:\Users\57308\AppData\Local\Temp\ccteq3kE.s 			page 9


 183:../Common/debuglog/SEGGER_RTT_V792h/RTT/SEGGER_RTT_printf.c ****       if (NumDigits > 1u) {       // User specified a min number of digits to print? => Make sure w
 254              		.loc 1 183 11 is_stmt 1 view .LVU80
 255              	.L19:
 183:../Common/debuglog/SEGGER_RTT_V792h/RTT/SEGGER_RTT_printf.c ****       if (NumDigits > 1u) {       // User specified a min number of digits to print? => Make sure w
 256              		.loc 1 183 5 view .LVU81
 184:../Common/debuglog/SEGGER_RTT_V792h/RTT/SEGGER_RTT_printf.c ****         NumDigits--;
 257              		.loc 1 184 7 view .LVU82
 184:../Common/debuglog/SEGGER_RTT_V792h/RTT/SEGGER_RTT_printf.c ****         NumDigits--;
 258              		.loc 1 184 10 is_stmt 0 view .LVU83
 259 007a 012E     		cmp	r6, #1
 260 007c FAD8     		bhi	.L28
 187:../Common/debuglog/SEGGER_RTT_V792h/RTT/SEGGER_RTT_printf.c ****         if (Div < Base) {        // Is our divider big enough to extract the highest digit from val
 261              		.loc 1 187 9 is_stmt 1 view .LVU84
 187:../Common/debuglog/SEGGER_RTT_V792h/RTT/SEGGER_RTT_printf.c ****         if (Div < Base) {        // Is our divider big enough to extract the highest digit from val
 262              		.loc 1 187 13 is_stmt 0 view .LVU85
 263 007e B7FBF4F3 		udiv	r3, r7, r4
 264              	.LVL23:
 188:../Common/debuglog/SEGGER_RTT_V792h/RTT/SEGGER_RTT_printf.c ****           break;
 265              		.loc 1 188 9 is_stmt 1 view .LVU86
 188:../Common/debuglog/SEGGER_RTT_V792h/RTT/SEGGER_RTT_printf.c ****           break;
 266              		.loc 1 188 12 is_stmt 0 view .LVU87
 267 0082 9D42     		cmp	r5, r3
 268 0084 F7D9     		bls	.L17
 269 0086 00E0     		b	.L18
 270              	.LVL24:
 271              	.L26:
 193:../Common/debuglog/SEGGER_RTT_V792h/RTT/SEGGER_RTT_printf.c ****     }
 194:../Common/debuglog/SEGGER_RTT_V792h/RTT/SEGGER_RTT_printf.c ****     //
 195:../Common/debuglog/SEGGER_RTT_V792h/RTT/SEGGER_RTT_printf.c ****     // Output digits
 196:../Common/debuglog/SEGGER_RTT_V792h/RTT/SEGGER_RTT_printf.c ****     //
 197:../Common/debuglog/SEGGER_RTT_V792h/RTT/SEGGER_RTT_printf.c ****     do {
 198:../Common/debuglog/SEGGER_RTT_V792h/RTT/SEGGER_RTT_printf.c ****       Div = v / Digit;
 199:../Common/debuglog/SEGGER_RTT_V792h/RTT/SEGGER_RTT_printf.c ****       v -= Div * Digit;
 200:../Common/debuglog/SEGGER_RTT_V792h/RTT/SEGGER_RTT_printf.c ****       _StoreChar(pBufferDesc, _aV2C[Div]);
 201:../Common/debuglog/SEGGER_RTT_V792h/RTT/SEGGER_RTT_printf.c ****       if (pBufferDesc->ReturnValue < 0) {
 202:../Common/debuglog/SEGGER_RTT_V792h/RTT/SEGGER_RTT_printf.c ****         break;
 203:../Common/debuglog/SEGGER_RTT_V792h/RTT/SEGGER_RTT_printf.c ****       }
 204:../Common/debuglog/SEGGER_RTT_V792h/RTT/SEGGER_RTT_printf.c ****       Digit /= Base;
 272              		.loc 1 204 13 view .LVU88
 273 0088 1C46     		mov	r4, r3
 274              	.LVL25:
 275              	.L18:
 197:../Common/debuglog/SEGGER_RTT_V792h/RTT/SEGGER_RTT_printf.c ****       Div = v / Digit;
 276              		.loc 1 197 5 is_stmt 1 view .LVU89
 198:../Common/debuglog/SEGGER_RTT_V792h/RTT/SEGGER_RTT_printf.c ****       v -= Div * Digit;
 277              		.loc 1 198 7 view .LVU90
 198:../Common/debuglog/SEGGER_RTT_V792h/RTT/SEGGER_RTT_printf.c ****       v -= Div * Digit;
 278              		.loc 1 198 11 is_stmt 0 view .LVU91
 279 008a B7FBF4F3 		udiv	r3, r7, r4
 280              	.LVL26:
 199:../Common/debuglog/SEGGER_RTT_V792h/RTT/SEGGER_RTT_printf.c ****       _StoreChar(pBufferDesc, _aV2C[Div]);
 281              		.loc 1 199 7 is_stmt 1 view .LVU92
 282 008e 04FB1377 		mls	r7, r4, r3, r7
 283              	.LVL27:
 200:../Common/debuglog/SEGGER_RTT_V792h/RTT/SEGGER_RTT_printf.c ****       if (pBufferDesc->ReturnValue < 0) {
 284              		.loc 1 200 7 view .LVU93
 285 0092 124A     		ldr	r2, .L29
ARM GAS  C:\Users\57308\AppData\Local\Temp\ccteq3kE.s 			page 10


 286 0094 D15C     		ldrb	r1, [r2, r3]	@ zero_extendqisi2
 287 0096 4846     		mov	r0, r9
 288 0098 FFF7FEFF 		bl	_StoreChar
 289              	.LVL28:
 201:../Common/debuglog/SEGGER_RTT_V792h/RTT/SEGGER_RTT_printf.c ****         break;
 290              		.loc 1 201 7 view .LVU94
 201:../Common/debuglog/SEGGER_RTT_V792h/RTT/SEGGER_RTT_printf.c ****         break;
 291              		.loc 1 201 22 is_stmt 0 view .LVU95
 292 009c D9F80C30 		ldr	r3, [r9, #12]
 201:../Common/debuglog/SEGGER_RTT_V792h/RTT/SEGGER_RTT_printf.c ****         break;
 293              		.loc 1 201 10 view .LVU96
 294 00a0 002B     		cmp	r3, #0
 295 00a2 03DB     		blt	.L20
 296              		.loc 1 204 7 is_stmt 1 view .LVU97
 297              		.loc 1 204 13 is_stmt 0 view .LVU98
 298 00a4 B4FBF5F3 		udiv	r3, r4, r5
 299              	.LVL29:
 205:../Common/debuglog/SEGGER_RTT_V792h/RTT/SEGGER_RTT_printf.c ****     } while (Digit);
 300              		.loc 1 205 13 is_stmt 1 view .LVU99
 301              		.loc 1 205 5 is_stmt 0 view .LVU100
 302 00a8 AC42     		cmp	r4, r5
 303 00aa EDD2     		bcs	.L26
 304              	.LVL30:
 305              	.L20:
 206:../Common/debuglog/SEGGER_RTT_V792h/RTT/SEGGER_RTT_printf.c ****     //
 207:../Common/debuglog/SEGGER_RTT_V792h/RTT/SEGGER_RTT_printf.c ****     // Print trailing spaces if necessary
 208:../Common/debuglog/SEGGER_RTT_V792h/RTT/SEGGER_RTT_printf.c ****     //
 209:../Common/debuglog/SEGGER_RTT_V792h/RTT/SEGGER_RTT_printf.c ****     if ((FormatFlags & FORMAT_FLAG_LEFT_JUSTIFY) == FORMAT_FLAG_LEFT_JUSTIFY) {
 306              		.loc 1 209 5 is_stmt 1 view .LVU101
 307              		.loc 1 209 8 is_stmt 0 view .LVU102
 308 00ac BBF1000F 		cmp	fp, #0
 309 00b0 02D0     		beq	.L7
 210:../Common/debuglog/SEGGER_RTT_V792h/RTT/SEGGER_RTT_printf.c ****       if (FieldWidth != 0u) {
 310              		.loc 1 210 7 is_stmt 1 view .LVU103
 311              		.loc 1 210 10 is_stmt 0 view .LVU104
 312 00b2 BAF1000F 		cmp	r10, #0
 313 00b6 01D1     		bne	.L21
 314              	.L7:
 211:../Common/debuglog/SEGGER_RTT_V792h/RTT/SEGGER_RTT_printf.c ****         while ((FieldWidth != 0u) && (Width < FieldWidth)) {
 212:../Common/debuglog/SEGGER_RTT_V792h/RTT/SEGGER_RTT_printf.c ****           FieldWidth--;
 213:../Common/debuglog/SEGGER_RTT_V792h/RTT/SEGGER_RTT_printf.c ****           _StoreChar(pBufferDesc, ' ');
 214:../Common/debuglog/SEGGER_RTT_V792h/RTT/SEGGER_RTT_printf.c ****           if (pBufferDesc->ReturnValue < 0) {
 215:../Common/debuglog/SEGGER_RTT_V792h/RTT/SEGGER_RTT_printf.c ****             break;
 216:../Common/debuglog/SEGGER_RTT_V792h/RTT/SEGGER_RTT_printf.c ****           }
 217:../Common/debuglog/SEGGER_RTT_V792h/RTT/SEGGER_RTT_printf.c ****         }
 218:../Common/debuglog/SEGGER_RTT_V792h/RTT/SEGGER_RTT_printf.c ****       }
 219:../Common/debuglog/SEGGER_RTT_V792h/RTT/SEGGER_RTT_printf.c ****     }
 220:../Common/debuglog/SEGGER_RTT_V792h/RTT/SEGGER_RTT_printf.c ****   }
 221:../Common/debuglog/SEGGER_RTT_V792h/RTT/SEGGER_RTT_printf.c **** }
 315              		.loc 1 221 1 view .LVU105
 316 00b8 BDE8F88F 		pop	{r3, r4, r5, r6, r7, r8, r9, r10, fp, pc}
 317              	.LVL31:
 318              	.L21:
 211:../Common/debuglog/SEGGER_RTT_V792h/RTT/SEGGER_RTT_printf.c ****         while ((FieldWidth != 0u) && (Width < FieldWidth)) {
 319              		.loc 1 211 15 is_stmt 1 view .LVU106
 320 00bc BAF1000F 		cmp	r10, #0
 321 00c0 FAD0     		beq	.L7
ARM GAS  C:\Users\57308\AppData\Local\Temp\ccteq3kE.s 			page 11


 211:../Common/debuglog/SEGGER_RTT_V792h/RTT/SEGGER_RTT_printf.c ****         while ((FieldWidth != 0u) && (Width < FieldWidth)) {
 322              		.loc 1 211 35 is_stmt 0 discriminator 1 view .LVU107
 323 00c2 C245     		cmp	r10, r8
 324 00c4 F8D9     		bls	.L7
 212:../Common/debuglog/SEGGER_RTT_V792h/RTT/SEGGER_RTT_printf.c ****           _StoreChar(pBufferDesc, ' ');
 325              		.loc 1 212 11 is_stmt 1 view .LVU108
 212:../Common/debuglog/SEGGER_RTT_V792h/RTT/SEGGER_RTT_printf.c ****           _StoreChar(pBufferDesc, ' ');
 326              		.loc 1 212 21 is_stmt 0 view .LVU109
 327 00c6 0AF1FF3A 		add	r10, r10, #-1
 328              	.LVL32:
 213:../Common/debuglog/SEGGER_RTT_V792h/RTT/SEGGER_RTT_printf.c ****           if (pBufferDesc->ReturnValue < 0) {
 329              		.loc 1 213 11 is_stmt 1 view .LVU110
 330 00ca 2021     		movs	r1, #32
 331 00cc 4846     		mov	r0, r9
 332 00ce FFF7FEFF 		bl	_StoreChar
 333              	.LVL33:
 214:../Common/debuglog/SEGGER_RTT_V792h/RTT/SEGGER_RTT_printf.c ****             break;
 334              		.loc 1 214 11 view .LVU111
 214:../Common/debuglog/SEGGER_RTT_V792h/RTT/SEGGER_RTT_printf.c ****             break;
 335              		.loc 1 214 26 is_stmt 0 view .LVU112
 336 00d2 D9F80C30 		ldr	r3, [r9, #12]
 214:../Common/debuglog/SEGGER_RTT_V792h/RTT/SEGGER_RTT_printf.c ****             break;
 337              		.loc 1 214 14 view .LVU113
 338 00d6 002B     		cmp	r3, #0
 339 00d8 F0DA     		bge	.L21
 340 00da EDE7     		b	.L7
 341              	.L30:
 342              		.align	2
 343              	.L29:
 344 00dc 00000000 		.word	.LANCHOR0
 345              		.cfi_endproc
 346              	.LFE1:
 348              		.section	.text._PrintInt,"ax",%progbits
 349              		.align	1
 350              		.syntax unified
 351              		.thumb
 352              		.thumb_func
 354              	_PrintInt:
 355              	.LVL34:
 356              	.LFB2:
 222:../Common/debuglog/SEGGER_RTT_V792h/RTT/SEGGER_RTT_printf.c **** 
 223:../Common/debuglog/SEGGER_RTT_V792h/RTT/SEGGER_RTT_printf.c **** /*********************************************************************
 224:../Common/debuglog/SEGGER_RTT_V792h/RTT/SEGGER_RTT_printf.c **** *
 225:../Common/debuglog/SEGGER_RTT_V792h/RTT/SEGGER_RTT_printf.c **** *       _PrintInt
 226:../Common/debuglog/SEGGER_RTT_V792h/RTT/SEGGER_RTT_printf.c **** */
 227:../Common/debuglog/SEGGER_RTT_V792h/RTT/SEGGER_RTT_printf.c **** static void _PrintInt(SEGGER_RTT_PRINTF_DESC * pBufferDesc, int v, unsigned Base, unsigned NumDigit
 357              		.loc 1 227 146 is_stmt 1 view -0
 358              		.cfi_startproc
 359              		@ args = 8, pretend = 0, frame = 0
 360              		@ frame_needed = 0, uses_anonymous_args = 0
 361              		.loc 1 227 146 is_stmt 0 view .LVU115
 362 0000 2DE9F047 		push	{r4, r5, r6, r7, r8, r9, r10, lr}
 363              	.LCFI2:
 364              		.cfi_def_cfa_offset 32
 365              		.cfi_offset 4, -32
 366              		.cfi_offset 5, -28
 367              		.cfi_offset 6, -24
ARM GAS  C:\Users\57308\AppData\Local\Temp\ccteq3kE.s 			page 12


 368              		.cfi_offset 7, -20
 369              		.cfi_offset 8, -16
 370              		.cfi_offset 9, -12
 371              		.cfi_offset 10, -8
 372              		.cfi_offset 14, -4
 373 0004 82B0     		sub	sp, sp, #8
 374              	.LCFI3:
 375              		.cfi_def_cfa_offset 40
 376 0006 0746     		mov	r7, r0
 377 0008 8846     		mov	r8, r1
 378 000a 1546     		mov	r5, r2
 379 000c 9946     		mov	r9, r3
 380 000e 0A9E     		ldr	r6, [sp, #40]
 381 0010 DDF82CA0 		ldr	r10, [sp, #44]
 228:../Common/debuglog/SEGGER_RTT_V792h/RTT/SEGGER_RTT_printf.c ****   unsigned Width;
 382              		.loc 1 228 3 is_stmt 1 view .LVU116
 229:../Common/debuglog/SEGGER_RTT_V792h/RTT/SEGGER_RTT_printf.c ****   int Number;
 383              		.loc 1 229 3 view .LVU117
 230:../Common/debuglog/SEGGER_RTT_V792h/RTT/SEGGER_RTT_printf.c **** 
 231:../Common/debuglog/SEGGER_RTT_V792h/RTT/SEGGER_RTT_printf.c ****   Number = (v < 0) ? -v : v;
 384              		.loc 1 231 3 view .LVU118
 385              		.loc 1 231 10 is_stmt 0 view .LVU119
 386 0014 81EAE17C 		eor	ip, r1, r1, asr #31
 387 0018 ACEBE17C 		sub	ip, ip, r1, asr #31
 388              	.LVL35:
 232:../Common/debuglog/SEGGER_RTT_V792h/RTT/SEGGER_RTT_printf.c **** 
 233:../Common/debuglog/SEGGER_RTT_V792h/RTT/SEGGER_RTT_printf.c ****   //
 234:../Common/debuglog/SEGGER_RTT_V792h/RTT/SEGGER_RTT_printf.c ****   // Get actual field width
 235:../Common/debuglog/SEGGER_RTT_V792h/RTT/SEGGER_RTT_printf.c ****   //
 236:../Common/debuglog/SEGGER_RTT_V792h/RTT/SEGGER_RTT_printf.c ****   Width = 1u;
 389              		.loc 1 236 3 is_stmt 1 view .LVU120
 237:../Common/debuglog/SEGGER_RTT_V792h/RTT/SEGGER_RTT_printf.c ****   while (Number >= (int)Base) {
 390              		.loc 1 237 3 view .LVU121
 236:../Common/debuglog/SEGGER_RTT_V792h/RTT/SEGGER_RTT_printf.c ****   while (Number >= (int)Base) {
 391              		.loc 1 236 9 is_stmt 0 view .LVU122
 392 001c 0124     		movs	r4, #1
 393              		.loc 1 237 9 view .LVU123
 394 001e 02E0     		b	.L32
 395              	.LVL36:
 396              	.L33:
 238:../Common/debuglog/SEGGER_RTT_V792h/RTT/SEGGER_RTT_printf.c ****     Number = (Number / (int)Base);
 397              		.loc 1 238 5 is_stmt 1 view .LVU124
 398              		.loc 1 238 12 is_stmt 0 view .LVU125
 399 0020 9CFBF5FC 		sdiv	ip, ip, r5
 400              	.LVL37:
 239:../Common/debuglog/SEGGER_RTT_V792h/RTT/SEGGER_RTT_printf.c ****     Width++;
 401              		.loc 1 239 5 is_stmt 1 view .LVU126
 402              		.loc 1 239 10 is_stmt 0 view .LVU127
 403 0024 0134     		adds	r4, r4, #1
 404              	.LVL38:
 405              	.L32:
 237:../Common/debuglog/SEGGER_RTT_V792h/RTT/SEGGER_RTT_printf.c ****     Number = (Number / (int)Base);
 406              		.loc 1 237 9 is_stmt 1 view .LVU128
 407 0026 6545     		cmp	r5, ip
 408 0028 FADD     		ble	.L33
 240:../Common/debuglog/SEGGER_RTT_V792h/RTT/SEGGER_RTT_printf.c ****   }
 241:../Common/debuglog/SEGGER_RTT_V792h/RTT/SEGGER_RTT_printf.c ****   if (NumDigits > Width) {
ARM GAS  C:\Users\57308\AppData\Local\Temp\ccteq3kE.s 			page 13


 409              		.loc 1 241 3 view .LVU129
 410              		.loc 1 241 6 is_stmt 0 view .LVU130
 411 002a 4C45     		cmp	r4, r9
 412 002c 00D2     		bcs	.L34
 242:../Common/debuglog/SEGGER_RTT_V792h/RTT/SEGGER_RTT_printf.c ****     Width = NumDigits;
 413              		.loc 1 242 11 view .LVU131
 414 002e 4C46     		mov	r4, r9
 415              	.LVL39:
 416              	.L34:
 243:../Common/debuglog/SEGGER_RTT_V792h/RTT/SEGGER_RTT_printf.c ****   }
 244:../Common/debuglog/SEGGER_RTT_V792h/RTT/SEGGER_RTT_printf.c ****   if ((FieldWidth > 0u) && ((v < 0) || ((FormatFlags & FORMAT_FLAG_PRINT_SIGN) == FORMAT_FLAG_PRINT
 417              		.loc 1 244 3 is_stmt 1 view .LVU132
 418              		.loc 1 244 6 is_stmt 0 view .LVU133
 419 0030 36B1     		cbz	r6, .L35
 420              		.loc 1 244 25 discriminator 1 view .LVU134
 421 0032 B8F1000F 		cmp	r8, #0
 422 0036 02DB     		blt	.L36
 423              		.loc 1 244 37 discriminator 2 view .LVU135
 424 0038 1AF0040F 		tst	r10, #4
 425 003c 00D0     		beq	.L35
 426              	.L36:
 245:../Common/debuglog/SEGGER_RTT_V792h/RTT/SEGGER_RTT_printf.c ****     FieldWidth--;
 427              		.loc 1 245 5 is_stmt 1 view .LVU136
 428              		.loc 1 245 15 is_stmt 0 view .LVU137
 429 003e 013E     		subs	r6, r6, #1
 430              	.LVL40:
 431              	.L35:
 246:../Common/debuglog/SEGGER_RTT_V792h/RTT/SEGGER_RTT_printf.c ****   }
 247:../Common/debuglog/SEGGER_RTT_V792h/RTT/SEGGER_RTT_printf.c **** 
 248:../Common/debuglog/SEGGER_RTT_V792h/RTT/SEGGER_RTT_printf.c ****   //
 249:../Common/debuglog/SEGGER_RTT_V792h/RTT/SEGGER_RTT_printf.c ****   // Print leading spaces if necessary
 250:../Common/debuglog/SEGGER_RTT_V792h/RTT/SEGGER_RTT_printf.c ****   //
 251:../Common/debuglog/SEGGER_RTT_V792h/RTT/SEGGER_RTT_printf.c ****   if ((((FormatFlags & FORMAT_FLAG_PAD_ZERO) == 0u) || (NumDigits != 0u)) && ((FormatFlags & FORMAT
 432              		.loc 1 251 3 is_stmt 1 view .LVU138
 433              		.loc 1 251 6 is_stmt 0 view .LVU139
 434 0040 1AF0020F 		tst	r10, #2
 435 0044 02D0     		beq	.L37
 436              		.loc 1 251 53 discriminator 2 view .LVU140
 437 0046 B9F1000F 		cmp	r9, #0
 438 004a 03D0     		beq	.L38
 439              	.L37:
 440              		.loc 1 251 75 discriminator 3 view .LVU141
 441 004c 1AF0010F 		tst	r10, #1
 442 0050 00D1     		bne	.L38
 252:../Common/debuglog/SEGGER_RTT_V792h/RTT/SEGGER_RTT_printf.c ****     if (FieldWidth != 0u) {
 443              		.loc 1 252 5 is_stmt 1 view .LVU142
 444              		.loc 1 252 8 is_stmt 0 view .LVU143
 445 0052 AEB9     		cbnz	r6, .L39
 446              	.LVL41:
 447              	.L38:
 253:../Common/debuglog/SEGGER_RTT_V792h/RTT/SEGGER_RTT_printf.c ****       while ((FieldWidth != 0u) && (Width < FieldWidth)) {
 254:../Common/debuglog/SEGGER_RTT_V792h/RTT/SEGGER_RTT_printf.c ****         FieldWidth--;
 255:../Common/debuglog/SEGGER_RTT_V792h/RTT/SEGGER_RTT_printf.c ****         _StoreChar(pBufferDesc, ' ');
 256:../Common/debuglog/SEGGER_RTT_V792h/RTT/SEGGER_RTT_printf.c ****         if (pBufferDesc->ReturnValue < 0) {
 257:../Common/debuglog/SEGGER_RTT_V792h/RTT/SEGGER_RTT_printf.c ****           break;
 258:../Common/debuglog/SEGGER_RTT_V792h/RTT/SEGGER_RTT_printf.c ****         }
 259:../Common/debuglog/SEGGER_RTT_V792h/RTT/SEGGER_RTT_printf.c ****       }
ARM GAS  C:\Users\57308\AppData\Local\Temp\ccteq3kE.s 			page 14


 260:../Common/debuglog/SEGGER_RTT_V792h/RTT/SEGGER_RTT_printf.c ****     }
 261:../Common/debuglog/SEGGER_RTT_V792h/RTT/SEGGER_RTT_printf.c ****   }
 262:../Common/debuglog/SEGGER_RTT_V792h/RTT/SEGGER_RTT_printf.c ****   //
 263:../Common/debuglog/SEGGER_RTT_V792h/RTT/SEGGER_RTT_printf.c ****   // Print sign if necessary
 264:../Common/debuglog/SEGGER_RTT_V792h/RTT/SEGGER_RTT_printf.c ****   //
 265:../Common/debuglog/SEGGER_RTT_V792h/RTT/SEGGER_RTT_printf.c ****   if (pBufferDesc->ReturnValue >= 0) {
 448              		.loc 1 265 3 is_stmt 1 view .LVU144
 449              		.loc 1 265 18 is_stmt 0 view .LVU145
 450 0054 FB68     		ldr	r3, [r7, #12]
 451              		.loc 1 265 6 view .LVU146
 452 0056 002B     		cmp	r3, #0
 453 0058 0FDB     		blt	.L31
 266:../Common/debuglog/SEGGER_RTT_V792h/RTT/SEGGER_RTT_printf.c ****     if (v < 0) {
 454              		.loc 1 266 5 is_stmt 1 view .LVU147
 455              		.loc 1 266 8 is_stmt 0 view .LVU148
 456 005a B8F1000F 		cmp	r8, #0
 457 005e 1CDB     		blt	.L49
 267:../Common/debuglog/SEGGER_RTT_V792h/RTT/SEGGER_RTT_printf.c ****       v = -v;
 268:../Common/debuglog/SEGGER_RTT_V792h/RTT/SEGGER_RTT_printf.c ****       _StoreChar(pBufferDesc, '-');
 269:../Common/debuglog/SEGGER_RTT_V792h/RTT/SEGGER_RTT_printf.c ****     } else if ((FormatFlags & FORMAT_FLAG_PRINT_SIGN) == FORMAT_FLAG_PRINT_SIGN) {
 458              		.loc 1 269 12 is_stmt 1 view .LVU149
 459              		.loc 1 269 15 is_stmt 0 view .LVU150
 460 0060 1AF0040F 		tst	r10, #4
 461 0064 20D1     		bne	.L50
 462              	.L43:
 270:../Common/debuglog/SEGGER_RTT_V792h/RTT/SEGGER_RTT_printf.c ****       _StoreChar(pBufferDesc, '+');
 271:../Common/debuglog/SEGGER_RTT_V792h/RTT/SEGGER_RTT_printf.c ****     } else {
 272:../Common/debuglog/SEGGER_RTT_V792h/RTT/SEGGER_RTT_printf.c **** 
 273:../Common/debuglog/SEGGER_RTT_V792h/RTT/SEGGER_RTT_printf.c ****     }
 463              		.loc 1 273 5 is_stmt 1 view .LVU151
 274:../Common/debuglog/SEGGER_RTT_V792h/RTT/SEGGER_RTT_printf.c ****     if (pBufferDesc->ReturnValue >= 0) {
 464              		.loc 1 274 5 view .LVU152
 465              		.loc 1 274 20 is_stmt 0 view .LVU153
 466 0066 FB68     		ldr	r3, [r7, #12]
 467              		.loc 1 274 8 view .LVU154
 468 0068 002B     		cmp	r3, #0
 469 006a 06DB     		blt	.L31
 275:../Common/debuglog/SEGGER_RTT_V792h/RTT/SEGGER_RTT_printf.c ****       //
 276:../Common/debuglog/SEGGER_RTT_V792h/RTT/SEGGER_RTT_printf.c ****       // Print leading zeros if necessary
 277:../Common/debuglog/SEGGER_RTT_V792h/RTT/SEGGER_RTT_printf.c ****       //
 278:../Common/debuglog/SEGGER_RTT_V792h/RTT/SEGGER_RTT_printf.c ****       if (((FormatFlags & FORMAT_FLAG_PAD_ZERO) == FORMAT_FLAG_PAD_ZERO) && ((FormatFlags & FORMAT_
 470              		.loc 1 278 7 is_stmt 1 view .LVU155
 471              		.loc 1 278 74 is_stmt 0 view .LVU156
 472 006c 0AF00303 		and	r3, r10, #3
 473              		.loc 1 278 10 view .LVU157
 474 0070 022B     		cmp	r3, #2
 475 0072 1ED0     		beq	.L51
 476              	.L44:
 279:../Common/debuglog/SEGGER_RTT_V792h/RTT/SEGGER_RTT_printf.c ****         if (FieldWidth != 0u) {
 280:../Common/debuglog/SEGGER_RTT_V792h/RTT/SEGGER_RTT_printf.c ****           while ((FieldWidth != 0u) && (Width < FieldWidth)) {
 281:../Common/debuglog/SEGGER_RTT_V792h/RTT/SEGGER_RTT_printf.c ****             FieldWidth--;
 282:../Common/debuglog/SEGGER_RTT_V792h/RTT/SEGGER_RTT_printf.c ****             _StoreChar(pBufferDesc, '0');
 283:../Common/debuglog/SEGGER_RTT_V792h/RTT/SEGGER_RTT_printf.c ****             if (pBufferDesc->ReturnValue < 0) {
 284:../Common/debuglog/SEGGER_RTT_V792h/RTT/SEGGER_RTT_printf.c ****               break;
 285:../Common/debuglog/SEGGER_RTT_V792h/RTT/SEGGER_RTT_printf.c ****             }
 286:../Common/debuglog/SEGGER_RTT_V792h/RTT/SEGGER_RTT_printf.c ****           }
 287:../Common/debuglog/SEGGER_RTT_V792h/RTT/SEGGER_RTT_printf.c ****         }
ARM GAS  C:\Users\57308\AppData\Local\Temp\ccteq3kE.s 			page 15


 288:../Common/debuglog/SEGGER_RTT_V792h/RTT/SEGGER_RTT_printf.c ****       }
 289:../Common/debuglog/SEGGER_RTT_V792h/RTT/SEGGER_RTT_printf.c ****       if (pBufferDesc->ReturnValue >= 0) {
 477              		.loc 1 289 7 is_stmt 1 view .LVU158
 478              		.loc 1 289 22 is_stmt 0 view .LVU159
 479 0074 FB68     		ldr	r3, [r7, #12]
 480              		.loc 1 289 10 view .LVU160
 481 0076 002B     		cmp	r3, #0
 482 0078 2DDA     		bge	.L52
 483              	.L31:
 290:../Common/debuglog/SEGGER_RTT_V792h/RTT/SEGGER_RTT_printf.c ****         //
 291:../Common/debuglog/SEGGER_RTT_V792h/RTT/SEGGER_RTT_printf.c ****         // Print number without sign
 292:../Common/debuglog/SEGGER_RTT_V792h/RTT/SEGGER_RTT_printf.c ****         //
 293:../Common/debuglog/SEGGER_RTT_V792h/RTT/SEGGER_RTT_printf.c ****         _PrintUnsigned(pBufferDesc, (unsigned)v, Base, NumDigits, FieldWidth, FormatFlags);
 294:../Common/debuglog/SEGGER_RTT_V792h/RTT/SEGGER_RTT_printf.c ****       }
 295:../Common/debuglog/SEGGER_RTT_V792h/RTT/SEGGER_RTT_printf.c ****     }
 296:../Common/debuglog/SEGGER_RTT_V792h/RTT/SEGGER_RTT_printf.c ****   }
 297:../Common/debuglog/SEGGER_RTT_V792h/RTT/SEGGER_RTT_printf.c **** }
 484              		.loc 1 297 1 view .LVU161
 485 007a 02B0     		add	sp, sp, #8
 486              	.LCFI4:
 487              		.cfi_remember_state
 488              		.cfi_def_cfa_offset 32
 489              		@ sp needed
 490 007c BDE8F087 		pop	{r4, r5, r6, r7, r8, r9, r10, pc}
 491              	.LVL42:
 492              	.L39:
 493              	.LCFI5:
 494              		.cfi_restore_state
 253:../Common/debuglog/SEGGER_RTT_V792h/RTT/SEGGER_RTT_printf.c ****         FieldWidth--;
 495              		.loc 1 253 13 is_stmt 1 view .LVU162
 496 0080 002E     		cmp	r6, #0
 497 0082 E7D0     		beq	.L38
 253:../Common/debuglog/SEGGER_RTT_V792h/RTT/SEGGER_RTT_printf.c ****         FieldWidth--;
 498              		.loc 1 253 33 is_stmt 0 discriminator 1 view .LVU163
 499 0084 A642     		cmp	r6, r4
 500 0086 E5D9     		bls	.L38
 254:../Common/debuglog/SEGGER_RTT_V792h/RTT/SEGGER_RTT_printf.c ****         _StoreChar(pBufferDesc, ' ');
 501              		.loc 1 254 9 is_stmt 1 view .LVU164
 254:../Common/debuglog/SEGGER_RTT_V792h/RTT/SEGGER_RTT_printf.c ****         _StoreChar(pBufferDesc, ' ');
 502              		.loc 1 254 19 is_stmt 0 view .LVU165
 503 0088 013E     		subs	r6, r6, #1
 504              	.LVL43:
 255:../Common/debuglog/SEGGER_RTT_V792h/RTT/SEGGER_RTT_printf.c ****         if (pBufferDesc->ReturnValue < 0) {
 505              		.loc 1 255 9 is_stmt 1 view .LVU166
 506 008a 2021     		movs	r1, #32
 507 008c 3846     		mov	r0, r7
 508 008e FFF7FEFF 		bl	_StoreChar
 509              	.LVL44:
 256:../Common/debuglog/SEGGER_RTT_V792h/RTT/SEGGER_RTT_printf.c ****           break;
 510              		.loc 1 256 9 view .LVU167
 256:../Common/debuglog/SEGGER_RTT_V792h/RTT/SEGGER_RTT_printf.c ****           break;
 511              		.loc 1 256 24 is_stmt 0 view .LVU168
 512 0092 FB68     		ldr	r3, [r7, #12]
 256:../Common/debuglog/SEGGER_RTT_V792h/RTT/SEGGER_RTT_printf.c ****           break;
 513              		.loc 1 256 12 view .LVU169
 514 0094 002B     		cmp	r3, #0
 515 0096 F3DA     		bge	.L39
ARM GAS  C:\Users\57308\AppData\Local\Temp\ccteq3kE.s 			page 16


 516 0098 DCE7     		b	.L38
 517              	.L49:
 267:../Common/debuglog/SEGGER_RTT_V792h/RTT/SEGGER_RTT_printf.c ****       _StoreChar(pBufferDesc, '-');
 518              		.loc 1 267 7 is_stmt 1 view .LVU170
 267:../Common/debuglog/SEGGER_RTT_V792h/RTT/SEGGER_RTT_printf.c ****       _StoreChar(pBufferDesc, '-');
 519              		.loc 1 267 9 is_stmt 0 view .LVU171
 520 009a C8F10008 		rsb	r8, r8, #0
 521              	.LVL45:
 268:../Common/debuglog/SEGGER_RTT_V792h/RTT/SEGGER_RTT_printf.c ****     } else if ((FormatFlags & FORMAT_FLAG_PRINT_SIGN) == FORMAT_FLAG_PRINT_SIGN) {
 522              		.loc 1 268 7 is_stmt 1 view .LVU172
 523 009e 2D21     		movs	r1, #45
 524 00a0 3846     		mov	r0, r7
 525 00a2 FFF7FEFF 		bl	_StoreChar
 526              	.LVL46:
 527 00a6 DEE7     		b	.L43
 528              	.L50:
 270:../Common/debuglog/SEGGER_RTT_V792h/RTT/SEGGER_RTT_printf.c ****     } else {
 529              		.loc 1 270 7 view .LVU173
 530 00a8 2B21     		movs	r1, #43
 531 00aa 3846     		mov	r0, r7
 532 00ac FFF7FEFF 		bl	_StoreChar
 533              	.LVL47:
 534 00b0 D9E7     		b	.L43
 535              	.L51:
 278:../Common/debuglog/SEGGER_RTT_V792h/RTT/SEGGER_RTT_printf.c ****         if (FieldWidth != 0u) {
 536              		.loc 1 278 126 is_stmt 0 discriminator 1 view .LVU174
 537 00b2 B9F1000F 		cmp	r9, #0
 538 00b6 DDD1     		bne	.L44
 279:../Common/debuglog/SEGGER_RTT_V792h/RTT/SEGGER_RTT_printf.c ****           while ((FieldWidth != 0u) && (Width < FieldWidth)) {
 539              		.loc 1 279 9 is_stmt 1 view .LVU175
 279:../Common/debuglog/SEGGER_RTT_V792h/RTT/SEGGER_RTT_printf.c ****           while ((FieldWidth != 0u) && (Width < FieldWidth)) {
 540              		.loc 1 279 12 is_stmt 0 view .LVU176
 541 00b8 002E     		cmp	r6, #0
 542 00ba DBD0     		beq	.L44
 543              	.L45:
 280:../Common/debuglog/SEGGER_RTT_V792h/RTT/SEGGER_RTT_printf.c ****             FieldWidth--;
 544              		.loc 1 280 17 is_stmt 1 view .LVU177
 545 00bc 002E     		cmp	r6, #0
 546 00be D9D0     		beq	.L44
 280:../Common/debuglog/SEGGER_RTT_V792h/RTT/SEGGER_RTT_printf.c ****             FieldWidth--;
 547              		.loc 1 280 37 is_stmt 0 discriminator 1 view .LVU178
 548 00c0 A642     		cmp	r6, r4
 549 00c2 D7D9     		bls	.L44
 281:../Common/debuglog/SEGGER_RTT_V792h/RTT/SEGGER_RTT_printf.c ****             _StoreChar(pBufferDesc, '0');
 550              		.loc 1 281 13 is_stmt 1 view .LVU179
 281:../Common/debuglog/SEGGER_RTT_V792h/RTT/SEGGER_RTT_printf.c ****             _StoreChar(pBufferDesc, '0');
 551              		.loc 1 281 23 is_stmt 0 view .LVU180
 552 00c4 013E     		subs	r6, r6, #1
 553              	.LVL48:
 282:../Common/debuglog/SEGGER_RTT_V792h/RTT/SEGGER_RTT_printf.c ****             if (pBufferDesc->ReturnValue < 0) {
 554              		.loc 1 282 13 is_stmt 1 view .LVU181
 555 00c6 3021     		movs	r1, #48
 556 00c8 3846     		mov	r0, r7
 557 00ca FFF7FEFF 		bl	_StoreChar
 558              	.LVL49:
 283:../Common/debuglog/SEGGER_RTT_V792h/RTT/SEGGER_RTT_printf.c ****               break;
 559              		.loc 1 283 13 view .LVU182
ARM GAS  C:\Users\57308\AppData\Local\Temp\ccteq3kE.s 			page 17


 283:../Common/debuglog/SEGGER_RTT_V792h/RTT/SEGGER_RTT_printf.c ****               break;
 560              		.loc 1 283 28 is_stmt 0 view .LVU183
 561 00ce FB68     		ldr	r3, [r7, #12]
 283:../Common/debuglog/SEGGER_RTT_V792h/RTT/SEGGER_RTT_printf.c ****               break;
 562              		.loc 1 283 16 view .LVU184
 563 00d0 002B     		cmp	r3, #0
 564 00d2 F3DA     		bge	.L45
 565 00d4 CEE7     		b	.L44
 566              	.L52:
 293:../Common/debuglog/SEGGER_RTT_V792h/RTT/SEGGER_RTT_printf.c ****       }
 567              		.loc 1 293 9 is_stmt 1 view .LVU185
 568 00d6 CDF804A0 		str	r10, [sp, #4]
 569 00da 0096     		str	r6, [sp]
 570 00dc 4B46     		mov	r3, r9
 571 00de 2A46     		mov	r2, r5
 572 00e0 4146     		mov	r1, r8
 573 00e2 3846     		mov	r0, r7
 574 00e4 FFF7FEFF 		bl	_PrintUnsigned
 575              	.LVL50:
 576              		.loc 1 297 1 is_stmt 0 view .LVU186
 577 00e8 C7E7     		b	.L31
 578              		.cfi_endproc
 579              	.LFE2:
 581              		.global	__aeabi_d2f
 582              		.section	.text.SEGGER_RTT_vprintf,"ax",%progbits
 583              		.align	1
 584              		.global	SEGGER_RTT_vprintf
 585              		.syntax unified
 586              		.thumb
 587              		.thumb_func
 589              	SEGGER_RTT_vprintf:
 590              	.LVL51:
 591              	.LFB3:
 298:../Common/debuglog/SEGGER_RTT_V792h/RTT/SEGGER_RTT_printf.c **** 
 299:../Common/debuglog/SEGGER_RTT_V792h/RTT/SEGGER_RTT_printf.c **** /*********************************************************************
 300:../Common/debuglog/SEGGER_RTT_V792h/RTT/SEGGER_RTT_printf.c **** *
 301:../Common/debuglog/SEGGER_RTT_V792h/RTT/SEGGER_RTT_printf.c **** *       Public code
 302:../Common/debuglog/SEGGER_RTT_V792h/RTT/SEGGER_RTT_printf.c **** *
 303:../Common/debuglog/SEGGER_RTT_V792h/RTT/SEGGER_RTT_printf.c **** **********************************************************************
 304:../Common/debuglog/SEGGER_RTT_V792h/RTT/SEGGER_RTT_printf.c **** */
 305:../Common/debuglog/SEGGER_RTT_V792h/RTT/SEGGER_RTT_printf.c **** /*********************************************************************
 306:../Common/debuglog/SEGGER_RTT_V792h/RTT/SEGGER_RTT_printf.c **** *
 307:../Common/debuglog/SEGGER_RTT_V792h/RTT/SEGGER_RTT_printf.c **** *       SEGGER_RTT_vprintf
 308:../Common/debuglog/SEGGER_RTT_V792h/RTT/SEGGER_RTT_printf.c **** *
 309:../Common/debuglog/SEGGER_RTT_V792h/RTT/SEGGER_RTT_printf.c **** *  Function description
 310:../Common/debuglog/SEGGER_RTT_V792h/RTT/SEGGER_RTT_printf.c **** *    Stores a formatted string in SEGGER RTT control block.
 311:../Common/debuglog/SEGGER_RTT_V792h/RTT/SEGGER_RTT_printf.c **** *    This data is read by the host.
 312:../Common/debuglog/SEGGER_RTT_V792h/RTT/SEGGER_RTT_printf.c **** *
 313:../Common/debuglog/SEGGER_RTT_V792h/RTT/SEGGER_RTT_printf.c **** *  Parameters
 314:../Common/debuglog/SEGGER_RTT_V792h/RTT/SEGGER_RTT_printf.c **** *    BufferIndex  Index of "Up"-buffer to be used. (e.g. 0 for "Terminal")
 315:../Common/debuglog/SEGGER_RTT_V792h/RTT/SEGGER_RTT_printf.c **** *    sFormat      Pointer to format string
 316:../Common/debuglog/SEGGER_RTT_V792h/RTT/SEGGER_RTT_printf.c **** *    pParamList   Pointer to the list of arguments for the format string
 317:../Common/debuglog/SEGGER_RTT_V792h/RTT/SEGGER_RTT_printf.c **** *
 318:../Common/debuglog/SEGGER_RTT_V792h/RTT/SEGGER_RTT_printf.c **** *  Return values
 319:../Common/debuglog/SEGGER_RTT_V792h/RTT/SEGGER_RTT_printf.c **** *    >= 0:  Number of bytes which have been stored in the "Up"-buffer.
 320:../Common/debuglog/SEGGER_RTT_V792h/RTT/SEGGER_RTT_printf.c **** *     < 0:  Error
 321:../Common/debuglog/SEGGER_RTT_V792h/RTT/SEGGER_RTT_printf.c **** */
ARM GAS  C:\Users\57308\AppData\Local\Temp\ccteq3kE.s 			page 18


 322:../Common/debuglog/SEGGER_RTT_V792h/RTT/SEGGER_RTT_printf.c **** int SEGGER_RTT_vprintf(unsigned BufferIndex, const char * sFormat, va_list * pParamList) {
 592              		.loc 1 322 90 is_stmt 1 view -0
 593              		.cfi_startproc
 594              		@ args = 0, pretend = 0, frame = 88
 595              		@ frame_needed = 0, uses_anonymous_args = 0
 596              		.loc 1 322 90 is_stmt 0 view .LVU188
 597 0000 2DE9F043 		push	{r4, r5, r6, r7, r8, r9, lr}
 598              	.LCFI6:
 599              		.cfi_def_cfa_offset 28
 600              		.cfi_offset 4, -28
 601              		.cfi_offset 5, -24
 602              		.cfi_offset 6, -20
 603              		.cfi_offset 7, -16
 604              		.cfi_offset 8, -12
 605              		.cfi_offset 9, -8
 606              		.cfi_offset 14, -4
 607 0004 2DED028B 		vpush.64	{d8}
 608              	.LCFI7:
 609              		.cfi_def_cfa_offset 36
 610              		.cfi_offset 80, -36
 611              		.cfi_offset 81, -32
 612 0008 99B0     		sub	sp, sp, #100
 613              	.LCFI8:
 614              		.cfi_def_cfa_offset 136
 615 000a 0746     		mov	r7, r0
 616 000c 0C46     		mov	r4, r1
 617 000e 1646     		mov	r6, r2
 323:../Common/debuglog/SEGGER_RTT_V792h/RTT/SEGGER_RTT_printf.c ****   char c;
 618              		.loc 1 323 3 is_stmt 1 view .LVU189
 324:../Common/debuglog/SEGGER_RTT_V792h/RTT/SEGGER_RTT_printf.c ****   SEGGER_RTT_PRINTF_DESC BufferDesc;
 619              		.loc 1 324 3 view .LVU190
 325:../Common/debuglog/SEGGER_RTT_V792h/RTT/SEGGER_RTT_printf.c ****   int v;
 620              		.loc 1 325 3 view .LVU191
 326:../Common/debuglog/SEGGER_RTT_V792h/RTT/SEGGER_RTT_printf.c ****   unsigned NumDigits;
 621              		.loc 1 326 3 view .LVU192
 327:../Common/debuglog/SEGGER_RTT_V792h/RTT/SEGGER_RTT_printf.c ****   unsigned FormatFlags;
 622              		.loc 1 327 3 view .LVU193
 328:../Common/debuglog/SEGGER_RTT_V792h/RTT/SEGGER_RTT_printf.c ****   unsigned FieldWidth;
 623              		.loc 1 328 3 view .LVU194
 329:../Common/debuglog/SEGGER_RTT_V792h/RTT/SEGGER_RTT_printf.c ****   char acBuffer[SEGGER_RTT_PRINTF_BUFFER_SIZE];
 624              		.loc 1 329 3 view .LVU195
 330:../Common/debuglog/SEGGER_RTT_V792h/RTT/SEGGER_RTT_printf.c **** 
 331:../Common/debuglog/SEGGER_RTT_V792h/RTT/SEGGER_RTT_printf.c ****   BufferDesc.pBuffer        = acBuffer;
 625              		.loc 1 331 3 view .LVU196
 626              		.loc 1 331 29 is_stmt 0 view .LVU197
 627 0010 03AB     		add	r3, sp, #12
 628 0012 1393     		str	r3, [sp, #76]
 332:../Common/debuglog/SEGGER_RTT_V792h/RTT/SEGGER_RTT_printf.c ****   BufferDesc.BufferSize     = SEGGER_RTT_PRINTF_BUFFER_SIZE;
 629              		.loc 1 332 3 is_stmt 1 view .LVU198
 630              		.loc 1 332 29 is_stmt 0 view .LVU199
 631 0014 4023     		movs	r3, #64
 632 0016 1493     		str	r3, [sp, #80]
 333:../Common/debuglog/SEGGER_RTT_V792h/RTT/SEGGER_RTT_printf.c ****   BufferDesc.Cnt            = 0u;
 633              		.loc 1 333 3 is_stmt 1 view .LVU200
 634              		.loc 1 333 29 is_stmt 0 view .LVU201
 635 0018 0023     		movs	r3, #0
 636 001a 1593     		str	r3, [sp, #84]
ARM GAS  C:\Users\57308\AppData\Local\Temp\ccteq3kE.s 			page 19


 334:../Common/debuglog/SEGGER_RTT_V792h/RTT/SEGGER_RTT_printf.c ****   BufferDesc.RTTBufferIndex = BufferIndex;
 637              		.loc 1 334 3 is_stmt 1 view .LVU202
 638              		.loc 1 334 29 is_stmt 0 view .LVU203
 639 001c 1790     		str	r0, [sp, #92]
 335:../Common/debuglog/SEGGER_RTT_V792h/RTT/SEGGER_RTT_printf.c ****   BufferDesc.ReturnValue    = 0;
 640              		.loc 1 335 3 is_stmt 1 view .LVU204
 641              		.loc 1 335 29 is_stmt 0 view .LVU205
 642 001e 1693     		str	r3, [sp, #88]
 643 0020 97E0     		b	.L84
 644              	.LVL52:
 645              	.L94:
 336:../Common/debuglog/SEGGER_RTT_V792h/RTT/SEGGER_RTT_printf.c **** 
 337:../Common/debuglog/SEGGER_RTT_V792h/RTT/SEGGER_RTT_printf.c ****   do {
 338:../Common/debuglog/SEGGER_RTT_V792h/RTT/SEGGER_RTT_printf.c ****     c = *sFormat;
 339:../Common/debuglog/SEGGER_RTT_V792h/RTT/SEGGER_RTT_printf.c ****     sFormat++;
 340:../Common/debuglog/SEGGER_RTT_V792h/RTT/SEGGER_RTT_printf.c ****     if (c == 0u) {
 341:../Common/debuglog/SEGGER_RTT_V792h/RTT/SEGGER_RTT_printf.c ****       break;
 342:../Common/debuglog/SEGGER_RTT_V792h/RTT/SEGGER_RTT_printf.c ****     }
 343:../Common/debuglog/SEGGER_RTT_V792h/RTT/SEGGER_RTT_printf.c ****     if (c == '%') {
 344:../Common/debuglog/SEGGER_RTT_V792h/RTT/SEGGER_RTT_printf.c ****       //
 345:../Common/debuglog/SEGGER_RTT_V792h/RTT/SEGGER_RTT_printf.c ****       // Filter out flags
 346:../Common/debuglog/SEGGER_RTT_V792h/RTT/SEGGER_RTT_printf.c ****       //
 347:../Common/debuglog/SEGGER_RTT_V792h/RTT/SEGGER_RTT_printf.c ****       FormatFlags = 0u;
 646              		.loc 1 347 19 view .LVU206
 647 0022 0025     		movs	r5, #0
 348:../Common/debuglog/SEGGER_RTT_V792h/RTT/SEGGER_RTT_printf.c ****       v = 1;
 648              		.loc 1 348 9 view .LVU207
 649 0024 0122     		movs	r2, #1
 650 0026 11E0     		b	.L62
 651              	.LVL53:
 652              	.L59:
 349:../Common/debuglog/SEGGER_RTT_V792h/RTT/SEGGER_RTT_printf.c ****       do {
 350:../Common/debuglog/SEGGER_RTT_V792h/RTT/SEGGER_RTT_printf.c ****         c = *sFormat;
 351:../Common/debuglog/SEGGER_RTT_V792h/RTT/SEGGER_RTT_printf.c ****         switch (c) {
 352:../Common/debuglog/SEGGER_RTT_V792h/RTT/SEGGER_RTT_printf.c ****         case '-': FormatFlags |= FORMAT_FLAG_LEFT_JUSTIFY; sFormat++; break;
 653              		.loc 1 352 19 is_stmt 1 view .LVU208
 654              		.loc 1 352 31 is_stmt 0 view .LVU209
 655 0028 45F00105 		orr	r5, r5, #1
 656              	.LVL54:
 657              		.loc 1 352 60 is_stmt 1 view .LVU210
 658              		.loc 1 352 67 is_stmt 0 view .LVU211
 659 002c 0134     		adds	r4, r4, #1
 660              	.LVL55:
 661              		.loc 1 352 71 is_stmt 1 view .LVU212
 662              		.loc 1 352 9 is_stmt 0 view .LVU213
 663 002e 0CE0     		b	.L56
 664              	.L57:
 353:../Common/debuglog/SEGGER_RTT_V792h/RTT/SEGGER_RTT_printf.c ****         case '0': FormatFlags |= FORMAT_FLAG_PAD_ZERO;     sFormat++; break;
 665              		.loc 1 353 19 is_stmt 1 view .LVU214
 666              		.loc 1 353 31 is_stmt 0 view .LVU215
 667 0030 45F00205 		orr	r5, r5, #2
 668              	.LVL56:
 669              		.loc 1 353 60 is_stmt 1 view .LVU216
 670              		.loc 1 353 67 is_stmt 0 view .LVU217
 671 0034 0134     		adds	r4, r4, #1
 672              	.LVL57:
 673              		.loc 1 353 71 is_stmt 1 view .LVU218
ARM GAS  C:\Users\57308\AppData\Local\Temp\ccteq3kE.s 			page 20


 674              		.loc 1 353 9 is_stmt 0 view .LVU219
 675 0036 08E0     		b	.L56
 676              	.L60:
 354:../Common/debuglog/SEGGER_RTT_V792h/RTT/SEGGER_RTT_printf.c ****         case '+': FormatFlags |= FORMAT_FLAG_PRINT_SIGN;   sFormat++; break;
 677              		.loc 1 354 19 is_stmt 1 view .LVU220
 678              		.loc 1 354 31 is_stmt 0 view .LVU221
 679 0038 45F00405 		orr	r5, r5, #4
 680              	.LVL58:
 681              		.loc 1 354 60 is_stmt 1 view .LVU222
 682              		.loc 1 354 67 is_stmt 0 view .LVU223
 683 003c 0134     		adds	r4, r4, #1
 684              	.LVL59:
 685              		.loc 1 354 71 is_stmt 1 view .LVU224
 686              		.loc 1 354 9 is_stmt 0 view .LVU225
 687 003e 04E0     		b	.L56
 688              	.L61:
 355:../Common/debuglog/SEGGER_RTT_V792h/RTT/SEGGER_RTT_printf.c ****         case '#': FormatFlags |= FORMAT_FLAG_ALTERNATE;    sFormat++; break;
 689              		.loc 1 355 19 is_stmt 1 view .LVU226
 690              		.loc 1 355 31 is_stmt 0 view .LVU227
 691 0040 45F00805 		orr	r5, r5, #8
 692              	.LVL60:
 693              		.loc 1 355 60 is_stmt 1 view .LVU228
 694              		.loc 1 355 67 is_stmt 0 view .LVU229
 695 0044 0134     		adds	r4, r4, #1
 696              	.LVL61:
 697              		.loc 1 355 71 is_stmt 1 view .LVU230
 698              		.loc 1 355 9 is_stmt 0 view .LVU231
 699 0046 00E0     		b	.L56
 700              	.L87:
 351:../Common/debuglog/SEGGER_RTT_V792h/RTT/SEGGER_RTT_printf.c ****         case '-': FormatFlags |= FORMAT_FLAG_LEFT_JUSTIFY; sFormat++; break;
 701              		.loc 1 351 9 view .LVU232
 702 0048 0022     		movs	r2, #0
 703              	.LVL62:
 704              	.L56:
 356:../Common/debuglog/SEGGER_RTT_V792h/RTT/SEGGER_RTT_printf.c ****         default:  v = 0; break;
 357:../Common/debuglog/SEGGER_RTT_V792h/RTT/SEGGER_RTT_printf.c ****         }
 358:../Common/debuglog/SEGGER_RTT_V792h/RTT/SEGGER_RTT_printf.c ****       } while (v);
 705              		.loc 1 358 15 is_stmt 1 view .LVU233
 706              		.loc 1 358 7 is_stmt 0 view .LVU234
 707 004a 1AB3     		cbz	r2, .L91
 708              	.LVL63:
 709              	.L62:
 349:../Common/debuglog/SEGGER_RTT_V792h/RTT/SEGGER_RTT_printf.c ****         c = *sFormat;
 710              		.loc 1 349 7 is_stmt 1 view .LVU235
 350:../Common/debuglog/SEGGER_RTT_V792h/RTT/SEGGER_RTT_printf.c ****         switch (c) {
 711              		.loc 1 350 9 view .LVU236
 350:../Common/debuglog/SEGGER_RTT_V792h/RTT/SEGGER_RTT_printf.c ****         switch (c) {
 712              		.loc 1 350 11 is_stmt 0 view .LVU237
 713 004c 2378     		ldrb	r3, [r4]	@ zero_extendqisi2
 714              	.LVL64:
 351:../Common/debuglog/SEGGER_RTT_V792h/RTT/SEGGER_RTT_printf.c ****         case '-': FormatFlags |= FORMAT_FLAG_LEFT_JUSTIFY; sFormat++; break;
 715              		.loc 1 351 9 is_stmt 1 view .LVU238
 716 004e 233B     		subs	r3, r3, #35
 717              	.LVL65:
 351:../Common/debuglog/SEGGER_RTT_V792h/RTT/SEGGER_RTT_printf.c ****         case '-': FormatFlags |= FORMAT_FLAG_LEFT_JUSTIFY; sFormat++; break;
 718              		.loc 1 351 9 is_stmt 0 view .LVU239
 719 0050 0D2B     		cmp	r3, #13
ARM GAS  C:\Users\57308\AppData\Local\Temp\ccteq3kE.s 			page 21


 720 0052 F9D8     		bhi	.L87
 721 0054 01A1     		adr	r1, .L58
 722 0056 51F823F0 		ldr	pc, [r1, r3, lsl #2]
 723 005a 00BF     		.p2align 2
 724              	.L58:
 725 005c 41000000 		.word	.L61+1
 726 0060 49000000 		.word	.L87+1
 727 0064 49000000 		.word	.L87+1
 728 0068 49000000 		.word	.L87+1
 729 006c 49000000 		.word	.L87+1
 730 0070 49000000 		.word	.L87+1
 731 0074 49000000 		.word	.L87+1
 732 0078 49000000 		.word	.L87+1
 733 007c 39000000 		.word	.L60+1
 734 0080 49000000 		.word	.L87+1
 735 0084 29000000 		.word	.L59+1
 736 0088 49000000 		.word	.L87+1
 737 008c 49000000 		.word	.L87+1
 738 0090 31000000 		.word	.L57+1
 739              		.p2align 1
 740              	.L91:
 359:../Common/debuglog/SEGGER_RTT_V792h/RTT/SEGGER_RTT_printf.c ****       //
 360:../Common/debuglog/SEGGER_RTT_V792h/RTT/SEGGER_RTT_printf.c ****       // filter out field with
 361:../Common/debuglog/SEGGER_RTT_V792h/RTT/SEGGER_RTT_printf.c ****       //
 362:../Common/debuglog/SEGGER_RTT_V792h/RTT/SEGGER_RTT_printf.c ****       FieldWidth = 0u;
 741              		.loc 1 362 18 view .LVU240
 742 0094 4FF00008 		mov	r8, #0
 743 0098 06E0     		b	.L64
 744              	.LVL66:
 745              	.L92:
 363:../Common/debuglog/SEGGER_RTT_V792h/RTT/SEGGER_RTT_printf.c ****       do {
 364:../Common/debuglog/SEGGER_RTT_V792h/RTT/SEGGER_RTT_printf.c ****         c = *sFormat;
 365:../Common/debuglog/SEGGER_RTT_V792h/RTT/SEGGER_RTT_printf.c ****         if ((c < '0') || (c > '9')) {
 366:../Common/debuglog/SEGGER_RTT_V792h/RTT/SEGGER_RTT_printf.c ****           break;
 367:../Common/debuglog/SEGGER_RTT_V792h/RTT/SEGGER_RTT_printf.c ****         }
 368:../Common/debuglog/SEGGER_RTT_V792h/RTT/SEGGER_RTT_printf.c ****         sFormat++;
 746              		.loc 1 368 9 is_stmt 1 view .LVU241
 747              		.loc 1 368 16 is_stmt 0 view .LVU242
 748 009a 0134     		adds	r4, r4, #1
 749              	.LVL67:
 369:../Common/debuglog/SEGGER_RTT_V792h/RTT/SEGGER_RTT_printf.c ****         FieldWidth = (FieldWidth * 10u) + ((unsigned)c - '0');
 750              		.loc 1 369 9 is_stmt 1 view .LVU243
 751              		.loc 1 369 34 is_stmt 0 view .LVU244
 752 009c 08EB8808 		add	r8, r8, r8, lsl #2
 753              	.LVL68:
 754              		.loc 1 369 41 view .LVU245
 755 00a0 03EB4803 		add	r3, r3, r8, lsl #1
 756              	.LVL69:
 757              		.loc 1 369 20 view .LVU246
 758 00a4 A3F13008 		sub	r8, r3, #48
 759              	.LVL70:
 370:../Common/debuglog/SEGGER_RTT_V792h/RTT/SEGGER_RTT_printf.c ****       } while (1);
 760              		.loc 1 370 15 is_stmt 1 view .LVU247
 761              	.L64:
 363:../Common/debuglog/SEGGER_RTT_V792h/RTT/SEGGER_RTT_printf.c ****       do {
 762              		.loc 1 363 7 view .LVU248
 364:../Common/debuglog/SEGGER_RTT_V792h/RTT/SEGGER_RTT_printf.c ****         if ((c < '0') || (c > '9')) {
ARM GAS  C:\Users\57308\AppData\Local\Temp\ccteq3kE.s 			page 22


 763              		.loc 1 364 9 view .LVU249
 364:../Common/debuglog/SEGGER_RTT_V792h/RTT/SEGGER_RTT_printf.c ****         if ((c < '0') || (c > '9')) {
 764              		.loc 1 364 11 is_stmt 0 view .LVU250
 765 00a8 2378     		ldrb	r3, [r4]	@ zero_extendqisi2
 766              	.LVL71:
 365:../Common/debuglog/SEGGER_RTT_V792h/RTT/SEGGER_RTT_printf.c ****           break;
 767              		.loc 1 365 9 is_stmt 1 view .LVU251
 365:../Common/debuglog/SEGGER_RTT_V792h/RTT/SEGGER_RTT_printf.c ****           break;
 768              		.loc 1 365 23 is_stmt 0 view .LVU252
 769 00aa A3F13002 		sub	r2, r3, #48
 770 00ae D2B2     		uxtb	r2, r2
 365:../Common/debuglog/SEGGER_RTT_V792h/RTT/SEGGER_RTT_printf.c ****           break;
 771              		.loc 1 365 12 view .LVU253
 772 00b0 092A     		cmp	r2, #9
 773 00b2 F2D9     		bls	.L92
 371:../Common/debuglog/SEGGER_RTT_V792h/RTT/SEGGER_RTT_printf.c **** 
 372:../Common/debuglog/SEGGER_RTT_V792h/RTT/SEGGER_RTT_printf.c ****       //
 373:../Common/debuglog/SEGGER_RTT_V792h/RTT/SEGGER_RTT_printf.c ****       // Filter out precision (number of digits to display)
 374:../Common/debuglog/SEGGER_RTT_V792h/RTT/SEGGER_RTT_printf.c ****       //
 375:../Common/debuglog/SEGGER_RTT_V792h/RTT/SEGGER_RTT_printf.c ****       NumDigits = 0u;
 774              		.loc 1 375 7 is_stmt 1 view .LVU254
 775              	.LVL72:
 376:../Common/debuglog/SEGGER_RTT_V792h/RTT/SEGGER_RTT_printf.c ****       c = *sFormat;
 776              		.loc 1 376 7 view .LVU255
 377:../Common/debuglog/SEGGER_RTT_V792h/RTT/SEGGER_RTT_printf.c ****       if (c == '.') {
 777              		.loc 1 377 7 view .LVU256
 778              		.loc 1 377 10 is_stmt 0 view .LVU257
 779 00b4 2E2B     		cmp	r3, #46
 780 00b6 03D0     		beq	.L93
 375:../Common/debuglog/SEGGER_RTT_V792h/RTT/SEGGER_RTT_printf.c ****       c = *sFormat;
 781              		.loc 1 375 17 view .LVU258
 782 00b8 4FF00009 		mov	r9, #0
 783              	.LVL73:
 784              	.L65:
 378:../Common/debuglog/SEGGER_RTT_V792h/RTT/SEGGER_RTT_printf.c ****         sFormat++;
 379:../Common/debuglog/SEGGER_RTT_V792h/RTT/SEGGER_RTT_printf.c ****         do {
 380:../Common/debuglog/SEGGER_RTT_V792h/RTT/SEGGER_RTT_printf.c ****           c = *sFormat;
 381:../Common/debuglog/SEGGER_RTT_V792h/RTT/SEGGER_RTT_printf.c ****           if ((c < '0') || (c > '9')) {
 382:../Common/debuglog/SEGGER_RTT_V792h/RTT/SEGGER_RTT_printf.c ****             break;
 383:../Common/debuglog/SEGGER_RTT_V792h/RTT/SEGGER_RTT_printf.c ****           }
 384:../Common/debuglog/SEGGER_RTT_V792h/RTT/SEGGER_RTT_printf.c ****           sFormat++;
 385:../Common/debuglog/SEGGER_RTT_V792h/RTT/SEGGER_RTT_printf.c ****           NumDigits = NumDigits * 10u + ((unsigned)c - '0');
 386:../Common/debuglog/SEGGER_RTT_V792h/RTT/SEGGER_RTT_printf.c ****         } while (1);
 387:../Common/debuglog/SEGGER_RTT_V792h/RTT/SEGGER_RTT_printf.c ****       }
 388:../Common/debuglog/SEGGER_RTT_V792h/RTT/SEGGER_RTT_printf.c ****       //
 389:../Common/debuglog/SEGGER_RTT_V792h/RTT/SEGGER_RTT_printf.c ****       // Filter out length modifier
 390:../Common/debuglog/SEGGER_RTT_V792h/RTT/SEGGER_RTT_printf.c ****       //
 391:../Common/debuglog/SEGGER_RTT_V792h/RTT/SEGGER_RTT_printf.c ****       c = *sFormat;
 785              		.loc 1 391 7 is_stmt 1 view .LVU259
 786              		.loc 1 391 9 is_stmt 0 view .LVU260
 787 00bc 2378     		ldrb	r3, [r4]	@ zero_extendqisi2
 788              	.LVL74:
 789              		.loc 1 391 9 view .LVU261
 790 00be 12E0     		b	.L69
 791              	.LVL75:
 792              	.L93:
 378:../Common/debuglog/SEGGER_RTT_V792h/RTT/SEGGER_RTT_printf.c ****         sFormat++;
ARM GAS  C:\Users\57308\AppData\Local\Temp\ccteq3kE.s 			page 23


 793              		.loc 1 378 9 is_stmt 1 view .LVU262
 378:../Common/debuglog/SEGGER_RTT_V792h/RTT/SEGGER_RTT_printf.c ****         sFormat++;
 794              		.loc 1 378 16 is_stmt 0 view .LVU263
 795 00c0 0134     		adds	r4, r4, #1
 796              	.LVL76:
 375:../Common/debuglog/SEGGER_RTT_V792h/RTT/SEGGER_RTT_printf.c ****       c = *sFormat;
 797              		.loc 1 375 17 view .LVU264
 798 00c2 4FF00009 		mov	r9, #0
 799              	.LVL77:
 800              	.L66:
 379:../Common/debuglog/SEGGER_RTT_V792h/RTT/SEGGER_RTT_printf.c ****           c = *sFormat;
 801              		.loc 1 379 9 is_stmt 1 view .LVU265
 380:../Common/debuglog/SEGGER_RTT_V792h/RTT/SEGGER_RTT_printf.c ****           if ((c < '0') || (c > '9')) {
 802              		.loc 1 380 11 view .LVU266
 380:../Common/debuglog/SEGGER_RTT_V792h/RTT/SEGGER_RTT_printf.c ****           if ((c < '0') || (c > '9')) {
 803              		.loc 1 380 13 is_stmt 0 view .LVU267
 804 00c6 2378     		ldrb	r3, [r4]	@ zero_extendqisi2
 805              	.LVL78:
 381:../Common/debuglog/SEGGER_RTT_V792h/RTT/SEGGER_RTT_printf.c ****             break;
 806              		.loc 1 381 11 is_stmt 1 view .LVU268
 381:../Common/debuglog/SEGGER_RTT_V792h/RTT/SEGGER_RTT_printf.c ****             break;
 807              		.loc 1 381 25 is_stmt 0 view .LVU269
 808 00c8 A3F13002 		sub	r2, r3, #48
 809 00cc D2B2     		uxtb	r2, r2
 381:../Common/debuglog/SEGGER_RTT_V792h/RTT/SEGGER_RTT_printf.c ****             break;
 810              		.loc 1 381 14 view .LVU270
 811 00ce 092A     		cmp	r2, #9
 812 00d0 F4D8     		bhi	.L65
 384:../Common/debuglog/SEGGER_RTT_V792h/RTT/SEGGER_RTT_printf.c ****           NumDigits = NumDigits * 10u + ((unsigned)c - '0');
 813              		.loc 1 384 11 is_stmt 1 view .LVU271
 384:../Common/debuglog/SEGGER_RTT_V792h/RTT/SEGGER_RTT_printf.c ****           NumDigits = NumDigits * 10u + ((unsigned)c - '0');
 814              		.loc 1 384 18 is_stmt 0 view .LVU272
 815 00d2 0134     		adds	r4, r4, #1
 816              	.LVL79:
 385:../Common/debuglog/SEGGER_RTT_V792h/RTT/SEGGER_RTT_printf.c ****         } while (1);
 817              		.loc 1 385 11 is_stmt 1 view .LVU273
 385:../Common/debuglog/SEGGER_RTT_V792h/RTT/SEGGER_RTT_printf.c ****         } while (1);
 818              		.loc 1 385 33 is_stmt 0 view .LVU274
 819 00d4 09EB8909 		add	r9, r9, r9, lsl #2
 820              	.LVL80:
 385:../Common/debuglog/SEGGER_RTT_V792h/RTT/SEGGER_RTT_printf.c ****         } while (1);
 821              		.loc 1 385 39 view .LVU275
 822 00d8 03EB4909 		add	r9, r3, r9, lsl #1
 385:../Common/debuglog/SEGGER_RTT_V792h/RTT/SEGGER_RTT_printf.c ****         } while (1);
 823              		.loc 1 385 21 view .LVU276
 824 00dc A9F13009 		sub	r9, r9, #48
 825              	.LVL81:
 386:../Common/debuglog/SEGGER_RTT_V792h/RTT/SEGGER_RTT_printf.c ****       }
 826              		.loc 1 386 17 is_stmt 1 view .LVU277
 380:../Common/debuglog/SEGGER_RTT_V792h/RTT/SEGGER_RTT_printf.c ****           if ((c < '0') || (c > '9')) {
 827              		.loc 1 380 13 is_stmt 0 view .LVU278
 828 00e0 F1E7     		b	.L66
 829              	.L67:
 392:../Common/debuglog/SEGGER_RTT_V792h/RTT/SEGGER_RTT_printf.c ****       do {
 393:../Common/debuglog/SEGGER_RTT_V792h/RTT/SEGGER_RTT_printf.c ****         if ((c == 'l') || (c == 'h')) {
 394:../Common/debuglog/SEGGER_RTT_V792h/RTT/SEGGER_RTT_printf.c ****           sFormat++;
 830              		.loc 1 394 11 is_stmt 1 view .LVU279
ARM GAS  C:\Users\57308\AppData\Local\Temp\ccteq3kE.s 			page 24


 831              	.LVL82:
 395:../Common/debuglog/SEGGER_RTT_V792h/RTT/SEGGER_RTT_printf.c ****           c = *sFormat;
 832              		.loc 1 395 11 view .LVU280
 833              		.loc 1 395 13 is_stmt 0 view .LVU281
 834 00e2 14F8013F 		ldrb	r3, [r4, #1]!	@ zero_extendqisi2
 835              	.LVL83:
 396:../Common/debuglog/SEGGER_RTT_V792h/RTT/SEGGER_RTT_printf.c ****         } else {
 397:../Common/debuglog/SEGGER_RTT_V792h/RTT/SEGGER_RTT_printf.c ****           break;
 398:../Common/debuglog/SEGGER_RTT_V792h/RTT/SEGGER_RTT_printf.c ****         }
 399:../Common/debuglog/SEGGER_RTT_V792h/RTT/SEGGER_RTT_printf.c ****       } while (1);
 836              		.loc 1 399 15 is_stmt 1 view .LVU282
 837              	.L69:
 392:../Common/debuglog/SEGGER_RTT_V792h/RTT/SEGGER_RTT_printf.c ****         if ((c == 'l') || (c == 'h')) {
 838              		.loc 1 392 7 view .LVU283
 393:../Common/debuglog/SEGGER_RTT_V792h/RTT/SEGGER_RTT_printf.c ****           sFormat++;
 839              		.loc 1 393 9 view .LVU284
 393:../Common/debuglog/SEGGER_RTT_V792h/RTT/SEGGER_RTT_printf.c ****           sFormat++;
 840              		.loc 1 393 12 is_stmt 0 view .LVU285
 841 00e6 6C2B     		cmp	r3, #108
 842 00e8 FBD0     		beq	.L67
 393:../Common/debuglog/SEGGER_RTT_V792h/RTT/SEGGER_RTT_printf.c ****           sFormat++;
 843              		.loc 1 393 24 discriminator 1 view .LVU286
 844 00ea 682B     		cmp	r3, #104
 845 00ec F9D0     		beq	.L67
 400:../Common/debuglog/SEGGER_RTT_V792h/RTT/SEGGER_RTT_printf.c ****       //
 401:../Common/debuglog/SEGGER_RTT_V792h/RTT/SEGGER_RTT_printf.c ****       // Handle specifiers
 402:../Common/debuglog/SEGGER_RTT_V792h/RTT/SEGGER_RTT_printf.c ****       //
 403:../Common/debuglog/SEGGER_RTT_V792h/RTT/SEGGER_RTT_printf.c ****       switch (c) {
 846              		.loc 1 403 7 is_stmt 1 view .LVU287
 847 00ee 252B     		cmp	r3, #37
 848 00f0 7ED0     		beq	.L70
 849 00f2 29D3     		bcc	.L71
 850 00f4 782B     		cmp	r3, #120
 851 00f6 27D8     		bhi	.L71
 852 00f8 462B     		cmp	r3, #70
 853 00fa 25D3     		bcc	.L71
 854 00fc 463B     		subs	r3, r3, #70
 855              	.LVL84:
 856              		.loc 1 403 7 is_stmt 0 view .LVU288
 857 00fe 322B     		cmp	r3, #50
 858 0100 22D8     		bhi	.L71
 859 0102 DFE803F0 		tbb	[pc, r3]
 860              	.L73:
 861 0106 7A       		.byte	(.L77-.L73)/2
 862 0107 21       		.byte	(.L71-.L73)/2
 863 0108 21       		.byte	(.L71-.L73)/2
 864 0109 21       		.byte	(.L71-.L73)/2
 865 010a 21       		.byte	(.L71-.L73)/2
 866 010b 21       		.byte	(.L71-.L73)/2
 867 010c 21       		.byte	(.L71-.L73)/2
 868 010d 21       		.byte	(.L71-.L73)/2
 869 010e 21       		.byte	(.L71-.L73)/2
 870 010f 21       		.byte	(.L71-.L73)/2
 871 0110 21       		.byte	(.L71-.L73)/2
 872 0111 21       		.byte	(.L71-.L73)/2
 873 0112 21       		.byte	(.L71-.L73)/2
 874 0113 21       		.byte	(.L71-.L73)/2
ARM GAS  C:\Users\57308\AppData\Local\Temp\ccteq3kE.s 			page 25


 875 0114 21       		.byte	(.L71-.L73)/2
 876 0115 21       		.byte	(.L71-.L73)/2
 877 0116 21       		.byte	(.L71-.L73)/2
 878 0117 21       		.byte	(.L71-.L73)/2
 879 0118 4C       		.byte	(.L72-.L73)/2
 880 0119 21       		.byte	(.L71-.L73)/2
 881 011a 21       		.byte	(.L71-.L73)/2
 882 011b 21       		.byte	(.L71-.L73)/2
 883 011c 21       		.byte	(.L71-.L73)/2
 884 011d 21       		.byte	(.L71-.L73)/2
 885 011e 21       		.byte	(.L71-.L73)/2
 886 011f 21       		.byte	(.L71-.L73)/2
 887 0120 21       		.byte	(.L71-.L73)/2
 888 0121 21       		.byte	(.L71-.L73)/2
 889 0122 21       		.byte	(.L71-.L73)/2
 890 0123 1A       		.byte	(.L79-.L73)/2
 891 0124 32       		.byte	(.L78-.L73)/2
 892 0125 21       		.byte	(.L71-.L73)/2
 893 0126 7A       		.byte	(.L77-.L73)/2
 894 0127 21       		.byte	(.L71-.L73)/2
 895 0128 21       		.byte	(.L71-.L73)/2
 896 0129 21       		.byte	(.L71-.L73)/2
 897 012a 21       		.byte	(.L71-.L73)/2
 898 012b 21       		.byte	(.L71-.L73)/2
 899 012c 21       		.byte	(.L71-.L73)/2
 900 012d 21       		.byte	(.L71-.L73)/2
 901 012e 21       		.byte	(.L71-.L73)/2
 902 012f 21       		.byte	(.L71-.L73)/2
 903 0130 68       		.byte	(.L76-.L73)/2
 904 0131 21       		.byte	(.L71-.L73)/2
 905 0132 21       		.byte	(.L71-.L73)/2
 906 0133 59       		.byte	(.L75-.L73)/2
 907 0134 21       		.byte	(.L71-.L73)/2
 908 0135 3F       		.byte	(.L74-.L73)/2
 909 0136 21       		.byte	(.L71-.L73)/2
 910 0137 21       		.byte	(.L71-.L73)/2
 911 0138 4C       		.byte	(.L72-.L73)/2
 912 0139 00       		.p2align 1
 913              	.L79:
 914              	.LBB2:
 404:../Common/debuglog/SEGGER_RTT_V792h/RTT/SEGGER_RTT_printf.c ****       case 'c': {
 405:../Common/debuglog/SEGGER_RTT_V792h/RTT/SEGGER_RTT_printf.c ****         char c0;
 915              		.loc 1 405 9 is_stmt 1 view .LVU289
 406:../Common/debuglog/SEGGER_RTT_V792h/RTT/SEGGER_RTT_printf.c ****         v = va_arg(*pParamList, int);
 916              		.loc 1 406 9 view .LVU290
 917              		.loc 1 406 11 is_stmt 0 view .LVU291
 918 013a 3368     		ldr	r3, [r6]
 919 013c 1A1D     		adds	r2, r3, #4
 920 013e 3260     		str	r2, [r6]
 407:../Common/debuglog/SEGGER_RTT_V792h/RTT/SEGGER_RTT_printf.c ****         c0 = (char)v;
 921              		.loc 1 407 9 is_stmt 1 view .LVU292
 922              	.LVL85:
 408:../Common/debuglog/SEGGER_RTT_V792h/RTT/SEGGER_RTT_printf.c ****         _StoreChar(&BufferDesc, c0);
 923              		.loc 1 408 9 view .LVU293
 924 0140 1978     		ldrb	r1, [r3]	@ zero_extendqisi2
 925 0142 13A8     		add	r0, sp, #76
 926 0144 FFF7FEFF 		bl	_StoreChar
ARM GAS  C:\Users\57308\AppData\Local\Temp\ccteq3kE.s 			page 26


 927              	.LVL86:
 409:../Common/debuglog/SEGGER_RTT_V792h/RTT/SEGGER_RTT_printf.c ****         break;
 928              		.loc 1 409 9 view .LVU294
 929              	.L71:
 930              		.loc 1 409 9 is_stmt 0 view .LVU295
 931              	.LBE2:
 410:../Common/debuglog/SEGGER_RTT_V792h/RTT/SEGGER_RTT_printf.c ****       }
 411:../Common/debuglog/SEGGER_RTT_V792h/RTT/SEGGER_RTT_printf.c ****       case 'd':
 412:../Common/debuglog/SEGGER_RTT_V792h/RTT/SEGGER_RTT_printf.c ****         v = va_arg(*pParamList, int);
 413:../Common/debuglog/SEGGER_RTT_V792h/RTT/SEGGER_RTT_printf.c ****         _PrintInt(&BufferDesc, v, 10u, NumDigits, FieldWidth, FormatFlags);
 414:../Common/debuglog/SEGGER_RTT_V792h/RTT/SEGGER_RTT_printf.c ****         break;
 415:../Common/debuglog/SEGGER_RTT_V792h/RTT/SEGGER_RTT_printf.c ****       case 'u':
 416:../Common/debuglog/SEGGER_RTT_V792h/RTT/SEGGER_RTT_printf.c ****         v = va_arg(*pParamList, int);
 417:../Common/debuglog/SEGGER_RTT_V792h/RTT/SEGGER_RTT_printf.c ****         _PrintUnsigned(&BufferDesc, (unsigned)v, 10u, NumDigits, FieldWidth, FormatFlags);
 418:../Common/debuglog/SEGGER_RTT_V792h/RTT/SEGGER_RTT_printf.c ****         break;
 419:../Common/debuglog/SEGGER_RTT_V792h/RTT/SEGGER_RTT_printf.c ****       case 'x':
 420:../Common/debuglog/SEGGER_RTT_V792h/RTT/SEGGER_RTT_printf.c ****       case 'X':
 421:../Common/debuglog/SEGGER_RTT_V792h/RTT/SEGGER_RTT_printf.c ****         v = va_arg(*pParamList, int);
 422:../Common/debuglog/SEGGER_RTT_V792h/RTT/SEGGER_RTT_printf.c ****         _PrintUnsigned(&BufferDesc, (unsigned)v, 16u, NumDigits, FieldWidth, FormatFlags);
 423:../Common/debuglog/SEGGER_RTT_V792h/RTT/SEGGER_RTT_printf.c ****         break;
 424:../Common/debuglog/SEGGER_RTT_V792h/RTT/SEGGER_RTT_printf.c ****       case 's':
 425:../Common/debuglog/SEGGER_RTT_V792h/RTT/SEGGER_RTT_printf.c ****         {
 426:../Common/debuglog/SEGGER_RTT_V792h/RTT/SEGGER_RTT_printf.c ****           const char * s = va_arg(*pParamList, const char *);
 427:../Common/debuglog/SEGGER_RTT_V792h/RTT/SEGGER_RTT_printf.c ****           do {
 428:../Common/debuglog/SEGGER_RTT_V792h/RTT/SEGGER_RTT_printf.c ****             c = *s;
 429:../Common/debuglog/SEGGER_RTT_V792h/RTT/SEGGER_RTT_printf.c ****             s++;
 430:../Common/debuglog/SEGGER_RTT_V792h/RTT/SEGGER_RTT_printf.c ****             if (c == '\0') {
 431:../Common/debuglog/SEGGER_RTT_V792h/RTT/SEGGER_RTT_printf.c ****               break;
 432:../Common/debuglog/SEGGER_RTT_V792h/RTT/SEGGER_RTT_printf.c ****             }
 433:../Common/debuglog/SEGGER_RTT_V792h/RTT/SEGGER_RTT_printf.c ****            _StoreChar(&BufferDesc, c);
 434:../Common/debuglog/SEGGER_RTT_V792h/RTT/SEGGER_RTT_printf.c ****           } while (BufferDesc.ReturnValue >= 0);
 435:../Common/debuglog/SEGGER_RTT_V792h/RTT/SEGGER_RTT_printf.c ****         }
 436:../Common/debuglog/SEGGER_RTT_V792h/RTT/SEGGER_RTT_printf.c ****         break;
 437:../Common/debuglog/SEGGER_RTT_V792h/RTT/SEGGER_RTT_printf.c ****       case 'p':
 438:../Common/debuglog/SEGGER_RTT_V792h/RTT/SEGGER_RTT_printf.c ****         v = va_arg(*pParamList, int);
 439:../Common/debuglog/SEGGER_RTT_V792h/RTT/SEGGER_RTT_printf.c ****         _PrintUnsigned(&BufferDesc, (unsigned)v, 16u, 8u, 8u, 0u);
 440:../Common/debuglog/SEGGER_RTT_V792h/RTT/SEGGER_RTT_printf.c ****         break;
 441:../Common/debuglog/SEGGER_RTT_V792h/RTT/SEGGER_RTT_printf.c ****       case '%':
 442:../Common/debuglog/SEGGER_RTT_V792h/RTT/SEGGER_RTT_printf.c ****         _StoreChar(&BufferDesc, '%');
 443:../Common/debuglog/SEGGER_RTT_V792h/RTT/SEGGER_RTT_printf.c ****         break;
 444:../Common/debuglog/SEGGER_RTT_V792h/RTT/SEGGER_RTT_printf.c **** 
 445:../Common/debuglog/SEGGER_RTT_V792h/RTT/SEGGER_RTT_printf.c ****         case 'f':
 446:../Common/debuglog/SEGGER_RTT_V792h/RTT/SEGGER_RTT_printf.c ****         case 'F':
 447:../Common/debuglog/SEGGER_RTT_V792h/RTT/SEGGER_RTT_printf.c ****         {
 448:../Common/debuglog/SEGGER_RTT_V792h/RTT/SEGGER_RTT_printf.c ****             float fv;
 449:../Common/debuglog/SEGGER_RTT_V792h/RTT/SEGGER_RTT_printf.c ****             fv = (float)va_arg(*pParamList, double);    //
 450:../Common/debuglog/SEGGER_RTT_V792h/RTT/SEGGER_RTT_printf.c ****             
 451:../Common/debuglog/SEGGER_RTT_V792h/RTT/SEGGER_RTT_printf.c **** 			if(fv < 0) _StoreChar(&BufferDesc, '-');          // 
 452:../Common/debuglog/SEGGER_RTT_V792h/RTT/SEGGER_RTT_printf.c ****             
 453:../Common/debuglog/SEGGER_RTT_V792h/RTT/SEGGER_RTT_printf.c ****             v = abs((int)fv);                                //
 454:../Common/debuglog/SEGGER_RTT_V792h/RTT/SEGGER_RTT_printf.c **** 
 455:../Common/debuglog/SEGGER_RTT_V792h/RTT/SEGGER_RTT_printf.c ****             _PrintInt(&BufferDesc, v, 10u, NumDigits, FieldWidth, FormatFlags); //
 456:../Common/debuglog/SEGGER_RTT_V792h/RTT/SEGGER_RTT_printf.c ****             _StoreChar(&BufferDesc, '.');                                        //
 457:../Common/debuglog/SEGGER_RTT_V792h/RTT/SEGGER_RTT_printf.c **** 
 458:../Common/debuglog/SEGGER_RTT_V792h/RTT/SEGGER_RTT_printf.c ****             v = abs((int)(fv * 1000));               
 459:../Common/debuglog/SEGGER_RTT_V792h/RTT/SEGGER_RTT_printf.c ****             v = v % 1000;
 460:../Common/debuglog/SEGGER_RTT_V792h/RTT/SEGGER_RTT_printf.c ****             _PrintInt(&BufferDesc, v, 10u, 3, FieldWidth, FormatFlags);          //
ARM GAS  C:\Users\57308\AppData\Local\Temp\ccteq3kE.s 			page 27


 461:../Common/debuglog/SEGGER_RTT_V792h/RTT/SEGGER_RTT_printf.c ****         }
 462:../Common/debuglog/SEGGER_RTT_V792h/RTT/SEGGER_RTT_printf.c ****         break;
 463:../Common/debuglog/SEGGER_RTT_V792h/RTT/SEGGER_RTT_printf.c **** 
 464:../Common/debuglog/SEGGER_RTT_V792h/RTT/SEGGER_RTT_printf.c **** 
 465:../Common/debuglog/SEGGER_RTT_V792h/RTT/SEGGER_RTT_printf.c ****       default:
 466:../Common/debuglog/SEGGER_RTT_V792h/RTT/SEGGER_RTT_printf.c ****         break;
 467:../Common/debuglog/SEGGER_RTT_V792h/RTT/SEGGER_RTT_printf.c ****       }
 468:../Common/debuglog/SEGGER_RTT_V792h/RTT/SEGGER_RTT_printf.c ****       sFormat++;
 932              		.loc 1 468 7 is_stmt 1 view .LVU296
 933              		.loc 1 468 14 is_stmt 0 view .LVU297
 934 0148 0134     		adds	r4, r4, #1
 935              	.LVL87:
 936              	.L83:
 469:../Common/debuglog/SEGGER_RTT_V792h/RTT/SEGGER_RTT_printf.c ****     } else {
 470:../Common/debuglog/SEGGER_RTT_V792h/RTT/SEGGER_RTT_printf.c ****       _StoreChar(&BufferDesc, c);
 471:../Common/debuglog/SEGGER_RTT_V792h/RTT/SEGGER_RTT_printf.c ****     }
 472:../Common/debuglog/SEGGER_RTT_V792h/RTT/SEGGER_RTT_printf.c ****   } while (BufferDesc.ReturnValue >= 0);
 937              		.loc 1 472 11 is_stmt 1 view .LVU298
 938              		.loc 1 472 22 is_stmt 0 view .LVU299
 939 014a 169B     		ldr	r3, [sp, #88]
 940              		.loc 1 472 3 view .LVU300
 941 014c 002B     		cmp	r3, #0
 942 014e C0F29C80 		blt	.L54
 943              	.L84:
 337:../Common/debuglog/SEGGER_RTT_V792h/RTT/SEGGER_RTT_printf.c ****     c = *sFormat;
 944              		.loc 1 337 3 is_stmt 1 view .LVU301
 338:../Common/debuglog/SEGGER_RTT_V792h/RTT/SEGGER_RTT_printf.c ****     sFormat++;
 945              		.loc 1 338 5 view .LVU302
 338:../Common/debuglog/SEGGER_RTT_V792h/RTT/SEGGER_RTT_printf.c ****     sFormat++;
 946              		.loc 1 338 7 is_stmt 0 view .LVU303
 947 0152 14F8011B 		ldrb	r1, [r4], #1	@ zero_extendqisi2
 948              	.LVL88:
 339:../Common/debuglog/SEGGER_RTT_V792h/RTT/SEGGER_RTT_printf.c ****     if (c == 0u) {
 949              		.loc 1 339 5 is_stmt 1 view .LVU304
 340:../Common/debuglog/SEGGER_RTT_V792h/RTT/SEGGER_RTT_printf.c ****       break;
 950              		.loc 1 340 5 view .LVU305
 340:../Common/debuglog/SEGGER_RTT_V792h/RTT/SEGGER_RTT_printf.c ****       break;
 951              		.loc 1 340 8 is_stmt 0 view .LVU306
 952 0156 0029     		cmp	r1, #0
 953 0158 00F09780 		beq	.L54
 343:../Common/debuglog/SEGGER_RTT_V792h/RTT/SEGGER_RTT_printf.c ****       //
 954              		.loc 1 343 5 is_stmt 1 view .LVU307
 343:../Common/debuglog/SEGGER_RTT_V792h/RTT/SEGGER_RTT_printf.c ****       //
 955              		.loc 1 343 8 is_stmt 0 view .LVU308
 956 015c 2529     		cmp	r1, #37
 957 015e 3FF460AF 		beq	.L94
 470:../Common/debuglog/SEGGER_RTT_V792h/RTT/SEGGER_RTT_printf.c ****     }
 958              		.loc 1 470 7 is_stmt 1 view .LVU309
 959 0162 13A8     		add	r0, sp, #76
 960 0164 FFF7FEFF 		bl	_StoreChar
 961              	.LVL89:
 470:../Common/debuglog/SEGGER_RTT_V792h/RTT/SEGGER_RTT_printf.c ****     }
 962              		.loc 1 470 7 is_stmt 0 view .LVU310
 963 0168 EFE7     		b	.L83
 964              	.LVL90:
 965              	.L78:
 412:../Common/debuglog/SEGGER_RTT_V792h/RTT/SEGGER_RTT_printf.c ****         _PrintInt(&BufferDesc, v, 10u, NumDigits, FieldWidth, FormatFlags);
ARM GAS  C:\Users\57308\AppData\Local\Temp\ccteq3kE.s 			page 28


 966              		.loc 1 412 9 is_stmt 1 view .LVU311
 412:../Common/debuglog/SEGGER_RTT_V792h/RTT/SEGGER_RTT_printf.c ****         _PrintInt(&BufferDesc, v, 10u, NumDigits, FieldWidth, FormatFlags);
 967              		.loc 1 412 11 is_stmt 0 view .LVU312
 968 016a 3368     		ldr	r3, [r6]
 969 016c 1A1D     		adds	r2, r3, #4
 970 016e 3260     		str	r2, [r6]
 971 0170 1968     		ldr	r1, [r3]
 413:../Common/debuglog/SEGGER_RTT_V792h/RTT/SEGGER_RTT_printf.c ****         break;
 972              		.loc 1 413 9 is_stmt 1 view .LVU313
 973 0172 0195     		str	r5, [sp, #4]
 974 0174 CDF80080 		str	r8, [sp]
 975 0178 4B46     		mov	r3, r9
 976 017a 0A22     		movs	r2, #10
 977 017c 13A8     		add	r0, sp, #76
 978 017e FFF7FEFF 		bl	_PrintInt
 979              	.LVL91:
 414:../Common/debuglog/SEGGER_RTT_V792h/RTT/SEGGER_RTT_printf.c ****       case 'u':
 980              		.loc 1 414 9 view .LVU314
 981 0182 E1E7     		b	.L71
 982              	.L74:
 416:../Common/debuglog/SEGGER_RTT_V792h/RTT/SEGGER_RTT_printf.c ****         _PrintUnsigned(&BufferDesc, (unsigned)v, 10u, NumDigits, FieldWidth, FormatFlags);
 983              		.loc 1 416 9 view .LVU315
 416:../Common/debuglog/SEGGER_RTT_V792h/RTT/SEGGER_RTT_printf.c ****         _PrintUnsigned(&BufferDesc, (unsigned)v, 10u, NumDigits, FieldWidth, FormatFlags);
 984              		.loc 1 416 11 is_stmt 0 view .LVU316
 985 0184 3368     		ldr	r3, [r6]
 986 0186 1A1D     		adds	r2, r3, #4
 987 0188 3260     		str	r2, [r6]
 988 018a 1968     		ldr	r1, [r3]
 417:../Common/debuglog/SEGGER_RTT_V792h/RTT/SEGGER_RTT_printf.c ****         break;
 989              		.loc 1 417 9 is_stmt 1 view .LVU317
 990 018c 0195     		str	r5, [sp, #4]
 991 018e CDF80080 		str	r8, [sp]
 992 0192 4B46     		mov	r3, r9
 993 0194 0A22     		movs	r2, #10
 994 0196 13A8     		add	r0, sp, #76
 995 0198 FFF7FEFF 		bl	_PrintUnsigned
 996              	.LVL92:
 418:../Common/debuglog/SEGGER_RTT_V792h/RTT/SEGGER_RTT_printf.c ****       case 'x':
 997              		.loc 1 418 9 view .LVU318
 998 019c D4E7     		b	.L71
 999              	.L72:
 421:../Common/debuglog/SEGGER_RTT_V792h/RTT/SEGGER_RTT_printf.c ****         _PrintUnsigned(&BufferDesc, (unsigned)v, 16u, NumDigits, FieldWidth, FormatFlags);
 1000              		.loc 1 421 9 view .LVU319
 421:../Common/debuglog/SEGGER_RTT_V792h/RTT/SEGGER_RTT_printf.c ****         _PrintUnsigned(&BufferDesc, (unsigned)v, 16u, NumDigits, FieldWidth, FormatFlags);
 1001              		.loc 1 421 11 is_stmt 0 view .LVU320
 1002 019e 3368     		ldr	r3, [r6]
 1003 01a0 1A1D     		adds	r2, r3, #4
 1004 01a2 3260     		str	r2, [r6]
 1005 01a4 1968     		ldr	r1, [r3]
 422:../Common/debuglog/SEGGER_RTT_V792h/RTT/SEGGER_RTT_printf.c ****         break;
 1006              		.loc 1 422 9 is_stmt 1 view .LVU321
 1007 01a6 0195     		str	r5, [sp, #4]
 1008 01a8 CDF80080 		str	r8, [sp]
 1009 01ac 4B46     		mov	r3, r9
 1010 01ae 1022     		movs	r2, #16
 1011 01b0 13A8     		add	r0, sp, #76
 1012 01b2 FFF7FEFF 		bl	_PrintUnsigned
ARM GAS  C:\Users\57308\AppData\Local\Temp\ccteq3kE.s 			page 29


 1013              	.LVL93:
 423:../Common/debuglog/SEGGER_RTT_V792h/RTT/SEGGER_RTT_printf.c ****       case 's':
 1014              		.loc 1 423 9 view .LVU322
 1015 01b6 C7E7     		b	.L71
 1016              	.L75:
 1017              	.LBB3:
 426:../Common/debuglog/SEGGER_RTT_V792h/RTT/SEGGER_RTT_printf.c ****           do {
 1018              		.loc 1 426 11 view .LVU323
 426:../Common/debuglog/SEGGER_RTT_V792h/RTT/SEGGER_RTT_printf.c ****           do {
 1019              		.loc 1 426 24 is_stmt 0 view .LVU324
 1020 01b8 3368     		ldr	r3, [r6]
 1021 01ba 1A1D     		adds	r2, r3, #4
 1022 01bc 3260     		str	r2, [r6]
 1023 01be 1D68     		ldr	r5, [r3]
 1024              	.LVL94:
 1025              	.L80:
 427:../Common/debuglog/SEGGER_RTT_V792h/RTT/SEGGER_RTT_printf.c ****             c = *s;
 1026              		.loc 1 427 11 is_stmt 1 view .LVU325
 428:../Common/debuglog/SEGGER_RTT_V792h/RTT/SEGGER_RTT_printf.c ****             s++;
 1027              		.loc 1 428 13 view .LVU326
 428:../Common/debuglog/SEGGER_RTT_V792h/RTT/SEGGER_RTT_printf.c ****             s++;
 1028              		.loc 1 428 15 is_stmt 0 view .LVU327
 1029 01c0 15F8011B 		ldrb	r1, [r5], #1	@ zero_extendqisi2
 1030              	.LVL95:
 429:../Common/debuglog/SEGGER_RTT_V792h/RTT/SEGGER_RTT_printf.c ****             if (c == '\0') {
 1031              		.loc 1 429 13 is_stmt 1 view .LVU328
 430:../Common/debuglog/SEGGER_RTT_V792h/RTT/SEGGER_RTT_printf.c ****               break;
 1032              		.loc 1 430 13 view .LVU329
 430:../Common/debuglog/SEGGER_RTT_V792h/RTT/SEGGER_RTT_printf.c ****               break;
 1033              		.loc 1 430 16 is_stmt 0 view .LVU330
 1034 01c4 0029     		cmp	r1, #0
 1035 01c6 BFD0     		beq	.L71
 433:../Common/debuglog/SEGGER_RTT_V792h/RTT/SEGGER_RTT_printf.c ****           } while (BufferDesc.ReturnValue >= 0);
 1036              		.loc 1 433 12 is_stmt 1 view .LVU331
 1037 01c8 13A8     		add	r0, sp, #76
 1038 01ca FFF7FEFF 		bl	_StoreChar
 1039              	.LVL96:
 434:../Common/debuglog/SEGGER_RTT_V792h/RTT/SEGGER_RTT_printf.c ****         }
 1040              		.loc 1 434 19 view .LVU332
 434:../Common/debuglog/SEGGER_RTT_V792h/RTT/SEGGER_RTT_printf.c ****         }
 1041              		.loc 1 434 30 is_stmt 0 view .LVU333
 1042 01ce 169B     		ldr	r3, [sp, #88]
 434:../Common/debuglog/SEGGER_RTT_V792h/RTT/SEGGER_RTT_printf.c ****         }
 1043              		.loc 1 434 11 view .LVU334
 1044 01d0 002B     		cmp	r3, #0
 1045 01d2 F5DA     		bge	.L80
 1046 01d4 B8E7     		b	.L71
 1047              	.LVL97:
 1048              	.L76:
 434:../Common/debuglog/SEGGER_RTT_V792h/RTT/SEGGER_RTT_printf.c ****         }
 1049              		.loc 1 434 11 view .LVU335
 1050              	.LBE3:
 438:../Common/debuglog/SEGGER_RTT_V792h/RTT/SEGGER_RTT_printf.c ****         _PrintUnsigned(&BufferDesc, (unsigned)v, 16u, 8u, 8u, 0u);
 1051              		.loc 1 438 9 is_stmt 1 view .LVU336
 438:../Common/debuglog/SEGGER_RTT_V792h/RTT/SEGGER_RTT_printf.c ****         _PrintUnsigned(&BufferDesc, (unsigned)v, 16u, 8u, 8u, 0u);
 1052              		.loc 1 438 11 is_stmt 0 view .LVU337
 1053 01d6 3368     		ldr	r3, [r6]
ARM GAS  C:\Users\57308\AppData\Local\Temp\ccteq3kE.s 			page 30


 1054 01d8 1A1D     		adds	r2, r3, #4
 1055 01da 3260     		str	r2, [r6]
 1056 01dc 1968     		ldr	r1, [r3]
 439:../Common/debuglog/SEGGER_RTT_V792h/RTT/SEGGER_RTT_printf.c ****         break;
 1057              		.loc 1 439 9 is_stmt 1 view .LVU338
 1058 01de 0023     		movs	r3, #0
 1059 01e0 0193     		str	r3, [sp, #4]
 1060 01e2 0823     		movs	r3, #8
 1061 01e4 0093     		str	r3, [sp]
 1062 01e6 1022     		movs	r2, #16
 1063 01e8 13A8     		add	r0, sp, #76
 1064 01ea FFF7FEFF 		bl	_PrintUnsigned
 1065              	.LVL98:
 440:../Common/debuglog/SEGGER_RTT_V792h/RTT/SEGGER_RTT_printf.c ****       case '%':
 1066              		.loc 1 440 9 view .LVU339
 1067 01ee ABE7     		b	.L71
 1068              	.LVL99:
 1069              	.L70:
 442:../Common/debuglog/SEGGER_RTT_V792h/RTT/SEGGER_RTT_printf.c ****         break;
 1070              		.loc 1 442 9 view .LVU340
 1071 01f0 2521     		movs	r1, #37
 1072 01f2 13A8     		add	r0, sp, #76
 1073 01f4 FFF7FEFF 		bl	_StoreChar
 1074              	.LVL100:
 443:../Common/debuglog/SEGGER_RTT_V792h/RTT/SEGGER_RTT_printf.c **** 
 1075              		.loc 1 443 9 view .LVU341
 1076 01f8 A6E7     		b	.L71
 1077              	.L77:
 1078              	.LBB4:
 448:../Common/debuglog/SEGGER_RTT_V792h/RTT/SEGGER_RTT_printf.c ****             fv = (float)va_arg(*pParamList, double);    //
 1079              		.loc 1 448 13 view .LVU342
 449:../Common/debuglog/SEGGER_RTT_V792h/RTT/SEGGER_RTT_printf.c ****             
 1080              		.loc 1 449 13 view .LVU343
 449:../Common/debuglog/SEGGER_RTT_V792h/RTT/SEGGER_RTT_printf.c ****             
 1081              		.loc 1 449 25 is_stmt 0 view .LVU344
 1082 01fa 3368     		ldr	r3, [r6]
 1083 01fc 0733     		adds	r3, r3, #7
 1084 01fe 23F00703 		bic	r3, r3, #7
 1085 0202 03F10802 		add	r2, r3, #8
 1086 0206 3260     		str	r2, [r6]
 449:../Common/debuglog/SEGGER_RTT_V792h/RTT/SEGGER_RTT_printf.c ****             
 1087              		.loc 1 449 16 view .LVU345
 1088 0208 D3E90001 		ldrd	r0, [r3]
 1089 020c FFF7FEFF 		bl	__aeabi_d2f
 1090              	.LVL101:
 1091 0210 08EE100A 		vmov	s16, r0
 1092              	.LVL102:
 451:../Common/debuglog/SEGGER_RTT_V792h/RTT/SEGGER_RTT_printf.c ****             
 1093              		.loc 1 451 4 is_stmt 1 view .LVU346
 451:../Common/debuglog/SEGGER_RTT_V792h/RTT/SEGGER_RTT_printf.c ****             
 1094              		.loc 1 451 6 is_stmt 0 view .LVU347
 1095 0214 B5EEC08A 		vcmpe.f32	s16, #0
 1096 0218 F1EE10FA 		vmrs	APSR_nzcv, FPSCR
 1097 021c 30D4     		bmi	.L95
 1098              	.LVL103:
 1099              	.L81:
 453:../Common/debuglog/SEGGER_RTT_V792h/RTT/SEGGER_RTT_printf.c **** 
ARM GAS  C:\Users\57308\AppData\Local\Temp\ccteq3kE.s 			page 31


 1100              		.loc 1 453 13 is_stmt 1 view .LVU348
 453:../Common/debuglog/SEGGER_RTT_V792h/RTT/SEGGER_RTT_printf.c **** 
 1101              		.loc 1 453 21 is_stmt 0 view .LVU349
 1102 021e FDEEC87A 		vcvt.s32.f32	s15, s16
 1103 0222 17EE901A 		vmov	r1, s15	@ int
 1104              	.LVL104:
 455:../Common/debuglog/SEGGER_RTT_V792h/RTT/SEGGER_RTT_printf.c ****             _StoreChar(&BufferDesc, '.');                                        //
 1105              		.loc 1 455 13 is_stmt 1 view .LVU350
 1106 0226 0195     		str	r5, [sp, #4]
 1107 0228 CDF80080 		str	r8, [sp]
 1108 022c 4B46     		mov	r3, r9
 1109 022e 0A22     		movs	r2, #10
 1110 0230 0029     		cmp	r1, #0
 1111 0232 B8BF     		it	lt
 1112 0234 4942     		rsblt	r1, r1, #0
 1113              	.LVL105:
 455:../Common/debuglog/SEGGER_RTT_V792h/RTT/SEGGER_RTT_printf.c ****             _StoreChar(&BufferDesc, '.');                                        //
 1114              		.loc 1 455 13 is_stmt 0 view .LVU351
 1115 0236 13A8     		add	r0, sp, #76
 1116 0238 FFF7FEFF 		bl	_PrintInt
 1117              	.LVL106:
 456:../Common/debuglog/SEGGER_RTT_V792h/RTT/SEGGER_RTT_printf.c **** 
 1118              		.loc 1 456 13 is_stmt 1 view .LVU352
 1119 023c 2E21     		movs	r1, #46
 1120 023e 13A8     		add	r0, sp, #76
 1121 0240 FFF7FEFF 		bl	_StoreChar
 1122              	.LVL107:
 458:../Common/debuglog/SEGGER_RTT_V792h/RTT/SEGGER_RTT_printf.c ****             v = v % 1000;
 1123              		.loc 1 458 13 view .LVU353
 458:../Common/debuglog/SEGGER_RTT_V792h/RTT/SEGGER_RTT_printf.c ****             v = v % 1000;
 1124              		.loc 1 458 30 is_stmt 0 view .LVU354
 1125 0244 DFED1B7A 		vldr.32	s15, .L97
 1126 0248 28EE278A 		vmul.f32	s16, s16, s15
 1127              	.LVL108:
 458:../Common/debuglog/SEGGER_RTT_V792h/RTT/SEGGER_RTT_printf.c ****             v = v % 1000;
 1128              		.loc 1 458 21 view .LVU355
 1129 024c BDEEC88A 		vcvt.s32.f32	s16, s16
 458:../Common/debuglog/SEGGER_RTT_V792h/RTT/SEGGER_RTT_printf.c ****             v = v % 1000;
 1130              		.loc 1 458 15 view .LVU356
 1131 0250 18EE100A 		vmov	r0, s16	@ int
 1132 0254 0028     		cmp	r0, #0
 1133 0256 B8BF     		it	lt
 1134 0258 4042     		rsblt	r0, r0, #0
 1135              	.LVL109:
 459:../Common/debuglog/SEGGER_RTT_V792h/RTT/SEGGER_RTT_printf.c ****             _PrintInt(&BufferDesc, v, 10u, 3, FieldWidth, FormatFlags);          //
 1136              		.loc 1 459 13 is_stmt 1 view .LVU357
 459:../Common/debuglog/SEGGER_RTT_V792h/RTT/SEGGER_RTT_printf.c ****             _PrintInt(&BufferDesc, v, 10u, 3, FieldWidth, FormatFlags);          //
 1137              		.loc 1 459 15 is_stmt 0 view .LVU358
 1138 025a 174B     		ldr	r3, .L97+4
 1139 025c 83FB0023 		smull	r2, r3, r3, r0
 1140 0260 C117     		asrs	r1, r0, #31
 1141 0262 C1EBA311 		rsb	r1, r1, r3, asr #6
 1142              	.LVL110:
 460:../Common/debuglog/SEGGER_RTT_V792h/RTT/SEGGER_RTT_printf.c ****         }
 1143              		.loc 1 460 13 is_stmt 1 view .LVU359
 1144 0266 0195     		str	r5, [sp, #4]
 1145 0268 CDF80080 		str	r8, [sp]
ARM GAS  C:\Users\57308\AppData\Local\Temp\ccteq3kE.s 			page 32


 1146 026c 0323     		movs	r3, #3
 1147 026e 0A22     		movs	r2, #10
 1148 0270 4FF47A75 		mov	r5, #1000
 1149              	.LVL111:
 460:../Common/debuglog/SEGGER_RTT_V792h/RTT/SEGGER_RTT_printf.c ****         }
 1150              		.loc 1 460 13 is_stmt 0 view .LVU360
 1151 0274 05FB1101 		mls	r1, r5, r1, r0
 1152              	.LVL112:
 460:../Common/debuglog/SEGGER_RTT_V792h/RTT/SEGGER_RTT_printf.c ****         }
 1153              		.loc 1 460 13 view .LVU361
 1154 0278 13A8     		add	r0, sp, #76
 1155 027a FFF7FEFF 		bl	_PrintInt
 1156              	.LVL113:
 460:../Common/debuglog/SEGGER_RTT_V792h/RTT/SEGGER_RTT_printf.c ****         }
 1157              		.loc 1 460 13 view .LVU362
 1158              	.LBE4:
 462:../Common/debuglog/SEGGER_RTT_V792h/RTT/SEGGER_RTT_printf.c **** 
 1159              		.loc 1 462 9 is_stmt 1 view .LVU363
 1160 027e 63E7     		b	.L71
 1161              	.LVL114:
 1162              	.L95:
 1163              	.LBB5:
 451:../Common/debuglog/SEGGER_RTT_V792h/RTT/SEGGER_RTT_printf.c ****             
 1164              		.loc 1 451 15 discriminator 1 view .LVU364
 1165 0280 2D21     		movs	r1, #45
 1166 0282 13A8     		add	r0, sp, #76
 1167              	.LVL115:
 451:../Common/debuglog/SEGGER_RTT_V792h/RTT/SEGGER_RTT_printf.c ****             
 1168              		.loc 1 451 15 is_stmt 0 discriminator 1 view .LVU365
 1169 0284 FFF7FEFF 		bl	_StoreChar
 1170              	.LVL116:
 1171 0288 C9E7     		b	.L81
 1172              	.LVL117:
 1173              	.L54:
 451:../Common/debuglog/SEGGER_RTT_V792h/RTT/SEGGER_RTT_printf.c ****             
 1174              		.loc 1 451 15 discriminator 1 view .LVU366
 1175              	.LBE5:
 473:../Common/debuglog/SEGGER_RTT_V792h/RTT/SEGGER_RTT_printf.c **** 
 474:../Common/debuglog/SEGGER_RTT_V792h/RTT/SEGGER_RTT_printf.c ****   if (BufferDesc.ReturnValue > 0) {
 1176              		.loc 1 474 3 is_stmt 1 view .LVU367
 1177              		.loc 1 474 17 is_stmt 0 view .LVU368
 1178 028a 169B     		ldr	r3, [sp, #88]
 1179              		.loc 1 474 6 view .LVU369
 1180 028c 002B     		cmp	r3, #0
 1181 028e 05DD     		ble	.L85
 475:../Common/debuglog/SEGGER_RTT_V792h/RTT/SEGGER_RTT_printf.c ****     //
 476:../Common/debuglog/SEGGER_RTT_V792h/RTT/SEGGER_RTT_printf.c ****     // Write remaining data, if any
 477:../Common/debuglog/SEGGER_RTT_V792h/RTT/SEGGER_RTT_printf.c ****     //
 478:../Common/debuglog/SEGGER_RTT_V792h/RTT/SEGGER_RTT_printf.c ****     if (BufferDesc.Cnt != 0u) {
 1182              		.loc 1 478 5 is_stmt 1 view .LVU370
 1183              		.loc 1 478 19 is_stmt 0 view .LVU371
 1184 0290 159A     		ldr	r2, [sp, #84]
 1185              		.loc 1 478 8 view .LVU372
 1186 0292 4AB9     		cbnz	r2, .L96
 1187              	.L86:
 479:../Common/debuglog/SEGGER_RTT_V792h/RTT/SEGGER_RTT_printf.c ****       SEGGER_RTT_Write(BufferIndex, acBuffer, BufferDesc.Cnt);
 480:../Common/debuglog/SEGGER_RTT_V792h/RTT/SEGGER_RTT_printf.c ****     }
ARM GAS  C:\Users\57308\AppData\Local\Temp\ccteq3kE.s 			page 33


 481:../Common/debuglog/SEGGER_RTT_V792h/RTT/SEGGER_RTT_printf.c ****     BufferDesc.ReturnValue += (int)BufferDesc.Cnt;
 1188              		.loc 1 481 5 is_stmt 1 view .LVU373
 1189              		.loc 1 481 28 is_stmt 0 view .LVU374
 1190 0294 159A     		ldr	r2, [sp, #84]
 1191 0296 169B     		ldr	r3, [sp, #88]
 1192 0298 1344     		add	r3, r3, r2
 1193 029a 1693     		str	r3, [sp, #88]
 1194              	.L85:
 482:../Common/debuglog/SEGGER_RTT_V792h/RTT/SEGGER_RTT_printf.c ****   }
 483:../Common/debuglog/SEGGER_RTT_V792h/RTT/SEGGER_RTT_printf.c ****   return BufferDesc.ReturnValue;
 1195              		.loc 1 483 3 is_stmt 1 view .LVU375
 484:../Common/debuglog/SEGGER_RTT_V792h/RTT/SEGGER_RTT_printf.c **** }
 1196              		.loc 1 484 1 is_stmt 0 view .LVU376
 1197 029c 1698     		ldr	r0, [sp, #88]
 1198 029e 19B0     		add	sp, sp, #100
 1199              	.LCFI9:
 1200              		.cfi_remember_state
 1201              		.cfi_def_cfa_offset 36
 1202              		@ sp needed
 1203 02a0 BDEC028B 		vldm	sp!, {d8}
 1204              	.LCFI10:
 1205              		.cfi_restore 80
 1206              		.cfi_restore 81
 1207              		.cfi_def_cfa_offset 28
 1208 02a4 BDE8F083 		pop	{r4, r5, r6, r7, r8, r9, pc}
 1209              	.LVL118:
 1210              	.L96:
 1211              	.LCFI11:
 1212              		.cfi_restore_state
 479:../Common/debuglog/SEGGER_RTT_V792h/RTT/SEGGER_RTT_printf.c ****       SEGGER_RTT_Write(BufferIndex, acBuffer, BufferDesc.Cnt);
 1213              		.loc 1 479 7 is_stmt 1 view .LVU377
 1214 02a8 03A9     		add	r1, sp, #12
 1215 02aa 3846     		mov	r0, r7
 1216 02ac FFF7FEFF 		bl	SEGGER_RTT_Write
 1217              	.LVL119:
 1218 02b0 F0E7     		b	.L86
 1219              	.L98:
 1220 02b2 00BF     		.align	2
 1221              	.L97:
 1222 02b4 00007A44 		.word	1148846080
 1223 02b8 D34D6210 		.word	274877907
 1224              		.cfi_endproc
 1225              	.LFE3:
 1227              		.section	.text.SEGGER_RTT_printf,"ax",%progbits
 1228              		.align	1
 1229              		.global	SEGGER_RTT_printf
 1230              		.syntax unified
 1231              		.thumb
 1232              		.thumb_func
 1234              	SEGGER_RTT_printf:
 1235              	.LVL120:
 1236              	.LFB4:
 485:../Common/debuglog/SEGGER_RTT_V792h/RTT/SEGGER_RTT_printf.c **** 
 486:../Common/debuglog/SEGGER_RTT_V792h/RTT/SEGGER_RTT_printf.c **** /*********************************************************************
 487:../Common/debuglog/SEGGER_RTT_V792h/RTT/SEGGER_RTT_printf.c **** *
 488:../Common/debuglog/SEGGER_RTT_V792h/RTT/SEGGER_RTT_printf.c **** *       SEGGER_RTT_printf
 489:../Common/debuglog/SEGGER_RTT_V792h/RTT/SEGGER_RTT_printf.c **** *
ARM GAS  C:\Users\57308\AppData\Local\Temp\ccteq3kE.s 			page 34


 490:../Common/debuglog/SEGGER_RTT_V792h/RTT/SEGGER_RTT_printf.c **** *  Function description
 491:../Common/debuglog/SEGGER_RTT_V792h/RTT/SEGGER_RTT_printf.c **** *    Stores a formatted string in SEGGER RTT control block.
 492:../Common/debuglog/SEGGER_RTT_V792h/RTT/SEGGER_RTT_printf.c **** *    This data is read by the host.
 493:../Common/debuglog/SEGGER_RTT_V792h/RTT/SEGGER_RTT_printf.c **** *
 494:../Common/debuglog/SEGGER_RTT_V792h/RTT/SEGGER_RTT_printf.c **** *  Parameters
 495:../Common/debuglog/SEGGER_RTT_V792h/RTT/SEGGER_RTT_printf.c **** *    BufferIndex  Index of "Up"-buffer to be used. (e.g. 0 for "Terminal")
 496:../Common/debuglog/SEGGER_RTT_V792h/RTT/SEGGER_RTT_printf.c **** *    sFormat      Pointer to format string, followed by the arguments for conversion
 497:../Common/debuglog/SEGGER_RTT_V792h/RTT/SEGGER_RTT_printf.c **** *
 498:../Common/debuglog/SEGGER_RTT_V792h/RTT/SEGGER_RTT_printf.c **** *  Return values
 499:../Common/debuglog/SEGGER_RTT_V792h/RTT/SEGGER_RTT_printf.c **** *    >= 0:  Number of bytes which have been stored in the "Up"-buffer.
 500:../Common/debuglog/SEGGER_RTT_V792h/RTT/SEGGER_RTT_printf.c **** *     < 0:  Error
 501:../Common/debuglog/SEGGER_RTT_V792h/RTT/SEGGER_RTT_printf.c **** *
 502:../Common/debuglog/SEGGER_RTT_V792h/RTT/SEGGER_RTT_printf.c **** *  Notes
 503:../Common/debuglog/SEGGER_RTT_V792h/RTT/SEGGER_RTT_printf.c **** *    (1) Conversion specifications have following syntax:
 504:../Common/debuglog/SEGGER_RTT_V792h/RTT/SEGGER_RTT_printf.c **** *          %[flags][FieldWidth][.Precision]ConversionSpecifier
 505:../Common/debuglog/SEGGER_RTT_V792h/RTT/SEGGER_RTT_printf.c **** *    (2) Supported flags:
 506:../Common/debuglog/SEGGER_RTT_V792h/RTT/SEGGER_RTT_printf.c **** *          -: Left justify within the field width
 507:../Common/debuglog/SEGGER_RTT_V792h/RTT/SEGGER_RTT_printf.c **** *          +: Always print sign extension for signed conversions
 508:../Common/debuglog/SEGGER_RTT_V792h/RTT/SEGGER_RTT_printf.c **** *          0: Pad with 0 instead of spaces. Ignored when using '-'-flag or precision
 509:../Common/debuglog/SEGGER_RTT_V792h/RTT/SEGGER_RTT_printf.c **** *        Supported conversion specifiers:
 510:../Common/debuglog/SEGGER_RTT_V792h/RTT/SEGGER_RTT_printf.c **** *          c: Print the argument as one char
 511:../Common/debuglog/SEGGER_RTT_V792h/RTT/SEGGER_RTT_printf.c **** *          d: Print the argument as a signed integer
 512:../Common/debuglog/SEGGER_RTT_V792h/RTT/SEGGER_RTT_printf.c **** *          u: Print the argument as an unsigned integer
 513:../Common/debuglog/SEGGER_RTT_V792h/RTT/SEGGER_RTT_printf.c **** *          x: Print the argument as an hexadecimal integer
 514:../Common/debuglog/SEGGER_RTT_V792h/RTT/SEGGER_RTT_printf.c **** *          s: Print the string pointed to by the argument
 515:../Common/debuglog/SEGGER_RTT_V792h/RTT/SEGGER_RTT_printf.c **** *          p: Print the argument as an 8-digit hexadecimal integer. (Argument shall be a pointer to
 516:../Common/debuglog/SEGGER_RTT_V792h/RTT/SEGGER_RTT_printf.c **** */
 517:../Common/debuglog/SEGGER_RTT_V792h/RTT/SEGGER_RTT_printf.c **** int SEGGER_RTT_printf(unsigned BufferIndex, const char * sFormat, ...) {
 1237              		.loc 1 517 72 view -0
 1238              		.cfi_startproc
 1239              		@ args = 4, pretend = 12, frame = 8
 1240              		@ frame_needed = 0, uses_anonymous_args = 1
 1241              		.loc 1 517 72 is_stmt 0 view .LVU379
 1242 0000 0EB4     		push	{r1, r2, r3}
 1243              	.LCFI12:
 1244              		.cfi_def_cfa_offset 12
 1245              		.cfi_offset 1, -12
 1246              		.cfi_offset 2, -8
 1247              		.cfi_offset 3, -4
 1248 0002 00B5     		push	{lr}
 1249              	.LCFI13:
 1250              		.cfi_def_cfa_offset 16
 1251              		.cfi_offset 14, -16
 1252 0004 82B0     		sub	sp, sp, #8
 1253              	.LCFI14:
 1254              		.cfi_def_cfa_offset 24
 1255 0006 03AB     		add	r3, sp, #12
 1256 0008 53F8041B 		ldr	r1, [r3], #4
 518:../Common/debuglog/SEGGER_RTT_V792h/RTT/SEGGER_RTT_printf.c ****   int r;
 1257              		.loc 1 518 3 is_stmt 1 view .LVU380
 519:../Common/debuglog/SEGGER_RTT_V792h/RTT/SEGGER_RTT_printf.c ****   va_list ParamList;
 1258              		.loc 1 519 3 view .LVU381
 520:../Common/debuglog/SEGGER_RTT_V792h/RTT/SEGGER_RTT_printf.c **** 
 521:../Common/debuglog/SEGGER_RTT_V792h/RTT/SEGGER_RTT_printf.c ****   va_start(ParamList, sFormat);
 1259              		.loc 1 521 3 view .LVU382
 1260 000c 0193     		str	r3, [sp, #4]
 522:../Common/debuglog/SEGGER_RTT_V792h/RTT/SEGGER_RTT_printf.c ****   r = SEGGER_RTT_vprintf(BufferIndex, sFormat, &ParamList);
ARM GAS  C:\Users\57308\AppData\Local\Temp\ccteq3kE.s 			page 35


 1261              		.loc 1 522 3 view .LVU383
 1262              		.loc 1 522 7 is_stmt 0 view .LVU384
 1263 000e 01AA     		add	r2, sp, #4
 1264 0010 FFF7FEFF 		bl	SEGGER_RTT_vprintf
 1265              	.LVL121:
 523:../Common/debuglog/SEGGER_RTT_V792h/RTT/SEGGER_RTT_printf.c ****   va_end(ParamList);
 1266              		.loc 1 523 3 is_stmt 1 view .LVU385
 524:../Common/debuglog/SEGGER_RTT_V792h/RTT/SEGGER_RTT_printf.c ****   return r;
 1267              		.loc 1 524 3 view .LVU386
 525:../Common/debuglog/SEGGER_RTT_V792h/RTT/SEGGER_RTT_printf.c **** }
 1268              		.loc 1 525 1 is_stmt 0 view .LVU387
 1269 0014 02B0     		add	sp, sp, #8
 1270              	.LCFI15:
 1271              		.cfi_def_cfa_offset 16
 1272              		@ sp needed
 1273 0016 5DF804EB 		ldr	lr, [sp], #4
 1274              	.LCFI16:
 1275              		.cfi_restore 14
 1276              		.cfi_def_cfa_offset 12
 1277 001a 03B0     		add	sp, sp, #12
 1278              	.LCFI17:
 1279              		.cfi_restore 3
 1280              		.cfi_restore 2
 1281              		.cfi_restore 1
 1282              		.cfi_def_cfa_offset 0
 1283 001c 7047     		bx	lr
 1284              		.cfi_endproc
 1285              	.LFE4:
 1287              		.section	.rodata._aV2C.0,"a"
 1288              		.align	2
 1289              		.set	.LANCHOR0,. + 0
 1292              	_aV2C.0:
 1293 0000 30313233 		.ascii	"0123456789ABCDEF"
 1293      34353637 
 1293      38394142 
 1293      43444546 
 1294              		.text
 1295              	.Letext0:
 1296              		.file 2 "d:\\program files\\gcc-arm-none-eabi-10.3-2021.10\\lib\\gcc\\arm-none-eabi\\10.3.1\\inclu
 1297              		.file 3 "<built-in>"
 1298              		.file 4 "../Common/debuglog/SEGGER_RTT_V792h/RTT/SEGGER_RTT.h"
ARM GAS  C:\Users\57308\AppData\Local\Temp\ccteq3kE.s 			page 36

