ARM GAS  C:\Users\57308\AppData\Local\Temp\cc5NLGGx.s 			page 1


   1              		.cpu cortex-m4
   2              		.arch armv7e-m
   3              		.fpu fpv4-sp-d16
   4              		.eabi_attribute 27, 1
   5              		.eabi_attribute 28, 1
   6              		.eabi_attribute 20, 1
   7              		.eabi_attribute 21, 1
   8              		.eabi_attribute 23, 3
   9              		.eabi_attribute 24, 1
  10              		.eabi_attribute 25, 1
  11              		.eabi_attribute 26, 1
  12              		.eabi_attribute 30, 1
  13              		.eabi_attribute 34, 1
  14              		.eabi_attribute 18, 4
  15              		.file	"SEGGER_RTT.c"
  16              		.text
  17              	.Ltext0:
  18              		.cfi_sections	.debug_frame
  19              		.section	.text._GetAvailWriteSpace,"ax",%progbits
  20              		.align	1
  21              		.syntax unified
  22              		.thumb
  23              		.thumb_func
  25              	_GetAvailWriteSpace:
  26              	.LVL0:
  27              	.LFB4:
  28              		.file 1 "../Common/debuglog/SEGGER_RTT_V792h/RTT/SEGGER_RTT.c"
   1:../Common/debuglog/SEGGER_RTT_V792h/RTT/SEGGER_RTT.c **** /*********************************************************************
   2:../Common/debuglog/SEGGER_RTT_V792h/RTT/SEGGER_RTT.c **** *                    SEGGER Microcontroller GmbH                     *
   3:../Common/debuglog/SEGGER_RTT_V792h/RTT/SEGGER_RTT.c **** *                        The Embedded Experts                        *
   4:../Common/debuglog/SEGGER_RTT_V792h/RTT/SEGGER_RTT.c **** **********************************************************************
   5:../Common/debuglog/SEGGER_RTT_V792h/RTT/SEGGER_RTT.c **** *                                                                    *
   6:../Common/debuglog/SEGGER_RTT_V792h/RTT/SEGGER_RTT.c **** *            (c) 1995 - 2021 SEGGER Microcontroller GmbH             *
   7:../Common/debuglog/SEGGER_RTT_V792h/RTT/SEGGER_RTT.c **** *                                                                    *
   8:../Common/debuglog/SEGGER_RTT_V792h/RTT/SEGGER_RTT.c **** *       www.segger.com     Support: support@segger.com               *
   9:../Common/debuglog/SEGGER_RTT_V792h/RTT/SEGGER_RTT.c **** *                                                                    *
  10:../Common/debuglog/SEGGER_RTT_V792h/RTT/SEGGER_RTT.c **** **********************************************************************
  11:../Common/debuglog/SEGGER_RTT_V792h/RTT/SEGGER_RTT.c **** *                                                                    *
  12:../Common/debuglog/SEGGER_RTT_V792h/RTT/SEGGER_RTT.c **** *       SEGGER RTT * Real Time Transfer for embedded targets         *
  13:../Common/debuglog/SEGGER_RTT_V792h/RTT/SEGGER_RTT.c **** *                                                                    *
  14:../Common/debuglog/SEGGER_RTT_V792h/RTT/SEGGER_RTT.c **** **********************************************************************
  15:../Common/debuglog/SEGGER_RTT_V792h/RTT/SEGGER_RTT.c **** *                                                                    *
  16:../Common/debuglog/SEGGER_RTT_V792h/RTT/SEGGER_RTT.c **** * All rights reserved.                                               *
  17:../Common/debuglog/SEGGER_RTT_V792h/RTT/SEGGER_RTT.c **** *                                                                    *
  18:../Common/debuglog/SEGGER_RTT_V792h/RTT/SEGGER_RTT.c **** * SEGGER strongly recommends to not make any changes                 *
  19:../Common/debuglog/SEGGER_RTT_V792h/RTT/SEGGER_RTT.c **** * to or modify the source code of this software in order to stay     *
  20:../Common/debuglog/SEGGER_RTT_V792h/RTT/SEGGER_RTT.c **** * compatible with the RTT protocol and J-Link.                       *
  21:../Common/debuglog/SEGGER_RTT_V792h/RTT/SEGGER_RTT.c **** *                                                                    *
  22:../Common/debuglog/SEGGER_RTT_V792h/RTT/SEGGER_RTT.c **** * Redistribution and use in source and binary forms, with or         *
  23:../Common/debuglog/SEGGER_RTT_V792h/RTT/SEGGER_RTT.c **** * without modification, are permitted provided that the following    *
  24:../Common/debuglog/SEGGER_RTT_V792h/RTT/SEGGER_RTT.c **** * condition is met:                                                  *
  25:../Common/debuglog/SEGGER_RTT_V792h/RTT/SEGGER_RTT.c **** *                                                                    *
  26:../Common/debuglog/SEGGER_RTT_V792h/RTT/SEGGER_RTT.c **** * o Redistributions of source code must retain the above copyright   *
  27:../Common/debuglog/SEGGER_RTT_V792h/RTT/SEGGER_RTT.c **** *   notice, this condition and the following disclaimer.             *
  28:../Common/debuglog/SEGGER_RTT_V792h/RTT/SEGGER_RTT.c **** *                                                                    *
  29:../Common/debuglog/SEGGER_RTT_V792h/RTT/SEGGER_RTT.c **** * THIS SOFTWARE IS PROVIDED BY THE COPYRIGHT HOLDERS AND             *
  30:../Common/debuglog/SEGGER_RTT_V792h/RTT/SEGGER_RTT.c **** * CONTRIBUTORS "AS IS" AND ANY EXPRESS OR IMPLIED WARRANTIES,        *
ARM GAS  C:\Users\57308\AppData\Local\Temp\cc5NLGGx.s 			page 2


  31:../Common/debuglog/SEGGER_RTT_V792h/RTT/SEGGER_RTT.c **** * INCLUDING, BUT NOT LIMITED TO, THE IMPLIED WARRANTIES OF           *
  32:../Common/debuglog/SEGGER_RTT_V792h/RTT/SEGGER_RTT.c **** * MERCHANTABILITY AND FITNESS FOR A PARTICULAR PURPOSE ARE           *
  33:../Common/debuglog/SEGGER_RTT_V792h/RTT/SEGGER_RTT.c **** * DISCLAIMED. IN NO EVENT SHALL SEGGER Microcontroller BE LIABLE FOR *
  34:../Common/debuglog/SEGGER_RTT_V792h/RTT/SEGGER_RTT.c **** * ANY DIRECT, INDIRECT, INCIDENTAL, SPECIAL, EXEMPLARY, OR           *
  35:../Common/debuglog/SEGGER_RTT_V792h/RTT/SEGGER_RTT.c **** * CONSEQUENTIAL DAMAGES (INCLUDING, BUT NOT LIMITED TO, PROCUREMENT  *
  36:../Common/debuglog/SEGGER_RTT_V792h/RTT/SEGGER_RTT.c **** * OF SUBSTITUTE GOODS OR SERVICES; LOSS OF USE, DATA, OR PROFITS;    *
  37:../Common/debuglog/SEGGER_RTT_V792h/RTT/SEGGER_RTT.c **** * OR BUSINESS INTERRUPTION) HOWEVER CAUSED AND ON ANY THEORY OF      *
  38:../Common/debuglog/SEGGER_RTT_V792h/RTT/SEGGER_RTT.c **** * LIABILITY, WHETHER IN CONTRACT, STRICT LIABILITY, OR TORT          *
  39:../Common/debuglog/SEGGER_RTT_V792h/RTT/SEGGER_RTT.c **** * (INCLUDING NEGLIGENCE OR OTHERWISE) ARISING IN ANY WAY OUT OF THE  *
  40:../Common/debuglog/SEGGER_RTT_V792h/RTT/SEGGER_RTT.c **** * USE OF THIS SOFTWARE, EVEN IF ADVISED OF THE POSSIBILITY OF SUCH   *
  41:../Common/debuglog/SEGGER_RTT_V792h/RTT/SEGGER_RTT.c **** * DAMAGE.                                                            *
  42:../Common/debuglog/SEGGER_RTT_V792h/RTT/SEGGER_RTT.c **** *                                                                    *
  43:../Common/debuglog/SEGGER_RTT_V792h/RTT/SEGGER_RTT.c **** **********************************************************************
  44:../Common/debuglog/SEGGER_RTT_V792h/RTT/SEGGER_RTT.c **** *                                                                    *
  45:../Common/debuglog/SEGGER_RTT_V792h/RTT/SEGGER_RTT.c **** *       RTT version: 7.92h                                           *
  46:../Common/debuglog/SEGGER_RTT_V792h/RTT/SEGGER_RTT.c **** *                                                                    *
  47:../Common/debuglog/SEGGER_RTT_V792h/RTT/SEGGER_RTT.c **** **********************************************************************
  48:../Common/debuglog/SEGGER_RTT_V792h/RTT/SEGGER_RTT.c **** 
  49:../Common/debuglog/SEGGER_RTT_V792h/RTT/SEGGER_RTT.c **** ---------------------------END-OF-HEADER------------------------------
  50:../Common/debuglog/SEGGER_RTT_V792h/RTT/SEGGER_RTT.c **** File    : SEGGER_RTT.c
  51:../Common/debuglog/SEGGER_RTT_V792h/RTT/SEGGER_RTT.c **** Purpose : Implementation of SEGGER real-time transfer (RTT) which
  52:../Common/debuglog/SEGGER_RTT_V792h/RTT/SEGGER_RTT.c ****           allows real-time communication on targets which support
  53:../Common/debuglog/SEGGER_RTT_V792h/RTT/SEGGER_RTT.c ****           debugger memory accesses while the CPU is running.
  54:../Common/debuglog/SEGGER_RTT_V792h/RTT/SEGGER_RTT.c **** Revision: $Rev: 29668 $
  55:../Common/debuglog/SEGGER_RTT_V792h/RTT/SEGGER_RTT.c **** 
  56:../Common/debuglog/SEGGER_RTT_V792h/RTT/SEGGER_RTT.c **** Additional information:
  57:../Common/debuglog/SEGGER_RTT_V792h/RTT/SEGGER_RTT.c ****           Type "int" is assumed to be 32-bits in size
  58:../Common/debuglog/SEGGER_RTT_V792h/RTT/SEGGER_RTT.c ****           H->T    Host to target communication
  59:../Common/debuglog/SEGGER_RTT_V792h/RTT/SEGGER_RTT.c ****           T->H    Target to host communication
  60:../Common/debuglog/SEGGER_RTT_V792h/RTT/SEGGER_RTT.c **** 
  61:../Common/debuglog/SEGGER_RTT_V792h/RTT/SEGGER_RTT.c ****           RTT channel 0 is always present and reserved for Terminal usage.
  62:../Common/debuglog/SEGGER_RTT_V792h/RTT/SEGGER_RTT.c ****           Name is fixed to "Terminal"
  63:../Common/debuglog/SEGGER_RTT_V792h/RTT/SEGGER_RTT.c **** 
  64:../Common/debuglog/SEGGER_RTT_V792h/RTT/SEGGER_RTT.c ****           Effective buffer size: SizeOfBuffer - 1
  65:../Common/debuglog/SEGGER_RTT_V792h/RTT/SEGGER_RTT.c **** 
  66:../Common/debuglog/SEGGER_RTT_V792h/RTT/SEGGER_RTT.c ****           WrOff == RdOff:       Buffer is empty
  67:../Common/debuglog/SEGGER_RTT_V792h/RTT/SEGGER_RTT.c ****           WrOff == (RdOff - 1): Buffer is full
  68:../Common/debuglog/SEGGER_RTT_V792h/RTT/SEGGER_RTT.c ****           WrOff >  RdOff:       Free space includes wrap-around
  69:../Common/debuglog/SEGGER_RTT_V792h/RTT/SEGGER_RTT.c ****           WrOff <  RdOff:       Used space includes wrap-around
  70:../Common/debuglog/SEGGER_RTT_V792h/RTT/SEGGER_RTT.c ****           (WrOff == (SizeOfBuffer - 1)) && (RdOff == 0):
  71:../Common/debuglog/SEGGER_RTT_V792h/RTT/SEGGER_RTT.c ****                                 Buffer full and wrap-around after next byte
  72:../Common/debuglog/SEGGER_RTT_V792h/RTT/SEGGER_RTT.c **** 
  73:../Common/debuglog/SEGGER_RTT_V792h/RTT/SEGGER_RTT.c **** 
  74:../Common/debuglog/SEGGER_RTT_V792h/RTT/SEGGER_RTT.c **** ----------------------------------------------------------------------
  75:../Common/debuglog/SEGGER_RTT_V792h/RTT/SEGGER_RTT.c **** */
  76:../Common/debuglog/SEGGER_RTT_V792h/RTT/SEGGER_RTT.c **** 
  77:../Common/debuglog/SEGGER_RTT_V792h/RTT/SEGGER_RTT.c **** #include "SEGGER_RTT.h"
  78:../Common/debuglog/SEGGER_RTT_V792h/RTT/SEGGER_RTT.c **** 
  79:../Common/debuglog/SEGGER_RTT_V792h/RTT/SEGGER_RTT.c **** #include <string.h>                 // for memcpy
  80:../Common/debuglog/SEGGER_RTT_V792h/RTT/SEGGER_RTT.c **** 
  81:../Common/debuglog/SEGGER_RTT_V792h/RTT/SEGGER_RTT.c **** /*********************************************************************
  82:../Common/debuglog/SEGGER_RTT_V792h/RTT/SEGGER_RTT.c **** *
  83:../Common/debuglog/SEGGER_RTT_V792h/RTT/SEGGER_RTT.c **** *       Configuration, default values
  84:../Common/debuglog/SEGGER_RTT_V792h/RTT/SEGGER_RTT.c **** *
  85:../Common/debuglog/SEGGER_RTT_V792h/RTT/SEGGER_RTT.c **** **********************************************************************
  86:../Common/debuglog/SEGGER_RTT_V792h/RTT/SEGGER_RTT.c **** */
  87:../Common/debuglog/SEGGER_RTT_V792h/RTT/SEGGER_RTT.c **** 
ARM GAS  C:\Users\57308\AppData\Local\Temp\cc5NLGGx.s 			page 3


  88:../Common/debuglog/SEGGER_RTT_V792h/RTT/SEGGER_RTT.c **** #if SEGGER_RTT_CPU_CACHE_LINE_SIZE
  89:../Common/debuglog/SEGGER_RTT_V792h/RTT/SEGGER_RTT.c ****   #ifdef SEGGER_RTT_CB_ALIGN
  90:../Common/debuglog/SEGGER_RTT_V792h/RTT/SEGGER_RTT.c ****     #error "Custom SEGGER_RTT_CB_ALIGN() is not supported for SEGGER_RTT_CPU_CACHE_LINE_SIZE != 0"
  91:../Common/debuglog/SEGGER_RTT_V792h/RTT/SEGGER_RTT.c ****   #endif
  92:../Common/debuglog/SEGGER_RTT_V792h/RTT/SEGGER_RTT.c ****   #ifdef SEGGER_RTT_BUFFER_ALIGN
  93:../Common/debuglog/SEGGER_RTT_V792h/RTT/SEGGER_RTT.c ****     #error "Custom SEGGER_RTT_BUFFER_ALIGN() is not supported for SEGGER_RTT_CPU_CACHE_LINE_SIZE !=
  94:../Common/debuglog/SEGGER_RTT_V792h/RTT/SEGGER_RTT.c ****   #endif
  95:../Common/debuglog/SEGGER_RTT_V792h/RTT/SEGGER_RTT.c ****   #ifdef SEGGER_RTT_PUT_CB_SECTION
  96:../Common/debuglog/SEGGER_RTT_V792h/RTT/SEGGER_RTT.c ****     #error "Custom SEGGER_RTT_PUT_CB_SECTION() is not supported for SEGGER_RTT_CPU_CACHE_LINE_SIZE 
  97:../Common/debuglog/SEGGER_RTT_V792h/RTT/SEGGER_RTT.c ****   #endif
  98:../Common/debuglog/SEGGER_RTT_V792h/RTT/SEGGER_RTT.c ****   #ifdef SEGGER_RTT_PUT_BUFFER_SECTION
  99:../Common/debuglog/SEGGER_RTT_V792h/RTT/SEGGER_RTT.c ****     #error "Custom SEGGER_RTT_PUT_BUFFER_SECTION() is not supported for SEGGER_RTT_CPU_CACHE_LINE_S
 100:../Common/debuglog/SEGGER_RTT_V792h/RTT/SEGGER_RTT.c ****   #endif
 101:../Common/debuglog/SEGGER_RTT_V792h/RTT/SEGGER_RTT.c ****   #ifdef SEGGER_RTT_BUFFER_ALIGNMENT
 102:../Common/debuglog/SEGGER_RTT_V792h/RTT/SEGGER_RTT.c ****     #error "Custom SEGGER_RTT_BUFFER_ALIGNMENT is not supported for SEGGER_RTT_CPU_CACHE_LINE_SIZE 
 103:../Common/debuglog/SEGGER_RTT_V792h/RTT/SEGGER_RTT.c ****   #endif
 104:../Common/debuglog/SEGGER_RTT_V792h/RTT/SEGGER_RTT.c ****   #ifdef SEGGER_RTT_ALIGNMENT
 105:../Common/debuglog/SEGGER_RTT_V792h/RTT/SEGGER_RTT.c ****     #error "Custom SEGGER_RTT_ALIGNMENT is not supported for SEGGER_RTT_CPU_CACHE_LINE_SIZE != 0"
 106:../Common/debuglog/SEGGER_RTT_V792h/RTT/SEGGER_RTT.c ****   #endif
 107:../Common/debuglog/SEGGER_RTT_V792h/RTT/SEGGER_RTT.c **** #endif
 108:../Common/debuglog/SEGGER_RTT_V792h/RTT/SEGGER_RTT.c **** 
 109:../Common/debuglog/SEGGER_RTT_V792h/RTT/SEGGER_RTT.c **** #ifndef   BUFFER_SIZE_UP
 110:../Common/debuglog/SEGGER_RTT_V792h/RTT/SEGGER_RTT.c ****   #define BUFFER_SIZE_UP                                  1024  // Size of the buffer for terminal 
 111:../Common/debuglog/SEGGER_RTT_V792h/RTT/SEGGER_RTT.c **** #endif
 112:../Common/debuglog/SEGGER_RTT_V792h/RTT/SEGGER_RTT.c **** 
 113:../Common/debuglog/SEGGER_RTT_V792h/RTT/SEGGER_RTT.c **** #ifndef   BUFFER_SIZE_DOWN
 114:../Common/debuglog/SEGGER_RTT_V792h/RTT/SEGGER_RTT.c ****   #define BUFFER_SIZE_DOWN                                16    // Size of the buffer for terminal 
 115:../Common/debuglog/SEGGER_RTT_V792h/RTT/SEGGER_RTT.c **** #endif
 116:../Common/debuglog/SEGGER_RTT_V792h/RTT/SEGGER_RTT.c **** 
 117:../Common/debuglog/SEGGER_RTT_V792h/RTT/SEGGER_RTT.c **** #ifndef   SEGGER_RTT_MAX_NUM_UP_BUFFERS
 118:../Common/debuglog/SEGGER_RTT_V792h/RTT/SEGGER_RTT.c ****   #define SEGGER_RTT_MAX_NUM_UP_BUFFERS                    2    // Number of up-buffers (T->H) avai
 119:../Common/debuglog/SEGGER_RTT_V792h/RTT/SEGGER_RTT.c **** #endif
 120:../Common/debuglog/SEGGER_RTT_V792h/RTT/SEGGER_RTT.c **** 
 121:../Common/debuglog/SEGGER_RTT_V792h/RTT/SEGGER_RTT.c **** #ifndef   SEGGER_RTT_MAX_NUM_DOWN_BUFFERS
 122:../Common/debuglog/SEGGER_RTT_V792h/RTT/SEGGER_RTT.c ****   #define SEGGER_RTT_MAX_NUM_DOWN_BUFFERS                  2    // Number of down-buffers (H->T) av
 123:../Common/debuglog/SEGGER_RTT_V792h/RTT/SEGGER_RTT.c **** #endif
 124:../Common/debuglog/SEGGER_RTT_V792h/RTT/SEGGER_RTT.c **** 
 125:../Common/debuglog/SEGGER_RTT_V792h/RTT/SEGGER_RTT.c **** #ifndef SEGGER_RTT_BUFFER_SECTION
 126:../Common/debuglog/SEGGER_RTT_V792h/RTT/SEGGER_RTT.c ****   #if defined(SEGGER_RTT_SECTION)
 127:../Common/debuglog/SEGGER_RTT_V792h/RTT/SEGGER_RTT.c ****     #define SEGGER_RTT_BUFFER_SECTION SEGGER_RTT_SECTION
 128:../Common/debuglog/SEGGER_RTT_V792h/RTT/SEGGER_RTT.c ****   #endif
 129:../Common/debuglog/SEGGER_RTT_V792h/RTT/SEGGER_RTT.c **** #endif
 130:../Common/debuglog/SEGGER_RTT_V792h/RTT/SEGGER_RTT.c **** 
 131:../Common/debuglog/SEGGER_RTT_V792h/RTT/SEGGER_RTT.c **** #ifndef   SEGGER_RTT_ALIGNMENT
 132:../Common/debuglog/SEGGER_RTT_V792h/RTT/SEGGER_RTT.c ****   #define SEGGER_RTT_ALIGNMENT                            SEGGER_RTT_CPU_CACHE_LINE_SIZE
 133:../Common/debuglog/SEGGER_RTT_V792h/RTT/SEGGER_RTT.c **** #endif
 134:../Common/debuglog/SEGGER_RTT_V792h/RTT/SEGGER_RTT.c **** 
 135:../Common/debuglog/SEGGER_RTT_V792h/RTT/SEGGER_RTT.c **** #ifndef   SEGGER_RTT_BUFFER_ALIGNMENT
 136:../Common/debuglog/SEGGER_RTT_V792h/RTT/SEGGER_RTT.c ****   #define SEGGER_RTT_BUFFER_ALIGNMENT                     SEGGER_RTT_CPU_CACHE_LINE_SIZE
 137:../Common/debuglog/SEGGER_RTT_V792h/RTT/SEGGER_RTT.c **** #endif
 138:../Common/debuglog/SEGGER_RTT_V792h/RTT/SEGGER_RTT.c **** 
 139:../Common/debuglog/SEGGER_RTT_V792h/RTT/SEGGER_RTT.c **** #ifndef   SEGGER_RTT_MODE_DEFAULT
 140:../Common/debuglog/SEGGER_RTT_V792h/RTT/SEGGER_RTT.c ****   #define SEGGER_RTT_MODE_DEFAULT                         SEGGER_RTT_MODE_NO_BLOCK_SKIP
 141:../Common/debuglog/SEGGER_RTT_V792h/RTT/SEGGER_RTT.c **** #endif
 142:../Common/debuglog/SEGGER_RTT_V792h/RTT/SEGGER_RTT.c **** 
 143:../Common/debuglog/SEGGER_RTT_V792h/RTT/SEGGER_RTT.c **** #ifndef   SEGGER_RTT_LOCK
 144:../Common/debuglog/SEGGER_RTT_V792h/RTT/SEGGER_RTT.c ****   #define SEGGER_RTT_LOCK()
ARM GAS  C:\Users\57308\AppData\Local\Temp\cc5NLGGx.s 			page 4


 145:../Common/debuglog/SEGGER_RTT_V792h/RTT/SEGGER_RTT.c **** #endif
 146:../Common/debuglog/SEGGER_RTT_V792h/RTT/SEGGER_RTT.c **** 
 147:../Common/debuglog/SEGGER_RTT_V792h/RTT/SEGGER_RTT.c **** #ifndef   SEGGER_RTT_UNLOCK
 148:../Common/debuglog/SEGGER_RTT_V792h/RTT/SEGGER_RTT.c ****   #define SEGGER_RTT_UNLOCK()
 149:../Common/debuglog/SEGGER_RTT_V792h/RTT/SEGGER_RTT.c **** #endif
 150:../Common/debuglog/SEGGER_RTT_V792h/RTT/SEGGER_RTT.c **** 
 151:../Common/debuglog/SEGGER_RTT_V792h/RTT/SEGGER_RTT.c **** #ifndef   STRLEN
 152:../Common/debuglog/SEGGER_RTT_V792h/RTT/SEGGER_RTT.c ****   #define STRLEN(a)                                       strlen((a))
 153:../Common/debuglog/SEGGER_RTT_V792h/RTT/SEGGER_RTT.c **** #endif
 154:../Common/debuglog/SEGGER_RTT_V792h/RTT/SEGGER_RTT.c **** 
 155:../Common/debuglog/SEGGER_RTT_V792h/RTT/SEGGER_RTT.c **** #ifndef   STRCPY
 156:../Common/debuglog/SEGGER_RTT_V792h/RTT/SEGGER_RTT.c ****   #define STRCPY(pDest, pSrc)                             strcpy((pDest), (pSrc))
 157:../Common/debuglog/SEGGER_RTT_V792h/RTT/SEGGER_RTT.c **** #endif
 158:../Common/debuglog/SEGGER_RTT_V792h/RTT/SEGGER_RTT.c **** 
 159:../Common/debuglog/SEGGER_RTT_V792h/RTT/SEGGER_RTT.c **** #ifndef   SEGGER_RTT_MEMCPY_USE_BYTELOOP
 160:../Common/debuglog/SEGGER_RTT_V792h/RTT/SEGGER_RTT.c ****   #define SEGGER_RTT_MEMCPY_USE_BYTELOOP                  0
 161:../Common/debuglog/SEGGER_RTT_V792h/RTT/SEGGER_RTT.c **** #endif
 162:../Common/debuglog/SEGGER_RTT_V792h/RTT/SEGGER_RTT.c **** 
 163:../Common/debuglog/SEGGER_RTT_V792h/RTT/SEGGER_RTT.c **** #ifndef   SEGGER_RTT_MEMCPY
 164:../Common/debuglog/SEGGER_RTT_V792h/RTT/SEGGER_RTT.c ****   #ifdef  MEMCPY
 165:../Common/debuglog/SEGGER_RTT_V792h/RTT/SEGGER_RTT.c ****     #define SEGGER_RTT_MEMCPY(pDest, pSrc, NumBytes)      MEMCPY((pDest), (pSrc), (NumBytes))
 166:../Common/debuglog/SEGGER_RTT_V792h/RTT/SEGGER_RTT.c ****   #else
 167:../Common/debuglog/SEGGER_RTT_V792h/RTT/SEGGER_RTT.c ****     #define SEGGER_RTT_MEMCPY(pDest, pSrc, NumBytes)      memcpy((pDest), (pSrc), (NumBytes))
 168:../Common/debuglog/SEGGER_RTT_V792h/RTT/SEGGER_RTT.c ****   #endif
 169:../Common/debuglog/SEGGER_RTT_V792h/RTT/SEGGER_RTT.c **** #endif
 170:../Common/debuglog/SEGGER_RTT_V792h/RTT/SEGGER_RTT.c **** 
 171:../Common/debuglog/SEGGER_RTT_V792h/RTT/SEGGER_RTT.c **** #ifndef   MIN
 172:../Common/debuglog/SEGGER_RTT_V792h/RTT/SEGGER_RTT.c ****   #define MIN(a, b)                                       (((a) < (b)) ? (a) : (b))
 173:../Common/debuglog/SEGGER_RTT_V792h/RTT/SEGGER_RTT.c **** #endif
 174:../Common/debuglog/SEGGER_RTT_V792h/RTT/SEGGER_RTT.c **** 
 175:../Common/debuglog/SEGGER_RTT_V792h/RTT/SEGGER_RTT.c **** #ifndef   MAX
 176:../Common/debuglog/SEGGER_RTT_V792h/RTT/SEGGER_RTT.c ****   #define MAX(a, b)                                       (((a) > (b)) ? (a) : (b))
 177:../Common/debuglog/SEGGER_RTT_V792h/RTT/SEGGER_RTT.c **** #endif
 178:../Common/debuglog/SEGGER_RTT_V792h/RTT/SEGGER_RTT.c **** //
 179:../Common/debuglog/SEGGER_RTT_V792h/RTT/SEGGER_RTT.c **** // For some environments, NULL may not be defined until certain headers are included
 180:../Common/debuglog/SEGGER_RTT_V792h/RTT/SEGGER_RTT.c **** //
 181:../Common/debuglog/SEGGER_RTT_V792h/RTT/SEGGER_RTT.c **** #ifndef NULL
 182:../Common/debuglog/SEGGER_RTT_V792h/RTT/SEGGER_RTT.c ****   #define NULL                                            0
 183:../Common/debuglog/SEGGER_RTT_V792h/RTT/SEGGER_RTT.c **** #endif
 184:../Common/debuglog/SEGGER_RTT_V792h/RTT/SEGGER_RTT.c **** 
 185:../Common/debuglog/SEGGER_RTT_V792h/RTT/SEGGER_RTT.c **** /*********************************************************************
 186:../Common/debuglog/SEGGER_RTT_V792h/RTT/SEGGER_RTT.c **** *
 187:../Common/debuglog/SEGGER_RTT_V792h/RTT/SEGGER_RTT.c **** *       Defines, fixed
 188:../Common/debuglog/SEGGER_RTT_V792h/RTT/SEGGER_RTT.c **** *
 189:../Common/debuglog/SEGGER_RTT_V792h/RTT/SEGGER_RTT.c **** **********************************************************************
 190:../Common/debuglog/SEGGER_RTT_V792h/RTT/SEGGER_RTT.c **** */
 191:../Common/debuglog/SEGGER_RTT_V792h/RTT/SEGGER_RTT.c **** #if (defined __ICCARM__) || (defined __ICCRX__)
 192:../Common/debuglog/SEGGER_RTT_V792h/RTT/SEGGER_RTT.c ****   #define RTT_PRAGMA(P) _Pragma(#P)
 193:../Common/debuglog/SEGGER_RTT_V792h/RTT/SEGGER_RTT.c **** #endif
 194:../Common/debuglog/SEGGER_RTT_V792h/RTT/SEGGER_RTT.c **** 
 195:../Common/debuglog/SEGGER_RTT_V792h/RTT/SEGGER_RTT.c **** #if SEGGER_RTT_ALIGNMENT || SEGGER_RTT_BUFFER_ALIGNMENT
 196:../Common/debuglog/SEGGER_RTT_V792h/RTT/SEGGER_RTT.c ****   #if ((defined __GNUC__) || (defined __clang__))
 197:../Common/debuglog/SEGGER_RTT_V792h/RTT/SEGGER_RTT.c ****     #define SEGGER_RTT_ALIGN(Var, Alignment) Var __attribute__ ((aligned (Alignment)))
 198:../Common/debuglog/SEGGER_RTT_V792h/RTT/SEGGER_RTT.c ****   #elif (defined __ICCARM__) || (defined __ICCRX__)
 199:../Common/debuglog/SEGGER_RTT_V792h/RTT/SEGGER_RTT.c ****     #define PRAGMA(A) _Pragma(#A)
 200:../Common/debuglog/SEGGER_RTT_V792h/RTT/SEGGER_RTT.c **** #define SEGGER_RTT_ALIGN(Var, Alignment) RTT_PRAGMA(data_alignment=Alignment) \
 201:../Common/debuglog/SEGGER_RTT_V792h/RTT/SEGGER_RTT.c ****                                   Var
ARM GAS  C:\Users\57308\AppData\Local\Temp\cc5NLGGx.s 			page 5


 202:../Common/debuglog/SEGGER_RTT_V792h/RTT/SEGGER_RTT.c ****   #elif (defined __CC_ARM)
 203:../Common/debuglog/SEGGER_RTT_V792h/RTT/SEGGER_RTT.c ****     #define SEGGER_RTT_ALIGN(Var, Alignment) Var __attribute__ ((aligned (Alignment)))
 204:../Common/debuglog/SEGGER_RTT_V792h/RTT/SEGGER_RTT.c ****   #else
 205:../Common/debuglog/SEGGER_RTT_V792h/RTT/SEGGER_RTT.c ****     #error "Alignment not supported for this compiler."
 206:../Common/debuglog/SEGGER_RTT_V792h/RTT/SEGGER_RTT.c ****   #endif
 207:../Common/debuglog/SEGGER_RTT_V792h/RTT/SEGGER_RTT.c **** #else
 208:../Common/debuglog/SEGGER_RTT_V792h/RTT/SEGGER_RTT.c ****   #define SEGGER_RTT_ALIGN(Var, Alignment) Var
 209:../Common/debuglog/SEGGER_RTT_V792h/RTT/SEGGER_RTT.c **** #endif
 210:../Common/debuglog/SEGGER_RTT_V792h/RTT/SEGGER_RTT.c **** 
 211:../Common/debuglog/SEGGER_RTT_V792h/RTT/SEGGER_RTT.c **** #if defined(SEGGER_RTT_SECTION) || defined (SEGGER_RTT_BUFFER_SECTION)
 212:../Common/debuglog/SEGGER_RTT_V792h/RTT/SEGGER_RTT.c ****   #if ((defined __GNUC__) || (defined __clang__))
 213:../Common/debuglog/SEGGER_RTT_V792h/RTT/SEGGER_RTT.c ****     #define SEGGER_RTT_PUT_SECTION(Var, Section) __attribute__ ((section (Section))) Var
 214:../Common/debuglog/SEGGER_RTT_V792h/RTT/SEGGER_RTT.c ****   #elif (defined __ICCARM__) || (defined __ICCRX__)
 215:../Common/debuglog/SEGGER_RTT_V792h/RTT/SEGGER_RTT.c **** #define SEGGER_RTT_PUT_SECTION(Var, Section) RTT_PRAGMA(location=Section) \
 216:../Common/debuglog/SEGGER_RTT_V792h/RTT/SEGGER_RTT.c ****                                         Var
 217:../Common/debuglog/SEGGER_RTT_V792h/RTT/SEGGER_RTT.c ****   #elif (defined __CC_ARM)
 218:../Common/debuglog/SEGGER_RTT_V792h/RTT/SEGGER_RTT.c ****     #define SEGGER_RTT_PUT_SECTION(Var, Section) __attribute__ ((section (Section), zero_init))  Va
 219:../Common/debuglog/SEGGER_RTT_V792h/RTT/SEGGER_RTT.c ****   #else
 220:../Common/debuglog/SEGGER_RTT_V792h/RTT/SEGGER_RTT.c ****     #error "Section placement not supported for this compiler."
 221:../Common/debuglog/SEGGER_RTT_V792h/RTT/SEGGER_RTT.c ****   #endif
 222:../Common/debuglog/SEGGER_RTT_V792h/RTT/SEGGER_RTT.c **** #else
 223:../Common/debuglog/SEGGER_RTT_V792h/RTT/SEGGER_RTT.c ****   #define SEGGER_RTT_PUT_SECTION(Var, Section) Var
 224:../Common/debuglog/SEGGER_RTT_V792h/RTT/SEGGER_RTT.c **** #endif
 225:../Common/debuglog/SEGGER_RTT_V792h/RTT/SEGGER_RTT.c **** 
 226:../Common/debuglog/SEGGER_RTT_V792h/RTT/SEGGER_RTT.c **** #if SEGGER_RTT_ALIGNMENT
 227:../Common/debuglog/SEGGER_RTT_V792h/RTT/SEGGER_RTT.c ****   #define SEGGER_RTT_CB_ALIGN(Var)  SEGGER_RTT_ALIGN(Var, SEGGER_RTT_ALIGNMENT)
 228:../Common/debuglog/SEGGER_RTT_V792h/RTT/SEGGER_RTT.c **** #else
 229:../Common/debuglog/SEGGER_RTT_V792h/RTT/SEGGER_RTT.c ****   #define SEGGER_RTT_CB_ALIGN(Var)  Var
 230:../Common/debuglog/SEGGER_RTT_V792h/RTT/SEGGER_RTT.c **** #endif
 231:../Common/debuglog/SEGGER_RTT_V792h/RTT/SEGGER_RTT.c **** 
 232:../Common/debuglog/SEGGER_RTT_V792h/RTT/SEGGER_RTT.c **** #if SEGGER_RTT_BUFFER_ALIGNMENT
 233:../Common/debuglog/SEGGER_RTT_V792h/RTT/SEGGER_RTT.c ****   #define SEGGER_RTT_BUFFER_ALIGN(Var)  SEGGER_RTT_ALIGN(Var, SEGGER_RTT_BUFFER_ALIGNMENT)
 234:../Common/debuglog/SEGGER_RTT_V792h/RTT/SEGGER_RTT.c **** #else
 235:../Common/debuglog/SEGGER_RTT_V792h/RTT/SEGGER_RTT.c ****   #define SEGGER_RTT_BUFFER_ALIGN(Var)  Var
 236:../Common/debuglog/SEGGER_RTT_V792h/RTT/SEGGER_RTT.c **** #endif
 237:../Common/debuglog/SEGGER_RTT_V792h/RTT/SEGGER_RTT.c **** 
 238:../Common/debuglog/SEGGER_RTT_V792h/RTT/SEGGER_RTT.c **** 
 239:../Common/debuglog/SEGGER_RTT_V792h/RTT/SEGGER_RTT.c **** #if defined(SEGGER_RTT_SECTION)
 240:../Common/debuglog/SEGGER_RTT_V792h/RTT/SEGGER_RTT.c ****   #define SEGGER_RTT_PUT_CB_SECTION(Var) SEGGER_RTT_PUT_SECTION(Var, SEGGER_RTT_SECTION)
 241:../Common/debuglog/SEGGER_RTT_V792h/RTT/SEGGER_RTT.c **** #else
 242:../Common/debuglog/SEGGER_RTT_V792h/RTT/SEGGER_RTT.c ****   #define SEGGER_RTT_PUT_CB_SECTION(Var) Var
 243:../Common/debuglog/SEGGER_RTT_V792h/RTT/SEGGER_RTT.c **** #endif
 244:../Common/debuglog/SEGGER_RTT_V792h/RTT/SEGGER_RTT.c **** 
 245:../Common/debuglog/SEGGER_RTT_V792h/RTT/SEGGER_RTT.c **** #if defined(SEGGER_RTT_BUFFER_SECTION)
 246:../Common/debuglog/SEGGER_RTT_V792h/RTT/SEGGER_RTT.c ****   #define SEGGER_RTT_PUT_BUFFER_SECTION(Var) SEGGER_RTT_PUT_SECTION(Var, SEGGER_RTT_BUFFER_SECTION)
 247:../Common/debuglog/SEGGER_RTT_V792h/RTT/SEGGER_RTT.c **** #else
 248:../Common/debuglog/SEGGER_RTT_V792h/RTT/SEGGER_RTT.c ****   #define SEGGER_RTT_PUT_BUFFER_SECTION(Var) Var
 249:../Common/debuglog/SEGGER_RTT_V792h/RTT/SEGGER_RTT.c **** #endif
 250:../Common/debuglog/SEGGER_RTT_V792h/RTT/SEGGER_RTT.c **** 
 251:../Common/debuglog/SEGGER_RTT_V792h/RTT/SEGGER_RTT.c **** /*********************************************************************
 252:../Common/debuglog/SEGGER_RTT_V792h/RTT/SEGGER_RTT.c **** *
 253:../Common/debuglog/SEGGER_RTT_V792h/RTT/SEGGER_RTT.c **** *       Static const data
 254:../Common/debuglog/SEGGER_RTT_V792h/RTT/SEGGER_RTT.c **** *
 255:../Common/debuglog/SEGGER_RTT_V792h/RTT/SEGGER_RTT.c **** **********************************************************************
 256:../Common/debuglog/SEGGER_RTT_V792h/RTT/SEGGER_RTT.c **** */
 257:../Common/debuglog/SEGGER_RTT_V792h/RTT/SEGGER_RTT.c **** 
 258:../Common/debuglog/SEGGER_RTT_V792h/RTT/SEGGER_RTT.c **** static const unsigned char _aTerminalId[16] = { '0', '1', '2', '3', '4', '5', '6', '7', '8', '9', '
ARM GAS  C:\Users\57308\AppData\Local\Temp\cc5NLGGx.s 			page 6


 259:../Common/debuglog/SEGGER_RTT_V792h/RTT/SEGGER_RTT.c **** 
 260:../Common/debuglog/SEGGER_RTT_V792h/RTT/SEGGER_RTT.c **** /*********************************************************************
 261:../Common/debuglog/SEGGER_RTT_V792h/RTT/SEGGER_RTT.c **** *
 262:../Common/debuglog/SEGGER_RTT_V792h/RTT/SEGGER_RTT.c **** *       Static data
 263:../Common/debuglog/SEGGER_RTT_V792h/RTT/SEGGER_RTT.c **** *
 264:../Common/debuglog/SEGGER_RTT_V792h/RTT/SEGGER_RTT.c **** **********************************************************************
 265:../Common/debuglog/SEGGER_RTT_V792h/RTT/SEGGER_RTT.c **** */
 266:../Common/debuglog/SEGGER_RTT_V792h/RTT/SEGGER_RTT.c **** 
 267:../Common/debuglog/SEGGER_RTT_V792h/RTT/SEGGER_RTT.c **** //
 268:../Common/debuglog/SEGGER_RTT_V792h/RTT/SEGGER_RTT.c **** // RTT Control Block and allocate buffers for channel 0
 269:../Common/debuglog/SEGGER_RTT_V792h/RTT/SEGGER_RTT.c **** //
 270:../Common/debuglog/SEGGER_RTT_V792h/RTT/SEGGER_RTT.c **** #if SEGGER_RTT_CPU_CACHE_LINE_SIZE
 271:../Common/debuglog/SEGGER_RTT_V792h/RTT/SEGGER_RTT.c ****   #if ((defined __GNUC__) || (defined __clang__))
 272:../Common/debuglog/SEGGER_RTT_V792h/RTT/SEGGER_RTT.c ****     SEGGER_RTT_CB _SEGGER_RTT                                                             __attribu
 273:../Common/debuglog/SEGGER_RTT_V792h/RTT/SEGGER_RTT.c ****     static char   _acUpBuffer  [SEGGER_RTT__ROUND_UP_2_CACHE_LINE_SIZE(BUFFER_SIZE_UP)]   __attribu
 274:../Common/debuglog/SEGGER_RTT_V792h/RTT/SEGGER_RTT.c ****     static char   _acDownBuffer[SEGGER_RTT__ROUND_UP_2_CACHE_LINE_SIZE(BUFFER_SIZE_DOWN)] __attribu
 275:../Common/debuglog/SEGGER_RTT_V792h/RTT/SEGGER_RTT.c ****   #elif (defined __ICCARM__)
 276:../Common/debuglog/SEGGER_RTT_V792h/RTT/SEGGER_RTT.c ****     #pragma data_alignment=SEGGER_RTT_CPU_CACHE_LINE_SIZE
 277:../Common/debuglog/SEGGER_RTT_V792h/RTT/SEGGER_RTT.c ****     SEGGER_RTT_CB _SEGGER_RTT;
 278:../Common/debuglog/SEGGER_RTT_V792h/RTT/SEGGER_RTT.c ****     #pragma data_alignment=SEGGER_RTT_CPU_CACHE_LINE_SIZE
 279:../Common/debuglog/SEGGER_RTT_V792h/RTT/SEGGER_RTT.c ****     static char   _acUpBuffer  [SEGGER_RTT__ROUND_UP_2_CACHE_LINE_SIZE(BUFFER_SIZE_UP)];
 280:../Common/debuglog/SEGGER_RTT_V792h/RTT/SEGGER_RTT.c ****     #pragma data_alignment=SEGGER_RTT_CPU_CACHE_LINE_SIZE
 281:../Common/debuglog/SEGGER_RTT_V792h/RTT/SEGGER_RTT.c ****     static char   _acDownBuffer[SEGGER_RTT__ROUND_UP_2_CACHE_LINE_SIZE(BUFFER_SIZE_DOWN)];
 282:../Common/debuglog/SEGGER_RTT_V792h/RTT/SEGGER_RTT.c ****   #else
 283:../Common/debuglog/SEGGER_RTT_V792h/RTT/SEGGER_RTT.c ****     #error "Don't know how to place _SEGGER_RTT, _acUpBuffer, _acDownBuffer cache-line aligned"
 284:../Common/debuglog/SEGGER_RTT_V792h/RTT/SEGGER_RTT.c ****   #endif
 285:../Common/debuglog/SEGGER_RTT_V792h/RTT/SEGGER_RTT.c **** #else
 286:../Common/debuglog/SEGGER_RTT_V792h/RTT/SEGGER_RTT.c ****   SEGGER_RTT_PUT_CB_SECTION(SEGGER_RTT_CB_ALIGN(SEGGER_RTT_CB _SEGGER_RTT));
 287:../Common/debuglog/SEGGER_RTT_V792h/RTT/SEGGER_RTT.c ****   SEGGER_RTT_PUT_BUFFER_SECTION(SEGGER_RTT_BUFFER_ALIGN(static char _acUpBuffer  [BUFFER_SIZE_UP]))
 288:../Common/debuglog/SEGGER_RTT_V792h/RTT/SEGGER_RTT.c ****   SEGGER_RTT_PUT_BUFFER_SECTION(SEGGER_RTT_BUFFER_ALIGN(static char _acDownBuffer[BUFFER_SIZE_DOWN]
 289:../Common/debuglog/SEGGER_RTT_V792h/RTT/SEGGER_RTT.c **** #endif
 290:../Common/debuglog/SEGGER_RTT_V792h/RTT/SEGGER_RTT.c **** 
 291:../Common/debuglog/SEGGER_RTT_V792h/RTT/SEGGER_RTT.c **** static unsigned char _ActiveTerminal;
 292:../Common/debuglog/SEGGER_RTT_V792h/RTT/SEGGER_RTT.c **** 
 293:../Common/debuglog/SEGGER_RTT_V792h/RTT/SEGGER_RTT.c **** /*********************************************************************
 294:../Common/debuglog/SEGGER_RTT_V792h/RTT/SEGGER_RTT.c **** *
 295:../Common/debuglog/SEGGER_RTT_V792h/RTT/SEGGER_RTT.c **** *       Static functions
 296:../Common/debuglog/SEGGER_RTT_V792h/RTT/SEGGER_RTT.c **** *
 297:../Common/debuglog/SEGGER_RTT_V792h/RTT/SEGGER_RTT.c **** **********************************************************************
 298:../Common/debuglog/SEGGER_RTT_V792h/RTT/SEGGER_RTT.c **** */
 299:../Common/debuglog/SEGGER_RTT_V792h/RTT/SEGGER_RTT.c **** 
 300:../Common/debuglog/SEGGER_RTT_V792h/RTT/SEGGER_RTT.c **** /*********************************************************************
 301:../Common/debuglog/SEGGER_RTT_V792h/RTT/SEGGER_RTT.c **** *
 302:../Common/debuglog/SEGGER_RTT_V792h/RTT/SEGGER_RTT.c **** *       _DoInit()
 303:../Common/debuglog/SEGGER_RTT_V792h/RTT/SEGGER_RTT.c **** *
 304:../Common/debuglog/SEGGER_RTT_V792h/RTT/SEGGER_RTT.c **** *  Function description
 305:../Common/debuglog/SEGGER_RTT_V792h/RTT/SEGGER_RTT.c **** *    Initializes the control block an buffers.
 306:../Common/debuglog/SEGGER_RTT_V792h/RTT/SEGGER_RTT.c **** *
 307:../Common/debuglog/SEGGER_RTT_V792h/RTT/SEGGER_RTT.c **** *  Notes
 308:../Common/debuglog/SEGGER_RTT_V792h/RTT/SEGGER_RTT.c **** *    (1) May only be called via INIT() to avoid overriding settings.
 309:../Common/debuglog/SEGGER_RTT_V792h/RTT/SEGGER_RTT.c **** *        The only exception is SEGGER_RTT_Init(), to make an intentional override possible.
 310:../Common/debuglog/SEGGER_RTT_V792h/RTT/SEGGER_RTT.c **** */
 311:../Common/debuglog/SEGGER_RTT_V792h/RTT/SEGGER_RTT.c ****   #define INIT()                                                                             \
 312:../Common/debuglog/SEGGER_RTT_V792h/RTT/SEGGER_RTT.c ****     do {                                                                                     \
 313:../Common/debuglog/SEGGER_RTT_V792h/RTT/SEGGER_RTT.c ****       volatile SEGGER_RTT_CB* pRTTCBInit;                                                    \
 314:../Common/debuglog/SEGGER_RTT_V792h/RTT/SEGGER_RTT.c ****       pRTTCBInit = (volatile SEGGER_RTT_CB*)((uintptr_t)&_SEGGER_RTT + SEGGER_RTT_UNCACHED_OFF); \
 315:../Common/debuglog/SEGGER_RTT_V792h/RTT/SEGGER_RTT.c ****       if (pRTTCBInit->acID[0] != 'S') {                                                      \
ARM GAS  C:\Users\57308\AppData\Local\Temp\cc5NLGGx.s 			page 7


 316:../Common/debuglog/SEGGER_RTT_V792h/RTT/SEGGER_RTT.c ****         _DoInit();                                                                           \
 317:../Common/debuglog/SEGGER_RTT_V792h/RTT/SEGGER_RTT.c ****       }                                                                                      \
 318:../Common/debuglog/SEGGER_RTT_V792h/RTT/SEGGER_RTT.c ****     } while (0)
 319:../Common/debuglog/SEGGER_RTT_V792h/RTT/SEGGER_RTT.c **** 
 320:../Common/debuglog/SEGGER_RTT_V792h/RTT/SEGGER_RTT.c **** static void _DoInit(void) {
 321:../Common/debuglog/SEGGER_RTT_V792h/RTT/SEGGER_RTT.c ****   volatile SEGGER_RTT_CB* p;   // Volatile to make sure that compiler cannot change the order of ac
 322:../Common/debuglog/SEGGER_RTT_V792h/RTT/SEGGER_RTT.c ****   static const char _aInitStr[] = "\0\0\0\0\0\0TTR REGGES";  // Init complete ID string to make sur
 323:../Common/debuglog/SEGGER_RTT_V792h/RTT/SEGGER_RTT.c ****   unsigned i;
 324:../Common/debuglog/SEGGER_RTT_V792h/RTT/SEGGER_RTT.c ****   //
 325:../Common/debuglog/SEGGER_RTT_V792h/RTT/SEGGER_RTT.c ****   // Initialize control block
 326:../Common/debuglog/SEGGER_RTT_V792h/RTT/SEGGER_RTT.c ****   //
 327:../Common/debuglog/SEGGER_RTT_V792h/RTT/SEGGER_RTT.c ****   p                     = (volatile SEGGER_RTT_CB*)((uintptr_t)&_SEGGER_RTT + SEGGER_RTT_UNCACHED_O
 328:../Common/debuglog/SEGGER_RTT_V792h/RTT/SEGGER_RTT.c ****   memset((SEGGER_RTT_CB*)p, 0, sizeof(_SEGGER_RTT));         // Make sure that the RTT CB is always
 329:../Common/debuglog/SEGGER_RTT_V792h/RTT/SEGGER_RTT.c ****   p->MaxNumUpBuffers    = SEGGER_RTT_MAX_NUM_UP_BUFFERS;
 330:../Common/debuglog/SEGGER_RTT_V792h/RTT/SEGGER_RTT.c ****   p->MaxNumDownBuffers  = SEGGER_RTT_MAX_NUM_DOWN_BUFFERS;
 331:../Common/debuglog/SEGGER_RTT_V792h/RTT/SEGGER_RTT.c ****   //
 332:../Common/debuglog/SEGGER_RTT_V792h/RTT/SEGGER_RTT.c ****   // Initialize up buffer 0
 333:../Common/debuglog/SEGGER_RTT_V792h/RTT/SEGGER_RTT.c ****   //
 334:../Common/debuglog/SEGGER_RTT_V792h/RTT/SEGGER_RTT.c ****   p->aUp[0].sName         = "Terminal";
 335:../Common/debuglog/SEGGER_RTT_V792h/RTT/SEGGER_RTT.c ****   p->aUp[0].pBuffer       = _acUpBuffer;
 336:../Common/debuglog/SEGGER_RTT_V792h/RTT/SEGGER_RTT.c ****   p->aUp[0].SizeOfBuffer  = BUFFER_SIZE_UP;
 337:../Common/debuglog/SEGGER_RTT_V792h/RTT/SEGGER_RTT.c ****   p->aUp[0].RdOff         = 0u;
 338:../Common/debuglog/SEGGER_RTT_V792h/RTT/SEGGER_RTT.c ****   p->aUp[0].WrOff         = 0u;
 339:../Common/debuglog/SEGGER_RTT_V792h/RTT/SEGGER_RTT.c ****   p->aUp[0].Flags         = SEGGER_RTT_MODE_DEFAULT;
 340:../Common/debuglog/SEGGER_RTT_V792h/RTT/SEGGER_RTT.c ****   //
 341:../Common/debuglog/SEGGER_RTT_V792h/RTT/SEGGER_RTT.c ****   // Initialize down buffer 0
 342:../Common/debuglog/SEGGER_RTT_V792h/RTT/SEGGER_RTT.c ****   //
 343:../Common/debuglog/SEGGER_RTT_V792h/RTT/SEGGER_RTT.c ****   p->aDown[0].sName         = "Terminal";
 344:../Common/debuglog/SEGGER_RTT_V792h/RTT/SEGGER_RTT.c ****   p->aDown[0].pBuffer       = _acDownBuffer;
 345:../Common/debuglog/SEGGER_RTT_V792h/RTT/SEGGER_RTT.c ****   p->aDown[0].SizeOfBuffer  = BUFFER_SIZE_DOWN;
 346:../Common/debuglog/SEGGER_RTT_V792h/RTT/SEGGER_RTT.c ****   p->aDown[0].RdOff         = 0u;
 347:../Common/debuglog/SEGGER_RTT_V792h/RTT/SEGGER_RTT.c ****   p->aDown[0].WrOff         = 0u;
 348:../Common/debuglog/SEGGER_RTT_V792h/RTT/SEGGER_RTT.c ****   p->aDown[0].Flags         = SEGGER_RTT_MODE_DEFAULT;
 349:../Common/debuglog/SEGGER_RTT_V792h/RTT/SEGGER_RTT.c ****   //
 350:../Common/debuglog/SEGGER_RTT_V792h/RTT/SEGGER_RTT.c ****   // Finish initialization of the control block.
 351:../Common/debuglog/SEGGER_RTT_V792h/RTT/SEGGER_RTT.c ****   // Copy Id string backwards to make sure that "SEGGER RTT" is not found in initializer memory (us
 352:../Common/debuglog/SEGGER_RTT_V792h/RTT/SEGGER_RTT.c ****   // as this would cause J-Link to "find" the control block at a wrong address.
 353:../Common/debuglog/SEGGER_RTT_V792h/RTT/SEGGER_RTT.c ****   //
 354:../Common/debuglog/SEGGER_RTT_V792h/RTT/SEGGER_RTT.c ****   RTT__DMB();                       // Force order of memory accesses for cores that may perform ou
 355:../Common/debuglog/SEGGER_RTT_V792h/RTT/SEGGER_RTT.c ****   for (i = 0; i < sizeof(_aInitStr) - 1; ++i) {
 356:../Common/debuglog/SEGGER_RTT_V792h/RTT/SEGGER_RTT.c ****     p->acID[i] = _aInitStr[sizeof(_aInitStr) - 2 - i];  // Skip terminating \0 at the end of the ar
 357:../Common/debuglog/SEGGER_RTT_V792h/RTT/SEGGER_RTT.c ****   }
 358:../Common/debuglog/SEGGER_RTT_V792h/RTT/SEGGER_RTT.c ****   RTT__DMB();                       // Force order of memory accesses for cores that may perform ou
 359:../Common/debuglog/SEGGER_RTT_V792h/RTT/SEGGER_RTT.c **** }
 360:../Common/debuglog/SEGGER_RTT_V792h/RTT/SEGGER_RTT.c **** 
 361:../Common/debuglog/SEGGER_RTT_V792h/RTT/SEGGER_RTT.c **** /*********************************************************************
 362:../Common/debuglog/SEGGER_RTT_V792h/RTT/SEGGER_RTT.c **** *
 363:../Common/debuglog/SEGGER_RTT_V792h/RTT/SEGGER_RTT.c **** *       _WriteBlocking()
 364:../Common/debuglog/SEGGER_RTT_V792h/RTT/SEGGER_RTT.c **** *
 365:../Common/debuglog/SEGGER_RTT_V792h/RTT/SEGGER_RTT.c **** *  Function description
 366:../Common/debuglog/SEGGER_RTT_V792h/RTT/SEGGER_RTT.c **** *    Stores a specified number of characters in SEGGER RTT ring buffer
 367:../Common/debuglog/SEGGER_RTT_V792h/RTT/SEGGER_RTT.c **** *    and updates the associated write pointer which is periodically
 368:../Common/debuglog/SEGGER_RTT_V792h/RTT/SEGGER_RTT.c **** *    read by the host.
 369:../Common/debuglog/SEGGER_RTT_V792h/RTT/SEGGER_RTT.c **** *    The caller is responsible for managing the write chunk sizes as
 370:../Common/debuglog/SEGGER_RTT_V792h/RTT/SEGGER_RTT.c **** *    _WriteBlocking() will block until all data has been posted successfully.
 371:../Common/debuglog/SEGGER_RTT_V792h/RTT/SEGGER_RTT.c **** *
 372:../Common/debuglog/SEGGER_RTT_V792h/RTT/SEGGER_RTT.c **** *  Parameters
ARM GAS  C:\Users\57308\AppData\Local\Temp\cc5NLGGx.s 			page 8


 373:../Common/debuglog/SEGGER_RTT_V792h/RTT/SEGGER_RTT.c **** *    pRing        Ring buffer to post to.
 374:../Common/debuglog/SEGGER_RTT_V792h/RTT/SEGGER_RTT.c **** *    pBuffer      Pointer to character array. Does not need to point to a \0 terminated string.
 375:../Common/debuglog/SEGGER_RTT_V792h/RTT/SEGGER_RTT.c **** *    NumBytes     Number of bytes to be stored in the SEGGER RTT control block.
 376:../Common/debuglog/SEGGER_RTT_V792h/RTT/SEGGER_RTT.c **** *
 377:../Common/debuglog/SEGGER_RTT_V792h/RTT/SEGGER_RTT.c **** *  Return value
 378:../Common/debuglog/SEGGER_RTT_V792h/RTT/SEGGER_RTT.c **** *    >= 0 - Number of bytes written into buffer.
 379:../Common/debuglog/SEGGER_RTT_V792h/RTT/SEGGER_RTT.c **** */
 380:../Common/debuglog/SEGGER_RTT_V792h/RTT/SEGGER_RTT.c **** static unsigned _WriteBlocking(SEGGER_RTT_BUFFER_UP* pRing, const char* pBuffer, unsigned NumBytes)
 381:../Common/debuglog/SEGGER_RTT_V792h/RTT/SEGGER_RTT.c ****   unsigned NumBytesToWrite;
 382:../Common/debuglog/SEGGER_RTT_V792h/RTT/SEGGER_RTT.c ****   unsigned NumBytesWritten;
 383:../Common/debuglog/SEGGER_RTT_V792h/RTT/SEGGER_RTT.c ****   unsigned RdOff;
 384:../Common/debuglog/SEGGER_RTT_V792h/RTT/SEGGER_RTT.c ****   unsigned WrOff;
 385:../Common/debuglog/SEGGER_RTT_V792h/RTT/SEGGER_RTT.c ****   volatile char* pDst;
 386:../Common/debuglog/SEGGER_RTT_V792h/RTT/SEGGER_RTT.c ****   //
 387:../Common/debuglog/SEGGER_RTT_V792h/RTT/SEGGER_RTT.c ****   // Write data to buffer and handle wrap-around if necessary
 388:../Common/debuglog/SEGGER_RTT_V792h/RTT/SEGGER_RTT.c ****   //
 389:../Common/debuglog/SEGGER_RTT_V792h/RTT/SEGGER_RTT.c ****   NumBytesWritten = 0u;
 390:../Common/debuglog/SEGGER_RTT_V792h/RTT/SEGGER_RTT.c ****   WrOff = pRing->WrOff;
 391:../Common/debuglog/SEGGER_RTT_V792h/RTT/SEGGER_RTT.c ****   do {
 392:../Common/debuglog/SEGGER_RTT_V792h/RTT/SEGGER_RTT.c ****     RdOff = pRing->RdOff;                         // May be changed by host (debug probe) in the me
 393:../Common/debuglog/SEGGER_RTT_V792h/RTT/SEGGER_RTT.c ****     if (RdOff > WrOff) {
 394:../Common/debuglog/SEGGER_RTT_V792h/RTT/SEGGER_RTT.c ****       NumBytesToWrite = RdOff - WrOff - 1u;
 395:../Common/debuglog/SEGGER_RTT_V792h/RTT/SEGGER_RTT.c ****     } else {
 396:../Common/debuglog/SEGGER_RTT_V792h/RTT/SEGGER_RTT.c ****       NumBytesToWrite = pRing->SizeOfBuffer - (WrOff - RdOff + 1u);
 397:../Common/debuglog/SEGGER_RTT_V792h/RTT/SEGGER_RTT.c ****     }
 398:../Common/debuglog/SEGGER_RTT_V792h/RTT/SEGGER_RTT.c ****     NumBytesToWrite = MIN(NumBytesToWrite, (pRing->SizeOfBuffer - WrOff));      // Number of bytes 
 399:../Common/debuglog/SEGGER_RTT_V792h/RTT/SEGGER_RTT.c ****     NumBytesToWrite = MIN(NumBytesToWrite, NumBytes);
 400:../Common/debuglog/SEGGER_RTT_V792h/RTT/SEGGER_RTT.c ****     pDst = (pRing->pBuffer + WrOff) + SEGGER_RTT_UNCACHED_OFF;
 401:../Common/debuglog/SEGGER_RTT_V792h/RTT/SEGGER_RTT.c **** #if SEGGER_RTT_MEMCPY_USE_BYTELOOP
 402:../Common/debuglog/SEGGER_RTT_V792h/RTT/SEGGER_RTT.c ****     NumBytesWritten += NumBytesToWrite;
 403:../Common/debuglog/SEGGER_RTT_V792h/RTT/SEGGER_RTT.c ****     NumBytes        -= NumBytesToWrite;
 404:../Common/debuglog/SEGGER_RTT_V792h/RTT/SEGGER_RTT.c ****     WrOff           += NumBytesToWrite;
 405:../Common/debuglog/SEGGER_RTT_V792h/RTT/SEGGER_RTT.c ****     while (NumBytesToWrite--) {
 406:../Common/debuglog/SEGGER_RTT_V792h/RTT/SEGGER_RTT.c ****       *pDst++ = *pBuffer++;
 407:../Common/debuglog/SEGGER_RTT_V792h/RTT/SEGGER_RTT.c ****     };
 408:../Common/debuglog/SEGGER_RTT_V792h/RTT/SEGGER_RTT.c **** #else
 409:../Common/debuglog/SEGGER_RTT_V792h/RTT/SEGGER_RTT.c ****     SEGGER_RTT_MEMCPY((void*)pDst, pBuffer, NumBytesToWrite);
 410:../Common/debuglog/SEGGER_RTT_V792h/RTT/SEGGER_RTT.c ****     NumBytesWritten += NumBytesToWrite;
 411:../Common/debuglog/SEGGER_RTT_V792h/RTT/SEGGER_RTT.c ****     pBuffer         += NumBytesToWrite;
 412:../Common/debuglog/SEGGER_RTT_V792h/RTT/SEGGER_RTT.c ****     NumBytes        -= NumBytesToWrite;
 413:../Common/debuglog/SEGGER_RTT_V792h/RTT/SEGGER_RTT.c ****     WrOff           += NumBytesToWrite;
 414:../Common/debuglog/SEGGER_RTT_V792h/RTT/SEGGER_RTT.c **** #endif
 415:../Common/debuglog/SEGGER_RTT_V792h/RTT/SEGGER_RTT.c ****     if (WrOff == pRing->SizeOfBuffer) {
 416:../Common/debuglog/SEGGER_RTT_V792h/RTT/SEGGER_RTT.c ****       WrOff = 0u;
 417:../Common/debuglog/SEGGER_RTT_V792h/RTT/SEGGER_RTT.c ****     }
 418:../Common/debuglog/SEGGER_RTT_V792h/RTT/SEGGER_RTT.c ****     RTT__DMB();                     // Force data write to be complete before writing the <WrOff>, 
 419:../Common/debuglog/SEGGER_RTT_V792h/RTT/SEGGER_RTT.c ****     pRing->WrOff = WrOff;
 420:../Common/debuglog/SEGGER_RTT_V792h/RTT/SEGGER_RTT.c ****   } while (NumBytes);
 421:../Common/debuglog/SEGGER_RTT_V792h/RTT/SEGGER_RTT.c ****   return NumBytesWritten;
 422:../Common/debuglog/SEGGER_RTT_V792h/RTT/SEGGER_RTT.c **** }
 423:../Common/debuglog/SEGGER_RTT_V792h/RTT/SEGGER_RTT.c **** 
 424:../Common/debuglog/SEGGER_RTT_V792h/RTT/SEGGER_RTT.c **** /*********************************************************************
 425:../Common/debuglog/SEGGER_RTT_V792h/RTT/SEGGER_RTT.c **** *
 426:../Common/debuglog/SEGGER_RTT_V792h/RTT/SEGGER_RTT.c **** *       _WriteNoCheck()
 427:../Common/debuglog/SEGGER_RTT_V792h/RTT/SEGGER_RTT.c **** *
 428:../Common/debuglog/SEGGER_RTT_V792h/RTT/SEGGER_RTT.c **** *  Function description
 429:../Common/debuglog/SEGGER_RTT_V792h/RTT/SEGGER_RTT.c **** *    Stores a specified number of characters in SEGGER RTT ring buffer
ARM GAS  C:\Users\57308\AppData\Local\Temp\cc5NLGGx.s 			page 9


 430:../Common/debuglog/SEGGER_RTT_V792h/RTT/SEGGER_RTT.c **** *    and updates the associated write pointer which is periodically
 431:../Common/debuglog/SEGGER_RTT_V792h/RTT/SEGGER_RTT.c **** *    read by the host.
 432:../Common/debuglog/SEGGER_RTT_V792h/RTT/SEGGER_RTT.c **** *    It is callers responsibility to make sure data actually fits in buffer.
 433:../Common/debuglog/SEGGER_RTT_V792h/RTT/SEGGER_RTT.c **** *
 434:../Common/debuglog/SEGGER_RTT_V792h/RTT/SEGGER_RTT.c **** *  Parameters
 435:../Common/debuglog/SEGGER_RTT_V792h/RTT/SEGGER_RTT.c **** *    pRing        Ring buffer to post to.
 436:../Common/debuglog/SEGGER_RTT_V792h/RTT/SEGGER_RTT.c **** *    pBuffer      Pointer to character array. Does not need to point to a \0 terminated string.
 437:../Common/debuglog/SEGGER_RTT_V792h/RTT/SEGGER_RTT.c **** *    NumBytes     Number of bytes to be stored in the SEGGER RTT control block.
 438:../Common/debuglog/SEGGER_RTT_V792h/RTT/SEGGER_RTT.c **** *
 439:../Common/debuglog/SEGGER_RTT_V792h/RTT/SEGGER_RTT.c **** *  Notes
 440:../Common/debuglog/SEGGER_RTT_V792h/RTT/SEGGER_RTT.c **** *    (1) If there might not be enough space in the "Up"-buffer, call _WriteBlocking
 441:../Common/debuglog/SEGGER_RTT_V792h/RTT/SEGGER_RTT.c **** */
 442:../Common/debuglog/SEGGER_RTT_V792h/RTT/SEGGER_RTT.c **** static void _WriteNoCheck(SEGGER_RTT_BUFFER_UP* pRing, const char* pData, unsigned NumBytes) {
 443:../Common/debuglog/SEGGER_RTT_V792h/RTT/SEGGER_RTT.c ****   unsigned NumBytesAtOnce;
 444:../Common/debuglog/SEGGER_RTT_V792h/RTT/SEGGER_RTT.c ****   unsigned WrOff;
 445:../Common/debuglog/SEGGER_RTT_V792h/RTT/SEGGER_RTT.c ****   unsigned Rem;
 446:../Common/debuglog/SEGGER_RTT_V792h/RTT/SEGGER_RTT.c ****   volatile char* pDst;
 447:../Common/debuglog/SEGGER_RTT_V792h/RTT/SEGGER_RTT.c **** 
 448:../Common/debuglog/SEGGER_RTT_V792h/RTT/SEGGER_RTT.c ****   WrOff = pRing->WrOff;
 449:../Common/debuglog/SEGGER_RTT_V792h/RTT/SEGGER_RTT.c ****   Rem = pRing->SizeOfBuffer - WrOff;
 450:../Common/debuglog/SEGGER_RTT_V792h/RTT/SEGGER_RTT.c ****   if (Rem > NumBytes) {
 451:../Common/debuglog/SEGGER_RTT_V792h/RTT/SEGGER_RTT.c ****     //
 452:../Common/debuglog/SEGGER_RTT_V792h/RTT/SEGGER_RTT.c ****     // All data fits before wrap around
 453:../Common/debuglog/SEGGER_RTT_V792h/RTT/SEGGER_RTT.c ****     //
 454:../Common/debuglog/SEGGER_RTT_V792h/RTT/SEGGER_RTT.c ****     pDst = (pRing->pBuffer + WrOff) + SEGGER_RTT_UNCACHED_OFF;
 455:../Common/debuglog/SEGGER_RTT_V792h/RTT/SEGGER_RTT.c **** #if SEGGER_RTT_MEMCPY_USE_BYTELOOP
 456:../Common/debuglog/SEGGER_RTT_V792h/RTT/SEGGER_RTT.c ****     WrOff += NumBytes;
 457:../Common/debuglog/SEGGER_RTT_V792h/RTT/SEGGER_RTT.c ****     while (NumBytes--) {
 458:../Common/debuglog/SEGGER_RTT_V792h/RTT/SEGGER_RTT.c ****       *pDst++ = *pData++;
 459:../Common/debuglog/SEGGER_RTT_V792h/RTT/SEGGER_RTT.c ****     };
 460:../Common/debuglog/SEGGER_RTT_V792h/RTT/SEGGER_RTT.c ****     RTT__DMB();                     // Force data write to be complete before writing the <WrOff>, 
 461:../Common/debuglog/SEGGER_RTT_V792h/RTT/SEGGER_RTT.c ****     pRing->WrOff = WrOff;
 462:../Common/debuglog/SEGGER_RTT_V792h/RTT/SEGGER_RTT.c **** #else
 463:../Common/debuglog/SEGGER_RTT_V792h/RTT/SEGGER_RTT.c ****     SEGGER_RTT_MEMCPY((void*)pDst, pData, NumBytes);
 464:../Common/debuglog/SEGGER_RTT_V792h/RTT/SEGGER_RTT.c ****     RTT__DMB();                     // Force data write to be complete before writing the <WrOff>, 
 465:../Common/debuglog/SEGGER_RTT_V792h/RTT/SEGGER_RTT.c ****     pRing->WrOff = WrOff + NumBytes;
 466:../Common/debuglog/SEGGER_RTT_V792h/RTT/SEGGER_RTT.c **** #endif
 467:../Common/debuglog/SEGGER_RTT_V792h/RTT/SEGGER_RTT.c ****   } else {
 468:../Common/debuglog/SEGGER_RTT_V792h/RTT/SEGGER_RTT.c ****     //
 469:../Common/debuglog/SEGGER_RTT_V792h/RTT/SEGGER_RTT.c ****     // We reach the end of the buffer, so need to wrap around
 470:../Common/debuglog/SEGGER_RTT_V792h/RTT/SEGGER_RTT.c ****     //
 471:../Common/debuglog/SEGGER_RTT_V792h/RTT/SEGGER_RTT.c **** #if SEGGER_RTT_MEMCPY_USE_BYTELOOP
 472:../Common/debuglog/SEGGER_RTT_V792h/RTT/SEGGER_RTT.c ****     pDst = (pRing->pBuffer + WrOff) + SEGGER_RTT_UNCACHED_OFF;
 473:../Common/debuglog/SEGGER_RTT_V792h/RTT/SEGGER_RTT.c ****     NumBytesAtOnce = Rem;
 474:../Common/debuglog/SEGGER_RTT_V792h/RTT/SEGGER_RTT.c ****     while (NumBytesAtOnce--) {
 475:../Common/debuglog/SEGGER_RTT_V792h/RTT/SEGGER_RTT.c ****       *pDst++ = *pData++;
 476:../Common/debuglog/SEGGER_RTT_V792h/RTT/SEGGER_RTT.c ****     };
 477:../Common/debuglog/SEGGER_RTT_V792h/RTT/SEGGER_RTT.c ****     pDst = pRing->pBuffer + SEGGER_RTT_UNCACHED_OFF;
 478:../Common/debuglog/SEGGER_RTT_V792h/RTT/SEGGER_RTT.c ****     NumBytesAtOnce = NumBytes - Rem;
 479:../Common/debuglog/SEGGER_RTT_V792h/RTT/SEGGER_RTT.c ****     while (NumBytesAtOnce--) {
 480:../Common/debuglog/SEGGER_RTT_V792h/RTT/SEGGER_RTT.c ****       *pDst++ = *pData++;
 481:../Common/debuglog/SEGGER_RTT_V792h/RTT/SEGGER_RTT.c ****     };
 482:../Common/debuglog/SEGGER_RTT_V792h/RTT/SEGGER_RTT.c ****     RTT__DMB();                     // Force data write to be complete before writing the <WrOff>, 
 483:../Common/debuglog/SEGGER_RTT_V792h/RTT/SEGGER_RTT.c ****     pRing->WrOff = NumBytes - Rem;
 484:../Common/debuglog/SEGGER_RTT_V792h/RTT/SEGGER_RTT.c **** #else
 485:../Common/debuglog/SEGGER_RTT_V792h/RTT/SEGGER_RTT.c ****     NumBytesAtOnce = Rem;
 486:../Common/debuglog/SEGGER_RTT_V792h/RTT/SEGGER_RTT.c ****     pDst = (pRing->pBuffer + WrOff) + SEGGER_RTT_UNCACHED_OFF;
ARM GAS  C:\Users\57308\AppData\Local\Temp\cc5NLGGx.s 			page 10


 487:../Common/debuglog/SEGGER_RTT_V792h/RTT/SEGGER_RTT.c ****     SEGGER_RTT_MEMCPY((void*)pDst, pData, NumBytesAtOnce);
 488:../Common/debuglog/SEGGER_RTT_V792h/RTT/SEGGER_RTT.c ****     NumBytesAtOnce = NumBytes - Rem;
 489:../Common/debuglog/SEGGER_RTT_V792h/RTT/SEGGER_RTT.c ****     pDst = pRing->pBuffer + SEGGER_RTT_UNCACHED_OFF;
 490:../Common/debuglog/SEGGER_RTT_V792h/RTT/SEGGER_RTT.c ****     SEGGER_RTT_MEMCPY((void*)pDst, pData + Rem, NumBytesAtOnce);
 491:../Common/debuglog/SEGGER_RTT_V792h/RTT/SEGGER_RTT.c ****     RTT__DMB();                     // Force data write to be complete before writing the <WrOff>, 
 492:../Common/debuglog/SEGGER_RTT_V792h/RTT/SEGGER_RTT.c ****     pRing->WrOff = NumBytesAtOnce;
 493:../Common/debuglog/SEGGER_RTT_V792h/RTT/SEGGER_RTT.c **** #endif
 494:../Common/debuglog/SEGGER_RTT_V792h/RTT/SEGGER_RTT.c ****   }
 495:../Common/debuglog/SEGGER_RTT_V792h/RTT/SEGGER_RTT.c **** }
 496:../Common/debuglog/SEGGER_RTT_V792h/RTT/SEGGER_RTT.c **** 
 497:../Common/debuglog/SEGGER_RTT_V792h/RTT/SEGGER_RTT.c **** /*********************************************************************
 498:../Common/debuglog/SEGGER_RTT_V792h/RTT/SEGGER_RTT.c **** *
 499:../Common/debuglog/SEGGER_RTT_V792h/RTT/SEGGER_RTT.c **** *       _PostTerminalSwitch()
 500:../Common/debuglog/SEGGER_RTT_V792h/RTT/SEGGER_RTT.c **** *
 501:../Common/debuglog/SEGGER_RTT_V792h/RTT/SEGGER_RTT.c **** *  Function description
 502:../Common/debuglog/SEGGER_RTT_V792h/RTT/SEGGER_RTT.c **** *    Switch terminal to the given terminal ID.  It is the caller's
 503:../Common/debuglog/SEGGER_RTT_V792h/RTT/SEGGER_RTT.c **** *    responsibility to ensure the terminal ID is correct and there is
 504:../Common/debuglog/SEGGER_RTT_V792h/RTT/SEGGER_RTT.c **** *    enough space in the buffer for this to complete successfully.
 505:../Common/debuglog/SEGGER_RTT_V792h/RTT/SEGGER_RTT.c **** *
 506:../Common/debuglog/SEGGER_RTT_V792h/RTT/SEGGER_RTT.c **** *  Parameters
 507:../Common/debuglog/SEGGER_RTT_V792h/RTT/SEGGER_RTT.c **** *    pRing        Ring buffer to post to.
 508:../Common/debuglog/SEGGER_RTT_V792h/RTT/SEGGER_RTT.c **** *    TerminalId   Terminal ID to switch to.
 509:../Common/debuglog/SEGGER_RTT_V792h/RTT/SEGGER_RTT.c **** */
 510:../Common/debuglog/SEGGER_RTT_V792h/RTT/SEGGER_RTT.c **** static void _PostTerminalSwitch(SEGGER_RTT_BUFFER_UP* pRing, unsigned char TerminalId) {
 511:../Common/debuglog/SEGGER_RTT_V792h/RTT/SEGGER_RTT.c ****   unsigned char ac[2];
 512:../Common/debuglog/SEGGER_RTT_V792h/RTT/SEGGER_RTT.c **** 
 513:../Common/debuglog/SEGGER_RTT_V792h/RTT/SEGGER_RTT.c ****   ac[0] = 0xFFu;
 514:../Common/debuglog/SEGGER_RTT_V792h/RTT/SEGGER_RTT.c ****   ac[1] = _aTerminalId[TerminalId];  // Caller made already sure that TerminalId does not exceed ou
 515:../Common/debuglog/SEGGER_RTT_V792h/RTT/SEGGER_RTT.c ****   _WriteBlocking(pRing, (const char*)ac, 2u);
 516:../Common/debuglog/SEGGER_RTT_V792h/RTT/SEGGER_RTT.c **** }
 517:../Common/debuglog/SEGGER_RTT_V792h/RTT/SEGGER_RTT.c **** 
 518:../Common/debuglog/SEGGER_RTT_V792h/RTT/SEGGER_RTT.c **** /*********************************************************************
 519:../Common/debuglog/SEGGER_RTT_V792h/RTT/SEGGER_RTT.c **** *
 520:../Common/debuglog/SEGGER_RTT_V792h/RTT/SEGGER_RTT.c **** *       _GetAvailWriteSpace()
 521:../Common/debuglog/SEGGER_RTT_V792h/RTT/SEGGER_RTT.c **** *
 522:../Common/debuglog/SEGGER_RTT_V792h/RTT/SEGGER_RTT.c **** *  Function description
 523:../Common/debuglog/SEGGER_RTT_V792h/RTT/SEGGER_RTT.c **** *    Returns the number of bytes that can be written to the ring
 524:../Common/debuglog/SEGGER_RTT_V792h/RTT/SEGGER_RTT.c **** *    buffer without blocking.
 525:../Common/debuglog/SEGGER_RTT_V792h/RTT/SEGGER_RTT.c **** *
 526:../Common/debuglog/SEGGER_RTT_V792h/RTT/SEGGER_RTT.c **** *  Parameters
 527:../Common/debuglog/SEGGER_RTT_V792h/RTT/SEGGER_RTT.c **** *    pRing        Ring buffer to check.
 528:../Common/debuglog/SEGGER_RTT_V792h/RTT/SEGGER_RTT.c **** *
 529:../Common/debuglog/SEGGER_RTT_V792h/RTT/SEGGER_RTT.c **** *  Return value
 530:../Common/debuglog/SEGGER_RTT_V792h/RTT/SEGGER_RTT.c **** *    Number of bytes that are free in the buffer.
 531:../Common/debuglog/SEGGER_RTT_V792h/RTT/SEGGER_RTT.c **** */
 532:../Common/debuglog/SEGGER_RTT_V792h/RTT/SEGGER_RTT.c **** static unsigned _GetAvailWriteSpace(SEGGER_RTT_BUFFER_UP* pRing) {
  29              		.loc 1 532 66 view -0
  30              		.cfi_startproc
  31              		@ args = 0, pretend = 0, frame = 0
  32              		@ frame_needed = 0, uses_anonymous_args = 0
  33              		@ link register save eliminated.
 533:../Common/debuglog/SEGGER_RTT_V792h/RTT/SEGGER_RTT.c ****   unsigned RdOff;
  34              		.loc 1 533 3 view .LVU1
 534:../Common/debuglog/SEGGER_RTT_V792h/RTT/SEGGER_RTT.c ****   unsigned WrOff;
  35              		.loc 1 534 3 view .LVU2
 535:../Common/debuglog/SEGGER_RTT_V792h/RTT/SEGGER_RTT.c ****   unsigned r;
  36              		.loc 1 535 3 view .LVU3
ARM GAS  C:\Users\57308\AppData\Local\Temp\cc5NLGGx.s 			page 11


 536:../Common/debuglog/SEGGER_RTT_V792h/RTT/SEGGER_RTT.c ****   //
 537:../Common/debuglog/SEGGER_RTT_V792h/RTT/SEGGER_RTT.c ****   // Avoid warnings regarding volatile access order.  It's not a problem
 538:../Common/debuglog/SEGGER_RTT_V792h/RTT/SEGGER_RTT.c ****   // in this case, but dampen compiler enthusiasm.
 539:../Common/debuglog/SEGGER_RTT_V792h/RTT/SEGGER_RTT.c ****   //
 540:../Common/debuglog/SEGGER_RTT_V792h/RTT/SEGGER_RTT.c ****   RdOff = pRing->RdOff;
  37              		.loc 1 540 3 view .LVU4
  38              		.loc 1 540 9 is_stmt 0 view .LVU5
  39 0000 0369     		ldr	r3, [r0, #16]
  40              	.LVL1:
 541:../Common/debuglog/SEGGER_RTT_V792h/RTT/SEGGER_RTT.c ****   WrOff = pRing->WrOff;
  41              		.loc 1 541 3 is_stmt 1 view .LVU6
  42              		.loc 1 541 9 is_stmt 0 view .LVU7
  43 0002 C268     		ldr	r2, [r0, #12]
  44              	.LVL2:
 542:../Common/debuglog/SEGGER_RTT_V792h/RTT/SEGGER_RTT.c ****   if (RdOff <= WrOff) {
  45              		.loc 1 542 3 is_stmt 1 view .LVU8
  46              		.loc 1 542 6 is_stmt 0 view .LVU9
  47 0004 9342     		cmp	r3, r2
  48 0006 04D8     		bhi	.L2
 543:../Common/debuglog/SEGGER_RTT_V792h/RTT/SEGGER_RTT.c ****     r = pRing->SizeOfBuffer - 1u - WrOff + RdOff;
  49              		.loc 1 543 5 is_stmt 1 view .LVU10
  50              		.loc 1 543 14 is_stmt 0 view .LVU11
  51 0008 8068     		ldr	r0, [r0, #8]
  52              	.LVL3:
  53              		.loc 1 543 34 view .LVU12
  54 000a 801A     		subs	r0, r0, r2
  55              		.loc 1 543 42 view .LVU13
  56 000c 0344     		add	r3, r3, r0
  57              	.LVL4:
  58              		.loc 1 543 7 view .LVU14
  59 000e 581E     		subs	r0, r3, #1
  60              	.LVL5:
  61              		.loc 1 543 7 view .LVU15
  62 0010 7047     		bx	lr
  63              	.LVL6:
  64              	.L2:
 544:../Common/debuglog/SEGGER_RTT_V792h/RTT/SEGGER_RTT.c ****   } else {
 545:../Common/debuglog/SEGGER_RTT_V792h/RTT/SEGGER_RTT.c ****     r = RdOff - WrOff - 1u;
  65              		.loc 1 545 5 is_stmt 1 view .LVU16
  66              		.loc 1 545 15 is_stmt 0 view .LVU17
  67 0012 9B1A     		subs	r3, r3, r2
  68              	.LVL7:
  69              		.loc 1 545 7 view .LVU18
  70 0014 581E     		subs	r0, r3, #1
  71              	.LVL8:
 546:../Common/debuglog/SEGGER_RTT_V792h/RTT/SEGGER_RTT.c ****   }
 547:../Common/debuglog/SEGGER_RTT_V792h/RTT/SEGGER_RTT.c ****   return r;
  72              		.loc 1 547 3 is_stmt 1 view .LVU19
 548:../Common/debuglog/SEGGER_RTT_V792h/RTT/SEGGER_RTT.c **** }
  73              		.loc 1 548 1 is_stmt 0 view .LVU20
  74 0016 7047     		bx	lr
  75              		.cfi_endproc
  76              	.LFE4:
  78              		.section	.text._WriteNoCheck,"ax",%progbits
  79              		.align	1
  80              		.syntax unified
  81              		.thumb
ARM GAS  C:\Users\57308\AppData\Local\Temp\cc5NLGGx.s 			page 12


  82              		.thumb_func
  84              	_WriteNoCheck:
  85              	.LVL9:
  86              	.LFB2:
 442:../Common/debuglog/SEGGER_RTT_V792h/RTT/SEGGER_RTT.c ****   unsigned NumBytesAtOnce;
  87              		.loc 1 442 94 is_stmt 1 view -0
  88              		.cfi_startproc
  89              		@ args = 0, pretend = 0, frame = 0
  90              		@ frame_needed = 0, uses_anonymous_args = 0
 442:../Common/debuglog/SEGGER_RTT_V792h/RTT/SEGGER_RTT.c ****   unsigned NumBytesAtOnce;
  91              		.loc 1 442 94 is_stmt 0 view .LVU22
  92 0000 2DE9F843 		push	{r3, r4, r5, r6, r7, r8, r9, lr}
  93              	.LCFI0:
  94              		.cfi_def_cfa_offset 32
  95              		.cfi_offset 3, -32
  96              		.cfi_offset 4, -28
  97              		.cfi_offset 5, -24
  98              		.cfi_offset 6, -20
  99              		.cfi_offset 7, -16
 100              		.cfi_offset 8, -12
 101              		.cfi_offset 9, -8
 102              		.cfi_offset 14, -4
 103 0004 0446     		mov	r4, r0
 104 0006 8846     		mov	r8, r1
 105 0008 1646     		mov	r6, r2
 443:../Common/debuglog/SEGGER_RTT_V792h/RTT/SEGGER_RTT.c ****   unsigned WrOff;
 106              		.loc 1 443 3 is_stmt 1 view .LVU23
 444:../Common/debuglog/SEGGER_RTT_V792h/RTT/SEGGER_RTT.c ****   unsigned Rem;
 107              		.loc 1 444 3 view .LVU24
 445:../Common/debuglog/SEGGER_RTT_V792h/RTT/SEGGER_RTT.c ****   volatile char* pDst;
 108              		.loc 1 445 3 view .LVU25
 446:../Common/debuglog/SEGGER_RTT_V792h/RTT/SEGGER_RTT.c **** 
 109              		.loc 1 446 3 view .LVU26
 448:../Common/debuglog/SEGGER_RTT_V792h/RTT/SEGGER_RTT.c ****   Rem = pRing->SizeOfBuffer - WrOff;
 110              		.loc 1 448 3 view .LVU27
 448:../Common/debuglog/SEGGER_RTT_V792h/RTT/SEGGER_RTT.c ****   Rem = pRing->SizeOfBuffer - WrOff;
 111              		.loc 1 448 9 is_stmt 0 view .LVU28
 112 000a C568     		ldr	r5, [r0, #12]
 113              	.LVL10:
 449:../Common/debuglog/SEGGER_RTT_V792h/RTT/SEGGER_RTT.c ****   if (Rem > NumBytes) {
 114              		.loc 1 449 3 is_stmt 1 view .LVU29
 449:../Common/debuglog/SEGGER_RTT_V792h/RTT/SEGGER_RTT.c ****   if (Rem > NumBytes) {
 115              		.loc 1 449 14 is_stmt 0 view .LVU30
 116 000c 8768     		ldr	r7, [r0, #8]
 449:../Common/debuglog/SEGGER_RTT_V792h/RTT/SEGGER_RTT.c ****   if (Rem > NumBytes) {
 117              		.loc 1 449 7 view .LVU31
 118 000e A7EB0509 		sub	r9, r7, r5
 119              	.LVL11:
 450:../Common/debuglog/SEGGER_RTT_V792h/RTT/SEGGER_RTT.c ****     //
 120              		.loc 1 450 3 is_stmt 1 view .LVU32
 450:../Common/debuglog/SEGGER_RTT_V792h/RTT/SEGGER_RTT.c ****     //
 121              		.loc 1 450 6 is_stmt 0 view .LVU33
 122 0012 9145     		cmp	r9, r2
 123 0014 09D9     		bls	.L5
 454:../Common/debuglog/SEGGER_RTT_V792h/RTT/SEGGER_RTT.c **** #if SEGGER_RTT_MEMCPY_USE_BYTELOOP
 124              		.loc 1 454 5 is_stmt 1 view .LVU34
 454:../Common/debuglog/SEGGER_RTT_V792h/RTT/SEGGER_RTT.c **** #if SEGGER_RTT_MEMCPY_USE_BYTELOOP
ARM GAS  C:\Users\57308\AppData\Local\Temp\cc5NLGGx.s 			page 13


 125              		.loc 1 454 18 is_stmt 0 view .LVU35
 126 0016 4068     		ldr	r0, [r0, #4]
 127              	.LVL12:
 463:../Common/debuglog/SEGGER_RTT_V792h/RTT/SEGGER_RTT.c ****     RTT__DMB();                     // Force data write to be complete before writing the <WrOff>, 
 128              		.loc 1 463 5 is_stmt 1 view .LVU36
 129 0018 2844     		add	r0, r0, r5
 130              	.LVL13:
 463:../Common/debuglog/SEGGER_RTT_V792h/RTT/SEGGER_RTT.c ****     RTT__DMB();                     // Force data write to be complete before writing the <WrOff>, 
 131              		.loc 1 463 5 is_stmt 0 view .LVU37
 132 001a FFF7FEFF 		bl	memcpy
 133              	.LVL14:
 464:../Common/debuglog/SEGGER_RTT_V792h/RTT/SEGGER_RTT.c ****     pRing->WrOff = WrOff + NumBytes;
 134              		.loc 1 464 5 is_stmt 1 view .LVU38
 135              		.syntax unified
 136              	@ 464 "../Common/debuglog/SEGGER_RTT_V792h/RTT/SEGGER_RTT.c" 1
 137 001e BFF35F8F 		dmb
 138              	
 139              	@ 0 "" 2
 464:../Common/debuglog/SEGGER_RTT_V792h/RTT/SEGGER_RTT.c ****     pRing->WrOff = WrOff + NumBytes;
 140              		.loc 1 464 15 view .LVU39
 465:../Common/debuglog/SEGGER_RTT_V792h/RTT/SEGGER_RTT.c **** #endif
 141              		.loc 1 465 5 view .LVU40
 465:../Common/debuglog/SEGGER_RTT_V792h/RTT/SEGGER_RTT.c **** #endif
 142              		.loc 1 465 26 is_stmt 0 view .LVU41
 143              		.thumb
 144              		.syntax unified
 145 0022 3544     		add	r5, r5, r6
 146              	.LVL15:
 465:../Common/debuglog/SEGGER_RTT_V792h/RTT/SEGGER_RTT.c **** #endif
 147              		.loc 1 465 18 view .LVU42
 148 0024 E560     		str	r5, [r4, #12]
 149              	.L4:
 495:../Common/debuglog/SEGGER_RTT_V792h/RTT/SEGGER_RTT.c **** 
 150              		.loc 1 495 1 view .LVU43
 151 0026 BDE8F883 		pop	{r3, r4, r5, r6, r7, r8, r9, pc}
 152              	.LVL16:
 153              	.L5:
 485:../Common/debuglog/SEGGER_RTT_V792h/RTT/SEGGER_RTT.c ****     pDst = (pRing->pBuffer + WrOff) + SEGGER_RTT_UNCACHED_OFF;
 154              		.loc 1 485 5 is_stmt 1 view .LVU44
 486:../Common/debuglog/SEGGER_RTT_V792h/RTT/SEGGER_RTT.c ****     SEGGER_RTT_MEMCPY((void*)pDst, pData, NumBytesAtOnce);
 155              		.loc 1 486 5 view .LVU45
 486:../Common/debuglog/SEGGER_RTT_V792h/RTT/SEGGER_RTT.c ****     SEGGER_RTT_MEMCPY((void*)pDst, pData, NumBytesAtOnce);
 156              		.loc 1 486 18 is_stmt 0 view .LVU46
 157 002a 4068     		ldr	r0, [r0, #4]
 158              	.LVL17:
 487:../Common/debuglog/SEGGER_RTT_V792h/RTT/SEGGER_RTT.c ****     NumBytesAtOnce = NumBytes - Rem;
 159              		.loc 1 487 5 is_stmt 1 view .LVU47
 160 002c 4A46     		mov	r2, r9
 161              	.LVL18:
 487:../Common/debuglog/SEGGER_RTT_V792h/RTT/SEGGER_RTT.c ****     NumBytesAtOnce = NumBytes - Rem;
 162              		.loc 1 487 5 is_stmt 0 view .LVU48
 163 002e 2844     		add	r0, r0, r5
 164              	.LVL19:
 487:../Common/debuglog/SEGGER_RTT_V792h/RTT/SEGGER_RTT.c ****     NumBytesAtOnce = NumBytes - Rem;
 165              		.loc 1 487 5 view .LVU49
 166 0030 FFF7FEFF 		bl	memcpy
 167              	.LVL20:
ARM GAS  C:\Users\57308\AppData\Local\Temp\cc5NLGGx.s 			page 14


 488:../Common/debuglog/SEGGER_RTT_V792h/RTT/SEGGER_RTT.c ****     pDst = pRing->pBuffer + SEGGER_RTT_UNCACHED_OFF;
 168              		.loc 1 488 5 is_stmt 1 view .LVU50
 488:../Common/debuglog/SEGGER_RTT_V792h/RTT/SEGGER_RTT.c ****     pDst = pRing->pBuffer + SEGGER_RTT_UNCACHED_OFF;
 169              		.loc 1 488 20 is_stmt 0 view .LVU51
 170 0034 ED1B     		subs	r5, r5, r7
 171              	.LVL21:
 488:../Common/debuglog/SEGGER_RTT_V792h/RTT/SEGGER_RTT.c ****     pDst = pRing->pBuffer + SEGGER_RTT_UNCACHED_OFF;
 172              		.loc 1 488 20 view .LVU52
 173 0036 3544     		add	r5, r5, r6
 174              	.LVL22:
 489:../Common/debuglog/SEGGER_RTT_V792h/RTT/SEGGER_RTT.c ****     SEGGER_RTT_MEMCPY((void*)pDst, pData + Rem, NumBytesAtOnce);
 175              		.loc 1 489 5 is_stmt 1 view .LVU53
 490:../Common/debuglog/SEGGER_RTT_V792h/RTT/SEGGER_RTT.c ****     RTT__DMB();                     // Force data write to be complete before writing the <WrOff>, 
 176              		.loc 1 490 5 view .LVU54
 177 0038 2A46     		mov	r2, r5
 178 003a 08EB0901 		add	r1, r8, r9
 179 003e 6068     		ldr	r0, [r4, #4]
 180 0040 FFF7FEFF 		bl	memcpy
 181              	.LVL23:
 491:../Common/debuglog/SEGGER_RTT_V792h/RTT/SEGGER_RTT.c ****     pRing->WrOff = NumBytesAtOnce;
 182              		.loc 1 491 5 view .LVU55
 183              		.syntax unified
 184              	@ 491 "../Common/debuglog/SEGGER_RTT_V792h/RTT/SEGGER_RTT.c" 1
 185 0044 BFF35F8F 		dmb
 186              	
 187              	@ 0 "" 2
 491:../Common/debuglog/SEGGER_RTT_V792h/RTT/SEGGER_RTT.c ****     pRing->WrOff = NumBytesAtOnce;
 188              		.loc 1 491 15 view .LVU56
 492:../Common/debuglog/SEGGER_RTT_V792h/RTT/SEGGER_RTT.c **** #endif
 189              		.loc 1 492 5 view .LVU57
 492:../Common/debuglog/SEGGER_RTT_V792h/RTT/SEGGER_RTT.c **** #endif
 190              		.loc 1 492 18 is_stmt 0 view .LVU58
 191              		.thumb
 192              		.syntax unified
 193 0048 E560     		str	r5, [r4, #12]
 495:../Common/debuglog/SEGGER_RTT_V792h/RTT/SEGGER_RTT.c **** 
 194              		.loc 1 495 1 view .LVU59
 195 004a ECE7     		b	.L4
 196              		.cfi_endproc
 197              	.LFE2:
 199              		.section	.text._WriteBlocking,"ax",%progbits
 200              		.align	1
 201              		.syntax unified
 202              		.thumb
 203              		.thumb_func
 205              	_WriteBlocking:
 206              	.LVL24:
 207              	.LFB1:
 380:../Common/debuglog/SEGGER_RTT_V792h/RTT/SEGGER_RTT.c ****   unsigned NumBytesToWrite;
 208              		.loc 1 380 101 is_stmt 1 view -0
 209              		.cfi_startproc
 210              		@ args = 0, pretend = 0, frame = 0
 211              		@ frame_needed = 0, uses_anonymous_args = 0
 380:../Common/debuglog/SEGGER_RTT_V792h/RTT/SEGGER_RTT.c ****   unsigned NumBytesToWrite;
 212              		.loc 1 380 101 is_stmt 0 view .LVU61
 213 0000 2DE9F843 		push	{r3, r4, r5, r6, r7, r8, r9, lr}
 214              	.LCFI1:
ARM GAS  C:\Users\57308\AppData\Local\Temp\cc5NLGGx.s 			page 15


 215              		.cfi_def_cfa_offset 32
 216              		.cfi_offset 3, -32
 217              		.cfi_offset 4, -28
 218              		.cfi_offset 5, -24
 219              		.cfi_offset 6, -20
 220              		.cfi_offset 7, -16
 221              		.cfi_offset 8, -12
 222              		.cfi_offset 9, -8
 223              		.cfi_offset 14, -4
 224 0004 0646     		mov	r6, r0
 225 0006 8846     		mov	r8, r1
 226 0008 1746     		mov	r7, r2
 381:../Common/debuglog/SEGGER_RTT_V792h/RTT/SEGGER_RTT.c ****   unsigned NumBytesWritten;
 227              		.loc 1 381 3 is_stmt 1 view .LVU62
 382:../Common/debuglog/SEGGER_RTT_V792h/RTT/SEGGER_RTT.c ****   unsigned RdOff;
 228              		.loc 1 382 3 view .LVU63
 383:../Common/debuglog/SEGGER_RTT_V792h/RTT/SEGGER_RTT.c ****   unsigned WrOff;
 229              		.loc 1 383 3 view .LVU64
 384:../Common/debuglog/SEGGER_RTT_V792h/RTT/SEGGER_RTT.c ****   volatile char* pDst;
 230              		.loc 1 384 3 view .LVU65
 385:../Common/debuglog/SEGGER_RTT_V792h/RTT/SEGGER_RTT.c ****   //
 231              		.loc 1 385 3 view .LVU66
 389:../Common/debuglog/SEGGER_RTT_V792h/RTT/SEGGER_RTT.c ****   WrOff = pRing->WrOff;
 232              		.loc 1 389 3 view .LVU67
 233              	.LVL25:
 390:../Common/debuglog/SEGGER_RTT_V792h/RTT/SEGGER_RTT.c ****   do {
 234              		.loc 1 390 3 view .LVU68
 390:../Common/debuglog/SEGGER_RTT_V792h/RTT/SEGGER_RTT.c ****   do {
 235              		.loc 1 390 9 is_stmt 0 view .LVU69
 236 000a C568     		ldr	r5, [r0, #12]
 237              	.LVL26:
 389:../Common/debuglog/SEGGER_RTT_V792h/RTT/SEGGER_RTT.c ****   WrOff = pRing->WrOff;
 238              		.loc 1 389 19 view .LVU70
 239 000c 4FF00009 		mov	r9, #0
 240 0010 1AE0     		b	.L12
 241              	.LVL27:
 242              	.L17:
 394:../Common/debuglog/SEGGER_RTT_V792h/RTT/SEGGER_RTT.c ****     } else {
 243              		.loc 1 394 7 is_stmt 1 view .LVU71
 394:../Common/debuglog/SEGGER_RTT_V792h/RTT/SEGGER_RTT.c ****     } else {
 244              		.loc 1 394 31 is_stmt 0 view .LVU72
 245 0012 641B     		subs	r4, r4, r5
 246              	.LVL28:
 394:../Common/debuglog/SEGGER_RTT_V792h/RTT/SEGGER_RTT.c ****     } else {
 247              		.loc 1 394 23 view .LVU73
 248 0014 621E     		subs	r2, r4, #1
 249              	.LVL29:
 250              	.L10:
 398:../Common/debuglog/SEGGER_RTT_V792h/RTT/SEGGER_RTT.c ****     NumBytesToWrite = MIN(NumBytesToWrite, NumBytes);
 251              		.loc 1 398 5 is_stmt 1 view .LVU74
 398:../Common/debuglog/SEGGER_RTT_V792h/RTT/SEGGER_RTT.c ****     NumBytesToWrite = MIN(NumBytesToWrite, NumBytes);
 252              		.loc 1 398 23 is_stmt 0 view .LVU75
 253 0016 B368     		ldr	r3, [r6, #8]
 254 0018 5C1B     		subs	r4, r3, r5
 398:../Common/debuglog/SEGGER_RTT_V792h/RTT/SEGGER_RTT.c ****     NumBytesToWrite = MIN(NumBytesToWrite, NumBytes);
 255              		.loc 1 398 21 view .LVU76
 256 001a 9442     		cmp	r4, r2
ARM GAS  C:\Users\57308\AppData\Local\Temp\cc5NLGGx.s 			page 16


 257 001c 28BF     		it	cs
 258 001e 1446     		movcs	r4, r2
 259              	.LVL30:
 399:../Common/debuglog/SEGGER_RTT_V792h/RTT/SEGGER_RTT.c ****     pDst = (pRing->pBuffer + WrOff) + SEGGER_RTT_UNCACHED_OFF;
 260              		.loc 1 399 5 is_stmt 1 view .LVU77
 399:../Common/debuglog/SEGGER_RTT_V792h/RTT/SEGGER_RTT.c ****     pDst = (pRing->pBuffer + WrOff) + SEGGER_RTT_UNCACHED_OFF;
 261              		.loc 1 399 21 is_stmt 0 view .LVU78
 262 0020 BC42     		cmp	r4, r7
 263 0022 28BF     		it	cs
 264 0024 3C46     		movcs	r4, r7
 265              	.LVL31:
 400:../Common/debuglog/SEGGER_RTT_V792h/RTT/SEGGER_RTT.c **** #if SEGGER_RTT_MEMCPY_USE_BYTELOOP
 266              		.loc 1 400 5 is_stmt 1 view .LVU79
 400:../Common/debuglog/SEGGER_RTT_V792h/RTT/SEGGER_RTT.c **** #if SEGGER_RTT_MEMCPY_USE_BYTELOOP
 267              		.loc 1 400 18 is_stmt 0 view .LVU80
 268 0026 7068     		ldr	r0, [r6, #4]
 269              	.LVL32:
 409:../Common/debuglog/SEGGER_RTT_V792h/RTT/SEGGER_RTT.c ****     NumBytesWritten += NumBytesToWrite;
 270              		.loc 1 409 5 is_stmt 1 view .LVU81
 271 0028 2246     		mov	r2, r4
 272 002a 4146     		mov	r1, r8
 273 002c 2844     		add	r0, r0, r5
 274              	.LVL33:
 409:../Common/debuglog/SEGGER_RTT_V792h/RTT/SEGGER_RTT.c ****     NumBytesWritten += NumBytesToWrite;
 275              		.loc 1 409 5 is_stmt 0 view .LVU82
 276 002e FFF7FEFF 		bl	memcpy
 277              	.LVL34:
 410:../Common/debuglog/SEGGER_RTT_V792h/RTT/SEGGER_RTT.c ****     pBuffer         += NumBytesToWrite;
 278              		.loc 1 410 5 is_stmt 1 view .LVU83
 410:../Common/debuglog/SEGGER_RTT_V792h/RTT/SEGGER_RTT.c ****     pBuffer         += NumBytesToWrite;
 279              		.loc 1 410 21 is_stmt 0 view .LVU84
 280 0032 A144     		add	r9, r9, r4
 281              	.LVL35:
 411:../Common/debuglog/SEGGER_RTT_V792h/RTT/SEGGER_RTT.c ****     NumBytes        -= NumBytesToWrite;
 282              		.loc 1 411 5 is_stmt 1 view .LVU85
 411:../Common/debuglog/SEGGER_RTT_V792h/RTT/SEGGER_RTT.c ****     NumBytes        -= NumBytesToWrite;
 283              		.loc 1 411 21 is_stmt 0 view .LVU86
 284 0034 A044     		add	r8, r8, r4
 285              	.LVL36:
 412:../Common/debuglog/SEGGER_RTT_V792h/RTT/SEGGER_RTT.c ****     WrOff           += NumBytesToWrite;
 286              		.loc 1 412 5 is_stmt 1 view .LVU87
 412:../Common/debuglog/SEGGER_RTT_V792h/RTT/SEGGER_RTT.c ****     WrOff           += NumBytesToWrite;
 287              		.loc 1 412 21 is_stmt 0 view .LVU88
 288 0036 3F1B     		subs	r7, r7, r4
 289              	.LVL37:
 413:../Common/debuglog/SEGGER_RTT_V792h/RTT/SEGGER_RTT.c **** #endif
 290              		.loc 1 413 5 is_stmt 1 view .LVU89
 413:../Common/debuglog/SEGGER_RTT_V792h/RTT/SEGGER_RTT.c **** #endif
 291              		.loc 1 413 21 is_stmt 0 view .LVU90
 292 0038 2544     		add	r5, r5, r4
 293              	.LVL38:
 415:../Common/debuglog/SEGGER_RTT_V792h/RTT/SEGGER_RTT.c ****       WrOff = 0u;
 294              		.loc 1 415 5 is_stmt 1 view .LVU91
 415:../Common/debuglog/SEGGER_RTT_V792h/RTT/SEGGER_RTT.c ****       WrOff = 0u;
 295              		.loc 1 415 23 is_stmt 0 view .LVU92
 296 003a B368     		ldr	r3, [r6, #8]
 415:../Common/debuglog/SEGGER_RTT_V792h/RTT/SEGGER_RTT.c ****       WrOff = 0u;
ARM GAS  C:\Users\57308\AppData\Local\Temp\cc5NLGGx.s 			page 17


 297              		.loc 1 415 8 view .LVU93
 298 003c AB42     		cmp	r3, r5
 299 003e 0BD0     		beq	.L15
 300              	.LVL39:
 301              	.L11:
 418:../Common/debuglog/SEGGER_RTT_V792h/RTT/SEGGER_RTT.c ****     pRing->WrOff = WrOff;
 302              		.loc 1 418 5 is_stmt 1 view .LVU94
 303              		.syntax unified
 304              	@ 418 "../Common/debuglog/SEGGER_RTT_V792h/RTT/SEGGER_RTT.c" 1
 305 0040 BFF35F8F 		dmb
 306              	
 307              	@ 0 "" 2
 418:../Common/debuglog/SEGGER_RTT_V792h/RTT/SEGGER_RTT.c ****     pRing->WrOff = WrOff;
 308              		.loc 1 418 15 view .LVU95
 419:../Common/debuglog/SEGGER_RTT_V792h/RTT/SEGGER_RTT.c ****   } while (NumBytes);
 309              		.loc 1 419 5 view .LVU96
 419:../Common/debuglog/SEGGER_RTT_V792h/RTT/SEGGER_RTT.c ****   } while (NumBytes);
 310              		.loc 1 419 18 is_stmt 0 view .LVU97
 311              		.thumb
 312              		.syntax unified
 313 0044 F560     		str	r5, [r6, #12]
 420:../Common/debuglog/SEGGER_RTT_V792h/RTT/SEGGER_RTT.c ****   return NumBytesWritten;
 314              		.loc 1 420 11 is_stmt 1 view .LVU98
 420:../Common/debuglog/SEGGER_RTT_V792h/RTT/SEGGER_RTT.c ****   return NumBytesWritten;
 315              		.loc 1 420 3 is_stmt 0 view .LVU99
 316 0046 4FB1     		cbz	r7, .L16
 317              	.LVL40:
 318              	.L12:
 391:../Common/debuglog/SEGGER_RTT_V792h/RTT/SEGGER_RTT.c ****     RdOff = pRing->RdOff;                         // May be changed by host (debug probe) in the me
 319              		.loc 1 391 3 is_stmt 1 view .LVU100
 392:../Common/debuglog/SEGGER_RTT_V792h/RTT/SEGGER_RTT.c ****     if (RdOff > WrOff) {
 320              		.loc 1 392 5 view .LVU101
 392:../Common/debuglog/SEGGER_RTT_V792h/RTT/SEGGER_RTT.c ****     if (RdOff > WrOff) {
 321              		.loc 1 392 11 is_stmt 0 view .LVU102
 322 0048 3469     		ldr	r4, [r6, #16]
 323              	.LVL41:
 393:../Common/debuglog/SEGGER_RTT_V792h/RTT/SEGGER_RTT.c ****       NumBytesToWrite = RdOff - WrOff - 1u;
 324              		.loc 1 393 5 is_stmt 1 view .LVU103
 393:../Common/debuglog/SEGGER_RTT_V792h/RTT/SEGGER_RTT.c ****       NumBytesToWrite = RdOff - WrOff - 1u;
 325              		.loc 1 393 8 is_stmt 0 view .LVU104
 326 004a A542     		cmp	r5, r4
 327 004c E1D3     		bcc	.L17
 396:../Common/debuglog/SEGGER_RTT_V792h/RTT/SEGGER_RTT.c ****     }
 328              		.loc 1 396 7 is_stmt 1 view .LVU105
 396:../Common/debuglog/SEGGER_RTT_V792h/RTT/SEGGER_RTT.c ****     }
 329              		.loc 1 396 30 is_stmt 0 view .LVU106
 330 004e B268     		ldr	r2, [r6, #8]
 396:../Common/debuglog/SEGGER_RTT_V792h/RTT/SEGGER_RTT.c ****     }
 331              		.loc 1 396 62 view .LVU107
 332 0050 641B     		subs	r4, r4, r5
 333              	.LVL42:
 396:../Common/debuglog/SEGGER_RTT_V792h/RTT/SEGGER_RTT.c ****     }
 334              		.loc 1 396 45 view .LVU108
 335 0052 1444     		add	r4, r4, r2
 396:../Common/debuglog/SEGGER_RTT_V792h/RTT/SEGGER_RTT.c ****     }
 336              		.loc 1 396 23 view .LVU109
 337 0054 621E     		subs	r2, r4, #1
ARM GAS  C:\Users\57308\AppData\Local\Temp\cc5NLGGx.s 			page 18


 338              	.LVL43:
 396:../Common/debuglog/SEGGER_RTT_V792h/RTT/SEGGER_RTT.c ****     }
 339              		.loc 1 396 23 view .LVU110
 340 0056 DEE7     		b	.L10
 341              	.LVL44:
 342              	.L15:
 416:../Common/debuglog/SEGGER_RTT_V792h/RTT/SEGGER_RTT.c ****     }
 343              		.loc 1 416 13 view .LVU111
 344 0058 0025     		movs	r5, #0
 345              	.LVL45:
 416:../Common/debuglog/SEGGER_RTT_V792h/RTT/SEGGER_RTT.c ****     }
 346              		.loc 1 416 13 view .LVU112
 347 005a F1E7     		b	.L11
 348              	.LVL46:
 349              	.L16:
 421:../Common/debuglog/SEGGER_RTT_V792h/RTT/SEGGER_RTT.c **** }
 350              		.loc 1 421 3 is_stmt 1 view .LVU113
 422:../Common/debuglog/SEGGER_RTT_V792h/RTT/SEGGER_RTT.c **** 
 351              		.loc 1 422 1 is_stmt 0 view .LVU114
 352 005c 4846     		mov	r0, r9
 353 005e BDE8F883 		pop	{r3, r4, r5, r6, r7, r8, r9, pc}
 422:../Common/debuglog/SEGGER_RTT_V792h/RTT/SEGGER_RTT.c **** 
 354              		.loc 1 422 1 view .LVU115
 355              		.cfi_endproc
 356              	.LFE1:
 358              		.section	.text._PostTerminalSwitch,"ax",%progbits
 359              		.align	1
 360              		.syntax unified
 361              		.thumb
 362              		.thumb_func
 364              	_PostTerminalSwitch:
 365              	.LVL47:
 366              	.LFB3:
 510:../Common/debuglog/SEGGER_RTT_V792h/RTT/SEGGER_RTT.c ****   unsigned char ac[2];
 367              		.loc 1 510 88 is_stmt 1 view -0
 368              		.cfi_startproc
 369              		@ args = 0, pretend = 0, frame = 8
 370              		@ frame_needed = 0, uses_anonymous_args = 0
 510:../Common/debuglog/SEGGER_RTT_V792h/RTT/SEGGER_RTT.c ****   unsigned char ac[2];
 371              		.loc 1 510 88 is_stmt 0 view .LVU117
 372 0000 00B5     		push	{lr}
 373              	.LCFI2:
 374              		.cfi_def_cfa_offset 4
 375              		.cfi_offset 14, -4
 376 0002 83B0     		sub	sp, sp, #12
 377              	.LCFI3:
 378              		.cfi_def_cfa_offset 16
 511:../Common/debuglog/SEGGER_RTT_V792h/RTT/SEGGER_RTT.c **** 
 379              		.loc 1 511 3 is_stmt 1 view .LVU118
 513:../Common/debuglog/SEGGER_RTT_V792h/RTT/SEGGER_RTT.c ****   ac[1] = _aTerminalId[TerminalId];  // Caller made already sure that TerminalId does not exceed ou
 380              		.loc 1 513 3 view .LVU119
 513:../Common/debuglog/SEGGER_RTT_V792h/RTT/SEGGER_RTT.c ****   ac[1] = _aTerminalId[TerminalId];  // Caller made already sure that TerminalId does not exceed ou
 381              		.loc 1 513 9 is_stmt 0 view .LVU120
 382 0004 FF23     		movs	r3, #255
 383 0006 8DF80430 		strb	r3, [sp, #4]
 514:../Common/debuglog/SEGGER_RTT_V792h/RTT/SEGGER_RTT.c ****   _WriteBlocking(pRing, (const char*)ac, 2u);
 384              		.loc 1 514 3 is_stmt 1 view .LVU121
ARM GAS  C:\Users\57308\AppData\Local\Temp\cc5NLGGx.s 			page 19


 514:../Common/debuglog/SEGGER_RTT_V792h/RTT/SEGGER_RTT.c ****   _WriteBlocking(pRing, (const char*)ac, 2u);
 385              		.loc 1 514 23 is_stmt 0 view .LVU122
 386 000a 054B     		ldr	r3, .L20
 387 000c 5B5C     		ldrb	r3, [r3, r1]	@ zero_extendqisi2
 514:../Common/debuglog/SEGGER_RTT_V792h/RTT/SEGGER_RTT.c ****   _WriteBlocking(pRing, (const char*)ac, 2u);
 388              		.loc 1 514 9 view .LVU123
 389 000e 8DF80530 		strb	r3, [sp, #5]
 515:../Common/debuglog/SEGGER_RTT_V792h/RTT/SEGGER_RTT.c **** }
 390              		.loc 1 515 3 is_stmt 1 view .LVU124
 391 0012 0222     		movs	r2, #2
 392 0014 01A9     		add	r1, sp, #4
 393              	.LVL48:
 515:../Common/debuglog/SEGGER_RTT_V792h/RTT/SEGGER_RTT.c **** }
 394              		.loc 1 515 3 is_stmt 0 view .LVU125
 395 0016 FFF7FEFF 		bl	_WriteBlocking
 396              	.LVL49:
 516:../Common/debuglog/SEGGER_RTT_V792h/RTT/SEGGER_RTT.c **** 
 397              		.loc 1 516 1 view .LVU126
 398 001a 03B0     		add	sp, sp, #12
 399              	.LCFI4:
 400              		.cfi_def_cfa_offset 4
 401              		@ sp needed
 402 001c 5DF804FB 		ldr	pc, [sp], #4
 403              	.L21:
 404              		.align	2
 405              	.L20:
 406 0020 00000000 		.word	.LANCHOR0
 407              		.cfi_endproc
 408              	.LFE3:
 410              		.section	.rodata._DoInit.str1.4,"aMS",%progbits,1
 411              		.align	2
 412              	.LC0:
 413 0000 5465726D 		.ascii	"Terminal\000"
 413      696E616C 
 413      00
 414              		.section	.text._DoInit,"ax",%progbits
 415              		.align	1
 416              		.syntax unified
 417              		.thumb
 418              		.thumb_func
 420              	_DoInit:
 421              	.LFB0:
 320:../Common/debuglog/SEGGER_RTT_V792h/RTT/SEGGER_RTT.c ****   volatile SEGGER_RTT_CB* p;   // Volatile to make sure that compiler cannot change the order of ac
 422              		.loc 1 320 27 is_stmt 1 view -0
 423              		.cfi_startproc
 424              		@ args = 0, pretend = 0, frame = 0
 425              		@ frame_needed = 0, uses_anonymous_args = 0
 426 0000 10B5     		push	{r4, lr}
 427              	.LCFI5:
 428              		.cfi_def_cfa_offset 8
 429              		.cfi_offset 4, -8
 430              		.cfi_offset 14, -4
 321:../Common/debuglog/SEGGER_RTT_V792h/RTT/SEGGER_RTT.c ****   static const char _aInitStr[] = "\0\0\0\0\0\0TTR REGGES";  // Init complete ID string to make sur
 431              		.loc 1 321 3 view .LVU128
 322:../Common/debuglog/SEGGER_RTT_V792h/RTT/SEGGER_RTT.c ****   unsigned i;
 432              		.loc 1 322 3 view .LVU129
 323:../Common/debuglog/SEGGER_RTT_V792h/RTT/SEGGER_RTT.c ****   //
ARM GAS  C:\Users\57308\AppData\Local\Temp\cc5NLGGx.s 			page 20


 433              		.loc 1 323 3 view .LVU130
 327:../Common/debuglog/SEGGER_RTT_V792h/RTT/SEGGER_RTT.c ****   memset((SEGGER_RTT_CB*)p, 0, sizeof(_SEGGER_RTT));         // Make sure that the RTT CB is always
 434              		.loc 1 327 3 view .LVU131
 435              	.LVL50:
 328:../Common/debuglog/SEGGER_RTT_V792h/RTT/SEGGER_RTT.c ****   p->MaxNumUpBuffers    = SEGGER_RTT_MAX_NUM_UP_BUFFERS;
 436              		.loc 1 328 3 view .LVU132
 437 0002 154C     		ldr	r4, .L26
 438 0004 A822     		movs	r2, #168
 439 0006 0021     		movs	r1, #0
 440 0008 2046     		mov	r0, r4
 441 000a FFF7FEFF 		bl	memset
 442              	.LVL51:
 329:../Common/debuglog/SEGGER_RTT_V792h/RTT/SEGGER_RTT.c ****   p->MaxNumDownBuffers  = SEGGER_RTT_MAX_NUM_DOWN_BUFFERS;
 443              		.loc 1 329 3 view .LVU133
 329:../Common/debuglog/SEGGER_RTT_V792h/RTT/SEGGER_RTT.c ****   p->MaxNumDownBuffers  = SEGGER_RTT_MAX_NUM_DOWN_BUFFERS;
 444              		.loc 1 329 25 is_stmt 0 view .LVU134
 445 000e 0323     		movs	r3, #3
 446 0010 2361     		str	r3, [r4, #16]
 330:../Common/debuglog/SEGGER_RTT_V792h/RTT/SEGGER_RTT.c ****   //
 447              		.loc 1 330 3 is_stmt 1 view .LVU135
 330:../Common/debuglog/SEGGER_RTT_V792h/RTT/SEGGER_RTT.c ****   //
 448              		.loc 1 330 25 is_stmt 0 view .LVU136
 449 0012 6361     		str	r3, [r4, #20]
 334:../Common/debuglog/SEGGER_RTT_V792h/RTT/SEGGER_RTT.c ****   p->aUp[0].pBuffer       = _acUpBuffer;
 450              		.loc 1 334 3 is_stmt 1 view .LVU137
 334:../Common/debuglog/SEGGER_RTT_V792h/RTT/SEGGER_RTT.c ****   p->aUp[0].pBuffer       = _acUpBuffer;
 451              		.loc 1 334 27 is_stmt 0 view .LVU138
 452 0014 114A     		ldr	r2, .L26+4
 453 0016 A261     		str	r2, [r4, #24]
 335:../Common/debuglog/SEGGER_RTT_V792h/RTT/SEGGER_RTT.c ****   p->aUp[0].SizeOfBuffer  = BUFFER_SIZE_UP;
 454              		.loc 1 335 3 is_stmt 1 view .LVU139
 335:../Common/debuglog/SEGGER_RTT_V792h/RTT/SEGGER_RTT.c ****   p->aUp[0].SizeOfBuffer  = BUFFER_SIZE_UP;
 455              		.loc 1 335 27 is_stmt 0 view .LVU140
 456 0018 114B     		ldr	r3, .L26+8
 457 001a E361     		str	r3, [r4, #28]
 336:../Common/debuglog/SEGGER_RTT_V792h/RTT/SEGGER_RTT.c ****   p->aUp[0].RdOff         = 0u;
 458              		.loc 1 336 3 is_stmt 1 view .LVU141
 336:../Common/debuglog/SEGGER_RTT_V792h/RTT/SEGGER_RTT.c ****   p->aUp[0].RdOff         = 0u;
 459              		.loc 1 336 27 is_stmt 0 view .LVU142
 460 001c 4FF48063 		mov	r3, #1024
 461 0020 2362     		str	r3, [r4, #32]
 337:../Common/debuglog/SEGGER_RTT_V792h/RTT/SEGGER_RTT.c ****   p->aUp[0].WrOff         = 0u;
 462              		.loc 1 337 3 is_stmt 1 view .LVU143
 337:../Common/debuglog/SEGGER_RTT_V792h/RTT/SEGGER_RTT.c ****   p->aUp[0].WrOff         = 0u;
 463              		.loc 1 337 27 is_stmt 0 view .LVU144
 464 0022 0023     		movs	r3, #0
 465 0024 A362     		str	r3, [r4, #40]
 338:../Common/debuglog/SEGGER_RTT_V792h/RTT/SEGGER_RTT.c ****   p->aUp[0].Flags         = SEGGER_RTT_MODE_DEFAULT;
 466              		.loc 1 338 3 is_stmt 1 view .LVU145
 338:../Common/debuglog/SEGGER_RTT_V792h/RTT/SEGGER_RTT.c ****   p->aUp[0].Flags         = SEGGER_RTT_MODE_DEFAULT;
 467              		.loc 1 338 27 is_stmt 0 view .LVU146
 468 0026 6362     		str	r3, [r4, #36]
 339:../Common/debuglog/SEGGER_RTT_V792h/RTT/SEGGER_RTT.c ****   //
 469              		.loc 1 339 3 is_stmt 1 view .LVU147
 339:../Common/debuglog/SEGGER_RTT_V792h/RTT/SEGGER_RTT.c ****   //
 470              		.loc 1 339 27 is_stmt 0 view .LVU148
 471 0028 E362     		str	r3, [r4, #44]
ARM GAS  C:\Users\57308\AppData\Local\Temp\cc5NLGGx.s 			page 21


 343:../Common/debuglog/SEGGER_RTT_V792h/RTT/SEGGER_RTT.c ****   p->aDown[0].pBuffer       = _acDownBuffer;
 472              		.loc 1 343 3 is_stmt 1 view .LVU149
 343:../Common/debuglog/SEGGER_RTT_V792h/RTT/SEGGER_RTT.c ****   p->aDown[0].pBuffer       = _acDownBuffer;
 473              		.loc 1 343 29 is_stmt 0 view .LVU150
 474 002a 2266     		str	r2, [r4, #96]
 344:../Common/debuglog/SEGGER_RTT_V792h/RTT/SEGGER_RTT.c ****   p->aDown[0].SizeOfBuffer  = BUFFER_SIZE_DOWN;
 475              		.loc 1 344 3 is_stmt 1 view .LVU151
 344:../Common/debuglog/SEGGER_RTT_V792h/RTT/SEGGER_RTT.c ****   p->aDown[0].SizeOfBuffer  = BUFFER_SIZE_DOWN;
 476              		.loc 1 344 29 is_stmt 0 view .LVU152
 477 002c 0D4A     		ldr	r2, .L26+12
 478 002e 6266     		str	r2, [r4, #100]
 345:../Common/debuglog/SEGGER_RTT_V792h/RTT/SEGGER_RTT.c ****   p->aDown[0].RdOff         = 0u;
 479              		.loc 1 345 3 is_stmt 1 view .LVU153
 345:../Common/debuglog/SEGGER_RTT_V792h/RTT/SEGGER_RTT.c ****   p->aDown[0].RdOff         = 0u;
 480              		.loc 1 345 29 is_stmt 0 view .LVU154
 481 0030 4022     		movs	r2, #64
 482 0032 A266     		str	r2, [r4, #104]
 346:../Common/debuglog/SEGGER_RTT_V792h/RTT/SEGGER_RTT.c ****   p->aDown[0].WrOff         = 0u;
 483              		.loc 1 346 3 is_stmt 1 view .LVU155
 346:../Common/debuglog/SEGGER_RTT_V792h/RTT/SEGGER_RTT.c ****   p->aDown[0].WrOff         = 0u;
 484              		.loc 1 346 29 is_stmt 0 view .LVU156
 485 0034 2367     		str	r3, [r4, #112]
 347:../Common/debuglog/SEGGER_RTT_V792h/RTT/SEGGER_RTT.c ****   p->aDown[0].Flags         = SEGGER_RTT_MODE_DEFAULT;
 486              		.loc 1 347 3 is_stmt 1 view .LVU157
 347:../Common/debuglog/SEGGER_RTT_V792h/RTT/SEGGER_RTT.c ****   p->aDown[0].Flags         = SEGGER_RTT_MODE_DEFAULT;
 487              		.loc 1 347 29 is_stmt 0 view .LVU158
 488 0036 E366     		str	r3, [r4, #108]
 348:../Common/debuglog/SEGGER_RTT_V792h/RTT/SEGGER_RTT.c ****   //
 489              		.loc 1 348 3 is_stmt 1 view .LVU159
 348:../Common/debuglog/SEGGER_RTT_V792h/RTT/SEGGER_RTT.c ****   //
 490              		.loc 1 348 29 is_stmt 0 view .LVU160
 491 0038 6367     		str	r3, [r4, #116]
 354:../Common/debuglog/SEGGER_RTT_V792h/RTT/SEGGER_RTT.c ****   for (i = 0; i < sizeof(_aInitStr) - 1; ++i) {
 492              		.loc 1 354 3 is_stmt 1 view .LVU161
 493              		.syntax unified
 494              	@ 354 "../Common/debuglog/SEGGER_RTT_V792h/RTT/SEGGER_RTT.c" 1
 495 003a BFF35F8F 		dmb
 496              	
 497              	@ 0 "" 2
 354:../Common/debuglog/SEGGER_RTT_V792h/RTT/SEGGER_RTT.c ****   for (i = 0; i < sizeof(_aInitStr) - 1; ++i) {
 498              		.loc 1 354 13 view .LVU162
 355:../Common/debuglog/SEGGER_RTT_V792h/RTT/SEGGER_RTT.c ****     p->acID[i] = _aInitStr[sizeof(_aInitStr) - 2 - i];  // Skip terminating \0 at the end of the ar
 499              		.loc 1 355 3 view .LVU163
 500              	.LVL52:
 355:../Common/debuglog/SEGGER_RTT_V792h/RTT/SEGGER_RTT.c ****     p->acID[i] = _aInitStr[sizeof(_aInitStr) - 2 - i];  // Skip terminating \0 at the end of the ar
 501              		.loc 1 355 3 is_stmt 0 view .LVU164
 502              		.thumb
 503              		.syntax unified
 504 003e 06E0     		b	.L23
 505              	.LVL53:
 506              	.L24:
 356:../Common/debuglog/SEGGER_RTT_V792h/RTT/SEGGER_RTT.c ****   }
 507              		.loc 1 356 5 is_stmt 1 discriminator 3 view .LVU165
 356:../Common/debuglog/SEGGER_RTT_V792h/RTT/SEGGER_RTT.c ****   }
 508              		.loc 1 356 50 is_stmt 0 discriminator 3 view .LVU166
 509 0040 C3F10F02 		rsb	r2, r3, #15
 356:../Common/debuglog/SEGGER_RTT_V792h/RTT/SEGGER_RTT.c ****   }
ARM GAS  C:\Users\57308\AppData\Local\Temp\cc5NLGGx.s 			page 22


 510              		.loc 1 356 27 discriminator 3 view .LVU167
 511 0044 0849     		ldr	r1, .L26+16
 512 0046 895C     		ldrb	r1, [r1, r2]	@ zero_extendqisi2
 356:../Common/debuglog/SEGGER_RTT_V792h/RTT/SEGGER_RTT.c ****   }
 513              		.loc 1 356 16 discriminator 3 view .LVU168
 514 0048 034A     		ldr	r2, .L26
 515 004a D154     		strb	r1, [r2, r3]
 355:../Common/debuglog/SEGGER_RTT_V792h/RTT/SEGGER_RTT.c ****     p->acID[i] = _aInitStr[sizeof(_aInitStr) - 2 - i];  // Skip terminating \0 at the end of the ar
 516              		.loc 1 355 42 is_stmt 1 discriminator 3 view .LVU169
 517 004c 0133     		adds	r3, r3, #1
 518              	.LVL54:
 519              	.L23:
 355:../Common/debuglog/SEGGER_RTT_V792h/RTT/SEGGER_RTT.c ****     p->acID[i] = _aInitStr[sizeof(_aInitStr) - 2 - i];  // Skip terminating \0 at the end of the ar
 520              		.loc 1 355 15 discriminator 1 view .LVU170
 355:../Common/debuglog/SEGGER_RTT_V792h/RTT/SEGGER_RTT.c ****     p->acID[i] = _aInitStr[sizeof(_aInitStr) - 2 - i];  // Skip terminating \0 at the end of the ar
 521              		.loc 1 355 3 is_stmt 0 discriminator 1 view .LVU171
 522 004e 0F2B     		cmp	r3, #15
 523 0050 F6D9     		bls	.L24
 358:../Common/debuglog/SEGGER_RTT_V792h/RTT/SEGGER_RTT.c **** }
 524              		.loc 1 358 3 is_stmt 1 view .LVU172
 525              		.syntax unified
 526              	@ 358 "../Common/debuglog/SEGGER_RTT_V792h/RTT/SEGGER_RTT.c" 1
 527 0052 BFF35F8F 		dmb
 528              	
 529              	@ 0 "" 2
 358:../Common/debuglog/SEGGER_RTT_V792h/RTT/SEGGER_RTT.c **** }
 530              		.loc 1 358 13 view .LVU173
 359:../Common/debuglog/SEGGER_RTT_V792h/RTT/SEGGER_RTT.c **** 
 531              		.loc 1 359 1 is_stmt 0 view .LVU174
 532              		.thumb
 533              		.syntax unified
 534 0056 10BD     		pop	{r4, pc}
 535              	.L27:
 536              		.align	2
 537              	.L26:
 538 0058 00000000 		.word	.LANCHOR1
 539 005c 00000000 		.word	.LC0
 540 0060 00000000 		.word	.LANCHOR2
 541 0064 00000000 		.word	.LANCHOR3
 542 0068 00000000 		.word	.LANCHOR4
 543              		.cfi_endproc
 544              	.LFE0:
 546              		.section	.text.SEGGER_RTT_ReadUpBufferNoLock,"ax",%progbits
 547              		.align	1
 548              		.global	SEGGER_RTT_ReadUpBufferNoLock
 549              		.syntax unified
 550              		.thumb
 551              		.thumb_func
 553              	SEGGER_RTT_ReadUpBufferNoLock:
 554              	.LVL55:
 555              	.LFB5:
 549:../Common/debuglog/SEGGER_RTT_V792h/RTT/SEGGER_RTT.c **** 
 550:../Common/debuglog/SEGGER_RTT_V792h/RTT/SEGGER_RTT.c **** /*********************************************************************
 551:../Common/debuglog/SEGGER_RTT_V792h/RTT/SEGGER_RTT.c **** *
 552:../Common/debuglog/SEGGER_RTT_V792h/RTT/SEGGER_RTT.c **** *       Public code
 553:../Common/debuglog/SEGGER_RTT_V792h/RTT/SEGGER_RTT.c **** *
 554:../Common/debuglog/SEGGER_RTT_V792h/RTT/SEGGER_RTT.c **** **********************************************************************
ARM GAS  C:\Users\57308\AppData\Local\Temp\cc5NLGGx.s 			page 23


 555:../Common/debuglog/SEGGER_RTT_V792h/RTT/SEGGER_RTT.c **** */
 556:../Common/debuglog/SEGGER_RTT_V792h/RTT/SEGGER_RTT.c **** 
 557:../Common/debuglog/SEGGER_RTT_V792h/RTT/SEGGER_RTT.c **** /*********************************************************************
 558:../Common/debuglog/SEGGER_RTT_V792h/RTT/SEGGER_RTT.c **** *
 559:../Common/debuglog/SEGGER_RTT_V792h/RTT/SEGGER_RTT.c **** *       SEGGER_RTT_ReadUpBufferNoLock()
 560:../Common/debuglog/SEGGER_RTT_V792h/RTT/SEGGER_RTT.c **** *
 561:../Common/debuglog/SEGGER_RTT_V792h/RTT/SEGGER_RTT.c **** *  Function description
 562:../Common/debuglog/SEGGER_RTT_V792h/RTT/SEGGER_RTT.c **** *    Reads characters from SEGGER real-time-terminal control block
 563:../Common/debuglog/SEGGER_RTT_V792h/RTT/SEGGER_RTT.c **** *    which have been previously stored by the application.
 564:../Common/debuglog/SEGGER_RTT_V792h/RTT/SEGGER_RTT.c **** *    Do not lock against interrupts and multiple access.
 565:../Common/debuglog/SEGGER_RTT_V792h/RTT/SEGGER_RTT.c **** *    Used to do the same operation that J-Link does, to transfer
 566:../Common/debuglog/SEGGER_RTT_V792h/RTT/SEGGER_RTT.c **** *    RTT data via other channels, such as TCP/IP or UART.
 567:../Common/debuglog/SEGGER_RTT_V792h/RTT/SEGGER_RTT.c **** *
 568:../Common/debuglog/SEGGER_RTT_V792h/RTT/SEGGER_RTT.c **** *  Parameters
 569:../Common/debuglog/SEGGER_RTT_V792h/RTT/SEGGER_RTT.c **** *    BufferIndex  Index of Up-buffer to be used.
 570:../Common/debuglog/SEGGER_RTT_V792h/RTT/SEGGER_RTT.c **** *    pBuffer      Pointer to buffer provided by target application, to copy characters from RTT-up-
 571:../Common/debuglog/SEGGER_RTT_V792h/RTT/SEGGER_RTT.c **** *    BufferSize   Size of the target application buffer.
 572:../Common/debuglog/SEGGER_RTT_V792h/RTT/SEGGER_RTT.c **** *
 573:../Common/debuglog/SEGGER_RTT_V792h/RTT/SEGGER_RTT.c **** *  Return value
 574:../Common/debuglog/SEGGER_RTT_V792h/RTT/SEGGER_RTT.c **** *    Number of bytes that have been read.
 575:../Common/debuglog/SEGGER_RTT_V792h/RTT/SEGGER_RTT.c **** *
 576:../Common/debuglog/SEGGER_RTT_V792h/RTT/SEGGER_RTT.c **** *  Additional information
 577:../Common/debuglog/SEGGER_RTT_V792h/RTT/SEGGER_RTT.c **** *    This function must not be called when J-Link might also do RTT.
 578:../Common/debuglog/SEGGER_RTT_V792h/RTT/SEGGER_RTT.c **** */
 579:../Common/debuglog/SEGGER_RTT_V792h/RTT/SEGGER_RTT.c **** unsigned SEGGER_RTT_ReadUpBufferNoLock(unsigned BufferIndex, void* pData, unsigned BufferSize) {
 556              		.loc 1 579 96 is_stmt 1 view -0
 557              		.cfi_startproc
 558              		@ args = 0, pretend = 0, frame = 0
 559              		@ frame_needed = 0, uses_anonymous_args = 0
 560              		.loc 1 579 96 is_stmt 0 view .LVU176
 561 0000 2DE9F047 		push	{r4, r5, r6, r7, r8, r9, r10, lr}
 562              	.LCFI6:
 563              		.cfi_def_cfa_offset 32
 564              		.cfi_offset 4, -32
 565              		.cfi_offset 5, -28
 566              		.cfi_offset 6, -24
 567              		.cfi_offset 7, -20
 568              		.cfi_offset 8, -16
 569              		.cfi_offset 9, -12
 570              		.cfi_offset 10, -8
 571              		.cfi_offset 14, -4
 572 0004 0446     		mov	r4, r0
 573 0006 8846     		mov	r8, r1
 574 0008 9146     		mov	r9, r2
 580:../Common/debuglog/SEGGER_RTT_V792h/RTT/SEGGER_RTT.c ****   unsigned                NumBytesRem;
 575              		.loc 1 580 3 is_stmt 1 view .LVU177
 581:../Common/debuglog/SEGGER_RTT_V792h/RTT/SEGGER_RTT.c ****   unsigned                NumBytesRead;
 576              		.loc 1 581 3 view .LVU178
 582:../Common/debuglog/SEGGER_RTT_V792h/RTT/SEGGER_RTT.c ****   unsigned                RdOff;
 577              		.loc 1 582 3 view .LVU179
 583:../Common/debuglog/SEGGER_RTT_V792h/RTT/SEGGER_RTT.c ****   unsigned                WrOff;
 578              		.loc 1 583 3 view .LVU180
 584:../Common/debuglog/SEGGER_RTT_V792h/RTT/SEGGER_RTT.c ****   unsigned char*          pBuffer;
 579              		.loc 1 584 3 view .LVU181
 585:../Common/debuglog/SEGGER_RTT_V792h/RTT/SEGGER_RTT.c ****   SEGGER_RTT_BUFFER_UP*   pRing;
 580              		.loc 1 585 3 view .LVU182
 586:../Common/debuglog/SEGGER_RTT_V792h/RTT/SEGGER_RTT.c ****   volatile char*          pSrc;
ARM GAS  C:\Users\57308\AppData\Local\Temp\cc5NLGGx.s 			page 24


 581              		.loc 1 586 3 view .LVU183
 587:../Common/debuglog/SEGGER_RTT_V792h/RTT/SEGGER_RTT.c **** 
 588:../Common/debuglog/SEGGER_RTT_V792h/RTT/SEGGER_RTT.c ****   INIT();
 582              		.loc 1 588 3 view .LVU184
 583              	.LBB2:
 584              		.loc 1 588 3 view .LVU185
 585              		.loc 1 588 3 view .LVU186
 586              	.LVL56:
 587              		.loc 1 588 3 view .LVU187
 588 000a 284B     		ldr	r3, .L39
 589 000c 1B78     		ldrb	r3, [r3]	@ zero_extendqisi2
 590 000e DBB2     		uxtb	r3, r3
 591 0010 532B     		cmp	r3, #83
 592 0012 18D1     		bne	.L36
 593              	.LVL57:
 594              	.L29:
 595              		.loc 1 588 3 is_stmt 0 view .LVU188
 596              	.LBE2:
 597              		.loc 1 588 3 is_stmt 1 discriminator 3 view .LVU189
 589:../Common/debuglog/SEGGER_RTT_V792h/RTT/SEGGER_RTT.c ****   pRing = (SEGGER_RTT_BUFFER_UP*)((uintptr_t)&_SEGGER_RTT.aUp[BufferIndex] + SEGGER_RTT_UNCACHED_OF
 598              		.loc 1 589 3 discriminator 3 view .LVU190
 590:../Common/debuglog/SEGGER_RTT_V792h/RTT/SEGGER_RTT.c ****   pBuffer = (unsigned char*)pData;
 599              		.loc 1 590 3 discriminator 3 view .LVU191
 591:../Common/debuglog/SEGGER_RTT_V792h/RTT/SEGGER_RTT.c ****   RdOff = pRing->RdOff;
 600              		.loc 1 591 3 discriminator 3 view .LVU192
 601              		.loc 1 591 9 is_stmt 0 discriminator 3 view .LVU193
 602 0014 04EB4403 		add	r3, r4, r4, lsl #1
 603 0018 244A     		ldr	r2, .L39
 604 001a 02EBC303 		add	r3, r2, r3, lsl #3
 605 001e 9F6A     		ldr	r7, [r3, #40]
 606              	.LVL58:
 592:../Common/debuglog/SEGGER_RTT_V792h/RTT/SEGGER_RTT.c ****   WrOff = pRing->WrOff;
 607              		.loc 1 592 3 is_stmt 1 discriminator 3 view .LVU194
 608              		.loc 1 592 9 is_stmt 0 discriminator 3 view .LVU195
 609 0020 5D6A     		ldr	r5, [r3, #36]
 610              	.LVL59:
 593:../Common/debuglog/SEGGER_RTT_V792h/RTT/SEGGER_RTT.c ****   NumBytesRead = 0u;
 611              		.loc 1 593 3 is_stmt 1 discriminator 3 view .LVU196
 594:../Common/debuglog/SEGGER_RTT_V792h/RTT/SEGGER_RTT.c ****   //
 595:../Common/debuglog/SEGGER_RTT_V792h/RTT/SEGGER_RTT.c ****   // Read from current read position to wrap-around of buffer, first
 596:../Common/debuglog/SEGGER_RTT_V792h/RTT/SEGGER_RTT.c ****   //
 597:../Common/debuglog/SEGGER_RTT_V792h/RTT/SEGGER_RTT.c ****   if (RdOff > WrOff) {
 612              		.loc 1 597 3 discriminator 3 view .LVU197
 613              		.loc 1 597 6 is_stmt 0 discriminator 3 view .LVU198
 614 0022 AF42     		cmp	r7, r5
 615 0024 12D8     		bhi	.L37
 593:../Common/debuglog/SEGGER_RTT_V792h/RTT/SEGGER_RTT.c ****   NumBytesRead = 0u;
 616              		.loc 1 593 16 view .LVU199
 617 0026 0026     		movs	r6, #0
 618              	.LVL60:
 619              	.L30:
 598:../Common/debuglog/SEGGER_RTT_V792h/RTT/SEGGER_RTT.c ****     NumBytesRem = pRing->SizeOfBuffer - RdOff;
 599:../Common/debuglog/SEGGER_RTT_V792h/RTT/SEGGER_RTT.c ****     NumBytesRem = MIN(NumBytesRem, BufferSize);
 600:../Common/debuglog/SEGGER_RTT_V792h/RTT/SEGGER_RTT.c ****     pSrc = (pRing->pBuffer + RdOff) + SEGGER_RTT_UNCACHED_OFF;
 601:../Common/debuglog/SEGGER_RTT_V792h/RTT/SEGGER_RTT.c **** #if SEGGER_RTT_MEMCPY_USE_BYTELOOP
 602:../Common/debuglog/SEGGER_RTT_V792h/RTT/SEGGER_RTT.c ****     NumBytesRead += NumBytesRem;
 603:../Common/debuglog/SEGGER_RTT_V792h/RTT/SEGGER_RTT.c ****     BufferSize   -= NumBytesRem;
ARM GAS  C:\Users\57308\AppData\Local\Temp\cc5NLGGx.s 			page 25


 604:../Common/debuglog/SEGGER_RTT_V792h/RTT/SEGGER_RTT.c ****     RdOff        += NumBytesRem;
 605:../Common/debuglog/SEGGER_RTT_V792h/RTT/SEGGER_RTT.c ****     while (NumBytesRem--) {
 606:../Common/debuglog/SEGGER_RTT_V792h/RTT/SEGGER_RTT.c ****       *pBuffer++ = *pSrc++;
 607:../Common/debuglog/SEGGER_RTT_V792h/RTT/SEGGER_RTT.c ****     };
 608:../Common/debuglog/SEGGER_RTT_V792h/RTT/SEGGER_RTT.c **** #else
 609:../Common/debuglog/SEGGER_RTT_V792h/RTT/SEGGER_RTT.c ****     SEGGER_RTT_MEMCPY(pBuffer, (void*)pSrc, NumBytesRem);
 610:../Common/debuglog/SEGGER_RTT_V792h/RTT/SEGGER_RTT.c ****     NumBytesRead += NumBytesRem;
 611:../Common/debuglog/SEGGER_RTT_V792h/RTT/SEGGER_RTT.c ****     pBuffer      += NumBytesRem;
 612:../Common/debuglog/SEGGER_RTT_V792h/RTT/SEGGER_RTT.c ****     BufferSize   -= NumBytesRem;
 613:../Common/debuglog/SEGGER_RTT_V792h/RTT/SEGGER_RTT.c ****     RdOff        += NumBytesRem;
 614:../Common/debuglog/SEGGER_RTT_V792h/RTT/SEGGER_RTT.c **** #endif
 615:../Common/debuglog/SEGGER_RTT_V792h/RTT/SEGGER_RTT.c ****     //
 616:../Common/debuglog/SEGGER_RTT_V792h/RTT/SEGGER_RTT.c ****     // Handle wrap-around of buffer
 617:../Common/debuglog/SEGGER_RTT_V792h/RTT/SEGGER_RTT.c ****     //
 618:../Common/debuglog/SEGGER_RTT_V792h/RTT/SEGGER_RTT.c ****     if (RdOff == pRing->SizeOfBuffer) {
 619:../Common/debuglog/SEGGER_RTT_V792h/RTT/SEGGER_RTT.c ****       RdOff = 0u;
 620:../Common/debuglog/SEGGER_RTT_V792h/RTT/SEGGER_RTT.c ****     }
 621:../Common/debuglog/SEGGER_RTT_V792h/RTT/SEGGER_RTT.c ****   }
 622:../Common/debuglog/SEGGER_RTT_V792h/RTT/SEGGER_RTT.c ****   //
 623:../Common/debuglog/SEGGER_RTT_V792h/RTT/SEGGER_RTT.c ****   // Read remaining items of buffer
 624:../Common/debuglog/SEGGER_RTT_V792h/RTT/SEGGER_RTT.c ****   //
 625:../Common/debuglog/SEGGER_RTT_V792h/RTT/SEGGER_RTT.c ****   NumBytesRem = WrOff - RdOff;
 620              		.loc 1 625 3 is_stmt 1 view .LVU200
 621              		.loc 1 625 15 is_stmt 0 view .LVU201
 622 0028 ED1B     		subs	r5, r5, r7
 623              	.LVL61:
 626:../Common/debuglog/SEGGER_RTT_V792h/RTT/SEGGER_RTT.c ****   NumBytesRem = MIN(NumBytesRem, BufferSize);
 624              		.loc 1 626 3 is_stmt 1 view .LVU202
 625              		.loc 1 626 15 is_stmt 0 view .LVU203
 626 002a 4D45     		cmp	r5, r9
 627 002c 28BF     		it	cs
 628 002e 4D46     		movcs	r5, r9
 629              	.LVL62:
 627:../Common/debuglog/SEGGER_RTT_V792h/RTT/SEGGER_RTT.c ****   if (NumBytesRem > 0u) {
 630              		.loc 1 627 3 is_stmt 1 view .LVU204
 631              		.loc 1 627 6 is_stmt 0 view .LVU205
 632 0030 65BB     		cbnz	r5, .L38
 633              	.LVL63:
 634              	.L31:
 628:../Common/debuglog/SEGGER_RTT_V792h/RTT/SEGGER_RTT.c ****     pSrc = (pRing->pBuffer + RdOff) + SEGGER_RTT_UNCACHED_OFF;
 629:../Common/debuglog/SEGGER_RTT_V792h/RTT/SEGGER_RTT.c **** #if SEGGER_RTT_MEMCPY_USE_BYTELOOP
 630:../Common/debuglog/SEGGER_RTT_V792h/RTT/SEGGER_RTT.c ****     NumBytesRead += NumBytesRem;
 631:../Common/debuglog/SEGGER_RTT_V792h/RTT/SEGGER_RTT.c ****     BufferSize   -= NumBytesRem;
 632:../Common/debuglog/SEGGER_RTT_V792h/RTT/SEGGER_RTT.c ****     RdOff        += NumBytesRem;
 633:../Common/debuglog/SEGGER_RTT_V792h/RTT/SEGGER_RTT.c ****     while (NumBytesRem--) {
 634:../Common/debuglog/SEGGER_RTT_V792h/RTT/SEGGER_RTT.c ****       *pBuffer++ = *pSrc++;
 635:../Common/debuglog/SEGGER_RTT_V792h/RTT/SEGGER_RTT.c ****     };
 636:../Common/debuglog/SEGGER_RTT_V792h/RTT/SEGGER_RTT.c **** #else
 637:../Common/debuglog/SEGGER_RTT_V792h/RTT/SEGGER_RTT.c ****     SEGGER_RTT_MEMCPY(pBuffer, (void*)pSrc, NumBytesRem);
 638:../Common/debuglog/SEGGER_RTT_V792h/RTT/SEGGER_RTT.c ****     NumBytesRead += NumBytesRem;
 639:../Common/debuglog/SEGGER_RTT_V792h/RTT/SEGGER_RTT.c ****     pBuffer      += NumBytesRem;
 640:../Common/debuglog/SEGGER_RTT_V792h/RTT/SEGGER_RTT.c ****     BufferSize   -= NumBytesRem;
 641:../Common/debuglog/SEGGER_RTT_V792h/RTT/SEGGER_RTT.c ****     RdOff        += NumBytesRem;
 642:../Common/debuglog/SEGGER_RTT_V792h/RTT/SEGGER_RTT.c **** #endif
 643:../Common/debuglog/SEGGER_RTT_V792h/RTT/SEGGER_RTT.c ****   }
 644:../Common/debuglog/SEGGER_RTT_V792h/RTT/SEGGER_RTT.c ****   //
 645:../Common/debuglog/SEGGER_RTT_V792h/RTT/SEGGER_RTT.c ****   // Update read offset of buffer
ARM GAS  C:\Users\57308\AppData\Local\Temp\cc5NLGGx.s 			page 26


 646:../Common/debuglog/SEGGER_RTT_V792h/RTT/SEGGER_RTT.c ****   //
 647:../Common/debuglog/SEGGER_RTT_V792h/RTT/SEGGER_RTT.c ****   if (NumBytesRead) {
 635              		.loc 1 647 3 is_stmt 1 view .LVU206
 636              		.loc 1 647 6 is_stmt 0 view .LVU207
 637 0032 2EB1     		cbz	r6, .L28
 648:../Common/debuglog/SEGGER_RTT_V792h/RTT/SEGGER_RTT.c ****     pRing->RdOff = RdOff;
 638              		.loc 1 648 5 is_stmt 1 view .LVU208
 639              		.loc 1 648 18 is_stmt 0 view .LVU209
 640 0034 04EB4404 		add	r4, r4, r4, lsl #1
 641              	.LVL64:
 642              		.loc 1 648 18 view .LVU210
 643 0038 1C48     		ldr	r0, .L39
 644 003a 00EBC404 		add	r4, r0, r4, lsl #3
 645 003e A762     		str	r7, [r4, #40]
 649:../Common/debuglog/SEGGER_RTT_V792h/RTT/SEGGER_RTT.c ****   }
 650:../Common/debuglog/SEGGER_RTT_V792h/RTT/SEGGER_RTT.c ****   //
 651:../Common/debuglog/SEGGER_RTT_V792h/RTT/SEGGER_RTT.c ****   return NumBytesRead;
 646              		.loc 1 651 3 is_stmt 1 view .LVU211
 647              	.L28:
 652:../Common/debuglog/SEGGER_RTT_V792h/RTT/SEGGER_RTT.c **** }
 648              		.loc 1 652 1 is_stmt 0 view .LVU212
 649 0040 3046     		mov	r0, r6
 650 0042 BDE8F087 		pop	{r4, r5, r6, r7, r8, r9, r10, pc}
 651              	.LVL65:
 652              	.L36:
 653              	.LBB3:
 588:../Common/debuglog/SEGGER_RTT_V792h/RTT/SEGGER_RTT.c ****   pRing = (SEGGER_RTT_BUFFER_UP*)((uintptr_t)&_SEGGER_RTT.aUp[BufferIndex] + SEGGER_RTT_UNCACHED_OF
 654              		.loc 1 588 3 is_stmt 1 discriminator 1 view .LVU213
 655 0046 FFF7FEFF 		bl	_DoInit
 656              	.LVL66:
 588:../Common/debuglog/SEGGER_RTT_V792h/RTT/SEGGER_RTT.c ****   pRing = (SEGGER_RTT_BUFFER_UP*)((uintptr_t)&_SEGGER_RTT.aUp[BufferIndex] + SEGGER_RTT_UNCACHED_OF
 657              		.loc 1 588 3 is_stmt 0 discriminator 1 view .LVU214
 658 004a E3E7     		b	.L29
 659              	.LVL67:
 660              	.L37:
 588:../Common/debuglog/SEGGER_RTT_V792h/RTT/SEGGER_RTT.c ****   pRing = (SEGGER_RTT_BUFFER_UP*)((uintptr_t)&_SEGGER_RTT.aUp[BufferIndex] + SEGGER_RTT_UNCACHED_OF
 661              		.loc 1 588 3 discriminator 1 view .LVU215
 662              	.LBE3:
 598:../Common/debuglog/SEGGER_RTT_V792h/RTT/SEGGER_RTT.c ****     NumBytesRem = MIN(NumBytesRem, BufferSize);
 663              		.loc 1 598 5 is_stmt 1 view .LVU216
 598:../Common/debuglog/SEGGER_RTT_V792h/RTT/SEGGER_RTT.c ****     NumBytesRem = MIN(NumBytesRem, BufferSize);
 664              		.loc 1 598 24 is_stmt 0 view .LVU217
 665 004c 1346     		mov	r3, r2
 666 004e 04EB440A 		add	r10, r4, r4, lsl #1
 667 0052 02EBCA0A 		add	r10, r2, r10, lsl #3
 668 0056 DAF82060 		ldr	r6, [r10, #32]
 598:../Common/debuglog/SEGGER_RTT_V792h/RTT/SEGGER_RTT.c ****     NumBytesRem = MIN(NumBytesRem, BufferSize);
 669              		.loc 1 598 17 view .LVU218
 670 005a F61B     		subs	r6, r6, r7
 671              	.LVL68:
 599:../Common/debuglog/SEGGER_RTT_V792h/RTT/SEGGER_RTT.c ****     pSrc = (pRing->pBuffer + RdOff) + SEGGER_RTT_UNCACHED_OFF;
 672              		.loc 1 599 5 is_stmt 1 view .LVU219
 599:../Common/debuglog/SEGGER_RTT_V792h/RTT/SEGGER_RTT.c ****     pSrc = (pRing->pBuffer + RdOff) + SEGGER_RTT_UNCACHED_OFF;
 673              		.loc 1 599 17 is_stmt 0 view .LVU220
 674 005c 4E45     		cmp	r6, r9
 675 005e 28BF     		it	cs
 676 0060 4E46     		movcs	r6, r9
ARM GAS  C:\Users\57308\AppData\Local\Temp\cc5NLGGx.s 			page 27


 677              	.LVL69:
 600:../Common/debuglog/SEGGER_RTT_V792h/RTT/SEGGER_RTT.c **** #if SEGGER_RTT_MEMCPY_USE_BYTELOOP
 678              		.loc 1 600 5 is_stmt 1 view .LVU221
 600:../Common/debuglog/SEGGER_RTT_V792h/RTT/SEGGER_RTT.c **** #if SEGGER_RTT_MEMCPY_USE_BYTELOOP
 679              		.loc 1 600 18 is_stmt 0 view .LVU222
 680 0062 621C     		adds	r2, r4, #1
 681 0064 02EB4202 		add	r2, r2, r2, lsl #1
 682 0068 03EBC203 		add	r3, r3, r2, lsl #3
 683 006c 5968     		ldr	r1, [r3, #4]
 684              	.LVL70:
 609:../Common/debuglog/SEGGER_RTT_V792h/RTT/SEGGER_RTT.c ****     NumBytesRead += NumBytesRem;
 685              		.loc 1 609 5 is_stmt 1 view .LVU223
 686 006e 3246     		mov	r2, r6
 687 0070 3944     		add	r1, r1, r7
 688              	.LVL71:
 609:../Common/debuglog/SEGGER_RTT_V792h/RTT/SEGGER_RTT.c ****     NumBytesRead += NumBytesRem;
 689              		.loc 1 609 5 is_stmt 0 view .LVU224
 690 0072 4046     		mov	r0, r8
 691 0074 FFF7FEFF 		bl	memcpy
 692              	.LVL72:
 610:../Common/debuglog/SEGGER_RTT_V792h/RTT/SEGGER_RTT.c ****     pBuffer      += NumBytesRem;
 693              		.loc 1 610 5 is_stmt 1 view .LVU225
 611:../Common/debuglog/SEGGER_RTT_V792h/RTT/SEGGER_RTT.c ****     BufferSize   -= NumBytesRem;
 694              		.loc 1 611 5 view .LVU226
 611:../Common/debuglog/SEGGER_RTT_V792h/RTT/SEGGER_RTT.c ****     BufferSize   -= NumBytesRem;
 695              		.loc 1 611 18 is_stmt 0 view .LVU227
 696 0078 B044     		add	r8, r8, r6
 697              	.LVL73:
 612:../Common/debuglog/SEGGER_RTT_V792h/RTT/SEGGER_RTT.c ****     RdOff        += NumBytesRem;
 698              		.loc 1 612 5 is_stmt 1 view .LVU228
 612:../Common/debuglog/SEGGER_RTT_V792h/RTT/SEGGER_RTT.c ****     RdOff        += NumBytesRem;
 699              		.loc 1 612 18 is_stmt 0 view .LVU229
 700 007a A9EB0609 		sub	r9, r9, r6
 701              	.LVL74:
 613:../Common/debuglog/SEGGER_RTT_V792h/RTT/SEGGER_RTT.c **** #endif
 702              		.loc 1 613 5 is_stmt 1 view .LVU230
 613:../Common/debuglog/SEGGER_RTT_V792h/RTT/SEGGER_RTT.c **** #endif
 703              		.loc 1 613 18 is_stmt 0 view .LVU231
 704 007e 3744     		add	r7, r7, r6
 705              	.LVL75:
 618:../Common/debuglog/SEGGER_RTT_V792h/RTT/SEGGER_RTT.c ****       RdOff = 0u;
 706              		.loc 1 618 5 is_stmt 1 view .LVU232
 618:../Common/debuglog/SEGGER_RTT_V792h/RTT/SEGGER_RTT.c ****       RdOff = 0u;
 707              		.loc 1 618 23 is_stmt 0 view .LVU233
 708 0080 DAF82030 		ldr	r3, [r10, #32]
 618:../Common/debuglog/SEGGER_RTT_V792h/RTT/SEGGER_RTT.c ****       RdOff = 0u;
 709              		.loc 1 618 8 view .LVU234
 710 0084 BB42     		cmp	r3, r7
 711 0086 CFD1     		bne	.L30
 619:../Common/debuglog/SEGGER_RTT_V792h/RTT/SEGGER_RTT.c ****     }
 712              		.loc 1 619 13 view .LVU235
 713 0088 0027     		movs	r7, #0
 714              	.LVL76:
 619:../Common/debuglog/SEGGER_RTT_V792h/RTT/SEGGER_RTT.c ****     }
 715              		.loc 1 619 13 view .LVU236
 716 008a CDE7     		b	.L30
 717              	.LVL77:
ARM GAS  C:\Users\57308\AppData\Local\Temp\cc5NLGGx.s 			page 28


 718              	.L38:
 628:../Common/debuglog/SEGGER_RTT_V792h/RTT/SEGGER_RTT.c **** #if SEGGER_RTT_MEMCPY_USE_BYTELOOP
 719              		.loc 1 628 5 is_stmt 1 view .LVU237
 628:../Common/debuglog/SEGGER_RTT_V792h/RTT/SEGGER_RTT.c **** #if SEGGER_RTT_MEMCPY_USE_BYTELOOP
 720              		.loc 1 628 18 is_stmt 0 view .LVU238
 721 008c 631C     		adds	r3, r4, #1
 722 008e 03EB4303 		add	r3, r3, r3, lsl #1
 723 0092 064A     		ldr	r2, .L39
 724 0094 02EBC303 		add	r3, r2, r3, lsl #3
 725 0098 5968     		ldr	r1, [r3, #4]
 726              	.LVL78:
 637:../Common/debuglog/SEGGER_RTT_V792h/RTT/SEGGER_RTT.c ****     NumBytesRead += NumBytesRem;
 727              		.loc 1 637 5 is_stmt 1 view .LVU239
 728 009a 2A46     		mov	r2, r5
 729 009c 3944     		add	r1, r1, r7
 730              	.LVL79:
 637:../Common/debuglog/SEGGER_RTT_V792h/RTT/SEGGER_RTT.c ****     NumBytesRead += NumBytesRem;
 731              		.loc 1 637 5 is_stmt 0 view .LVU240
 732 009e 4046     		mov	r0, r8
 733 00a0 FFF7FEFF 		bl	memcpy
 734              	.LVL80:
 638:../Common/debuglog/SEGGER_RTT_V792h/RTT/SEGGER_RTT.c ****     pBuffer      += NumBytesRem;
 735              		.loc 1 638 5 is_stmt 1 view .LVU241
 638:../Common/debuglog/SEGGER_RTT_V792h/RTT/SEGGER_RTT.c ****     pBuffer      += NumBytesRem;
 736              		.loc 1 638 18 is_stmt 0 view .LVU242
 737 00a4 2E44     		add	r6, r6, r5
 738              	.LVL81:
 639:../Common/debuglog/SEGGER_RTT_V792h/RTT/SEGGER_RTT.c ****     BufferSize   -= NumBytesRem;
 739              		.loc 1 639 5 is_stmt 1 view .LVU243
 640:../Common/debuglog/SEGGER_RTT_V792h/RTT/SEGGER_RTT.c ****     RdOff        += NumBytesRem;
 740              		.loc 1 640 5 view .LVU244
 641:../Common/debuglog/SEGGER_RTT_V792h/RTT/SEGGER_RTT.c **** #endif
 741              		.loc 1 641 5 view .LVU245
 641:../Common/debuglog/SEGGER_RTT_V792h/RTT/SEGGER_RTT.c **** #endif
 742              		.loc 1 641 18 is_stmt 0 view .LVU246
 743 00a6 2F44     		add	r7, r7, r5
 744              	.LVL82:
 641:../Common/debuglog/SEGGER_RTT_V792h/RTT/SEGGER_RTT.c **** #endif
 745              		.loc 1 641 18 view .LVU247
 746 00a8 C3E7     		b	.L31
 747              	.L40:
 748 00aa 00BF     		.align	2
 749              	.L39:
 750 00ac 00000000 		.word	.LANCHOR1
 751              		.cfi_endproc
 752              	.LFE5:
 754              		.section	.text.SEGGER_RTT_ReadNoLock,"ax",%progbits
 755              		.align	1
 756              		.global	SEGGER_RTT_ReadNoLock
 757              		.syntax unified
 758              		.thumb
 759              		.thumb_func
 761              	SEGGER_RTT_ReadNoLock:
 762              	.LVL83:
 763              	.LFB6:
 653:../Common/debuglog/SEGGER_RTT_V792h/RTT/SEGGER_RTT.c **** 
 654:../Common/debuglog/SEGGER_RTT_V792h/RTT/SEGGER_RTT.c **** /*********************************************************************
ARM GAS  C:\Users\57308\AppData\Local\Temp\cc5NLGGx.s 			page 29


 655:../Common/debuglog/SEGGER_RTT_V792h/RTT/SEGGER_RTT.c **** *
 656:../Common/debuglog/SEGGER_RTT_V792h/RTT/SEGGER_RTT.c **** *       SEGGER_RTT_ReadNoLock()
 657:../Common/debuglog/SEGGER_RTT_V792h/RTT/SEGGER_RTT.c **** *
 658:../Common/debuglog/SEGGER_RTT_V792h/RTT/SEGGER_RTT.c **** *  Function description
 659:../Common/debuglog/SEGGER_RTT_V792h/RTT/SEGGER_RTT.c **** *    Reads characters from SEGGER real-time-terminal control block
 660:../Common/debuglog/SEGGER_RTT_V792h/RTT/SEGGER_RTT.c **** *    which have been previously stored by the host.
 661:../Common/debuglog/SEGGER_RTT_V792h/RTT/SEGGER_RTT.c **** *    Do not lock against interrupts and multiple access.
 662:../Common/debuglog/SEGGER_RTT_V792h/RTT/SEGGER_RTT.c **** *
 663:../Common/debuglog/SEGGER_RTT_V792h/RTT/SEGGER_RTT.c **** *  Parameters
 664:../Common/debuglog/SEGGER_RTT_V792h/RTT/SEGGER_RTT.c **** *    BufferIndex  Index of Down-buffer to be used (e.g. 0 for "Terminal").
 665:../Common/debuglog/SEGGER_RTT_V792h/RTT/SEGGER_RTT.c **** *    pBuffer      Pointer to buffer provided by target application, to copy characters from RTT-dow
 666:../Common/debuglog/SEGGER_RTT_V792h/RTT/SEGGER_RTT.c **** *    BufferSize   Size of the target application buffer.
 667:../Common/debuglog/SEGGER_RTT_V792h/RTT/SEGGER_RTT.c **** *
 668:../Common/debuglog/SEGGER_RTT_V792h/RTT/SEGGER_RTT.c **** *  Return value
 669:../Common/debuglog/SEGGER_RTT_V792h/RTT/SEGGER_RTT.c **** *    Number of bytes that have been read.
 670:../Common/debuglog/SEGGER_RTT_V792h/RTT/SEGGER_RTT.c **** */
 671:../Common/debuglog/SEGGER_RTT_V792h/RTT/SEGGER_RTT.c **** unsigned SEGGER_RTT_ReadNoLock(unsigned BufferIndex, void* pData, unsigned BufferSize) {
 764              		.loc 1 671 88 is_stmt 1 view -0
 765              		.cfi_startproc
 766              		@ args = 0, pretend = 0, frame = 0
 767              		@ frame_needed = 0, uses_anonymous_args = 0
 768              		.loc 1 671 88 is_stmt 0 view .LVU249
 769 0000 2DE9F047 		push	{r4, r5, r6, r7, r8, r9, r10, lr}
 770              	.LCFI7:
 771              		.cfi_def_cfa_offset 32
 772              		.cfi_offset 4, -32
 773              		.cfi_offset 5, -28
 774              		.cfi_offset 6, -24
 775              		.cfi_offset 7, -20
 776              		.cfi_offset 8, -16
 777              		.cfi_offset 9, -12
 778              		.cfi_offset 10, -8
 779              		.cfi_offset 14, -4
 780 0004 0446     		mov	r4, r0
 781 0006 8846     		mov	r8, r1
 782 0008 9146     		mov	r9, r2
 672:../Common/debuglog/SEGGER_RTT_V792h/RTT/SEGGER_RTT.c ****   unsigned                NumBytesRem;
 783              		.loc 1 672 3 is_stmt 1 view .LVU250
 673:../Common/debuglog/SEGGER_RTT_V792h/RTT/SEGGER_RTT.c ****   unsigned                NumBytesRead;
 784              		.loc 1 673 3 view .LVU251
 674:../Common/debuglog/SEGGER_RTT_V792h/RTT/SEGGER_RTT.c ****   unsigned                RdOff;
 785              		.loc 1 674 3 view .LVU252
 675:../Common/debuglog/SEGGER_RTT_V792h/RTT/SEGGER_RTT.c ****   unsigned                WrOff;
 786              		.loc 1 675 3 view .LVU253
 676:../Common/debuglog/SEGGER_RTT_V792h/RTT/SEGGER_RTT.c ****   unsigned char*          pBuffer;
 787              		.loc 1 676 3 view .LVU254
 677:../Common/debuglog/SEGGER_RTT_V792h/RTT/SEGGER_RTT.c ****   SEGGER_RTT_BUFFER_DOWN* pRing;
 788              		.loc 1 677 3 view .LVU255
 678:../Common/debuglog/SEGGER_RTT_V792h/RTT/SEGGER_RTT.c ****   volatile char*          pSrc;
 789              		.loc 1 678 3 view .LVU256
 679:../Common/debuglog/SEGGER_RTT_V792h/RTT/SEGGER_RTT.c ****   //
 680:../Common/debuglog/SEGGER_RTT_V792h/RTT/SEGGER_RTT.c ****   INIT();
 790              		.loc 1 680 3 view .LVU257
 791              	.LBB4:
 792              		.loc 1 680 3 view .LVU258
 793              		.loc 1 680 3 view .LVU259
 794              	.LVL84:
ARM GAS  C:\Users\57308\AppData\Local\Temp\cc5NLGGx.s 			page 30


 795              		.loc 1 680 3 view .LVU260
 796 000a 254B     		ldr	r3, .L52
 797 000c 1B78     		ldrb	r3, [r3]	@ zero_extendqisi2
 798 000e DBB2     		uxtb	r3, r3
 799 0010 532B     		cmp	r3, #83
 800 0012 18D1     		bne	.L49
 801              	.LVL85:
 802              	.L42:
 803              		.loc 1 680 3 is_stmt 0 view .LVU261
 804              	.LBE4:
 805              		.loc 1 680 3 is_stmt 1 discriminator 3 view .LVU262
 681:../Common/debuglog/SEGGER_RTT_V792h/RTT/SEGGER_RTT.c ****   pRing = (SEGGER_RTT_BUFFER_DOWN*)((uintptr_t)&_SEGGER_RTT.aDown[BufferIndex] + SEGGER_RTT_UNCACHE
 806              		.loc 1 681 3 discriminator 3 view .LVU263
 682:../Common/debuglog/SEGGER_RTT_V792h/RTT/SEGGER_RTT.c ****   pBuffer = (unsigned char*)pData;
 807              		.loc 1 682 3 discriminator 3 view .LVU264
 683:../Common/debuglog/SEGGER_RTT_V792h/RTT/SEGGER_RTT.c ****   RdOff = pRing->RdOff;
 808              		.loc 1 683 3 discriminator 3 view .LVU265
 809              		.loc 1 683 9 is_stmt 0 discriminator 3 view .LVU266
 810 0014 04EB4403 		add	r3, r4, r4, lsl #1
 811 0018 214A     		ldr	r2, .L52
 812 001a 02EBC303 		add	r3, r2, r3, lsl #3
 813 001e 1F6F     		ldr	r7, [r3, #112]
 814              	.LVL86:
 684:../Common/debuglog/SEGGER_RTT_V792h/RTT/SEGGER_RTT.c ****   WrOff = pRing->WrOff;
 815              		.loc 1 684 3 is_stmt 1 discriminator 3 view .LVU267
 816              		.loc 1 684 9 is_stmt 0 discriminator 3 view .LVU268
 817 0020 DD6E     		ldr	r5, [r3, #108]
 818              	.LVL87:
 685:../Common/debuglog/SEGGER_RTT_V792h/RTT/SEGGER_RTT.c ****   NumBytesRead = 0u;
 819              		.loc 1 685 3 is_stmt 1 discriminator 3 view .LVU269
 686:../Common/debuglog/SEGGER_RTT_V792h/RTT/SEGGER_RTT.c ****   //
 687:../Common/debuglog/SEGGER_RTT_V792h/RTT/SEGGER_RTT.c ****   // Read from current read position to wrap-around of buffer, first
 688:../Common/debuglog/SEGGER_RTT_V792h/RTT/SEGGER_RTT.c ****   //
 689:../Common/debuglog/SEGGER_RTT_V792h/RTT/SEGGER_RTT.c ****   if (RdOff > WrOff) {
 820              		.loc 1 689 3 discriminator 3 view .LVU270
 821              		.loc 1 689 6 is_stmt 0 discriminator 3 view .LVU271
 822 0022 AF42     		cmp	r7, r5
 823 0024 12D8     		bhi	.L50
 685:../Common/debuglog/SEGGER_RTT_V792h/RTT/SEGGER_RTT.c ****   NumBytesRead = 0u;
 824              		.loc 1 685 16 view .LVU272
 825 0026 0026     		movs	r6, #0
 826              	.LVL88:
 827              	.L43:
 690:../Common/debuglog/SEGGER_RTT_V792h/RTT/SEGGER_RTT.c ****     NumBytesRem = pRing->SizeOfBuffer - RdOff;
 691:../Common/debuglog/SEGGER_RTT_V792h/RTT/SEGGER_RTT.c ****     NumBytesRem = MIN(NumBytesRem, BufferSize);
 692:../Common/debuglog/SEGGER_RTT_V792h/RTT/SEGGER_RTT.c ****     pSrc = (pRing->pBuffer + RdOff) + SEGGER_RTT_UNCACHED_OFF;
 693:../Common/debuglog/SEGGER_RTT_V792h/RTT/SEGGER_RTT.c **** #if SEGGER_RTT_MEMCPY_USE_BYTELOOP
 694:../Common/debuglog/SEGGER_RTT_V792h/RTT/SEGGER_RTT.c ****     NumBytesRead += NumBytesRem;
 695:../Common/debuglog/SEGGER_RTT_V792h/RTT/SEGGER_RTT.c ****     BufferSize   -= NumBytesRem;
 696:../Common/debuglog/SEGGER_RTT_V792h/RTT/SEGGER_RTT.c ****     RdOff        += NumBytesRem;
 697:../Common/debuglog/SEGGER_RTT_V792h/RTT/SEGGER_RTT.c ****     while (NumBytesRem--) {
 698:../Common/debuglog/SEGGER_RTT_V792h/RTT/SEGGER_RTT.c ****       *pBuffer++ = *pSrc++;
 699:../Common/debuglog/SEGGER_RTT_V792h/RTT/SEGGER_RTT.c ****     };
 700:../Common/debuglog/SEGGER_RTT_V792h/RTT/SEGGER_RTT.c **** #else
 701:../Common/debuglog/SEGGER_RTT_V792h/RTT/SEGGER_RTT.c ****     SEGGER_RTT_MEMCPY(pBuffer, (void*)pSrc, NumBytesRem);
 702:../Common/debuglog/SEGGER_RTT_V792h/RTT/SEGGER_RTT.c ****     NumBytesRead += NumBytesRem;
 703:../Common/debuglog/SEGGER_RTT_V792h/RTT/SEGGER_RTT.c ****     pBuffer      += NumBytesRem;
ARM GAS  C:\Users\57308\AppData\Local\Temp\cc5NLGGx.s 			page 31


 704:../Common/debuglog/SEGGER_RTT_V792h/RTT/SEGGER_RTT.c ****     BufferSize   -= NumBytesRem;
 705:../Common/debuglog/SEGGER_RTT_V792h/RTT/SEGGER_RTT.c ****     RdOff        += NumBytesRem;
 706:../Common/debuglog/SEGGER_RTT_V792h/RTT/SEGGER_RTT.c **** #endif
 707:../Common/debuglog/SEGGER_RTT_V792h/RTT/SEGGER_RTT.c ****     //
 708:../Common/debuglog/SEGGER_RTT_V792h/RTT/SEGGER_RTT.c ****     // Handle wrap-around of buffer
 709:../Common/debuglog/SEGGER_RTT_V792h/RTT/SEGGER_RTT.c ****     //
 710:../Common/debuglog/SEGGER_RTT_V792h/RTT/SEGGER_RTT.c ****     if (RdOff == pRing->SizeOfBuffer) {
 711:../Common/debuglog/SEGGER_RTT_V792h/RTT/SEGGER_RTT.c ****       RdOff = 0u;
 712:../Common/debuglog/SEGGER_RTT_V792h/RTT/SEGGER_RTT.c ****     }
 713:../Common/debuglog/SEGGER_RTT_V792h/RTT/SEGGER_RTT.c ****   }
 714:../Common/debuglog/SEGGER_RTT_V792h/RTT/SEGGER_RTT.c ****   //
 715:../Common/debuglog/SEGGER_RTT_V792h/RTT/SEGGER_RTT.c ****   // Read remaining items of buffer
 716:../Common/debuglog/SEGGER_RTT_V792h/RTT/SEGGER_RTT.c ****   //
 717:../Common/debuglog/SEGGER_RTT_V792h/RTT/SEGGER_RTT.c ****   NumBytesRem = WrOff - RdOff;
 828              		.loc 1 717 3 is_stmt 1 view .LVU273
 829              		.loc 1 717 15 is_stmt 0 view .LVU274
 830 0028 ED1B     		subs	r5, r5, r7
 831              	.LVL89:
 718:../Common/debuglog/SEGGER_RTT_V792h/RTT/SEGGER_RTT.c ****   NumBytesRem = MIN(NumBytesRem, BufferSize);
 832              		.loc 1 718 3 is_stmt 1 view .LVU275
 833              		.loc 1 718 15 is_stmt 0 view .LVU276
 834 002a 4D45     		cmp	r5, r9
 835 002c 28BF     		it	cs
 836 002e 4D46     		movcs	r5, r9
 837              	.LVL90:
 719:../Common/debuglog/SEGGER_RTT_V792h/RTT/SEGGER_RTT.c ****   if (NumBytesRem > 0u) {
 838              		.loc 1 719 3 is_stmt 1 view .LVU277
 839              		.loc 1 719 6 is_stmt 0 view .LVU278
 840 0030 3DBB     		cbnz	r5, .L51
 841              	.LVL91:
 842              	.L44:
 720:../Common/debuglog/SEGGER_RTT_V792h/RTT/SEGGER_RTT.c ****     pSrc = (pRing->pBuffer + RdOff) + SEGGER_RTT_UNCACHED_OFF;
 721:../Common/debuglog/SEGGER_RTT_V792h/RTT/SEGGER_RTT.c **** #if SEGGER_RTT_MEMCPY_USE_BYTELOOP
 722:../Common/debuglog/SEGGER_RTT_V792h/RTT/SEGGER_RTT.c ****     NumBytesRead += NumBytesRem;
 723:../Common/debuglog/SEGGER_RTT_V792h/RTT/SEGGER_RTT.c ****     BufferSize   -= NumBytesRem;
 724:../Common/debuglog/SEGGER_RTT_V792h/RTT/SEGGER_RTT.c ****     RdOff        += NumBytesRem;
 725:../Common/debuglog/SEGGER_RTT_V792h/RTT/SEGGER_RTT.c ****     while (NumBytesRem--) {
 726:../Common/debuglog/SEGGER_RTT_V792h/RTT/SEGGER_RTT.c ****       *pBuffer++ = *pSrc++;
 727:../Common/debuglog/SEGGER_RTT_V792h/RTT/SEGGER_RTT.c ****     };
 728:../Common/debuglog/SEGGER_RTT_V792h/RTT/SEGGER_RTT.c **** #else
 729:../Common/debuglog/SEGGER_RTT_V792h/RTT/SEGGER_RTT.c ****     SEGGER_RTT_MEMCPY(pBuffer, (void*)pSrc, NumBytesRem);
 730:../Common/debuglog/SEGGER_RTT_V792h/RTT/SEGGER_RTT.c ****     NumBytesRead += NumBytesRem;
 731:../Common/debuglog/SEGGER_RTT_V792h/RTT/SEGGER_RTT.c ****     pBuffer      += NumBytesRem;
 732:../Common/debuglog/SEGGER_RTT_V792h/RTT/SEGGER_RTT.c ****     BufferSize   -= NumBytesRem;
 733:../Common/debuglog/SEGGER_RTT_V792h/RTT/SEGGER_RTT.c ****     RdOff        += NumBytesRem;
 734:../Common/debuglog/SEGGER_RTT_V792h/RTT/SEGGER_RTT.c **** #endif
 735:../Common/debuglog/SEGGER_RTT_V792h/RTT/SEGGER_RTT.c ****   }
 736:../Common/debuglog/SEGGER_RTT_V792h/RTT/SEGGER_RTT.c ****   if (NumBytesRead) {
 843              		.loc 1 736 3 is_stmt 1 view .LVU279
 844              		.loc 1 736 6 is_stmt 0 view .LVU280
 845 0032 2EB1     		cbz	r6, .L41
 737:../Common/debuglog/SEGGER_RTT_V792h/RTT/SEGGER_RTT.c ****     pRing->RdOff = RdOff;
 846              		.loc 1 737 5 is_stmt 1 view .LVU281
 847              		.loc 1 737 18 is_stmt 0 view .LVU282
 848 0034 04EB4404 		add	r4, r4, r4, lsl #1
 849              	.LVL92:
 850              		.loc 1 737 18 view .LVU283
ARM GAS  C:\Users\57308\AppData\Local\Temp\cc5NLGGx.s 			page 32


 851 0038 1948     		ldr	r0, .L52
 852 003a 00EBC404 		add	r4, r0, r4, lsl #3
 853 003e 2767     		str	r7, [r4, #112]
 738:../Common/debuglog/SEGGER_RTT_V792h/RTT/SEGGER_RTT.c ****   }
 739:../Common/debuglog/SEGGER_RTT_V792h/RTT/SEGGER_RTT.c ****   //
 740:../Common/debuglog/SEGGER_RTT_V792h/RTT/SEGGER_RTT.c ****   return NumBytesRead;
 854              		.loc 1 740 3 is_stmt 1 view .LVU284
 855              	.L41:
 741:../Common/debuglog/SEGGER_RTT_V792h/RTT/SEGGER_RTT.c **** }
 856              		.loc 1 741 1 is_stmt 0 view .LVU285
 857 0040 3046     		mov	r0, r6
 858 0042 BDE8F087 		pop	{r4, r5, r6, r7, r8, r9, r10, pc}
 859              	.LVL93:
 860              	.L49:
 861              	.LBB5:
 680:../Common/debuglog/SEGGER_RTT_V792h/RTT/SEGGER_RTT.c ****   pRing = (SEGGER_RTT_BUFFER_DOWN*)((uintptr_t)&_SEGGER_RTT.aDown[BufferIndex] + SEGGER_RTT_UNCACHE
 862              		.loc 1 680 3 is_stmt 1 discriminator 1 view .LVU286
 863 0046 FFF7FEFF 		bl	_DoInit
 864              	.LVL94:
 680:../Common/debuglog/SEGGER_RTT_V792h/RTT/SEGGER_RTT.c ****   pRing = (SEGGER_RTT_BUFFER_DOWN*)((uintptr_t)&_SEGGER_RTT.aDown[BufferIndex] + SEGGER_RTT_UNCACHE
 865              		.loc 1 680 3 is_stmt 0 discriminator 1 view .LVU287
 866 004a E3E7     		b	.L42
 867              	.LVL95:
 868              	.L50:
 680:../Common/debuglog/SEGGER_RTT_V792h/RTT/SEGGER_RTT.c ****   pRing = (SEGGER_RTT_BUFFER_DOWN*)((uintptr_t)&_SEGGER_RTT.aDown[BufferIndex] + SEGGER_RTT_UNCACHE
 869              		.loc 1 680 3 discriminator 1 view .LVU288
 870              	.LBE5:
 690:../Common/debuglog/SEGGER_RTT_V792h/RTT/SEGGER_RTT.c ****     NumBytesRem = MIN(NumBytesRem, BufferSize);
 871              		.loc 1 690 5 is_stmt 1 view .LVU289
 690:../Common/debuglog/SEGGER_RTT_V792h/RTT/SEGGER_RTT.c ****     NumBytesRem = MIN(NumBytesRem, BufferSize);
 872              		.loc 1 690 24 is_stmt 0 view .LVU290
 873 004c 04EB440A 		add	r10, r4, r4, lsl #1
 874 0050 02EBCA0A 		add	r10, r2, r10, lsl #3
 875 0054 DAF86860 		ldr	r6, [r10, #104]
 690:../Common/debuglog/SEGGER_RTT_V792h/RTT/SEGGER_RTT.c ****     NumBytesRem = MIN(NumBytesRem, BufferSize);
 876              		.loc 1 690 17 view .LVU291
 877 0058 F61B     		subs	r6, r6, r7
 878              	.LVL96:
 691:../Common/debuglog/SEGGER_RTT_V792h/RTT/SEGGER_RTT.c ****     pSrc = (pRing->pBuffer + RdOff) + SEGGER_RTT_UNCACHED_OFF;
 879              		.loc 1 691 5 is_stmt 1 view .LVU292
 691:../Common/debuglog/SEGGER_RTT_V792h/RTT/SEGGER_RTT.c ****     pSrc = (pRing->pBuffer + RdOff) + SEGGER_RTT_UNCACHED_OFF;
 880              		.loc 1 691 17 is_stmt 0 view .LVU293
 881 005a 4E45     		cmp	r6, r9
 882 005c 28BF     		it	cs
 883 005e 4E46     		movcs	r6, r9
 884              	.LVL97:
 692:../Common/debuglog/SEGGER_RTT_V792h/RTT/SEGGER_RTT.c **** #if SEGGER_RTT_MEMCPY_USE_BYTELOOP
 885              		.loc 1 692 5 is_stmt 1 view .LVU294
 692:../Common/debuglog/SEGGER_RTT_V792h/RTT/SEGGER_RTT.c **** #if SEGGER_RTT_MEMCPY_USE_BYTELOOP
 886              		.loc 1 692 18 is_stmt 0 view .LVU295
 887 0060 DAF86410 		ldr	r1, [r10, #100]
 888              	.LVL98:
 701:../Common/debuglog/SEGGER_RTT_V792h/RTT/SEGGER_RTT.c ****     NumBytesRead += NumBytesRem;
 889              		.loc 1 701 5 is_stmt 1 view .LVU296
 890 0064 3246     		mov	r2, r6
 891 0066 3944     		add	r1, r1, r7
 892              	.LVL99:
ARM GAS  C:\Users\57308\AppData\Local\Temp\cc5NLGGx.s 			page 33


 701:../Common/debuglog/SEGGER_RTT_V792h/RTT/SEGGER_RTT.c ****     NumBytesRead += NumBytesRem;
 893              		.loc 1 701 5 is_stmt 0 view .LVU297
 894 0068 4046     		mov	r0, r8
 895 006a FFF7FEFF 		bl	memcpy
 896              	.LVL100:
 702:../Common/debuglog/SEGGER_RTT_V792h/RTT/SEGGER_RTT.c ****     pBuffer      += NumBytesRem;
 897              		.loc 1 702 5 is_stmt 1 view .LVU298
 703:../Common/debuglog/SEGGER_RTT_V792h/RTT/SEGGER_RTT.c ****     BufferSize   -= NumBytesRem;
 898              		.loc 1 703 5 view .LVU299
 703:../Common/debuglog/SEGGER_RTT_V792h/RTT/SEGGER_RTT.c ****     BufferSize   -= NumBytesRem;
 899              		.loc 1 703 18 is_stmt 0 view .LVU300
 900 006e B044     		add	r8, r8, r6
 901              	.LVL101:
 704:../Common/debuglog/SEGGER_RTT_V792h/RTT/SEGGER_RTT.c ****     RdOff        += NumBytesRem;
 902              		.loc 1 704 5 is_stmt 1 view .LVU301
 704:../Common/debuglog/SEGGER_RTT_V792h/RTT/SEGGER_RTT.c ****     RdOff        += NumBytesRem;
 903              		.loc 1 704 18 is_stmt 0 view .LVU302
 904 0070 A9EB0609 		sub	r9, r9, r6
 905              	.LVL102:
 705:../Common/debuglog/SEGGER_RTT_V792h/RTT/SEGGER_RTT.c **** #endif
 906              		.loc 1 705 5 is_stmt 1 view .LVU303
 705:../Common/debuglog/SEGGER_RTT_V792h/RTT/SEGGER_RTT.c **** #endif
 907              		.loc 1 705 18 is_stmt 0 view .LVU304
 908 0074 3744     		add	r7, r7, r6
 909              	.LVL103:
 710:../Common/debuglog/SEGGER_RTT_V792h/RTT/SEGGER_RTT.c ****       RdOff = 0u;
 910              		.loc 1 710 5 is_stmt 1 view .LVU305
 710:../Common/debuglog/SEGGER_RTT_V792h/RTT/SEGGER_RTT.c ****       RdOff = 0u;
 911              		.loc 1 710 23 is_stmt 0 view .LVU306
 912 0076 DAF86830 		ldr	r3, [r10, #104]
 710:../Common/debuglog/SEGGER_RTT_V792h/RTT/SEGGER_RTT.c ****       RdOff = 0u;
 913              		.loc 1 710 8 view .LVU307
 914 007a BB42     		cmp	r3, r7
 915 007c D4D1     		bne	.L43
 711:../Common/debuglog/SEGGER_RTT_V792h/RTT/SEGGER_RTT.c ****     }
 916              		.loc 1 711 13 view .LVU308
 917 007e 0027     		movs	r7, #0
 918              	.LVL104:
 711:../Common/debuglog/SEGGER_RTT_V792h/RTT/SEGGER_RTT.c ****     }
 919              		.loc 1 711 13 view .LVU309
 920 0080 D2E7     		b	.L43
 921              	.LVL105:
 922              	.L51:
 720:../Common/debuglog/SEGGER_RTT_V792h/RTT/SEGGER_RTT.c **** #if SEGGER_RTT_MEMCPY_USE_BYTELOOP
 923              		.loc 1 720 5 is_stmt 1 view .LVU310
 720:../Common/debuglog/SEGGER_RTT_V792h/RTT/SEGGER_RTT.c **** #if SEGGER_RTT_MEMCPY_USE_BYTELOOP
 924              		.loc 1 720 18 is_stmt 0 view .LVU311
 925 0082 04EB4403 		add	r3, r4, r4, lsl #1
 926 0086 064A     		ldr	r2, .L52
 927 0088 02EBC303 		add	r3, r2, r3, lsl #3
 928 008c 596E     		ldr	r1, [r3, #100]
 929              	.LVL106:
 729:../Common/debuglog/SEGGER_RTT_V792h/RTT/SEGGER_RTT.c ****     NumBytesRead += NumBytesRem;
 930              		.loc 1 729 5 is_stmt 1 view .LVU312
 931 008e 2A46     		mov	r2, r5
 932 0090 3944     		add	r1, r1, r7
 933              	.LVL107:
ARM GAS  C:\Users\57308\AppData\Local\Temp\cc5NLGGx.s 			page 34


 729:../Common/debuglog/SEGGER_RTT_V792h/RTT/SEGGER_RTT.c ****     NumBytesRead += NumBytesRem;
 934              		.loc 1 729 5 is_stmt 0 view .LVU313
 935 0092 4046     		mov	r0, r8
 936 0094 FFF7FEFF 		bl	memcpy
 937              	.LVL108:
 730:../Common/debuglog/SEGGER_RTT_V792h/RTT/SEGGER_RTT.c ****     pBuffer      += NumBytesRem;
 938              		.loc 1 730 5 is_stmt 1 view .LVU314
 730:../Common/debuglog/SEGGER_RTT_V792h/RTT/SEGGER_RTT.c ****     pBuffer      += NumBytesRem;
 939              		.loc 1 730 18 is_stmt 0 view .LVU315
 940 0098 2E44     		add	r6, r6, r5
 941              	.LVL109:
 731:../Common/debuglog/SEGGER_RTT_V792h/RTT/SEGGER_RTT.c ****     BufferSize   -= NumBytesRem;
 942              		.loc 1 731 5 is_stmt 1 view .LVU316
 732:../Common/debuglog/SEGGER_RTT_V792h/RTT/SEGGER_RTT.c ****     RdOff        += NumBytesRem;
 943              		.loc 1 732 5 view .LVU317
 733:../Common/debuglog/SEGGER_RTT_V792h/RTT/SEGGER_RTT.c **** #endif
 944              		.loc 1 733 5 view .LVU318
 733:../Common/debuglog/SEGGER_RTT_V792h/RTT/SEGGER_RTT.c **** #endif
 945              		.loc 1 733 18 is_stmt 0 view .LVU319
 946 009a 2F44     		add	r7, r7, r5
 947              	.LVL110:
 733:../Common/debuglog/SEGGER_RTT_V792h/RTT/SEGGER_RTT.c **** #endif
 948              		.loc 1 733 18 view .LVU320
 949 009c C9E7     		b	.L44
 950              	.L53:
 951 009e 00BF     		.align	2
 952              	.L52:
 953 00a0 00000000 		.word	.LANCHOR1
 954              		.cfi_endproc
 955              	.LFE6:
 957              		.section	.text.SEGGER_RTT_ReadUpBuffer,"ax",%progbits
 958              		.align	1
 959              		.global	SEGGER_RTT_ReadUpBuffer
 960              		.syntax unified
 961              		.thumb
 962              		.thumb_func
 964              	SEGGER_RTT_ReadUpBuffer:
 965              	.LVL111:
 966              	.LFB7:
 742:../Common/debuglog/SEGGER_RTT_V792h/RTT/SEGGER_RTT.c **** 
 743:../Common/debuglog/SEGGER_RTT_V792h/RTT/SEGGER_RTT.c **** /*********************************************************************
 744:../Common/debuglog/SEGGER_RTT_V792h/RTT/SEGGER_RTT.c **** *
 745:../Common/debuglog/SEGGER_RTT_V792h/RTT/SEGGER_RTT.c **** *       SEGGER_RTT_ReadUpBuffer
 746:../Common/debuglog/SEGGER_RTT_V792h/RTT/SEGGER_RTT.c **** *
 747:../Common/debuglog/SEGGER_RTT_V792h/RTT/SEGGER_RTT.c **** *  Function description
 748:../Common/debuglog/SEGGER_RTT_V792h/RTT/SEGGER_RTT.c **** *    Reads characters from SEGGER real-time-terminal control block
 749:../Common/debuglog/SEGGER_RTT_V792h/RTT/SEGGER_RTT.c **** *    which have been previously stored by the application.
 750:../Common/debuglog/SEGGER_RTT_V792h/RTT/SEGGER_RTT.c **** *    Used to do the same operation that J-Link does, to transfer
 751:../Common/debuglog/SEGGER_RTT_V792h/RTT/SEGGER_RTT.c **** *    RTT data via other channels, such as TCP/IP or UART.
 752:../Common/debuglog/SEGGER_RTT_V792h/RTT/SEGGER_RTT.c **** *
 753:../Common/debuglog/SEGGER_RTT_V792h/RTT/SEGGER_RTT.c **** *  Parameters
 754:../Common/debuglog/SEGGER_RTT_V792h/RTT/SEGGER_RTT.c **** *    BufferIndex  Index of Up-buffer to be used.
 755:../Common/debuglog/SEGGER_RTT_V792h/RTT/SEGGER_RTT.c **** *    pBuffer      Pointer to buffer provided by target application, to copy characters from RTT-up-
 756:../Common/debuglog/SEGGER_RTT_V792h/RTT/SEGGER_RTT.c **** *    BufferSize   Size of the target application buffer.
 757:../Common/debuglog/SEGGER_RTT_V792h/RTT/SEGGER_RTT.c **** *
 758:../Common/debuglog/SEGGER_RTT_V792h/RTT/SEGGER_RTT.c **** *  Return value
 759:../Common/debuglog/SEGGER_RTT_V792h/RTT/SEGGER_RTT.c **** *    Number of bytes that have been read.
ARM GAS  C:\Users\57308\AppData\Local\Temp\cc5NLGGx.s 			page 35


 760:../Common/debuglog/SEGGER_RTT_V792h/RTT/SEGGER_RTT.c **** *
 761:../Common/debuglog/SEGGER_RTT_V792h/RTT/SEGGER_RTT.c **** *  Additional information
 762:../Common/debuglog/SEGGER_RTT_V792h/RTT/SEGGER_RTT.c **** *    This function must not be called when J-Link might also do RTT.
 763:../Common/debuglog/SEGGER_RTT_V792h/RTT/SEGGER_RTT.c **** *    This function locks against all other RTT operations. I.e. during
 764:../Common/debuglog/SEGGER_RTT_V792h/RTT/SEGGER_RTT.c **** *    the read operation, writing is also locked.
 765:../Common/debuglog/SEGGER_RTT_V792h/RTT/SEGGER_RTT.c **** *    If only one consumer reads from the up buffer,
 766:../Common/debuglog/SEGGER_RTT_V792h/RTT/SEGGER_RTT.c **** *    call sEGGER_RTT_ReadUpBufferNoLock() instead.
 767:../Common/debuglog/SEGGER_RTT_V792h/RTT/SEGGER_RTT.c **** */
 768:../Common/debuglog/SEGGER_RTT_V792h/RTT/SEGGER_RTT.c **** unsigned SEGGER_RTT_ReadUpBuffer(unsigned BufferIndex, void* pBuffer, unsigned BufferSize) {
 967              		.loc 1 768 92 is_stmt 1 view -0
 968              		.cfi_startproc
 969              		@ args = 0, pretend = 0, frame = 0
 970              		@ frame_needed = 0, uses_anonymous_args = 0
 971              		.loc 1 768 92 is_stmt 0 view .LVU322
 972 0000 10B5     		push	{r4, lr}
 973              	.LCFI8:
 974              		.cfi_def_cfa_offset 8
 975              		.cfi_offset 4, -8
 976              		.cfi_offset 14, -4
 977 0002 0B46     		mov	r3, r1
 769:../Common/debuglog/SEGGER_RTT_V792h/RTT/SEGGER_RTT.c ****   unsigned NumBytesRead;
 978              		.loc 1 769 3 is_stmt 1 view .LVU323
 979              	.LBB6:
 770:../Common/debuglog/SEGGER_RTT_V792h/RTT/SEGGER_RTT.c **** 
 771:../Common/debuglog/SEGGER_RTT_V792h/RTT/SEGGER_RTT.c ****   SEGGER_RTT_LOCK();
 980              		.loc 1 771 3 view .LVU324
 981              		.loc 1 771 3 view .LVU325
 982              		.syntax unified
 983              	@ 771 "../Common/debuglog/SEGGER_RTT_V792h/RTT/SEGGER_RTT.c" 1
 984 0004 EFF31184 		mrs   r4, basepri  
 985 0008 4FF02001 		mov   r1, #32       
 986 000c 81F31188 		msr   basepri, r1  
 987              		
 988              	@ 0 "" 2
 989              	.LVL112:
 990              		.loc 1 771 20 view .LVU326
 772:../Common/debuglog/SEGGER_RTT_V792h/RTT/SEGGER_RTT.c ****   //
 773:../Common/debuglog/SEGGER_RTT_V792h/RTT/SEGGER_RTT.c ****   // Call the non-locking read function
 774:../Common/debuglog/SEGGER_RTT_V792h/RTT/SEGGER_RTT.c ****   //
 775:../Common/debuglog/SEGGER_RTT_V792h/RTT/SEGGER_RTT.c ****   NumBytesRead = SEGGER_RTT_ReadUpBufferNoLock(BufferIndex, pBuffer, BufferSize);
 991              		.loc 1 775 3 view .LVU327
 992              		.loc 1 775 18 is_stmt 0 view .LVU328
 993              		.thumb
 994              		.syntax unified
 995 0010 1946     		mov	r1, r3
 996 0012 FFF7FEFF 		bl	SEGGER_RTT_ReadUpBufferNoLock
 997              	.LVL113:
 776:../Common/debuglog/SEGGER_RTT_V792h/RTT/SEGGER_RTT.c ****   //
 777:../Common/debuglog/SEGGER_RTT_V792h/RTT/SEGGER_RTT.c ****   // Finish up.
 778:../Common/debuglog/SEGGER_RTT_V792h/RTT/SEGGER_RTT.c ****   //
 779:../Common/debuglog/SEGGER_RTT_V792h/RTT/SEGGER_RTT.c ****   SEGGER_RTT_UNLOCK();
 998              		.loc 1 779 3 is_stmt 1 view .LVU329
 999              		.syntax unified
 1000              	@ 779 "../Common/debuglog/SEGGER_RTT_V792h/RTT/SEGGER_RTT.c" 1
 1001 0016 84F31188 		msr   basepri, r4  
 1002              		
 1003              	@ 0 "" 2
ARM GAS  C:\Users\57308\AppData\Local\Temp\cc5NLGGx.s 			page 36


 1004              		.thumb
 1005              		.syntax unified
 1006              	.LBE6:
 1007              		.loc 1 779 22 view .LVU330
 780:../Common/debuglog/SEGGER_RTT_V792h/RTT/SEGGER_RTT.c ****   //
 781:../Common/debuglog/SEGGER_RTT_V792h/RTT/SEGGER_RTT.c ****   return NumBytesRead;
 1008              		.loc 1 781 3 view .LVU331
 782:../Common/debuglog/SEGGER_RTT_V792h/RTT/SEGGER_RTT.c **** }
 1009              		.loc 1 782 1 is_stmt 0 view .LVU332
 1010 001a 10BD     		pop	{r4, pc}
 1011              		.loc 1 782 1 view .LVU333
 1012              		.cfi_endproc
 1013              	.LFE7:
 1015              		.section	.text.SEGGER_RTT_Read,"ax",%progbits
 1016              		.align	1
 1017              		.global	SEGGER_RTT_Read
 1018              		.syntax unified
 1019              		.thumb
 1020              		.thumb_func
 1022              	SEGGER_RTT_Read:
 1023              	.LVL114:
 1024              	.LFB8:
 783:../Common/debuglog/SEGGER_RTT_V792h/RTT/SEGGER_RTT.c **** 
 784:../Common/debuglog/SEGGER_RTT_V792h/RTT/SEGGER_RTT.c **** /*********************************************************************
 785:../Common/debuglog/SEGGER_RTT_V792h/RTT/SEGGER_RTT.c **** *
 786:../Common/debuglog/SEGGER_RTT_V792h/RTT/SEGGER_RTT.c **** *       SEGGER_RTT_Read
 787:../Common/debuglog/SEGGER_RTT_V792h/RTT/SEGGER_RTT.c **** *
 788:../Common/debuglog/SEGGER_RTT_V792h/RTT/SEGGER_RTT.c **** *  Function description
 789:../Common/debuglog/SEGGER_RTT_V792h/RTT/SEGGER_RTT.c **** *    Reads characters from SEGGER real-time-terminal control block
 790:../Common/debuglog/SEGGER_RTT_V792h/RTT/SEGGER_RTT.c **** *    which have been previously stored by the host.
 791:../Common/debuglog/SEGGER_RTT_V792h/RTT/SEGGER_RTT.c **** *
 792:../Common/debuglog/SEGGER_RTT_V792h/RTT/SEGGER_RTT.c **** *  Parameters
 793:../Common/debuglog/SEGGER_RTT_V792h/RTT/SEGGER_RTT.c **** *    BufferIndex  Index of Down-buffer to be used (e.g. 0 for "Terminal").
 794:../Common/debuglog/SEGGER_RTT_V792h/RTT/SEGGER_RTT.c **** *    pBuffer      Pointer to buffer provided by target application, to copy characters from RTT-dow
 795:../Common/debuglog/SEGGER_RTT_V792h/RTT/SEGGER_RTT.c **** *    BufferSize   Size of the target application buffer.
 796:../Common/debuglog/SEGGER_RTT_V792h/RTT/SEGGER_RTT.c **** *
 797:../Common/debuglog/SEGGER_RTT_V792h/RTT/SEGGER_RTT.c **** *  Return value
 798:../Common/debuglog/SEGGER_RTT_V792h/RTT/SEGGER_RTT.c **** *    Number of bytes that have been read.
 799:../Common/debuglog/SEGGER_RTT_V792h/RTT/SEGGER_RTT.c **** */
 800:../Common/debuglog/SEGGER_RTT_V792h/RTT/SEGGER_RTT.c **** unsigned SEGGER_RTT_Read(unsigned BufferIndex, void* pBuffer, unsigned BufferSize) {
 1025              		.loc 1 800 84 is_stmt 1 view -0
 1026              		.cfi_startproc
 1027              		@ args = 0, pretend = 0, frame = 0
 1028              		@ frame_needed = 0, uses_anonymous_args = 0
 1029              		.loc 1 800 84 is_stmt 0 view .LVU335
 1030 0000 10B5     		push	{r4, lr}
 1031              	.LCFI9:
 1032              		.cfi_def_cfa_offset 8
 1033              		.cfi_offset 4, -8
 1034              		.cfi_offset 14, -4
 1035 0002 0B46     		mov	r3, r1
 801:../Common/debuglog/SEGGER_RTT_V792h/RTT/SEGGER_RTT.c ****   unsigned NumBytesRead;
 1036              		.loc 1 801 3 is_stmt 1 view .LVU336
 1037              	.LBB7:
 802:../Common/debuglog/SEGGER_RTT_V792h/RTT/SEGGER_RTT.c **** 
 803:../Common/debuglog/SEGGER_RTT_V792h/RTT/SEGGER_RTT.c ****   SEGGER_RTT_LOCK();
 1038              		.loc 1 803 3 view .LVU337
ARM GAS  C:\Users\57308\AppData\Local\Temp\cc5NLGGx.s 			page 37


 1039              		.loc 1 803 3 view .LVU338
 1040              		.syntax unified
 1041              	@ 803 "../Common/debuglog/SEGGER_RTT_V792h/RTT/SEGGER_RTT.c" 1
 1042 0004 EFF31184 		mrs   r4, basepri  
 1043 0008 4FF02001 		mov   r1, #32       
 1044 000c 81F31188 		msr   basepri, r1  
 1045              		
 1046              	@ 0 "" 2
 1047              	.LVL115:
 1048              		.loc 1 803 20 view .LVU339
 804:../Common/debuglog/SEGGER_RTT_V792h/RTT/SEGGER_RTT.c ****   //
 805:../Common/debuglog/SEGGER_RTT_V792h/RTT/SEGGER_RTT.c ****   // Call the non-locking read function
 806:../Common/debuglog/SEGGER_RTT_V792h/RTT/SEGGER_RTT.c ****   //
 807:../Common/debuglog/SEGGER_RTT_V792h/RTT/SEGGER_RTT.c ****   NumBytesRead = SEGGER_RTT_ReadNoLock(BufferIndex, pBuffer, BufferSize);
 1049              		.loc 1 807 3 view .LVU340
 1050              		.loc 1 807 18 is_stmt 0 view .LVU341
 1051              		.thumb
 1052              		.syntax unified
 1053 0010 1946     		mov	r1, r3
 1054 0012 FFF7FEFF 		bl	SEGGER_RTT_ReadNoLock
 1055              	.LVL116:
 808:../Common/debuglog/SEGGER_RTT_V792h/RTT/SEGGER_RTT.c ****   //
 809:../Common/debuglog/SEGGER_RTT_V792h/RTT/SEGGER_RTT.c ****   // Finish up.
 810:../Common/debuglog/SEGGER_RTT_V792h/RTT/SEGGER_RTT.c ****   //
 811:../Common/debuglog/SEGGER_RTT_V792h/RTT/SEGGER_RTT.c ****   SEGGER_RTT_UNLOCK();
 1056              		.loc 1 811 3 is_stmt 1 view .LVU342
 1057              		.syntax unified
 1058              	@ 811 "../Common/debuglog/SEGGER_RTT_V792h/RTT/SEGGER_RTT.c" 1
 1059 0016 84F31188 		msr   basepri, r4  
 1060              		
 1061              	@ 0 "" 2
 1062              		.thumb
 1063              		.syntax unified
 1064              	.LBE7:
 1065              		.loc 1 811 22 view .LVU343
 812:../Common/debuglog/SEGGER_RTT_V792h/RTT/SEGGER_RTT.c ****   //
 813:../Common/debuglog/SEGGER_RTT_V792h/RTT/SEGGER_RTT.c ****   return NumBytesRead;
 1066              		.loc 1 813 3 view .LVU344
 814:../Common/debuglog/SEGGER_RTT_V792h/RTT/SEGGER_RTT.c **** }
 1067              		.loc 1 814 1 is_stmt 0 view .LVU345
 1068 001a 10BD     		pop	{r4, pc}
 1069              		.loc 1 814 1 view .LVU346
 1070              		.cfi_endproc
 1071              	.LFE8:
 1073              		.section	.text.SEGGER_RTT_WriteWithOverwriteNoLock,"ax",%progbits
 1074              		.align	1
 1075              		.global	SEGGER_RTT_WriteWithOverwriteNoLock
 1076              		.syntax unified
 1077              		.thumb
 1078              		.thumb_func
 1080              	SEGGER_RTT_WriteWithOverwriteNoLock:
 1081              	.LVL117:
 1082              	.LFB9:
 815:../Common/debuglog/SEGGER_RTT_V792h/RTT/SEGGER_RTT.c **** 
 816:../Common/debuglog/SEGGER_RTT_V792h/RTT/SEGGER_RTT.c **** /*********************************************************************
 817:../Common/debuglog/SEGGER_RTT_V792h/RTT/SEGGER_RTT.c **** *
 818:../Common/debuglog/SEGGER_RTT_V792h/RTT/SEGGER_RTT.c **** *       SEGGER_RTT_WriteWithOverwriteNoLock
ARM GAS  C:\Users\57308\AppData\Local\Temp\cc5NLGGx.s 			page 38


 819:../Common/debuglog/SEGGER_RTT_V792h/RTT/SEGGER_RTT.c **** *
 820:../Common/debuglog/SEGGER_RTT_V792h/RTT/SEGGER_RTT.c **** *  Function description
 821:../Common/debuglog/SEGGER_RTT_V792h/RTT/SEGGER_RTT.c **** *    Stores a specified number of characters in SEGGER RTT
 822:../Common/debuglog/SEGGER_RTT_V792h/RTT/SEGGER_RTT.c **** *    control block.
 823:../Common/debuglog/SEGGER_RTT_V792h/RTT/SEGGER_RTT.c **** *    SEGGER_RTT_WriteWithOverwriteNoLock does not lock the application
 824:../Common/debuglog/SEGGER_RTT_V792h/RTT/SEGGER_RTT.c **** *    and overwrites data if the data does not fit into the buffer.
 825:../Common/debuglog/SEGGER_RTT_V792h/RTT/SEGGER_RTT.c **** *
 826:../Common/debuglog/SEGGER_RTT_V792h/RTT/SEGGER_RTT.c **** *  Parameters
 827:../Common/debuglog/SEGGER_RTT_V792h/RTT/SEGGER_RTT.c **** *    BufferIndex  Index of "Up"-buffer to be used (e.g. 0 for "Terminal").
 828:../Common/debuglog/SEGGER_RTT_V792h/RTT/SEGGER_RTT.c **** *    pBuffer      Pointer to character array. Does not need to point to a \0 terminated string.
 829:../Common/debuglog/SEGGER_RTT_V792h/RTT/SEGGER_RTT.c **** *    NumBytes     Number of bytes to be stored in the SEGGER RTT control block.
 830:../Common/debuglog/SEGGER_RTT_V792h/RTT/SEGGER_RTT.c **** *
 831:../Common/debuglog/SEGGER_RTT_V792h/RTT/SEGGER_RTT.c **** *  Notes
 832:../Common/debuglog/SEGGER_RTT_V792h/RTT/SEGGER_RTT.c **** *    (1) If there is not enough space in the "Up"-buffer, data is overwritten.
 833:../Common/debuglog/SEGGER_RTT_V792h/RTT/SEGGER_RTT.c **** *    (2) For performance reasons this function does not call Init()
 834:../Common/debuglog/SEGGER_RTT_V792h/RTT/SEGGER_RTT.c **** *        and may only be called after RTT has been initialized.
 835:../Common/debuglog/SEGGER_RTT_V792h/RTT/SEGGER_RTT.c **** *        Either by calling SEGGER_RTT_Init() or calling another RTT API function first.
 836:../Common/debuglog/SEGGER_RTT_V792h/RTT/SEGGER_RTT.c **** *    (3) Do not use SEGGER_RTT_WriteWithOverwriteNoLock if a J-Link
 837:../Common/debuglog/SEGGER_RTT_V792h/RTT/SEGGER_RTT.c **** *        connection reads RTT data.
 838:../Common/debuglog/SEGGER_RTT_V792h/RTT/SEGGER_RTT.c **** */
 839:../Common/debuglog/SEGGER_RTT_V792h/RTT/SEGGER_RTT.c **** void SEGGER_RTT_WriteWithOverwriteNoLock(unsigned BufferIndex, const void* pBuffer, unsigned NumByt
 1083              		.loc 1 839 104 is_stmt 1 view -0
 1084              		.cfi_startproc
 1085              		@ args = 0, pretend = 0, frame = 0
 1086              		@ frame_needed = 0, uses_anonymous_args = 0
 1087              		.loc 1 839 104 is_stmt 0 view .LVU348
 1088 0000 2DE9F843 		push	{r3, r4, r5, r6, r7, r8, r9, lr}
 1089              	.LCFI10:
 1090              		.cfi_def_cfa_offset 32
 1091              		.cfi_offset 3, -32
 1092              		.cfi_offset 4, -28
 1093              		.cfi_offset 5, -24
 1094              		.cfi_offset 6, -20
 1095              		.cfi_offset 7, -16
 1096              		.cfi_offset 8, -12
 1097              		.cfi_offset 9, -8
 1098              		.cfi_offset 14, -4
 1099 0004 0646     		mov	r6, r0
 1100 0006 8846     		mov	r8, r1
 1101 0008 1746     		mov	r7, r2
 840:../Common/debuglog/SEGGER_RTT_V792h/RTT/SEGGER_RTT.c ****   const char*           pData;
 1102              		.loc 1 840 3 is_stmt 1 view .LVU349
 841:../Common/debuglog/SEGGER_RTT_V792h/RTT/SEGGER_RTT.c ****   SEGGER_RTT_BUFFER_UP* pRing;
 1103              		.loc 1 841 3 view .LVU350
 842:../Common/debuglog/SEGGER_RTT_V792h/RTT/SEGGER_RTT.c ****   unsigned              Avail;
 1104              		.loc 1 842 3 view .LVU351
 843:../Common/debuglog/SEGGER_RTT_V792h/RTT/SEGGER_RTT.c ****   volatile char*        pDst;
 1105              		.loc 1 843 3 view .LVU352
 844:../Common/debuglog/SEGGER_RTT_V792h/RTT/SEGGER_RTT.c ****   //
 845:../Common/debuglog/SEGGER_RTT_V792h/RTT/SEGGER_RTT.c ****   // Get "to-host" ring buffer and copy some elements into local variables.
 846:../Common/debuglog/SEGGER_RTT_V792h/RTT/SEGGER_RTT.c ****   //
 847:../Common/debuglog/SEGGER_RTT_V792h/RTT/SEGGER_RTT.c ****   pData = (const char *)pBuffer;
 1106              		.loc 1 847 3 view .LVU353
 1107              	.LVL118:
 848:../Common/debuglog/SEGGER_RTT_V792h/RTT/SEGGER_RTT.c ****   pRing = (SEGGER_RTT_BUFFER_UP*)((uintptr_t)&_SEGGER_RTT.aUp[BufferIndex] + SEGGER_RTT_UNCACHED_OF
 1108              		.loc 1 848 3 view .LVU354
 849:../Common/debuglog/SEGGER_RTT_V792h/RTT/SEGGER_RTT.c ****   //
ARM GAS  C:\Users\57308\AppData\Local\Temp\cc5NLGGx.s 			page 39


 850:../Common/debuglog/SEGGER_RTT_V792h/RTT/SEGGER_RTT.c ****   // Check if we will overwrite data and need to adjust the RdOff.
 851:../Common/debuglog/SEGGER_RTT_V792h/RTT/SEGGER_RTT.c ****   //
 852:../Common/debuglog/SEGGER_RTT_V792h/RTT/SEGGER_RTT.c ****   if (pRing->WrOff == pRing->RdOff) {
 1109              		.loc 1 852 3 view .LVU355
 1110              		.loc 1 852 12 is_stmt 0 view .LVU356
 1111 000a 00EB4002 		add	r2, r0, r0, lsl #1
 1112              	.LVL119:
 1113              		.loc 1 852 12 view .LVU357
 1114 000e 414B     		ldr	r3, .L71
 1115 0010 03EBC203 		add	r3, r3, r2, lsl #3
 1116 0014 596A     		ldr	r1, [r3, #36]
 1117              	.LVL120:
 1118              		.loc 1 852 28 view .LVU358
 1119 0016 9B6A     		ldr	r3, [r3, #40]
 1120              		.loc 1 852 6 view .LVU359
 1121 0018 9942     		cmp	r1, r3
 1122 001a 0FD0     		beq	.L69
 853:../Common/debuglog/SEGGER_RTT_V792h/RTT/SEGGER_RTT.c ****     Avail = pRing->SizeOfBuffer - 1u;
 854:../Common/debuglog/SEGGER_RTT_V792h/RTT/SEGGER_RTT.c ****   } else if ( pRing->WrOff < pRing->RdOff) {
 1123              		.loc 1 854 10 is_stmt 1 view .LVU360
 1124              		.loc 1 854 35 is_stmt 0 view .LVU361
 1125 001c 00EB4003 		add	r3, r0, r0, lsl #1
 1126 0020 3C4A     		ldr	r2, .L71
 1127 0022 02EBC303 		add	r3, r2, r3, lsl #3
 1128 0026 9B6A     		ldr	r3, [r3, #40]
 1129              		.loc 1 854 13 view .LVU362
 1130 0028 9942     		cmp	r1, r3
 1131 002a 19D2     		bcs	.L61
 855:../Common/debuglog/SEGGER_RTT_V792h/RTT/SEGGER_RTT.c ****     Avail = pRing->RdOff - pRing->WrOff - 1u;
 1132              		.loc 1 855 5 is_stmt 1 view .LVU363
 1133              		.loc 1 855 18 is_stmt 0 view .LVU364
 1134 002c 00EB4003 		add	r3, r0, r0, lsl #1
 1135 0030 02EBC303 		add	r3, r2, r3, lsl #3
 1136 0034 9B6A     		ldr	r3, [r3, #40]
 1137              		.loc 1 855 26 view .LVU365
 1138 0036 5B1A     		subs	r3, r3, r1
 1139              		.loc 1 855 11 view .LVU366
 1140 0038 013B     		subs	r3, r3, #1
 1141              	.LVL121:
 1142              		.loc 1 855 11 view .LVU367
 1143 003a 05E0     		b	.L60
 1144              	.LVL122:
 1145              	.L69:
 853:../Common/debuglog/SEGGER_RTT_V792h/RTT/SEGGER_RTT.c ****     Avail = pRing->SizeOfBuffer - 1u;
 1146              		.loc 1 853 5 is_stmt 1 view .LVU368
 853:../Common/debuglog/SEGGER_RTT_V792h/RTT/SEGGER_RTT.c ****     Avail = pRing->SizeOfBuffer - 1u;
 1147              		.loc 1 853 18 is_stmt 0 view .LVU369
 1148 003c 1346     		mov	r3, r2
 1149 003e 354A     		ldr	r2, .L71
 1150 0040 02EBC303 		add	r3, r2, r3, lsl #3
 1151 0044 1B6A     		ldr	r3, [r3, #32]
 853:../Common/debuglog/SEGGER_RTT_V792h/RTT/SEGGER_RTT.c ****     Avail = pRing->SizeOfBuffer - 1u;
 1152              		.loc 1 853 11 view .LVU370
 1153 0046 013B     		subs	r3, r3, #1
 1154              	.LVL123:
 1155              	.L60:
 856:../Common/debuglog/SEGGER_RTT_V792h/RTT/SEGGER_RTT.c ****   } else {
ARM GAS  C:\Users\57308\AppData\Local\Temp\cc5NLGGx.s 			page 40


 857:../Common/debuglog/SEGGER_RTT_V792h/RTT/SEGGER_RTT.c ****     Avail = pRing->RdOff - pRing->WrOff - 1u + pRing->SizeOfBuffer;
 858:../Common/debuglog/SEGGER_RTT_V792h/RTT/SEGGER_RTT.c ****   }
 859:../Common/debuglog/SEGGER_RTT_V792h/RTT/SEGGER_RTT.c ****   if (NumBytes > Avail) {
 1156              		.loc 1 859 3 is_stmt 1 view .LVU371
 1157              		.loc 1 859 6 is_stmt 0 view .LVU372
 1158 0048 BB42     		cmp	r3, r7
 1159 004a 25D2     		bcs	.L62
 860:../Common/debuglog/SEGGER_RTT_V792h/RTT/SEGGER_RTT.c ****     pRing->RdOff += (NumBytes - Avail);
 1160              		.loc 1 860 5 is_stmt 1 view .LVU373
 1161              		.loc 1 860 18 is_stmt 0 view .LVU374
 1162 004c 06EB4602 		add	r2, r6, r6, lsl #1
 1163 0050 3048     		ldr	r0, .L71
 1164              	.LVL124:
 1165              		.loc 1 860 18 view .LVU375
 1166 0052 00EBC202 		add	r2, r0, r2, lsl #3
 1167 0056 906A     		ldr	r0, [r2, #40]
 1168              		.loc 1 860 31 view .LVU376
 1169 0058 FB1A     		subs	r3, r7, r3
 1170              	.LVL125:
 1171              		.loc 1 860 18 view .LVU377
 1172 005a 0344     		add	r3, r3, r0
 1173 005c 9362     		str	r3, [r2, #40]
 861:../Common/debuglog/SEGGER_RTT_V792h/RTT/SEGGER_RTT.c ****     while (pRing->RdOff >= pRing->SizeOfBuffer) {
 1174              		.loc 1 861 5 is_stmt 1 view .LVU378
 1175              		.loc 1 861 11 is_stmt 0 view .LVU379
 1176 005e 12E0     		b	.L63
 1177              	.LVL126:
 1178              	.L61:
 857:../Common/debuglog/SEGGER_RTT_V792h/RTT/SEGGER_RTT.c ****   }
 1179              		.loc 1 857 5 is_stmt 1 view .LVU380
 857:../Common/debuglog/SEGGER_RTT_V792h/RTT/SEGGER_RTT.c ****   }
 1180              		.loc 1 857 18 is_stmt 0 view .LVU381
 1181 0060 00EB4002 		add	r2, r0, r0, lsl #1
 1182 0064 2B4B     		ldr	r3, .L71
 1183 0066 03EBC202 		add	r2, r3, r2, lsl #3
 1184 006a 936A     		ldr	r3, [r2, #40]
 857:../Common/debuglog/SEGGER_RTT_V792h/RTT/SEGGER_RTT.c ****   }
 1185              		.loc 1 857 26 view .LVU382
 1186 006c 5B1A     		subs	r3, r3, r1
 857:../Common/debuglog/SEGGER_RTT_V792h/RTT/SEGGER_RTT.c ****   }
 1187              		.loc 1 857 53 view .LVU383
 1188 006e 126A     		ldr	r2, [r2, #32]
 857:../Common/debuglog/SEGGER_RTT_V792h/RTT/SEGGER_RTT.c ****   }
 1189              		.loc 1 857 46 view .LVU384
 1190 0070 1344     		add	r3, r3, r2
 857:../Common/debuglog/SEGGER_RTT_V792h/RTT/SEGGER_RTT.c ****   }
 1191              		.loc 1 857 11 view .LVU385
 1192 0072 013B     		subs	r3, r3, #1
 1193              	.LVL127:
 857:../Common/debuglog/SEGGER_RTT_V792h/RTT/SEGGER_RTT.c ****   }
 1194              		.loc 1 857 11 view .LVU386
 1195 0074 E8E7     		b	.L60
 1196              	.LVL128:
 1197              	.L64:
 862:../Common/debuglog/SEGGER_RTT_V792h/RTT/SEGGER_RTT.c ****       pRing->RdOff -= pRing->SizeOfBuffer;
 1198              		.loc 1 862 7 is_stmt 1 view .LVU387
 1199              		.loc 1 862 20 is_stmt 0 view .LVU388
ARM GAS  C:\Users\57308\AppData\Local\Temp\cc5NLGGx.s 			page 41


 1200 0076 06EB4603 		add	r3, r6, r6, lsl #1
 1201 007a 264A     		ldr	r2, .L71
 1202 007c 02EBC303 		add	r3, r2, r3, lsl #3
 1203 0080 9A6A     		ldr	r2, [r3, #40]
 1204 0082 121A     		subs	r2, r2, r0
 1205 0084 9A62     		str	r2, [r3, #40]
 1206              	.L63:
 861:../Common/debuglog/SEGGER_RTT_V792h/RTT/SEGGER_RTT.c ****     while (pRing->RdOff >= pRing->SizeOfBuffer) {
 1207              		.loc 1 861 11 is_stmt 1 view .LVU389
 861:../Common/debuglog/SEGGER_RTT_V792h/RTT/SEGGER_RTT.c ****     while (pRing->RdOff >= pRing->SizeOfBuffer) {
 1208              		.loc 1 861 17 is_stmt 0 view .LVU390
 1209 0086 06EB4603 		add	r3, r6, r6, lsl #1
 1210 008a 224A     		ldr	r2, .L71
 1211 008c 02EBC303 		add	r3, r2, r3, lsl #3
 1212 0090 9A6A     		ldr	r2, [r3, #40]
 861:../Common/debuglog/SEGGER_RTT_V792h/RTT/SEGGER_RTT.c ****     while (pRing->RdOff >= pRing->SizeOfBuffer) {
 1213              		.loc 1 861 33 view .LVU391
 1214 0092 186A     		ldr	r0, [r3, #32]
 861:../Common/debuglog/SEGGER_RTT_V792h/RTT/SEGGER_RTT.c ****     while (pRing->RdOff >= pRing->SizeOfBuffer) {
 1215              		.loc 1 861 11 view .LVU392
 1216 0094 8242     		cmp	r2, r0
 1217 0096 EED2     		bcs	.L64
 1218              	.L62:
 863:../Common/debuglog/SEGGER_RTT_V792h/RTT/SEGGER_RTT.c ****     }
 864:../Common/debuglog/SEGGER_RTT_V792h/RTT/SEGGER_RTT.c ****   }
 865:../Common/debuglog/SEGGER_RTT_V792h/RTT/SEGGER_RTT.c ****   //
 866:../Common/debuglog/SEGGER_RTT_V792h/RTT/SEGGER_RTT.c ****   // Write all data, no need to check the RdOff, but possibly handle multiple wrap-arounds
 867:../Common/debuglog/SEGGER_RTT_V792h/RTT/SEGGER_RTT.c ****   //
 868:../Common/debuglog/SEGGER_RTT_V792h/RTT/SEGGER_RTT.c ****   Avail = pRing->SizeOfBuffer - pRing->WrOff;
 1219              		.loc 1 868 3 is_stmt 1 view .LVU393
 1220              		.loc 1 868 16 is_stmt 0 view .LVU394
 1221 0098 06EB4603 		add	r3, r6, r6, lsl #1
 1222 009c 1D4A     		ldr	r2, .L71
 1223 009e 02EBC303 		add	r3, r2, r3, lsl #3
 1224 00a2 1C6A     		ldr	r4, [r3, #32]
 1225              		.loc 1 868 9 view .LVU395
 1226 00a4 641A     		subs	r4, r4, r1
 1227              	.LVL129:
 1228              	.L67:
 869:../Common/debuglog/SEGGER_RTT_V792h/RTT/SEGGER_RTT.c ****   do {
 1229              		.loc 1 869 3 is_stmt 1 view .LVU396
 870:../Common/debuglog/SEGGER_RTT_V792h/RTT/SEGGER_RTT.c ****     if (Avail > NumBytes) {
 1230              		.loc 1 870 5 view .LVU397
 1231              		.loc 1 870 8 is_stmt 0 view .LVU398
 1232 00a6 A742     		cmp	r7, r4
 1233 00a8 1BD3     		bcc	.L70
 871:../Common/debuglog/SEGGER_RTT_V792h/RTT/SEGGER_RTT.c ****       //
 872:../Common/debuglog/SEGGER_RTT_V792h/RTT/SEGGER_RTT.c ****       // Last round
 873:../Common/debuglog/SEGGER_RTT_V792h/RTT/SEGGER_RTT.c ****       //
 874:../Common/debuglog/SEGGER_RTT_V792h/RTT/SEGGER_RTT.c ****       pDst = (pRing->pBuffer + pRing->WrOff) + SEGGER_RTT_UNCACHED_OFF;
 875:../Common/debuglog/SEGGER_RTT_V792h/RTT/SEGGER_RTT.c **** #if SEGGER_RTT_MEMCPY_USE_BYTELOOP
 876:../Common/debuglog/SEGGER_RTT_V792h/RTT/SEGGER_RTT.c ****       Avail = NumBytes;
 877:../Common/debuglog/SEGGER_RTT_V792h/RTT/SEGGER_RTT.c ****       while (NumBytes--) {
 878:../Common/debuglog/SEGGER_RTT_V792h/RTT/SEGGER_RTT.c ****         *pDst++ = *pData++;
 879:../Common/debuglog/SEGGER_RTT_V792h/RTT/SEGGER_RTT.c ****       };
 880:../Common/debuglog/SEGGER_RTT_V792h/RTT/SEGGER_RTT.c ****       RTT__DMB();                     // Force data write to be complete before writing the <WrOff>
 881:../Common/debuglog/SEGGER_RTT_V792h/RTT/SEGGER_RTT.c ****       pRing->WrOff += Avail;
ARM GAS  C:\Users\57308\AppData\Local\Temp\cc5NLGGx.s 			page 42


 882:../Common/debuglog/SEGGER_RTT_V792h/RTT/SEGGER_RTT.c **** #else
 883:../Common/debuglog/SEGGER_RTT_V792h/RTT/SEGGER_RTT.c ****       SEGGER_RTT_MEMCPY((void*)pDst, pData, NumBytes);
 884:../Common/debuglog/SEGGER_RTT_V792h/RTT/SEGGER_RTT.c ****       RTT__DMB();                     // Force data write to be complete before writing the <WrOff>
 885:../Common/debuglog/SEGGER_RTT_V792h/RTT/SEGGER_RTT.c ****       pRing->WrOff += NumBytes;
 886:../Common/debuglog/SEGGER_RTT_V792h/RTT/SEGGER_RTT.c **** #endif
 887:../Common/debuglog/SEGGER_RTT_V792h/RTT/SEGGER_RTT.c ****       break;
 888:../Common/debuglog/SEGGER_RTT_V792h/RTT/SEGGER_RTT.c ****     } else {
 889:../Common/debuglog/SEGGER_RTT_V792h/RTT/SEGGER_RTT.c ****       //
 890:../Common/debuglog/SEGGER_RTT_V792h/RTT/SEGGER_RTT.c ****       //  Wrap-around necessary, write until wrap-around and reset WrOff
 891:../Common/debuglog/SEGGER_RTT_V792h/RTT/SEGGER_RTT.c ****       //
 892:../Common/debuglog/SEGGER_RTT_V792h/RTT/SEGGER_RTT.c ****       pDst = (pRing->pBuffer + pRing->WrOff) + SEGGER_RTT_UNCACHED_OFF;
 1234              		.loc 1 892 7 is_stmt 1 view .LVU399
 1235              		.loc 1 892 20 is_stmt 0 view .LVU400
 1236 00aa 1A4D     		ldr	r5, .L71
 1237 00ac 731C     		adds	r3, r6, #1
 1238 00ae 03EB4303 		add	r3, r3, r3, lsl #1
 1239 00b2 05EBC303 		add	r3, r5, r3, lsl #3
 1240 00b6 5868     		ldr	r0, [r3, #4]
 1241              		.loc 1 892 37 view .LVU401
 1242 00b8 06EB4603 		add	r3, r6, r6, lsl #1
 1243 00bc 05EBC305 		add	r5, r5, r3, lsl #3
 1244 00c0 6B6A     		ldr	r3, [r5, #36]
 1245              	.LVL130:
 893:../Common/debuglog/SEGGER_RTT_V792h/RTT/SEGGER_RTT.c **** #if SEGGER_RTT_MEMCPY_USE_BYTELOOP
 894:../Common/debuglog/SEGGER_RTT_V792h/RTT/SEGGER_RTT.c ****       NumBytes -= Avail;
 895:../Common/debuglog/SEGGER_RTT_V792h/RTT/SEGGER_RTT.c ****       while (Avail--) {
 896:../Common/debuglog/SEGGER_RTT_V792h/RTT/SEGGER_RTT.c ****         *pDst++ = *pData++;
 897:../Common/debuglog/SEGGER_RTT_V792h/RTT/SEGGER_RTT.c ****       };
 898:../Common/debuglog/SEGGER_RTT_V792h/RTT/SEGGER_RTT.c ****       RTT__DMB();                     // Force data write to be complete before writing the <WrOff>
 899:../Common/debuglog/SEGGER_RTT_V792h/RTT/SEGGER_RTT.c ****       pRing->WrOff = 0;
 900:../Common/debuglog/SEGGER_RTT_V792h/RTT/SEGGER_RTT.c **** #else
 901:../Common/debuglog/SEGGER_RTT_V792h/RTT/SEGGER_RTT.c ****       SEGGER_RTT_MEMCPY((void*)pDst, pData, Avail);
 1246              		.loc 1 901 7 is_stmt 1 view .LVU402
 1247 00c2 2246     		mov	r2, r4
 1248 00c4 4146     		mov	r1, r8
 1249 00c6 1844     		add	r0, r0, r3
 1250              	.LVL131:
 1251              		.loc 1 901 7 is_stmt 0 view .LVU403
 1252 00c8 FFF7FEFF 		bl	memcpy
 1253              	.LVL132:
 902:../Common/debuglog/SEGGER_RTT_V792h/RTT/SEGGER_RTT.c ****       pData += Avail;
 1254              		.loc 1 902 7 is_stmt 1 view .LVU404
 1255              		.loc 1 902 13 is_stmt 0 view .LVU405
 1256 00cc A044     		add	r8, r8, r4
 1257              	.LVL133:
 903:../Common/debuglog/SEGGER_RTT_V792h/RTT/SEGGER_RTT.c ****       RTT__DMB();                     // Force data write to be complete before writing the <WrOff>
 1258              		.loc 1 903 7 is_stmt 1 view .LVU406
 1259              		.syntax unified
 1260              	@ 903 "../Common/debuglog/SEGGER_RTT_V792h/RTT/SEGGER_RTT.c" 1
 1261 00ce BFF35F8F 		dmb
 1262              	
 1263              	@ 0 "" 2
 1264              		.loc 1 903 17 view .LVU407
 904:../Common/debuglog/SEGGER_RTT_V792h/RTT/SEGGER_RTT.c ****       pRing->WrOff = 0;
 1265              		.loc 1 904 7 view .LVU408
 1266              		.loc 1 904 20 is_stmt 0 view .LVU409
 1267              		.thumb
ARM GAS  C:\Users\57308\AppData\Local\Temp\cc5NLGGx.s 			page 43


 1268              		.syntax unified
 1269 00d2 0023     		movs	r3, #0
 1270 00d4 6B62     		str	r3, [r5, #36]
 905:../Common/debuglog/SEGGER_RTT_V792h/RTT/SEGGER_RTT.c ****       NumBytes -= Avail;
 1271              		.loc 1 905 7 is_stmt 1 view .LVU410
 1272              		.loc 1 905 16 is_stmt 0 view .LVU411
 1273 00d6 3F1B     		subs	r7, r7, r4
 1274              	.LVL134:
 906:../Common/debuglog/SEGGER_RTT_V792h/RTT/SEGGER_RTT.c **** #endif
 907:../Common/debuglog/SEGGER_RTT_V792h/RTT/SEGGER_RTT.c ****       Avail = (pRing->SizeOfBuffer - 1);
 1275              		.loc 1 907 7 is_stmt 1 view .LVU412
 1276              		.loc 1 907 21 is_stmt 0 view .LVU413
 1277 00d8 2C6A     		ldr	r4, [r5, #32]
 1278              	.LVL135:
 1279              		.loc 1 907 13 view .LVU414
 1280 00da 013C     		subs	r4, r4, #1
 1281              	.LVL136:
 908:../Common/debuglog/SEGGER_RTT_V792h/RTT/SEGGER_RTT.c ****     }
 909:../Common/debuglog/SEGGER_RTT_V792h/RTT/SEGGER_RTT.c ****   } while (NumBytes);
 1282              		.loc 1 909 11 is_stmt 1 view .LVU415
 1283              		.loc 1 909 3 is_stmt 0 view .LVU416
 1284 00dc 002F     		cmp	r7, #0
 1285 00de E2D1     		bne	.L67
 1286 00e0 15E0     		b	.L58
 1287              	.L70:
 874:../Common/debuglog/SEGGER_RTT_V792h/RTT/SEGGER_RTT.c **** #if SEGGER_RTT_MEMCPY_USE_BYTELOOP
 1288              		.loc 1 874 7 is_stmt 1 view .LVU417
 874:../Common/debuglog/SEGGER_RTT_V792h/RTT/SEGGER_RTT.c **** #if SEGGER_RTT_MEMCPY_USE_BYTELOOP
 1289              		.loc 1 874 20 is_stmt 0 view .LVU418
 1290 00e2 0C4C     		ldr	r4, .L71
 1291              	.LVL137:
 874:../Common/debuglog/SEGGER_RTT_V792h/RTT/SEGGER_RTT.c **** #if SEGGER_RTT_MEMCPY_USE_BYTELOOP
 1292              		.loc 1 874 20 view .LVU419
 1293 00e4 731C     		adds	r3, r6, #1
 1294 00e6 03EB4303 		add	r3, r3, r3, lsl #1
 1295 00ea 04EBC303 		add	r3, r4, r3, lsl #3
 1296 00ee 5868     		ldr	r0, [r3, #4]
 874:../Common/debuglog/SEGGER_RTT_V792h/RTT/SEGGER_RTT.c **** #if SEGGER_RTT_MEMCPY_USE_BYTELOOP
 1297              		.loc 1 874 37 view .LVU420
 1298 00f0 06EB4605 		add	r5, r6, r6, lsl #1
 1299 00f4 04EBC505 		add	r5, r4, r5, lsl #3
 1300 00f8 6B6A     		ldr	r3, [r5, #36]
 1301              	.LVL138:
 883:../Common/debuglog/SEGGER_RTT_V792h/RTT/SEGGER_RTT.c ****       RTT__DMB();                     // Force data write to be complete before writing the <WrOff>
 1302              		.loc 1 883 7 is_stmt 1 view .LVU421
 1303 00fa 3A46     		mov	r2, r7
 1304 00fc 4146     		mov	r1, r8
 1305 00fe 1844     		add	r0, r0, r3
 1306              	.LVL139:
 883:../Common/debuglog/SEGGER_RTT_V792h/RTT/SEGGER_RTT.c ****       RTT__DMB();                     // Force data write to be complete before writing the <WrOff>
 1307              		.loc 1 883 7 is_stmt 0 view .LVU422
 1308 0100 FFF7FEFF 		bl	memcpy
 1309              	.LVL140:
 884:../Common/debuglog/SEGGER_RTT_V792h/RTT/SEGGER_RTT.c ****       pRing->WrOff += NumBytes;
 1310              		.loc 1 884 7 is_stmt 1 view .LVU423
 1311              		.syntax unified
 1312              	@ 884 "../Common/debuglog/SEGGER_RTT_V792h/RTT/SEGGER_RTT.c" 1
ARM GAS  C:\Users\57308\AppData\Local\Temp\cc5NLGGx.s 			page 44


 1313 0104 BFF35F8F 		dmb
 1314              	
 1315              	@ 0 "" 2
 884:../Common/debuglog/SEGGER_RTT_V792h/RTT/SEGGER_RTT.c ****       pRing->WrOff += NumBytes;
 1316              		.loc 1 884 17 view .LVU424
 885:../Common/debuglog/SEGGER_RTT_V792h/RTT/SEGGER_RTT.c **** #endif
 1317              		.loc 1 885 7 view .LVU425
 885:../Common/debuglog/SEGGER_RTT_V792h/RTT/SEGGER_RTT.c **** #endif
 1318              		.loc 1 885 20 is_stmt 0 view .LVU426
 1319              		.thumb
 1320              		.syntax unified
 1321 0108 6B6A     		ldr	r3, [r5, #36]
 1322 010a 1F44     		add	r7, r7, r3
 1323              	.LVL141:
 885:../Common/debuglog/SEGGER_RTT_V792h/RTT/SEGGER_RTT.c **** #endif
 1324              		.loc 1 885 20 view .LVU427
 1325 010c 6F62     		str	r7, [r5, #36]
 887:../Common/debuglog/SEGGER_RTT_V792h/RTT/SEGGER_RTT.c ****     } else {
 1326              		.loc 1 887 7 is_stmt 1 view .LVU428
 1327              	.L58:
 910:../Common/debuglog/SEGGER_RTT_V792h/RTT/SEGGER_RTT.c **** }
 1328              		.loc 1 910 1 is_stmt 0 view .LVU429
 1329 010e BDE8F883 		pop	{r3, r4, r5, r6, r7, r8, r9, pc}
 1330              	.LVL142:
 1331              	.L72:
 1332              		.loc 1 910 1 view .LVU430
 1333 0112 00BF     		.align	2
 1334              	.L71:
 1335 0114 00000000 		.word	.LANCHOR1
 1336              		.cfi_endproc
 1337              	.LFE9:
 1339              		.section	.text.SEGGER_RTT_WriteDownBufferNoLock,"ax",%progbits
 1340              		.align	1
 1341              		.global	SEGGER_RTT_WriteDownBufferNoLock
 1342              		.syntax unified
 1343              		.thumb
 1344              		.thumb_func
 1346              	SEGGER_RTT_WriteDownBufferNoLock:
 1347              	.LVL143:
 1348              	.LFB10:
 911:../Common/debuglog/SEGGER_RTT_V792h/RTT/SEGGER_RTT.c **** 
 912:../Common/debuglog/SEGGER_RTT_V792h/RTT/SEGGER_RTT.c **** /*********************************************************************
 913:../Common/debuglog/SEGGER_RTT_V792h/RTT/SEGGER_RTT.c **** *
 914:../Common/debuglog/SEGGER_RTT_V792h/RTT/SEGGER_RTT.c **** *       SEGGER_RTT_WriteSkipNoLock
 915:../Common/debuglog/SEGGER_RTT_V792h/RTT/SEGGER_RTT.c **** *
 916:../Common/debuglog/SEGGER_RTT_V792h/RTT/SEGGER_RTT.c **** *  Function description
 917:../Common/debuglog/SEGGER_RTT_V792h/RTT/SEGGER_RTT.c **** *    Stores a specified number of characters in SEGGER RTT
 918:../Common/debuglog/SEGGER_RTT_V792h/RTT/SEGGER_RTT.c **** *    control block which is then read by the host.
 919:../Common/debuglog/SEGGER_RTT_V792h/RTT/SEGGER_RTT.c **** *    SEGGER_RTT_WriteSkipNoLock does not lock the application and
 920:../Common/debuglog/SEGGER_RTT_V792h/RTT/SEGGER_RTT.c **** *    skips all data, if the data does not fit into the buffer.
 921:../Common/debuglog/SEGGER_RTT_V792h/RTT/SEGGER_RTT.c **** *
 922:../Common/debuglog/SEGGER_RTT_V792h/RTT/SEGGER_RTT.c **** *  Parameters
 923:../Common/debuglog/SEGGER_RTT_V792h/RTT/SEGGER_RTT.c **** *    BufferIndex  Index of "Up"-buffer to be used (e.g. 0 for "Terminal").
 924:../Common/debuglog/SEGGER_RTT_V792h/RTT/SEGGER_RTT.c **** *    pBuffer      Pointer to character array. Does not need to point to a \0 terminated string.
 925:../Common/debuglog/SEGGER_RTT_V792h/RTT/SEGGER_RTT.c **** *    NumBytes     Number of bytes to be stored in the SEGGER RTT control block.
 926:../Common/debuglog/SEGGER_RTT_V792h/RTT/SEGGER_RTT.c **** *                 MUST be > 0!!!
 927:../Common/debuglog/SEGGER_RTT_V792h/RTT/SEGGER_RTT.c **** *                 This is done for performance reasons, so no initial check has do be done.
ARM GAS  C:\Users\57308\AppData\Local\Temp\cc5NLGGx.s 			page 45


 928:../Common/debuglog/SEGGER_RTT_V792h/RTT/SEGGER_RTT.c **** *
 929:../Common/debuglog/SEGGER_RTT_V792h/RTT/SEGGER_RTT.c **** *  Return value
 930:../Common/debuglog/SEGGER_RTT_V792h/RTT/SEGGER_RTT.c **** *    1: Data has been copied
 931:../Common/debuglog/SEGGER_RTT_V792h/RTT/SEGGER_RTT.c **** *    0: No space, data has not been copied
 932:../Common/debuglog/SEGGER_RTT_V792h/RTT/SEGGER_RTT.c **** *
 933:../Common/debuglog/SEGGER_RTT_V792h/RTT/SEGGER_RTT.c **** *  Notes
 934:../Common/debuglog/SEGGER_RTT_V792h/RTT/SEGGER_RTT.c **** *    (1) If there is not enough space in the "Up"-buffer, all data is dropped.
 935:../Common/debuglog/SEGGER_RTT_V792h/RTT/SEGGER_RTT.c **** *    (2) For performance reasons this function does not call Init()
 936:../Common/debuglog/SEGGER_RTT_V792h/RTT/SEGGER_RTT.c **** *        and may only be called after RTT has been initialized.
 937:../Common/debuglog/SEGGER_RTT_V792h/RTT/SEGGER_RTT.c **** *        Either by calling SEGGER_RTT_Init() or calling another RTT API function first.
 938:../Common/debuglog/SEGGER_RTT_V792h/RTT/SEGGER_RTT.c **** */
 939:../Common/debuglog/SEGGER_RTT_V792h/RTT/SEGGER_RTT.c **** #if (RTT_USE_ASM == 0)
 940:../Common/debuglog/SEGGER_RTT_V792h/RTT/SEGGER_RTT.c **** unsigned SEGGER_RTT_WriteSkipNoLock(unsigned BufferIndex, const void* pBuffer, unsigned NumBytes) {
 941:../Common/debuglog/SEGGER_RTT_V792h/RTT/SEGGER_RTT.c ****   const char*           pData;
 942:../Common/debuglog/SEGGER_RTT_V792h/RTT/SEGGER_RTT.c ****   SEGGER_RTT_BUFFER_UP* pRing;
 943:../Common/debuglog/SEGGER_RTT_V792h/RTT/SEGGER_RTT.c ****   unsigned              Avail;
 944:../Common/debuglog/SEGGER_RTT_V792h/RTT/SEGGER_RTT.c ****   unsigned              RdOff;
 945:../Common/debuglog/SEGGER_RTT_V792h/RTT/SEGGER_RTT.c ****   unsigned              WrOff;
 946:../Common/debuglog/SEGGER_RTT_V792h/RTT/SEGGER_RTT.c ****   unsigned              Rem;
 947:../Common/debuglog/SEGGER_RTT_V792h/RTT/SEGGER_RTT.c ****   volatile char*        pDst;
 948:../Common/debuglog/SEGGER_RTT_V792h/RTT/SEGGER_RTT.c ****   //
 949:../Common/debuglog/SEGGER_RTT_V792h/RTT/SEGGER_RTT.c ****   // Cases:
 950:../Common/debuglog/SEGGER_RTT_V792h/RTT/SEGGER_RTT.c ****   //   1) RdOff <= WrOff => Space until wrap-around is sufficient
 951:../Common/debuglog/SEGGER_RTT_V792h/RTT/SEGGER_RTT.c ****   //   2) RdOff <= WrOff => Space after wrap-around needed (copy in 2 chunks)
 952:../Common/debuglog/SEGGER_RTT_V792h/RTT/SEGGER_RTT.c ****   //   3) RdOff <  WrOff => No space in buf
 953:../Common/debuglog/SEGGER_RTT_V792h/RTT/SEGGER_RTT.c ****   //   4) RdOff >  WrOff => Space is sufficient
 954:../Common/debuglog/SEGGER_RTT_V792h/RTT/SEGGER_RTT.c ****   //   5) RdOff >  WrOff => No space in buf
 955:../Common/debuglog/SEGGER_RTT_V792h/RTT/SEGGER_RTT.c ****   //
 956:../Common/debuglog/SEGGER_RTT_V792h/RTT/SEGGER_RTT.c ****   // 1) is the most common case for large buffers and assuming that J-Link reads the data fast enou
 957:../Common/debuglog/SEGGER_RTT_V792h/RTT/SEGGER_RTT.c ****   //
 958:../Common/debuglog/SEGGER_RTT_V792h/RTT/SEGGER_RTT.c ****   pData = (const char *)pBuffer;
 959:../Common/debuglog/SEGGER_RTT_V792h/RTT/SEGGER_RTT.c ****   pRing = (SEGGER_RTT_BUFFER_UP*)((uintptr_t)&_SEGGER_RTT.aUp[BufferIndex] + SEGGER_RTT_UNCACHED_OF
 960:../Common/debuglog/SEGGER_RTT_V792h/RTT/SEGGER_RTT.c ****   RdOff = pRing->RdOff;
 961:../Common/debuglog/SEGGER_RTT_V792h/RTT/SEGGER_RTT.c ****   WrOff = pRing->WrOff;
 962:../Common/debuglog/SEGGER_RTT_V792h/RTT/SEGGER_RTT.c ****   pDst = (pRing->pBuffer + WrOff) + SEGGER_RTT_UNCACHED_OFF;
 963:../Common/debuglog/SEGGER_RTT_V792h/RTT/SEGGER_RTT.c ****   if (RdOff <= WrOff) {                                 // Case 1), 2) or 3)
 964:../Common/debuglog/SEGGER_RTT_V792h/RTT/SEGGER_RTT.c ****     Avail = pRing->SizeOfBuffer - WrOff - 1u;           // Space until wrap-around (assume 1 byte n
 965:../Common/debuglog/SEGGER_RTT_V792h/RTT/SEGGER_RTT.c ****     if (Avail >= NumBytes) {                            // Case 1)?
 966:../Common/debuglog/SEGGER_RTT_V792h/RTT/SEGGER_RTT.c ****       memcpy((void*)pDst, pData, NumBytes);
 967:../Common/debuglog/SEGGER_RTT_V792h/RTT/SEGGER_RTT.c ****       RTT__DMB();                     // Force data write to be complete before writing the <WrOff>
 968:../Common/debuglog/SEGGER_RTT_V792h/RTT/SEGGER_RTT.c ****       pRing->WrOff = WrOff + NumBytes;
 969:../Common/debuglog/SEGGER_RTT_V792h/RTT/SEGGER_RTT.c ****       return 1;
 970:../Common/debuglog/SEGGER_RTT_V792h/RTT/SEGGER_RTT.c ****     }
 971:../Common/debuglog/SEGGER_RTT_V792h/RTT/SEGGER_RTT.c ****     Avail += RdOff;                                     // Space incl. wrap-around
 972:../Common/debuglog/SEGGER_RTT_V792h/RTT/SEGGER_RTT.c ****     if (Avail >= NumBytes) {                            // Case 2? => If not, we have case 3) (does
 973:../Common/debuglog/SEGGER_RTT_V792h/RTT/SEGGER_RTT.c ****       Rem = pRing->SizeOfBuffer - WrOff;                // Space until end of buffer
 974:../Common/debuglog/SEGGER_RTT_V792h/RTT/SEGGER_RTT.c ****       memcpy((void*)pDst, pData, Rem);                  // Copy 1st chunk
 975:../Common/debuglog/SEGGER_RTT_V792h/RTT/SEGGER_RTT.c ****       NumBytes -= Rem;
 976:../Common/debuglog/SEGGER_RTT_V792h/RTT/SEGGER_RTT.c ****       //
 977:../Common/debuglog/SEGGER_RTT_V792h/RTT/SEGGER_RTT.c ****       // Special case: First check that assumed RdOff == 0 calculated that last element before wrap
 978:../Common/debuglog/SEGGER_RTT_V792h/RTT/SEGGER_RTT.c ****       // But 2nd check (considering space until wrap-around and until RdOff) revealed that RdOff is
 979:../Common/debuglog/SEGGER_RTT_V792h/RTT/SEGGER_RTT.c ****       // In this case, we may use a copy straight until buffer end anyway without needing to copy 2
 980:../Common/debuglog/SEGGER_RTT_V792h/RTT/SEGGER_RTT.c ****       // Therefore, check if 2nd memcpy is necessary at all
 981:../Common/debuglog/SEGGER_RTT_V792h/RTT/SEGGER_RTT.c ****       //
 982:../Common/debuglog/SEGGER_RTT_V792h/RTT/SEGGER_RTT.c ****       if (NumBytes) {
 983:../Common/debuglog/SEGGER_RTT_V792h/RTT/SEGGER_RTT.c ****         pDst = pRing->pBuffer + SEGGER_RTT_UNCACHED_OFF;
 984:../Common/debuglog/SEGGER_RTT_V792h/RTT/SEGGER_RTT.c ****         memcpy((void*)pDst, pData + Rem, NumBytes);
ARM GAS  C:\Users\57308\AppData\Local\Temp\cc5NLGGx.s 			page 46


 985:../Common/debuglog/SEGGER_RTT_V792h/RTT/SEGGER_RTT.c ****       }
 986:../Common/debuglog/SEGGER_RTT_V792h/RTT/SEGGER_RTT.c ****       RTT__DMB();                     // Force data write to be complete before writing the <WrOff>
 987:../Common/debuglog/SEGGER_RTT_V792h/RTT/SEGGER_RTT.c ****       pRing->WrOff = NumBytes;
 988:../Common/debuglog/SEGGER_RTT_V792h/RTT/SEGGER_RTT.c ****       return 1;
 989:../Common/debuglog/SEGGER_RTT_V792h/RTT/SEGGER_RTT.c ****     }
 990:../Common/debuglog/SEGGER_RTT_V792h/RTT/SEGGER_RTT.c ****   } else {                                             // Potential case 4)
 991:../Common/debuglog/SEGGER_RTT_V792h/RTT/SEGGER_RTT.c ****     Avail = RdOff - WrOff - 1u;
 992:../Common/debuglog/SEGGER_RTT_V792h/RTT/SEGGER_RTT.c ****     if (Avail >= NumBytes) {                           // Case 4)? => If not, we have case 5) (does
 993:../Common/debuglog/SEGGER_RTT_V792h/RTT/SEGGER_RTT.c ****       memcpy((void*)pDst, pData, NumBytes);
 994:../Common/debuglog/SEGGER_RTT_V792h/RTT/SEGGER_RTT.c ****       RTT__DMB();                     // Force data write to be complete before writing the <WrOff>
 995:../Common/debuglog/SEGGER_RTT_V792h/RTT/SEGGER_RTT.c ****       pRing->WrOff = WrOff + NumBytes;
 996:../Common/debuglog/SEGGER_RTT_V792h/RTT/SEGGER_RTT.c ****       return 1;
 997:../Common/debuglog/SEGGER_RTT_V792h/RTT/SEGGER_RTT.c ****     }
 998:../Common/debuglog/SEGGER_RTT_V792h/RTT/SEGGER_RTT.c ****   }
 999:../Common/debuglog/SEGGER_RTT_V792h/RTT/SEGGER_RTT.c ****   return 0;     // No space in buffer
1000:../Common/debuglog/SEGGER_RTT_V792h/RTT/SEGGER_RTT.c **** }
1001:../Common/debuglog/SEGGER_RTT_V792h/RTT/SEGGER_RTT.c **** #endif
1002:../Common/debuglog/SEGGER_RTT_V792h/RTT/SEGGER_RTT.c **** 
1003:../Common/debuglog/SEGGER_RTT_V792h/RTT/SEGGER_RTT.c **** /*********************************************************************
1004:../Common/debuglog/SEGGER_RTT_V792h/RTT/SEGGER_RTT.c **** *
1005:../Common/debuglog/SEGGER_RTT_V792h/RTT/SEGGER_RTT.c **** *       SEGGER_RTT_WriteDownBufferNoLock
1006:../Common/debuglog/SEGGER_RTT_V792h/RTT/SEGGER_RTT.c **** *
1007:../Common/debuglog/SEGGER_RTT_V792h/RTT/SEGGER_RTT.c **** *  Function description
1008:../Common/debuglog/SEGGER_RTT_V792h/RTT/SEGGER_RTT.c **** *    Stores a specified number of characters in SEGGER RTT
1009:../Common/debuglog/SEGGER_RTT_V792h/RTT/SEGGER_RTT.c **** *    control block inside a <Down> buffer.
1010:../Common/debuglog/SEGGER_RTT_V792h/RTT/SEGGER_RTT.c **** *    SEGGER_RTT_WriteDownBufferNoLock does not lock the application.
1011:../Common/debuglog/SEGGER_RTT_V792h/RTT/SEGGER_RTT.c **** *    Used to do the same operation that J-Link does, to transfer
1012:../Common/debuglog/SEGGER_RTT_V792h/RTT/SEGGER_RTT.c **** *    RTT data from other channels, such as TCP/IP or UART.
1013:../Common/debuglog/SEGGER_RTT_V792h/RTT/SEGGER_RTT.c **** *
1014:../Common/debuglog/SEGGER_RTT_V792h/RTT/SEGGER_RTT.c **** *  Parameters
1015:../Common/debuglog/SEGGER_RTT_V792h/RTT/SEGGER_RTT.c **** *    BufferIndex  Index of "Down"-buffer to be used.
1016:../Common/debuglog/SEGGER_RTT_V792h/RTT/SEGGER_RTT.c **** *    pBuffer      Pointer to character array. Does not need to point to a \0 terminated string.
1017:../Common/debuglog/SEGGER_RTT_V792h/RTT/SEGGER_RTT.c **** *    NumBytes     Number of bytes to be stored in the SEGGER RTT control block.
1018:../Common/debuglog/SEGGER_RTT_V792h/RTT/SEGGER_RTT.c **** *
1019:../Common/debuglog/SEGGER_RTT_V792h/RTT/SEGGER_RTT.c **** *  Return value
1020:../Common/debuglog/SEGGER_RTT_V792h/RTT/SEGGER_RTT.c **** *    Number of bytes which have been stored in the "Down"-buffer.
1021:../Common/debuglog/SEGGER_RTT_V792h/RTT/SEGGER_RTT.c **** *
1022:../Common/debuglog/SEGGER_RTT_V792h/RTT/SEGGER_RTT.c **** *  Notes
1023:../Common/debuglog/SEGGER_RTT_V792h/RTT/SEGGER_RTT.c **** *    (1) Data is stored according to buffer flags.
1024:../Common/debuglog/SEGGER_RTT_V792h/RTT/SEGGER_RTT.c **** *    (2) For performance reasons this function does not call Init()
1025:../Common/debuglog/SEGGER_RTT_V792h/RTT/SEGGER_RTT.c **** *        and may only be called after RTT has been initialized.
1026:../Common/debuglog/SEGGER_RTT_V792h/RTT/SEGGER_RTT.c **** *        Either by calling SEGGER_RTT_Init() or calling another RTT API function first.
1027:../Common/debuglog/SEGGER_RTT_V792h/RTT/SEGGER_RTT.c **** *
1028:../Common/debuglog/SEGGER_RTT_V792h/RTT/SEGGER_RTT.c **** *  Additional information
1029:../Common/debuglog/SEGGER_RTT_V792h/RTT/SEGGER_RTT.c **** *    This function must not be called when J-Link might also do RTT.
1030:../Common/debuglog/SEGGER_RTT_V792h/RTT/SEGGER_RTT.c **** */
1031:../Common/debuglog/SEGGER_RTT_V792h/RTT/SEGGER_RTT.c **** unsigned SEGGER_RTT_WriteDownBufferNoLock(unsigned BufferIndex, const void* pBuffer, unsigned NumBy
 1349              		.loc 1 1031 105 is_stmt 1 view -0
 1350              		.cfi_startproc
 1351              		@ args = 0, pretend = 0, frame = 0
 1352              		@ frame_needed = 0, uses_anonymous_args = 0
 1353              		.loc 1 1031 105 is_stmt 0 view .LVU432
 1354 0000 F8B5     		push	{r3, r4, r5, r6, r7, lr}
 1355              	.LCFI11:
 1356              		.cfi_def_cfa_offset 24
 1357              		.cfi_offset 3, -24
 1358              		.cfi_offset 4, -20
ARM GAS  C:\Users\57308\AppData\Local\Temp\cc5NLGGx.s 			page 47


 1359              		.cfi_offset 5, -16
 1360              		.cfi_offset 6, -12
 1361              		.cfi_offset 7, -8
 1362              		.cfi_offset 14, -4
 1363 0002 0E46     		mov	r6, r1
 1364 0004 1546     		mov	r5, r2
1032:../Common/debuglog/SEGGER_RTT_V792h/RTT/SEGGER_RTT.c ****   unsigned                Status;
 1365              		.loc 1 1032 3 is_stmt 1 view .LVU433
1033:../Common/debuglog/SEGGER_RTT_V792h/RTT/SEGGER_RTT.c ****   unsigned                Avail;
 1366              		.loc 1 1033 3 view .LVU434
1034:../Common/debuglog/SEGGER_RTT_V792h/RTT/SEGGER_RTT.c ****   const char*             pData;
 1367              		.loc 1 1034 3 view .LVU435
1035:../Common/debuglog/SEGGER_RTT_V792h/RTT/SEGGER_RTT.c ****   SEGGER_RTT_BUFFER_UP*   pRing;
 1368              		.loc 1 1035 3 view .LVU436
1036:../Common/debuglog/SEGGER_RTT_V792h/RTT/SEGGER_RTT.c ****   //
1037:../Common/debuglog/SEGGER_RTT_V792h/RTT/SEGGER_RTT.c ****   // Get "to-target" ring buffer.
1038:../Common/debuglog/SEGGER_RTT_V792h/RTT/SEGGER_RTT.c ****   // It is save to cast that to a "to-host" buffer. Up and Down buffer differ in volatility of offs
1039:../Common/debuglog/SEGGER_RTT_V792h/RTT/SEGGER_RTT.c ****   //
1040:../Common/debuglog/SEGGER_RTT_V792h/RTT/SEGGER_RTT.c ****   pData = (const char *)pBuffer;
 1369              		.loc 1 1040 3 view .LVU437
 1370              	.LVL144:
1041:../Common/debuglog/SEGGER_RTT_V792h/RTT/SEGGER_RTT.c ****   pRing = (SEGGER_RTT_BUFFER_UP*)((uintptr_t)&_SEGGER_RTT.aDown[BufferIndex] + SEGGER_RTT_UNCACHED_
 1371              		.loc 1 1041 3 view .LVU438
 1372              		.loc 1 1041 9 is_stmt 0 view .LVU439
 1373 0006 00EB4000 		add	r0, r0, r0, lsl #1
 1374              	.LVL145:
 1375              		.loc 1 1041 9 view .LVU440
 1376 000a C000     		lsls	r0, r0, #3
 1377 000c 6030     		adds	r0, r0, #96
 1378 000e 144F     		ldr	r7, .L80
 1379 0010 0744     		add	r7, r7, r0
 1380              	.LVL146:
1042:../Common/debuglog/SEGGER_RTT_V792h/RTT/SEGGER_RTT.c ****   //
1043:../Common/debuglog/SEGGER_RTT_V792h/RTT/SEGGER_RTT.c ****   // How we output depends upon the mode...
1044:../Common/debuglog/SEGGER_RTT_V792h/RTT/SEGGER_RTT.c ****   //
1045:../Common/debuglog/SEGGER_RTT_V792h/RTT/SEGGER_RTT.c ****   switch (pRing->Flags) {
 1381              		.loc 1 1045 3 is_stmt 1 view .LVU441
 1382              		.loc 1 1045 16 is_stmt 0 view .LVU442
 1383 0012 7C69     		ldr	r4, [r7, #20]
 1384              		.loc 1 1045 3 view .LVU443
 1385 0014 012C     		cmp	r4, #1
 1386 0016 11D0     		beq	.L74
 1387 0018 022C     		cmp	r4, #2
 1388 001a 1CD0     		beq	.L75
 1389 001c 14B1     		cbz	r4, .L79
 1390 001e 0024     		movs	r4, #0
 1391              	.LVL147:
1046:../Common/debuglog/SEGGER_RTT_V792h/RTT/SEGGER_RTT.c ****   case SEGGER_RTT_MODE_NO_BLOCK_SKIP:
1047:../Common/debuglog/SEGGER_RTT_V792h/RTT/SEGGER_RTT.c ****     //
1048:../Common/debuglog/SEGGER_RTT_V792h/RTT/SEGGER_RTT.c ****     // If we are in skip mode and there is no space for the whole
1049:../Common/debuglog/SEGGER_RTT_V792h/RTT/SEGGER_RTT.c ****     // of this output, don't bother.
1050:../Common/debuglog/SEGGER_RTT_V792h/RTT/SEGGER_RTT.c ****     //
1051:../Common/debuglog/SEGGER_RTT_V792h/RTT/SEGGER_RTT.c ****     Avail = _GetAvailWriteSpace(pRing);
1052:../Common/debuglog/SEGGER_RTT_V792h/RTT/SEGGER_RTT.c ****     if (Avail < NumBytes) {
1053:../Common/debuglog/SEGGER_RTT_V792h/RTT/SEGGER_RTT.c ****       Status = 0u;
1054:../Common/debuglog/SEGGER_RTT_V792h/RTT/SEGGER_RTT.c ****     } else {
1055:../Common/debuglog/SEGGER_RTT_V792h/RTT/SEGGER_RTT.c ****       Status = NumBytes;
ARM GAS  C:\Users\57308\AppData\Local\Temp\cc5NLGGx.s 			page 48


1056:../Common/debuglog/SEGGER_RTT_V792h/RTT/SEGGER_RTT.c ****       _WriteNoCheck(pRing, pData, NumBytes);
1057:../Common/debuglog/SEGGER_RTT_V792h/RTT/SEGGER_RTT.c ****     }
1058:../Common/debuglog/SEGGER_RTT_V792h/RTT/SEGGER_RTT.c ****     break;
1059:../Common/debuglog/SEGGER_RTT_V792h/RTT/SEGGER_RTT.c ****   case SEGGER_RTT_MODE_NO_BLOCK_TRIM:
1060:../Common/debuglog/SEGGER_RTT_V792h/RTT/SEGGER_RTT.c ****     //
1061:../Common/debuglog/SEGGER_RTT_V792h/RTT/SEGGER_RTT.c ****     // If we are in trim mode, trim to what we can output without blocking.
1062:../Common/debuglog/SEGGER_RTT_V792h/RTT/SEGGER_RTT.c ****     //
1063:../Common/debuglog/SEGGER_RTT_V792h/RTT/SEGGER_RTT.c ****     Avail = _GetAvailWriteSpace(pRing);
1064:../Common/debuglog/SEGGER_RTT_V792h/RTT/SEGGER_RTT.c ****     Status = Avail < NumBytes ? Avail : NumBytes;
1065:../Common/debuglog/SEGGER_RTT_V792h/RTT/SEGGER_RTT.c ****     _WriteNoCheck(pRing, pData, Status);
1066:../Common/debuglog/SEGGER_RTT_V792h/RTT/SEGGER_RTT.c ****     break;
1067:../Common/debuglog/SEGGER_RTT_V792h/RTT/SEGGER_RTT.c ****   case SEGGER_RTT_MODE_BLOCK_IF_FIFO_FULL:
1068:../Common/debuglog/SEGGER_RTT_V792h/RTT/SEGGER_RTT.c ****     //
1069:../Common/debuglog/SEGGER_RTT_V792h/RTT/SEGGER_RTT.c ****     // If we are in blocking mode, output everything.
1070:../Common/debuglog/SEGGER_RTT_V792h/RTT/SEGGER_RTT.c ****     //
1071:../Common/debuglog/SEGGER_RTT_V792h/RTT/SEGGER_RTT.c ****     Status = _WriteBlocking(pRing, pData, NumBytes);
1072:../Common/debuglog/SEGGER_RTT_V792h/RTT/SEGGER_RTT.c ****     break;
1073:../Common/debuglog/SEGGER_RTT_V792h/RTT/SEGGER_RTT.c ****   default:
1074:../Common/debuglog/SEGGER_RTT_V792h/RTT/SEGGER_RTT.c ****     Status = 0u;
1075:../Common/debuglog/SEGGER_RTT_V792h/RTT/SEGGER_RTT.c ****     break;
1076:../Common/debuglog/SEGGER_RTT_V792h/RTT/SEGGER_RTT.c ****   }
1077:../Common/debuglog/SEGGER_RTT_V792h/RTT/SEGGER_RTT.c ****   //
1078:../Common/debuglog/SEGGER_RTT_V792h/RTT/SEGGER_RTT.c ****   // Finish up.
1079:../Common/debuglog/SEGGER_RTT_V792h/RTT/SEGGER_RTT.c ****   //
1080:../Common/debuglog/SEGGER_RTT_V792h/RTT/SEGGER_RTT.c ****   return Status;
 1392              		.loc 1 1080 3 is_stmt 1 view .LVU444
 1393              	.L73:
1081:../Common/debuglog/SEGGER_RTT_V792h/RTT/SEGGER_RTT.c **** }
 1394              		.loc 1 1081 1 is_stmt 0 view .LVU445
 1395 0020 2046     		mov	r0, r4
 1396 0022 F8BD     		pop	{r3, r4, r5, r6, r7, pc}
 1397              	.LVL148:
 1398              	.L79:
1051:../Common/debuglog/SEGGER_RTT_V792h/RTT/SEGGER_RTT.c ****     if (Avail < NumBytes) {
 1399              		.loc 1 1051 5 is_stmt 1 view .LVU446
1051:../Common/debuglog/SEGGER_RTT_V792h/RTT/SEGGER_RTT.c ****     if (Avail < NumBytes) {
 1400              		.loc 1 1051 13 is_stmt 0 view .LVU447
 1401 0024 3846     		mov	r0, r7
 1402 0026 FFF7FEFF 		bl	_GetAvailWriteSpace
 1403              	.LVL149:
1052:../Common/debuglog/SEGGER_RTT_V792h/RTT/SEGGER_RTT.c ****       Status = 0u;
 1404              		.loc 1 1052 5 is_stmt 1 view .LVU448
1052:../Common/debuglog/SEGGER_RTT_V792h/RTT/SEGGER_RTT.c ****       Status = 0u;
 1405              		.loc 1 1052 8 is_stmt 0 view .LVU449
 1406 002a 8542     		cmp	r5, r0
 1407 002c F8D8     		bhi	.L73
1055:../Common/debuglog/SEGGER_RTT_V792h/RTT/SEGGER_RTT.c ****       _WriteNoCheck(pRing, pData, NumBytes);
 1408              		.loc 1 1055 7 is_stmt 1 view .LVU450
 1409              	.LVL150:
1056:../Common/debuglog/SEGGER_RTT_V792h/RTT/SEGGER_RTT.c ****     }
 1410              		.loc 1 1056 7 view .LVU451
 1411 002e 2A46     		mov	r2, r5
 1412 0030 3146     		mov	r1, r6
 1413 0032 3846     		mov	r0, r7
 1414              	.LVL151:
1056:../Common/debuglog/SEGGER_RTT_V792h/RTT/SEGGER_RTT.c ****     }
 1415              		.loc 1 1056 7 is_stmt 0 view .LVU452
ARM GAS  C:\Users\57308\AppData\Local\Temp\cc5NLGGx.s 			page 49


 1416 0034 FFF7FEFF 		bl	_WriteNoCheck
 1417              	.LVL152:
1055:../Common/debuglog/SEGGER_RTT_V792h/RTT/SEGGER_RTT.c ****       _WriteNoCheck(pRing, pData, NumBytes);
 1418              		.loc 1 1055 14 view .LVU453
 1419 0038 2C46     		mov	r4, r5
 1420 003a F1E7     		b	.L73
 1421              	.LVL153:
 1422              	.L74:
1063:../Common/debuglog/SEGGER_RTT_V792h/RTT/SEGGER_RTT.c ****     Status = Avail < NumBytes ? Avail : NumBytes;
 1423              		.loc 1 1063 5 is_stmt 1 view .LVU454
1063:../Common/debuglog/SEGGER_RTT_V792h/RTT/SEGGER_RTT.c ****     Status = Avail < NumBytes ? Avail : NumBytes;
 1424              		.loc 1 1063 13 is_stmt 0 view .LVU455
 1425 003c 3846     		mov	r0, r7
 1426 003e FFF7FEFF 		bl	_GetAvailWriteSpace
 1427              	.LVL154:
1064:../Common/debuglog/SEGGER_RTT_V792h/RTT/SEGGER_RTT.c ****     _WriteNoCheck(pRing, pData, Status);
 1428              		.loc 1 1064 5 is_stmt 1 view .LVU456
1064:../Common/debuglog/SEGGER_RTT_V792h/RTT/SEGGER_RTT.c ****     _WriteNoCheck(pRing, pData, Status);
 1429              		.loc 1 1064 12 is_stmt 0 view .LVU457
 1430 0042 2C46     		mov	r4, r5
 1431 0044 8542     		cmp	r5, r0
 1432 0046 28BF     		it	cs
 1433 0048 0446     		movcs	r4, r0
 1434              	.LVL155:
1065:../Common/debuglog/SEGGER_RTT_V792h/RTT/SEGGER_RTT.c ****     break;
 1435              		.loc 1 1065 5 is_stmt 1 view .LVU458
 1436 004a 2246     		mov	r2, r4
 1437 004c 3146     		mov	r1, r6
 1438 004e 3846     		mov	r0, r7
 1439              	.LVL156:
1065:../Common/debuglog/SEGGER_RTT_V792h/RTT/SEGGER_RTT.c ****     break;
 1440              		.loc 1 1065 5 is_stmt 0 view .LVU459
 1441 0050 FFF7FEFF 		bl	_WriteNoCheck
 1442              	.LVL157:
1066:../Common/debuglog/SEGGER_RTT_V792h/RTT/SEGGER_RTT.c ****   case SEGGER_RTT_MODE_BLOCK_IF_FIFO_FULL:
 1443              		.loc 1 1066 5 is_stmt 1 view .LVU460
 1444 0054 E4E7     		b	.L73
 1445              	.LVL158:
 1446              	.L75:
1071:../Common/debuglog/SEGGER_RTT_V792h/RTT/SEGGER_RTT.c ****     break;
 1447              		.loc 1 1071 5 view .LVU461
1071:../Common/debuglog/SEGGER_RTT_V792h/RTT/SEGGER_RTT.c ****     break;
 1448              		.loc 1 1071 14 is_stmt 0 view .LVU462
 1449 0056 3846     		mov	r0, r7
 1450 0058 FFF7FEFF 		bl	_WriteBlocking
 1451              	.LVL159:
1071:../Common/debuglog/SEGGER_RTT_V792h/RTT/SEGGER_RTT.c ****     break;
 1452              		.loc 1 1071 14 view .LVU463
 1453 005c 0446     		mov	r4, r0
 1454              	.LVL160:
1072:../Common/debuglog/SEGGER_RTT_V792h/RTT/SEGGER_RTT.c ****   default:
 1455              		.loc 1 1072 5 is_stmt 1 view .LVU464
 1456 005e DFE7     		b	.L73
 1457              	.L81:
 1458              		.align	2
 1459              	.L80:
 1460 0060 00000000 		.word	.LANCHOR1
ARM GAS  C:\Users\57308\AppData\Local\Temp\cc5NLGGx.s 			page 50


 1461              		.cfi_endproc
 1462              	.LFE10:
 1464              		.section	.text.SEGGER_RTT_WriteNoLock,"ax",%progbits
 1465              		.align	1
 1466              		.global	SEGGER_RTT_WriteNoLock
 1467              		.syntax unified
 1468              		.thumb
 1469              		.thumb_func
 1471              	SEGGER_RTT_WriteNoLock:
 1472              	.LVL161:
 1473              	.LFB11:
1082:../Common/debuglog/SEGGER_RTT_V792h/RTT/SEGGER_RTT.c **** 
1083:../Common/debuglog/SEGGER_RTT_V792h/RTT/SEGGER_RTT.c **** /*********************************************************************
1084:../Common/debuglog/SEGGER_RTT_V792h/RTT/SEGGER_RTT.c **** *
1085:../Common/debuglog/SEGGER_RTT_V792h/RTT/SEGGER_RTT.c **** *       SEGGER_RTT_WriteNoLock
1086:../Common/debuglog/SEGGER_RTT_V792h/RTT/SEGGER_RTT.c **** *
1087:../Common/debuglog/SEGGER_RTT_V792h/RTT/SEGGER_RTT.c **** *  Function description
1088:../Common/debuglog/SEGGER_RTT_V792h/RTT/SEGGER_RTT.c **** *    Stores a specified number of characters in SEGGER RTT
1089:../Common/debuglog/SEGGER_RTT_V792h/RTT/SEGGER_RTT.c **** *    control block which is then read by the host.
1090:../Common/debuglog/SEGGER_RTT_V792h/RTT/SEGGER_RTT.c **** *    SEGGER_RTT_WriteNoLock does not lock the application.
1091:../Common/debuglog/SEGGER_RTT_V792h/RTT/SEGGER_RTT.c **** *
1092:../Common/debuglog/SEGGER_RTT_V792h/RTT/SEGGER_RTT.c **** *  Parameters
1093:../Common/debuglog/SEGGER_RTT_V792h/RTT/SEGGER_RTT.c **** *    BufferIndex  Index of "Up"-buffer to be used (e.g. 0 for "Terminal").
1094:../Common/debuglog/SEGGER_RTT_V792h/RTT/SEGGER_RTT.c **** *    pBuffer      Pointer to character array. Does not need to point to a \0 terminated string.
1095:../Common/debuglog/SEGGER_RTT_V792h/RTT/SEGGER_RTT.c **** *    NumBytes     Number of bytes to be stored in the SEGGER RTT control block.
1096:../Common/debuglog/SEGGER_RTT_V792h/RTT/SEGGER_RTT.c **** *
1097:../Common/debuglog/SEGGER_RTT_V792h/RTT/SEGGER_RTT.c **** *  Return value
1098:../Common/debuglog/SEGGER_RTT_V792h/RTT/SEGGER_RTT.c **** *    Number of bytes which have been stored in the "Up"-buffer.
1099:../Common/debuglog/SEGGER_RTT_V792h/RTT/SEGGER_RTT.c **** *
1100:../Common/debuglog/SEGGER_RTT_V792h/RTT/SEGGER_RTT.c **** *  Notes
1101:../Common/debuglog/SEGGER_RTT_V792h/RTT/SEGGER_RTT.c **** *    (1) Data is stored according to buffer flags.
1102:../Common/debuglog/SEGGER_RTT_V792h/RTT/SEGGER_RTT.c **** *    (2) For performance reasons this function does not call Init()
1103:../Common/debuglog/SEGGER_RTT_V792h/RTT/SEGGER_RTT.c **** *        and may only be called after RTT has been initialized.
1104:../Common/debuglog/SEGGER_RTT_V792h/RTT/SEGGER_RTT.c **** *        Either by calling SEGGER_RTT_Init() or calling another RTT API function first.
1105:../Common/debuglog/SEGGER_RTT_V792h/RTT/SEGGER_RTT.c **** */
1106:../Common/debuglog/SEGGER_RTT_V792h/RTT/SEGGER_RTT.c **** unsigned SEGGER_RTT_WriteNoLock(unsigned BufferIndex, const void* pBuffer, unsigned NumBytes) {
 1474              		.loc 1 1106 95 view -0
 1475              		.cfi_startproc
 1476              		@ args = 0, pretend = 0, frame = 0
 1477              		@ frame_needed = 0, uses_anonymous_args = 0
 1478              		.loc 1 1106 95 is_stmt 0 view .LVU466
 1479 0000 F8B5     		push	{r3, r4, r5, r6, r7, lr}
 1480              	.LCFI12:
 1481              		.cfi_def_cfa_offset 24
 1482              		.cfi_offset 3, -24
 1483              		.cfi_offset 4, -20
 1484              		.cfi_offset 5, -16
 1485              		.cfi_offset 6, -12
 1486              		.cfi_offset 7, -8
 1487              		.cfi_offset 14, -4
 1488 0002 0F46     		mov	r7, r1
 1489 0004 1646     		mov	r6, r2
1107:../Common/debuglog/SEGGER_RTT_V792h/RTT/SEGGER_RTT.c ****   unsigned              Status;
 1490              		.loc 1 1107 3 is_stmt 1 view .LVU467
1108:../Common/debuglog/SEGGER_RTT_V792h/RTT/SEGGER_RTT.c ****   unsigned              Avail;
 1491              		.loc 1 1108 3 view .LVU468
1109:../Common/debuglog/SEGGER_RTT_V792h/RTT/SEGGER_RTT.c ****   const char*           pData;
ARM GAS  C:\Users\57308\AppData\Local\Temp\cc5NLGGx.s 			page 51


 1492              		.loc 1 1109 3 view .LVU469
1110:../Common/debuglog/SEGGER_RTT_V792h/RTT/SEGGER_RTT.c ****   SEGGER_RTT_BUFFER_UP* pRing;
 1493              		.loc 1 1110 3 view .LVU470
1111:../Common/debuglog/SEGGER_RTT_V792h/RTT/SEGGER_RTT.c ****   //
1112:../Common/debuglog/SEGGER_RTT_V792h/RTT/SEGGER_RTT.c ****   // Get "to-host" ring buffer.
1113:../Common/debuglog/SEGGER_RTT_V792h/RTT/SEGGER_RTT.c ****   //
1114:../Common/debuglog/SEGGER_RTT_V792h/RTT/SEGGER_RTT.c ****   pData = (const char *)pBuffer;
 1494              		.loc 1 1114 3 view .LVU471
 1495              	.LVL162:
1115:../Common/debuglog/SEGGER_RTT_V792h/RTT/SEGGER_RTT.c ****   pRing = (SEGGER_RTT_BUFFER_UP*)((uintptr_t)&_SEGGER_RTT.aUp[BufferIndex] + SEGGER_RTT_UNCACHED_OF
 1496              		.loc 1 1115 3 view .LVU472
 1497              		.loc 1 1115 9 is_stmt 0 view .LVU473
 1498 0006 184B     		ldr	r3, .L89
 1499 0008 451C     		adds	r5, r0, #1
 1500 000a 05EB4505 		add	r5, r5, r5, lsl #1
 1501 000e 03EBC505 		add	r5, r3, r5, lsl #3
 1502              	.LVL163:
1116:../Common/debuglog/SEGGER_RTT_V792h/RTT/SEGGER_RTT.c ****   //
1117:../Common/debuglog/SEGGER_RTT_V792h/RTT/SEGGER_RTT.c ****   // How we output depends upon the mode...
1118:../Common/debuglog/SEGGER_RTT_V792h/RTT/SEGGER_RTT.c ****   //
1119:../Common/debuglog/SEGGER_RTT_V792h/RTT/SEGGER_RTT.c ****   switch (pRing->Flags) {
 1503              		.loc 1 1119 3 is_stmt 1 view .LVU474
 1504              		.loc 1 1119 16 is_stmt 0 view .LVU475
 1505 0012 00EB4000 		add	r0, r0, r0, lsl #1
 1506              	.LVL164:
 1507              		.loc 1 1119 16 view .LVU476
 1508 0016 03EBC000 		add	r0, r3, r0, lsl #3
 1509 001a C46A     		ldr	r4, [r0, #44]
 1510              		.loc 1 1119 3 view .LVU477
 1511 001c 012C     		cmp	r4, #1
 1512 001e 11D0     		beq	.L83
 1513 0020 022C     		cmp	r4, #2
 1514 0022 1CD0     		beq	.L84
 1515 0024 14B1     		cbz	r4, .L88
 1516 0026 0024     		movs	r4, #0
 1517              	.LVL165:
1120:../Common/debuglog/SEGGER_RTT_V792h/RTT/SEGGER_RTT.c ****   case SEGGER_RTT_MODE_NO_BLOCK_SKIP:
1121:../Common/debuglog/SEGGER_RTT_V792h/RTT/SEGGER_RTT.c ****     //
1122:../Common/debuglog/SEGGER_RTT_V792h/RTT/SEGGER_RTT.c ****     // If we are in skip mode and there is no space for the whole
1123:../Common/debuglog/SEGGER_RTT_V792h/RTT/SEGGER_RTT.c ****     // of this output, don't bother.
1124:../Common/debuglog/SEGGER_RTT_V792h/RTT/SEGGER_RTT.c ****     //
1125:../Common/debuglog/SEGGER_RTT_V792h/RTT/SEGGER_RTT.c ****     Avail = _GetAvailWriteSpace(pRing);
1126:../Common/debuglog/SEGGER_RTT_V792h/RTT/SEGGER_RTT.c ****     if (Avail < NumBytes) {
1127:../Common/debuglog/SEGGER_RTT_V792h/RTT/SEGGER_RTT.c ****       Status = 0u;
1128:../Common/debuglog/SEGGER_RTT_V792h/RTT/SEGGER_RTT.c ****     } else {
1129:../Common/debuglog/SEGGER_RTT_V792h/RTT/SEGGER_RTT.c ****       Status = NumBytes;
1130:../Common/debuglog/SEGGER_RTT_V792h/RTT/SEGGER_RTT.c ****       _WriteNoCheck(pRing, pData, NumBytes);
1131:../Common/debuglog/SEGGER_RTT_V792h/RTT/SEGGER_RTT.c ****     }
1132:../Common/debuglog/SEGGER_RTT_V792h/RTT/SEGGER_RTT.c ****     break;
1133:../Common/debuglog/SEGGER_RTT_V792h/RTT/SEGGER_RTT.c ****   case SEGGER_RTT_MODE_NO_BLOCK_TRIM:
1134:../Common/debuglog/SEGGER_RTT_V792h/RTT/SEGGER_RTT.c ****     //
1135:../Common/debuglog/SEGGER_RTT_V792h/RTT/SEGGER_RTT.c ****     // If we are in trim mode, trim to what we can output without blocking.
1136:../Common/debuglog/SEGGER_RTT_V792h/RTT/SEGGER_RTT.c ****     //
1137:../Common/debuglog/SEGGER_RTT_V792h/RTT/SEGGER_RTT.c ****     Avail = _GetAvailWriteSpace(pRing);
1138:../Common/debuglog/SEGGER_RTT_V792h/RTT/SEGGER_RTT.c ****     Status = Avail < NumBytes ? Avail : NumBytes;
1139:../Common/debuglog/SEGGER_RTT_V792h/RTT/SEGGER_RTT.c ****     _WriteNoCheck(pRing, pData, Status);
1140:../Common/debuglog/SEGGER_RTT_V792h/RTT/SEGGER_RTT.c ****     break;
ARM GAS  C:\Users\57308\AppData\Local\Temp\cc5NLGGx.s 			page 52


1141:../Common/debuglog/SEGGER_RTT_V792h/RTT/SEGGER_RTT.c ****   case SEGGER_RTT_MODE_BLOCK_IF_FIFO_FULL:
1142:../Common/debuglog/SEGGER_RTT_V792h/RTT/SEGGER_RTT.c ****     //
1143:../Common/debuglog/SEGGER_RTT_V792h/RTT/SEGGER_RTT.c ****     // If we are in blocking mode, output everything.
1144:../Common/debuglog/SEGGER_RTT_V792h/RTT/SEGGER_RTT.c ****     //
1145:../Common/debuglog/SEGGER_RTT_V792h/RTT/SEGGER_RTT.c ****     Status = _WriteBlocking(pRing, pData, NumBytes);
1146:../Common/debuglog/SEGGER_RTT_V792h/RTT/SEGGER_RTT.c ****     break;
1147:../Common/debuglog/SEGGER_RTT_V792h/RTT/SEGGER_RTT.c ****   default:
1148:../Common/debuglog/SEGGER_RTT_V792h/RTT/SEGGER_RTT.c ****     Status = 0u;
1149:../Common/debuglog/SEGGER_RTT_V792h/RTT/SEGGER_RTT.c ****     break;
1150:../Common/debuglog/SEGGER_RTT_V792h/RTT/SEGGER_RTT.c ****   }
1151:../Common/debuglog/SEGGER_RTT_V792h/RTT/SEGGER_RTT.c ****   //
1152:../Common/debuglog/SEGGER_RTT_V792h/RTT/SEGGER_RTT.c ****   // Finish up.
1153:../Common/debuglog/SEGGER_RTT_V792h/RTT/SEGGER_RTT.c ****   //
1154:../Common/debuglog/SEGGER_RTT_V792h/RTT/SEGGER_RTT.c ****   return Status;
 1518              		.loc 1 1154 3 is_stmt 1 view .LVU478
 1519              	.L82:
1155:../Common/debuglog/SEGGER_RTT_V792h/RTT/SEGGER_RTT.c **** }
 1520              		.loc 1 1155 1 is_stmt 0 view .LVU479
 1521 0028 2046     		mov	r0, r4
 1522 002a F8BD     		pop	{r3, r4, r5, r6, r7, pc}
 1523              	.LVL166:
 1524              	.L88:
1125:../Common/debuglog/SEGGER_RTT_V792h/RTT/SEGGER_RTT.c ****     if (Avail < NumBytes) {
 1525              		.loc 1 1125 5 is_stmt 1 view .LVU480
1125:../Common/debuglog/SEGGER_RTT_V792h/RTT/SEGGER_RTT.c ****     if (Avail < NumBytes) {
 1526              		.loc 1 1125 13 is_stmt 0 view .LVU481
 1527 002c 2846     		mov	r0, r5
 1528 002e FFF7FEFF 		bl	_GetAvailWriteSpace
 1529              	.LVL167:
1126:../Common/debuglog/SEGGER_RTT_V792h/RTT/SEGGER_RTT.c ****       Status = 0u;
 1530              		.loc 1 1126 5 is_stmt 1 view .LVU482
1126:../Common/debuglog/SEGGER_RTT_V792h/RTT/SEGGER_RTT.c ****       Status = 0u;
 1531              		.loc 1 1126 8 is_stmt 0 view .LVU483
 1532 0032 8642     		cmp	r6, r0
 1533 0034 F8D8     		bhi	.L82
1129:../Common/debuglog/SEGGER_RTT_V792h/RTT/SEGGER_RTT.c ****       _WriteNoCheck(pRing, pData, NumBytes);
 1534              		.loc 1 1129 7 is_stmt 1 view .LVU484
 1535              	.LVL168:
1130:../Common/debuglog/SEGGER_RTT_V792h/RTT/SEGGER_RTT.c ****     }
 1536              		.loc 1 1130 7 view .LVU485
 1537 0036 3246     		mov	r2, r6
 1538 0038 3946     		mov	r1, r7
 1539 003a 2846     		mov	r0, r5
 1540              	.LVL169:
1130:../Common/debuglog/SEGGER_RTT_V792h/RTT/SEGGER_RTT.c ****     }
 1541              		.loc 1 1130 7 is_stmt 0 view .LVU486
 1542 003c FFF7FEFF 		bl	_WriteNoCheck
 1543              	.LVL170:
1129:../Common/debuglog/SEGGER_RTT_V792h/RTT/SEGGER_RTT.c ****       _WriteNoCheck(pRing, pData, NumBytes);
 1544              		.loc 1 1129 14 view .LVU487
 1545 0040 3446     		mov	r4, r6
 1546 0042 F1E7     		b	.L82
 1547              	.LVL171:
 1548              	.L83:
1137:../Common/debuglog/SEGGER_RTT_V792h/RTT/SEGGER_RTT.c ****     Status = Avail < NumBytes ? Avail : NumBytes;
 1549              		.loc 1 1137 5 is_stmt 1 view .LVU488
1137:../Common/debuglog/SEGGER_RTT_V792h/RTT/SEGGER_RTT.c ****     Status = Avail < NumBytes ? Avail : NumBytes;
ARM GAS  C:\Users\57308\AppData\Local\Temp\cc5NLGGx.s 			page 53


 1550              		.loc 1 1137 13 is_stmt 0 view .LVU489
 1551 0044 2846     		mov	r0, r5
 1552 0046 FFF7FEFF 		bl	_GetAvailWriteSpace
 1553              	.LVL172:
1138:../Common/debuglog/SEGGER_RTT_V792h/RTT/SEGGER_RTT.c ****     _WriteNoCheck(pRing, pData, Status);
 1554              		.loc 1 1138 5 is_stmt 1 view .LVU490
1138:../Common/debuglog/SEGGER_RTT_V792h/RTT/SEGGER_RTT.c ****     _WriteNoCheck(pRing, pData, Status);
 1555              		.loc 1 1138 12 is_stmt 0 view .LVU491
 1556 004a 3446     		mov	r4, r6
 1557 004c 8642     		cmp	r6, r0
 1558 004e 28BF     		it	cs
 1559 0050 0446     		movcs	r4, r0
 1560              	.LVL173:
1139:../Common/debuglog/SEGGER_RTT_V792h/RTT/SEGGER_RTT.c ****     break;
 1561              		.loc 1 1139 5 is_stmt 1 view .LVU492
 1562 0052 2246     		mov	r2, r4
 1563 0054 3946     		mov	r1, r7
 1564 0056 2846     		mov	r0, r5
 1565              	.LVL174:
1139:../Common/debuglog/SEGGER_RTT_V792h/RTT/SEGGER_RTT.c ****     break;
 1566              		.loc 1 1139 5 is_stmt 0 view .LVU493
 1567 0058 FFF7FEFF 		bl	_WriteNoCheck
 1568              	.LVL175:
1140:../Common/debuglog/SEGGER_RTT_V792h/RTT/SEGGER_RTT.c ****   case SEGGER_RTT_MODE_BLOCK_IF_FIFO_FULL:
 1569              		.loc 1 1140 5 is_stmt 1 view .LVU494
 1570 005c E4E7     		b	.L82
 1571              	.LVL176:
 1572              	.L84:
1145:../Common/debuglog/SEGGER_RTT_V792h/RTT/SEGGER_RTT.c ****     break;
 1573              		.loc 1 1145 5 view .LVU495
1145:../Common/debuglog/SEGGER_RTT_V792h/RTT/SEGGER_RTT.c ****     break;
 1574              		.loc 1 1145 14 is_stmt 0 view .LVU496
 1575 005e 2846     		mov	r0, r5
 1576 0060 FFF7FEFF 		bl	_WriteBlocking
 1577              	.LVL177:
1145:../Common/debuglog/SEGGER_RTT_V792h/RTT/SEGGER_RTT.c ****     break;
 1578              		.loc 1 1145 14 view .LVU497
 1579 0064 0446     		mov	r4, r0
 1580              	.LVL178:
1146:../Common/debuglog/SEGGER_RTT_V792h/RTT/SEGGER_RTT.c ****   default:
 1581              		.loc 1 1146 5 is_stmt 1 view .LVU498
 1582 0066 DFE7     		b	.L82
 1583              	.L90:
 1584              		.align	2
 1585              	.L89:
 1586 0068 00000000 		.word	.LANCHOR1
 1587              		.cfi_endproc
 1588              	.LFE11:
 1590              		.section	.text.SEGGER_RTT_WriteDownBuffer,"ax",%progbits
 1591              		.align	1
 1592              		.global	SEGGER_RTT_WriteDownBuffer
 1593              		.syntax unified
 1594              		.thumb
 1595              		.thumb_func
 1597              	SEGGER_RTT_WriteDownBuffer:
 1598              	.LVL179:
 1599              	.LFB12:
ARM GAS  C:\Users\57308\AppData\Local\Temp\cc5NLGGx.s 			page 54


1156:../Common/debuglog/SEGGER_RTT_V792h/RTT/SEGGER_RTT.c **** 
1157:../Common/debuglog/SEGGER_RTT_V792h/RTT/SEGGER_RTT.c **** /*********************************************************************
1158:../Common/debuglog/SEGGER_RTT_V792h/RTT/SEGGER_RTT.c **** *
1159:../Common/debuglog/SEGGER_RTT_V792h/RTT/SEGGER_RTT.c **** *       SEGGER_RTT_WriteDownBuffer
1160:../Common/debuglog/SEGGER_RTT_V792h/RTT/SEGGER_RTT.c **** *
1161:../Common/debuglog/SEGGER_RTT_V792h/RTT/SEGGER_RTT.c **** *  Function description
1162:../Common/debuglog/SEGGER_RTT_V792h/RTT/SEGGER_RTT.c **** *    Stores a specified number of characters in SEGGER RTT control block in a <Down> buffer.
1163:../Common/debuglog/SEGGER_RTT_V792h/RTT/SEGGER_RTT.c **** *
1164:../Common/debuglog/SEGGER_RTT_V792h/RTT/SEGGER_RTT.c **** *  Parameters
1165:../Common/debuglog/SEGGER_RTT_V792h/RTT/SEGGER_RTT.c **** *    BufferIndex  Index of "Up"-buffer to be used (e.g. 0 for "Terminal").
1166:../Common/debuglog/SEGGER_RTT_V792h/RTT/SEGGER_RTT.c **** *    pBuffer      Pointer to character array. Does not need to point to a \0 terminated string.
1167:../Common/debuglog/SEGGER_RTT_V792h/RTT/SEGGER_RTT.c **** *    NumBytes     Number of bytes to be stored in the SEGGER RTT control block.
1168:../Common/debuglog/SEGGER_RTT_V792h/RTT/SEGGER_RTT.c **** *
1169:../Common/debuglog/SEGGER_RTT_V792h/RTT/SEGGER_RTT.c **** *  Return value
1170:../Common/debuglog/SEGGER_RTT_V792h/RTT/SEGGER_RTT.c **** *    Number of bytes which have been stored in the "Down"-buffer.
1171:../Common/debuglog/SEGGER_RTT_V792h/RTT/SEGGER_RTT.c **** *
1172:../Common/debuglog/SEGGER_RTT_V792h/RTT/SEGGER_RTT.c **** *  Notes
1173:../Common/debuglog/SEGGER_RTT_V792h/RTT/SEGGER_RTT.c **** *    (1) Data is stored according to buffer flags.
1174:../Common/debuglog/SEGGER_RTT_V792h/RTT/SEGGER_RTT.c **** *
1175:../Common/debuglog/SEGGER_RTT_V792h/RTT/SEGGER_RTT.c **** *  Additional information
1176:../Common/debuglog/SEGGER_RTT_V792h/RTT/SEGGER_RTT.c **** *    This function must not be called when J-Link might also do RTT.
1177:../Common/debuglog/SEGGER_RTT_V792h/RTT/SEGGER_RTT.c **** *    This function locks against all other RTT operations. I.e. during
1178:../Common/debuglog/SEGGER_RTT_V792h/RTT/SEGGER_RTT.c **** *    the write operation, writing from the application is also locked.
1179:../Common/debuglog/SEGGER_RTT_V792h/RTT/SEGGER_RTT.c **** *    If only one consumer writes to the down buffer,
1180:../Common/debuglog/SEGGER_RTT_V792h/RTT/SEGGER_RTT.c **** *    call SEGGER_RTT_WriteDownBufferNoLock() instead.
1181:../Common/debuglog/SEGGER_RTT_V792h/RTT/SEGGER_RTT.c **** */
1182:../Common/debuglog/SEGGER_RTT_V792h/RTT/SEGGER_RTT.c **** unsigned SEGGER_RTT_WriteDownBuffer(unsigned BufferIndex, const void* pBuffer, unsigned NumBytes) {
 1600              		.loc 1 1182 99 view -0
 1601              		.cfi_startproc
 1602              		@ args = 0, pretend = 0, frame = 0
 1603              		@ frame_needed = 0, uses_anonymous_args = 0
 1604              		.loc 1 1182 99 is_stmt 0 view .LVU500
 1605 0000 F8B5     		push	{r3, r4, r5, r6, r7, lr}
 1606              	.LCFI13:
 1607              		.cfi_def_cfa_offset 24
 1608              		.cfi_offset 3, -24
 1609              		.cfi_offset 4, -20
 1610              		.cfi_offset 5, -16
 1611              		.cfi_offset 6, -12
 1612              		.cfi_offset 7, -8
 1613              		.cfi_offset 14, -4
 1614 0002 0446     		mov	r4, r0
 1615 0004 0D46     		mov	r5, r1
 1616 0006 1646     		mov	r6, r2
1183:../Common/debuglog/SEGGER_RTT_V792h/RTT/SEGGER_RTT.c ****   unsigned Status;
 1617              		.loc 1 1183 3 is_stmt 1 view .LVU501
1184:../Common/debuglog/SEGGER_RTT_V792h/RTT/SEGGER_RTT.c **** 
1185:../Common/debuglog/SEGGER_RTT_V792h/RTT/SEGGER_RTT.c ****   INIT();
 1618              		.loc 1 1185 3 view .LVU502
 1619              	.LBB8:
 1620              		.loc 1 1185 3 view .LVU503
 1621              		.loc 1 1185 3 view .LVU504
 1622              	.LVL180:
 1623              		.loc 1 1185 3 view .LVU505
 1624 0008 0A4B     		ldr	r3, .L95
 1625 000a 1B78     		ldrb	r3, [r3]	@ zero_extendqisi2
 1626 000c DBB2     		uxtb	r3, r3
ARM GAS  C:\Users\57308\AppData\Local\Temp\cc5NLGGx.s 			page 55


 1627 000e 532B     		cmp	r3, #83
 1628 0010 0DD1     		bne	.L94
 1629              	.LVL181:
 1630              	.L92:
 1631              		.loc 1 1185 3 is_stmt 0 view .LVU506
 1632              	.LBE8:
 1633              		.loc 1 1185 3 is_stmt 1 discriminator 3 view .LVU507
 1634              	.LBB9:
1186:../Common/debuglog/SEGGER_RTT_V792h/RTT/SEGGER_RTT.c ****   SEGGER_RTT_LOCK();
 1635              		.loc 1 1186 3 discriminator 3 view .LVU508
 1636              		.loc 1 1186 3 discriminator 3 view .LVU509
 1637              		.syntax unified
 1638              	@ 1186 "../Common/debuglog/SEGGER_RTT_V792h/RTT/SEGGER_RTT.c" 1
 1639 0012 EFF31187 		mrs   r7, basepri  
 1640 0016 4FF02001 		mov   r1, #32       
 1641 001a 81F31188 		msr   basepri, r1  
 1642              		
 1643              	@ 0 "" 2
 1644              	.LVL182:
 1645              		.loc 1 1186 20 discriminator 3 view .LVU510
1187:../Common/debuglog/SEGGER_RTT_V792h/RTT/SEGGER_RTT.c ****   Status = SEGGER_RTT_WriteDownBufferNoLock(BufferIndex, pBuffer, NumBytes);  // Call the non-locki
 1646              		.loc 1 1187 3 discriminator 3 view .LVU511
 1647              		.loc 1 1187 12 is_stmt 0 discriminator 3 view .LVU512
 1648              		.thumb
 1649              		.syntax unified
 1650 001e 3246     		mov	r2, r6
 1651 0020 2946     		mov	r1, r5
 1652 0022 2046     		mov	r0, r4
 1653 0024 FFF7FEFF 		bl	SEGGER_RTT_WriteDownBufferNoLock
 1654              	.LVL183:
1188:../Common/debuglog/SEGGER_RTT_V792h/RTT/SEGGER_RTT.c ****   SEGGER_RTT_UNLOCK();
 1655              		.loc 1 1188 3 is_stmt 1 discriminator 3 view .LVU513
 1656              		.syntax unified
 1657              	@ 1188 "../Common/debuglog/SEGGER_RTT_V792h/RTT/SEGGER_RTT.c" 1
 1658 0028 87F31188 		msr   basepri, r7  
 1659              		
 1660              	@ 0 "" 2
 1661              		.thumb
 1662              		.syntax unified
 1663              	.LBE9:
 1664              		.loc 1 1188 22 discriminator 3 view .LVU514
1189:../Common/debuglog/SEGGER_RTT_V792h/RTT/SEGGER_RTT.c ****   return Status;
 1665              		.loc 1 1189 3 discriminator 3 view .LVU515
1190:../Common/debuglog/SEGGER_RTT_V792h/RTT/SEGGER_RTT.c **** }
 1666              		.loc 1 1190 1 is_stmt 0 discriminator 3 view .LVU516
 1667 002c F8BD     		pop	{r3, r4, r5, r6, r7, pc}
 1668              	.LVL184:
 1669              	.L94:
 1670              	.LBB10:
1185:../Common/debuglog/SEGGER_RTT_V792h/RTT/SEGGER_RTT.c ****   SEGGER_RTT_LOCK();
 1671              		.loc 1 1185 3 is_stmt 1 discriminator 1 view .LVU517
 1672 002e FFF7FEFF 		bl	_DoInit
 1673              	.LVL185:
1185:../Common/debuglog/SEGGER_RTT_V792h/RTT/SEGGER_RTT.c ****   SEGGER_RTT_LOCK();
 1674              		.loc 1 1185 3 is_stmt 0 discriminator 1 view .LVU518
 1675 0032 EEE7     		b	.L92
 1676              	.L96:
ARM GAS  C:\Users\57308\AppData\Local\Temp\cc5NLGGx.s 			page 56


 1677              		.align	2
 1678              	.L95:
 1679 0034 00000000 		.word	.LANCHOR1
 1680              	.LBE10:
 1681              		.cfi_endproc
 1682              	.LFE12:
 1684              		.section	.text.SEGGER_RTT_Write,"ax",%progbits
 1685              		.align	1
 1686              		.global	SEGGER_RTT_Write
 1687              		.syntax unified
 1688              		.thumb
 1689              		.thumb_func
 1691              	SEGGER_RTT_Write:
 1692              	.LVL186:
 1693              	.LFB13:
1191:../Common/debuglog/SEGGER_RTT_V792h/RTT/SEGGER_RTT.c **** 
1192:../Common/debuglog/SEGGER_RTT_V792h/RTT/SEGGER_RTT.c **** /*********************************************************************
1193:../Common/debuglog/SEGGER_RTT_V792h/RTT/SEGGER_RTT.c **** *
1194:../Common/debuglog/SEGGER_RTT_V792h/RTT/SEGGER_RTT.c **** *       SEGGER_RTT_Write
1195:../Common/debuglog/SEGGER_RTT_V792h/RTT/SEGGER_RTT.c **** *
1196:../Common/debuglog/SEGGER_RTT_V792h/RTT/SEGGER_RTT.c **** *  Function description
1197:../Common/debuglog/SEGGER_RTT_V792h/RTT/SEGGER_RTT.c **** *    Stores a specified number of characters in SEGGER RTT
1198:../Common/debuglog/SEGGER_RTT_V792h/RTT/SEGGER_RTT.c **** *    control block which is then read by the host.
1199:../Common/debuglog/SEGGER_RTT_V792h/RTT/SEGGER_RTT.c **** *
1200:../Common/debuglog/SEGGER_RTT_V792h/RTT/SEGGER_RTT.c **** *  Parameters
1201:../Common/debuglog/SEGGER_RTT_V792h/RTT/SEGGER_RTT.c **** *    BufferIndex  Index of "Up"-buffer to be used (e.g. 0 for "Terminal").
1202:../Common/debuglog/SEGGER_RTT_V792h/RTT/SEGGER_RTT.c **** *    pBuffer      Pointer to character array. Does not need to point to a \0 terminated string.
1203:../Common/debuglog/SEGGER_RTT_V792h/RTT/SEGGER_RTT.c **** *    NumBytes     Number of bytes to be stored in the SEGGER RTT control block.
1204:../Common/debuglog/SEGGER_RTT_V792h/RTT/SEGGER_RTT.c **** *
1205:../Common/debuglog/SEGGER_RTT_V792h/RTT/SEGGER_RTT.c **** *  Return value
1206:../Common/debuglog/SEGGER_RTT_V792h/RTT/SEGGER_RTT.c **** *    Number of bytes which have been stored in the "Up"-buffer.
1207:../Common/debuglog/SEGGER_RTT_V792h/RTT/SEGGER_RTT.c **** *
1208:../Common/debuglog/SEGGER_RTT_V792h/RTT/SEGGER_RTT.c **** *  Notes
1209:../Common/debuglog/SEGGER_RTT_V792h/RTT/SEGGER_RTT.c **** *    (1) Data is stored according to buffer flags.
1210:../Common/debuglog/SEGGER_RTT_V792h/RTT/SEGGER_RTT.c **** */
1211:../Common/debuglog/SEGGER_RTT_V792h/RTT/SEGGER_RTT.c **** unsigned SEGGER_RTT_Write(unsigned BufferIndex, const void* pBuffer, unsigned NumBytes) {
 1694              		.loc 1 1211 89 is_stmt 1 view -0
 1695              		.cfi_startproc
 1696              		@ args = 0, pretend = 0, frame = 0
 1697              		@ frame_needed = 0, uses_anonymous_args = 0
 1698              		.loc 1 1211 89 is_stmt 0 view .LVU520
 1699 0000 F8B5     		push	{r3, r4, r5, r6, r7, lr}
 1700              	.LCFI14:
 1701              		.cfi_def_cfa_offset 24
 1702              		.cfi_offset 3, -24
 1703              		.cfi_offset 4, -20
 1704              		.cfi_offset 5, -16
 1705              		.cfi_offset 6, -12
 1706              		.cfi_offset 7, -8
 1707              		.cfi_offset 14, -4
 1708 0002 0446     		mov	r4, r0
 1709 0004 0D46     		mov	r5, r1
 1710 0006 1646     		mov	r6, r2
1212:../Common/debuglog/SEGGER_RTT_V792h/RTT/SEGGER_RTT.c ****   unsigned Status;
 1711              		.loc 1 1212 3 is_stmt 1 view .LVU521
1213:../Common/debuglog/SEGGER_RTT_V792h/RTT/SEGGER_RTT.c **** 
1214:../Common/debuglog/SEGGER_RTT_V792h/RTT/SEGGER_RTT.c ****   INIT();
ARM GAS  C:\Users\57308\AppData\Local\Temp\cc5NLGGx.s 			page 57


 1712              		.loc 1 1214 3 view .LVU522
 1713              	.LBB11:
 1714              		.loc 1 1214 3 view .LVU523
 1715              		.loc 1 1214 3 view .LVU524
 1716              	.LVL187:
 1717              		.loc 1 1214 3 view .LVU525
 1718 0008 0A4B     		ldr	r3, .L101
 1719 000a 1B78     		ldrb	r3, [r3]	@ zero_extendqisi2
 1720 000c DBB2     		uxtb	r3, r3
 1721 000e 532B     		cmp	r3, #83
 1722 0010 0DD1     		bne	.L100
 1723              	.LVL188:
 1724              	.L98:
 1725              		.loc 1 1214 3 is_stmt 0 view .LVU526
 1726              	.LBE11:
 1727              		.loc 1 1214 3 is_stmt 1 discriminator 3 view .LVU527
 1728              	.LBB12:
1215:../Common/debuglog/SEGGER_RTT_V792h/RTT/SEGGER_RTT.c ****   SEGGER_RTT_LOCK();
 1729              		.loc 1 1215 3 discriminator 3 view .LVU528
 1730              		.loc 1 1215 3 discriminator 3 view .LVU529
 1731              		.syntax unified
 1732              	@ 1215 "../Common/debuglog/SEGGER_RTT_V792h/RTT/SEGGER_RTT.c" 1
 1733 0012 EFF31187 		mrs   r7, basepri  
 1734 0016 4FF02001 		mov   r1, #32       
 1735 001a 81F31188 		msr   basepri, r1  
 1736              		
 1737              	@ 0 "" 2
 1738              	.LVL189:
 1739              		.loc 1 1215 20 discriminator 3 view .LVU530
1216:../Common/debuglog/SEGGER_RTT_V792h/RTT/SEGGER_RTT.c ****   Status = SEGGER_RTT_WriteNoLock(BufferIndex, pBuffer, NumBytes);  // Call the non-locking write f
 1740              		.loc 1 1216 3 discriminator 3 view .LVU531
 1741              		.loc 1 1216 12 is_stmt 0 discriminator 3 view .LVU532
 1742              		.thumb
 1743              		.syntax unified
 1744 001e 3246     		mov	r2, r6
 1745 0020 2946     		mov	r1, r5
 1746 0022 2046     		mov	r0, r4
 1747 0024 FFF7FEFF 		bl	SEGGER_RTT_WriteNoLock
 1748              	.LVL190:
1217:../Common/debuglog/SEGGER_RTT_V792h/RTT/SEGGER_RTT.c ****   SEGGER_RTT_UNLOCK();
 1749              		.loc 1 1217 3 is_stmt 1 discriminator 3 view .LVU533
 1750              		.syntax unified
 1751              	@ 1217 "../Common/debuglog/SEGGER_RTT_V792h/RTT/SEGGER_RTT.c" 1
 1752 0028 87F31188 		msr   basepri, r7  
 1753              		
 1754              	@ 0 "" 2
 1755              		.thumb
 1756              		.syntax unified
 1757              	.LBE12:
 1758              		.loc 1 1217 22 discriminator 3 view .LVU534
1218:../Common/debuglog/SEGGER_RTT_V792h/RTT/SEGGER_RTT.c ****   return Status;
 1759              		.loc 1 1218 3 discriminator 3 view .LVU535
1219:../Common/debuglog/SEGGER_RTT_V792h/RTT/SEGGER_RTT.c **** }
 1760              		.loc 1 1219 1 is_stmt 0 discriminator 3 view .LVU536
 1761 002c F8BD     		pop	{r3, r4, r5, r6, r7, pc}
 1762              	.LVL191:
 1763              	.L100:
ARM GAS  C:\Users\57308\AppData\Local\Temp\cc5NLGGx.s 			page 58


 1764              	.LBB13:
1214:../Common/debuglog/SEGGER_RTT_V792h/RTT/SEGGER_RTT.c ****   SEGGER_RTT_LOCK();
 1765              		.loc 1 1214 3 is_stmt 1 discriminator 1 view .LVU537
 1766 002e FFF7FEFF 		bl	_DoInit
 1767              	.LVL192:
1214:../Common/debuglog/SEGGER_RTT_V792h/RTT/SEGGER_RTT.c ****   SEGGER_RTT_LOCK();
 1768              		.loc 1 1214 3 is_stmt 0 discriminator 1 view .LVU538
 1769 0032 EEE7     		b	.L98
 1770              	.L102:
 1771              		.align	2
 1772              	.L101:
 1773 0034 00000000 		.word	.LANCHOR1
 1774              	.LBE13:
 1775              		.cfi_endproc
 1776              	.LFE13:
 1778              		.section	.text.SEGGER_RTT_WriteString,"ax",%progbits
 1779              		.align	1
 1780              		.global	SEGGER_RTT_WriteString
 1781              		.syntax unified
 1782              		.thumb
 1783              		.thumb_func
 1785              	SEGGER_RTT_WriteString:
 1786              	.LVL193:
 1787              	.LFB14:
1220:../Common/debuglog/SEGGER_RTT_V792h/RTT/SEGGER_RTT.c **** 
1221:../Common/debuglog/SEGGER_RTT_V792h/RTT/SEGGER_RTT.c **** /*********************************************************************
1222:../Common/debuglog/SEGGER_RTT_V792h/RTT/SEGGER_RTT.c **** *
1223:../Common/debuglog/SEGGER_RTT_V792h/RTT/SEGGER_RTT.c **** *       SEGGER_RTT_WriteString
1224:../Common/debuglog/SEGGER_RTT_V792h/RTT/SEGGER_RTT.c **** *
1225:../Common/debuglog/SEGGER_RTT_V792h/RTT/SEGGER_RTT.c **** *  Function description
1226:../Common/debuglog/SEGGER_RTT_V792h/RTT/SEGGER_RTT.c **** *    Stores string in SEGGER RTT control block.
1227:../Common/debuglog/SEGGER_RTT_V792h/RTT/SEGGER_RTT.c **** *    This data is read by the host.
1228:../Common/debuglog/SEGGER_RTT_V792h/RTT/SEGGER_RTT.c **** *
1229:../Common/debuglog/SEGGER_RTT_V792h/RTT/SEGGER_RTT.c **** *  Parameters
1230:../Common/debuglog/SEGGER_RTT_V792h/RTT/SEGGER_RTT.c **** *    BufferIndex  Index of "Up"-buffer to be used (e.g. 0 for "Terminal").
1231:../Common/debuglog/SEGGER_RTT_V792h/RTT/SEGGER_RTT.c **** *    s            Pointer to string.
1232:../Common/debuglog/SEGGER_RTT_V792h/RTT/SEGGER_RTT.c **** *
1233:../Common/debuglog/SEGGER_RTT_V792h/RTT/SEGGER_RTT.c **** *  Return value
1234:../Common/debuglog/SEGGER_RTT_V792h/RTT/SEGGER_RTT.c **** *    Number of bytes which have been stored in the "Up"-buffer.
1235:../Common/debuglog/SEGGER_RTT_V792h/RTT/SEGGER_RTT.c **** *
1236:../Common/debuglog/SEGGER_RTT_V792h/RTT/SEGGER_RTT.c **** *  Notes
1237:../Common/debuglog/SEGGER_RTT_V792h/RTT/SEGGER_RTT.c **** *    (1) Data is stored according to buffer flags.
1238:../Common/debuglog/SEGGER_RTT_V792h/RTT/SEGGER_RTT.c **** *    (2) String passed to this function has to be \0 terminated
1239:../Common/debuglog/SEGGER_RTT_V792h/RTT/SEGGER_RTT.c **** *    (3) \0 termination character is *not* stored in RTT buffer
1240:../Common/debuglog/SEGGER_RTT_V792h/RTT/SEGGER_RTT.c **** */
1241:../Common/debuglog/SEGGER_RTT_V792h/RTT/SEGGER_RTT.c **** unsigned SEGGER_RTT_WriteString(unsigned BufferIndex, const char* s) {
 1788              		.loc 1 1241 70 is_stmt 1 view -0
 1789              		.cfi_startproc
 1790              		@ args = 0, pretend = 0, frame = 0
 1791              		@ frame_needed = 0, uses_anonymous_args = 0
 1792              		.loc 1 1241 70 is_stmt 0 view .LVU540
 1793 0000 38B5     		push	{r3, r4, r5, lr}
 1794              	.LCFI15:
 1795              		.cfi_def_cfa_offset 16
 1796              		.cfi_offset 3, -16
 1797              		.cfi_offset 4, -12
 1798              		.cfi_offset 5, -8
ARM GAS  C:\Users\57308\AppData\Local\Temp\cc5NLGGx.s 			page 59


 1799              		.cfi_offset 14, -4
 1800 0002 0546     		mov	r5, r0
 1801 0004 0C46     		mov	r4, r1
1242:../Common/debuglog/SEGGER_RTT_V792h/RTT/SEGGER_RTT.c ****   unsigned Len;
 1802              		.loc 1 1242 3 is_stmt 1 view .LVU541
1243:../Common/debuglog/SEGGER_RTT_V792h/RTT/SEGGER_RTT.c **** 
1244:../Common/debuglog/SEGGER_RTT_V792h/RTT/SEGGER_RTT.c ****   Len = STRLEN(s);
 1803              		.loc 1 1244 3 view .LVU542
 1804              		.loc 1 1244 9 is_stmt 0 view .LVU543
 1805 0006 0846     		mov	r0, r1
 1806              	.LVL194:
 1807              		.loc 1 1244 9 view .LVU544
 1808 0008 FFF7FEFF 		bl	strlen
 1809              	.LVL195:
 1810              		.loc 1 1244 9 view .LVU545
 1811 000c 0246     		mov	r2, r0
 1812              	.LVL196:
1245:../Common/debuglog/SEGGER_RTT_V792h/RTT/SEGGER_RTT.c ****   return SEGGER_RTT_Write(BufferIndex, s, Len);
 1813              		.loc 1 1245 3 is_stmt 1 view .LVU546
 1814              		.loc 1 1245 10 is_stmt 0 view .LVU547
 1815 000e 2146     		mov	r1, r4
 1816 0010 2846     		mov	r0, r5
 1817              	.LVL197:
 1818              		.loc 1 1245 10 view .LVU548
 1819 0012 FFF7FEFF 		bl	SEGGER_RTT_Write
 1820              	.LVL198:
1246:../Common/debuglog/SEGGER_RTT_V792h/RTT/SEGGER_RTT.c **** }
 1821              		.loc 1 1246 1 view .LVU549
 1822 0016 38BD     		pop	{r3, r4, r5, pc}
 1823              		.loc 1 1246 1 view .LVU550
 1824              		.cfi_endproc
 1825              	.LFE14:
 1827              		.section	.text.SEGGER_RTT_PutCharSkipNoLock,"ax",%progbits
 1828              		.align	1
 1829              		.global	SEGGER_RTT_PutCharSkipNoLock
 1830              		.syntax unified
 1831              		.thumb
 1832              		.thumb_func
 1834              	SEGGER_RTT_PutCharSkipNoLock:
 1835              	.LVL199:
 1836              	.LFB15:
1247:../Common/debuglog/SEGGER_RTT_V792h/RTT/SEGGER_RTT.c **** 
1248:../Common/debuglog/SEGGER_RTT_V792h/RTT/SEGGER_RTT.c **** /*********************************************************************
1249:../Common/debuglog/SEGGER_RTT_V792h/RTT/SEGGER_RTT.c **** *
1250:../Common/debuglog/SEGGER_RTT_V792h/RTT/SEGGER_RTT.c **** *       SEGGER_RTT_PutCharSkipNoLock
1251:../Common/debuglog/SEGGER_RTT_V792h/RTT/SEGGER_RTT.c **** *
1252:../Common/debuglog/SEGGER_RTT_V792h/RTT/SEGGER_RTT.c **** *  Function description
1253:../Common/debuglog/SEGGER_RTT_V792h/RTT/SEGGER_RTT.c **** *    Stores a single character/byte in SEGGER RTT buffer.
1254:../Common/debuglog/SEGGER_RTT_V792h/RTT/SEGGER_RTT.c **** *    SEGGER_RTT_PutCharSkipNoLock does not lock the application and
1255:../Common/debuglog/SEGGER_RTT_V792h/RTT/SEGGER_RTT.c **** *    skips the byte, if it does not fit into the buffer.
1256:../Common/debuglog/SEGGER_RTT_V792h/RTT/SEGGER_RTT.c **** *
1257:../Common/debuglog/SEGGER_RTT_V792h/RTT/SEGGER_RTT.c **** *  Parameters
1258:../Common/debuglog/SEGGER_RTT_V792h/RTT/SEGGER_RTT.c **** *    BufferIndex  Index of "Up"-buffer to be used (e.g. 0 for "Terminal").
1259:../Common/debuglog/SEGGER_RTT_V792h/RTT/SEGGER_RTT.c **** *    c            Byte to be stored.
1260:../Common/debuglog/SEGGER_RTT_V792h/RTT/SEGGER_RTT.c **** *
1261:../Common/debuglog/SEGGER_RTT_V792h/RTT/SEGGER_RTT.c **** *  Return value
1262:../Common/debuglog/SEGGER_RTT_V792h/RTT/SEGGER_RTT.c **** *    Number of bytes which have been stored in the "Up"-buffer.
ARM GAS  C:\Users\57308\AppData\Local\Temp\cc5NLGGx.s 			page 60


1263:../Common/debuglog/SEGGER_RTT_V792h/RTT/SEGGER_RTT.c **** *
1264:../Common/debuglog/SEGGER_RTT_V792h/RTT/SEGGER_RTT.c **** *  Notes
1265:../Common/debuglog/SEGGER_RTT_V792h/RTT/SEGGER_RTT.c **** *    (1) If there is not enough space in the "Up"-buffer, the character is dropped.
1266:../Common/debuglog/SEGGER_RTT_V792h/RTT/SEGGER_RTT.c **** *    (2) For performance reasons this function does not call Init()
1267:../Common/debuglog/SEGGER_RTT_V792h/RTT/SEGGER_RTT.c **** *        and may only be called after RTT has been initialized.
1268:../Common/debuglog/SEGGER_RTT_V792h/RTT/SEGGER_RTT.c **** *        Either by calling SEGGER_RTT_Init() or calling another RTT API function first.
1269:../Common/debuglog/SEGGER_RTT_V792h/RTT/SEGGER_RTT.c **** */
1270:../Common/debuglog/SEGGER_RTT_V792h/RTT/SEGGER_RTT.c **** 
1271:../Common/debuglog/SEGGER_RTT_V792h/RTT/SEGGER_RTT.c **** unsigned SEGGER_RTT_PutCharSkipNoLock(unsigned BufferIndex, char c) {
 1837              		.loc 1 1271 69 is_stmt 1 view -0
 1838              		.cfi_startproc
 1839              		@ args = 0, pretend = 0, frame = 0
 1840              		@ frame_needed = 0, uses_anonymous_args = 0
 1841              		@ link register save eliminated.
 1842              		.loc 1 1271 69 is_stmt 0 view .LVU552
 1843 0000 30B4     		push	{r4, r5}
 1844              	.LCFI16:
 1845              		.cfi_def_cfa_offset 8
 1846              		.cfi_offset 4, -8
 1847              		.cfi_offset 5, -4
1272:../Common/debuglog/SEGGER_RTT_V792h/RTT/SEGGER_RTT.c ****   SEGGER_RTT_BUFFER_UP* pRing;
 1848              		.loc 1 1272 3 is_stmt 1 view .LVU553
1273:../Common/debuglog/SEGGER_RTT_V792h/RTT/SEGGER_RTT.c ****   unsigned              WrOff;
 1849              		.loc 1 1273 3 view .LVU554
1274:../Common/debuglog/SEGGER_RTT_V792h/RTT/SEGGER_RTT.c ****   unsigned              Status;
 1850              		.loc 1 1274 3 view .LVU555
1275:../Common/debuglog/SEGGER_RTT_V792h/RTT/SEGGER_RTT.c ****   volatile char*        pDst;
 1851              		.loc 1 1275 3 view .LVU556
1276:../Common/debuglog/SEGGER_RTT_V792h/RTT/SEGGER_RTT.c ****   //
1277:../Common/debuglog/SEGGER_RTT_V792h/RTT/SEGGER_RTT.c ****   // Get "to-host" ring buffer.
1278:../Common/debuglog/SEGGER_RTT_V792h/RTT/SEGGER_RTT.c ****   //
1279:../Common/debuglog/SEGGER_RTT_V792h/RTT/SEGGER_RTT.c ****   pRing = (SEGGER_RTT_BUFFER_UP*)((uintptr_t)&_SEGGER_RTT.aUp[BufferIndex] + SEGGER_RTT_UNCACHED_OF
 1852              		.loc 1 1279 3 view .LVU557
 1853              	.LVL200:
1280:../Common/debuglog/SEGGER_RTT_V792h/RTT/SEGGER_RTT.c ****   //
1281:../Common/debuglog/SEGGER_RTT_V792h/RTT/SEGGER_RTT.c ****   // Get write position and handle wrap-around if necessary
1282:../Common/debuglog/SEGGER_RTT_V792h/RTT/SEGGER_RTT.c ****   //
1283:../Common/debuglog/SEGGER_RTT_V792h/RTT/SEGGER_RTT.c ****   WrOff = pRing->WrOff + 1;
 1854              		.loc 1 1283 3 view .LVU558
 1855              		.loc 1 1283 16 is_stmt 0 view .LVU559
 1856 0002 00EB4002 		add	r2, r0, r0, lsl #1
 1857 0006 124B     		ldr	r3, .L112
 1858 0008 03EBC203 		add	r3, r3, r2, lsl #3
 1859 000c 5D6A     		ldr	r5, [r3, #36]
 1860              		.loc 1 1283 9 view .LVU560
 1861 000e 6A1C     		adds	r2, r5, #1
 1862              	.LVL201:
1284:../Common/debuglog/SEGGER_RTT_V792h/RTT/SEGGER_RTT.c ****   if (WrOff == pRing->SizeOfBuffer) {
 1863              		.loc 1 1284 3 is_stmt 1 view .LVU561
 1864              		.loc 1 1284 21 is_stmt 0 view .LVU562
 1865 0010 1B6A     		ldr	r3, [r3, #32]
 1866              		.loc 1 1284 6 view .LVU563
 1867 0012 9342     		cmp	r3, r2
 1868 0014 18D0     		beq	.L111
 1869              	.LVL202:
 1870              	.L106:
1285:../Common/debuglog/SEGGER_RTT_V792h/RTT/SEGGER_RTT.c ****     WrOff = 0;
ARM GAS  C:\Users\57308\AppData\Local\Temp\cc5NLGGx.s 			page 61


1286:../Common/debuglog/SEGGER_RTT_V792h/RTT/SEGGER_RTT.c ****   }
1287:../Common/debuglog/SEGGER_RTT_V792h/RTT/SEGGER_RTT.c ****   //
1288:../Common/debuglog/SEGGER_RTT_V792h/RTT/SEGGER_RTT.c ****   // Output byte if free space is available
1289:../Common/debuglog/SEGGER_RTT_V792h/RTT/SEGGER_RTT.c ****   //
1290:../Common/debuglog/SEGGER_RTT_V792h/RTT/SEGGER_RTT.c ****   if (WrOff != pRing->RdOff) {
 1871              		.loc 1 1290 3 is_stmt 1 view .LVU564
 1872              		.loc 1 1290 21 is_stmt 0 view .LVU565
 1873 0016 00EB4003 		add	r3, r0, r0, lsl #1
 1874 001a 0D4C     		ldr	r4, .L112
 1875 001c 04EBC303 		add	r3, r4, r3, lsl #3
 1876 0020 9B6A     		ldr	r3, [r3, #40]
 1877              		.loc 1 1290 6 view .LVU566
 1878 0022 9342     		cmp	r3, r2
 1879 0024 12D0     		beq	.L109
1291:../Common/debuglog/SEGGER_RTT_V792h/RTT/SEGGER_RTT.c ****     pDst = (pRing->pBuffer + pRing->WrOff) + SEGGER_RTT_UNCACHED_OFF;
 1880              		.loc 1 1291 5 is_stmt 1 view .LVU567
 1881              		.loc 1 1291 18 is_stmt 0 view .LVU568
 1882 0026 431C     		adds	r3, r0, #1
 1883 0028 03EB4303 		add	r3, r3, r3, lsl #1
 1884 002c 04EBC303 		add	r3, r4, r3, lsl #3
 1885 0030 5B68     		ldr	r3, [r3, #4]
 1886              	.LVL203:
1292:../Common/debuglog/SEGGER_RTT_V792h/RTT/SEGGER_RTT.c ****     *pDst = c;
 1887              		.loc 1 1292 5 is_stmt 1 view .LVU569
 1888              		.loc 1 1292 11 is_stmt 0 view .LVU570
 1889 0032 5955     		strb	r1, [r3, r5]
1293:../Common/debuglog/SEGGER_RTT_V792h/RTT/SEGGER_RTT.c ****     RTT__DMB();                     // Force data write to be complete before writing the <WrOff>, 
 1890              		.loc 1 1293 5 is_stmt 1 view .LVU571
 1891              		.syntax unified
 1892              	@ 1293 "../Common/debuglog/SEGGER_RTT_V792h/RTT/SEGGER_RTT.c" 1
 1893 0034 BFF35F8F 		dmb
 1894              	
 1895              	@ 0 "" 2
 1896              		.loc 1 1293 15 view .LVU572
1294:../Common/debuglog/SEGGER_RTT_V792h/RTT/SEGGER_RTT.c ****     pRing->WrOff = WrOff;
 1897              		.loc 1 1294 5 view .LVU573
 1898              		.loc 1 1294 18 is_stmt 0 view .LVU574
 1899              		.thumb
 1900              		.syntax unified
 1901 0038 00EB4000 		add	r0, r0, r0, lsl #1
 1902              	.LVL204:
 1903              		.loc 1 1294 18 view .LVU575
 1904 003c 04EBC000 		add	r0, r4, r0, lsl #3
 1905 0040 4262     		str	r2, [r0, #36]
1295:../Common/debuglog/SEGGER_RTT_V792h/RTT/SEGGER_RTT.c ****     Status = 1;
 1906              		.loc 1 1295 5 is_stmt 1 view .LVU576
 1907              	.LVL205:
 1908              		.loc 1 1295 12 is_stmt 0 view .LVU577
 1909 0042 0120     		movs	r0, #1
 1910              	.LVL206:
 1911              	.L105:
1296:../Common/debuglog/SEGGER_RTT_V792h/RTT/SEGGER_RTT.c ****   } else {
1297:../Common/debuglog/SEGGER_RTT_V792h/RTT/SEGGER_RTT.c ****     Status = 0;
1298:../Common/debuglog/SEGGER_RTT_V792h/RTT/SEGGER_RTT.c ****   }
1299:../Common/debuglog/SEGGER_RTT_V792h/RTT/SEGGER_RTT.c ****   //
1300:../Common/debuglog/SEGGER_RTT_V792h/RTT/SEGGER_RTT.c ****   return Status;
1301:../Common/debuglog/SEGGER_RTT_V792h/RTT/SEGGER_RTT.c **** }
ARM GAS  C:\Users\57308\AppData\Local\Temp\cc5NLGGx.s 			page 62


 1912              		.loc 1 1301 1 view .LVU578
 1913 0044 30BC     		pop	{r4, r5}
 1914              	.LCFI17:
 1915              		.cfi_remember_state
 1916              		.cfi_restore 5
 1917              		.cfi_restore 4
 1918              		.cfi_def_cfa_offset 0
 1919 0046 7047     		bx	lr
 1920              	.LVL207:
 1921              	.L111:
 1922              	.LCFI18:
 1923              		.cfi_restore_state
1285:../Common/debuglog/SEGGER_RTT_V792h/RTT/SEGGER_RTT.c ****   }
 1924              		.loc 1 1285 11 view .LVU579
 1925 0048 0022     		movs	r2, #0
 1926              	.LVL208:
1285:../Common/debuglog/SEGGER_RTT_V792h/RTT/SEGGER_RTT.c ****   }
 1927              		.loc 1 1285 11 view .LVU580
 1928 004a E4E7     		b	.L106
 1929              	.LVL209:
 1930              	.L109:
1297:../Common/debuglog/SEGGER_RTT_V792h/RTT/SEGGER_RTT.c ****   }
 1931              		.loc 1 1297 12 view .LVU581
 1932 004c 0020     		movs	r0, #0
 1933              	.LVL210:
1300:../Common/debuglog/SEGGER_RTT_V792h/RTT/SEGGER_RTT.c **** }
 1934              		.loc 1 1300 3 is_stmt 1 view .LVU582
1300:../Common/debuglog/SEGGER_RTT_V792h/RTT/SEGGER_RTT.c **** }
 1935              		.loc 1 1300 10 is_stmt 0 view .LVU583
 1936 004e F9E7     		b	.L105
 1937              	.L113:
 1938              		.align	2
 1939              	.L112:
 1940 0050 00000000 		.word	.LANCHOR1
 1941              		.cfi_endproc
 1942              	.LFE15:
 1944              		.section	.text.SEGGER_RTT_PutCharSkip,"ax",%progbits
 1945              		.align	1
 1946              		.global	SEGGER_RTT_PutCharSkip
 1947              		.syntax unified
 1948              		.thumb
 1949              		.thumb_func
 1951              	SEGGER_RTT_PutCharSkip:
 1952              	.LVL211:
 1953              	.LFB16:
1302:../Common/debuglog/SEGGER_RTT_V792h/RTT/SEGGER_RTT.c **** 
1303:../Common/debuglog/SEGGER_RTT_V792h/RTT/SEGGER_RTT.c **** /*********************************************************************
1304:../Common/debuglog/SEGGER_RTT_V792h/RTT/SEGGER_RTT.c **** *
1305:../Common/debuglog/SEGGER_RTT_V792h/RTT/SEGGER_RTT.c **** *       SEGGER_RTT_PutCharSkip
1306:../Common/debuglog/SEGGER_RTT_V792h/RTT/SEGGER_RTT.c **** *
1307:../Common/debuglog/SEGGER_RTT_V792h/RTT/SEGGER_RTT.c **** *  Function description
1308:../Common/debuglog/SEGGER_RTT_V792h/RTT/SEGGER_RTT.c **** *    Stores a single character/byte in SEGGER RTT buffer.
1309:../Common/debuglog/SEGGER_RTT_V792h/RTT/SEGGER_RTT.c **** *
1310:../Common/debuglog/SEGGER_RTT_V792h/RTT/SEGGER_RTT.c **** *  Parameters
1311:../Common/debuglog/SEGGER_RTT_V792h/RTT/SEGGER_RTT.c **** *    BufferIndex  Index of "Up"-buffer to be used (e.g. 0 for "Terminal").
1312:../Common/debuglog/SEGGER_RTT_V792h/RTT/SEGGER_RTT.c **** *    c            Byte to be stored.
1313:../Common/debuglog/SEGGER_RTT_V792h/RTT/SEGGER_RTT.c **** *
ARM GAS  C:\Users\57308\AppData\Local\Temp\cc5NLGGx.s 			page 63


1314:../Common/debuglog/SEGGER_RTT_V792h/RTT/SEGGER_RTT.c **** *  Return value
1315:../Common/debuglog/SEGGER_RTT_V792h/RTT/SEGGER_RTT.c **** *    Number of bytes which have been stored in the "Up"-buffer.
1316:../Common/debuglog/SEGGER_RTT_V792h/RTT/SEGGER_RTT.c **** *
1317:../Common/debuglog/SEGGER_RTT_V792h/RTT/SEGGER_RTT.c **** *  Notes
1318:../Common/debuglog/SEGGER_RTT_V792h/RTT/SEGGER_RTT.c **** *    (1) If there is not enough space in the "Up"-buffer, the character is dropped.
1319:../Common/debuglog/SEGGER_RTT_V792h/RTT/SEGGER_RTT.c **** */
1320:../Common/debuglog/SEGGER_RTT_V792h/RTT/SEGGER_RTT.c **** 
1321:../Common/debuglog/SEGGER_RTT_V792h/RTT/SEGGER_RTT.c **** unsigned SEGGER_RTT_PutCharSkip(unsigned BufferIndex, char c) {
 1954              		.loc 1 1321 63 is_stmt 1 view -0
 1955              		.cfi_startproc
 1956              		@ args = 0, pretend = 0, frame = 0
 1957              		@ frame_needed = 0, uses_anonymous_args = 0
 1958              		.loc 1 1321 63 is_stmt 0 view .LVU585
 1959 0000 38B5     		push	{r3, r4, r5, lr}
 1960              	.LCFI19:
 1961              		.cfi_def_cfa_offset 16
 1962              		.cfi_offset 3, -16
 1963              		.cfi_offset 4, -12
 1964              		.cfi_offset 5, -8
 1965              		.cfi_offset 14, -4
 1966 0002 0446     		mov	r4, r0
 1967 0004 0D46     		mov	r5, r1
1322:../Common/debuglog/SEGGER_RTT_V792h/RTT/SEGGER_RTT.c ****   SEGGER_RTT_BUFFER_UP* pRing;
 1968              		.loc 1 1322 3 is_stmt 1 view .LVU586
1323:../Common/debuglog/SEGGER_RTT_V792h/RTT/SEGGER_RTT.c ****   unsigned              WrOff;
 1969              		.loc 1 1323 3 view .LVU587
1324:../Common/debuglog/SEGGER_RTT_V792h/RTT/SEGGER_RTT.c ****   unsigned              Status;
 1970              		.loc 1 1324 3 view .LVU588
1325:../Common/debuglog/SEGGER_RTT_V792h/RTT/SEGGER_RTT.c ****   volatile char*        pDst;
 1971              		.loc 1 1325 3 view .LVU589
1326:../Common/debuglog/SEGGER_RTT_V792h/RTT/SEGGER_RTT.c ****   //
1327:../Common/debuglog/SEGGER_RTT_V792h/RTT/SEGGER_RTT.c ****   // Prepare
1328:../Common/debuglog/SEGGER_RTT_V792h/RTT/SEGGER_RTT.c ****   //
1329:../Common/debuglog/SEGGER_RTT_V792h/RTT/SEGGER_RTT.c ****   INIT();
 1972              		.loc 1 1329 3 view .LVU590
 1973              	.LBB14:
 1974              		.loc 1 1329 3 view .LVU591
 1975              		.loc 1 1329 3 view .LVU592
 1976              	.LVL212:
 1977              		.loc 1 1329 3 view .LVU593
 1978 0006 1B4B     		ldr	r3, .L123
 1979 0008 1B78     		ldrb	r3, [r3]	@ zero_extendqisi2
 1980 000a DBB2     		uxtb	r3, r3
 1981 000c 532B     		cmp	r3, #83
 1982 000e 29D1     		bne	.L121
 1983              	.LVL213:
 1984              	.L115:
 1985              		.loc 1 1329 3 is_stmt 0 view .LVU594
 1986              	.LBE14:
 1987              		.loc 1 1329 3 is_stmt 1 discriminator 3 view .LVU595
 1988              	.LBB15:
1330:../Common/debuglog/SEGGER_RTT_V792h/RTT/SEGGER_RTT.c ****   SEGGER_RTT_LOCK();
 1989              		.loc 1 1330 3 discriminator 3 view .LVU596
 1990              		.loc 1 1330 3 discriminator 3 view .LVU597
 1991              		.syntax unified
 1992              	@ 1330 "../Common/debuglog/SEGGER_RTT_V792h/RTT/SEGGER_RTT.c" 1
 1993 0010 EFF3118C 		mrs   ip, basepri  
ARM GAS  C:\Users\57308\AppData\Local\Temp\cc5NLGGx.s 			page 64


 1994 0014 4FF02001 		mov   r1, #32       
 1995 0018 81F31188 		msr   basepri, r1  
 1996              		
 1997              	@ 0 "" 2
 1998              	.LVL214:
 1999              		.loc 1 1330 20 discriminator 3 view .LVU598
1331:../Common/debuglog/SEGGER_RTT_V792h/RTT/SEGGER_RTT.c ****   //
1332:../Common/debuglog/SEGGER_RTT_V792h/RTT/SEGGER_RTT.c ****   // Get "to-host" ring buffer.
1333:../Common/debuglog/SEGGER_RTT_V792h/RTT/SEGGER_RTT.c ****   //
1334:../Common/debuglog/SEGGER_RTT_V792h/RTT/SEGGER_RTT.c ****   pRing = (SEGGER_RTT_BUFFER_UP*)((uintptr_t)&_SEGGER_RTT.aUp[BufferIndex] + SEGGER_RTT_UNCACHED_OF
 2000              		.loc 1 1334 3 discriminator 3 view .LVU599
1335:../Common/debuglog/SEGGER_RTT_V792h/RTT/SEGGER_RTT.c ****   //
1336:../Common/debuglog/SEGGER_RTT_V792h/RTT/SEGGER_RTT.c ****   // Get write position and handle wrap-around if necessary
1337:../Common/debuglog/SEGGER_RTT_V792h/RTT/SEGGER_RTT.c ****   //
1338:../Common/debuglog/SEGGER_RTT_V792h/RTT/SEGGER_RTT.c ****   WrOff = pRing->WrOff + 1;
 2001              		.loc 1 1338 3 discriminator 3 view .LVU600
 2002              		.loc 1 1338 16 is_stmt 0 discriminator 3 view .LVU601
 2003              		.thumb
 2004              		.syntax unified
 2005 001c 04EB4403 		add	r3, r4, r4, lsl #1
 2006 0020 144A     		ldr	r2, .L123
 2007 0022 02EBC303 		add	r3, r2, r3, lsl #3
 2008 0026 586A     		ldr	r0, [r3, #36]
 2009              		.loc 1 1338 9 discriminator 3 view .LVU602
 2010 0028 421C     		adds	r2, r0, #1
 2011              	.LVL215:
1339:../Common/debuglog/SEGGER_RTT_V792h/RTT/SEGGER_RTT.c ****   if (WrOff == pRing->SizeOfBuffer) {
 2012              		.loc 1 1339 3 is_stmt 1 discriminator 3 view .LVU603
 2013              		.loc 1 1339 21 is_stmt 0 discriminator 3 view .LVU604
 2014 002a 1B6A     		ldr	r3, [r3, #32]
 2015              		.loc 1 1339 6 discriminator 3 view .LVU605
 2016 002c 9342     		cmp	r3, r2
 2017 002e 1CD0     		beq	.L122
 2018              	.LVL216:
 2019              	.L116:
1340:../Common/debuglog/SEGGER_RTT_V792h/RTT/SEGGER_RTT.c ****     WrOff = 0;
1341:../Common/debuglog/SEGGER_RTT_V792h/RTT/SEGGER_RTT.c ****   }
1342:../Common/debuglog/SEGGER_RTT_V792h/RTT/SEGGER_RTT.c ****   //
1343:../Common/debuglog/SEGGER_RTT_V792h/RTT/SEGGER_RTT.c ****   // Output byte if free space is available
1344:../Common/debuglog/SEGGER_RTT_V792h/RTT/SEGGER_RTT.c ****   //
1345:../Common/debuglog/SEGGER_RTT_V792h/RTT/SEGGER_RTT.c ****   if (WrOff != pRing->RdOff) {
 2020              		.loc 1 1345 3 is_stmt 1 view .LVU606
 2021              		.loc 1 1345 21 is_stmt 0 view .LVU607
 2022 0030 04EB4403 		add	r3, r4, r4, lsl #1
 2023 0034 0F49     		ldr	r1, .L123
 2024 0036 01EBC303 		add	r3, r1, r3, lsl #3
 2025 003a 9B6A     		ldr	r3, [r3, #40]
 2026              		.loc 1 1345 6 view .LVU608
 2027 003c 9342     		cmp	r3, r2
 2028 003e 16D0     		beq	.L119
1346:../Common/debuglog/SEGGER_RTT_V792h/RTT/SEGGER_RTT.c ****     pDst  = (pRing->pBuffer + pRing->WrOff) + SEGGER_RTT_UNCACHED_OFF;
 2029              		.loc 1 1346 5 is_stmt 1 view .LVU609
 2030              		.loc 1 1346 19 is_stmt 0 view .LVU610
 2031 0040 631C     		adds	r3, r4, #1
 2032 0042 03EB4303 		add	r3, r3, r3, lsl #1
 2033 0046 01EBC303 		add	r3, r1, r3, lsl #3
 2034 004a 5B68     		ldr	r3, [r3, #4]
ARM GAS  C:\Users\57308\AppData\Local\Temp\cc5NLGGx.s 			page 65


 2035              	.LVL217:
1347:../Common/debuglog/SEGGER_RTT_V792h/RTT/SEGGER_RTT.c ****     *pDst = c;
 2036              		.loc 1 1347 5 is_stmt 1 view .LVU611
 2037              		.loc 1 1347 11 is_stmt 0 view .LVU612
 2038 004c 1D54     		strb	r5, [r3, r0]
1348:../Common/debuglog/SEGGER_RTT_V792h/RTT/SEGGER_RTT.c ****     RTT__DMB();                     // Force data write to be complete before writing the <WrOff>, 
 2039              		.loc 1 1348 5 is_stmt 1 view .LVU613
 2040              		.syntax unified
 2041              	@ 1348 "../Common/debuglog/SEGGER_RTT_V792h/RTT/SEGGER_RTT.c" 1
 2042 004e BFF35F8F 		dmb
 2043              	
 2044              	@ 0 "" 2
 2045              		.loc 1 1348 15 view .LVU614
1349:../Common/debuglog/SEGGER_RTT_V792h/RTT/SEGGER_RTT.c ****     pRing->WrOff = WrOff;
 2046              		.loc 1 1349 5 view .LVU615
 2047              		.loc 1 1349 18 is_stmt 0 view .LVU616
 2048              		.thumb
 2049              		.syntax unified
 2050 0052 04EB4404 		add	r4, r4, r4, lsl #1
 2051              	.LVL218:
 2052              		.loc 1 1349 18 view .LVU617
 2053 0056 01EBC404 		add	r4, r1, r4, lsl #3
 2054 005a 6262     		str	r2, [r4, #36]
1350:../Common/debuglog/SEGGER_RTT_V792h/RTT/SEGGER_RTT.c ****     Status = 1;
 2055              		.loc 1 1350 5 is_stmt 1 view .LVU618
 2056              	.LVL219:
 2057              		.loc 1 1350 12 is_stmt 0 view .LVU619
 2058 005c 0120     		movs	r0, #1
 2059              	.LVL220:
 2060              	.L117:
1351:../Common/debuglog/SEGGER_RTT_V792h/RTT/SEGGER_RTT.c ****   } else {
1352:../Common/debuglog/SEGGER_RTT_V792h/RTT/SEGGER_RTT.c ****     Status = 0;
1353:../Common/debuglog/SEGGER_RTT_V792h/RTT/SEGGER_RTT.c ****   }
1354:../Common/debuglog/SEGGER_RTT_V792h/RTT/SEGGER_RTT.c ****   //
1355:../Common/debuglog/SEGGER_RTT_V792h/RTT/SEGGER_RTT.c ****   // Finish up.
1356:../Common/debuglog/SEGGER_RTT_V792h/RTT/SEGGER_RTT.c ****   //
1357:../Common/debuglog/SEGGER_RTT_V792h/RTT/SEGGER_RTT.c ****   SEGGER_RTT_UNLOCK();
