ARM GAS  C:\Users\57308\AppData\Local\Temp\ccQYMVA7.s 			page 1


   1              		.cpu cortex-m4
   2              		.arch armv7e-m
   3              		.fpu fpv4-sp-d16
   4              		.eabi_attribute 27, 1
   5              		.eabi_attribute 28, 1
   6              		.eabi_attribute 20, 1
   7              		.eabi_attribute 21, 1
   8              		.eabi_attribute 23, 3
   9              		.eabi_attribute 24, 1
  10              		.eabi_attribute 25, 1
  11              		.eabi_attribute 26, 1
  12              		.eabi_attribute 30, 1
  13              		.eabi_attribute 34, 1
  14              		.eabi_attribute 18, 4
  15              		.file	"spi.c"
  16              		.text
  17              	.Ltext0:
  18              		.cfi_sections	.debug_frame
  19              		.section	.text.MX_SPI3_Init,"ax",%progbits
  20              		.align	1
  21              		.global	MX_SPI3_Init
  22              		.syntax unified
  23              		.thumb
  24              		.thumb_func
  26              	MX_SPI3_Init:
  27              	.LFB235:
  28              		.file 1 "Src/spi.c"
   1:Src/spi.c     **** /* USER CODE BEGIN Header */
   2:Src/spi.c     **** /**
   3:Src/spi.c     ****   ******************************************************************************
   4:Src/spi.c     ****   * @file    spi.c
   5:Src/spi.c     ****   * @brief   This file provides code for the configuration
   6:Src/spi.c     ****   *          of the SPI instances.
   7:Src/spi.c     ****   ******************************************************************************
   8:Src/spi.c     ****   * @attention
   9:Src/spi.c     ****   *
  10:Src/spi.c     ****   * Copyright (c) 2024 STMicroelectronics.
  11:Src/spi.c     ****   * All rights reserved.
  12:Src/spi.c     ****   *
  13:Src/spi.c     ****   * This software is licensed under terms that can be found in the LICENSE file
  14:Src/spi.c     ****   * in the root directory of this software component.
  15:Src/spi.c     ****   * If no LICENSE file comes with this software, it is provided AS-IS.
  16:Src/spi.c     ****   *
  17:Src/spi.c     ****   ******************************************************************************
  18:Src/spi.c     ****   */
  19:Src/spi.c     **** /* USER CODE END Header */
  20:Src/spi.c     **** /* Includes ------------------------------------------------------------------*/
  21:Src/spi.c     **** #include "spi.h"
  22:Src/spi.c     **** 
  23:Src/spi.c     **** /* USER CODE BEGIN 0 */
  24:Src/spi.c     **** 
  25:Src/spi.c     **** /* USER CODE END 0 */
  26:Src/spi.c     **** 
  27:Src/spi.c     **** SPI_HandleTypeDef hspi3;
  28:Src/spi.c     **** 
  29:Src/spi.c     **** /* SPI3 init function */
  30:Src/spi.c     **** void MX_SPI3_Init(void)
ARM GAS  C:\Users\57308\AppData\Local\Temp\ccQYMVA7.s 			page 2


  31:Src/spi.c     **** {
  29              		.loc 1 31 1 view -0
  30              		.cfi_startproc
  31              		@ args = 0, pretend = 0, frame = 0
  32              		@ frame_needed = 0, uses_anonymous_args = 0
  33 0000 08B5     		push	{r3, lr}
  34              	.LCFI0:
  35              		.cfi_def_cfa_offset 8
  36              		.cfi_offset 3, -8
  37              		.cfi_offset 14, -4
  32:Src/spi.c     **** 
  33:Src/spi.c     ****   /* USER CODE BEGIN SPI3_Init 0 */
  34:Src/spi.c     **** 
  35:Src/spi.c     ****   /* USER CODE END SPI3_Init 0 */
  36:Src/spi.c     **** 
  37:Src/spi.c     ****   /* USER CODE BEGIN SPI3_Init 1 */
  38:Src/spi.c     **** 
  39:Src/spi.c     ****   /* USER CODE END SPI3_Init 1 */
  40:Src/spi.c     ****   hspi3.Instance = SPI3;
  38              		.loc 1 40 3 view .LVU1
  39              		.loc 1 40 18 is_stmt 0 view .LVU2
  40 0002 0F48     		ldr	r0, .L5
  41 0004 0F4B     		ldr	r3, .L5+4
  42 0006 0360     		str	r3, [r0]
  41:Src/spi.c     ****   hspi3.Init.Mode = SPI_MODE_MASTER;
  43              		.loc 1 41 3 is_stmt 1 view .LVU3
  44              		.loc 1 41 19 is_stmt 0 view .LVU4
  45 0008 4FF48273 		mov	r3, #260
  46 000c 4360     		str	r3, [r0, #4]
  42:Src/spi.c     ****   hspi3.Init.Direction = SPI_DIRECTION_2LINES;
  47              		.loc 1 42 3 is_stmt 1 view .LVU5
  48              		.loc 1 42 24 is_stmt 0 view .LVU6
  49 000e 0023     		movs	r3, #0
  50 0010 8360     		str	r3, [r0, #8]
  43:Src/spi.c     ****   hspi3.Init.DataSize = SPI_DATASIZE_16BIT;
  51              		.loc 1 43 3 is_stmt 1 view .LVU7
  52              		.loc 1 43 23 is_stmt 0 view .LVU8
  53 0012 4FF40062 		mov	r2, #2048
  54 0016 C260     		str	r2, [r0, #12]
  44:Src/spi.c     ****   hspi3.Init.CLKPolarity = SPI_POLARITY_LOW;
  55              		.loc 1 44 3 is_stmt 1 view .LVU9
  56              		.loc 1 44 26 is_stmt 0 view .LVU10
  57 0018 0361     		str	r3, [r0, #16]
  45:Src/spi.c     ****   hspi3.Init.CLKPhase = SPI_PHASE_2EDGE;
  58              		.loc 1 45 3 is_stmt 1 view .LVU11
  59              		.loc 1 45 23 is_stmt 0 view .LVU12
  60 001a 0122     		movs	r2, #1
  61 001c 4261     		str	r2, [r0, #20]
  46:Src/spi.c     ****   hspi3.Init.NSS = SPI_NSS_SOFT;
  62              		.loc 1 46 3 is_stmt 1 view .LVU13
  63              		.loc 1 46 18 is_stmt 0 view .LVU14
  64 001e 4FF40072 		mov	r2, #512
  65 0022 8261     		str	r2, [r0, #24]
  47:Src/spi.c     ****   hspi3.Init.BaudRatePrescaler = SPI_BAUDRATEPRESCALER_4;
  66              		.loc 1 47 3 is_stmt 1 view .LVU15
  67              		.loc 1 47 32 is_stmt 0 view .LVU16
  68 0024 0822     		movs	r2, #8
ARM GAS  C:\Users\57308\AppData\Local\Temp\ccQYMVA7.s 			page 3


  69 0026 C261     		str	r2, [r0, #28]
  48:Src/spi.c     ****   hspi3.Init.FirstBit = SPI_FIRSTBIT_MSB;
  70              		.loc 1 48 3 is_stmt 1 view .LVU17
  71              		.loc 1 48 23 is_stmt 0 view .LVU18
  72 0028 0362     		str	r3, [r0, #32]
  49:Src/spi.c     ****   hspi3.Init.TIMode = SPI_TIMODE_DISABLE;
  73              		.loc 1 49 3 is_stmt 1 view .LVU19
  74              		.loc 1 49 21 is_stmt 0 view .LVU20
  75 002a 4362     		str	r3, [r0, #36]
  50:Src/spi.c     ****   hspi3.Init.CRCCalculation = SPI_CRCCALCULATION_DISABLE;
  76              		.loc 1 50 3 is_stmt 1 view .LVU21
  77              		.loc 1 50 29 is_stmt 0 view .LVU22
  78 002c 8362     		str	r3, [r0, #40]
  51:Src/spi.c     ****   hspi3.Init.CRCPolynomial = 10;
  79              		.loc 1 51 3 is_stmt 1 view .LVU23
  80              		.loc 1 51 28 is_stmt 0 view .LVU24
  81 002e 0A23     		movs	r3, #10
  82 0030 C362     		str	r3, [r0, #44]
  52:Src/spi.c     ****   if (HAL_SPI_Init(&hspi3) != HAL_OK)
  83              		.loc 1 52 3 is_stmt 1 view .LVU25
  84              		.loc 1 52 7 is_stmt 0 view .LVU26
  85 0032 FFF7FEFF 		bl	HAL_SPI_Init
  86              	.LVL0:
  87              		.loc 1 52 6 view .LVU27
  88 0036 00B9     		cbnz	r0, .L4
  89              	.L1:
  53:Src/spi.c     ****   {
  54:Src/spi.c     ****     Error_Handler();
  55:Src/spi.c     ****   }
  56:Src/spi.c     ****   /* USER CODE BEGIN SPI3_Init 2 */
  57:Src/spi.c     **** 
  58:Src/spi.c     ****   /* USER CODE END SPI3_Init 2 */
  59:Src/spi.c     **** 
  60:Src/spi.c     **** }
  90              		.loc 1 60 1 view .LVU28
  91 0038 08BD     		pop	{r3, pc}
  92              	.L4:
  54:Src/spi.c     ****   }
  93              		.loc 1 54 5 is_stmt 1 view .LVU29
  94 003a FFF7FEFF 		bl	Error_Handler
  95              	.LVL1:
  96              		.loc 1 60 1 is_stmt 0 view .LVU30
  97 003e FBE7     		b	.L1
  98              	.L6:
  99              		.align	2
 100              	.L5:
 101 0040 00000000 		.word	.LANCHOR0
 102 0044 003C0040 		.word	1073757184
 103              		.cfi_endproc
 104              	.LFE235:
 106              		.section	.text.HAL_SPI_MspInit,"ax",%progbits
 107              		.align	1
 108              		.global	HAL_SPI_MspInit
 109              		.syntax unified
 110              		.thumb
 111              		.thumb_func
 113              	HAL_SPI_MspInit:
ARM GAS  C:\Users\57308\AppData\Local\Temp\ccQYMVA7.s 			page 4


 114              	.LVL2:
 115              	.LFB236:
  61:Src/spi.c     **** 
  62:Src/spi.c     **** void HAL_SPI_MspInit(SPI_HandleTypeDef* spiHandle)
  63:Src/spi.c     **** {
 116              		.loc 1 63 1 is_stmt 1 view -0
 117              		.cfi_startproc
 118              		@ args = 0, pretend = 0, frame = 32
 119              		@ frame_needed = 0, uses_anonymous_args = 0
 120              		.loc 1 63 1 is_stmt 0 view .LVU32
 121 0000 00B5     		push	{lr}
 122              	.LCFI1:
 123              		.cfi_def_cfa_offset 4
 124              		.cfi_offset 14, -4
 125 0002 89B0     		sub	sp, sp, #36
 126              	.LCFI2:
 127              		.cfi_def_cfa_offset 40
  64:Src/spi.c     **** 
  65:Src/spi.c     ****   GPIO_InitTypeDef GPIO_InitStruct = {0};
 128              		.loc 1 65 3 is_stmt 1 view .LVU33
 129              		.loc 1 65 20 is_stmt 0 view .LVU34
 130 0004 0023     		movs	r3, #0
 131 0006 0393     		str	r3, [sp, #12]
 132 0008 0493     		str	r3, [sp, #16]
 133 000a 0593     		str	r3, [sp, #20]
 134 000c 0693     		str	r3, [sp, #24]
 135 000e 0793     		str	r3, [sp, #28]
  66:Src/spi.c     ****   if(spiHandle->Instance==SPI3)
 136              		.loc 1 66 3 is_stmt 1 view .LVU35
 137              		.loc 1 66 15 is_stmt 0 view .LVU36
 138 0010 0268     		ldr	r2, [r0]
 139              		.loc 1 66 5 view .LVU37
 140 0012 154B     		ldr	r3, .L11
 141 0014 9A42     		cmp	r2, r3
 142 0016 02D0     		beq	.L10
 143              	.LVL3:
 144              	.L7:
  67:Src/spi.c     ****   {
  68:Src/spi.c     ****   /* USER CODE BEGIN SPI3_MspInit 0 */
  69:Src/spi.c     **** 
  70:Src/spi.c     ****   /* USER CODE END SPI3_MspInit 0 */
  71:Src/spi.c     ****     /* SPI3 clock enable */
  72:Src/spi.c     ****     __HAL_RCC_SPI3_CLK_ENABLE();
  73:Src/spi.c     **** 
  74:Src/spi.c     ****     __HAL_RCC_GPIOC_CLK_ENABLE();
  75:Src/spi.c     ****     /**SPI3 GPIO Configuration
  76:Src/spi.c     ****     PC10     ------> SPI3_SCK
  77:Src/spi.c     ****     PC11     ------> SPI3_MISO
  78:Src/spi.c     ****     PC12     ------> SPI3_MOSI
  79:Src/spi.c     ****     */
  80:Src/spi.c     ****     GPIO_InitStruct.Pin = GPIO_PIN_10|GPIO_PIN_11|GPIO_PIN_12;
  81:Src/spi.c     ****     GPIO_InitStruct.Mode = GPIO_MODE_AF_PP;
  82:Src/spi.c     ****     GPIO_InitStruct.Pull = GPIO_NOPULL;
  83:Src/spi.c     ****     GPIO_InitStruct.Speed = GPIO_SPEED_FREQ_VERY_HIGH;
  84:Src/spi.c     ****     GPIO_InitStruct.Alternate = GPIO_AF6_SPI3;
  85:Src/spi.c     ****     HAL_GPIO_Init(GPIOC, &GPIO_InitStruct);
  86:Src/spi.c     **** 
ARM GAS  C:\Users\57308\AppData\Local\Temp\ccQYMVA7.s 			page 5


  87:Src/spi.c     ****   /* USER CODE BEGIN SPI3_MspInit 1 */
  88:Src/spi.c     **** 
  89:Src/spi.c     ****   /* USER CODE END SPI3_MspInit 1 */
  90:Src/spi.c     ****   }
  91:Src/spi.c     **** }
 145              		.loc 1 91 1 view .LVU38
 146 0018 09B0     		add	sp, sp, #36
 147              	.LCFI3:
 148              		.cfi_remember_state
 149              		.cfi_def_cfa_offset 4
 150              		@ sp needed
 151 001a 5DF804FB 		ldr	pc, [sp], #4
 152              	.LVL4:
 153              	.L10:
 154              	.LCFI4:
 155              		.cfi_restore_state
  72:Src/spi.c     **** 
 156              		.loc 1 72 5 is_stmt 1 view .LVU39
 157              	.LBB2:
  72:Src/spi.c     **** 
 158              		.loc 1 72 5 view .LVU40
 159 001e 0021     		movs	r1, #0
 160 0020 0191     		str	r1, [sp, #4]
  72:Src/spi.c     **** 
 161              		.loc 1 72 5 view .LVU41
 162 0022 03F5FE33 		add	r3, r3, #130048
 163 0026 1A6C     		ldr	r2, [r3, #64]
 164 0028 42F40042 		orr	r2, r2, #32768
 165 002c 1A64     		str	r2, [r3, #64]
  72:Src/spi.c     **** 
 166              		.loc 1 72 5 view .LVU42
 167 002e 1A6C     		ldr	r2, [r3, #64]
 168 0030 02F40042 		and	r2, r2, #32768
 169 0034 0192     		str	r2, [sp, #4]
  72:Src/spi.c     **** 
 170              		.loc 1 72 5 view .LVU43
 171 0036 019A     		ldr	r2, [sp, #4]
 172              	.LBE2:
  72:Src/spi.c     **** 
 173              		.loc 1 72 5 view .LVU44
  74:Src/spi.c     ****     /**SPI3 GPIO Configuration
 174              		.loc 1 74 5 view .LVU45
 175              	.LBB3:
  74:Src/spi.c     ****     /**SPI3 GPIO Configuration
 176              		.loc 1 74 5 view .LVU46
 177 0038 0291     		str	r1, [sp, #8]
  74:Src/spi.c     ****     /**SPI3 GPIO Configuration
 178              		.loc 1 74 5 view .LVU47
 179 003a 1A6B     		ldr	r2, [r3, #48]
 180 003c 42F00402 		orr	r2, r2, #4
 181 0040 1A63     		str	r2, [r3, #48]
  74:Src/spi.c     ****     /**SPI3 GPIO Configuration
 182              		.loc 1 74 5 view .LVU48
 183 0042 1B6B     		ldr	r3, [r3, #48]
 184 0044 03F00403 		and	r3, r3, #4
 185 0048 0293     		str	r3, [sp, #8]
  74:Src/spi.c     ****     /**SPI3 GPIO Configuration
ARM GAS  C:\Users\57308\AppData\Local\Temp\ccQYMVA7.s 			page 6


 186              		.loc 1 74 5 view .LVU49
 187 004a 029B     		ldr	r3, [sp, #8]
 188              	.LBE3:
  74:Src/spi.c     ****     /**SPI3 GPIO Configuration
 189              		.loc 1 74 5 view .LVU50
  80:Src/spi.c     ****     GPIO_InitStruct.Mode = GPIO_MODE_AF_PP;
 190              		.loc 1 80 5 view .LVU51
  80:Src/spi.c     ****     GPIO_InitStruct.Mode = GPIO_MODE_AF_PP;
 191              		.loc 1 80 25 is_stmt 0 view .LVU52
 192 004c 4FF4E053 		mov	r3, #7168
 193 0050 0393     		str	r3, [sp, #12]
  81:Src/spi.c     ****     GPIO_InitStruct.Pull = GPIO_NOPULL;
 194              		.loc 1 81 5 is_stmt 1 view .LVU53
  81:Src/spi.c     ****     GPIO_InitStruct.Pull = GPIO_NOPULL;
 195              		.loc 1 81 26 is_stmt 0 view .LVU54
 196 0052 0223     		movs	r3, #2
 197 0054 0493     		str	r3, [sp, #16]
  82:Src/spi.c     ****     GPIO_InitStruct.Speed = GPIO_SPEED_FREQ_VERY_HIGH;
 198              		.loc 1 82 5 is_stmt 1 view .LVU55
  83:Src/spi.c     ****     GPIO_InitStruct.Alternate = GPIO_AF6_SPI3;
 199              		.loc 1 83 5 view .LVU56
  83:Src/spi.c     ****     GPIO_InitStruct.Alternate = GPIO_AF6_SPI3;
 200              		.loc 1 83 27 is_stmt 0 view .LVU57
 201 0056 0323     		movs	r3, #3
 202 0058 0693     		str	r3, [sp, #24]
  84:Src/spi.c     ****     HAL_GPIO_Init(GPIOC, &GPIO_InitStruct);
 203              		.loc 1 84 5 is_stmt 1 view .LVU58
  84:Src/spi.c     ****     HAL_GPIO_Init(GPIOC, &GPIO_InitStruct);
 204              		.loc 1 84 31 is_stmt 0 view .LVU59
 205 005a 0623     		movs	r3, #6
 206 005c 0793     		str	r3, [sp, #28]
  85:Src/spi.c     **** 
 207              		.loc 1 85 5 is_stmt 1 view .LVU60
 208 005e 03A9     		add	r1, sp, #12
 209 0060 0248     		ldr	r0, .L11+4
 210              	.LVL5:
  85:Src/spi.c     **** 
 211              		.loc 1 85 5 is_stmt 0 view .LVU61
 212 0062 FFF7FEFF 		bl	HAL_GPIO_Init
 213              	.LVL6:
 214              		.loc 1 91 1 view .LVU62
 215 0066 D7E7     		b	.L7
 216              	.L12:
 217              		.align	2
 218              	.L11:
 219 0068 003C0040 		.word	1073757184
 220 006c 00080240 		.word	1073874944
 221              		.cfi_endproc
 222              	.LFE236:
 224              		.section	.text.HAL_SPI_MspDeInit,"ax",%progbits
 225              		.align	1
 226              		.global	HAL_SPI_MspDeInit
 227              		.syntax unified
 228              		.thumb
 229              		.thumb_func
 231              	HAL_SPI_MspDeInit:
 232              	.LVL7:
ARM GAS  C:\Users\57308\AppData\Local\Temp\ccQYMVA7.s 			page 7


 233              	.LFB237:
  92:Src/spi.c     **** 
  93:Src/spi.c     **** void HAL_SPI_MspDeInit(SPI_HandleTypeDef* spiHandle)
  94:Src/spi.c     **** {
 234              		.loc 1 94 1 is_stmt 1 view -0
 235              		.cfi_startproc
 236              		@ args = 0, pretend = 0, frame = 0
 237              		@ frame_needed = 0, uses_anonymous_args = 0
 238              		.loc 1 94 1 is_stmt 0 view .LVU64
 239 0000 08B5     		push	{r3, lr}
 240              	.LCFI5:
 241              		.cfi_def_cfa_offset 8
 242              		.cfi_offset 3, -8
 243              		.cfi_offset 14, -4
  95:Src/spi.c     **** 
  96:Src/spi.c     ****   if(spiHandle->Instance==SPI3)
 244              		.loc 1 96 3 is_stmt 1 view .LVU65
 245              		.loc 1 96 15 is_stmt 0 view .LVU66
 246 0002 0268     		ldr	r2, [r0]
 247              		.loc 1 96 5 view .LVU67
 248 0004 074B     		ldr	r3, .L17
 249 0006 9A42     		cmp	r2, r3
 250 0008 00D0     		beq	.L16
 251              	.LVL8:
 252              	.L13:
  97:Src/spi.c     ****   {
  98:Src/spi.c     ****   /* USER CODE BEGIN SPI3_MspDeInit 0 */
  99:Src/spi.c     **** 
 100:Src/spi.c     ****   /* USER CODE END SPI3_MspDeInit 0 */
 101:Src/spi.c     ****     /* Peripheral clock disable */
 102:Src/spi.c     ****     __HAL_RCC_SPI3_CLK_DISABLE();
 103:Src/spi.c     **** 
 104:Src/spi.c     ****     /**SPI3 GPIO Configuration
 105:Src/spi.c     ****     PC10     ------> SPI3_SCK
 106:Src/spi.c     ****     PC11     ------> SPI3_MISO
 107:Src/spi.c     ****     PC12     ------> SPI3_MOSI
 108:Src/spi.c     ****     */
 109:Src/spi.c     ****     HAL_GPIO_DeInit(GPIOC, GPIO_PIN_10|GPIO_PIN_11|GPIO_PIN_12);
 110:Src/spi.c     **** 
 111:Src/spi.c     ****   /* USER CODE BEGIN SPI3_MspDeInit 1 */
 112:Src/spi.c     **** 
 113:Src/spi.c     ****   /* USER CODE END SPI3_MspDeInit 1 */
 114:Src/spi.c     ****   }
 115:Src/spi.c     **** }
 253              		.loc 1 115 1 view .LVU68
 254 000a 08BD     		pop	{r3, pc}
 255              	.LVL9:
 256              	.L16:
 102:Src/spi.c     **** 
 257              		.loc 1 102 5 is_stmt 1 view .LVU69
 258 000c 064A     		ldr	r2, .L17+4
 259 000e 136C     		ldr	r3, [r2, #64]
 260 0010 23F40043 		bic	r3, r3, #32768
 261 0014 1364     		str	r3, [r2, #64]
 109:Src/spi.c     **** 
 262              		.loc 1 109 5 view .LVU70
 263 0016 4FF4E051 		mov	r1, #7168
ARM GAS  C:\Users\57308\AppData\Local\Temp\ccQYMVA7.s 			page 8


 264 001a 0448     		ldr	r0, .L17+8
 265              	.LVL10:
 109:Src/spi.c     **** 
 266              		.loc 1 109 5 is_stmt 0 view .LVU71
 267 001c FFF7FEFF 		bl	HAL_GPIO_DeInit
 268              	.LVL11:
 269              		.loc 1 115 1 view .LVU72
 270 0020 F3E7     		b	.L13
 271              	.L18:
 272 0022 00BF     		.align	2
 273              	.L17:
 274 0024 003C0040 		.word	1073757184
 275 0028 00380240 		.word	1073887232
 276 002c 00080240 		.word	1073874944
 277              		.cfi_endproc
 278              	.LFE237:
 280              		.global	hspi3
 281              		.section	.bss.hspi3,"aw",%nobits
 282              		.align	2
 283              		.set	.LANCHOR0,. + 0
 286              	hspi3:
 287 0000 00000000 		.space	88
 287      00000000 
 287      00000000 
 287      00000000 
 287      00000000 
 288              		.text
 289              	.Letext0:
 290              		.file 2 "d:\\program files\\gcc-arm-none-eabi-10.3-2021.10\\arm-none-eabi\\include\\machine\\_defa
 291              		.file 3 "d:\\program files\\gcc-arm-none-eabi-10.3-2021.10\\arm-none-eabi\\include\\sys\\_stdint.h
 292              		.file 4 "Drivers/CMSIS/Device/ST/STM32F4xx/Include/stm32f405xx.h"
 293              		.file 5 "Drivers/STM32F4xx_HAL_Driver/Inc/stm32f4xx_hal_def.h"
 294              		.file 6 "Drivers/STM32F4xx_HAL_Driver/Inc/stm32f4xx_hal_gpio.h"
 295              		.file 7 "Drivers/STM32F4xx_HAL_Driver/Inc/stm32f4xx_hal_dma.h"
 296              		.file 8 "Drivers/STM32F4xx_HAL_Driver/Inc/stm32f4xx_hal_spi.h"
 297              		.file 9 "Inc/main.h"
 298              		.file 10 "Inc/spi.h"
ARM GAS  C:\Users\57308\AppData\Local\Temp\ccQYMVA7.s 			page 9

