ARM GAS  C:\Users\ADMINI~1\AppData\Local\Temp\cc7xIC5f.s 			page 1


   1              		.cpu cortex-m7
   2              		.eabi_attribute 28, 1
   3              		.eabi_attribute 20, 1
   4              		.eabi_attribute 21, 1
   5              		.eabi_attribute 23, 3
   6              		.eabi_attribute 24, 1
   7              		.eabi_attribute 25, 1
   8              		.eabi_attribute 26, 1
   9              		.eabi_attribute 30, 1
  10              		.eabi_attribute 34, 1
  11              		.eabi_attribute 18, 4
  12              		.file	"stm32h7xx_hal_rcc.c"
  13              		.text
  14              	.Ltext0:
  15              		.cfi_sections	.debug_frame
  16              		.section	.text.HAL_RCC_DeInit,"ax",%progbits
  17              		.align	1
  18              		.global	HAL_RCC_DeInit
  19              		.arch armv7e-m
  20              		.syntax unified
  21              		.thumb
  22              		.thumb_func
  23              		.fpu fpv5-d16
  25              	HAL_RCC_DeInit:
  26              	.LFB144:
  27              		.file 1 "Drivers/STM32H7xx_HAL_Driver/Src/stm32h7xx_hal_rcc.c"
   1:Drivers/STM32H7xx_HAL_Driver/Src/stm32h7xx_hal_rcc.c **** /**
   2:Drivers/STM32H7xx_HAL_Driver/Src/stm32h7xx_hal_rcc.c ****   ******************************************************************************
   3:Drivers/STM32H7xx_HAL_Driver/Src/stm32h7xx_hal_rcc.c ****   * @file    stm32h7xx_hal_rcc.c
   4:Drivers/STM32H7xx_HAL_Driver/Src/stm32h7xx_hal_rcc.c ****   * @author  MCD Application Team
   5:Drivers/STM32H7xx_HAL_Driver/Src/stm32h7xx_hal_rcc.c ****   * @brief   RCC HAL module driver.
   6:Drivers/STM32H7xx_HAL_Driver/Src/stm32h7xx_hal_rcc.c ****   *          This file provides firmware functions to manage the following
   7:Drivers/STM32H7xx_HAL_Driver/Src/stm32h7xx_hal_rcc.c ****   *          functionalities of the Reset and Clock Control (RCC) peripheral:
   8:Drivers/STM32H7xx_HAL_Driver/Src/stm32h7xx_hal_rcc.c ****   *           + Initialization and de-initialization functions
   9:Drivers/STM32H7xx_HAL_Driver/Src/stm32h7xx_hal_rcc.c ****   *           + Peripheral Control functions
  10:Drivers/STM32H7xx_HAL_Driver/Src/stm32h7xx_hal_rcc.c ****   *
  11:Drivers/STM32H7xx_HAL_Driver/Src/stm32h7xx_hal_rcc.c ****   @verbatim
  12:Drivers/STM32H7xx_HAL_Driver/Src/stm32h7xx_hal_rcc.c ****   ==============================================================================
  13:Drivers/STM32H7xx_HAL_Driver/Src/stm32h7xx_hal_rcc.c ****                       ##### RCC specific features #####
  14:Drivers/STM32H7xx_HAL_Driver/Src/stm32h7xx_hal_rcc.c ****   ==============================================================================
  15:Drivers/STM32H7xx_HAL_Driver/Src/stm32h7xx_hal_rcc.c ****     [..]
  16:Drivers/STM32H7xx_HAL_Driver/Src/stm32h7xx_hal_rcc.c ****       After reset the device is running from Internal High Speed oscillator
  17:Drivers/STM32H7xx_HAL_Driver/Src/stm32h7xx_hal_rcc.c ****       (HSI 64MHz) with Flash 0 wait state,and all peripherals are off except
  18:Drivers/STM32H7xx_HAL_Driver/Src/stm32h7xx_hal_rcc.c ****       internal SRAM, Flash, JTAG and PWR
  19:Drivers/STM32H7xx_HAL_Driver/Src/stm32h7xx_hal_rcc.c ****       (+) There is no pre-scaler on High speed (AHB) and Low speed (APB) buses;
  20:Drivers/STM32H7xx_HAL_Driver/Src/stm32h7xx_hal_rcc.c ****           all peripherals mapped on these buses are running at HSI speed.
  21:Drivers/STM32H7xx_HAL_Driver/Src/stm32h7xx_hal_rcc.c ****       (+) The clock for all peripherals is switched off, except the SRAM and FLASH.
  22:Drivers/STM32H7xx_HAL_Driver/Src/stm32h7xx_hal_rcc.c ****       (+) All GPIOs are in analogue mode , except the JTAG pins which
  23:Drivers/STM32H7xx_HAL_Driver/Src/stm32h7xx_hal_rcc.c ****           are assigned to be used for debug purpose.
  24:Drivers/STM32H7xx_HAL_Driver/Src/stm32h7xx_hal_rcc.c **** 
  25:Drivers/STM32H7xx_HAL_Driver/Src/stm32h7xx_hal_rcc.c ****     [..]
  26:Drivers/STM32H7xx_HAL_Driver/Src/stm32h7xx_hal_rcc.c ****       Once the device started from reset, the user application has to:
  27:Drivers/STM32H7xx_HAL_Driver/Src/stm32h7xx_hal_rcc.c ****       (+) Configure the clock source to be used to drive the System clock
  28:Drivers/STM32H7xx_HAL_Driver/Src/stm32h7xx_hal_rcc.c ****           (if the application needs higher frequency/performance)
  29:Drivers/STM32H7xx_HAL_Driver/Src/stm32h7xx_hal_rcc.c ****       (+) Configure the System clock frequency and Flash settings
  30:Drivers/STM32H7xx_HAL_Driver/Src/stm32h7xx_hal_rcc.c ****       (+) Configure the AHB and APB buses pre-scalers
  31:Drivers/STM32H7xx_HAL_Driver/Src/stm32h7xx_hal_rcc.c ****       (+) Enable the clock for the peripheral(s) to be used
ARM GAS  C:\Users\ADMINI~1\AppData\Local\Temp\cc7xIC5f.s 			page 2


  32:Drivers/STM32H7xx_HAL_Driver/Src/stm32h7xx_hal_rcc.c ****       (+) Configure the clock kernel source(s) for peripherals which clocks are not
  33:Drivers/STM32H7xx_HAL_Driver/Src/stm32h7xx_hal_rcc.c ****           derived from the System clock through :RCC_D1CCIPR,RCC_D2CCIP1R,RCC_D2CCIP2R
  34:Drivers/STM32H7xx_HAL_Driver/Src/stm32h7xx_hal_rcc.c ****           and RCC_D3CCIPR registers
  35:Drivers/STM32H7xx_HAL_Driver/Src/stm32h7xx_hal_rcc.c **** 
  36:Drivers/STM32H7xx_HAL_Driver/Src/stm32h7xx_hal_rcc.c ****                       ##### RCC Limitations #####
  37:Drivers/STM32H7xx_HAL_Driver/Src/stm32h7xx_hal_rcc.c ****   ==============================================================================
  38:Drivers/STM32H7xx_HAL_Driver/Src/stm32h7xx_hal_rcc.c ****     [..]
  39:Drivers/STM32H7xx_HAL_Driver/Src/stm32h7xx_hal_rcc.c ****       A delay between an RCC peripheral clock enable and the effective peripheral
  40:Drivers/STM32H7xx_HAL_Driver/Src/stm32h7xx_hal_rcc.c ****       enabling should be taken into account in order to manage the peripheral read/write
  41:Drivers/STM32H7xx_HAL_Driver/Src/stm32h7xx_hal_rcc.c ****       from/to registers.
  42:Drivers/STM32H7xx_HAL_Driver/Src/stm32h7xx_hal_rcc.c ****       (+) This delay depends on the peripheral mapping.
  43:Drivers/STM32H7xx_HAL_Driver/Src/stm32h7xx_hal_rcc.c ****       (+) If peripheral is mapped on AHB: the delay is 2 AHB clock cycle
  44:Drivers/STM32H7xx_HAL_Driver/Src/stm32h7xx_hal_rcc.c ****           after the clock enable bit is set on the hardware register
  45:Drivers/STM32H7xx_HAL_Driver/Src/stm32h7xx_hal_rcc.c ****       (+) If peripheral is mapped on APB: the delay is 2 APB clock cycle
  46:Drivers/STM32H7xx_HAL_Driver/Src/stm32h7xx_hal_rcc.c ****           after the clock enable bit is set on the hardware register
  47:Drivers/STM32H7xx_HAL_Driver/Src/stm32h7xx_hal_rcc.c **** 
  48:Drivers/STM32H7xx_HAL_Driver/Src/stm32h7xx_hal_rcc.c ****     [..]
  49:Drivers/STM32H7xx_HAL_Driver/Src/stm32h7xx_hal_rcc.c ****       Implemented Workaround:
  50:Drivers/STM32H7xx_HAL_Driver/Src/stm32h7xx_hal_rcc.c ****       (+) For AHB & APB peripherals, a dummy read to the peripheral register has been
  51:Drivers/STM32H7xx_HAL_Driver/Src/stm32h7xx_hal_rcc.c ****           inserted in each __HAL_RCC_PPP_CLK_ENABLE() macro.
  52:Drivers/STM32H7xx_HAL_Driver/Src/stm32h7xx_hal_rcc.c **** 
  53:Drivers/STM32H7xx_HAL_Driver/Src/stm32h7xx_hal_rcc.c ****   @endverbatim
  54:Drivers/STM32H7xx_HAL_Driver/Src/stm32h7xx_hal_rcc.c ****  ******************************************************************************
  55:Drivers/STM32H7xx_HAL_Driver/Src/stm32h7xx_hal_rcc.c ****   * @attention
  56:Drivers/STM32H7xx_HAL_Driver/Src/stm32h7xx_hal_rcc.c ****   *
  57:Drivers/STM32H7xx_HAL_Driver/Src/stm32h7xx_hal_rcc.c ****   * Copyright (c) 2017 STMicroelectronics.
  58:Drivers/STM32H7xx_HAL_Driver/Src/stm32h7xx_hal_rcc.c ****   * All rights reserved.
  59:Drivers/STM32H7xx_HAL_Driver/Src/stm32h7xx_hal_rcc.c ****   *
  60:Drivers/STM32H7xx_HAL_Driver/Src/stm32h7xx_hal_rcc.c ****   * This software is licensed under terms that can be found in the LICENSE file in
  61:Drivers/STM32H7xx_HAL_Driver/Src/stm32h7xx_hal_rcc.c ****   * the root directory of this software component.
  62:Drivers/STM32H7xx_HAL_Driver/Src/stm32h7xx_hal_rcc.c ****   * If no LICENSE file comes with this software, it is provided AS-IS.
  63:Drivers/STM32H7xx_HAL_Driver/Src/stm32h7xx_hal_rcc.c ****   ******************************************************************************
  64:Drivers/STM32H7xx_HAL_Driver/Src/stm32h7xx_hal_rcc.c ****   */
  65:Drivers/STM32H7xx_HAL_Driver/Src/stm32h7xx_hal_rcc.c **** 
  66:Drivers/STM32H7xx_HAL_Driver/Src/stm32h7xx_hal_rcc.c **** /* Includes ------------------------------------------------------------------*/
  67:Drivers/STM32H7xx_HAL_Driver/Src/stm32h7xx_hal_rcc.c **** #include "stm32h7xx_hal.h"
  68:Drivers/STM32H7xx_HAL_Driver/Src/stm32h7xx_hal_rcc.c **** 
  69:Drivers/STM32H7xx_HAL_Driver/Src/stm32h7xx_hal_rcc.c **** /** @addtogroup STM32H7xx_HAL_Driver
  70:Drivers/STM32H7xx_HAL_Driver/Src/stm32h7xx_hal_rcc.c ****   * @{
  71:Drivers/STM32H7xx_HAL_Driver/Src/stm32h7xx_hal_rcc.c ****   */
  72:Drivers/STM32H7xx_HAL_Driver/Src/stm32h7xx_hal_rcc.c **** 
  73:Drivers/STM32H7xx_HAL_Driver/Src/stm32h7xx_hal_rcc.c **** /** @defgroup RCC  RCC
  74:Drivers/STM32H7xx_HAL_Driver/Src/stm32h7xx_hal_rcc.c ****   * @brief RCC HAL module driver
  75:Drivers/STM32H7xx_HAL_Driver/Src/stm32h7xx_hal_rcc.c ****   * @{
  76:Drivers/STM32H7xx_HAL_Driver/Src/stm32h7xx_hal_rcc.c ****   */
  77:Drivers/STM32H7xx_HAL_Driver/Src/stm32h7xx_hal_rcc.c **** 
  78:Drivers/STM32H7xx_HAL_Driver/Src/stm32h7xx_hal_rcc.c **** #ifdef HAL_RCC_MODULE_ENABLED
  79:Drivers/STM32H7xx_HAL_Driver/Src/stm32h7xx_hal_rcc.c **** 
  80:Drivers/STM32H7xx_HAL_Driver/Src/stm32h7xx_hal_rcc.c **** /* Private typedef -----------------------------------------------------------*/
  81:Drivers/STM32H7xx_HAL_Driver/Src/stm32h7xx_hal_rcc.c **** /* Private define ------------------------------------------------------------*/
  82:Drivers/STM32H7xx_HAL_Driver/Src/stm32h7xx_hal_rcc.c **** /* Private macro -------------------------------------------------------------*/
  83:Drivers/STM32H7xx_HAL_Driver/Src/stm32h7xx_hal_rcc.c **** /** @defgroup RCC_Private_Macros RCC Private Macros
  84:Drivers/STM32H7xx_HAL_Driver/Src/stm32h7xx_hal_rcc.c ****   * @{
  85:Drivers/STM32H7xx_HAL_Driver/Src/stm32h7xx_hal_rcc.c ****   */
  86:Drivers/STM32H7xx_HAL_Driver/Src/stm32h7xx_hal_rcc.c **** #define MCO1_CLK_ENABLE()     __HAL_RCC_GPIOA_CLK_ENABLE()
  87:Drivers/STM32H7xx_HAL_Driver/Src/stm32h7xx_hal_rcc.c **** #define MCO1_GPIO_PORT        GPIOA
  88:Drivers/STM32H7xx_HAL_Driver/Src/stm32h7xx_hal_rcc.c **** #define MCO1_PIN              GPIO_PIN_8
ARM GAS  C:\Users\ADMINI~1\AppData\Local\Temp\cc7xIC5f.s 			page 3


  89:Drivers/STM32H7xx_HAL_Driver/Src/stm32h7xx_hal_rcc.c **** 
  90:Drivers/STM32H7xx_HAL_Driver/Src/stm32h7xx_hal_rcc.c **** #define MCO2_CLK_ENABLE()      __HAL_RCC_GPIOC_CLK_ENABLE()
  91:Drivers/STM32H7xx_HAL_Driver/Src/stm32h7xx_hal_rcc.c **** #define MCO2_GPIO_PORT         GPIOC
  92:Drivers/STM32H7xx_HAL_Driver/Src/stm32h7xx_hal_rcc.c **** #define MCO2_PIN               GPIO_PIN_9
  93:Drivers/STM32H7xx_HAL_Driver/Src/stm32h7xx_hal_rcc.c **** 
  94:Drivers/STM32H7xx_HAL_Driver/Src/stm32h7xx_hal_rcc.c **** /**
  95:Drivers/STM32H7xx_HAL_Driver/Src/stm32h7xx_hal_rcc.c ****   * @}
  96:Drivers/STM32H7xx_HAL_Driver/Src/stm32h7xx_hal_rcc.c ****   */
  97:Drivers/STM32H7xx_HAL_Driver/Src/stm32h7xx_hal_rcc.c **** /* Private variables ---------------------------------------------------------*/
  98:Drivers/STM32H7xx_HAL_Driver/Src/stm32h7xx_hal_rcc.c **** /** @defgroup RCC_Private_Variables RCC Private Variables
  99:Drivers/STM32H7xx_HAL_Driver/Src/stm32h7xx_hal_rcc.c ****   * @{
 100:Drivers/STM32H7xx_HAL_Driver/Src/stm32h7xx_hal_rcc.c ****   */
 101:Drivers/STM32H7xx_HAL_Driver/Src/stm32h7xx_hal_rcc.c **** 
 102:Drivers/STM32H7xx_HAL_Driver/Src/stm32h7xx_hal_rcc.c **** /**
 103:Drivers/STM32H7xx_HAL_Driver/Src/stm32h7xx_hal_rcc.c ****   * @}
 104:Drivers/STM32H7xx_HAL_Driver/Src/stm32h7xx_hal_rcc.c ****   */
 105:Drivers/STM32H7xx_HAL_Driver/Src/stm32h7xx_hal_rcc.c **** /* Private function prototypes -----------------------------------------------*/
 106:Drivers/STM32H7xx_HAL_Driver/Src/stm32h7xx_hal_rcc.c **** /* Exported functions --------------------------------------------------------*/
 107:Drivers/STM32H7xx_HAL_Driver/Src/stm32h7xx_hal_rcc.c **** 
 108:Drivers/STM32H7xx_HAL_Driver/Src/stm32h7xx_hal_rcc.c **** /** @defgroup RCC_Exported_Functions RCC Exported Functions
 109:Drivers/STM32H7xx_HAL_Driver/Src/stm32h7xx_hal_rcc.c ****   * @{
 110:Drivers/STM32H7xx_HAL_Driver/Src/stm32h7xx_hal_rcc.c ****   */
 111:Drivers/STM32H7xx_HAL_Driver/Src/stm32h7xx_hal_rcc.c **** 
 112:Drivers/STM32H7xx_HAL_Driver/Src/stm32h7xx_hal_rcc.c **** /** @defgroup RCC_Exported_Functions_Group1 Initialization and de-initialization functions
 113:Drivers/STM32H7xx_HAL_Driver/Src/stm32h7xx_hal_rcc.c ****  *  @brief    Initialization and Configuration functions
 114:Drivers/STM32H7xx_HAL_Driver/Src/stm32h7xx_hal_rcc.c ****  *
 115:Drivers/STM32H7xx_HAL_Driver/Src/stm32h7xx_hal_rcc.c **** @verbatim
 116:Drivers/STM32H7xx_HAL_Driver/Src/stm32h7xx_hal_rcc.c ****  ===============================================================================
 117:Drivers/STM32H7xx_HAL_Driver/Src/stm32h7xx_hal_rcc.c ****            ##### Initialization and de-initialization functions #####
 118:Drivers/STM32H7xx_HAL_Driver/Src/stm32h7xx_hal_rcc.c ****  ===============================================================================
 119:Drivers/STM32H7xx_HAL_Driver/Src/stm32h7xx_hal_rcc.c ****     [..]
 120:Drivers/STM32H7xx_HAL_Driver/Src/stm32h7xx_hal_rcc.c ****       This section provides functions allowing to configure the internal/external oscillators
 121:Drivers/STM32H7xx_HAL_Driver/Src/stm32h7xx_hal_rcc.c ****       (HSE, HSI, LSE,CSI, LSI,HSI48, PLL, CSS and MCO) and the System buses clocks (SYSCLK, AHB3, A
 122:Drivers/STM32H7xx_HAL_Driver/Src/stm32h7xx_hal_rcc.c ****        AHB2,AHB4,APB3, APB1L, APB1H, APB2, and APB4).
 123:Drivers/STM32H7xx_HAL_Driver/Src/stm32h7xx_hal_rcc.c **** 
 124:Drivers/STM32H7xx_HAL_Driver/Src/stm32h7xx_hal_rcc.c ****     [..] Internal/external clock and PLL configuration
 125:Drivers/STM32H7xx_HAL_Driver/Src/stm32h7xx_hal_rcc.c ****          (#) HSI (high-speed internal), 64 MHz factory-trimmed RC used directly or through
 126:Drivers/STM32H7xx_HAL_Driver/Src/stm32h7xx_hal_rcc.c ****              the PLL as System clock source.
 127:Drivers/STM32H7xx_HAL_Driver/Src/stm32h7xx_hal_rcc.c ****          (#) CSI is a low-power RC oscillator which can be used directly as system clock, periphera
 128:Drivers/STM32H7xx_HAL_Driver/Src/stm32h7xx_hal_rcc.c ****              clock, or PLL input.But even with frequency calibration, is less accurate than an
 129:Drivers/STM32H7xx_HAL_Driver/Src/stm32h7xx_hal_rcc.c ****              external crystal oscillator or ceramic resonator.
 130:Drivers/STM32H7xx_HAL_Driver/Src/stm32h7xx_hal_rcc.c ****          (#) LSI (low-speed internal), 32 KHz low consumption RC used as IWDG and/or RTC
 131:Drivers/STM32H7xx_HAL_Driver/Src/stm32h7xx_hal_rcc.c ****              clock source.
 132:Drivers/STM32H7xx_HAL_Driver/Src/stm32h7xx_hal_rcc.c **** 
 133:Drivers/STM32H7xx_HAL_Driver/Src/stm32h7xx_hal_rcc.c ****          (#) HSE (high-speed external), 4 to 48 MHz crystal oscillator used directly or
 134:Drivers/STM32H7xx_HAL_Driver/Src/stm32h7xx_hal_rcc.c ****              through the PLL as System clock source. Can be used also as RTC clock source.
 135:Drivers/STM32H7xx_HAL_Driver/Src/stm32h7xx_hal_rcc.c **** 
 136:Drivers/STM32H7xx_HAL_Driver/Src/stm32h7xx_hal_rcc.c ****          (#) LSE (low-speed external), 32 KHz oscillator used as RTC clock source.
 137:Drivers/STM32H7xx_HAL_Driver/Src/stm32h7xx_hal_rcc.c **** 
 138:Drivers/STM32H7xx_HAL_Driver/Src/stm32h7xx_hal_rcc.c ****          (#) PLL , The RCC features three independent PLLs (clocked by HSI , HSE or CSI),
 139:Drivers/STM32H7xx_HAL_Driver/Src/stm32h7xx_hal_rcc.c ****              featuring three different output clocks and able  to work either in integer or Fractio
 140:Drivers/STM32H7xx_HAL_Driver/Src/stm32h7xx_hal_rcc.c ****            (++) A main PLL, PLL1, which is generally used to provide clocks to the CPU
 141:Drivers/STM32H7xx_HAL_Driver/Src/stm32h7xx_hal_rcc.c ****                 and to some peripherals.
 142:Drivers/STM32H7xx_HAL_Driver/Src/stm32h7xx_hal_rcc.c ****            (++) Two dedicated PLLs, PLL2 and PLL3, which are used to generate the kernel clock for 
 143:Drivers/STM32H7xx_HAL_Driver/Src/stm32h7xx_hal_rcc.c **** 
 144:Drivers/STM32H7xx_HAL_Driver/Src/stm32h7xx_hal_rcc.c **** 
 145:Drivers/STM32H7xx_HAL_Driver/Src/stm32h7xx_hal_rcc.c ****          (#) CSS (Clock security system), once enabled and if a HSE clock failure occurs
ARM GAS  C:\Users\ADMINI~1\AppData\Local\Temp\cc7xIC5f.s 			page 4


 146:Drivers/STM32H7xx_HAL_Driver/Src/stm32h7xx_hal_rcc.c ****             (HSE used directly or through PLL as System clock source), the System clock
 147:Drivers/STM32H7xx_HAL_Driver/Src/stm32h7xx_hal_rcc.c ****              is automatically switched to HSI and an interrupt is generated if enabled.
 148:Drivers/STM32H7xx_HAL_Driver/Src/stm32h7xx_hal_rcc.c ****              The interrupt is linked to the Cortex-M NMI (Non-Mask-able Interrupt)
 149:Drivers/STM32H7xx_HAL_Driver/Src/stm32h7xx_hal_rcc.c ****              exception vector.
 150:Drivers/STM32H7xx_HAL_Driver/Src/stm32h7xx_hal_rcc.c **** 
 151:Drivers/STM32H7xx_HAL_Driver/Src/stm32h7xx_hal_rcc.c ****          (#) MCO1 (micro controller clock output), used to output HSI, LSE, HSE, PLL1(PLL1_Q)
 152:Drivers/STM32H7xx_HAL_Driver/Src/stm32h7xx_hal_rcc.c ****              or HSI48 clock (through a configurable pre-scaler) on PA8 pin.
 153:Drivers/STM32H7xx_HAL_Driver/Src/stm32h7xx_hal_rcc.c **** 
 154:Drivers/STM32H7xx_HAL_Driver/Src/stm32h7xx_hal_rcc.c ****          (#) MCO2 (micro controller clock output), used to output HSE, PLL2(PLL2_P), SYSCLK,
 155:Drivers/STM32H7xx_HAL_Driver/Src/stm32h7xx_hal_rcc.c ****              LSI, CSI, or PLL1(PLL1_P) clock (through a configurable pre-scaler) on PC9 pin.
 156:Drivers/STM32H7xx_HAL_Driver/Src/stm32h7xx_hal_rcc.c **** 
 157:Drivers/STM32H7xx_HAL_Driver/Src/stm32h7xx_hal_rcc.c ****     [..] System, AHB and APB buses clocks configuration
 158:Drivers/STM32H7xx_HAL_Driver/Src/stm32h7xx_hal_rcc.c ****          (#) Several clock sources can be used to drive the System clock (SYSCLK): CSI,HSI,
 159:Drivers/STM32H7xx_HAL_Driver/Src/stm32h7xx_hal_rcc.c ****              HSE and PLL.
 160:Drivers/STM32H7xx_HAL_Driver/Src/stm32h7xx_hal_rcc.c ****              The AHB clock (HCLK) is derived from System core clock through configurable
 161:Drivers/STM32H7xx_HAL_Driver/Src/stm32h7xx_hal_rcc.c ****              pre-scaler and used to clock the CPU, memory and peripherals mapped
 162:Drivers/STM32H7xx_HAL_Driver/Src/stm32h7xx_hal_rcc.c ****              on AHB and APB bus of the 3 Domains (D1, D2, D3)* through configurable pre-scalers
 163:Drivers/STM32H7xx_HAL_Driver/Src/stm32h7xx_hal_rcc.c ****              and used to clock the peripherals mapped on these buses. You can use
 164:Drivers/STM32H7xx_HAL_Driver/Src/stm32h7xx_hal_rcc.c ****              "HAL_RCC_GetSysClockFreq()" function to retrieve system clock frequency.
 165:Drivers/STM32H7xx_HAL_Driver/Src/stm32h7xx_hal_rcc.c **** 
 166:Drivers/STM32H7xx_HAL_Driver/Src/stm32h7xx_hal_rcc.c ****          -@- All the peripheral clocks are derived from the System clock (SYSCLK) except those
 167:Drivers/STM32H7xx_HAL_Driver/Src/stm32h7xx_hal_rcc.c ****              with dual clock domain where kernel source clock could be selected through
 168:Drivers/STM32H7xx_HAL_Driver/Src/stm32h7xx_hal_rcc.c ****              RCC_D1CCIPR,RCC_D2CCIP1R,RCC_D2CCIP2R and RCC_D3CCIPR registers.
 169:Drivers/STM32H7xx_HAL_Driver/Src/stm32h7xx_hal_rcc.c **** 
 170:Drivers/STM32H7xx_HAL_Driver/Src/stm32h7xx_hal_rcc.c ****      (*) : 2 Domains (CD and SRD) for stm32h7a3xx and stm32h7b3xx family lines.
 171:Drivers/STM32H7xx_HAL_Driver/Src/stm32h7xx_hal_rcc.c **** @endverbatim
 172:Drivers/STM32H7xx_HAL_Driver/Src/stm32h7xx_hal_rcc.c ****   * @{
 173:Drivers/STM32H7xx_HAL_Driver/Src/stm32h7xx_hal_rcc.c ****   */
 174:Drivers/STM32H7xx_HAL_Driver/Src/stm32h7xx_hal_rcc.c **** 
 175:Drivers/STM32H7xx_HAL_Driver/Src/stm32h7xx_hal_rcc.c **** /**
 176:Drivers/STM32H7xx_HAL_Driver/Src/stm32h7xx_hal_rcc.c ****   * @brief  Resets the RCC clock configuration to the default reset state.
 177:Drivers/STM32H7xx_HAL_Driver/Src/stm32h7xx_hal_rcc.c ****   * @note   The default reset state of the clock configuration is given below:
 178:Drivers/STM32H7xx_HAL_Driver/Src/stm32h7xx_hal_rcc.c ****   *            - HSI ON and used as system clock source
 179:Drivers/STM32H7xx_HAL_Driver/Src/stm32h7xx_hal_rcc.c ****   *            - HSE, PLL1, PLL2 and PLL3 OFF
 180:Drivers/STM32H7xx_HAL_Driver/Src/stm32h7xx_hal_rcc.c ****   *            - AHB, APB Bus pre-scaler set to 1.
 181:Drivers/STM32H7xx_HAL_Driver/Src/stm32h7xx_hal_rcc.c ****   *            - CSS, MCO1 and MCO2 OFF
 182:Drivers/STM32H7xx_HAL_Driver/Src/stm32h7xx_hal_rcc.c ****   *            - All interrupts disabled
 183:Drivers/STM32H7xx_HAL_Driver/Src/stm32h7xx_hal_rcc.c ****   * @note   This function doesn't modify the configuration of the
 184:Drivers/STM32H7xx_HAL_Driver/Src/stm32h7xx_hal_rcc.c ****   *            - Peripheral clocks
 185:Drivers/STM32H7xx_HAL_Driver/Src/stm32h7xx_hal_rcc.c ****   *            - LSI, LSE and RTC clocks
 186:Drivers/STM32H7xx_HAL_Driver/Src/stm32h7xx_hal_rcc.c ****   * @retval HAL status
 187:Drivers/STM32H7xx_HAL_Driver/Src/stm32h7xx_hal_rcc.c ****   */
 188:Drivers/STM32H7xx_HAL_Driver/Src/stm32h7xx_hal_rcc.c **** HAL_StatusTypeDef HAL_RCC_DeInit(void)
 189:Drivers/STM32H7xx_HAL_Driver/Src/stm32h7xx_hal_rcc.c **** {
  28              		.loc 1 189 1 view -0
  29              		.cfi_startproc
  30              		@ args = 0, pretend = 0, frame = 0
  31              		@ frame_needed = 0, uses_anonymous_args = 0
  32 0000 38B5     		push	{r3, r4, r5, lr}
  33              	.LCFI0:
  34              		.cfi_def_cfa_offset 16
  35              		.cfi_offset 3, -16
  36              		.cfi_offset 4, -12
  37              		.cfi_offset 5, -8
  38              		.cfi_offset 14, -4
 190:Drivers/STM32H7xx_HAL_Driver/Src/stm32h7xx_hal_rcc.c ****   uint32_t tickstart;
  39              		.loc 1 190 3 view .LVU1
ARM GAS  C:\Users\ADMINI~1\AppData\Local\Temp\cc7xIC5f.s 			page 5


 191:Drivers/STM32H7xx_HAL_Driver/Src/stm32h7xx_hal_rcc.c **** 
 192:Drivers/STM32H7xx_HAL_Driver/Src/stm32h7xx_hal_rcc.c ****         /* Increasing the CPU frequency */
 193:Drivers/STM32H7xx_HAL_Driver/Src/stm32h7xx_hal_rcc.c ****   if(FLASH_LATENCY_DEFAULT  > __HAL_FLASH_GET_LATENCY())
  40              		.loc 1 193 3 view .LVU2
  41              		.loc 1 193 31 is_stmt 0 view .LVU3
  42 0002 684B     		ldr	r3, .L33
  43 0004 1B68     		ldr	r3, [r3]
  44 0006 03F00F03 		and	r3, r3, #15
  45              		.loc 1 193 5 view .LVU4
  46 000a 062B     		cmp	r3, #6
  47 000c 0CD8     		bhi	.L2
 194:Drivers/STM32H7xx_HAL_Driver/Src/stm32h7xx_hal_rcc.c ****   {
 195:Drivers/STM32H7xx_HAL_Driver/Src/stm32h7xx_hal_rcc.c ****     /* Program the new number of wait states to the LATENCY bits in the FLASH_ACR register */
 196:Drivers/STM32H7xx_HAL_Driver/Src/stm32h7xx_hal_rcc.c ****     __HAL_FLASH_SET_LATENCY(FLASH_LATENCY_DEFAULT);
  48              		.loc 1 196 5 is_stmt 1 view .LVU5
  49 000e 654A     		ldr	r2, .L33
  50 0010 1368     		ldr	r3, [r2]
  51 0012 23F00F03 		bic	r3, r3, #15
  52 0016 43F00703 		orr	r3, r3, #7
  53 001a 1360     		str	r3, [r2]
 197:Drivers/STM32H7xx_HAL_Driver/Src/stm32h7xx_hal_rcc.c **** 
 198:Drivers/STM32H7xx_HAL_Driver/Src/stm32h7xx_hal_rcc.c ****     /* Check that the new number of wait states is taken into account to access the Flash
 199:Drivers/STM32H7xx_HAL_Driver/Src/stm32h7xx_hal_rcc.c ****     memory by reading the FLASH_ACR register */
 200:Drivers/STM32H7xx_HAL_Driver/Src/stm32h7xx_hal_rcc.c ****     if(__HAL_FLASH_GET_LATENCY() != FLASH_LATENCY_DEFAULT)
  54              		.loc 1 200 5 view .LVU6
  55              		.loc 1 200 8 is_stmt 0 view .LVU7
  56 001c 1368     		ldr	r3, [r2]
  57 001e 03F00F03 		and	r3, r3, #15
  58              		.loc 1 200 7 view .LVU8
  59 0022 072B     		cmp	r3, #7
  60 0024 40F0BA80 		bne	.L16
  61              	.L2:
 201:Drivers/STM32H7xx_HAL_Driver/Src/stm32h7xx_hal_rcc.c ****     {
 202:Drivers/STM32H7xx_HAL_Driver/Src/stm32h7xx_hal_rcc.c ****       return HAL_ERROR;
 203:Drivers/STM32H7xx_HAL_Driver/Src/stm32h7xx_hal_rcc.c ****     }
 204:Drivers/STM32H7xx_HAL_Driver/Src/stm32h7xx_hal_rcc.c **** 
 205:Drivers/STM32H7xx_HAL_Driver/Src/stm32h7xx_hal_rcc.c ****   }
 206:Drivers/STM32H7xx_HAL_Driver/Src/stm32h7xx_hal_rcc.c **** 
 207:Drivers/STM32H7xx_HAL_Driver/Src/stm32h7xx_hal_rcc.c **** 
 208:Drivers/STM32H7xx_HAL_Driver/Src/stm32h7xx_hal_rcc.c ****   /* Get Start Tick */
 209:Drivers/STM32H7xx_HAL_Driver/Src/stm32h7xx_hal_rcc.c ****   tickstart = HAL_GetTick();
  62              		.loc 1 209 3 is_stmt 1 view .LVU9
  63              		.loc 1 209 15 is_stmt 0 view .LVU10
  64 0028 FFF7FEFF 		bl	HAL_GetTick
  65              	.LVL0:
  66 002c 0446     		mov	r4, r0
  67              	.LVL1:
 210:Drivers/STM32H7xx_HAL_Driver/Src/stm32h7xx_hal_rcc.c **** 
 211:Drivers/STM32H7xx_HAL_Driver/Src/stm32h7xx_hal_rcc.c ****   /* Set HSION bit */
 212:Drivers/STM32H7xx_HAL_Driver/Src/stm32h7xx_hal_rcc.c ****   SET_BIT(RCC->CR, RCC_CR_HSION);
  68              		.loc 1 212 3 is_stmt 1 view .LVU11
  69 002e 5E4A     		ldr	r2, .L33+4
  70 0030 1368     		ldr	r3, [r2]
  71 0032 43F00103 		orr	r3, r3, #1
  72 0036 1360     		str	r3, [r2]
 213:Drivers/STM32H7xx_HAL_Driver/Src/stm32h7xx_hal_rcc.c **** 
 214:Drivers/STM32H7xx_HAL_Driver/Src/stm32h7xx_hal_rcc.c ****   /* Wait till HSI is ready */
ARM GAS  C:\Users\ADMINI~1\AppData\Local\Temp\cc7xIC5f.s 			page 6


 215:Drivers/STM32H7xx_HAL_Driver/Src/stm32h7xx_hal_rcc.c ****   while (READ_BIT(RCC->CR, RCC_CR_HSIRDY) == 0U)
  73              		.loc 1 215 3 view .LVU12
  74              	.LVL2:
  75              	.L4:
  76              		.loc 1 215 9 view .LVU13
  77              		.loc 1 215 10 is_stmt 0 view .LVU14
  78 0038 5B4B     		ldr	r3, .L33+4
  79 003a 1B68     		ldr	r3, [r3]
  80              		.loc 1 215 9 view .LVU15
  81 003c 13F0040F 		tst	r3, #4
  82 0040 06D1     		bne	.L26
 216:Drivers/STM32H7xx_HAL_Driver/Src/stm32h7xx_hal_rcc.c ****   {
 217:Drivers/STM32H7xx_HAL_Driver/Src/stm32h7xx_hal_rcc.c ****     if ((HAL_GetTick() - tickstart) > HSI_TIMEOUT_VALUE)
  83              		.loc 1 217 5 is_stmt 1 view .LVU16
  84              		.loc 1 217 10 is_stmt 0 view .LVU17
  85 0042 FFF7FEFF 		bl	HAL_GetTick
  86              	.LVL3:
  87              		.loc 1 217 24 view .LVU18
  88 0046 001B     		subs	r0, r0, r4
  89              		.loc 1 217 8 view .LVU19
  90 0048 0228     		cmp	r0, #2
  91 004a F5D9     		bls	.L4
 218:Drivers/STM32H7xx_HAL_Driver/Src/stm32h7xx_hal_rcc.c ****     {
 219:Drivers/STM32H7xx_HAL_Driver/Src/stm32h7xx_hal_rcc.c ****       return HAL_TIMEOUT;
  92              		.loc 1 219 14 view .LVU20
  93 004c 0324     		movs	r4, #3
  94              	.LVL4:
  95              		.loc 1 219 14 view .LVU21
  96 004e A6E0     		b	.L3
  97              	.LVL5:
  98              	.L26:
 220:Drivers/STM32H7xx_HAL_Driver/Src/stm32h7xx_hal_rcc.c ****     }
 221:Drivers/STM32H7xx_HAL_Driver/Src/stm32h7xx_hal_rcc.c ****   }
 222:Drivers/STM32H7xx_HAL_Driver/Src/stm32h7xx_hal_rcc.c **** 
 223:Drivers/STM32H7xx_HAL_Driver/Src/stm32h7xx_hal_rcc.c ****   /* Set HSITRIM[6:0] bits to the reset value */
 224:Drivers/STM32H7xx_HAL_Driver/Src/stm32h7xx_hal_rcc.c ****   SET_BIT(RCC->HSICFGR, RCC_HSICFGR_HSITRIM_6);
  99              		.loc 1 224 3 is_stmt 1 view .LVU22
 100 0050 554B     		ldr	r3, .L33+4
 101 0052 5A68     		ldr	r2, [r3, #4]
 102 0054 42F08042 		orr	r2, r2, #1073741824
 103 0058 5A60     		str	r2, [r3, #4]
 225:Drivers/STM32H7xx_HAL_Driver/Src/stm32h7xx_hal_rcc.c **** 
 226:Drivers/STM32H7xx_HAL_Driver/Src/stm32h7xx_hal_rcc.c ****   /* Reset CFGR register */
 227:Drivers/STM32H7xx_HAL_Driver/Src/stm32h7xx_hal_rcc.c ****   CLEAR_REG(RCC->CFGR);
 104              		.loc 1 227 3 view .LVU23
 105 005a 0022     		movs	r2, #0
 106 005c 1A61     		str	r2, [r3, #16]
 228:Drivers/STM32H7xx_HAL_Driver/Src/stm32h7xx_hal_rcc.c **** 
 229:Drivers/STM32H7xx_HAL_Driver/Src/stm32h7xx_hal_rcc.c ****   /* Update the SystemCoreClock and SystemD2Clock global variables */
 230:Drivers/STM32H7xx_HAL_Driver/Src/stm32h7xx_hal_rcc.c ****   SystemCoreClock = HSI_VALUE;
 107              		.loc 1 230 3 view .LVU24
 108              		.loc 1 230 19 is_stmt 0 view .LVU25
 109 005e 534B     		ldr	r3, .L33+8
 110 0060 534A     		ldr	r2, .L33+12
 111 0062 1360     		str	r3, [r2]
 231:Drivers/STM32H7xx_HAL_Driver/Src/stm32h7xx_hal_rcc.c ****   SystemD2Clock = HSI_VALUE;
 112              		.loc 1 231 3 is_stmt 1 view .LVU26
ARM GAS  C:\Users\ADMINI~1\AppData\Local\Temp\cc7xIC5f.s 			page 7


 113              		.loc 1 231 17 is_stmt 0 view .LVU27
 114 0064 534A     		ldr	r2, .L33+16
 115 0066 1360     		str	r3, [r2]
 232:Drivers/STM32H7xx_HAL_Driver/Src/stm32h7xx_hal_rcc.c **** 
 233:Drivers/STM32H7xx_HAL_Driver/Src/stm32h7xx_hal_rcc.c ****   /* Adapt Systick interrupt period */
 234:Drivers/STM32H7xx_HAL_Driver/Src/stm32h7xx_hal_rcc.c ****   if(HAL_InitTick(uwTickPrio) != HAL_OK)
 116              		.loc 1 234 3 is_stmt 1 view .LVU28
 117              		.loc 1 234 6 is_stmt 0 view .LVU29
 118 0068 534B     		ldr	r3, .L33+20
 119 006a 1868     		ldr	r0, [r3]
 120 006c FFF7FEFF 		bl	HAL_InitTick
 121              	.LVL6:
 122              		.loc 1 234 5 view .LVU30
 123 0070 0446     		mov	r4, r0
 124              	.LVL7:
 125              		.loc 1 234 5 view .LVU31
 126 0072 08B1     		cbz	r0, .L27
 235:Drivers/STM32H7xx_HAL_Driver/Src/stm32h7xx_hal_rcc.c ****   {
 236:Drivers/STM32H7xx_HAL_Driver/Src/stm32h7xx_hal_rcc.c ****     return HAL_ERROR;
 127              		.loc 1 236 12 view .LVU32
 128 0074 0124     		movs	r4, #1
 129 0076 92E0     		b	.L3
 130              	.L27:
 237:Drivers/STM32H7xx_HAL_Driver/Src/stm32h7xx_hal_rcc.c ****   }
 238:Drivers/STM32H7xx_HAL_Driver/Src/stm32h7xx_hal_rcc.c **** 
 239:Drivers/STM32H7xx_HAL_Driver/Src/stm32h7xx_hal_rcc.c ****   /* Get Start Tick */
 240:Drivers/STM32H7xx_HAL_Driver/Src/stm32h7xx_hal_rcc.c ****   tickstart = HAL_GetTick();
 131              		.loc 1 240 3 is_stmt 1 view .LVU33
 132              		.loc 1 240 15 is_stmt 0 view .LVU34
 133 0078 FFF7FEFF 		bl	HAL_GetTick
 134              	.LVL8:
 135 007c 0546     		mov	r5, r0
 136              	.LVL9:
 241:Drivers/STM32H7xx_HAL_Driver/Src/stm32h7xx_hal_rcc.c **** 
 242:Drivers/STM32H7xx_HAL_Driver/Src/stm32h7xx_hal_rcc.c ****   /* Wait till clock switch is ready */
 243:Drivers/STM32H7xx_HAL_Driver/Src/stm32h7xx_hal_rcc.c ****   while (READ_BIT(RCC->CFGR, RCC_CFGR_SWS) != 0U)
 137              		.loc 1 243 3 is_stmt 1 view .LVU35
 138              	.L6:
 139              		.loc 1 243 9 view .LVU36
 140              		.loc 1 243 10 is_stmt 0 view .LVU37
 141 007e 4A4B     		ldr	r3, .L33+4
 142 0080 1B69     		ldr	r3, [r3, #16]
 143              		.loc 1 243 9 view .LVU38
 144 0082 13F0380F 		tst	r3, #56
 145 0086 08D0     		beq	.L28
 244:Drivers/STM32H7xx_HAL_Driver/Src/stm32h7xx_hal_rcc.c ****   {
 245:Drivers/STM32H7xx_HAL_Driver/Src/stm32h7xx_hal_rcc.c ****     if ((HAL_GetTick() - tickstart) > CLOCKSWITCH_TIMEOUT_VALUE)
 146              		.loc 1 245 5 is_stmt 1 view .LVU39
 147              		.loc 1 245 10 is_stmt 0 view .LVU40
 148 0088 FFF7FEFF 		bl	HAL_GetTick
 149              	.LVL10:
 150              		.loc 1 245 24 view .LVU41
 151 008c 401B     		subs	r0, r0, r5
 152              		.loc 1 245 8 view .LVU42
 153 008e 41F28833 		movw	r3, #5000
 154 0092 9842     		cmp	r0, r3
 155 0094 F3D9     		bls	.L6
ARM GAS  C:\Users\ADMINI~1\AppData\Local\Temp\cc7xIC5f.s 			page 8


 246:Drivers/STM32H7xx_HAL_Driver/Src/stm32h7xx_hal_rcc.c ****     {
 247:Drivers/STM32H7xx_HAL_Driver/Src/stm32h7xx_hal_rcc.c ****       return HAL_TIMEOUT;
 156              		.loc 1 247 14 view .LVU43
 157 0096 0324     		movs	r4, #3
 158 0098 81E0     		b	.L3
 159              	.L28:
 248:Drivers/STM32H7xx_HAL_Driver/Src/stm32h7xx_hal_rcc.c ****     }
 249:Drivers/STM32H7xx_HAL_Driver/Src/stm32h7xx_hal_rcc.c ****   }
 250:Drivers/STM32H7xx_HAL_Driver/Src/stm32h7xx_hal_rcc.c **** 
 251:Drivers/STM32H7xx_HAL_Driver/Src/stm32h7xx_hal_rcc.c ****   /* Get Start Tick */
 252:Drivers/STM32H7xx_HAL_Driver/Src/stm32h7xx_hal_rcc.c ****   tickstart = HAL_GetTick();
 160              		.loc 1 252 3 is_stmt 1 view .LVU44
 161              		.loc 1 252 15 is_stmt 0 view .LVU45
 162 009a FFF7FEFF 		bl	HAL_GetTick
 163              	.LVL11:
 164 009e 0546     		mov	r5, r0
 165              	.LVL12:
 253:Drivers/STM32H7xx_HAL_Driver/Src/stm32h7xx_hal_rcc.c **** 
 254:Drivers/STM32H7xx_HAL_Driver/Src/stm32h7xx_hal_rcc.c ****   /* Reset CSION, CSIKERON, HSEON, HSI48ON, HSECSSON, HSIDIV bits */
 255:Drivers/STM32H7xx_HAL_Driver/Src/stm32h7xx_hal_rcc.c ****   CLEAR_BIT(RCC->CR, RCC_CR_HSEON | RCC_CR_HSIKERON| RCC_CR_HSIDIV| RCC_CR_HSIDIVF| RCC_CR_CSION | 
 166              		.loc 1 255 3 is_stmt 1 view .LVU46
 167 00a0 414A     		ldr	r2, .L33+4
 168 00a2 1168     		ldr	r1, [r2]
 169 00a4 454B     		ldr	r3, .L33+24
 170 00a6 0B40     		ands	r3, r3, r1
 171 00a8 1360     		str	r3, [r2]
 256:Drivers/STM32H7xx_HAL_Driver/Src/stm32h7xx_hal_rcc.c ****   | RCC_CR_HSI48ON | RCC_CR_CSSHSEON);
 257:Drivers/STM32H7xx_HAL_Driver/Src/stm32h7xx_hal_rcc.c **** 
 258:Drivers/STM32H7xx_HAL_Driver/Src/stm32h7xx_hal_rcc.c ****   /* Wait till HSE is disabled */
 259:Drivers/STM32H7xx_HAL_Driver/Src/stm32h7xx_hal_rcc.c ****   while (READ_BIT(RCC->CR, RCC_CR_HSERDY) != 0U)
 172              		.loc 1 259 3 view .LVU47
 173              	.LVL13:
 174              	.L8:
 175              		.loc 1 259 9 view .LVU48
 176              		.loc 1 259 10 is_stmt 0 view .LVU49
 177 00aa 3F4B     		ldr	r3, .L33+4
 178 00ac 1B68     		ldr	r3, [r3]
 179              		.loc 1 259 9 view .LVU50
 180 00ae 13F4003F 		tst	r3, #131072
 181 00b2 06D0     		beq	.L29
 260:Drivers/STM32H7xx_HAL_Driver/Src/stm32h7xx_hal_rcc.c ****   {
 261:Drivers/STM32H7xx_HAL_Driver/Src/stm32h7xx_hal_rcc.c ****     if ((HAL_GetTick() - tickstart) > HSE_TIMEOUT_VALUE)
 182              		.loc 1 261 5 is_stmt 1 view .LVU51
 183              		.loc 1 261 10 is_stmt 0 view .LVU52
 184 00b4 FFF7FEFF 		bl	HAL_GetTick
 185              	.LVL14:
 186              		.loc 1 261 24 view .LVU53
 187 00b8 401B     		subs	r0, r0, r5
 188              		.loc 1 261 8 view .LVU54
 189 00ba 6428     		cmp	r0, #100
 190 00bc F5D9     		bls	.L8
 262:Drivers/STM32H7xx_HAL_Driver/Src/stm32h7xx_hal_rcc.c ****     {
 263:Drivers/STM32H7xx_HAL_Driver/Src/stm32h7xx_hal_rcc.c ****       return HAL_TIMEOUT;
 191              		.loc 1 263 14 view .LVU55
 192 00be 0324     		movs	r4, #3
 193 00c0 6DE0     		b	.L3
 194              	.L29:
ARM GAS  C:\Users\ADMINI~1\AppData\Local\Temp\cc7xIC5f.s 			page 9


 264:Drivers/STM32H7xx_HAL_Driver/Src/stm32h7xx_hal_rcc.c ****     }
 265:Drivers/STM32H7xx_HAL_Driver/Src/stm32h7xx_hal_rcc.c ****   }
 266:Drivers/STM32H7xx_HAL_Driver/Src/stm32h7xx_hal_rcc.c **** 
 267:Drivers/STM32H7xx_HAL_Driver/Src/stm32h7xx_hal_rcc.c ****   /* Get Start Tick */
 268:Drivers/STM32H7xx_HAL_Driver/Src/stm32h7xx_hal_rcc.c ****   tickstart = HAL_GetTick();
 195              		.loc 1 268 3 is_stmt 1 view .LVU56
 196              		.loc 1 268 15 is_stmt 0 view .LVU57
 197 00c2 FFF7FEFF 		bl	HAL_GetTick
 198              	.LVL15:
 199 00c6 0546     		mov	r5, r0
 200              	.LVL16:
 269:Drivers/STM32H7xx_HAL_Driver/Src/stm32h7xx_hal_rcc.c **** 
 270:Drivers/STM32H7xx_HAL_Driver/Src/stm32h7xx_hal_rcc.c ****   /* Clear PLLON bit */
 271:Drivers/STM32H7xx_HAL_Driver/Src/stm32h7xx_hal_rcc.c ****   CLEAR_BIT(RCC->CR, RCC_CR_PLL1ON);
 201              		.loc 1 271 3 is_stmt 1 view .LVU58
 202 00c8 374A     		ldr	r2, .L33+4
 203 00ca 1368     		ldr	r3, [r2]
 204 00cc 23F08073 		bic	r3, r3, #16777216
 205 00d0 1360     		str	r3, [r2]
 272:Drivers/STM32H7xx_HAL_Driver/Src/stm32h7xx_hal_rcc.c **** 
 273:Drivers/STM32H7xx_HAL_Driver/Src/stm32h7xx_hal_rcc.c ****   /* Wait till PLL is disabled */
 274:Drivers/STM32H7xx_HAL_Driver/Src/stm32h7xx_hal_rcc.c ****   while (READ_BIT(RCC->CR, RCC_CR_PLL1RDY) != 0U)
 206              		.loc 1 274 3 view .LVU59
 207              	.LVL17:
 208              	.L10:
 209              		.loc 1 274 9 view .LVU60
 210              		.loc 1 274 10 is_stmt 0 view .LVU61
 211 00d2 354B     		ldr	r3, .L33+4
 212 00d4 1B68     		ldr	r3, [r3]
 213              		.loc 1 274 9 view .LVU62
 214 00d6 13F0007F 		tst	r3, #33554432
 215 00da 06D0     		beq	.L30
 275:Drivers/STM32H7xx_HAL_Driver/Src/stm32h7xx_hal_rcc.c ****   {
 276:Drivers/STM32H7xx_HAL_Driver/Src/stm32h7xx_hal_rcc.c ****     if ((HAL_GetTick() - tickstart) > PLL_TIMEOUT_VALUE)
 216              		.loc 1 276 5 is_stmt 1 view .LVU63
 217              		.loc 1 276 10 is_stmt 0 view .LVU64
 218 00dc FFF7FEFF 		bl	HAL_GetTick
 219              	.LVL18:
 220              		.loc 1 276 24 view .LVU65
 221 00e0 401B     		subs	r0, r0, r5
 222              		.loc 1 276 8 view .LVU66
 223 00e2 0228     		cmp	r0, #2
 224 00e4 F5D9     		bls	.L10
 277:Drivers/STM32H7xx_HAL_Driver/Src/stm32h7xx_hal_rcc.c ****     {
 278:Drivers/STM32H7xx_HAL_Driver/Src/stm32h7xx_hal_rcc.c ****       return HAL_TIMEOUT;
 225              		.loc 1 278 14 view .LVU67
 226 00e6 0324     		movs	r4, #3
 227 00e8 59E0     		b	.L3
 228              	.L30:
 279:Drivers/STM32H7xx_HAL_Driver/Src/stm32h7xx_hal_rcc.c ****     }
 280:Drivers/STM32H7xx_HAL_Driver/Src/stm32h7xx_hal_rcc.c ****   }
 281:Drivers/STM32H7xx_HAL_Driver/Src/stm32h7xx_hal_rcc.c **** 
 282:Drivers/STM32H7xx_HAL_Driver/Src/stm32h7xx_hal_rcc.c ****   /* Get Start Tick */
 283:Drivers/STM32H7xx_HAL_Driver/Src/stm32h7xx_hal_rcc.c ****   tickstart = HAL_GetTick();
 229              		.loc 1 283 3 is_stmt 1 view .LVU68
 230              		.loc 1 283 15 is_stmt 0 view .LVU69
 231 00ea FFF7FEFF 		bl	HAL_GetTick
ARM GAS  C:\Users\ADMINI~1\AppData\Local\Temp\cc7xIC5f.s 			page 10


 232              	.LVL19:
 233 00ee 0546     		mov	r5, r0
 234              	.LVL20:
 284:Drivers/STM32H7xx_HAL_Driver/Src/stm32h7xx_hal_rcc.c **** 
 285:Drivers/STM32H7xx_HAL_Driver/Src/stm32h7xx_hal_rcc.c ****   /* Reset PLL2ON bit */
 286:Drivers/STM32H7xx_HAL_Driver/Src/stm32h7xx_hal_rcc.c ****   CLEAR_BIT(RCC->CR, RCC_CR_PLL2ON);
 235              		.loc 1 286 3 is_stmt 1 view .LVU70
 236 00f0 2D4A     		ldr	r2, .L33+4
 237 00f2 1368     		ldr	r3, [r2]
 238 00f4 23F08063 		bic	r3, r3, #67108864
 239 00f8 1360     		str	r3, [r2]
 287:Drivers/STM32H7xx_HAL_Driver/Src/stm32h7xx_hal_rcc.c **** 
 288:Drivers/STM32H7xx_HAL_Driver/Src/stm32h7xx_hal_rcc.c ****   /* Wait till PLL2 is disabled */
 289:Drivers/STM32H7xx_HAL_Driver/Src/stm32h7xx_hal_rcc.c ****   while (READ_BIT(RCC->CR, RCC_CR_PLL2RDY) != 0U)
 240              		.loc 1 289 3 view .LVU71
 241              	.LVL21:
 242              	.L12:
 243              		.loc 1 289 9 view .LVU72
 244              		.loc 1 289 10 is_stmt 0 view .LVU73
 245 00fa 2B4B     		ldr	r3, .L33+4
 246 00fc 1B68     		ldr	r3, [r3]
 247              		.loc 1 289 9 view .LVU74
 248 00fe 13F0006F 		tst	r3, #134217728
 249 0102 06D0     		beq	.L31
 290:Drivers/STM32H7xx_HAL_Driver/Src/stm32h7xx_hal_rcc.c ****   {
 291:Drivers/STM32H7xx_HAL_Driver/Src/stm32h7xx_hal_rcc.c ****     if ((HAL_GetTick() - tickstart) > PLL_TIMEOUT_VALUE)
 250              		.loc 1 291 5 is_stmt 1 view .LVU75
 251              		.loc 1 291 10 is_stmt 0 view .LVU76
 252 0104 FFF7FEFF 		bl	HAL_GetTick
 253              	.LVL22:
 254              		.loc 1 291 24 view .LVU77
 255 0108 401B     		subs	r0, r0, r5
 256              		.loc 1 291 8 view .LVU78
 257 010a 0228     		cmp	r0, #2
 258 010c F5D9     		bls	.L12
 292:Drivers/STM32H7xx_HAL_Driver/Src/stm32h7xx_hal_rcc.c ****     {
 293:Drivers/STM32H7xx_HAL_Driver/Src/stm32h7xx_hal_rcc.c ****       return HAL_TIMEOUT;
 259              		.loc 1 293 14 view .LVU79
 260 010e 0324     		movs	r4, #3
 261 0110 45E0     		b	.L3
 262              	.L31:
 294:Drivers/STM32H7xx_HAL_Driver/Src/stm32h7xx_hal_rcc.c ****     }
 295:Drivers/STM32H7xx_HAL_Driver/Src/stm32h7xx_hal_rcc.c ****   }
 296:Drivers/STM32H7xx_HAL_Driver/Src/stm32h7xx_hal_rcc.c **** 
 297:Drivers/STM32H7xx_HAL_Driver/Src/stm32h7xx_hal_rcc.c ****   /* Get Start Tick */
 298:Drivers/STM32H7xx_HAL_Driver/Src/stm32h7xx_hal_rcc.c ****   tickstart = HAL_GetTick();
 263              		.loc 1 298 3 is_stmt 1 view .LVU80
 264              		.loc 1 298 15 is_stmt 0 view .LVU81
 265 0112 FFF7FEFF 		bl	HAL_GetTick
 266              	.LVL23:
 267 0116 0546     		mov	r5, r0
 268              	.LVL24:
 299:Drivers/STM32H7xx_HAL_Driver/Src/stm32h7xx_hal_rcc.c **** 
 300:Drivers/STM32H7xx_HAL_Driver/Src/stm32h7xx_hal_rcc.c ****   /* Reset PLL3 bit */
 301:Drivers/STM32H7xx_HAL_Driver/Src/stm32h7xx_hal_rcc.c ****   CLEAR_BIT(RCC->CR, RCC_CR_PLL3ON);
 269              		.loc 1 301 3 is_stmt 1 view .LVU82
 270 0118 234A     		ldr	r2, .L33+4
ARM GAS  C:\Users\ADMINI~1\AppData\Local\Temp\cc7xIC5f.s 			page 11


 271 011a 1368     		ldr	r3, [r2]
 272 011c 23F08053 		bic	r3, r3, #268435456
 273 0120 1360     		str	r3, [r2]
 302:Drivers/STM32H7xx_HAL_Driver/Src/stm32h7xx_hal_rcc.c **** 
 303:Drivers/STM32H7xx_HAL_Driver/Src/stm32h7xx_hal_rcc.c ****   /* Wait till PLL3 is disabled */
 304:Drivers/STM32H7xx_HAL_Driver/Src/stm32h7xx_hal_rcc.c ****   while (READ_BIT(RCC->CR, RCC_CR_PLL3RDY) != 0U)
 274              		.loc 1 304 3 view .LVU83
 275              	.LVL25:
 276              	.L14:
 277              		.loc 1 304 9 view .LVU84
 278              		.loc 1 304 10 is_stmt 0 view .LVU85
 279 0122 214B     		ldr	r3, .L33+4
 280 0124 1B68     		ldr	r3, [r3]
 281              		.loc 1 304 9 view .LVU86
 282 0126 13F0005F 		tst	r3, #536870912
 283 012a 06D0     		beq	.L32
 305:Drivers/STM32H7xx_HAL_Driver/Src/stm32h7xx_hal_rcc.c ****   {
 306:Drivers/STM32H7xx_HAL_Driver/Src/stm32h7xx_hal_rcc.c ****     if ((HAL_GetTick() - tickstart) > PLL_TIMEOUT_VALUE)
 284              		.loc 1 306 5 is_stmt 1 view .LVU87
 285              		.loc 1 306 10 is_stmt 0 view .LVU88
 286 012c FFF7FEFF 		bl	HAL_GetTick
 287              	.LVL26:
 288              		.loc 1 306 24 view .LVU89
 289 0130 401B     		subs	r0, r0, r5
 290              		.loc 1 306 8 view .LVU90
 291 0132 0228     		cmp	r0, #2
 292 0134 F5D9     		bls	.L14
 307:Drivers/STM32H7xx_HAL_Driver/Src/stm32h7xx_hal_rcc.c ****     {
 308:Drivers/STM32H7xx_HAL_Driver/Src/stm32h7xx_hal_rcc.c ****       return HAL_TIMEOUT;
 293              		.loc 1 308 14 view .LVU91
 294 0136 0324     		movs	r4, #3
 295 0138 31E0     		b	.L3
 296              	.L32:
 309:Drivers/STM32H7xx_HAL_Driver/Src/stm32h7xx_hal_rcc.c ****     }
 310:Drivers/STM32H7xx_HAL_Driver/Src/stm32h7xx_hal_rcc.c ****   }
 311:Drivers/STM32H7xx_HAL_Driver/Src/stm32h7xx_hal_rcc.c **** 
 312:Drivers/STM32H7xx_HAL_Driver/Src/stm32h7xx_hal_rcc.c **** #if defined(RCC_D1CFGR_HPRE)
 313:Drivers/STM32H7xx_HAL_Driver/Src/stm32h7xx_hal_rcc.c ****   /* Reset D1CFGR register */
 314:Drivers/STM32H7xx_HAL_Driver/Src/stm32h7xx_hal_rcc.c ****   CLEAR_REG(RCC->D1CFGR);
 297              		.loc 1 314 3 is_stmt 1 view .LVU92
 298 013a 1B4B     		ldr	r3, .L33+4
 299 013c 0022     		movs	r2, #0
 300 013e 9A61     		str	r2, [r3, #24]
 315:Drivers/STM32H7xx_HAL_Driver/Src/stm32h7xx_hal_rcc.c **** 
 316:Drivers/STM32H7xx_HAL_Driver/Src/stm32h7xx_hal_rcc.c ****   /* Reset D2CFGR register */
 317:Drivers/STM32H7xx_HAL_Driver/Src/stm32h7xx_hal_rcc.c ****   CLEAR_REG(RCC->D2CFGR);
 301              		.loc 1 317 3 view .LVU93
 302 0140 DA61     		str	r2, [r3, #28]
 318:Drivers/STM32H7xx_HAL_Driver/Src/stm32h7xx_hal_rcc.c **** 
 319:Drivers/STM32H7xx_HAL_Driver/Src/stm32h7xx_hal_rcc.c ****   /* Reset D3CFGR register */
 320:Drivers/STM32H7xx_HAL_Driver/Src/stm32h7xx_hal_rcc.c ****   CLEAR_REG(RCC->D3CFGR);
 303              		.loc 1 320 3 view .LVU94
 304 0142 1A62     		str	r2, [r3, #32]
 321:Drivers/STM32H7xx_HAL_Driver/Src/stm32h7xx_hal_rcc.c **** #else
 322:Drivers/STM32H7xx_HAL_Driver/Src/stm32h7xx_hal_rcc.c ****   /* Reset CDCFGR1 register */
 323:Drivers/STM32H7xx_HAL_Driver/Src/stm32h7xx_hal_rcc.c ****   CLEAR_REG(RCC->CDCFGR1);
 324:Drivers/STM32H7xx_HAL_Driver/Src/stm32h7xx_hal_rcc.c **** 
ARM GAS  C:\Users\ADMINI~1\AppData\Local\Temp\cc7xIC5f.s 			page 12


 325:Drivers/STM32H7xx_HAL_Driver/Src/stm32h7xx_hal_rcc.c ****   /* Reset CDCFGR2 register */
 326:Drivers/STM32H7xx_HAL_Driver/Src/stm32h7xx_hal_rcc.c ****   CLEAR_REG(RCC->CDCFGR2);
 327:Drivers/STM32H7xx_HAL_Driver/Src/stm32h7xx_hal_rcc.c **** 
 328:Drivers/STM32H7xx_HAL_Driver/Src/stm32h7xx_hal_rcc.c ****   /* Reset SRDCFGR register */
 329:Drivers/STM32H7xx_HAL_Driver/Src/stm32h7xx_hal_rcc.c ****   CLEAR_REG(RCC->SRDCFGR);
 330:Drivers/STM32H7xx_HAL_Driver/Src/stm32h7xx_hal_rcc.c **** #endif
 331:Drivers/STM32H7xx_HAL_Driver/Src/stm32h7xx_hal_rcc.c **** 
 332:Drivers/STM32H7xx_HAL_Driver/Src/stm32h7xx_hal_rcc.c ****   /* Reset PLLCKSELR register to default value */
 333:Drivers/STM32H7xx_HAL_Driver/Src/stm32h7xx_hal_rcc.c ****   RCC->PLLCKSELR= RCC_PLLCKSELR_DIVM1_5|RCC_PLLCKSELR_DIVM2_5|RCC_PLLCKSELR_DIVM3_5;
 305              		.loc 1 333 3 view .LVU95
 306              		.loc 1 333 17 is_stmt 0 view .LVU96
 307 0144 1E49     		ldr	r1, .L33+28
 308 0146 9962     		str	r1, [r3, #40]
 334:Drivers/STM32H7xx_HAL_Driver/Src/stm32h7xx_hal_rcc.c **** 
 335:Drivers/STM32H7xx_HAL_Driver/Src/stm32h7xx_hal_rcc.c ****   /* Reset PLLCFGR register to default value */
 336:Drivers/STM32H7xx_HAL_Driver/Src/stm32h7xx_hal_rcc.c ****   WRITE_REG(RCC->PLLCFGR, 0x01FF0000U);
 309              		.loc 1 336 3 is_stmt 1 view .LVU97
 310 0148 1E49     		ldr	r1, .L33+32
 311 014a D962     		str	r1, [r3, #44]
 337:Drivers/STM32H7xx_HAL_Driver/Src/stm32h7xx_hal_rcc.c **** 
 338:Drivers/STM32H7xx_HAL_Driver/Src/stm32h7xx_hal_rcc.c ****   /* Reset PLL1DIVR register to default value */
 339:Drivers/STM32H7xx_HAL_Driver/Src/stm32h7xx_hal_rcc.c ****   WRITE_REG(RCC->PLL1DIVR,0x01010280U);
 312              		.loc 1 339 3 view .LVU98
 313 014c 1E49     		ldr	r1, .L33+36
 314 014e 1963     		str	r1, [r3, #48]
 340:Drivers/STM32H7xx_HAL_Driver/Src/stm32h7xx_hal_rcc.c **** 
 341:Drivers/STM32H7xx_HAL_Driver/Src/stm32h7xx_hal_rcc.c ****   /* Reset PLL1FRACR register */
 342:Drivers/STM32H7xx_HAL_Driver/Src/stm32h7xx_hal_rcc.c ****   CLEAR_REG(RCC->PLL1FRACR);
 315              		.loc 1 342 3 view .LVU99
 316 0150 5A63     		str	r2, [r3, #52]
 343:Drivers/STM32H7xx_HAL_Driver/Src/stm32h7xx_hal_rcc.c **** 
 344:Drivers/STM32H7xx_HAL_Driver/Src/stm32h7xx_hal_rcc.c ****   /* Reset PLL2DIVR register to default value */
 345:Drivers/STM32H7xx_HAL_Driver/Src/stm32h7xx_hal_rcc.c ****   WRITE_REG(RCC->PLL2DIVR,0x01010280U);
 317              		.loc 1 345 3 view .LVU100
 318 0152 9963     		str	r1, [r3, #56]
 346:Drivers/STM32H7xx_HAL_Driver/Src/stm32h7xx_hal_rcc.c **** 
 347:Drivers/STM32H7xx_HAL_Driver/Src/stm32h7xx_hal_rcc.c ****   /* Reset PLL2FRACR register */
 348:Drivers/STM32H7xx_HAL_Driver/Src/stm32h7xx_hal_rcc.c ****   CLEAR_REG(RCC->PLL2FRACR);
 319              		.loc 1 348 3 view .LVU101
 320 0154 DA63     		str	r2, [r3, #60]
 349:Drivers/STM32H7xx_HAL_Driver/Src/stm32h7xx_hal_rcc.c **** 
 350:Drivers/STM32H7xx_HAL_Driver/Src/stm32h7xx_hal_rcc.c ****   /* Reset PLL3DIVR register to default value */
 351:Drivers/STM32H7xx_HAL_Driver/Src/stm32h7xx_hal_rcc.c ****   WRITE_REG(RCC->PLL3DIVR,0x01010280U);
 321              		.loc 1 351 3 view .LVU102
 322 0156 1964     		str	r1, [r3, #64]
 352:Drivers/STM32H7xx_HAL_Driver/Src/stm32h7xx_hal_rcc.c **** 
 353:Drivers/STM32H7xx_HAL_Driver/Src/stm32h7xx_hal_rcc.c ****   /* Reset PLL3FRACR register */
 354:Drivers/STM32H7xx_HAL_Driver/Src/stm32h7xx_hal_rcc.c ****   CLEAR_REG(RCC->PLL3FRACR);
 323              		.loc 1 354 3 view .LVU103
 324 0158 5A64     		str	r2, [r3, #68]
 355:Drivers/STM32H7xx_HAL_Driver/Src/stm32h7xx_hal_rcc.c **** 
 356:Drivers/STM32H7xx_HAL_Driver/Src/stm32h7xx_hal_rcc.c **** #if defined(RCC_CR_HSEEXT)
 357:Drivers/STM32H7xx_HAL_Driver/Src/stm32h7xx_hal_rcc.c ****   /* Reset HSEEXT  */
 358:Drivers/STM32H7xx_HAL_Driver/Src/stm32h7xx_hal_rcc.c ****   CLEAR_BIT(RCC->CR, RCC_CR_HSEEXT);
 359:Drivers/STM32H7xx_HAL_Driver/Src/stm32h7xx_hal_rcc.c **** #endif /* RCC_CR_HSEEXT */
 360:Drivers/STM32H7xx_HAL_Driver/Src/stm32h7xx_hal_rcc.c **** 
 361:Drivers/STM32H7xx_HAL_Driver/Src/stm32h7xx_hal_rcc.c ****   /* Reset HSEBYP bit */
ARM GAS  C:\Users\ADMINI~1\AppData\Local\Temp\cc7xIC5f.s 			page 13


 362:Drivers/STM32H7xx_HAL_Driver/Src/stm32h7xx_hal_rcc.c ****   CLEAR_BIT(RCC->CR, RCC_CR_HSEBYP);
 325              		.loc 1 362 3 view .LVU104
 326 015a 1968     		ldr	r1, [r3]
 327 015c 21F48021 		bic	r1, r1, #262144
 328 0160 1960     		str	r1, [r3]
 363:Drivers/STM32H7xx_HAL_Driver/Src/stm32h7xx_hal_rcc.c **** 
 364:Drivers/STM32H7xx_HAL_Driver/Src/stm32h7xx_hal_rcc.c ****   /* Disable all interrupts */
 365:Drivers/STM32H7xx_HAL_Driver/Src/stm32h7xx_hal_rcc.c ****   CLEAR_REG(RCC->CIER);
 329              		.loc 1 365 3 view .LVU105
 330 0162 1A66     		str	r2, [r3, #96]
 366:Drivers/STM32H7xx_HAL_Driver/Src/stm32h7xx_hal_rcc.c **** 
 367:Drivers/STM32H7xx_HAL_Driver/Src/stm32h7xx_hal_rcc.c ****   /* Clear all interrupts flags */
 368:Drivers/STM32H7xx_HAL_Driver/Src/stm32h7xx_hal_rcc.c ****   WRITE_REG(RCC->CICR,0xFFFFFFFFU);
 331              		.loc 1 368 3 view .LVU106
 332 0164 4FF0FF32 		mov	r2, #-1
 333 0168 9A66     		str	r2, [r3, #104]
 369:Drivers/STM32H7xx_HAL_Driver/Src/stm32h7xx_hal_rcc.c **** 
 370:Drivers/STM32H7xx_HAL_Driver/Src/stm32h7xx_hal_rcc.c ****   /* Reset all RSR flags */
 371:Drivers/STM32H7xx_HAL_Driver/Src/stm32h7xx_hal_rcc.c ****   SET_BIT(RCC->RSR, RCC_RSR_RMVF);
 334              		.loc 1 371 3 view .LVU107
 335 016a D3F8D020 		ldr	r2, [r3, #208]
 336 016e 42F48032 		orr	r2, r2, #65536
 337 0172 C3F8D020 		str	r2, [r3, #208]
 372:Drivers/STM32H7xx_HAL_Driver/Src/stm32h7xx_hal_rcc.c **** 
 373:Drivers/STM32H7xx_HAL_Driver/Src/stm32h7xx_hal_rcc.c ****       /* Decreasing the number of wait states because of lower CPU frequency */
 374:Drivers/STM32H7xx_HAL_Driver/Src/stm32h7xx_hal_rcc.c ****   if(FLASH_LATENCY_DEFAULT  < __HAL_FLASH_GET_LATENCY())
 338              		.loc 1 374 3 view .LVU108
 339              		.loc 1 374 31 is_stmt 0 view .LVU109
 340 0176 0B4B     		ldr	r3, .L33
 341 0178 1B68     		ldr	r3, [r3]
 342              		.loc 1 374 5 view .LVU110
 343 017a 13F0080F 		tst	r3, #8
 344 017e 0ED0     		beq	.L3
 375:Drivers/STM32H7xx_HAL_Driver/Src/stm32h7xx_hal_rcc.c ****   {
 376:Drivers/STM32H7xx_HAL_Driver/Src/stm32h7xx_hal_rcc.c ****     /* Program the new number of wait states to the LATENCY bits in the FLASH_ACR register */
 377:Drivers/STM32H7xx_HAL_Driver/Src/stm32h7xx_hal_rcc.c ****     __HAL_FLASH_SET_LATENCY(FLASH_LATENCY_DEFAULT);
 345              		.loc 1 377 5 is_stmt 1 view .LVU111
 346 0180 084A     		ldr	r2, .L33
 347 0182 1368     		ldr	r3, [r2]
 348 0184 23F00F03 		bic	r3, r3, #15
 349 0188 43F00703 		orr	r3, r3, #7
 350 018c 1360     		str	r3, [r2]
 378:Drivers/STM32H7xx_HAL_Driver/Src/stm32h7xx_hal_rcc.c **** 
 379:Drivers/STM32H7xx_HAL_Driver/Src/stm32h7xx_hal_rcc.c ****     /* Check that the new number of wait states is taken into account to access the Flash
 380:Drivers/STM32H7xx_HAL_Driver/Src/stm32h7xx_hal_rcc.c ****     memory by reading the FLASH_ACR register */
 381:Drivers/STM32H7xx_HAL_Driver/Src/stm32h7xx_hal_rcc.c ****     if(__HAL_FLASH_GET_LATENCY() != FLASH_LATENCY_DEFAULT)
 351              		.loc 1 381 5 view .LVU112
 352              		.loc 1 381 8 is_stmt 0 view .LVU113
 353 018e 1368     		ldr	r3, [r2]
 354 0190 03F00F03 		and	r3, r3, #15
 355              		.loc 1 381 7 view .LVU114
 356 0194 072B     		cmp	r3, #7
 357 0196 02D0     		beq	.L3
 382:Drivers/STM32H7xx_HAL_Driver/Src/stm32h7xx_hal_rcc.c ****     {
 383:Drivers/STM32H7xx_HAL_Driver/Src/stm32h7xx_hal_rcc.c ****       return HAL_ERROR;
 358              		.loc 1 383 14 view .LVU115
 359 0198 0124     		movs	r4, #1
ARM GAS  C:\Users\ADMINI~1\AppData\Local\Temp\cc7xIC5f.s 			page 14


 360 019a 00E0     		b	.L3
 361              	.LVL27:
 362              	.L16:
 202:Drivers/STM32H7xx_HAL_Driver/Src/stm32h7xx_hal_rcc.c ****     }
 363              		.loc 1 202 14 view .LVU116
 364 019c 0124     		movs	r4, #1
 365              	.L3:
 384:Drivers/STM32H7xx_HAL_Driver/Src/stm32h7xx_hal_rcc.c ****     }
 385:Drivers/STM32H7xx_HAL_Driver/Src/stm32h7xx_hal_rcc.c **** 
 386:Drivers/STM32H7xx_HAL_Driver/Src/stm32h7xx_hal_rcc.c **** }
 387:Drivers/STM32H7xx_HAL_Driver/Src/stm32h7xx_hal_rcc.c **** 
 388:Drivers/STM32H7xx_HAL_Driver/Src/stm32h7xx_hal_rcc.c ****   return HAL_OK;
 389:Drivers/STM32H7xx_HAL_Driver/Src/stm32h7xx_hal_rcc.c **** }
 366              		.loc 1 389 1 view .LVU117
 367 019e 2046     		mov	r0, r4
 368 01a0 38BD     		pop	{r3, r4, r5, pc}
 369              	.L34:
 370 01a2 00BF     		.align	2
 371              	.L33:
 372 01a4 00200052 		.word	1375739904
 373 01a8 00440258 		.word	1476543488
 374 01ac 0090D003 		.word	64000000
 375 01b0 00000000 		.word	SystemCoreClock
 376 01b4 00000000 		.word	SystemD2Clock
 377 01b8 00000000 		.word	uwTickPrio
 378 01bc 45EDF6FF 		.word	-594619
 379 01c0 00020202 		.word	33686016
 380 01c4 0000FF01 		.word	33488896
 381 01c8 80020101 		.word	16843392
 382              		.cfi_endproc
 383              	.LFE144:
 385              		.section	.text.HAL_RCC_OscConfig,"ax",%progbits
 386              		.align	1
 387              		.weak	HAL_RCC_OscConfig
 388              		.syntax unified
 389              		.thumb
 390              		.thumb_func
 391              		.fpu fpv5-d16
 393              	HAL_RCC_OscConfig:
 394              	.LVL28:
 395              	.LFB145:
 390:Drivers/STM32H7xx_HAL_Driver/Src/stm32h7xx_hal_rcc.c **** 
 391:Drivers/STM32H7xx_HAL_Driver/Src/stm32h7xx_hal_rcc.c **** /**
 392:Drivers/STM32H7xx_HAL_Driver/Src/stm32h7xx_hal_rcc.c ****   * @brief  Initializes the RCC Oscillators according to the specified parameters in the
 393:Drivers/STM32H7xx_HAL_Driver/Src/stm32h7xx_hal_rcc.c ****   *         RCC_OscInitTypeDef.
 394:Drivers/STM32H7xx_HAL_Driver/Src/stm32h7xx_hal_rcc.c ****   * @param  RCC_OscInitStruct: pointer to an RCC_OscInitTypeDef structure that
 395:Drivers/STM32H7xx_HAL_Driver/Src/stm32h7xx_hal_rcc.c ****   *         contains the configuration information for the RCC Oscillators.
 396:Drivers/STM32H7xx_HAL_Driver/Src/stm32h7xx_hal_rcc.c ****   * @note   The PLL is not disabled when used as system clock.
 397:Drivers/STM32H7xx_HAL_Driver/Src/stm32h7xx_hal_rcc.c ****   * @note   Transitions LSE Bypass to LSE On and LSE On to LSE Bypass are not
 398:Drivers/STM32H7xx_HAL_Driver/Src/stm32h7xx_hal_rcc.c ****   *         supported by this function. User should request a transition to LSE Off
 399:Drivers/STM32H7xx_HAL_Driver/Src/stm32h7xx_hal_rcc.c ****   *         first and then LSE On or LSE Bypass.
 400:Drivers/STM32H7xx_HAL_Driver/Src/stm32h7xx_hal_rcc.c ****   * @note   Transition HSE Bypass to HSE On and HSE On to HSE Bypass are not
 401:Drivers/STM32H7xx_HAL_Driver/Src/stm32h7xx_hal_rcc.c ****   *         supported by this function. User should request a transition to HSE Off
 402:Drivers/STM32H7xx_HAL_Driver/Src/stm32h7xx_hal_rcc.c ****   *         first and then HSE On or HSE Bypass.
 403:Drivers/STM32H7xx_HAL_Driver/Src/stm32h7xx_hal_rcc.c ****   * @retval HAL status
 404:Drivers/STM32H7xx_HAL_Driver/Src/stm32h7xx_hal_rcc.c ****   */
 405:Drivers/STM32H7xx_HAL_Driver/Src/stm32h7xx_hal_rcc.c **** __weak HAL_StatusTypeDef HAL_RCC_OscConfig(RCC_OscInitTypeDef  *RCC_OscInitStruct)
ARM GAS  C:\Users\ADMINI~1\AppData\Local\Temp\cc7xIC5f.s 			page 15


 406:Drivers/STM32H7xx_HAL_Driver/Src/stm32h7xx_hal_rcc.c **** {
 396              		.loc 1 406 1 is_stmt 1 view -0
 397              		.cfi_startproc
 398              		@ args = 0, pretend = 0, frame = 0
 399              		@ frame_needed = 0, uses_anonymous_args = 0
 407:Drivers/STM32H7xx_HAL_Driver/Src/stm32h7xx_hal_rcc.c ****   uint32_t tickstart;
 400              		.loc 1 407 3 view .LVU119
 408:Drivers/STM32H7xx_HAL_Driver/Src/stm32h7xx_hal_rcc.c ****   uint32_t temp1_pllckcfg, temp2_pllckcfg;
 401              		.loc 1 408 3 view .LVU120
 409:Drivers/STM32H7xx_HAL_Driver/Src/stm32h7xx_hal_rcc.c **** 
 410:Drivers/STM32H7xx_HAL_Driver/Src/stm32h7xx_hal_rcc.c ****     /* Check Null pointer */
 411:Drivers/STM32H7xx_HAL_Driver/Src/stm32h7xx_hal_rcc.c ****   if(RCC_OscInitStruct == NULL)
 402              		.loc 1 411 3 view .LVU121
 403              		.loc 1 411 5 is_stmt 0 view .LVU122
 404 0000 0028     		cmp	r0, #0
 405 0002 00F0B682 		beq	.L101
 406:Drivers/STM32H7xx_HAL_Driver/Src/stm32h7xx_hal_rcc.c ****   uint32_t tickstart;
 406              		.loc 1 406 1 view .LVU123
 407 0006 38B5     		push	{r3, r4, r5, lr}
 408              	.LCFI1:
 409              		.cfi_def_cfa_offset 16
 410              		.cfi_offset 3, -16
 411              		.cfi_offset 4, -12
 412              		.cfi_offset 5, -8
 413              		.cfi_offset 14, -4
 414 0008 0446     		mov	r4, r0
 412:Drivers/STM32H7xx_HAL_Driver/Src/stm32h7xx_hal_rcc.c ****   {
 413:Drivers/STM32H7xx_HAL_Driver/Src/stm32h7xx_hal_rcc.c ****     return HAL_ERROR;
 414:Drivers/STM32H7xx_HAL_Driver/Src/stm32h7xx_hal_rcc.c ****   }
 415:Drivers/STM32H7xx_HAL_Driver/Src/stm32h7xx_hal_rcc.c **** 
 416:Drivers/STM32H7xx_HAL_Driver/Src/stm32h7xx_hal_rcc.c ****   /* Check the parameters */
 417:Drivers/STM32H7xx_HAL_Driver/Src/stm32h7xx_hal_rcc.c ****   assert_param(IS_RCC_OSCILLATORTYPE(RCC_OscInitStruct->OscillatorType));
 415              		.loc 1 417 3 is_stmt 1 view .LVU124
 418:Drivers/STM32H7xx_HAL_Driver/Src/stm32h7xx_hal_rcc.c ****   /*------------------------------- HSE Configuration ------------------------*/
 419:Drivers/STM32H7xx_HAL_Driver/Src/stm32h7xx_hal_rcc.c ****   if(((RCC_OscInitStruct->OscillatorType) & RCC_OSCILLATORTYPE_HSE) == RCC_OSCILLATORTYPE_HSE)
 416              		.loc 1 419 3 view .LVU125
 417              		.loc 1 419 25 is_stmt 0 view .LVU126
 418 000a 0368     		ldr	r3, [r0]
 419              		.loc 1 419 5 view .LVU127
 420 000c 13F0010F 		tst	r3, #1
 421 0010 25D0     		beq	.L37
 422              	.LBB2:
 420:Drivers/STM32H7xx_HAL_Driver/Src/stm32h7xx_hal_rcc.c ****   {
 421:Drivers/STM32H7xx_HAL_Driver/Src/stm32h7xx_hal_rcc.c ****     /* Check the parameters */
 422:Drivers/STM32H7xx_HAL_Driver/Src/stm32h7xx_hal_rcc.c ****     assert_param(IS_RCC_HSE(RCC_OscInitStruct->HSEState));
 423              		.loc 1 422 5 is_stmt 1 view .LVU128
 423:Drivers/STM32H7xx_HAL_Driver/Src/stm32h7xx_hal_rcc.c **** 
 424:Drivers/STM32H7xx_HAL_Driver/Src/stm32h7xx_hal_rcc.c ****     const uint32_t temp_sysclksrc = __HAL_RCC_GET_SYSCLK_SOURCE();
 424              		.loc 1 424 5 view .LVU129
 425              		.loc 1 424 37 is_stmt 0 view .LVU130
 426 0012 A04A     		ldr	r2, .L151
 427 0014 1369     		ldr	r3, [r2, #16]
 428              		.loc 1 424 20 view .LVU131
 429 0016 03F03803 		and	r3, r3, #56
 430              	.LVL29:
 425:Drivers/STM32H7xx_HAL_Driver/Src/stm32h7xx_hal_rcc.c ****     const uint32_t temp_pllckselr = RCC->PLLCKSELR;
 431              		.loc 1 425 5 is_stmt 1 view .LVU132
ARM GAS  C:\Users\ADMINI~1\AppData\Local\Temp\cc7xIC5f.s 			page 16


 432              		.loc 1 425 20 is_stmt 0 view .LVU133
 433 001a 926A     		ldr	r2, [r2, #40]
 434              	.LVL30:
 426:Drivers/STM32H7xx_HAL_Driver/Src/stm32h7xx_hal_rcc.c ****     /* When the HSE is used as system clock or clock source for PLL in these cases HSE will not dis
 427:Drivers/STM32H7xx_HAL_Driver/Src/stm32h7xx_hal_rcc.c ****     if((temp_sysclksrc == RCC_CFGR_SWS_HSE) || ((temp_sysclksrc == RCC_CFGR_SWS_PLL1) && ((temp_pll
 435              		.loc 1 427 5 is_stmt 1 view .LVU134
 436              		.loc 1 427 7 is_stmt 0 view .LVU135
 437 001c 102B     		cmp	r3, #16
 438 001e 15D0     		beq	.L38
 439              		.loc 1 427 45 discriminator 1 view .LVU136
 440 0020 182B     		cmp	r3, #24
 441 0022 0FD0     		beq	.L134
 442              	.LVL31:
 443              	.L39:
 428:Drivers/STM32H7xx_HAL_Driver/Src/stm32h7xx_hal_rcc.c ****     {
 429:Drivers/STM32H7xx_HAL_Driver/Src/stm32h7xx_hal_rcc.c ****       if((__HAL_RCC_GET_FLAG(RCC_FLAG_HSERDY) != 0U) && (RCC_OscInitStruct->HSEState == RCC_HSE_OFF
 430:Drivers/STM32H7xx_HAL_Driver/Src/stm32h7xx_hal_rcc.c ****       {
 431:Drivers/STM32H7xx_HAL_Driver/Src/stm32h7xx_hal_rcc.c ****         return HAL_ERROR;
 432:Drivers/STM32H7xx_HAL_Driver/Src/stm32h7xx_hal_rcc.c ****       }
 433:Drivers/STM32H7xx_HAL_Driver/Src/stm32h7xx_hal_rcc.c ****     }
 434:Drivers/STM32H7xx_HAL_Driver/Src/stm32h7xx_hal_rcc.c ****     else
 435:Drivers/STM32H7xx_HAL_Driver/Src/stm32h7xx_hal_rcc.c ****     {
 436:Drivers/STM32H7xx_HAL_Driver/Src/stm32h7xx_hal_rcc.c ****       /* Set the new HSE configuration ---------------------------------------*/
 437:Drivers/STM32H7xx_HAL_Driver/Src/stm32h7xx_hal_rcc.c ****       __HAL_RCC_HSE_CONFIG(RCC_OscInitStruct->HSEState);
 444              		.loc 1 437 7 is_stmt 1 view .LVU137
 445              		.loc 1 437 7 view .LVU138
 446 0024 6368     		ldr	r3, [r4, #4]
 447              	.LVL32:
 448              		.loc 1 437 7 is_stmt 0 view .LVU139
 449 0026 B3F5803F 		cmp	r3, #65536
 450 002a 3FD0     		beq	.L135
 451              		.loc 1 437 7 is_stmt 1 discriminator 2 view .LVU140
 452 002c 002B     		cmp	r3, #0
 453 002e 53D1     		bne	.L42
 454              		.loc 1 437 7 discriminator 4 view .LVU141
 455 0030 984B     		ldr	r3, .L151
 456 0032 1A68     		ldr	r2, [r3]
 457 0034 22F48032 		bic	r2, r2, #65536
 458 0038 1A60     		str	r2, [r3]
 459              		.loc 1 437 7 discriminator 4 view .LVU142
 460 003a 1A68     		ldr	r2, [r3]
 461 003c 22F48022 		bic	r2, r2, #262144
 462 0040 1A60     		str	r2, [r3]
 463 0042 38E0     		b	.L41
 464              	.LVL33:
 465              	.L134:
 427:Drivers/STM32H7xx_HAL_Driver/Src/stm32h7xx_hal_rcc.c ****     {
 466              		.loc 1 427 107 is_stmt 0 discriminator 2 view .LVU143
 467 0044 02F00302 		and	r2, r2, #3
 468              	.LVL34:
 427:Drivers/STM32H7xx_HAL_Driver/Src/stm32h7xx_hal_rcc.c ****     {
 469              		.loc 1 427 87 discriminator 2 view .LVU144
 470 0048 022A     		cmp	r2, #2
 471 004a EBD1     		bne	.L39
 472              	.L38:
 429:Drivers/STM32H7xx_HAL_Driver/Src/stm32h7xx_hal_rcc.c ****       {
 473              		.loc 1 429 7 is_stmt 1 view .LVU145
ARM GAS  C:\Users\ADMINI~1\AppData\Local\Temp\cc7xIC5f.s 			page 17


 429:Drivers/STM32H7xx_HAL_Driver/Src/stm32h7xx_hal_rcc.c ****       {
 474              		.loc 1 429 11 is_stmt 0 view .LVU146
 475 004c 914B     		ldr	r3, .L151
 476              	.LVL35:
 429:Drivers/STM32H7xx_HAL_Driver/Src/stm32h7xx_hal_rcc.c ****       {
 477              		.loc 1 429 11 view .LVU147
 478 004e 1B68     		ldr	r3, [r3]
 429:Drivers/STM32H7xx_HAL_Driver/Src/stm32h7xx_hal_rcc.c ****       {
 479              		.loc 1 429 9 view .LVU148
 480 0050 13F4003F 		tst	r3, #131072
 481 0054 03D0     		beq	.L37
 429:Drivers/STM32H7xx_HAL_Driver/Src/stm32h7xx_hal_rcc.c ****       {
 482              		.loc 1 429 75 discriminator 1 view .LVU149
 483 0056 6368     		ldr	r3, [r4, #4]
 429:Drivers/STM32H7xx_HAL_Driver/Src/stm32h7xx_hal_rcc.c ****       {
 484              		.loc 1 429 54 discriminator 1 view .LVU150
 485 0058 002B     		cmp	r3, #0
 486 005a 00F08C82 		beq	.L136
 487              	.LVL36:
 488              	.L37:
 429:Drivers/STM32H7xx_HAL_Driver/Src/stm32h7xx_hal_rcc.c ****       {
 489              		.loc 1 429 54 discriminator 1 view .LVU151
 490              	.LBE2:
 438:Drivers/STM32H7xx_HAL_Driver/Src/stm32h7xx_hal_rcc.c **** 
 439:Drivers/STM32H7xx_HAL_Driver/Src/stm32h7xx_hal_rcc.c ****       /* Check the HSE State */
 440:Drivers/STM32H7xx_HAL_Driver/Src/stm32h7xx_hal_rcc.c ****       if(RCC_OscInitStruct->HSEState != RCC_HSE_OFF)
 441:Drivers/STM32H7xx_HAL_Driver/Src/stm32h7xx_hal_rcc.c ****       {
 442:Drivers/STM32H7xx_HAL_Driver/Src/stm32h7xx_hal_rcc.c ****         /* Get Start Tick*/
 443:Drivers/STM32H7xx_HAL_Driver/Src/stm32h7xx_hal_rcc.c ****         tickstart = HAL_GetTick();
 444:Drivers/STM32H7xx_HAL_Driver/Src/stm32h7xx_hal_rcc.c **** 
 445:Drivers/STM32H7xx_HAL_Driver/Src/stm32h7xx_hal_rcc.c ****         /* Wait till HSE is ready */
 446:Drivers/STM32H7xx_HAL_Driver/Src/stm32h7xx_hal_rcc.c ****         while(__HAL_RCC_GET_FLAG(RCC_FLAG_HSERDY) == 0U)
 447:Drivers/STM32H7xx_HAL_Driver/Src/stm32h7xx_hal_rcc.c ****         {
 448:Drivers/STM32H7xx_HAL_Driver/Src/stm32h7xx_hal_rcc.c ****           if((uint32_t) (HAL_GetTick() - tickstart ) > HSE_TIMEOUT_VALUE)
 449:Drivers/STM32H7xx_HAL_Driver/Src/stm32h7xx_hal_rcc.c ****           {
 450:Drivers/STM32H7xx_HAL_Driver/Src/stm32h7xx_hal_rcc.c ****             return HAL_TIMEOUT;
 451:Drivers/STM32H7xx_HAL_Driver/Src/stm32h7xx_hal_rcc.c ****           }
 452:Drivers/STM32H7xx_HAL_Driver/Src/stm32h7xx_hal_rcc.c ****         }
 453:Drivers/STM32H7xx_HAL_Driver/Src/stm32h7xx_hal_rcc.c ****       }
 454:Drivers/STM32H7xx_HAL_Driver/Src/stm32h7xx_hal_rcc.c ****       else
 455:Drivers/STM32H7xx_HAL_Driver/Src/stm32h7xx_hal_rcc.c ****       {
 456:Drivers/STM32H7xx_HAL_Driver/Src/stm32h7xx_hal_rcc.c ****         /* Get Start Tick*/
 457:Drivers/STM32H7xx_HAL_Driver/Src/stm32h7xx_hal_rcc.c ****         tickstart = HAL_GetTick();
 458:Drivers/STM32H7xx_HAL_Driver/Src/stm32h7xx_hal_rcc.c **** 
 459:Drivers/STM32H7xx_HAL_Driver/Src/stm32h7xx_hal_rcc.c ****         /* Wait till HSE is disabled */
 460:Drivers/STM32H7xx_HAL_Driver/Src/stm32h7xx_hal_rcc.c ****         while(__HAL_RCC_GET_FLAG(RCC_FLAG_HSERDY) != 0U)
 461:Drivers/STM32H7xx_HAL_Driver/Src/stm32h7xx_hal_rcc.c ****         {
 462:Drivers/STM32H7xx_HAL_Driver/Src/stm32h7xx_hal_rcc.c ****           if((uint32_t) (HAL_GetTick() - tickstart ) > HSE_TIMEOUT_VALUE)
 463:Drivers/STM32H7xx_HAL_Driver/Src/stm32h7xx_hal_rcc.c ****           {
 464:Drivers/STM32H7xx_HAL_Driver/Src/stm32h7xx_hal_rcc.c ****             return HAL_TIMEOUT;
 465:Drivers/STM32H7xx_HAL_Driver/Src/stm32h7xx_hal_rcc.c ****           }
 466:Drivers/STM32H7xx_HAL_Driver/Src/stm32h7xx_hal_rcc.c ****         }
 467:Drivers/STM32H7xx_HAL_Driver/Src/stm32h7xx_hal_rcc.c ****       }
 468:Drivers/STM32H7xx_HAL_Driver/Src/stm32h7xx_hal_rcc.c ****     }
 469:Drivers/STM32H7xx_HAL_Driver/Src/stm32h7xx_hal_rcc.c ****   }
 470:Drivers/STM32H7xx_HAL_Driver/Src/stm32h7xx_hal_rcc.c ****   /*----------------------------- HSI Configuration --------------------------*/
 471:Drivers/STM32H7xx_HAL_Driver/Src/stm32h7xx_hal_rcc.c ****   if(((RCC_OscInitStruct->OscillatorType) & RCC_OSCILLATORTYPE_HSI) == RCC_OSCILLATORTYPE_HSI)
ARM GAS  C:\Users\ADMINI~1\AppData\Local\Temp\cc7xIC5f.s 			page 18


 491              		.loc 1 471 3 is_stmt 1 view .LVU152
 492              		.loc 1 471 25 is_stmt 0 view .LVU153
 493 005e 2368     		ldr	r3, [r4]
 494              		.loc 1 471 5 view .LVU154
 495 0060 13F0020F 		tst	r3, #2
 496 0064 00F08880 		beq	.L49
 497              	.LBB3:
 472:Drivers/STM32H7xx_HAL_Driver/Src/stm32h7xx_hal_rcc.c ****   {
 473:Drivers/STM32H7xx_HAL_Driver/Src/stm32h7xx_hal_rcc.c ****     /* Check the parameters */
 474:Drivers/STM32H7xx_HAL_Driver/Src/stm32h7xx_hal_rcc.c ****     assert_param(IS_RCC_HSI(RCC_OscInitStruct->HSIState));
 498              		.loc 1 474 5 is_stmt 1 view .LVU155
 475:Drivers/STM32H7xx_HAL_Driver/Src/stm32h7xx_hal_rcc.c ****     assert_param(IS_RCC_HSICALIBRATION_VALUE(RCC_OscInitStruct->HSICalibrationValue));
 499              		.loc 1 475 5 view .LVU156
 476:Drivers/STM32H7xx_HAL_Driver/Src/stm32h7xx_hal_rcc.c **** 
 477:Drivers/STM32H7xx_HAL_Driver/Src/stm32h7xx_hal_rcc.c ****     /* When the HSI is used as system clock it will not be disabled */
 478:Drivers/STM32H7xx_HAL_Driver/Src/stm32h7xx_hal_rcc.c ****     const uint32_t temp_sysclksrc = __HAL_RCC_GET_SYSCLK_SOURCE();
 500              		.loc 1 478 5 view .LVU157
 501              		.loc 1 478 37 is_stmt 0 view .LVU158
 502 0068 8A4A     		ldr	r2, .L151
 503 006a 1369     		ldr	r3, [r2, #16]
 504              	.LVL37:
 479:Drivers/STM32H7xx_HAL_Driver/Src/stm32h7xx_hal_rcc.c ****     const uint32_t temp_pllckselr = RCC->PLLCKSELR;
 505              		.loc 1 479 5 is_stmt 1 view .LVU159
 506              		.loc 1 479 20 is_stmt 0 view .LVU160
 507 006c 926A     		ldr	r2, [r2, #40]
 508              	.LVL38:
 480:Drivers/STM32H7xx_HAL_Driver/Src/stm32h7xx_hal_rcc.c ****     if((temp_sysclksrc == RCC_CFGR_SWS_HSI) || ((temp_sysclksrc == RCC_CFGR_SWS_PLL1) && ((temp_pll
 509              		.loc 1 480 5 is_stmt 1 view .LVU161
 510              		.loc 1 480 7 is_stmt 0 view .LVU162
 511 006e 13F03803 		ands	r3, r3, #56
 512              	.LVL39:
 513              		.loc 1 480 7 view .LVU163
 514 0072 5AD0     		beq	.L50
 515              		.loc 1 480 45 discriminator 1 view .LVU164
 516 0074 182B     		cmp	r3, #24
 517 0076 55D0     		beq	.L137
 518              	.L51:
 481:Drivers/STM32H7xx_HAL_Driver/Src/stm32h7xx_hal_rcc.c ****     {
 482:Drivers/STM32H7xx_HAL_Driver/Src/stm32h7xx_hal_rcc.c ****       /* When HSI is used as system clock it will not be disabled */
 483:Drivers/STM32H7xx_HAL_Driver/Src/stm32h7xx_hal_rcc.c ****       if((__HAL_RCC_GET_FLAG(RCC_FLAG_HSIRDY) != 0U) && (RCC_OscInitStruct->HSIState == RCC_HSI_OFF
 484:Drivers/STM32H7xx_HAL_Driver/Src/stm32h7xx_hal_rcc.c ****       {
 485:Drivers/STM32H7xx_HAL_Driver/Src/stm32h7xx_hal_rcc.c ****         return HAL_ERROR;
 486:Drivers/STM32H7xx_HAL_Driver/Src/stm32h7xx_hal_rcc.c ****       }
 487:Drivers/STM32H7xx_HAL_Driver/Src/stm32h7xx_hal_rcc.c ****       /* Otherwise, only HSI division and calibration are allowed */
 488:Drivers/STM32H7xx_HAL_Driver/Src/stm32h7xx_hal_rcc.c ****       else
 489:Drivers/STM32H7xx_HAL_Driver/Src/stm32h7xx_hal_rcc.c ****       {
 490:Drivers/STM32H7xx_HAL_Driver/Src/stm32h7xx_hal_rcc.c ****           /* Enable the Internal High Speed oscillator (HSI, HSIDIV2, HSIDIV4, or HSIDIV8) */
 491:Drivers/STM32H7xx_HAL_Driver/Src/stm32h7xx_hal_rcc.c ****           __HAL_RCC_HSI_CONFIG(RCC_OscInitStruct->HSIState);
 492:Drivers/STM32H7xx_HAL_Driver/Src/stm32h7xx_hal_rcc.c **** 
 493:Drivers/STM32H7xx_HAL_Driver/Src/stm32h7xx_hal_rcc.c ****           /* Get Start Tick*/
 494:Drivers/STM32H7xx_HAL_Driver/Src/stm32h7xx_hal_rcc.c ****           tickstart = HAL_GetTick();
 495:Drivers/STM32H7xx_HAL_Driver/Src/stm32h7xx_hal_rcc.c **** 
 496:Drivers/STM32H7xx_HAL_Driver/Src/stm32h7xx_hal_rcc.c ****           /* Wait till HSI is ready */
 497:Drivers/STM32H7xx_HAL_Driver/Src/stm32h7xx_hal_rcc.c ****           while(__HAL_RCC_GET_FLAG(RCC_FLAG_HSIRDY) == 0U)
 498:Drivers/STM32H7xx_HAL_Driver/Src/stm32h7xx_hal_rcc.c ****           {
 499:Drivers/STM32H7xx_HAL_Driver/Src/stm32h7xx_hal_rcc.c ****             if((uint32_t) (HAL_GetTick() - tickstart ) > HSI_TIMEOUT_VALUE)
 500:Drivers/STM32H7xx_HAL_Driver/Src/stm32h7xx_hal_rcc.c ****             {
ARM GAS  C:\Users\ADMINI~1\AppData\Local\Temp\cc7xIC5f.s 			page 19


 501:Drivers/STM32H7xx_HAL_Driver/Src/stm32h7xx_hal_rcc.c ****               return HAL_TIMEOUT;
 502:Drivers/STM32H7xx_HAL_Driver/Src/stm32h7xx_hal_rcc.c ****             }
 503:Drivers/STM32H7xx_HAL_Driver/Src/stm32h7xx_hal_rcc.c ****           }
 504:Drivers/STM32H7xx_HAL_Driver/Src/stm32h7xx_hal_rcc.c ****         /* Adjusts the Internal High Speed oscillator (HSI) calibration value.*/
 505:Drivers/STM32H7xx_HAL_Driver/Src/stm32h7xx_hal_rcc.c ****         __HAL_RCC_HSI_CALIBRATIONVALUE_ADJUST(RCC_OscInitStruct->HSICalibrationValue);
 506:Drivers/STM32H7xx_HAL_Driver/Src/stm32h7xx_hal_rcc.c ****       }
 507:Drivers/STM32H7xx_HAL_Driver/Src/stm32h7xx_hal_rcc.c ****     }
 508:Drivers/STM32H7xx_HAL_Driver/Src/stm32h7xx_hal_rcc.c **** 
 509:Drivers/STM32H7xx_HAL_Driver/Src/stm32h7xx_hal_rcc.c ****     else
 510:Drivers/STM32H7xx_HAL_Driver/Src/stm32h7xx_hal_rcc.c ****     {
 511:Drivers/STM32H7xx_HAL_Driver/Src/stm32h7xx_hal_rcc.c ****       /* Check the HSI State */
 512:Drivers/STM32H7xx_HAL_Driver/Src/stm32h7xx_hal_rcc.c ****       if((RCC_OscInitStruct->HSIState)!= RCC_HSI_OFF)
 519              		.loc 1 512 7 is_stmt 1 view .LVU165
 520              		.loc 1 512 28 is_stmt 0 view .LVU166
 521 0078 E368     		ldr	r3, [r4, #12]
 522              	.LVL40:
 523              		.loc 1 512 9 view .LVU167
 524 007a 002B     		cmp	r3, #0
 525 007c 00F0A980 		beq	.L55
 513:Drivers/STM32H7xx_HAL_Driver/Src/stm32h7xx_hal_rcc.c ****       {
 514:Drivers/STM32H7xx_HAL_Driver/Src/stm32h7xx_hal_rcc.c ****      /* Enable the Internal High Speed oscillator (HSI, HSIDIV2,HSIDIV4, or HSIDIV8) */
 515:Drivers/STM32H7xx_HAL_Driver/Src/stm32h7xx_hal_rcc.c ****         __HAL_RCC_HSI_CONFIG(RCC_OscInitStruct->HSIState);
 526              		.loc 1 515 9 is_stmt 1 view .LVU168
 527 0080 8449     		ldr	r1, .L151
 528 0082 0A68     		ldr	r2, [r1]
 529              	.LVL41:
 530              		.loc 1 515 9 is_stmt 0 view .LVU169
 531 0084 22F01902 		bic	r2, r2, #25
 532 0088 1343     		orrs	r3, r3, r2
 533 008a 0B60     		str	r3, [r1]
 516:Drivers/STM32H7xx_HAL_Driver/Src/stm32h7xx_hal_rcc.c **** 
 517:Drivers/STM32H7xx_HAL_Driver/Src/stm32h7xx_hal_rcc.c ****         /* Get Start Tick*/
 518:Drivers/STM32H7xx_HAL_Driver/Src/stm32h7xx_hal_rcc.c ****         tickstart = HAL_GetTick();
 534              		.loc 1 518 9 is_stmt 1 view .LVU170
 535              		.loc 1 518 21 is_stmt 0 view .LVU171
 536 008c FFF7FEFF 		bl	HAL_GetTick
 537              	.LVL42:
 538 0090 0546     		mov	r5, r0
 539              	.LVL43:
 519:Drivers/STM32H7xx_HAL_Driver/Src/stm32h7xx_hal_rcc.c **** 
 520:Drivers/STM32H7xx_HAL_Driver/Src/stm32h7xx_hal_rcc.c ****         /* Wait till HSI is ready */
 521:Drivers/STM32H7xx_HAL_Driver/Src/stm32h7xx_hal_rcc.c ****         while(__HAL_RCC_GET_FLAG(RCC_FLAG_HSIRDY) == 0U)
 540              		.loc 1 521 9 is_stmt 1 view .LVU172
 541              	.L56:
 542              		.loc 1 521 14 view .LVU173
 543              		.loc 1 521 15 is_stmt 0 view .LVU174
 544 0092 804B     		ldr	r3, .L151
 545 0094 1B68     		ldr	r3, [r3]
 546              		.loc 1 521 14 view .LVU175
 547 0096 13F0040F 		tst	r3, #4
 548 009a 40F09180 		bne	.L138
 522:Drivers/STM32H7xx_HAL_Driver/Src/stm32h7xx_hal_rcc.c ****         {
 523:Drivers/STM32H7xx_HAL_Driver/Src/stm32h7xx_hal_rcc.c ****           if((HAL_GetTick() - tickstart ) > HSI_TIMEOUT_VALUE)
 549              		.loc 1 523 11 is_stmt 1 view .LVU176
 550              		.loc 1 523 15 is_stmt 0 view .LVU177
 551 009e FFF7FEFF 		bl	HAL_GetTick
 552              	.LVL44:
ARM GAS  C:\Users\ADMINI~1\AppData\Local\Temp\cc7xIC5f.s 			page 20


 553              		.loc 1 523 29 view .LVU178
 554 00a2 401B     		subs	r0, r0, r5
 555              		.loc 1 523 13 view .LVU179
 556 00a4 0228     		cmp	r0, #2
 557 00a6 F4D9     		bls	.L56
 524:Drivers/STM32H7xx_HAL_Driver/Src/stm32h7xx_hal_rcc.c ****           {
 525:Drivers/STM32H7xx_HAL_Driver/Src/stm32h7xx_hal_rcc.c ****             return HAL_TIMEOUT;
 558              		.loc 1 525 20 view .LVU180
 559 00a8 0320     		movs	r0, #3
 560 00aa 6BE2     		b	.L36
 561              	.LVL45:
 562              	.L135:
 563              		.loc 1 525 20 view .LVU181
 564              	.LBE3:
 565              	.LBB4:
 437:Drivers/STM32H7xx_HAL_Driver/Src/stm32h7xx_hal_rcc.c **** 
 566              		.loc 1 437 7 is_stmt 1 discriminator 1 view .LVU182
 567 00ac 794A     		ldr	r2, .L151
 568 00ae 1368     		ldr	r3, [r2]
 569 00b0 43F48033 		orr	r3, r3, #65536
 570 00b4 1360     		str	r3, [r2]
 571              	.L41:
 437:Drivers/STM32H7xx_HAL_Driver/Src/stm32h7xx_hal_rcc.c **** 
 572              		.loc 1 437 7 discriminator 10 view .LVU183
 440:Drivers/STM32H7xx_HAL_Driver/Src/stm32h7xx_hal_rcc.c ****       {
 573              		.loc 1 440 7 discriminator 10 view .LVU184
 440:Drivers/STM32H7xx_HAL_Driver/Src/stm32h7xx_hal_rcc.c ****       {
 574              		.loc 1 440 27 is_stmt 0 discriminator 10 view .LVU185
 575 00b6 6368     		ldr	r3, [r4, #4]
 440:Drivers/STM32H7xx_HAL_Driver/Src/stm32h7xx_hal_rcc.c ****       {
 576              		.loc 1 440 9 discriminator 10 view .LVU186
 577 00b8 2BB3     		cbz	r3, .L44
 443:Drivers/STM32H7xx_HAL_Driver/Src/stm32h7xx_hal_rcc.c **** 
 578              		.loc 1 443 9 is_stmt 1 view .LVU187
 443:Drivers/STM32H7xx_HAL_Driver/Src/stm32h7xx_hal_rcc.c **** 
 579              		.loc 1 443 21 is_stmt 0 view .LVU188
 580 00ba FFF7FEFF 		bl	HAL_GetTick
 581              	.LVL46:
 443:Drivers/STM32H7xx_HAL_Driver/Src/stm32h7xx_hal_rcc.c **** 
 582              		.loc 1 443 21 view .LVU189
 583 00be 0546     		mov	r5, r0
 584              	.LVL47:
 446:Drivers/STM32H7xx_HAL_Driver/Src/stm32h7xx_hal_rcc.c ****         {
 585              		.loc 1 446 9 is_stmt 1 view .LVU190
 586              	.L45:
 446:Drivers/STM32H7xx_HAL_Driver/Src/stm32h7xx_hal_rcc.c ****         {
 587              		.loc 1 446 14 view .LVU191
 446:Drivers/STM32H7xx_HAL_Driver/Src/stm32h7xx_hal_rcc.c ****         {
 588              		.loc 1 446 15 is_stmt 0 view .LVU192
 589 00c0 744B     		ldr	r3, .L151
 590 00c2 1B68     		ldr	r3, [r3]
 446:Drivers/STM32H7xx_HAL_Driver/Src/stm32h7xx_hal_rcc.c ****         {
 591              		.loc 1 446 14 view .LVU193
 592 00c4 13F4003F 		tst	r3, #131072
 593 00c8 C9D1     		bne	.L37
 448:Drivers/STM32H7xx_HAL_Driver/Src/stm32h7xx_hal_rcc.c ****           {
 594              		.loc 1 448 11 is_stmt 1 view .LVU194
ARM GAS  C:\Users\ADMINI~1\AppData\Local\Temp\cc7xIC5f.s 			page 21


 448:Drivers/STM32H7xx_HAL_Driver/Src/stm32h7xx_hal_rcc.c ****           {
 595              		.loc 1 448 26 is_stmt 0 view .LVU195
 596 00ca FFF7FEFF 		bl	HAL_GetTick
 597              	.LVL48:
 448:Drivers/STM32H7xx_HAL_Driver/Src/stm32h7xx_hal_rcc.c ****           {
 598              		.loc 1 448 40 view .LVU196
 599 00ce 401B     		subs	r0, r0, r5
 448:Drivers/STM32H7xx_HAL_Driver/Src/stm32h7xx_hal_rcc.c ****           {
 600              		.loc 1 448 13 view .LVU197
 601 00d0 6428     		cmp	r0, #100
 602 00d2 F5D9     		bls	.L45
 450:Drivers/STM32H7xx_HAL_Driver/Src/stm32h7xx_hal_rcc.c ****           }
 603              		.loc 1 450 20 view .LVU198
 604 00d4 0320     		movs	r0, #3
 605 00d6 55E2     		b	.L36
 606              	.LVL49:
 607              	.L42:
 437:Drivers/STM32H7xx_HAL_Driver/Src/stm32h7xx_hal_rcc.c **** 
 608              		.loc 1 437 7 is_stmt 1 discriminator 5 view .LVU199
 609 00d8 B3F5A02F 		cmp	r3, #327680
 610 00dc 09D0     		beq	.L139
 437:Drivers/STM32H7xx_HAL_Driver/Src/stm32h7xx_hal_rcc.c **** 
 611              		.loc 1 437 7 discriminator 8 view .LVU200
 612 00de 6D4B     		ldr	r3, .L151
 613 00e0 1A68     		ldr	r2, [r3]
 614 00e2 22F48032 		bic	r2, r2, #65536
 615 00e6 1A60     		str	r2, [r3]
 437:Drivers/STM32H7xx_HAL_Driver/Src/stm32h7xx_hal_rcc.c **** 
 616              		.loc 1 437 7 discriminator 8 view .LVU201
 617 00e8 1A68     		ldr	r2, [r3]
 618 00ea 22F48022 		bic	r2, r2, #262144
 619 00ee 1A60     		str	r2, [r3]
 620 00f0 E1E7     		b	.L41
 621              	.L139:
 437:Drivers/STM32H7xx_HAL_Driver/Src/stm32h7xx_hal_rcc.c **** 
 622              		.loc 1 437 7 discriminator 7 view .LVU202
 623 00f2 684B     		ldr	r3, .L151
 624 00f4 1A68     		ldr	r2, [r3]
 625 00f6 42F48022 		orr	r2, r2, #262144
 626 00fa 1A60     		str	r2, [r3]
 437:Drivers/STM32H7xx_HAL_Driver/Src/stm32h7xx_hal_rcc.c **** 
 627              		.loc 1 437 7 discriminator 7 view .LVU203
 628 00fc 1A68     		ldr	r2, [r3]
 629 00fe 42F48032 		orr	r2, r2, #65536
 630 0102 1A60     		str	r2, [r3]
 631 0104 D7E7     		b	.L41
 632              	.L44:
 457:Drivers/STM32H7xx_HAL_Driver/Src/stm32h7xx_hal_rcc.c **** 
 633              		.loc 1 457 9 view .LVU204
 457:Drivers/STM32H7xx_HAL_Driver/Src/stm32h7xx_hal_rcc.c **** 
 634              		.loc 1 457 21 is_stmt 0 view .LVU205
 635 0106 FFF7FEFF 		bl	HAL_GetTick
 636              	.LVL50:
 457:Drivers/STM32H7xx_HAL_Driver/Src/stm32h7xx_hal_rcc.c **** 
 637              		.loc 1 457 21 view .LVU206
 638 010a 0546     		mov	r5, r0
 639              	.LVL51:
ARM GAS  C:\Users\ADMINI~1\AppData\Local\Temp\cc7xIC5f.s 			page 22


 460:Drivers/STM32H7xx_HAL_Driver/Src/stm32h7xx_hal_rcc.c ****         {
 640              		.loc 1 460 9 is_stmt 1 view .LVU207
 641              	.L47:
 460:Drivers/STM32H7xx_HAL_Driver/Src/stm32h7xx_hal_rcc.c ****         {
 642              		.loc 1 460 14 view .LVU208
 460:Drivers/STM32H7xx_HAL_Driver/Src/stm32h7xx_hal_rcc.c ****         {
 643              		.loc 1 460 15 is_stmt 0 view .LVU209
 644 010c 614B     		ldr	r3, .L151
 645 010e 1B68     		ldr	r3, [r3]
 460:Drivers/STM32H7xx_HAL_Driver/Src/stm32h7xx_hal_rcc.c ****         {
 646              		.loc 1 460 14 view .LVU210
 647 0110 13F4003F 		tst	r3, #131072
 648 0114 A3D0     		beq	.L37
 462:Drivers/STM32H7xx_HAL_Driver/Src/stm32h7xx_hal_rcc.c ****           {
 649              		.loc 1 462 11 is_stmt 1 view .LVU211
 462:Drivers/STM32H7xx_HAL_Driver/Src/stm32h7xx_hal_rcc.c ****           {
 650              		.loc 1 462 26 is_stmt 0 view .LVU212
 651 0116 FFF7FEFF 		bl	HAL_GetTick
 652              	.LVL52:
 462:Drivers/STM32H7xx_HAL_Driver/Src/stm32h7xx_hal_rcc.c ****           {
 653              		.loc 1 462 40 view .LVU213
 654 011a 401B     		subs	r0, r0, r5
 462:Drivers/STM32H7xx_HAL_Driver/Src/stm32h7xx_hal_rcc.c ****           {
 655              		.loc 1 462 13 view .LVU214
 656 011c 6428     		cmp	r0, #100
 657 011e F5D9     		bls	.L47
 464:Drivers/STM32H7xx_HAL_Driver/Src/stm32h7xx_hal_rcc.c ****           }
 658              		.loc 1 464 20 view .LVU215
 659 0120 0320     		movs	r0, #3
 660 0122 2FE2     		b	.L36
 661              	.LVL53:
 662              	.L137:
 464:Drivers/STM32H7xx_HAL_Driver/Src/stm32h7xx_hal_rcc.c ****           }
 663              		.loc 1 464 20 view .LVU216
 664              	.LBE4:
 665              	.LBB5:
 480:Drivers/STM32H7xx_HAL_Driver/Src/stm32h7xx_hal_rcc.c ****     {
 666              		.loc 1 480 87 discriminator 2 view .LVU217
 667 0124 12F0030F 		tst	r2, #3
 668 0128 A6D1     		bne	.L51
 669              	.L50:
 483:Drivers/STM32H7xx_HAL_Driver/Src/stm32h7xx_hal_rcc.c ****       {
 670              		.loc 1 483 7 is_stmt 1 view .LVU218
 483:Drivers/STM32H7xx_HAL_Driver/Src/stm32h7xx_hal_rcc.c ****       {
 671              		.loc 1 483 11 is_stmt 0 view .LVU219
 672 012a 5A4B     		ldr	r3, .L151
 673              	.LVL54:
 483:Drivers/STM32H7xx_HAL_Driver/Src/stm32h7xx_hal_rcc.c ****       {
 674              		.loc 1 483 11 view .LVU220
 675 012c 1B68     		ldr	r3, [r3]
 483:Drivers/STM32H7xx_HAL_Driver/Src/stm32h7xx_hal_rcc.c ****       {
 676              		.loc 1 483 9 view .LVU221
 677 012e 13F0040F 		tst	r3, #4
 678 0132 03D0     		beq	.L52
 483:Drivers/STM32H7xx_HAL_Driver/Src/stm32h7xx_hal_rcc.c ****       {
 679              		.loc 1 483 75 discriminator 1 view .LVU222
 680 0134 E368     		ldr	r3, [r4, #12]
ARM GAS  C:\Users\ADMINI~1\AppData\Local\Temp\cc7xIC5f.s 			page 23


 483:Drivers/STM32H7xx_HAL_Driver/Src/stm32h7xx_hal_rcc.c ****       {
 681              		.loc 1 483 54 discriminator 1 view .LVU223
 682 0136 002B     		cmp	r3, #0
 683 0138 00F01F82 		beq	.L105
 684              	.L52:
 491:Drivers/STM32H7xx_HAL_Driver/Src/stm32h7xx_hal_rcc.c **** 
 685              		.loc 1 491 11 is_stmt 1 view .LVU224
 686 013c 554A     		ldr	r2, .L151
 687              	.LVL55:
 491:Drivers/STM32H7xx_HAL_Driver/Src/stm32h7xx_hal_rcc.c **** 
 688              		.loc 1 491 11 is_stmt 0 view .LVU225
 689 013e 1368     		ldr	r3, [r2]
 690 0140 23F01903 		bic	r3, r3, #25
 691 0144 E168     		ldr	r1, [r4, #12]
 692 0146 0B43     		orrs	r3, r3, r1
 693 0148 1360     		str	r3, [r2]
 494:Drivers/STM32H7xx_HAL_Driver/Src/stm32h7xx_hal_rcc.c **** 
 694              		.loc 1 494 11 is_stmt 1 view .LVU226
 494:Drivers/STM32H7xx_HAL_Driver/Src/stm32h7xx_hal_rcc.c **** 
 695              		.loc 1 494 23 is_stmt 0 view .LVU227
 696 014a FFF7FEFF 		bl	HAL_GetTick
 697              	.LVL56:
 698 014e 0546     		mov	r5, r0
 699              	.LVL57:
 497:Drivers/STM32H7xx_HAL_Driver/Src/stm32h7xx_hal_rcc.c ****           {
 700              		.loc 1 497 11 is_stmt 1 view .LVU228
 701              	.L53:
 497:Drivers/STM32H7xx_HAL_Driver/Src/stm32h7xx_hal_rcc.c ****           {
 702              		.loc 1 497 16 view .LVU229
 497:Drivers/STM32H7xx_HAL_Driver/Src/stm32h7xx_hal_rcc.c ****           {
 703              		.loc 1 497 17 is_stmt 0 view .LVU230
 704 0150 504B     		ldr	r3, .L151
 705 0152 1B68     		ldr	r3, [r3]
 497:Drivers/STM32H7xx_HAL_Driver/Src/stm32h7xx_hal_rcc.c ****           {
 706              		.loc 1 497 16 view .LVU231
 707 0154 13F0040F 		tst	r3, #4
 708 0158 06D1     		bne	.L140
 499:Drivers/STM32H7xx_HAL_Driver/Src/stm32h7xx_hal_rcc.c ****             {
 709              		.loc 1 499 13 is_stmt 1 view .LVU232
 499:Drivers/STM32H7xx_HAL_Driver/Src/stm32h7xx_hal_rcc.c ****             {
 710              		.loc 1 499 28 is_stmt 0 view .LVU233
 711 015a FFF7FEFF 		bl	HAL_GetTick
 712              	.LVL58:
 499:Drivers/STM32H7xx_HAL_Driver/Src/stm32h7xx_hal_rcc.c ****             {
 713              		.loc 1 499 42 view .LVU234
 714 015e 401B     		subs	r0, r0, r5
 499:Drivers/STM32H7xx_HAL_Driver/Src/stm32h7xx_hal_rcc.c ****             {
 715              		.loc 1 499 15 view .LVU235
 716 0160 0228     		cmp	r0, #2
 717 0162 F5D9     		bls	.L53
 501:Drivers/STM32H7xx_HAL_Driver/Src/stm32h7xx_hal_rcc.c ****             }
 718              		.loc 1 501 22 view .LVU236
 719 0164 0320     		movs	r0, #3
 720 0166 0DE2     		b	.L36
 721              	.L140:
 505:Drivers/STM32H7xx_HAL_Driver/Src/stm32h7xx_hal_rcc.c ****       }
 722              		.loc 1 505 9 is_stmt 1 view .LVU237
ARM GAS  C:\Users\ADMINI~1\AppData\Local\Temp\cc7xIC5f.s 			page 24


 723 0168 4A4A     		ldr	r2, .L151
 724 016a 5368     		ldr	r3, [r2, #4]
 725 016c 23F0FE43 		bic	r3, r3, #2130706432
 726 0170 2169     		ldr	r1, [r4, #16]
 727 0172 43EA0163 		orr	r3, r3, r1, lsl #24
 728 0176 5360     		str	r3, [r2, #4]
 505:Drivers/STM32H7xx_HAL_Driver/Src/stm32h7xx_hal_rcc.c ****       }
 729              		.loc 1 505 86 view .LVU238
 730              	.LVL59:
 731              	.L49:
 505:Drivers/STM32H7xx_HAL_Driver/Src/stm32h7xx_hal_rcc.c ****       }
 732              		.loc 1 505 86 is_stmt 0 view .LVU239
 733              	.LBE5:
 526:Drivers/STM32H7xx_HAL_Driver/Src/stm32h7xx_hal_rcc.c ****           }
 527:Drivers/STM32H7xx_HAL_Driver/Src/stm32h7xx_hal_rcc.c ****         }
 528:Drivers/STM32H7xx_HAL_Driver/Src/stm32h7xx_hal_rcc.c **** 
 529:Drivers/STM32H7xx_HAL_Driver/Src/stm32h7xx_hal_rcc.c ****         /* Adjusts the Internal High Speed oscillator (HSI) calibration value.*/
 530:Drivers/STM32H7xx_HAL_Driver/Src/stm32h7xx_hal_rcc.c ****         __HAL_RCC_HSI_CALIBRATIONVALUE_ADJUST(RCC_OscInitStruct->HSICalibrationValue);
 531:Drivers/STM32H7xx_HAL_Driver/Src/stm32h7xx_hal_rcc.c ****       }
 532:Drivers/STM32H7xx_HAL_Driver/Src/stm32h7xx_hal_rcc.c ****       else
 533:Drivers/STM32H7xx_HAL_Driver/Src/stm32h7xx_hal_rcc.c ****       {
 534:Drivers/STM32H7xx_HAL_Driver/Src/stm32h7xx_hal_rcc.c ****         /* Disable the Internal High Speed oscillator (HSI). */
 535:Drivers/STM32H7xx_HAL_Driver/Src/stm32h7xx_hal_rcc.c ****         __HAL_RCC_HSI_DISABLE();
 536:Drivers/STM32H7xx_HAL_Driver/Src/stm32h7xx_hal_rcc.c **** 
 537:Drivers/STM32H7xx_HAL_Driver/Src/stm32h7xx_hal_rcc.c ****         /* Get Start Tick*/
 538:Drivers/STM32H7xx_HAL_Driver/Src/stm32h7xx_hal_rcc.c ****         tickstart = HAL_GetTick();
 539:Drivers/STM32H7xx_HAL_Driver/Src/stm32h7xx_hal_rcc.c **** 
 540:Drivers/STM32H7xx_HAL_Driver/Src/stm32h7xx_hal_rcc.c ****         /* Wait till HSI is disabled */
 541:Drivers/STM32H7xx_HAL_Driver/Src/stm32h7xx_hal_rcc.c ****         while(__HAL_RCC_GET_FLAG(RCC_FLAG_HSIRDY) != 0U)
 542:Drivers/STM32H7xx_HAL_Driver/Src/stm32h7xx_hal_rcc.c ****         {
 543:Drivers/STM32H7xx_HAL_Driver/Src/stm32h7xx_hal_rcc.c ****           if((HAL_GetTick() - tickstart ) > HSI_TIMEOUT_VALUE)
 544:Drivers/STM32H7xx_HAL_Driver/Src/stm32h7xx_hal_rcc.c ****           {
 545:Drivers/STM32H7xx_HAL_Driver/Src/stm32h7xx_hal_rcc.c ****             return HAL_TIMEOUT;
 546:Drivers/STM32H7xx_HAL_Driver/Src/stm32h7xx_hal_rcc.c ****           }
 547:Drivers/STM32H7xx_HAL_Driver/Src/stm32h7xx_hal_rcc.c ****         }
 548:Drivers/STM32H7xx_HAL_Driver/Src/stm32h7xx_hal_rcc.c ****       }
 549:Drivers/STM32H7xx_HAL_Driver/Src/stm32h7xx_hal_rcc.c ****     }
 550:Drivers/STM32H7xx_HAL_Driver/Src/stm32h7xx_hal_rcc.c ****   }
 551:Drivers/STM32H7xx_HAL_Driver/Src/stm32h7xx_hal_rcc.c ****   /*----------------------------- CSI Configuration --------------------------*/
 552:Drivers/STM32H7xx_HAL_Driver/Src/stm32h7xx_hal_rcc.c ****   if(((RCC_OscInitStruct->OscillatorType) & RCC_OSCILLATORTYPE_CSI) == RCC_OSCILLATORTYPE_CSI)
 734              		.loc 1 552 3 is_stmt 1 view .LVU240
 735              		.loc 1 552 25 is_stmt 0 view .LVU241
 736 0178 2368     		ldr	r3, [r4]
 737              		.loc 1 552 5 view .LVU242
 738 017a 13F0100F 		tst	r3, #16
 739 017e 51D0     		beq	.L60
 740              	.LBB6:
 553:Drivers/STM32H7xx_HAL_Driver/Src/stm32h7xx_hal_rcc.c ****   {
 554:Drivers/STM32H7xx_HAL_Driver/Src/stm32h7xx_hal_rcc.c ****     /* Check the parameters */
 555:Drivers/STM32H7xx_HAL_Driver/Src/stm32h7xx_hal_rcc.c ****     assert_param(IS_RCC_CSI(RCC_OscInitStruct->CSIState));
 741              		.loc 1 555 5 is_stmt 1 view .LVU243
 556:Drivers/STM32H7xx_HAL_Driver/Src/stm32h7xx_hal_rcc.c ****     assert_param(IS_RCC_CSICALIBRATION_VALUE(RCC_OscInitStruct->CSICalibrationValue));
 742              		.loc 1 556 5 view .LVU244
 557:Drivers/STM32H7xx_HAL_Driver/Src/stm32h7xx_hal_rcc.c **** 
 558:Drivers/STM32H7xx_HAL_Driver/Src/stm32h7xx_hal_rcc.c ****     /* When the CSI is used as system clock it will not disabled */
 559:Drivers/STM32H7xx_HAL_Driver/Src/stm32h7xx_hal_rcc.c ****     const uint32_t temp_sysclksrc = __HAL_RCC_GET_SYSCLK_SOURCE();
 743              		.loc 1 559 5 view .LVU245
ARM GAS  C:\Users\ADMINI~1\AppData\Local\Temp\cc7xIC5f.s 			page 25


 744              		.loc 1 559 37 is_stmt 0 view .LVU246
 745 0180 444A     		ldr	r2, .L151
 746 0182 1369     		ldr	r3, [r2, #16]
 747              		.loc 1 559 20 view .LVU247
 748 0184 03F03803 		and	r3, r3, #56
 749              	.LVL60:
 560:Drivers/STM32H7xx_HAL_Driver/Src/stm32h7xx_hal_rcc.c ****     const uint32_t temp_pllckselr = RCC->PLLCKSELR;
 750              		.loc 1 560 5 is_stmt 1 view .LVU248
 751              		.loc 1 560 20 is_stmt 0 view .LVU249
 752 0188 926A     		ldr	r2, [r2, #40]
 753              	.LVL61:
 561:Drivers/STM32H7xx_HAL_Driver/Src/stm32h7xx_hal_rcc.c ****     if((temp_sysclksrc == RCC_CFGR_SWS_CSI) || ((temp_sysclksrc == RCC_CFGR_SWS_PLL1) && ((temp_pll
 754              		.loc 1 561 5 is_stmt 1 view .LVU250
 755              		.loc 1 561 7 is_stmt 0 view .LVU251
 756 018a 082B     		cmp	r3, #8
 757 018c 39D0     		beq	.L61
 758              		.loc 1 561 45 discriminator 1 view .LVU252
 759 018e 182B     		cmp	r3, #24
 760 0190 33D0     		beq	.L141
 761              	.LVL62:
 762              	.L62:
 562:Drivers/STM32H7xx_HAL_Driver/Src/stm32h7xx_hal_rcc.c ****     {
 563:Drivers/STM32H7xx_HAL_Driver/Src/stm32h7xx_hal_rcc.c ****       /* When CSI is used as system clock it will not disabled */
 564:Drivers/STM32H7xx_HAL_Driver/Src/stm32h7xx_hal_rcc.c ****       if((__HAL_RCC_GET_FLAG(RCC_FLAG_CSIRDY) != 0U) && (RCC_OscInitStruct->CSIState != RCC_CSI_ON)
 565:Drivers/STM32H7xx_HAL_Driver/Src/stm32h7xx_hal_rcc.c ****       {
 566:Drivers/STM32H7xx_HAL_Driver/Src/stm32h7xx_hal_rcc.c ****         return HAL_ERROR;
 567:Drivers/STM32H7xx_HAL_Driver/Src/stm32h7xx_hal_rcc.c ****       }
 568:Drivers/STM32H7xx_HAL_Driver/Src/stm32h7xx_hal_rcc.c ****       /* Otherwise, just the calibration is allowed */
 569:Drivers/STM32H7xx_HAL_Driver/Src/stm32h7xx_hal_rcc.c ****       else
 570:Drivers/STM32H7xx_HAL_Driver/Src/stm32h7xx_hal_rcc.c ****       {
 571:Drivers/STM32H7xx_HAL_Driver/Src/stm32h7xx_hal_rcc.c ****         /* Adjusts the Internal High Speed oscillator (CSI) calibration value.*/
 572:Drivers/STM32H7xx_HAL_Driver/Src/stm32h7xx_hal_rcc.c ****         __HAL_RCC_CSI_CALIBRATIONVALUE_ADJUST(RCC_OscInitStruct->CSICalibrationValue);
 573:Drivers/STM32H7xx_HAL_Driver/Src/stm32h7xx_hal_rcc.c ****       }
 574:Drivers/STM32H7xx_HAL_Driver/Src/stm32h7xx_hal_rcc.c ****     }
 575:Drivers/STM32H7xx_HAL_Driver/Src/stm32h7xx_hal_rcc.c ****     else
 576:Drivers/STM32H7xx_HAL_Driver/Src/stm32h7xx_hal_rcc.c ****     {
 577:Drivers/STM32H7xx_HAL_Driver/Src/stm32h7xx_hal_rcc.c ****       /* Check the CSI State */
 578:Drivers/STM32H7xx_HAL_Driver/Src/stm32h7xx_hal_rcc.c ****       if((RCC_OscInitStruct->CSIState)!= RCC_CSI_OFF)
 763              		.loc 1 578 7 is_stmt 1 view .LVU253
 764              		.loc 1 578 28 is_stmt 0 view .LVU254
 765 0192 E369     		ldr	r3, [r4, #28]
 766              	.LVL63:
 767              		.loc 1 578 9 view .LVU255
 768 0194 002B     		cmp	r3, #0
 769 0196 69D0     		beq	.L64
 579:Drivers/STM32H7xx_HAL_Driver/Src/stm32h7xx_hal_rcc.c ****       {
 580:Drivers/STM32H7xx_HAL_Driver/Src/stm32h7xx_hal_rcc.c ****         /* Enable the Internal High Speed oscillator (CSI). */
 581:Drivers/STM32H7xx_HAL_Driver/Src/stm32h7xx_hal_rcc.c ****         __HAL_RCC_CSI_ENABLE();
 770              		.loc 1 581 9 is_stmt 1 view .LVU256
 771 0198 3E4A     		ldr	r2, .L151
 772 019a 1368     		ldr	r3, [r2]
 773 019c 43F08003 		orr	r3, r3, #128
 774 01a0 1360     		str	r3, [r2]
 582:Drivers/STM32H7xx_HAL_Driver/Src/stm32h7xx_hal_rcc.c **** 
 583:Drivers/STM32H7xx_HAL_Driver/Src/stm32h7xx_hal_rcc.c ****         /* Get Start Tick*/
 584:Drivers/STM32H7xx_HAL_Driver/Src/stm32h7xx_hal_rcc.c ****         tickstart = HAL_GetTick();
 775              		.loc 1 584 9 view .LVU257
ARM GAS  C:\Users\ADMINI~1\AppData\Local\Temp\cc7xIC5f.s 			page 26


 776              		.loc 1 584 21 is_stmt 0 view .LVU258
 777 01a2 FFF7FEFF 		bl	HAL_GetTick
 778              	.LVL64:
 779 01a6 0546     		mov	r5, r0
 780              	.LVL65:
 585:Drivers/STM32H7xx_HAL_Driver/Src/stm32h7xx_hal_rcc.c **** 
 586:Drivers/STM32H7xx_HAL_Driver/Src/stm32h7xx_hal_rcc.c ****         /* Wait till CSI is ready */
 587:Drivers/STM32H7xx_HAL_Driver/Src/stm32h7xx_hal_rcc.c ****         while(__HAL_RCC_GET_FLAG(RCC_FLAG_CSIRDY) == 0U)
 781              		.loc 1 587 9 is_stmt 1 view .LVU259
 782              	.L65:
 783              		.loc 1 587 14 view .LVU260
 784              		.loc 1 587 15 is_stmt 0 view .LVU261
 785 01a8 3A4B     		ldr	r3, .L151
 786 01aa 1B68     		ldr	r3, [r3]
 787              		.loc 1 587 14 view .LVU262
 788 01ac 13F4807F 		tst	r3, #256
 789 01b0 53D1     		bne	.L142
 588:Drivers/STM32H7xx_HAL_Driver/Src/stm32h7xx_hal_rcc.c ****         {
 589:Drivers/STM32H7xx_HAL_Driver/Src/stm32h7xx_hal_rcc.c ****           if((HAL_GetTick() - tickstart ) > CSI_TIMEOUT_VALUE)
 790              		.loc 1 589 11 is_stmt 1 view .LVU263
 791              		.loc 1 589 15 is_stmt 0 view .LVU264
 792 01b2 FFF7FEFF 		bl	HAL_GetTick
 793              	.LVL66:
 794              		.loc 1 589 29 view .LVU265
 795 01b6 401B     		subs	r0, r0, r5
 796              		.loc 1 589 13 view .LVU266
 797 01b8 0228     		cmp	r0, #2
 798 01ba F5D9     		bls	.L65
 590:Drivers/STM32H7xx_HAL_Driver/Src/stm32h7xx_hal_rcc.c ****           {
 591:Drivers/STM32H7xx_HAL_Driver/Src/stm32h7xx_hal_rcc.c ****             return HAL_TIMEOUT;
 799              		.loc 1 591 20 view .LVU267
 800 01bc 0320     		movs	r0, #3
 801 01be E1E1     		b	.L36
 802              	.L138:
 803              		.loc 1 591 20 view .LVU268
 804              	.LBE6:
 805              	.LBB7:
 530:Drivers/STM32H7xx_HAL_Driver/Src/stm32h7xx_hal_rcc.c ****       }
 806              		.loc 1 530 9 is_stmt 1 view .LVU269
 807 01c0 344A     		ldr	r2, .L151
 808 01c2 5368     		ldr	r3, [r2, #4]
 809 01c4 23F0FE43 		bic	r3, r3, #2130706432
 810 01c8 2169     		ldr	r1, [r4, #16]
 811 01ca 43EA0163 		orr	r3, r3, r1, lsl #24
 812 01ce 5360     		str	r3, [r2, #4]
 530:Drivers/STM32H7xx_HAL_Driver/Src/stm32h7xx_hal_rcc.c ****       }
 813              		.loc 1 530 86 view .LVU270
 814 01d0 D2E7     		b	.L49
 815              	.LVL67:
 816              	.L55:
 535:Drivers/STM32H7xx_HAL_Driver/Src/stm32h7xx_hal_rcc.c **** 
 817              		.loc 1 535 9 view .LVU271
 818 01d2 304A     		ldr	r2, .L151
 819              	.LVL68:
 535:Drivers/STM32H7xx_HAL_Driver/Src/stm32h7xx_hal_rcc.c **** 
 820              		.loc 1 535 9 is_stmt 0 view .LVU272
 821 01d4 1368     		ldr	r3, [r2]
ARM GAS  C:\Users\ADMINI~1\AppData\Local\Temp\cc7xIC5f.s 			page 27


 822 01d6 23F00103 		bic	r3, r3, #1
 823 01da 1360     		str	r3, [r2]
 538:Drivers/STM32H7xx_HAL_Driver/Src/stm32h7xx_hal_rcc.c **** 
 824              		.loc 1 538 9 is_stmt 1 view .LVU273
 538:Drivers/STM32H7xx_HAL_Driver/Src/stm32h7xx_hal_rcc.c **** 
 825              		.loc 1 538 21 is_stmt 0 view .LVU274
 826 01dc FFF7FEFF 		bl	HAL_GetTick
 827              	.LVL69:
 828 01e0 0546     		mov	r5, r0
 829              	.LVL70:
 541:Drivers/STM32H7xx_HAL_Driver/Src/stm32h7xx_hal_rcc.c ****         {
 830              		.loc 1 541 9 is_stmt 1 view .LVU275
 831              	.L58:
 541:Drivers/STM32H7xx_HAL_Driver/Src/stm32h7xx_hal_rcc.c ****         {
 832              		.loc 1 541 14 view .LVU276
 541:Drivers/STM32H7xx_HAL_Driver/Src/stm32h7xx_hal_rcc.c ****         {
 833              		.loc 1 541 15 is_stmt 0 view .LVU277
 834 01e2 2C4B     		ldr	r3, .L151
 835 01e4 1B68     		ldr	r3, [r3]
 541:Drivers/STM32H7xx_HAL_Driver/Src/stm32h7xx_hal_rcc.c ****         {
 836              		.loc 1 541 14 view .LVU278
 837 01e6 13F0040F 		tst	r3, #4
 838 01ea C5D0     		beq	.L49
 543:Drivers/STM32H7xx_HAL_Driver/Src/stm32h7xx_hal_rcc.c ****           {
 839              		.loc 1 543 11 is_stmt 1 view .LVU279
 543:Drivers/STM32H7xx_HAL_Driver/Src/stm32h7xx_hal_rcc.c ****           {
 840              		.loc 1 543 15 is_stmt 0 view .LVU280
 841 01ec FFF7FEFF 		bl	HAL_GetTick
 842              	.LVL71:
 543:Drivers/STM32H7xx_HAL_Driver/Src/stm32h7xx_hal_rcc.c ****           {
 843              		.loc 1 543 29 view .LVU281
 844 01f0 401B     		subs	r0, r0, r5
 543:Drivers/STM32H7xx_HAL_Driver/Src/stm32h7xx_hal_rcc.c ****           {
 845              		.loc 1 543 13 view .LVU282
 846 01f2 0228     		cmp	r0, #2
 847 01f4 F5D9     		bls	.L58
 545:Drivers/STM32H7xx_HAL_Driver/Src/stm32h7xx_hal_rcc.c ****           }
 848              		.loc 1 545 20 view .LVU283
 849 01f6 0320     		movs	r0, #3
 850 01f8 C4E1     		b	.L36
 851              	.LVL72:
 852              	.L141:
 545:Drivers/STM32H7xx_HAL_Driver/Src/stm32h7xx_hal_rcc.c ****           }
 853              		.loc 1 545 20 view .LVU284
 854              	.LBE7:
 855              	.LBB8:
 561:Drivers/STM32H7xx_HAL_Driver/Src/stm32h7xx_hal_rcc.c ****     {
 856              		.loc 1 561 107 discriminator 2 view .LVU285
 857 01fa 02F00302 		and	r2, r2, #3
 858              	.LVL73:
 561:Drivers/STM32H7xx_HAL_Driver/Src/stm32h7xx_hal_rcc.c ****     {
 859              		.loc 1 561 87 discriminator 2 view .LVU286
 860 01fe 012A     		cmp	r2, #1
 861 0200 C7D1     		bne	.L62
 862              	.L61:
 564:Drivers/STM32H7xx_HAL_Driver/Src/stm32h7xx_hal_rcc.c ****       {
 863              		.loc 1 564 7 is_stmt 1 view .LVU287
ARM GAS  C:\Users\ADMINI~1\AppData\Local\Temp\cc7xIC5f.s 			page 28


 564:Drivers/STM32H7xx_HAL_Driver/Src/stm32h7xx_hal_rcc.c ****       {
 864              		.loc 1 564 11 is_stmt 0 view .LVU288
 865 0202 244B     		ldr	r3, .L151
 866              	.LVL74:
 564:Drivers/STM32H7xx_HAL_Driver/Src/stm32h7xx_hal_rcc.c ****       {
 867              		.loc 1 564 11 view .LVU289
 868 0204 1B68     		ldr	r3, [r3]
 564:Drivers/STM32H7xx_HAL_Driver/Src/stm32h7xx_hal_rcc.c ****       {
 869              		.loc 1 564 9 view .LVU290
 870 0206 13F4807F 		tst	r3, #256
 871 020a 03D0     		beq	.L63
 564:Drivers/STM32H7xx_HAL_Driver/Src/stm32h7xx_hal_rcc.c ****       {
 872              		.loc 1 564 75 discriminator 1 view .LVU291
 873 020c E369     		ldr	r3, [r4, #28]
 564:Drivers/STM32H7xx_HAL_Driver/Src/stm32h7xx_hal_rcc.c ****       {
 874              		.loc 1 564 54 discriminator 1 view .LVU292
 875 020e 802B     		cmp	r3, #128
 876 0210 40F0B581 		bne	.L109
 877              	.L63:
 572:Drivers/STM32H7xx_HAL_Driver/Src/stm32h7xx_hal_rcc.c ****       }
 878              		.loc 1 572 9 is_stmt 1 view .LVU293
 572:Drivers/STM32H7xx_HAL_Driver/Src/stm32h7xx_hal_rcc.c ****       }
 879              		.loc 1 572 9 view .LVU294
 880 0214 1F4A     		ldr	r2, .L151
 881 0216 D368     		ldr	r3, [r2, #12]
 882 0218 23F07C53 		bic	r3, r3, #1056964608
 883 021c 216A     		ldr	r1, [r4, #32]
 884 021e 43EA0163 		orr	r3, r3, r1, lsl #24
 885 0222 D360     		str	r3, [r2, #12]
 572:Drivers/STM32H7xx_HAL_Driver/Src/stm32h7xx_hal_rcc.c ****       }
 886              		.loc 1 572 9 view .LVU295
 887              	.L60:
 572:Drivers/STM32H7xx_HAL_Driver/Src/stm32h7xx_hal_rcc.c ****       }
 888              		.loc 1 572 9 is_stmt 0 view .LVU296
 889              	.LBE8:
 592:Drivers/STM32H7xx_HAL_Driver/Src/stm32h7xx_hal_rcc.c ****           }
 593:Drivers/STM32H7xx_HAL_Driver/Src/stm32h7xx_hal_rcc.c ****         }
 594:Drivers/STM32H7xx_HAL_Driver/Src/stm32h7xx_hal_rcc.c **** 
 595:Drivers/STM32H7xx_HAL_Driver/Src/stm32h7xx_hal_rcc.c ****         /* Adjusts the Internal High Speed oscillator (CSI) calibration value.*/
 596:Drivers/STM32H7xx_HAL_Driver/Src/stm32h7xx_hal_rcc.c ****         __HAL_RCC_CSI_CALIBRATIONVALUE_ADJUST(RCC_OscInitStruct->CSICalibrationValue);
 597:Drivers/STM32H7xx_HAL_Driver/Src/stm32h7xx_hal_rcc.c ****       }
 598:Drivers/STM32H7xx_HAL_Driver/Src/stm32h7xx_hal_rcc.c ****       else
 599:Drivers/STM32H7xx_HAL_Driver/Src/stm32h7xx_hal_rcc.c ****       {
 600:Drivers/STM32H7xx_HAL_Driver/Src/stm32h7xx_hal_rcc.c ****         /* Disable the Internal High Speed oscillator (CSI). */
 601:Drivers/STM32H7xx_HAL_Driver/Src/stm32h7xx_hal_rcc.c ****         __HAL_RCC_CSI_DISABLE();
 602:Drivers/STM32H7xx_HAL_Driver/Src/stm32h7xx_hal_rcc.c **** 
 603:Drivers/STM32H7xx_HAL_Driver/Src/stm32h7xx_hal_rcc.c ****         /* Get Start Tick*/
 604:Drivers/STM32H7xx_HAL_Driver/Src/stm32h7xx_hal_rcc.c ****         tickstart = HAL_GetTick();
 605:Drivers/STM32H7xx_HAL_Driver/Src/stm32h7xx_hal_rcc.c **** 
 606:Drivers/STM32H7xx_HAL_Driver/Src/stm32h7xx_hal_rcc.c ****         /* Wait till CSI is disabled */
 607:Drivers/STM32H7xx_HAL_Driver/Src/stm32h7xx_hal_rcc.c ****         while(__HAL_RCC_GET_FLAG(RCC_FLAG_CSIRDY) != 0U)
 608:Drivers/STM32H7xx_HAL_Driver/Src/stm32h7xx_hal_rcc.c ****         {
 609:Drivers/STM32H7xx_HAL_Driver/Src/stm32h7xx_hal_rcc.c ****           if((HAL_GetTick() - tickstart ) > CSI_TIMEOUT_VALUE)
 610:Drivers/STM32H7xx_HAL_Driver/Src/stm32h7xx_hal_rcc.c ****           {
 611:Drivers/STM32H7xx_HAL_Driver/Src/stm32h7xx_hal_rcc.c ****             return HAL_TIMEOUT;
 612:Drivers/STM32H7xx_HAL_Driver/Src/stm32h7xx_hal_rcc.c ****           }
 613:Drivers/STM32H7xx_HAL_Driver/Src/stm32h7xx_hal_rcc.c ****         }
ARM GAS  C:\Users\ADMINI~1\AppData\Local\Temp\cc7xIC5f.s 			page 29


 614:Drivers/STM32H7xx_HAL_Driver/Src/stm32h7xx_hal_rcc.c ****       }
 615:Drivers/STM32H7xx_HAL_Driver/Src/stm32h7xx_hal_rcc.c ****     }
 616:Drivers/STM32H7xx_HAL_Driver/Src/stm32h7xx_hal_rcc.c ****   }
 617:Drivers/STM32H7xx_HAL_Driver/Src/stm32h7xx_hal_rcc.c ****   /*------------------------------ LSI Configuration -------------------------*/
 618:Drivers/STM32H7xx_HAL_Driver/Src/stm32h7xx_hal_rcc.c ****   if(((RCC_OscInitStruct->OscillatorType) & RCC_OSCILLATORTYPE_LSI) == RCC_OSCILLATORTYPE_LSI)
 890              		.loc 1 618 3 is_stmt 1 view .LVU297
 891              		.loc 1 618 25 is_stmt 0 view .LVU298
 892 0224 2368     		ldr	r3, [r4]
 893              		.loc 1 618 5 view .LVU299
 894 0226 13F0080F 		tst	r3, #8
 895 022a 49D0     		beq	.L69
 619:Drivers/STM32H7xx_HAL_Driver/Src/stm32h7xx_hal_rcc.c ****   {
 620:Drivers/STM32H7xx_HAL_Driver/Src/stm32h7xx_hal_rcc.c ****     /* Check the parameters */
 621:Drivers/STM32H7xx_HAL_Driver/Src/stm32h7xx_hal_rcc.c ****     assert_param(IS_RCC_LSI(RCC_OscInitStruct->LSIState));
 896              		.loc 1 621 5 is_stmt 1 view .LVU300
 622:Drivers/STM32H7xx_HAL_Driver/Src/stm32h7xx_hal_rcc.c **** 
 623:Drivers/STM32H7xx_HAL_Driver/Src/stm32h7xx_hal_rcc.c ****     /* Check the LSI State */
 624:Drivers/STM32H7xx_HAL_Driver/Src/stm32h7xx_hal_rcc.c ****     if((RCC_OscInitStruct->LSIState)!= RCC_LSI_OFF)
 897              		.loc 1 624 5 view .LVU301
 898              		.loc 1 624 26 is_stmt 0 view .LVU302
 899 022c 6369     		ldr	r3, [r4, #20]
 900              		.loc 1 624 7 view .LVU303
 901 022e 002B     		cmp	r3, #0
 902 0230 32D0     		beq	.L70
 625:Drivers/STM32H7xx_HAL_Driver/Src/stm32h7xx_hal_rcc.c ****     {
 626:Drivers/STM32H7xx_HAL_Driver/Src/stm32h7xx_hal_rcc.c ****       /* Enable the Internal Low Speed oscillator (LSI). */
 627:Drivers/STM32H7xx_HAL_Driver/Src/stm32h7xx_hal_rcc.c ****       __HAL_RCC_LSI_ENABLE();
 903              		.loc 1 627 7 is_stmt 1 view .LVU304
 904 0232 184A     		ldr	r2, .L151
 905 0234 536F     		ldr	r3, [r2, #116]
 906 0236 43F00103 		orr	r3, r3, #1
 907 023a 5367     		str	r3, [r2, #116]
 628:Drivers/STM32H7xx_HAL_Driver/Src/stm32h7xx_hal_rcc.c **** 
 629:Drivers/STM32H7xx_HAL_Driver/Src/stm32h7xx_hal_rcc.c ****       /* Get Start Tick*/
 630:Drivers/STM32H7xx_HAL_Driver/Src/stm32h7xx_hal_rcc.c ****       tickstart = HAL_GetTick();
 908              		.loc 1 630 7 view .LVU305
 909              		.loc 1 630 19 is_stmt 0 view .LVU306
 910 023c FFF7FEFF 		bl	HAL_GetTick
 911              	.LVL75:
 912 0240 0546     		mov	r5, r0
 913              	.LVL76:
 631:Drivers/STM32H7xx_HAL_Driver/Src/stm32h7xx_hal_rcc.c **** 
 632:Drivers/STM32H7xx_HAL_Driver/Src/stm32h7xx_hal_rcc.c ****       /* Wait till LSI is ready */
 633:Drivers/STM32H7xx_HAL_Driver/Src/stm32h7xx_hal_rcc.c ****       while(__HAL_RCC_GET_FLAG(RCC_FLAG_LSIRDY) == 0U)
 914              		.loc 1 633 7 is_stmt 1 view .LVU307
 915              	.L71:
 916              		.loc 1 633 12 view .LVU308
 917              		.loc 1 633 13 is_stmt 0 view .LVU309
 918 0242 144B     		ldr	r3, .L151
 919 0244 5B6F     		ldr	r3, [r3, #116]
 920              		.loc 1 633 12 view .LVU310
 921 0246 13F0020F 		tst	r3, #2
 922 024a 39D1     		bne	.L69
 634:Drivers/STM32H7xx_HAL_Driver/Src/stm32h7xx_hal_rcc.c ****       {
 635:Drivers/STM32H7xx_HAL_Driver/Src/stm32h7xx_hal_rcc.c ****         if((HAL_GetTick() - tickstart ) > LSI_TIMEOUT_VALUE)
 923              		.loc 1 635 9 is_stmt 1 view .LVU311
 924              		.loc 1 635 13 is_stmt 0 view .LVU312
ARM GAS  C:\Users\ADMINI~1\AppData\Local\Temp\cc7xIC5f.s 			page 30


 925 024c FFF7FEFF 		bl	HAL_GetTick
 926              	.LVL77:
 927              		.loc 1 635 27 view .LVU313
 928 0250 401B     		subs	r0, r0, r5
 929              		.loc 1 635 11 view .LVU314
 930 0252 0228     		cmp	r0, #2
 931 0254 F5D9     		bls	.L71
 636:Drivers/STM32H7xx_HAL_Driver/Src/stm32h7xx_hal_rcc.c ****         {
 637:Drivers/STM32H7xx_HAL_Driver/Src/stm32h7xx_hal_rcc.c ****           return HAL_TIMEOUT;
 932              		.loc 1 637 18 view .LVU315
 933 0256 0320     		movs	r0, #3
 934 0258 94E1     		b	.L36
 935              	.L142:
 936              	.LBB9:
 596:Drivers/STM32H7xx_HAL_Driver/Src/stm32h7xx_hal_rcc.c ****       }
 937              		.loc 1 596 9 is_stmt 1 view .LVU316
 596:Drivers/STM32H7xx_HAL_Driver/Src/stm32h7xx_hal_rcc.c ****       }
 938              		.loc 1 596 9 view .LVU317
 939 025a 0E4A     		ldr	r2, .L151
 940 025c D368     		ldr	r3, [r2, #12]
 941 025e 23F07C53 		bic	r3, r3, #1056964608
 942 0262 216A     		ldr	r1, [r4, #32]
 943 0264 43EA0163 		orr	r3, r3, r1, lsl #24
 944 0268 D360     		str	r3, [r2, #12]
 596:Drivers/STM32H7xx_HAL_Driver/Src/stm32h7xx_hal_rcc.c ****       }
 945              		.loc 1 596 9 view .LVU318
 946 026a DBE7     		b	.L60
 947              	.LVL78:
 948              	.L64:
 601:Drivers/STM32H7xx_HAL_Driver/Src/stm32h7xx_hal_rcc.c **** 
 949              		.loc 1 601 9 view .LVU319
 950 026c 094A     		ldr	r2, .L151
 951 026e 1368     		ldr	r3, [r2]
 952 0270 23F08003 		bic	r3, r3, #128
 953 0274 1360     		str	r3, [r2]
 604:Drivers/STM32H7xx_HAL_Driver/Src/stm32h7xx_hal_rcc.c **** 
 954              		.loc 1 604 9 view .LVU320
 604:Drivers/STM32H7xx_HAL_Driver/Src/stm32h7xx_hal_rcc.c **** 
 955              		.loc 1 604 21 is_stmt 0 view .LVU321
 956 0276 FFF7FEFF 		bl	HAL_GetTick
 957              	.LVL79:
 958 027a 0546     		mov	r5, r0
 959              	.LVL80:
 607:Drivers/STM32H7xx_HAL_Driver/Src/stm32h7xx_hal_rcc.c ****         {
 960              		.loc 1 607 9 is_stmt 1 view .LVU322
 961              	.L67:
 607:Drivers/STM32H7xx_HAL_Driver/Src/stm32h7xx_hal_rcc.c ****         {
 962              		.loc 1 607 14 view .LVU323
 607:Drivers/STM32H7xx_HAL_Driver/Src/stm32h7xx_hal_rcc.c ****         {
 963              		.loc 1 607 15 is_stmt 0 view .LVU324
 964 027c 054B     		ldr	r3, .L151
 965 027e 1B68     		ldr	r3, [r3]
 607:Drivers/STM32H7xx_HAL_Driver/Src/stm32h7xx_hal_rcc.c ****         {
 966              		.loc 1 607 14 view .LVU325
 967 0280 13F4807F 		tst	r3, #256
 968 0284 CED0     		beq	.L60
 609:Drivers/STM32H7xx_HAL_Driver/Src/stm32h7xx_hal_rcc.c ****           {
ARM GAS  C:\Users\ADMINI~1\AppData\Local\Temp\cc7xIC5f.s 			page 31


 969              		.loc 1 609 11 is_stmt 1 view .LVU326
 609:Drivers/STM32H7xx_HAL_Driver/Src/stm32h7xx_hal_rcc.c ****           {
 970              		.loc 1 609 15 is_stmt 0 view .LVU327
 971 0286 FFF7FEFF 		bl	HAL_GetTick
 972              	.LVL81:
 609:Drivers/STM32H7xx_HAL_Driver/Src/stm32h7xx_hal_rcc.c ****           {
 973              		.loc 1 609 29 view .LVU328
 974 028a 401B     		subs	r0, r0, r5
 609:Drivers/STM32H7xx_HAL_Driver/Src/stm32h7xx_hal_rcc.c ****           {
 975              		.loc 1 609 13 view .LVU329
 976 028c 0228     		cmp	r0, #2
 977 028e F5D9     		bls	.L67
 611:Drivers/STM32H7xx_HAL_Driver/Src/stm32h7xx_hal_rcc.c ****           }
 978              		.loc 1 611 20 view .LVU330
 979 0290 0320     		movs	r0, #3
 980 0292 77E1     		b	.L36
 981              	.L152:
 982              		.align	2
 983              	.L151:
 984 0294 00440258 		.word	1476543488
 985              	.LVL82:
 986              	.L70:
 611:Drivers/STM32H7xx_HAL_Driver/Src/stm32h7xx_hal_rcc.c ****           }
 987              		.loc 1 611 20 view .LVU331
 988              	.LBE9:
 638:Drivers/STM32H7xx_HAL_Driver/Src/stm32h7xx_hal_rcc.c ****         }
 639:Drivers/STM32H7xx_HAL_Driver/Src/stm32h7xx_hal_rcc.c ****       }
 640:Drivers/STM32H7xx_HAL_Driver/Src/stm32h7xx_hal_rcc.c ****     }
 641:Drivers/STM32H7xx_HAL_Driver/Src/stm32h7xx_hal_rcc.c ****     else
 642:Drivers/STM32H7xx_HAL_Driver/Src/stm32h7xx_hal_rcc.c ****     {
 643:Drivers/STM32H7xx_HAL_Driver/Src/stm32h7xx_hal_rcc.c ****       /* Disable the Internal Low Speed oscillator (LSI). */
 644:Drivers/STM32H7xx_HAL_Driver/Src/stm32h7xx_hal_rcc.c ****       __HAL_RCC_LSI_DISABLE();
 989              		.loc 1 644 7 is_stmt 1 view .LVU332
 990 0298 9D4A     		ldr	r2, .L153
 991 029a 536F     		ldr	r3, [r2, #116]
 992 029c 23F00103 		bic	r3, r3, #1
 993 02a0 5367     		str	r3, [r2, #116]
 645:Drivers/STM32H7xx_HAL_Driver/Src/stm32h7xx_hal_rcc.c **** 
 646:Drivers/STM32H7xx_HAL_Driver/Src/stm32h7xx_hal_rcc.c ****       /* Get Start Tick*/
 647:Drivers/STM32H7xx_HAL_Driver/Src/stm32h7xx_hal_rcc.c ****       tickstart = HAL_GetTick();
 994              		.loc 1 647 7 view .LVU333
 995              		.loc 1 647 19 is_stmt 0 view .LVU334
 996 02a2 FFF7FEFF 		bl	HAL_GetTick
 997              	.LVL83:
 998 02a6 0546     		mov	r5, r0
 999              	.LVL84:
 648:Drivers/STM32H7xx_HAL_Driver/Src/stm32h7xx_hal_rcc.c **** 
 649:Drivers/STM32H7xx_HAL_Driver/Src/stm32h7xx_hal_rcc.c ****       /* Wait till LSI is ready */
 650:Drivers/STM32H7xx_HAL_Driver/Src/stm32h7xx_hal_rcc.c ****       while(__HAL_RCC_GET_FLAG(RCC_FLAG_LSIRDY) != 0U)
 1000              		.loc 1 650 7 is_stmt 1 view .LVU335
 1001              	.L73:
 1002              		.loc 1 650 12 view .LVU336
 1003              		.loc 1 650 13 is_stmt 0 view .LVU337
 1004 02a8 994B     		ldr	r3, .L153
 1005 02aa 5B6F     		ldr	r3, [r3, #116]
 1006              		.loc 1 650 12 view .LVU338
 1007 02ac 13F0020F 		tst	r3, #2
ARM GAS  C:\Users\ADMINI~1\AppData\Local\Temp\cc7xIC5f.s 			page 32


 1008 02b0 06D0     		beq	.L69
 651:Drivers/STM32H7xx_HAL_Driver/Src/stm32h7xx_hal_rcc.c ****       {
 652:Drivers/STM32H7xx_HAL_Driver/Src/stm32h7xx_hal_rcc.c ****         if((HAL_GetTick() - tickstart ) > LSI_TIMEOUT_VALUE)
 1009              		.loc 1 652 9 is_stmt 1 view .LVU339
 1010              		.loc 1 652 13 is_stmt 0 view .LVU340
 1011 02b2 FFF7FEFF 		bl	HAL_GetTick
 1012              	.LVL85:
 1013              		.loc 1 652 27 view .LVU341
 1014 02b6 401B     		subs	r0, r0, r5
 1015              		.loc 1 652 11 view .LVU342
 1016 02b8 0228     		cmp	r0, #2
 1017 02ba F5D9     		bls	.L73
 653:Drivers/STM32H7xx_HAL_Driver/Src/stm32h7xx_hal_rcc.c ****         {
 654:Drivers/STM32H7xx_HAL_Driver/Src/stm32h7xx_hal_rcc.c ****           return HAL_TIMEOUT;
 1018              		.loc 1 654 18 view .LVU343
 1019 02bc 0320     		movs	r0, #3
 1020 02be 61E1     		b	.L36
 1021              	.LVL86:
 1022              	.L69:
 655:Drivers/STM32H7xx_HAL_Driver/Src/stm32h7xx_hal_rcc.c ****         }
 656:Drivers/STM32H7xx_HAL_Driver/Src/stm32h7xx_hal_rcc.c ****       }
 657:Drivers/STM32H7xx_HAL_Driver/Src/stm32h7xx_hal_rcc.c ****     }
 658:Drivers/STM32H7xx_HAL_Driver/Src/stm32h7xx_hal_rcc.c ****   }
 659:Drivers/STM32H7xx_HAL_Driver/Src/stm32h7xx_hal_rcc.c **** 
 660:Drivers/STM32H7xx_HAL_Driver/Src/stm32h7xx_hal_rcc.c ****   /*------------------------------ HSI48 Configuration -------------------------*/
 661:Drivers/STM32H7xx_HAL_Driver/Src/stm32h7xx_hal_rcc.c ****   if(((RCC_OscInitStruct->OscillatorType) & RCC_OSCILLATORTYPE_HSI48) == RCC_OSCILLATORTYPE_HSI48)
 1023              		.loc 1 661 3 is_stmt 1 view .LVU344
 1024              		.loc 1 661 25 is_stmt 0 view .LVU345
 1025 02c0 2368     		ldr	r3, [r4]
 1026              		.loc 1 661 5 view .LVU346
 1027 02c2 13F0200F 		tst	r3, #32
 1028 02c6 29D0     		beq	.L75
 662:Drivers/STM32H7xx_HAL_Driver/Src/stm32h7xx_hal_rcc.c ****   {
 663:Drivers/STM32H7xx_HAL_Driver/Src/stm32h7xx_hal_rcc.c ****     /* Check the parameters */
 664:Drivers/STM32H7xx_HAL_Driver/Src/stm32h7xx_hal_rcc.c ****     assert_param(IS_RCC_HSI48(RCC_OscInitStruct->HSI48State));
 1029              		.loc 1 664 5 is_stmt 1 view .LVU347
 665:Drivers/STM32H7xx_HAL_Driver/Src/stm32h7xx_hal_rcc.c **** 
 666:Drivers/STM32H7xx_HAL_Driver/Src/stm32h7xx_hal_rcc.c ****     /* Check the HSI48 State */
 667:Drivers/STM32H7xx_HAL_Driver/Src/stm32h7xx_hal_rcc.c ****     if((RCC_OscInitStruct->HSI48State)!= RCC_HSI48_OFF)
 1030              		.loc 1 667 5 view .LVU348
 1031              		.loc 1 667 26 is_stmt 0 view .LVU349
 1032 02c8 A369     		ldr	r3, [r4, #24]
 1033              		.loc 1 667 7 view .LVU350
 1034 02ca 9BB1     		cbz	r3, .L76
 668:Drivers/STM32H7xx_HAL_Driver/Src/stm32h7xx_hal_rcc.c ****     {
 669:Drivers/STM32H7xx_HAL_Driver/Src/stm32h7xx_hal_rcc.c ****       /* Enable the Internal Low Speed oscillator (HSI48). */
 670:Drivers/STM32H7xx_HAL_Driver/Src/stm32h7xx_hal_rcc.c ****       __HAL_RCC_HSI48_ENABLE();
 1035              		.loc 1 670 7 is_stmt 1 view .LVU351
 1036 02cc 904A     		ldr	r2, .L153
 1037 02ce 1368     		ldr	r3, [r2]
 1038 02d0 43F48053 		orr	r3, r3, #4096
 1039 02d4 1360     		str	r3, [r2]
 1040              		.loc 1 670 31 view .LVU352
 671:Drivers/STM32H7xx_HAL_Driver/Src/stm32h7xx_hal_rcc.c **** 
 672:Drivers/STM32H7xx_HAL_Driver/Src/stm32h7xx_hal_rcc.c ****       /* Get time-out */
 673:Drivers/STM32H7xx_HAL_Driver/Src/stm32h7xx_hal_rcc.c ****       tickstart = HAL_GetTick();
 1041              		.loc 1 673 7 view .LVU353
ARM GAS  C:\Users\ADMINI~1\AppData\Local\Temp\cc7xIC5f.s 			page 33


 1042              		.loc 1 673 19 is_stmt 0 view .LVU354
 1043 02d6 FFF7FEFF 		bl	HAL_GetTick
 1044              	.LVL87:
 1045 02da 0546     		mov	r5, r0
 1046              	.LVL88:
 674:Drivers/STM32H7xx_HAL_Driver/Src/stm32h7xx_hal_rcc.c **** 
 675:Drivers/STM32H7xx_HAL_Driver/Src/stm32h7xx_hal_rcc.c ****       /* Wait till HSI48 is ready */
 676:Drivers/STM32H7xx_HAL_Driver/Src/stm32h7xx_hal_rcc.c ****       while(__HAL_RCC_GET_FLAG(RCC_FLAG_HSI48RDY) == 0U)
 1047              		.loc 1 676 7 is_stmt 1 view .LVU355
 1048              	.L77:
 1049              		.loc 1 676 12 view .LVU356
 1050              		.loc 1 676 13 is_stmt 0 view .LVU357
 1051 02dc 8C4B     		ldr	r3, .L153
 1052 02de 1B68     		ldr	r3, [r3]
 1053              		.loc 1 676 12 view .LVU358
 1054 02e0 13F4005F 		tst	r3, #8192
 1055 02e4 1AD1     		bne	.L75
 677:Drivers/STM32H7xx_HAL_Driver/Src/stm32h7xx_hal_rcc.c ****       {
 678:Drivers/STM32H7xx_HAL_Driver/Src/stm32h7xx_hal_rcc.c ****         if((HAL_GetTick() - tickstart ) > HSI48_TIMEOUT_VALUE)
 1056              		.loc 1 678 9 is_stmt 1 view .LVU359
 1057              		.loc 1 678 13 is_stmt 0 view .LVU360
 1058 02e6 FFF7FEFF 		bl	HAL_GetTick
 1059              	.LVL89:
 1060              		.loc 1 678 27 view .LVU361
 1061 02ea 401B     		subs	r0, r0, r5
 1062              		.loc 1 678 11 view .LVU362
 1063 02ec 0228     		cmp	r0, #2
 1064 02ee F5D9     		bls	.L77
 679:Drivers/STM32H7xx_HAL_Driver/Src/stm32h7xx_hal_rcc.c ****         {
 680:Drivers/STM32H7xx_HAL_Driver/Src/stm32h7xx_hal_rcc.c ****           return HAL_TIMEOUT;
 1065              		.loc 1 680 18 view .LVU363
 1066 02f0 0320     		movs	r0, #3
 1067 02f2 47E1     		b	.L36
 1068              	.LVL90:
 1069              	.L76:
 681:Drivers/STM32H7xx_HAL_Driver/Src/stm32h7xx_hal_rcc.c ****         }
 682:Drivers/STM32H7xx_HAL_Driver/Src/stm32h7xx_hal_rcc.c ****       }
 683:Drivers/STM32H7xx_HAL_Driver/Src/stm32h7xx_hal_rcc.c ****     }
 684:Drivers/STM32H7xx_HAL_Driver/Src/stm32h7xx_hal_rcc.c ****     else
 685:Drivers/STM32H7xx_HAL_Driver/Src/stm32h7xx_hal_rcc.c ****     {
 686:Drivers/STM32H7xx_HAL_Driver/Src/stm32h7xx_hal_rcc.c ****       /* Disable the Internal Low Speed oscillator (HSI48). */
 687:Drivers/STM32H7xx_HAL_Driver/Src/stm32h7xx_hal_rcc.c ****       __HAL_RCC_HSI48_DISABLE();
 1070              		.loc 1 687 7 is_stmt 1 view .LVU364
 1071 02f4 864A     		ldr	r2, .L153
 1072 02f6 1368     		ldr	r3, [r2]
 1073 02f8 23F48053 		bic	r3, r3, #4096
 1074 02fc 1360     		str	r3, [r2]
 1075              		.loc 1 687 32 view .LVU365
 688:Drivers/STM32H7xx_HAL_Driver/Src/stm32h7xx_hal_rcc.c **** 
 689:Drivers/STM32H7xx_HAL_Driver/Src/stm32h7xx_hal_rcc.c ****       /* Get time-out */
 690:Drivers/STM32H7xx_HAL_Driver/Src/stm32h7xx_hal_rcc.c ****       tickstart = HAL_GetTick();
 1076              		.loc 1 690 7 view .LVU366
 1077              		.loc 1 690 19 is_stmt 0 view .LVU367
 1078 02fe FFF7FEFF 		bl	HAL_GetTick
 1079              	.LVL91:
 1080 0302 0546     		mov	r5, r0
 1081              	.LVL92:
ARM GAS  C:\Users\ADMINI~1\AppData\Local\Temp\cc7xIC5f.s 			page 34


 691:Drivers/STM32H7xx_HAL_Driver/Src/stm32h7xx_hal_rcc.c **** 
 692:Drivers/STM32H7xx_HAL_Driver/Src/stm32h7xx_hal_rcc.c ****       /* Wait till HSI48 is ready */
 693:Drivers/STM32H7xx_HAL_Driver/Src/stm32h7xx_hal_rcc.c ****       while(__HAL_RCC_GET_FLAG(RCC_FLAG_HSI48RDY) != 0U)
 1082              		.loc 1 693 7 is_stmt 1 view .LVU368
 1083              	.L79:
 1084              		.loc 1 693 12 view .LVU369
 1085              		.loc 1 693 13 is_stmt 0 view .LVU370
 1086 0304 824B     		ldr	r3, .L153
 1087 0306 1B68     		ldr	r3, [r3]
 1088              		.loc 1 693 12 view .LVU371
 1089 0308 13F4005F 		tst	r3, #8192
 1090 030c 06D0     		beq	.L75
 694:Drivers/STM32H7xx_HAL_Driver/Src/stm32h7xx_hal_rcc.c ****       {
 695:Drivers/STM32H7xx_HAL_Driver/Src/stm32h7xx_hal_rcc.c ****         if((HAL_GetTick() - tickstart ) > HSI48_TIMEOUT_VALUE)
 1091              		.loc 1 695 9 is_stmt 1 view .LVU372
 1092              		.loc 1 695 13 is_stmt 0 view .LVU373
 1093 030e FFF7FEFF 		bl	HAL_GetTick
 1094              	.LVL93:
 1095              		.loc 1 695 27 view .LVU374
 1096 0312 401B     		subs	r0, r0, r5
 1097              		.loc 1 695 11 view .LVU375
 1098 0314 0228     		cmp	r0, #2
 1099 0316 F5D9     		bls	.L79
 696:Drivers/STM32H7xx_HAL_Driver/Src/stm32h7xx_hal_rcc.c ****         {
 697:Drivers/STM32H7xx_HAL_Driver/Src/stm32h7xx_hal_rcc.c ****           return HAL_TIMEOUT;
 1100              		.loc 1 697 18 view .LVU376
 1101 0318 0320     		movs	r0, #3
 1102 031a 33E1     		b	.L36
 1103              	.LVL94:
 1104              	.L75:
 698:Drivers/STM32H7xx_HAL_Driver/Src/stm32h7xx_hal_rcc.c ****         }
 699:Drivers/STM32H7xx_HAL_Driver/Src/stm32h7xx_hal_rcc.c ****       }
 700:Drivers/STM32H7xx_HAL_Driver/Src/stm32h7xx_hal_rcc.c ****     }
 701:Drivers/STM32H7xx_HAL_Driver/Src/stm32h7xx_hal_rcc.c ****   }
 702:Drivers/STM32H7xx_HAL_Driver/Src/stm32h7xx_hal_rcc.c ****   /*------------------------------ LSE Configuration -------------------------*/
 703:Drivers/STM32H7xx_HAL_Driver/Src/stm32h7xx_hal_rcc.c ****   if(((RCC_OscInitStruct->OscillatorType) & RCC_OSCILLATORTYPE_LSE) == RCC_OSCILLATORTYPE_LSE)
 1105              		.loc 1 703 3 is_stmt 1 view .LVU377
 1106              		.loc 1 703 25 is_stmt 0 view .LVU378
 1107 031c 2368     		ldr	r3, [r4]
 1108              		.loc 1 703 5 view .LVU379
 1109 031e 13F0040F 		tst	r3, #4
 1110 0322 21D1     		bne	.L143
 1111              	.L81:
 704:Drivers/STM32H7xx_HAL_Driver/Src/stm32h7xx_hal_rcc.c ****   {
 705:Drivers/STM32H7xx_HAL_Driver/Src/stm32h7xx_hal_rcc.c ****     /* Check the parameters */
 706:Drivers/STM32H7xx_HAL_Driver/Src/stm32h7xx_hal_rcc.c ****     assert_param(IS_RCC_LSE(RCC_OscInitStruct->LSEState));
 707:Drivers/STM32H7xx_HAL_Driver/Src/stm32h7xx_hal_rcc.c **** 
 708:Drivers/STM32H7xx_HAL_Driver/Src/stm32h7xx_hal_rcc.c ****     /* Enable write access to Backup domain */
 709:Drivers/STM32H7xx_HAL_Driver/Src/stm32h7xx_hal_rcc.c ****     PWR->CR1 |= PWR_CR1_DBP;
 710:Drivers/STM32H7xx_HAL_Driver/Src/stm32h7xx_hal_rcc.c **** 
 711:Drivers/STM32H7xx_HAL_Driver/Src/stm32h7xx_hal_rcc.c ****     /* Wait for Backup domain Write protection disable */
 712:Drivers/STM32H7xx_HAL_Driver/Src/stm32h7xx_hal_rcc.c ****     tickstart = HAL_GetTick();
 713:Drivers/STM32H7xx_HAL_Driver/Src/stm32h7xx_hal_rcc.c **** 
 714:Drivers/STM32H7xx_HAL_Driver/Src/stm32h7xx_hal_rcc.c ****     while((PWR->CR1 & PWR_CR1_DBP) == 0U)
 715:Drivers/STM32H7xx_HAL_Driver/Src/stm32h7xx_hal_rcc.c ****     {
 716:Drivers/STM32H7xx_HAL_Driver/Src/stm32h7xx_hal_rcc.c ****       if((HAL_GetTick() - tickstart ) > RCC_DBP_TIMEOUT_VALUE)
 717:Drivers/STM32H7xx_HAL_Driver/Src/stm32h7xx_hal_rcc.c ****       {
ARM GAS  C:\Users\ADMINI~1\AppData\Local\Temp\cc7xIC5f.s 			page 35


 718:Drivers/STM32H7xx_HAL_Driver/Src/stm32h7xx_hal_rcc.c ****         return HAL_TIMEOUT;
 719:Drivers/STM32H7xx_HAL_Driver/Src/stm32h7xx_hal_rcc.c ****       }
 720:Drivers/STM32H7xx_HAL_Driver/Src/stm32h7xx_hal_rcc.c ****     }
 721:Drivers/STM32H7xx_HAL_Driver/Src/stm32h7xx_hal_rcc.c **** 
 722:Drivers/STM32H7xx_HAL_Driver/Src/stm32h7xx_hal_rcc.c ****     /* Set the new LSE configuration -----------------------------------------*/
 723:Drivers/STM32H7xx_HAL_Driver/Src/stm32h7xx_hal_rcc.c ****     __HAL_RCC_LSE_CONFIG(RCC_OscInitStruct->LSEState);
 724:Drivers/STM32H7xx_HAL_Driver/Src/stm32h7xx_hal_rcc.c ****     /* Check the LSE State */
 725:Drivers/STM32H7xx_HAL_Driver/Src/stm32h7xx_hal_rcc.c ****     if((RCC_OscInitStruct->LSEState) != RCC_LSE_OFF)
 726:Drivers/STM32H7xx_HAL_Driver/Src/stm32h7xx_hal_rcc.c ****     {
 727:Drivers/STM32H7xx_HAL_Driver/Src/stm32h7xx_hal_rcc.c ****       /* Get Start Tick*/
 728:Drivers/STM32H7xx_HAL_Driver/Src/stm32h7xx_hal_rcc.c ****       tickstart = HAL_GetTick();
 729:Drivers/STM32H7xx_HAL_Driver/Src/stm32h7xx_hal_rcc.c **** 
 730:Drivers/STM32H7xx_HAL_Driver/Src/stm32h7xx_hal_rcc.c ****       /* Wait till LSE is ready */
 731:Drivers/STM32H7xx_HAL_Driver/Src/stm32h7xx_hal_rcc.c ****       while(__HAL_RCC_GET_FLAG(RCC_FLAG_LSERDY) == 0U)
 732:Drivers/STM32H7xx_HAL_Driver/Src/stm32h7xx_hal_rcc.c ****       {
 733:Drivers/STM32H7xx_HAL_Driver/Src/stm32h7xx_hal_rcc.c ****         if((HAL_GetTick() - tickstart ) > RCC_LSE_TIMEOUT_VALUE)
 734:Drivers/STM32H7xx_HAL_Driver/Src/stm32h7xx_hal_rcc.c ****         {
 735:Drivers/STM32H7xx_HAL_Driver/Src/stm32h7xx_hal_rcc.c ****           return HAL_TIMEOUT;
 736:Drivers/STM32H7xx_HAL_Driver/Src/stm32h7xx_hal_rcc.c ****         }
 737:Drivers/STM32H7xx_HAL_Driver/Src/stm32h7xx_hal_rcc.c ****       }
 738:Drivers/STM32H7xx_HAL_Driver/Src/stm32h7xx_hal_rcc.c ****     }
 739:Drivers/STM32H7xx_HAL_Driver/Src/stm32h7xx_hal_rcc.c ****     else
 740:Drivers/STM32H7xx_HAL_Driver/Src/stm32h7xx_hal_rcc.c ****     {
 741:Drivers/STM32H7xx_HAL_Driver/Src/stm32h7xx_hal_rcc.c ****       /* Get Start Tick*/
 742:Drivers/STM32H7xx_HAL_Driver/Src/stm32h7xx_hal_rcc.c ****       tickstart = HAL_GetTick();
 743:Drivers/STM32H7xx_HAL_Driver/Src/stm32h7xx_hal_rcc.c **** 
 744:Drivers/STM32H7xx_HAL_Driver/Src/stm32h7xx_hal_rcc.c ****       /* Wait till LSE is disabled */
 745:Drivers/STM32H7xx_HAL_Driver/Src/stm32h7xx_hal_rcc.c ****       while(__HAL_RCC_GET_FLAG(RCC_FLAG_LSERDY) != 0U)
 746:Drivers/STM32H7xx_HAL_Driver/Src/stm32h7xx_hal_rcc.c ****       {
 747:Drivers/STM32H7xx_HAL_Driver/Src/stm32h7xx_hal_rcc.c ****         if((HAL_GetTick() - tickstart ) > RCC_LSE_TIMEOUT_VALUE)
 748:Drivers/STM32H7xx_HAL_Driver/Src/stm32h7xx_hal_rcc.c ****         {
 749:Drivers/STM32H7xx_HAL_Driver/Src/stm32h7xx_hal_rcc.c ****           return HAL_TIMEOUT;
 750:Drivers/STM32H7xx_HAL_Driver/Src/stm32h7xx_hal_rcc.c ****         }
 751:Drivers/STM32H7xx_HAL_Driver/Src/stm32h7xx_hal_rcc.c ****       }
 752:Drivers/STM32H7xx_HAL_Driver/Src/stm32h7xx_hal_rcc.c ****     }
 753:Drivers/STM32H7xx_HAL_Driver/Src/stm32h7xx_hal_rcc.c ****   }
 754:Drivers/STM32H7xx_HAL_Driver/Src/stm32h7xx_hal_rcc.c ****   /*-------------------------------- PLL Configuration -----------------------*/
 755:Drivers/STM32H7xx_HAL_Driver/Src/stm32h7xx_hal_rcc.c ****   /* Check the parameters */
 756:Drivers/STM32H7xx_HAL_Driver/Src/stm32h7xx_hal_rcc.c ****   assert_param(IS_RCC_PLL(RCC_OscInitStruct->PLL.PLLState));
 1112              		.loc 1 756 3 is_stmt 1 view .LVU380
 757:Drivers/STM32H7xx_HAL_Driver/Src/stm32h7xx_hal_rcc.c ****   if ((RCC_OscInitStruct->PLL.PLLState) != RCC_PLL_NONE)
 1113              		.loc 1 757 3 view .LVU381
 1114              		.loc 1 757 30 is_stmt 0 view .LVU382
 1115 0324 636A     		ldr	r3, [r4, #36]
 1116              		.loc 1 757 6 view .LVU383
 1117 0326 002B     		cmp	r3, #0
 1118 0328 00F02B81 		beq	.L119
 758:Drivers/STM32H7xx_HAL_Driver/Src/stm32h7xx_hal_rcc.c ****   {
 759:Drivers/STM32H7xx_HAL_Driver/Src/stm32h7xx_hal_rcc.c ****     /* Check if the PLL is used as system clock or not */
 760:Drivers/STM32H7xx_HAL_Driver/Src/stm32h7xx_hal_rcc.c ****     if(__HAL_RCC_GET_SYSCLK_SOURCE() != RCC_CFGR_SWS_PLL1)
 1119              		.loc 1 760 5 is_stmt 1 view .LVU384
 1120              		.loc 1 760 8 is_stmt 0 view .LVU385
 1121 032c 784A     		ldr	r2, .L153
 1122 032e 1269     		ldr	r2, [r2, #16]
 1123 0330 02F03802 		and	r2, r2, #56
 1124              		.loc 1 760 7 view .LVU386
 1125 0334 182A     		cmp	r2, #24
ARM GAS  C:\Users\ADMINI~1\AppData\Local\Temp\cc7xIC5f.s 			page 36


 1126 0336 00F0F380 		beq	.L93
 761:Drivers/STM32H7xx_HAL_Driver/Src/stm32h7xx_hal_rcc.c ****     {
 762:Drivers/STM32H7xx_HAL_Driver/Src/stm32h7xx_hal_rcc.c ****       if((RCC_OscInitStruct->PLL.PLLState) == RCC_PLL_ON)
 1127              		.loc 1 762 7 is_stmt 1 view .LVU387
 1128              		.loc 1 762 9 is_stmt 0 view .LVU388
 1129 033a 022B     		cmp	r3, #2
 1130 033c 75D0     		beq	.L144
 763:Drivers/STM32H7xx_HAL_Driver/Src/stm32h7xx_hal_rcc.c ****       {
 764:Drivers/STM32H7xx_HAL_Driver/Src/stm32h7xx_hal_rcc.c ****         /* Check the parameters */
 765:Drivers/STM32H7xx_HAL_Driver/Src/stm32h7xx_hal_rcc.c ****         assert_param(IS_RCC_PLLSOURCE(RCC_OscInitStruct->PLL.PLLSource));
 766:Drivers/STM32H7xx_HAL_Driver/Src/stm32h7xx_hal_rcc.c ****         assert_param(IS_RCC_PLLRGE_VALUE(RCC_OscInitStruct->PLL.PLLRGE));
 767:Drivers/STM32H7xx_HAL_Driver/Src/stm32h7xx_hal_rcc.c ****         assert_param(IS_RCC_PLLVCO_VALUE(RCC_OscInitStruct->PLL.PLLVCOSEL));
 768:Drivers/STM32H7xx_HAL_Driver/Src/stm32h7xx_hal_rcc.c ****         assert_param(IS_RCC_PLLM_VALUE(RCC_OscInitStruct->PLL.PLLM));
 769:Drivers/STM32H7xx_HAL_Driver/Src/stm32h7xx_hal_rcc.c ****         assert_param(IS_RCC_PLLN_VALUE(RCC_OscInitStruct->PLL.PLLN));
 770:Drivers/STM32H7xx_HAL_Driver/Src/stm32h7xx_hal_rcc.c ****         assert_param(IS_RCC_PLLP_VALUE(RCC_OscInitStruct->PLL.PLLP));
 771:Drivers/STM32H7xx_HAL_Driver/Src/stm32h7xx_hal_rcc.c ****         assert_param(IS_RCC_PLLQ_VALUE(RCC_OscInitStruct->PLL.PLLQ));
 772:Drivers/STM32H7xx_HAL_Driver/Src/stm32h7xx_hal_rcc.c ****         assert_param(IS_RCC_PLLR_VALUE(RCC_OscInitStruct->PLL.PLLR));
 773:Drivers/STM32H7xx_HAL_Driver/Src/stm32h7xx_hal_rcc.c ****         assert_param(IS_RCC_PLLFRACN_VALUE(RCC_OscInitStruct->PLL.PLLFRACN));
 774:Drivers/STM32H7xx_HAL_Driver/Src/stm32h7xx_hal_rcc.c **** 
 775:Drivers/STM32H7xx_HAL_Driver/Src/stm32h7xx_hal_rcc.c ****         /* Disable the main PLL. */
 776:Drivers/STM32H7xx_HAL_Driver/Src/stm32h7xx_hal_rcc.c ****         __HAL_RCC_PLL_DISABLE();
 777:Drivers/STM32H7xx_HAL_Driver/Src/stm32h7xx_hal_rcc.c **** 
 778:Drivers/STM32H7xx_HAL_Driver/Src/stm32h7xx_hal_rcc.c ****         /* Get Start Tick*/
 779:Drivers/STM32H7xx_HAL_Driver/Src/stm32h7xx_hal_rcc.c ****         tickstart = HAL_GetTick();
 780:Drivers/STM32H7xx_HAL_Driver/Src/stm32h7xx_hal_rcc.c **** 
 781:Drivers/STM32H7xx_HAL_Driver/Src/stm32h7xx_hal_rcc.c ****         /* Wait till PLL is disabled */
 782:Drivers/STM32H7xx_HAL_Driver/Src/stm32h7xx_hal_rcc.c ****         while(__HAL_RCC_GET_FLAG(RCC_FLAG_PLLRDY) != 0U)
 783:Drivers/STM32H7xx_HAL_Driver/Src/stm32h7xx_hal_rcc.c ****         {
 784:Drivers/STM32H7xx_HAL_Driver/Src/stm32h7xx_hal_rcc.c ****           if((HAL_GetTick() - tickstart ) > PLL_TIMEOUT_VALUE)
 785:Drivers/STM32H7xx_HAL_Driver/Src/stm32h7xx_hal_rcc.c ****           {
 786:Drivers/STM32H7xx_HAL_Driver/Src/stm32h7xx_hal_rcc.c ****             return HAL_TIMEOUT;
 787:Drivers/STM32H7xx_HAL_Driver/Src/stm32h7xx_hal_rcc.c ****           }
 788:Drivers/STM32H7xx_HAL_Driver/Src/stm32h7xx_hal_rcc.c ****         }
 789:Drivers/STM32H7xx_HAL_Driver/Src/stm32h7xx_hal_rcc.c **** 
 790:Drivers/STM32H7xx_HAL_Driver/Src/stm32h7xx_hal_rcc.c ****         /* Configure the main PLL clock source, multiplication and division factors. */
 791:Drivers/STM32H7xx_HAL_Driver/Src/stm32h7xx_hal_rcc.c ****         __HAL_RCC_PLL_CONFIG(RCC_OscInitStruct->PLL.PLLSource,
 792:Drivers/STM32H7xx_HAL_Driver/Src/stm32h7xx_hal_rcc.c ****                              RCC_OscInitStruct->PLL.PLLM,
 793:Drivers/STM32H7xx_HAL_Driver/Src/stm32h7xx_hal_rcc.c ****                              RCC_OscInitStruct->PLL.PLLN,
 794:Drivers/STM32H7xx_HAL_Driver/Src/stm32h7xx_hal_rcc.c ****                              RCC_OscInitStruct->PLL.PLLP,
 795:Drivers/STM32H7xx_HAL_Driver/Src/stm32h7xx_hal_rcc.c ****                              RCC_OscInitStruct->PLL.PLLQ,
 796:Drivers/STM32H7xx_HAL_Driver/Src/stm32h7xx_hal_rcc.c ****                              RCC_OscInitStruct->PLL.PLLR);
 797:Drivers/STM32H7xx_HAL_Driver/Src/stm32h7xx_hal_rcc.c **** 
 798:Drivers/STM32H7xx_HAL_Driver/Src/stm32h7xx_hal_rcc.c ****          /* Disable PLLFRACN . */
 799:Drivers/STM32H7xx_HAL_Driver/Src/stm32h7xx_hal_rcc.c ****          __HAL_RCC_PLLFRACN_DISABLE();
 800:Drivers/STM32H7xx_HAL_Driver/Src/stm32h7xx_hal_rcc.c **** 
 801:Drivers/STM32H7xx_HAL_Driver/Src/stm32h7xx_hal_rcc.c ****          /* Configure PLL PLL1FRACN */
 802:Drivers/STM32H7xx_HAL_Driver/Src/stm32h7xx_hal_rcc.c ****          __HAL_RCC_PLLFRACN_CONFIG(RCC_OscInitStruct->PLL.PLLFRACN);
 803:Drivers/STM32H7xx_HAL_Driver/Src/stm32h7xx_hal_rcc.c **** 
 804:Drivers/STM32H7xx_HAL_Driver/Src/stm32h7xx_hal_rcc.c ****         /* Select PLL1 input reference frequency range: VCI */
 805:Drivers/STM32H7xx_HAL_Driver/Src/stm32h7xx_hal_rcc.c ****         __HAL_RCC_PLL_VCIRANGE(RCC_OscInitStruct->PLL.PLLRGE) ;
 806:Drivers/STM32H7xx_HAL_Driver/Src/stm32h7xx_hal_rcc.c **** 
 807:Drivers/STM32H7xx_HAL_Driver/Src/stm32h7xx_hal_rcc.c ****         /* Select PLL1 output frequency range : VCO */
 808:Drivers/STM32H7xx_HAL_Driver/Src/stm32h7xx_hal_rcc.c ****         __HAL_RCC_PLL_VCORANGE(RCC_OscInitStruct->PLL.PLLVCOSEL) ;
 809:Drivers/STM32H7xx_HAL_Driver/Src/stm32h7xx_hal_rcc.c **** 
 810:Drivers/STM32H7xx_HAL_Driver/Src/stm32h7xx_hal_rcc.c ****         /* Enable PLL System Clock output. */
 811:Drivers/STM32H7xx_HAL_Driver/Src/stm32h7xx_hal_rcc.c ****          __HAL_RCC_PLLCLKOUT_ENABLE(RCC_PLL1_DIVP);
 812:Drivers/STM32H7xx_HAL_Driver/Src/stm32h7xx_hal_rcc.c **** 
ARM GAS  C:\Users\ADMINI~1\AppData\Local\Temp\cc7xIC5f.s 			page 37


 813:Drivers/STM32H7xx_HAL_Driver/Src/stm32h7xx_hal_rcc.c ****         /* Enable PLL1Q Clock output. */
 814:Drivers/STM32H7xx_HAL_Driver/Src/stm32h7xx_hal_rcc.c ****          __HAL_RCC_PLLCLKOUT_ENABLE(RCC_PLL1_DIVQ);
 815:Drivers/STM32H7xx_HAL_Driver/Src/stm32h7xx_hal_rcc.c **** 
 816:Drivers/STM32H7xx_HAL_Driver/Src/stm32h7xx_hal_rcc.c ****         /* Enable PLL1R  Clock output. */
 817:Drivers/STM32H7xx_HAL_Driver/Src/stm32h7xx_hal_rcc.c ****          __HAL_RCC_PLLCLKOUT_ENABLE(RCC_PLL1_DIVR);
 818:Drivers/STM32H7xx_HAL_Driver/Src/stm32h7xx_hal_rcc.c **** 
 819:Drivers/STM32H7xx_HAL_Driver/Src/stm32h7xx_hal_rcc.c ****         /* Enable PLL1FRACN . */
 820:Drivers/STM32H7xx_HAL_Driver/Src/stm32h7xx_hal_rcc.c ****          __HAL_RCC_PLLFRACN_ENABLE();
 821:Drivers/STM32H7xx_HAL_Driver/Src/stm32h7xx_hal_rcc.c **** 
 822:Drivers/STM32H7xx_HAL_Driver/Src/stm32h7xx_hal_rcc.c ****         /* Enable the main PLL. */
 823:Drivers/STM32H7xx_HAL_Driver/Src/stm32h7xx_hal_rcc.c ****         __HAL_RCC_PLL_ENABLE();
 824:Drivers/STM32H7xx_HAL_Driver/Src/stm32h7xx_hal_rcc.c **** 
 825:Drivers/STM32H7xx_HAL_Driver/Src/stm32h7xx_hal_rcc.c ****         /* Get Start Tick*/
 826:Drivers/STM32H7xx_HAL_Driver/Src/stm32h7xx_hal_rcc.c ****         tickstart = HAL_GetTick();
 827:Drivers/STM32H7xx_HAL_Driver/Src/stm32h7xx_hal_rcc.c **** 
 828:Drivers/STM32H7xx_HAL_Driver/Src/stm32h7xx_hal_rcc.c ****         /* Wait till PLL is ready */
 829:Drivers/STM32H7xx_HAL_Driver/Src/stm32h7xx_hal_rcc.c ****         while(__HAL_RCC_GET_FLAG(RCC_FLAG_PLLRDY) == 0U)
 830:Drivers/STM32H7xx_HAL_Driver/Src/stm32h7xx_hal_rcc.c ****         {
 831:Drivers/STM32H7xx_HAL_Driver/Src/stm32h7xx_hal_rcc.c ****           if((HAL_GetTick() - tickstart ) > PLL_TIMEOUT_VALUE)
 832:Drivers/STM32H7xx_HAL_Driver/Src/stm32h7xx_hal_rcc.c ****           {
 833:Drivers/STM32H7xx_HAL_Driver/Src/stm32h7xx_hal_rcc.c ****             return HAL_TIMEOUT;
 834:Drivers/STM32H7xx_HAL_Driver/Src/stm32h7xx_hal_rcc.c ****           }
 835:Drivers/STM32H7xx_HAL_Driver/Src/stm32h7xx_hal_rcc.c ****         }
 836:Drivers/STM32H7xx_HAL_Driver/Src/stm32h7xx_hal_rcc.c ****       }
 837:Drivers/STM32H7xx_HAL_Driver/Src/stm32h7xx_hal_rcc.c ****       else
 838:Drivers/STM32H7xx_HAL_Driver/Src/stm32h7xx_hal_rcc.c ****       {
 839:Drivers/STM32H7xx_HAL_Driver/Src/stm32h7xx_hal_rcc.c ****         /* Disable the main PLL. */
 840:Drivers/STM32H7xx_HAL_Driver/Src/stm32h7xx_hal_rcc.c ****         __HAL_RCC_PLL_DISABLE();
 1131              		.loc 1 840 9 is_stmt 1 view .LVU389
 1132 033e 744A     		ldr	r2, .L153
 1133 0340 1368     		ldr	r3, [r2]
 1134 0342 23F08073 		bic	r3, r3, #16777216
 1135 0346 1360     		str	r3, [r2]
 841:Drivers/STM32H7xx_HAL_Driver/Src/stm32h7xx_hal_rcc.c **** 
 842:Drivers/STM32H7xx_HAL_Driver/Src/stm32h7xx_hal_rcc.c ****         /* Get Start Tick*/
 843:Drivers/STM32H7xx_HAL_Driver/Src/stm32h7xx_hal_rcc.c ****         tickstart = HAL_GetTick();
 1136              		.loc 1 843 9 view .LVU390
 1137              		.loc 1 843 21 is_stmt 0 view .LVU391
 1138 0348 FFF7FEFF 		bl	HAL_GetTick
 1139              	.LVL95:
 1140 034c 0446     		mov	r4, r0
 1141              	.LVL96:
 844:Drivers/STM32H7xx_HAL_Driver/Src/stm32h7xx_hal_rcc.c **** 
 845:Drivers/STM32H7xx_HAL_Driver/Src/stm32h7xx_hal_rcc.c ****         /* Wait till PLL is disabled */
 846:Drivers/STM32H7xx_HAL_Driver/Src/stm32h7xx_hal_rcc.c ****         while(__HAL_RCC_GET_FLAG(RCC_FLAG_PLLRDY) != 0U)
 1142              		.loc 1 846 9 is_stmt 1 view .LVU392
 1143              	.L99:
 1144              		.loc 1 846 14 view .LVU393
 1145              		.loc 1 846 15 is_stmt 0 view .LVU394
 1146 034e 704B     		ldr	r3, .L153
 1147 0350 1B68     		ldr	r3, [r3]
 1148              		.loc 1 846 14 view .LVU395
 1149 0352 13F0007F 		tst	r3, #33554432
 1150 0356 00F0D880 		beq	.L145
 847:Drivers/STM32H7xx_HAL_Driver/Src/stm32h7xx_hal_rcc.c ****         {
 848:Drivers/STM32H7xx_HAL_Driver/Src/stm32h7xx_hal_rcc.c ****           if((HAL_GetTick() - tickstart ) > PLL_TIMEOUT_VALUE)
 1151              		.loc 1 848 11 is_stmt 1 view .LVU396
ARM GAS  C:\Users\ADMINI~1\AppData\Local\Temp\cc7xIC5f.s 			page 38


 1152              		.loc 1 848 15 is_stmt 0 view .LVU397
 1153 035a FFF7FEFF 		bl	HAL_GetTick
 1154              	.LVL97:
 1155              		.loc 1 848 29 view .LVU398
 1156 035e 001B     		subs	r0, r0, r4
 1157              		.loc 1 848 13 view .LVU399
 1158 0360 0228     		cmp	r0, #2
 1159 0362 F4D9     		bls	.L99
 849:Drivers/STM32H7xx_HAL_Driver/Src/stm32h7xx_hal_rcc.c ****           {
 850:Drivers/STM32H7xx_HAL_Driver/Src/stm32h7xx_hal_rcc.c ****             return HAL_TIMEOUT;
 1160              		.loc 1 850 20 view .LVU400
 1161 0364 0320     		movs	r0, #3
 1162 0366 0DE1     		b	.L36
 1163              	.LVL98:
 1164              	.L143:
 706:Drivers/STM32H7xx_HAL_Driver/Src/stm32h7xx_hal_rcc.c **** 
 1165              		.loc 1 706 5 is_stmt 1 view .LVU401
 709:Drivers/STM32H7xx_HAL_Driver/Src/stm32h7xx_hal_rcc.c **** 
 1166              		.loc 1 709 5 view .LVU402
 709:Drivers/STM32H7xx_HAL_Driver/Src/stm32h7xx_hal_rcc.c **** 
 1167              		.loc 1 709 14 is_stmt 0 view .LVU403
 1168 0368 6A4A     		ldr	r2, .L153+4
 1169 036a 1368     		ldr	r3, [r2]
 1170 036c 43F48073 		orr	r3, r3, #256
 1171 0370 1360     		str	r3, [r2]
 712:Drivers/STM32H7xx_HAL_Driver/Src/stm32h7xx_hal_rcc.c **** 
 1172              		.loc 1 712 5 is_stmt 1 view .LVU404
 712:Drivers/STM32H7xx_HAL_Driver/Src/stm32h7xx_hal_rcc.c **** 
 1173              		.loc 1 712 17 is_stmt 0 view .LVU405
 1174 0372 FFF7FEFF 		bl	HAL_GetTick
 1175              	.LVL99:
 1176 0376 0546     		mov	r5, r0
 1177              	.LVL100:
 714:Drivers/STM32H7xx_HAL_Driver/Src/stm32h7xx_hal_rcc.c ****     {
 1178              		.loc 1 714 5 is_stmt 1 view .LVU406
 1179              	.L82:
 714:Drivers/STM32H7xx_HAL_Driver/Src/stm32h7xx_hal_rcc.c ****     {
 1180              		.loc 1 714 10 view .LVU407
 714:Drivers/STM32H7xx_HAL_Driver/Src/stm32h7xx_hal_rcc.c ****     {
 1181              		.loc 1 714 15 is_stmt 0 view .LVU408
 1182 0378 664B     		ldr	r3, .L153+4
 1183 037a 1B68     		ldr	r3, [r3]
 714:Drivers/STM32H7xx_HAL_Driver/Src/stm32h7xx_hal_rcc.c ****     {
 1184              		.loc 1 714 10 view .LVU409
 1185 037c 13F4807F 		tst	r3, #256
 1186 0380 06D1     		bne	.L146
 716:Drivers/STM32H7xx_HAL_Driver/Src/stm32h7xx_hal_rcc.c ****       {
 1187              		.loc 1 716 7 is_stmt 1 view .LVU410
 716:Drivers/STM32H7xx_HAL_Driver/Src/stm32h7xx_hal_rcc.c ****       {
 1188              		.loc 1 716 11 is_stmt 0 view .LVU411
 1189 0382 FFF7FEFF 		bl	HAL_GetTick
 1190              	.LVL101:
 716:Drivers/STM32H7xx_HAL_Driver/Src/stm32h7xx_hal_rcc.c ****       {
 1191              		.loc 1 716 25 view .LVU412
 1192 0386 401B     		subs	r0, r0, r5
 716:Drivers/STM32H7xx_HAL_Driver/Src/stm32h7xx_hal_rcc.c ****       {
 1193              		.loc 1 716 9 view .LVU413
ARM GAS  C:\Users\ADMINI~1\AppData\Local\Temp\cc7xIC5f.s 			page 39


 1194 0388 6428     		cmp	r0, #100
 1195 038a F5D9     		bls	.L82
 718:Drivers/STM32H7xx_HAL_Driver/Src/stm32h7xx_hal_rcc.c ****       }
 1196              		.loc 1 718 16 view .LVU414
 1197 038c 0320     		movs	r0, #3
 1198 038e F9E0     		b	.L36
 1199              	.L146:
 723:Drivers/STM32H7xx_HAL_Driver/Src/stm32h7xx_hal_rcc.c ****     /* Check the LSE State */
 1200              		.loc 1 723 5 is_stmt 1 view .LVU415
 723:Drivers/STM32H7xx_HAL_Driver/Src/stm32h7xx_hal_rcc.c ****     /* Check the LSE State */
 1201              		.loc 1 723 5 view .LVU416
 1202 0390 A368     		ldr	r3, [r4, #8]
 1203 0392 012B     		cmp	r3, #1
 1204 0394 0AD0     		beq	.L147
 723:Drivers/STM32H7xx_HAL_Driver/Src/stm32h7xx_hal_rcc.c ****     /* Check the LSE State */
 1205              		.loc 1 723 5 discriminator 2 view .LVU417
 1206 0396 0BBB     		cbnz	r3, .L86
 723:Drivers/STM32H7xx_HAL_Driver/Src/stm32h7xx_hal_rcc.c ****     /* Check the LSE State */
 1207              		.loc 1 723 5 discriminator 4 view .LVU418
 1208 0398 5D4B     		ldr	r3, .L153
 1209 039a 1A6F     		ldr	r2, [r3, #112]
 1210 039c 22F00102 		bic	r2, r2, #1
 1211 03a0 1A67     		str	r2, [r3, #112]
 723:Drivers/STM32H7xx_HAL_Driver/Src/stm32h7xx_hal_rcc.c ****     /* Check the LSE State */
 1212              		.loc 1 723 5 discriminator 4 view .LVU419
 1213 03a2 1A6F     		ldr	r2, [r3, #112]
 1214 03a4 22F00402 		bic	r2, r2, #4
 1215 03a8 1A67     		str	r2, [r3, #112]
 1216 03aa 04E0     		b	.L85
 1217              	.L147:
 723:Drivers/STM32H7xx_HAL_Driver/Src/stm32h7xx_hal_rcc.c ****     /* Check the LSE State */
 1218              		.loc 1 723 5 discriminator 1 view .LVU420
 1219 03ac 584A     		ldr	r2, .L153
 1220 03ae 136F     		ldr	r3, [r2, #112]
 1221 03b0 43F00103 		orr	r3, r3, #1
 1222 03b4 1367     		str	r3, [r2, #112]
 1223              	.L85:
 723:Drivers/STM32H7xx_HAL_Driver/Src/stm32h7xx_hal_rcc.c ****     /* Check the LSE State */
 1224              		.loc 1 723 5 discriminator 10 view .LVU421
 725:Drivers/STM32H7xx_HAL_Driver/Src/stm32h7xx_hal_rcc.c ****     {
 1225              		.loc 1 725 5 discriminator 10 view .LVU422
 725:Drivers/STM32H7xx_HAL_Driver/Src/stm32h7xx_hal_rcc.c ****     {
 1226              		.loc 1 725 26 is_stmt 0 discriminator 10 view .LVU423
 1227 03b6 A368     		ldr	r3, [r4, #8]
 725:Drivers/STM32H7xx_HAL_Driver/Src/stm32h7xx_hal_rcc.c ****     {
 1228              		.loc 1 725 7 discriminator 10 view .LVU424
 1229 03b8 33B3     		cbz	r3, .L88
 728:Drivers/STM32H7xx_HAL_Driver/Src/stm32h7xx_hal_rcc.c **** 
 1230              		.loc 1 728 7 is_stmt 1 view .LVU425
 728:Drivers/STM32H7xx_HAL_Driver/Src/stm32h7xx_hal_rcc.c **** 
 1231              		.loc 1 728 19 is_stmt 0 view .LVU426
 1232 03ba FFF7FEFF 		bl	HAL_GetTick
 1233              	.LVL102:
 1234 03be 0546     		mov	r5, r0
 1235              	.LVL103:
 731:Drivers/STM32H7xx_HAL_Driver/Src/stm32h7xx_hal_rcc.c ****       {
 1236              		.loc 1 731 7 is_stmt 1 view .LVU427
ARM GAS  C:\Users\ADMINI~1\AppData\Local\Temp\cc7xIC5f.s 			page 40


 1237              	.L89:
 731:Drivers/STM32H7xx_HAL_Driver/Src/stm32h7xx_hal_rcc.c ****       {
 1238              		.loc 1 731 12 view .LVU428
 731:Drivers/STM32H7xx_HAL_Driver/Src/stm32h7xx_hal_rcc.c ****       {
 1239              		.loc 1 731 13 is_stmt 0 view .LVU429
 1240 03c0 534B     		ldr	r3, .L153
 1241 03c2 1B6F     		ldr	r3, [r3, #112]
 731:Drivers/STM32H7xx_HAL_Driver/Src/stm32h7xx_hal_rcc.c ****       {
 1242              		.loc 1 731 12 view .LVU430
 1243 03c4 13F0020F 		tst	r3, #2
 1244 03c8 ACD1     		bne	.L81
 733:Drivers/STM32H7xx_HAL_Driver/Src/stm32h7xx_hal_rcc.c ****         {
 1245              		.loc 1 733 9 is_stmt 1 view .LVU431
 733:Drivers/STM32H7xx_HAL_Driver/Src/stm32h7xx_hal_rcc.c ****         {
 1246              		.loc 1 733 13 is_stmt 0 view .LVU432
 1247 03ca FFF7FEFF 		bl	HAL_GetTick
 1248              	.LVL104:
 733:Drivers/STM32H7xx_HAL_Driver/Src/stm32h7xx_hal_rcc.c ****         {
 1249              		.loc 1 733 27 view .LVU433
 1250 03ce 401B     		subs	r0, r0, r5
 733:Drivers/STM32H7xx_HAL_Driver/Src/stm32h7xx_hal_rcc.c ****         {
 1251              		.loc 1 733 11 view .LVU434
 1252 03d0 41F28833 		movw	r3, #5000
 1253 03d4 9842     		cmp	r0, r3
 1254 03d6 F3D9     		bls	.L89
 735:Drivers/STM32H7xx_HAL_Driver/Src/stm32h7xx_hal_rcc.c ****         }
 1255              		.loc 1 735 18 view .LVU435
 1256 03d8 0320     		movs	r0, #3
 1257 03da D3E0     		b	.L36
 1258              	.L86:
 723:Drivers/STM32H7xx_HAL_Driver/Src/stm32h7xx_hal_rcc.c ****     /* Check the LSE State */
 1259              		.loc 1 723 5 is_stmt 1 discriminator 5 view .LVU436
 1260 03dc 052B     		cmp	r3, #5
 1261 03de 09D0     		beq	.L148
 723:Drivers/STM32H7xx_HAL_Driver/Src/stm32h7xx_hal_rcc.c ****     /* Check the LSE State */
 1262              		.loc 1 723 5 discriminator 8 view .LVU437
 1263 03e0 4B4B     		ldr	r3, .L153
 1264 03e2 1A6F     		ldr	r2, [r3, #112]
 1265 03e4 22F00102 		bic	r2, r2, #1
 1266 03e8 1A67     		str	r2, [r3, #112]
 723:Drivers/STM32H7xx_HAL_Driver/Src/stm32h7xx_hal_rcc.c ****     /* Check the LSE State */
 1267              		.loc 1 723 5 discriminator 8 view .LVU438
 1268 03ea 1A6F     		ldr	r2, [r3, #112]
 1269 03ec 22F00402 		bic	r2, r2, #4
 1270 03f0 1A67     		str	r2, [r3, #112]
 1271 03f2 E0E7     		b	.L85
 1272              	.L148:
 723:Drivers/STM32H7xx_HAL_Driver/Src/stm32h7xx_hal_rcc.c ****     /* Check the LSE State */
 1273              		.loc 1 723 5 discriminator 7 view .LVU439
 1274 03f4 464B     		ldr	r3, .L153
 1275 03f6 1A6F     		ldr	r2, [r3, #112]
 1276 03f8 42F00402 		orr	r2, r2, #4
 1277 03fc 1A67     		str	r2, [r3, #112]
 723:Drivers/STM32H7xx_HAL_Driver/Src/stm32h7xx_hal_rcc.c ****     /* Check the LSE State */
 1278              		.loc 1 723 5 discriminator 7 view .LVU440
 1279 03fe 1A6F     		ldr	r2, [r3, #112]
 1280 0400 42F00102 		orr	r2, r2, #1
ARM GAS  C:\Users\ADMINI~1\AppData\Local\Temp\cc7xIC5f.s 			page 41


 1281 0404 1A67     		str	r2, [r3, #112]
 1282 0406 D6E7     		b	.L85
 1283              	.L88:
 742:Drivers/STM32H7xx_HAL_Driver/Src/stm32h7xx_hal_rcc.c **** 
 1284              		.loc 1 742 7 view .LVU441
 742:Drivers/STM32H7xx_HAL_Driver/Src/stm32h7xx_hal_rcc.c **** 
 1285              		.loc 1 742 19 is_stmt 0 view .LVU442
 1286 0408 FFF7FEFF 		bl	HAL_GetTick
 1287              	.LVL105:
 1288 040c 0546     		mov	r5, r0
 1289              	.LVL106:
 745:Drivers/STM32H7xx_HAL_Driver/Src/stm32h7xx_hal_rcc.c ****       {
 1290              		.loc 1 745 7 is_stmt 1 view .LVU443
 1291              	.L91:
 745:Drivers/STM32H7xx_HAL_Driver/Src/stm32h7xx_hal_rcc.c ****       {
 1292              		.loc 1 745 12 view .LVU444
 745:Drivers/STM32H7xx_HAL_Driver/Src/stm32h7xx_hal_rcc.c ****       {
 1293              		.loc 1 745 13 is_stmt 0 view .LVU445
 1294 040e 404B     		ldr	r3, .L153
 1295 0410 1B6F     		ldr	r3, [r3, #112]
 745:Drivers/STM32H7xx_HAL_Driver/Src/stm32h7xx_hal_rcc.c ****       {
 1296              		.loc 1 745 12 view .LVU446
 1297 0412 13F0020F 		tst	r3, #2
 1298 0416 85D0     		beq	.L81
 747:Drivers/STM32H7xx_HAL_Driver/Src/stm32h7xx_hal_rcc.c ****         {
 1299              		.loc 1 747 9 is_stmt 1 view .LVU447
 747:Drivers/STM32H7xx_HAL_Driver/Src/stm32h7xx_hal_rcc.c ****         {
 1300              		.loc 1 747 13 is_stmt 0 view .LVU448
 1301 0418 FFF7FEFF 		bl	HAL_GetTick
 1302              	.LVL107:
 747:Drivers/STM32H7xx_HAL_Driver/Src/stm32h7xx_hal_rcc.c ****         {
 1303              		.loc 1 747 27 view .LVU449
 1304 041c 401B     		subs	r0, r0, r5
 747:Drivers/STM32H7xx_HAL_Driver/Src/stm32h7xx_hal_rcc.c ****         {
 1305              		.loc 1 747 11 view .LVU450
 1306 041e 41F28833 		movw	r3, #5000
 1307 0422 9842     		cmp	r0, r3
 1308 0424 F3D9     		bls	.L91
 749:Drivers/STM32H7xx_HAL_Driver/Src/stm32h7xx_hal_rcc.c ****         }
 1309              		.loc 1 749 18 view .LVU451
 1310 0426 0320     		movs	r0, #3
 1311 0428 ACE0     		b	.L36
 1312              	.LVL108:
 1313              	.L144:
 765:Drivers/STM32H7xx_HAL_Driver/Src/stm32h7xx_hal_rcc.c ****         assert_param(IS_RCC_PLLRGE_VALUE(RCC_OscInitStruct->PLL.PLLRGE));
 1314              		.loc 1 765 9 is_stmt 1 view .LVU452
 766:Drivers/STM32H7xx_HAL_Driver/Src/stm32h7xx_hal_rcc.c ****         assert_param(IS_RCC_PLLVCO_VALUE(RCC_OscInitStruct->PLL.PLLVCOSEL));
 1315              		.loc 1 766 9 view .LVU453
 767:Drivers/STM32H7xx_HAL_Driver/Src/stm32h7xx_hal_rcc.c ****         assert_param(IS_RCC_PLLM_VALUE(RCC_OscInitStruct->PLL.PLLM));
 1316              		.loc 1 767 9 view .LVU454
 768:Drivers/STM32H7xx_HAL_Driver/Src/stm32h7xx_hal_rcc.c ****         assert_param(IS_RCC_PLLN_VALUE(RCC_OscInitStruct->PLL.PLLN));
 1317              		.loc 1 768 9 view .LVU455
 769:Drivers/STM32H7xx_HAL_Driver/Src/stm32h7xx_hal_rcc.c ****         assert_param(IS_RCC_PLLP_VALUE(RCC_OscInitStruct->PLL.PLLP));
 1318              		.loc 1 769 9 view .LVU456
 770:Drivers/STM32H7xx_HAL_Driver/Src/stm32h7xx_hal_rcc.c ****         assert_param(IS_RCC_PLLQ_VALUE(RCC_OscInitStruct->PLL.PLLQ));
 1319              		.loc 1 770 9 view .LVU457
 771:Drivers/STM32H7xx_HAL_Driver/Src/stm32h7xx_hal_rcc.c ****         assert_param(IS_RCC_PLLR_VALUE(RCC_OscInitStruct->PLL.PLLR));
ARM GAS  C:\Users\ADMINI~1\AppData\Local\Temp\cc7xIC5f.s 			page 42


 1320              		.loc 1 771 9 view .LVU458
 772:Drivers/STM32H7xx_HAL_Driver/Src/stm32h7xx_hal_rcc.c ****         assert_param(IS_RCC_PLLFRACN_VALUE(RCC_OscInitStruct->PLL.PLLFRACN));
 1321              		.loc 1 772 9 view .LVU459
 773:Drivers/STM32H7xx_HAL_Driver/Src/stm32h7xx_hal_rcc.c **** 
 1322              		.loc 1 773 9 view .LVU460
 776:Drivers/STM32H7xx_HAL_Driver/Src/stm32h7xx_hal_rcc.c **** 
 1323              		.loc 1 776 9 view .LVU461
 1324 042a 394A     		ldr	r2, .L153
 1325 042c 1368     		ldr	r3, [r2]
 1326 042e 23F08073 		bic	r3, r3, #16777216
 1327 0432 1360     		str	r3, [r2]
 779:Drivers/STM32H7xx_HAL_Driver/Src/stm32h7xx_hal_rcc.c **** 
 1328              		.loc 1 779 9 view .LVU462
 779:Drivers/STM32H7xx_HAL_Driver/Src/stm32h7xx_hal_rcc.c **** 
 1329              		.loc 1 779 21 is_stmt 0 view .LVU463
 1330 0434 FFF7FEFF 		bl	HAL_GetTick
 1331              	.LVL109:
 1332 0438 0546     		mov	r5, r0
 1333              	.LVL110:
 782:Drivers/STM32H7xx_HAL_Driver/Src/stm32h7xx_hal_rcc.c ****         {
 1334              		.loc 1 782 9 is_stmt 1 view .LVU464
 1335              	.L95:
 782:Drivers/STM32H7xx_HAL_Driver/Src/stm32h7xx_hal_rcc.c ****         {
 1336              		.loc 1 782 14 view .LVU465
 782:Drivers/STM32H7xx_HAL_Driver/Src/stm32h7xx_hal_rcc.c ****         {
 1337              		.loc 1 782 15 is_stmt 0 view .LVU466
 1338 043a 354B     		ldr	r3, .L153
 1339 043c 1B68     		ldr	r3, [r3]
 782:Drivers/STM32H7xx_HAL_Driver/Src/stm32h7xx_hal_rcc.c ****         {
 1340              		.loc 1 782 14 view .LVU467
 1341 043e 13F0007F 		tst	r3, #33554432
 1342 0442 06D0     		beq	.L149
 784:Drivers/STM32H7xx_HAL_Driver/Src/stm32h7xx_hal_rcc.c ****           {
 1343              		.loc 1 784 11 is_stmt 1 view .LVU468
 784:Drivers/STM32H7xx_HAL_Driver/Src/stm32h7xx_hal_rcc.c ****           {
 1344              		.loc 1 784 15 is_stmt 0 view .LVU469
 1345 0444 FFF7FEFF 		bl	HAL_GetTick
 1346              	.LVL111:
 784:Drivers/STM32H7xx_HAL_Driver/Src/stm32h7xx_hal_rcc.c ****           {
 1347              		.loc 1 784 29 view .LVU470
 1348 0448 401B     		subs	r0, r0, r5
 784:Drivers/STM32H7xx_HAL_Driver/Src/stm32h7xx_hal_rcc.c ****           {
 1349              		.loc 1 784 13 view .LVU471
 1350 044a 0228     		cmp	r0, #2
 1351 044c F5D9     		bls	.L95
 786:Drivers/STM32H7xx_HAL_Driver/Src/stm32h7xx_hal_rcc.c ****           }
 1352              		.loc 1 786 20 view .LVU472
 1353 044e 0320     		movs	r0, #3
 1354 0450 98E0     		b	.L36
 1355              	.L149:
 791:Drivers/STM32H7xx_HAL_Driver/Src/stm32h7xx_hal_rcc.c ****                              RCC_OscInitStruct->PLL.PLLM,
 1356              		.loc 1 791 9 is_stmt 1 view .LVU473
 791:Drivers/STM32H7xx_HAL_Driver/Src/stm32h7xx_hal_rcc.c ****                              RCC_OscInitStruct->PLL.PLLM,
 1357              		.loc 1 791 9 view .LVU474
 1358 0452 2F4B     		ldr	r3, .L153
 1359 0454 996A     		ldr	r1, [r3, #40]
 1360 0456 304A     		ldr	r2, .L153+8
ARM GAS  C:\Users\ADMINI~1\AppData\Local\Temp\cc7xIC5f.s 			page 43


 1361 0458 0A40     		ands	r2, r2, r1
 1362 045a A16A     		ldr	r1, [r4, #40]
 1363 045c E06A     		ldr	r0, [r4, #44]
 1364 045e 41EA0011 		orr	r1, r1, r0, lsl #4
 1365 0462 0A43     		orrs	r2, r2, r1
 1366 0464 9A62     		str	r2, [r3, #40]
 791:Drivers/STM32H7xx_HAL_Driver/Src/stm32h7xx_hal_rcc.c ****                              RCC_OscInitStruct->PLL.PLLM,
 1367              		.loc 1 791 9 view .LVU475
 1368 0466 226B     		ldr	r2, [r4, #48]
 1369 0468 013A     		subs	r2, r2, #1
 1370 046a C2F30802 		ubfx	r2, r2, #0, #9
 1371 046e 616B     		ldr	r1, [r4, #52]
 1372 0470 0139     		subs	r1, r1, #1
 1373 0472 4902     		lsls	r1, r1, #9
 1374 0474 89B2     		uxth	r1, r1
 1375 0476 0A43     		orrs	r2, r2, r1
 1376 0478 A16B     		ldr	r1, [r4, #56]
 1377 047a 0139     		subs	r1, r1, #1
 1378 047c 0904     		lsls	r1, r1, #16
 1379 047e 01F4FE01 		and	r1, r1, #8323072
 1380 0482 0A43     		orrs	r2, r2, r1
 1381 0484 E16B     		ldr	r1, [r4, #60]
 1382 0486 0139     		subs	r1, r1, #1
 1383 0488 0906     		lsls	r1, r1, #24
 1384 048a 01F0FE41 		and	r1, r1, #2130706432
 1385 048e 0A43     		orrs	r2, r2, r1
 1386 0490 1A63     		str	r2, [r3, #48]
 791:Drivers/STM32H7xx_HAL_Driver/Src/stm32h7xx_hal_rcc.c ****                              RCC_OscInitStruct->PLL.PLLM,
 1387              		.loc 1 791 9 view .LVU476
 799:Drivers/STM32H7xx_HAL_Driver/Src/stm32h7xx_hal_rcc.c **** 
 1388              		.loc 1 799 10 view .LVU477
 1389 0492 DA6A     		ldr	r2, [r3, #44]
 1390 0494 22F00102 		bic	r2, r2, #1
 1391 0498 DA62     		str	r2, [r3, #44]
 802:Drivers/STM32H7xx_HAL_Driver/Src/stm32h7xx_hal_rcc.c **** 
 1392              		.loc 1 802 10 view .LVU478
 1393 049a 596B     		ldr	r1, [r3, #52]
 1394 049c 1F4A     		ldr	r2, .L153+12
 1395 049e 0A40     		ands	r2, r2, r1
 1396 04a0 A16C     		ldr	r1, [r4, #72]
 1397 04a2 42EAC102 		orr	r2, r2, r1, lsl #3
 1398 04a6 5A63     		str	r2, [r3, #52]
 805:Drivers/STM32H7xx_HAL_Driver/Src/stm32h7xx_hal_rcc.c **** 
 1399              		.loc 1 805 9 view .LVU479
 1400 04a8 DA6A     		ldr	r2, [r3, #44]
 1401 04aa 22F00C02 		bic	r2, r2, #12
 1402 04ae 216C     		ldr	r1, [r4, #64]
 1403 04b0 0A43     		orrs	r2, r2, r1
 1404 04b2 DA62     		str	r2, [r3, #44]
 808:Drivers/STM32H7xx_HAL_Driver/Src/stm32h7xx_hal_rcc.c **** 
 1405              		.loc 1 808 9 view .LVU480
 1406 04b4 DA6A     		ldr	r2, [r3, #44]
 1407 04b6 22F00202 		bic	r2, r2, #2
 1408 04ba 616C     		ldr	r1, [r4, #68]
 1409 04bc 0A43     		orrs	r2, r2, r1
 1410 04be DA62     		str	r2, [r3, #44]
 811:Drivers/STM32H7xx_HAL_Driver/Src/stm32h7xx_hal_rcc.c **** 
ARM GAS  C:\Users\ADMINI~1\AppData\Local\Temp\cc7xIC5f.s 			page 44


 1411              		.loc 1 811 10 view .LVU481
 1412 04c0 DA6A     		ldr	r2, [r3, #44]
 1413 04c2 42F48032 		orr	r2, r2, #65536
 1414 04c6 DA62     		str	r2, [r3, #44]
 814:Drivers/STM32H7xx_HAL_Driver/Src/stm32h7xx_hal_rcc.c **** 
 1415              		.loc 1 814 10 view .LVU482
 1416 04c8 DA6A     		ldr	r2, [r3, #44]
 1417 04ca 42F40032 		orr	r2, r2, #131072
 1418 04ce DA62     		str	r2, [r3, #44]
 817:Drivers/STM32H7xx_HAL_Driver/Src/stm32h7xx_hal_rcc.c **** 
 1419              		.loc 1 817 10 view .LVU483
 1420 04d0 DA6A     		ldr	r2, [r3, #44]
 1421 04d2 42F48022 		orr	r2, r2, #262144
 1422 04d6 DA62     		str	r2, [r3, #44]
 820:Drivers/STM32H7xx_HAL_Driver/Src/stm32h7xx_hal_rcc.c **** 
 1423              		.loc 1 820 10 view .LVU484
 1424 04d8 DA6A     		ldr	r2, [r3, #44]
 1425 04da 42F00102 		orr	r2, r2, #1
 1426 04de DA62     		str	r2, [r3, #44]
 823:Drivers/STM32H7xx_HAL_Driver/Src/stm32h7xx_hal_rcc.c **** 
 1427              		.loc 1 823 9 view .LVU485
 1428 04e0 1A68     		ldr	r2, [r3]
 1429 04e2 42F08072 		orr	r2, r2, #16777216
 1430 04e6 1A60     		str	r2, [r3]
 826:Drivers/STM32H7xx_HAL_Driver/Src/stm32h7xx_hal_rcc.c **** 
 1431              		.loc 1 826 9 view .LVU486
 826:Drivers/STM32H7xx_HAL_Driver/Src/stm32h7xx_hal_rcc.c **** 
 1432              		.loc 1 826 21 is_stmt 0 view .LVU487
 1433 04e8 FFF7FEFF 		bl	HAL_GetTick
 1434              	.LVL112:
 1435 04ec 0446     		mov	r4, r0
 1436              	.LVL113:
 829:Drivers/STM32H7xx_HAL_Driver/Src/stm32h7xx_hal_rcc.c ****         {
 1437              		.loc 1 829 9 is_stmt 1 view .LVU488
 1438              	.L97:
 829:Drivers/STM32H7xx_HAL_Driver/Src/stm32h7xx_hal_rcc.c ****         {
 1439              		.loc 1 829 14 view .LVU489
 829:Drivers/STM32H7xx_HAL_Driver/Src/stm32h7xx_hal_rcc.c ****         {
 1440              		.loc 1 829 15 is_stmt 0 view .LVU490
 1441 04ee 084B     		ldr	r3, .L153
 1442 04f0 1B68     		ldr	r3, [r3]
 829:Drivers/STM32H7xx_HAL_Driver/Src/stm32h7xx_hal_rcc.c ****         {
 1443              		.loc 1 829 14 view .LVU491
 1444 04f2 13F0007F 		tst	r3, #33554432
 1445 04f6 06D1     		bne	.L150
 831:Drivers/STM32H7xx_HAL_Driver/Src/stm32h7xx_hal_rcc.c ****           {
 1446              		.loc 1 831 11 is_stmt 1 view .LVU492
 831:Drivers/STM32H7xx_HAL_Driver/Src/stm32h7xx_hal_rcc.c ****           {
 1447              		.loc 1 831 15 is_stmt 0 view .LVU493
 1448 04f8 FFF7FEFF 		bl	HAL_GetTick
 1449              	.LVL114:
 831:Drivers/STM32H7xx_HAL_Driver/Src/stm32h7xx_hal_rcc.c ****           {
 1450              		.loc 1 831 29 view .LVU494
 1451 04fc 001B     		subs	r0, r0, r4
 831:Drivers/STM32H7xx_HAL_Driver/Src/stm32h7xx_hal_rcc.c ****           {
 1452              		.loc 1 831 13 view .LVU495
 1453 04fe 0228     		cmp	r0, #2
ARM GAS  C:\Users\ADMINI~1\AppData\Local\Temp\cc7xIC5f.s 			page 45


 1454 0500 F5D9     		bls	.L97
 833:Drivers/STM32H7xx_HAL_Driver/Src/stm32h7xx_hal_rcc.c ****           }
 1455              		.loc 1 833 20 view .LVU496
 1456 0502 0320     		movs	r0, #3
 1457 0504 3EE0     		b	.L36
 1458              	.L150:
 851:Drivers/STM32H7xx_HAL_Driver/Src/stm32h7xx_hal_rcc.c ****           }
 852:Drivers/STM32H7xx_HAL_Driver/Src/stm32h7xx_hal_rcc.c ****         }
 853:Drivers/STM32H7xx_HAL_Driver/Src/stm32h7xx_hal_rcc.c ****       }
 854:Drivers/STM32H7xx_HAL_Driver/Src/stm32h7xx_hal_rcc.c ****     }
 855:Drivers/STM32H7xx_HAL_Driver/Src/stm32h7xx_hal_rcc.c ****     else
 856:Drivers/STM32H7xx_HAL_Driver/Src/stm32h7xx_hal_rcc.c ****     {
 857:Drivers/STM32H7xx_HAL_Driver/Src/stm32h7xx_hal_rcc.c ****       /* Do not return HAL_ERROR if request repeats the current configuration */
 858:Drivers/STM32H7xx_HAL_Driver/Src/stm32h7xx_hal_rcc.c ****       temp1_pllckcfg = RCC->PLLCKSELR;
 859:Drivers/STM32H7xx_HAL_Driver/Src/stm32h7xx_hal_rcc.c ****       temp2_pllckcfg = RCC->PLL1DIVR;
 860:Drivers/STM32H7xx_HAL_Driver/Src/stm32h7xx_hal_rcc.c ****       if(((RCC_OscInitStruct->PLL.PLLState) == RCC_PLL_OFF) ||
 861:Drivers/STM32H7xx_HAL_Driver/Src/stm32h7xx_hal_rcc.c **** 	 (READ_BIT(temp1_pllckcfg, RCC_PLLCKSELR_PLLSRC) != RCC_OscInitStruct->PLL.PLLSource) ||
 862:Drivers/STM32H7xx_HAL_Driver/Src/stm32h7xx_hal_rcc.c ****          ((READ_BIT(temp1_pllckcfg, RCC_PLLCKSELR_DIVM1) >> RCC_PLLCKSELR_DIVM1_Pos) != RCC_OscInit
 863:Drivers/STM32H7xx_HAL_Driver/Src/stm32h7xx_hal_rcc.c ****          (READ_BIT(temp2_pllckcfg, RCC_PLL1DIVR_N1) != (RCC_OscInitStruct->PLL.PLLN - 1U)) ||
 864:Drivers/STM32H7xx_HAL_Driver/Src/stm32h7xx_hal_rcc.c ****          ((READ_BIT(temp2_pllckcfg, RCC_PLL1DIVR_P1) >> RCC_PLL1DIVR_P1_Pos) != (RCC_OscInitStruct-
 865:Drivers/STM32H7xx_HAL_Driver/Src/stm32h7xx_hal_rcc.c ****          ((READ_BIT(temp2_pllckcfg, RCC_PLL1DIVR_Q1) >> RCC_PLL1DIVR_Q1_Pos) != (RCC_OscInitStruct-
 866:Drivers/STM32H7xx_HAL_Driver/Src/stm32h7xx_hal_rcc.c ****          ((READ_BIT(temp2_pllckcfg, RCC_PLL1DIVR_R1) >> RCC_PLL1DIVR_R1_Pos) != (RCC_OscInitStruct-
 867:Drivers/STM32H7xx_HAL_Driver/Src/stm32h7xx_hal_rcc.c ****       {
 868:Drivers/STM32H7xx_HAL_Driver/Src/stm32h7xx_hal_rcc.c ****         return HAL_ERROR;
 869:Drivers/STM32H7xx_HAL_Driver/Src/stm32h7xx_hal_rcc.c ****       }
 870:Drivers/STM32H7xx_HAL_Driver/Src/stm32h7xx_hal_rcc.c ****     }
 871:Drivers/STM32H7xx_HAL_Driver/Src/stm32h7xx_hal_rcc.c ****   }
 872:Drivers/STM32H7xx_HAL_Driver/Src/stm32h7xx_hal_rcc.c ****   return HAL_OK;
 1459              		.loc 1 872 10 view .LVU497
 1460 0506 0020     		movs	r0, #0
 1461 0508 3CE0     		b	.L36
 1462              	.L145:
 1463              		.loc 1 872 10 view .LVU498
 1464 050a 0020     		movs	r0, #0
 1465 050c 3AE0     		b	.L36
 1466              	.L154:
 1467 050e 00BF     		.align	2
 1468              	.L153:
 1469 0510 00440258 		.word	1476543488
 1470 0514 00480258 		.word	1476544512
 1471 0518 0CFCFFFF 		.word	-1012
 1472 051c 0700FFFF 		.word	-65529
 1473              	.LVL115:
 1474              	.L93:
 858:Drivers/STM32H7xx_HAL_Driver/Src/stm32h7xx_hal_rcc.c ****       temp2_pllckcfg = RCC->PLL1DIVR;
 1475              		.loc 1 858 7 is_stmt 1 view .LVU499
 858:Drivers/STM32H7xx_HAL_Driver/Src/stm32h7xx_hal_rcc.c ****       temp2_pllckcfg = RCC->PLL1DIVR;
 1476              		.loc 1 858 22 is_stmt 0 view .LVU500
 1477 0520 2049     		ldr	r1, .L155
 1478 0522 8A6A     		ldr	r2, [r1, #40]
 1479              	.LVL116:
 859:Drivers/STM32H7xx_HAL_Driver/Src/stm32h7xx_hal_rcc.c ****       if(((RCC_OscInitStruct->PLL.PLLState) == RCC_PLL_OFF) ||
 1480              		.loc 1 859 7 is_stmt 1 view .LVU501
 859:Drivers/STM32H7xx_HAL_Driver/Src/stm32h7xx_hal_rcc.c ****       if(((RCC_OscInitStruct->PLL.PLLState) == RCC_PLL_OFF) ||
 1481              		.loc 1 859 22 is_stmt 0 view .LVU502
 1482 0524 086B     		ldr	r0, [r1, #48]
 1483              	.LVL117:
ARM GAS  C:\Users\ADMINI~1\AppData\Local\Temp\cc7xIC5f.s 			page 46


 860:Drivers/STM32H7xx_HAL_Driver/Src/stm32h7xx_hal_rcc.c **** 	 (READ_BIT(temp1_pllckcfg, RCC_PLLCKSELR_PLLSRC) != RCC_OscInitStruct->PLL.PLLSource) ||
 1484              		.loc 1 860 7 is_stmt 1 view .LVU503
 860:Drivers/STM32H7xx_HAL_Driver/Src/stm32h7xx_hal_rcc.c **** 	 (READ_BIT(temp1_pllckcfg, RCC_PLLCKSELR_PLLSRC) != RCC_OscInitStruct->PLL.PLLSource) ||
 1485              		.loc 1 860 9 is_stmt 0 view .LVU504
 1486 0526 012B     		cmp	r3, #1
 1487 0528 2DD0     		beq	.L123
 861:Drivers/STM32H7xx_HAL_Driver/Src/stm32h7xx_hal_rcc.c ****          ((READ_BIT(temp1_pllckcfg, RCC_PLLCKSELR_DIVM1) >> RCC_PLLCKSELR_DIVM1_Pos) != RCC_OscInit
 1488              		.loc 1 861 4 discriminator 1 view .LVU505
 1489 052a 02F00303 		and	r3, r2, #3
 861:Drivers/STM32H7xx_HAL_Driver/Src/stm32h7xx_hal_rcc.c ****          ((READ_BIT(temp1_pllckcfg, RCC_PLLCKSELR_DIVM1) >> RCC_PLLCKSELR_DIVM1_Pos) != RCC_OscInit
 1490              		.loc 1 861 76 discriminator 1 view .LVU506
 1491 052e A16A     		ldr	r1, [r4, #40]
 860:Drivers/STM32H7xx_HAL_Driver/Src/stm32h7xx_hal_rcc.c **** 	 (READ_BIT(temp1_pllckcfg, RCC_PLLCKSELR_PLLSRC) != RCC_OscInitStruct->PLL.PLLSource) ||
 1492              		.loc 1 860 61 discriminator 1 view .LVU507
 1493 0530 8B42     		cmp	r3, r1
 1494 0532 2AD1     		bne	.L124
 862:Drivers/STM32H7xx_HAL_Driver/Src/stm32h7xx_hal_rcc.c ****          (READ_BIT(temp2_pllckcfg, RCC_PLL1DIVR_N1) != (RCC_OscInitStruct->PLL.PLLN - 1U)) ||
 1495              		.loc 1 862 58 view .LVU508
 1496 0534 C2F30512 		ubfx	r2, r2, #4, #6
 1497              	.LVL118:
 862:Drivers/STM32H7xx_HAL_Driver/Src/stm32h7xx_hal_rcc.c ****          (READ_BIT(temp2_pllckcfg, RCC_PLL1DIVR_N1) != (RCC_OscInitStruct->PLL.PLLN - 1U)) ||
 1498              		.loc 1 862 111 view .LVU509
 1499 0538 E36A     		ldr	r3, [r4, #44]
 861:Drivers/STM32H7xx_HAL_Driver/Src/stm32h7xx_hal_rcc.c ****          ((READ_BIT(temp1_pllckcfg, RCC_PLLCKSELR_DIVM1) >> RCC_PLLCKSELR_DIVM1_Pos) != RCC_OscInit
 1500              		.loc 1 861 88 view .LVU510
 1501 053a 9A42     		cmp	r2, r3
 1502 053c 27D1     		bne	.L125
 863:Drivers/STM32H7xx_HAL_Driver/Src/stm32h7xx_hal_rcc.c ****          ((READ_BIT(temp2_pllckcfg, RCC_PLL1DIVR_P1) >> RCC_PLL1DIVR_P1_Pos) != (RCC_OscInitStruct-
 1503              		.loc 1 863 11 view .LVU511
 1504 053e C0F30802 		ubfx	r2, r0, #0, #9
 863:Drivers/STM32H7xx_HAL_Driver/Src/stm32h7xx_hal_rcc.c ****          ((READ_BIT(temp2_pllckcfg, RCC_PLL1DIVR_P1) >> RCC_PLL1DIVR_P1_Pos) != (RCC_OscInitStruct-
 1505              		.loc 1 863 79 view .LVU512
 1506 0542 236B     		ldr	r3, [r4, #48]
 863:Drivers/STM32H7xx_HAL_Driver/Src/stm32h7xx_hal_rcc.c ****          ((READ_BIT(temp2_pllckcfg, RCC_PLL1DIVR_P1) >> RCC_PLL1DIVR_P1_Pos) != (RCC_OscInitStruct-
 1507              		.loc 1 863 85 view .LVU513
 1508 0544 013B     		subs	r3, r3, #1
 862:Drivers/STM32H7xx_HAL_Driver/Src/stm32h7xx_hal_rcc.c ****          (READ_BIT(temp2_pllckcfg, RCC_PLL1DIVR_N1) != (RCC_OscInitStruct->PLL.PLLN - 1U)) ||
 1509              		.loc 1 862 118 view .LVU514
 1510 0546 9A42     		cmp	r2, r3
 1511 0548 23D1     		bne	.L126
 864:Drivers/STM32H7xx_HAL_Driver/Src/stm32h7xx_hal_rcc.c ****          ((READ_BIT(temp2_pllckcfg, RCC_PLL1DIVR_Q1) >> RCC_PLL1DIVR_Q1_Pos) != (RCC_OscInitStruct-
 1512              		.loc 1 864 54 view .LVU515
 1513 054a C0F34622 		ubfx	r2, r0, #9, #7
 864:Drivers/STM32H7xx_HAL_Driver/Src/stm32h7xx_hal_rcc.c ****          ((READ_BIT(temp2_pllckcfg, RCC_PLL1DIVR_Q1) >> RCC_PLL1DIVR_Q1_Pos) != (RCC_OscInitStruct-
 1514              		.loc 1 864 104 view .LVU516
 1515 054e 636B     		ldr	r3, [r4, #52]
 864:Drivers/STM32H7xx_HAL_Driver/Src/stm32h7xx_hal_rcc.c ****          ((READ_BIT(temp2_pllckcfg, RCC_PLL1DIVR_Q1) >> RCC_PLL1DIVR_Q1_Pos) != (RCC_OscInitStruct-
 1516              		.loc 1 864 110 view .LVU517
 1517 0550 013B     		subs	r3, r3, #1
 863:Drivers/STM32H7xx_HAL_Driver/Src/stm32h7xx_hal_rcc.c ****          ((READ_BIT(temp2_pllckcfg, RCC_PLL1DIVR_P1) >> RCC_PLL1DIVR_P1_Pos) != (RCC_OscInitStruct-
 1518              		.loc 1 863 92 view .LVU518
 1519 0552 9A42     		cmp	r2, r3
 1520 0554 1FD1     		bne	.L127
 865:Drivers/STM32H7xx_HAL_Driver/Src/stm32h7xx_hal_rcc.c ****          ((READ_BIT(temp2_pllckcfg, RCC_PLL1DIVR_R1) >> RCC_PLL1DIVR_R1_Pos) != (RCC_OscInitStruct-
 1521              		.loc 1 865 54 view .LVU519
 1522 0556 C0F30642 		ubfx	r2, r0, #16, #7
 865:Drivers/STM32H7xx_HAL_Driver/Src/stm32h7xx_hal_rcc.c ****          ((READ_BIT(temp2_pllckcfg, RCC_PLL1DIVR_R1) >> RCC_PLL1DIVR_R1_Pos) != (RCC_OscInitStruct-
ARM GAS  C:\Users\ADMINI~1\AppData\Local\Temp\cc7xIC5f.s 			page 47


 1523              		.loc 1 865 104 view .LVU520
 1524 055a A36B     		ldr	r3, [r4, #56]
 865:Drivers/STM32H7xx_HAL_Driver/Src/stm32h7xx_hal_rcc.c ****          ((READ_BIT(temp2_pllckcfg, RCC_PLL1DIVR_R1) >> RCC_PLL1DIVR_R1_Pos) != (RCC_OscInitStruct-
 1525              		.loc 1 865 110 view .LVU521
 1526 055c 013B     		subs	r3, r3, #1
 864:Drivers/STM32H7xx_HAL_Driver/Src/stm32h7xx_hal_rcc.c ****          ((READ_BIT(temp2_pllckcfg, RCC_PLL1DIVR_Q1) >> RCC_PLL1DIVR_Q1_Pos) != (RCC_OscInitStruct-
 1527              		.loc 1 864 117 view .LVU522
 1528 055e 9A42     		cmp	r2, r3
 1529 0560 1BD1     		bne	.L128
 866:Drivers/STM32H7xx_HAL_Driver/Src/stm32h7xx_hal_rcc.c ****       {
 1530              		.loc 1 866 54 view .LVU523
 1531 0562 C0F30660 		ubfx	r0, r0, #24, #7
 1532              	.LVL119:
 866:Drivers/STM32H7xx_HAL_Driver/Src/stm32h7xx_hal_rcc.c ****       {
 1533              		.loc 1 866 104 view .LVU524
 1534 0566 E36B     		ldr	r3, [r4, #60]
 866:Drivers/STM32H7xx_HAL_Driver/Src/stm32h7xx_hal_rcc.c ****       {
 1535              		.loc 1 866 110 view .LVU525
 1536 0568 013B     		subs	r3, r3, #1
 865:Drivers/STM32H7xx_HAL_Driver/Src/stm32h7xx_hal_rcc.c ****          ((READ_BIT(temp2_pllckcfg, RCC_PLL1DIVR_R1) >> RCC_PLL1DIVR_R1_Pos) != (RCC_OscInitStruct-
 1537              		.loc 1 865 117 view .LVU526
 1538 056a 9842     		cmp	r0, r3
 1539 056c 17D1     		bne	.L129
 1540              		.loc 1 872 10 view .LVU527
 1541 056e 0020     		movs	r0, #0
 1542 0570 08E0     		b	.L36
 1543              	.LVL120:
 1544              	.L101:
 1545              	.LCFI2:
 1546              		.cfi_def_cfa_offset 0
 1547              		.cfi_restore 3
 1548              		.cfi_restore 4
 1549              		.cfi_restore 5
 1550              		.cfi_restore 14
 413:Drivers/STM32H7xx_HAL_Driver/Src/stm32h7xx_hal_rcc.c ****   }
 1551              		.loc 1 413 12 view .LVU528
 1552 0572 0120     		movs	r0, #1
 1553              	.LVL121:
 873:Drivers/STM32H7xx_HAL_Driver/Src/stm32h7xx_hal_rcc.c **** }
 1554              		.loc 1 873 1 view .LVU529
 1555 0574 7047     		bx	lr
 1556              	.LVL122:
 1557              	.L136:
 1558              	.LCFI3:
 1559              		.cfi_def_cfa_offset 16
 1560              		.cfi_offset 3, -16
 1561              		.cfi_offset 4, -12
 1562              		.cfi_offset 5, -8
 1563              		.cfi_offset 14, -4
 1564              	.LBB10:
 431:Drivers/STM32H7xx_HAL_Driver/Src/stm32h7xx_hal_rcc.c ****       }
 1565              		.loc 1 431 16 view .LVU530
 1566 0576 0120     		movs	r0, #1
 1567              	.LVL123:
 431:Drivers/STM32H7xx_HAL_Driver/Src/stm32h7xx_hal_rcc.c ****       }
 1568              		.loc 1 431 16 view .LVU531
 1569 0578 04E0     		b	.L36
ARM GAS  C:\Users\ADMINI~1\AppData\Local\Temp\cc7xIC5f.s 			page 48


 1570              	.LVL124:
 1571              	.L105:
 431:Drivers/STM32H7xx_HAL_Driver/Src/stm32h7xx_hal_rcc.c ****       }
 1572              		.loc 1 431 16 view .LVU532
 1573              	.LBE10:
 1574              	.LBB11:
 485:Drivers/STM32H7xx_HAL_Driver/Src/stm32h7xx_hal_rcc.c ****       }
 1575              		.loc 1 485 16 view .LVU533
 1576 057a 0120     		movs	r0, #1
 1577 057c 02E0     		b	.L36
 1578              	.LVL125:
 1579              	.L109:
 485:Drivers/STM32H7xx_HAL_Driver/Src/stm32h7xx_hal_rcc.c ****       }
 1580              		.loc 1 485 16 view .LVU534
 1581              	.LBE11:
 1582              	.LBB12:
 566:Drivers/STM32H7xx_HAL_Driver/Src/stm32h7xx_hal_rcc.c ****       }
 1583              		.loc 1 566 16 view .LVU535
 1584 057e 0120     		movs	r0, #1
 1585 0580 00E0     		b	.L36
 1586              	.L119:
 566:Drivers/STM32H7xx_HAL_Driver/Src/stm32h7xx_hal_rcc.c ****       }
 1587              		.loc 1 566 16 view .LVU536
 1588              	.LBE12:
 872:Drivers/STM32H7xx_HAL_Driver/Src/stm32h7xx_hal_rcc.c **** }
 1589              		.loc 1 872 10 view .LVU537
 1590 0582 0020     		movs	r0, #0
 1591              	.LVL126:
 1592              	.L36:
 1593              		.loc 1 873 1 view .LVU538
 1594 0584 38BD     		pop	{r3, r4, r5, pc}
 1595              	.LVL127:
 1596              	.L123:
 868:Drivers/STM32H7xx_HAL_Driver/Src/stm32h7xx_hal_rcc.c ****       }
 1597              		.loc 1 868 16 view .LVU539
 1598 0586 0120     		movs	r0, #1
 1599              	.LVL128:
 868:Drivers/STM32H7xx_HAL_Driver/Src/stm32h7xx_hal_rcc.c ****       }
 1600              		.loc 1 868 16 view .LVU540
 1601 0588 FCE7     		b	.L36
 1602              	.LVL129:
 1603              	.L124:
 868:Drivers/STM32H7xx_HAL_Driver/Src/stm32h7xx_hal_rcc.c ****       }
 1604              		.loc 1 868 16 view .LVU541
 1605 058a 0120     		movs	r0, #1
 1606              	.LVL130:
 868:Drivers/STM32H7xx_HAL_Driver/Src/stm32h7xx_hal_rcc.c ****       }
 1607              		.loc 1 868 16 view .LVU542
 1608 058c FAE7     		b	.L36
 1609              	.LVL131:
 1610              	.L125:
 868:Drivers/STM32H7xx_HAL_Driver/Src/stm32h7xx_hal_rcc.c ****       }
 1611              		.loc 1 868 16 view .LVU543
 1612 058e 0120     		movs	r0, #1
 1613              	.LVL132:
 868:Drivers/STM32H7xx_HAL_Driver/Src/stm32h7xx_hal_rcc.c ****       }
 1614              		.loc 1 868 16 view .LVU544
ARM GAS  C:\Users\ADMINI~1\AppData\Local\Temp\cc7xIC5f.s 			page 49


 1615 0590 F8E7     		b	.L36
 1616              	.LVL133:
 1617              	.L126:
 868:Drivers/STM32H7xx_HAL_Driver/Src/stm32h7xx_hal_rcc.c ****       }
 1618              		.loc 1 868 16 view .LVU545
 1619 0592 0120     		movs	r0, #1
 1620              	.LVL134:
 868:Drivers/STM32H7xx_HAL_Driver/Src/stm32h7xx_hal_rcc.c ****       }
 1621              		.loc 1 868 16 view .LVU546
 1622 0594 F6E7     		b	.L36
 1623              	.LVL135:
 1624              	.L127:
 868:Drivers/STM32H7xx_HAL_Driver/Src/stm32h7xx_hal_rcc.c ****       }
 1625              		.loc 1 868 16 view .LVU547
 1626 0596 0120     		movs	r0, #1
 1627              	.LVL136:
 868:Drivers/STM32H7xx_HAL_Driver/Src/stm32h7xx_hal_rcc.c ****       }
 1628              		.loc 1 868 16 view .LVU548
 1629 0598 F4E7     		b	.L36
 1630              	.LVL137:
 1631              	.L128:
 868:Drivers/STM32H7xx_HAL_Driver/Src/stm32h7xx_hal_rcc.c ****       }
 1632              		.loc 1 868 16 view .LVU549
 1633 059a 0120     		movs	r0, #1
 1634              	.LVL138:
 868:Drivers/STM32H7xx_HAL_Driver/Src/stm32h7xx_hal_rcc.c ****       }
 1635              		.loc 1 868 16 view .LVU550
 1636 059c F2E7     		b	.L36
 1637              	.L129:
 1638 059e 0120     		movs	r0, #1
 1639 05a0 F0E7     		b	.L36
 1640              	.L156:
 1641 05a2 00BF     		.align	2
 1642              	.L155:
 1643 05a4 00440258 		.word	1476543488
 1644              		.cfi_endproc
 1645              	.LFE145:
 1647              		.section	.text.HAL_RCC_MCOConfig,"ax",%progbits
 1648              		.align	1
 1649              		.global	HAL_RCC_MCOConfig
 1650              		.syntax unified
 1651              		.thumb
 1652              		.thumb_func
 1653              		.fpu fpv5-d16
 1655              	HAL_RCC_MCOConfig:
 1656              	.LVL139:
 1657              	.LFB147:
 874:Drivers/STM32H7xx_HAL_Driver/Src/stm32h7xx_hal_rcc.c **** 
 875:Drivers/STM32H7xx_HAL_Driver/Src/stm32h7xx_hal_rcc.c **** /**
 876:Drivers/STM32H7xx_HAL_Driver/Src/stm32h7xx_hal_rcc.c ****   * @brief  Initializes the CPU, AHB and APB buses clocks according to the specified
 877:Drivers/STM32H7xx_HAL_Driver/Src/stm32h7xx_hal_rcc.c ****   *         parameters in the RCC_ClkInitStruct.
 878:Drivers/STM32H7xx_HAL_Driver/Src/stm32h7xx_hal_rcc.c ****   * @param  RCC_ClkInitStruct: pointer to an RCC_OscInitTypeDef structure that
 879:Drivers/STM32H7xx_HAL_Driver/Src/stm32h7xx_hal_rcc.c ****   *         contains the configuration information for the RCC peripheral.
 880:Drivers/STM32H7xx_HAL_Driver/Src/stm32h7xx_hal_rcc.c ****   * @param  FLatency: FLASH Latency, this parameter depend on device selected
 881:Drivers/STM32H7xx_HAL_Driver/Src/stm32h7xx_hal_rcc.c ****   *
 882:Drivers/STM32H7xx_HAL_Driver/Src/stm32h7xx_hal_rcc.c ****   * @note   The SystemCoreClock CMSIS variable is used to store System Core Clock Frequency
 883:Drivers/STM32H7xx_HAL_Driver/Src/stm32h7xx_hal_rcc.c ****   *         and updated by HAL_InitTick() function called within this function
ARM GAS  C:\Users\ADMINI~1\AppData\Local\Temp\cc7xIC5f.s 			page 50


 884:Drivers/STM32H7xx_HAL_Driver/Src/stm32h7xx_hal_rcc.c ****   *
 885:Drivers/STM32H7xx_HAL_Driver/Src/stm32h7xx_hal_rcc.c ****   * @note   The HSI is used (enabled by hardware) as system clock source after
 886:Drivers/STM32H7xx_HAL_Driver/Src/stm32h7xx_hal_rcc.c ****   *         start-up from Reset, wake-up from STOP and STANDBY mode, or in case
 887:Drivers/STM32H7xx_HAL_Driver/Src/stm32h7xx_hal_rcc.c ****   *         of failure of the HSE used directly or indirectly as system clock
 888:Drivers/STM32H7xx_HAL_Driver/Src/stm32h7xx_hal_rcc.c ****   *         (if the Clock Security System CSS is enabled).
 889:Drivers/STM32H7xx_HAL_Driver/Src/stm32h7xx_hal_rcc.c ****   *
 890:Drivers/STM32H7xx_HAL_Driver/Src/stm32h7xx_hal_rcc.c ****   * @note   A switch from one clock source to another occurs only if the target
 891:Drivers/STM32H7xx_HAL_Driver/Src/stm32h7xx_hal_rcc.c ****   *         clock source is ready (clock stable after start-up delay or PLL locked).
 892:Drivers/STM32H7xx_HAL_Driver/Src/stm32h7xx_hal_rcc.c ****   *         If a clock source which is not yet ready is selected, the switch will
 893:Drivers/STM32H7xx_HAL_Driver/Src/stm32h7xx_hal_rcc.c ****   *         occur when the clock source will be ready.
 894:Drivers/STM32H7xx_HAL_Driver/Src/stm32h7xx_hal_rcc.c ****   *         You can use HAL_RCC_GetClockConfig() function to know which clock is
 895:Drivers/STM32H7xx_HAL_Driver/Src/stm32h7xx_hal_rcc.c ****   *         currently used as system clock source.
 896:Drivers/STM32H7xx_HAL_Driver/Src/stm32h7xx_hal_rcc.c ****   * @note   Depending on the device voltage range, the software has to set correctly
 897:Drivers/STM32H7xx_HAL_Driver/Src/stm32h7xx_hal_rcc.c ****   *         D1CPRE[3:0] bits to ensure that  Domain1 core clock not exceed the maximum allowed freq
 898:Drivers/STM32H7xx_HAL_Driver/Src/stm32h7xx_hal_rcc.c ****   *         (for more details refer to section above "Initialization/de-initialization functions")
 899:Drivers/STM32H7xx_HAL_Driver/Src/stm32h7xx_hal_rcc.c ****   * @retval None
 900:Drivers/STM32H7xx_HAL_Driver/Src/stm32h7xx_hal_rcc.c ****   */
 901:Drivers/STM32H7xx_HAL_Driver/Src/stm32h7xx_hal_rcc.c **** HAL_StatusTypeDef HAL_RCC_ClockConfig(RCC_ClkInitTypeDef  *RCC_ClkInitStruct, uint32_t FLatency)
 902:Drivers/STM32H7xx_HAL_Driver/Src/stm32h7xx_hal_rcc.c **** {
 903:Drivers/STM32H7xx_HAL_Driver/Src/stm32h7xx_hal_rcc.c ****   HAL_StatusTypeDef halstatus;
 904:Drivers/STM32H7xx_HAL_Driver/Src/stm32h7xx_hal_rcc.c ****   uint32_t tickstart;
 905:Drivers/STM32H7xx_HAL_Driver/Src/stm32h7xx_hal_rcc.c ****   uint32_t common_system_clock;
 906:Drivers/STM32H7xx_HAL_Driver/Src/stm32h7xx_hal_rcc.c **** 
 907:Drivers/STM32H7xx_HAL_Driver/Src/stm32h7xx_hal_rcc.c ****    /* Check Null pointer */
 908:Drivers/STM32H7xx_HAL_Driver/Src/stm32h7xx_hal_rcc.c ****   if(RCC_ClkInitStruct == NULL)
 909:Drivers/STM32H7xx_HAL_Driver/Src/stm32h7xx_hal_rcc.c ****   {
 910:Drivers/STM32H7xx_HAL_Driver/Src/stm32h7xx_hal_rcc.c ****     return HAL_ERROR;
 911:Drivers/STM32H7xx_HAL_Driver/Src/stm32h7xx_hal_rcc.c ****   }
 912:Drivers/STM32H7xx_HAL_Driver/Src/stm32h7xx_hal_rcc.c **** 
 913:Drivers/STM32H7xx_HAL_Driver/Src/stm32h7xx_hal_rcc.c ****   /* Check the parameters */
 914:Drivers/STM32H7xx_HAL_Driver/Src/stm32h7xx_hal_rcc.c ****   assert_param(IS_RCC_CLOCKTYPE(RCC_ClkInitStruct->ClockType));
 915:Drivers/STM32H7xx_HAL_Driver/Src/stm32h7xx_hal_rcc.c ****   assert_param(IS_FLASH_LATENCY(FLatency));
 916:Drivers/STM32H7xx_HAL_Driver/Src/stm32h7xx_hal_rcc.c **** 
 917:Drivers/STM32H7xx_HAL_Driver/Src/stm32h7xx_hal_rcc.c ****   /* To correctly read data from FLASH memory, the number of wait states (LATENCY)
 918:Drivers/STM32H7xx_HAL_Driver/Src/stm32h7xx_hal_rcc.c ****     must be correctly programmed according to the frequency of the CPU clock
 919:Drivers/STM32H7xx_HAL_Driver/Src/stm32h7xx_hal_rcc.c ****     (HCLK) and the supply voltage of the device. */
 920:Drivers/STM32H7xx_HAL_Driver/Src/stm32h7xx_hal_rcc.c **** 
 921:Drivers/STM32H7xx_HAL_Driver/Src/stm32h7xx_hal_rcc.c ****   /* Increasing the CPU frequency */
 922:Drivers/STM32H7xx_HAL_Driver/Src/stm32h7xx_hal_rcc.c ****   if(FLatency > __HAL_FLASH_GET_LATENCY())
 923:Drivers/STM32H7xx_HAL_Driver/Src/stm32h7xx_hal_rcc.c ****   {
 924:Drivers/STM32H7xx_HAL_Driver/Src/stm32h7xx_hal_rcc.c ****     /* Program the new number of wait states to the LATENCY bits in the FLASH_ACR register */
 925:Drivers/STM32H7xx_HAL_Driver/Src/stm32h7xx_hal_rcc.c ****     __HAL_FLASH_SET_LATENCY(FLatency);
 926:Drivers/STM32H7xx_HAL_Driver/Src/stm32h7xx_hal_rcc.c **** 
 927:Drivers/STM32H7xx_HAL_Driver/Src/stm32h7xx_hal_rcc.c ****     /* Check that the new number of wait states is taken into account to access the Flash
 928:Drivers/STM32H7xx_HAL_Driver/Src/stm32h7xx_hal_rcc.c ****     memory by reading the FLASH_ACR register */
 929:Drivers/STM32H7xx_HAL_Driver/Src/stm32h7xx_hal_rcc.c ****     if(__HAL_FLASH_GET_LATENCY() != FLatency)
 930:Drivers/STM32H7xx_HAL_Driver/Src/stm32h7xx_hal_rcc.c ****     {
 931:Drivers/STM32H7xx_HAL_Driver/Src/stm32h7xx_hal_rcc.c ****       return HAL_ERROR;
 932:Drivers/STM32H7xx_HAL_Driver/Src/stm32h7xx_hal_rcc.c ****     }
 933:Drivers/STM32H7xx_HAL_Driver/Src/stm32h7xx_hal_rcc.c **** 
 934:Drivers/STM32H7xx_HAL_Driver/Src/stm32h7xx_hal_rcc.c ****   }
 935:Drivers/STM32H7xx_HAL_Driver/Src/stm32h7xx_hal_rcc.c **** 
 936:Drivers/STM32H7xx_HAL_Driver/Src/stm32h7xx_hal_rcc.c ****   /* Increasing the BUS frequency divider */
 937:Drivers/STM32H7xx_HAL_Driver/Src/stm32h7xx_hal_rcc.c ****   /*-------------------------- D1PCLK1/CDPCLK1 Configuration ---------------------------*/
 938:Drivers/STM32H7xx_HAL_Driver/Src/stm32h7xx_hal_rcc.c ****   if(((RCC_ClkInitStruct->ClockType) & RCC_CLOCKTYPE_D1PCLK1) == RCC_CLOCKTYPE_D1PCLK1)
 939:Drivers/STM32H7xx_HAL_Driver/Src/stm32h7xx_hal_rcc.c ****   {
 940:Drivers/STM32H7xx_HAL_Driver/Src/stm32h7xx_hal_rcc.c **** #if defined (RCC_D1CFGR_D1PPRE)
ARM GAS  C:\Users\ADMINI~1\AppData\Local\Temp\cc7xIC5f.s 			page 51


 941:Drivers/STM32H7xx_HAL_Driver/Src/stm32h7xx_hal_rcc.c ****     if((RCC_ClkInitStruct->APB3CLKDivider) > (RCC->D1CFGR & RCC_D1CFGR_D1PPRE))
 942:Drivers/STM32H7xx_HAL_Driver/Src/stm32h7xx_hal_rcc.c ****     {
 943:Drivers/STM32H7xx_HAL_Driver/Src/stm32h7xx_hal_rcc.c ****       assert_param(IS_RCC_D1PCLK1(RCC_ClkInitStruct->APB3CLKDivider));
 944:Drivers/STM32H7xx_HAL_Driver/Src/stm32h7xx_hal_rcc.c ****       MODIFY_REG(RCC->D1CFGR, RCC_D1CFGR_D1PPRE, RCC_ClkInitStruct->APB3CLKDivider);
 945:Drivers/STM32H7xx_HAL_Driver/Src/stm32h7xx_hal_rcc.c ****     }
 946:Drivers/STM32H7xx_HAL_Driver/Src/stm32h7xx_hal_rcc.c **** #else
 947:Drivers/STM32H7xx_HAL_Driver/Src/stm32h7xx_hal_rcc.c ****     if((RCC_ClkInitStruct->APB3CLKDivider) > (RCC->CDCFGR1 & RCC_CDCFGR1_CDPPRE))
 948:Drivers/STM32H7xx_HAL_Driver/Src/stm32h7xx_hal_rcc.c ****     {
 949:Drivers/STM32H7xx_HAL_Driver/Src/stm32h7xx_hal_rcc.c ****       assert_param(IS_RCC_CDPCLK1(RCC_ClkInitStruct->APB3CLKDivider));
 950:Drivers/STM32H7xx_HAL_Driver/Src/stm32h7xx_hal_rcc.c ****       MODIFY_REG(RCC->CDCFGR1, RCC_CDCFGR1_CDPPRE, RCC_ClkInitStruct->APB3CLKDivider);
 951:Drivers/STM32H7xx_HAL_Driver/Src/stm32h7xx_hal_rcc.c ****     }
 952:Drivers/STM32H7xx_HAL_Driver/Src/stm32h7xx_hal_rcc.c **** #endif
 953:Drivers/STM32H7xx_HAL_Driver/Src/stm32h7xx_hal_rcc.c ****   }
 954:Drivers/STM32H7xx_HAL_Driver/Src/stm32h7xx_hal_rcc.c **** 
 955:Drivers/STM32H7xx_HAL_Driver/Src/stm32h7xx_hal_rcc.c ****   /*-------------------------- PCLK1 Configuration ---------------------------*/
 956:Drivers/STM32H7xx_HAL_Driver/Src/stm32h7xx_hal_rcc.c ****   if(((RCC_ClkInitStruct->ClockType) & RCC_CLOCKTYPE_PCLK1) == RCC_CLOCKTYPE_PCLK1)
 957:Drivers/STM32H7xx_HAL_Driver/Src/stm32h7xx_hal_rcc.c ****   {
 958:Drivers/STM32H7xx_HAL_Driver/Src/stm32h7xx_hal_rcc.c **** #if defined (RCC_D2CFGR_D2PPRE1)
 959:Drivers/STM32H7xx_HAL_Driver/Src/stm32h7xx_hal_rcc.c ****     if((RCC_ClkInitStruct->APB1CLKDivider) > (RCC->D2CFGR & RCC_D2CFGR_D2PPRE1))
 960:Drivers/STM32H7xx_HAL_Driver/Src/stm32h7xx_hal_rcc.c ****     {
 961:Drivers/STM32H7xx_HAL_Driver/Src/stm32h7xx_hal_rcc.c ****       assert_param(IS_RCC_PCLK1(RCC_ClkInitStruct->APB1CLKDivider));
 962:Drivers/STM32H7xx_HAL_Driver/Src/stm32h7xx_hal_rcc.c ****       MODIFY_REG(RCC->D2CFGR, RCC_D2CFGR_D2PPRE1, (RCC_ClkInitStruct->APB1CLKDivider));
 963:Drivers/STM32H7xx_HAL_Driver/Src/stm32h7xx_hal_rcc.c ****     }
 964:Drivers/STM32H7xx_HAL_Driver/Src/stm32h7xx_hal_rcc.c **** #else
 965:Drivers/STM32H7xx_HAL_Driver/Src/stm32h7xx_hal_rcc.c ****     if((RCC_ClkInitStruct->APB1CLKDivider) > (RCC->CDCFGR2 & RCC_CDCFGR2_CDPPRE1))
 966:Drivers/STM32H7xx_HAL_Driver/Src/stm32h7xx_hal_rcc.c ****     {
 967:Drivers/STM32H7xx_HAL_Driver/Src/stm32h7xx_hal_rcc.c ****       assert_param(IS_RCC_PCLK1(RCC_ClkInitStruct->APB1CLKDivider));
 968:Drivers/STM32H7xx_HAL_Driver/Src/stm32h7xx_hal_rcc.c ****       MODIFY_REG(RCC->CDCFGR2, RCC_CDCFGR2_CDPPRE1, (RCC_ClkInitStruct->APB1CLKDivider));
 969:Drivers/STM32H7xx_HAL_Driver/Src/stm32h7xx_hal_rcc.c ****   }
 970:Drivers/STM32H7xx_HAL_Driver/Src/stm32h7xx_hal_rcc.c **** #endif
 971:Drivers/STM32H7xx_HAL_Driver/Src/stm32h7xx_hal_rcc.c ****     }
 972:Drivers/STM32H7xx_HAL_Driver/Src/stm32h7xx_hal_rcc.c ****   /*-------------------------- PCLK2 Configuration ---------------------------*/
 973:Drivers/STM32H7xx_HAL_Driver/Src/stm32h7xx_hal_rcc.c ****   if(((RCC_ClkInitStruct->ClockType) & RCC_CLOCKTYPE_PCLK2) == RCC_CLOCKTYPE_PCLK2)
 974:Drivers/STM32H7xx_HAL_Driver/Src/stm32h7xx_hal_rcc.c ****   {
 975:Drivers/STM32H7xx_HAL_Driver/Src/stm32h7xx_hal_rcc.c **** #if defined(RCC_D2CFGR_D2PPRE2)
 976:Drivers/STM32H7xx_HAL_Driver/Src/stm32h7xx_hal_rcc.c ****     if((RCC_ClkInitStruct->APB2CLKDivider) > (RCC->D2CFGR & RCC_D2CFGR_D2PPRE2))
 977:Drivers/STM32H7xx_HAL_Driver/Src/stm32h7xx_hal_rcc.c ****     {
 978:Drivers/STM32H7xx_HAL_Driver/Src/stm32h7xx_hal_rcc.c ****       assert_param(IS_RCC_PCLK2(RCC_ClkInitStruct->APB2CLKDivider));
 979:Drivers/STM32H7xx_HAL_Driver/Src/stm32h7xx_hal_rcc.c ****       MODIFY_REG(RCC->D2CFGR, RCC_D2CFGR_D2PPRE2, (RCC_ClkInitStruct->APB2CLKDivider));
 980:Drivers/STM32H7xx_HAL_Driver/Src/stm32h7xx_hal_rcc.c ****     }
 981:Drivers/STM32H7xx_HAL_Driver/Src/stm32h7xx_hal_rcc.c **** #else
 982:Drivers/STM32H7xx_HAL_Driver/Src/stm32h7xx_hal_rcc.c ****      if((RCC_ClkInitStruct->APB2CLKDivider) > (RCC->CDCFGR2 & RCC_CDCFGR2_CDPPRE2))
 983:Drivers/STM32H7xx_HAL_Driver/Src/stm32h7xx_hal_rcc.c ****     {
 984:Drivers/STM32H7xx_HAL_Driver/Src/stm32h7xx_hal_rcc.c ****       assert_param(IS_RCC_PCLK2(RCC_ClkInitStruct->APB2CLKDivider));
 985:Drivers/STM32H7xx_HAL_Driver/Src/stm32h7xx_hal_rcc.c ****       MODIFY_REG(RCC->CDCFGR2, RCC_CDCFGR2_CDPPRE2, (RCC_ClkInitStruct->APB2CLKDivider));
 986:Drivers/STM32H7xx_HAL_Driver/Src/stm32h7xx_hal_rcc.c ****     }
 987:Drivers/STM32H7xx_HAL_Driver/Src/stm32h7xx_hal_rcc.c **** #endif
 988:Drivers/STM32H7xx_HAL_Driver/Src/stm32h7xx_hal_rcc.c ****   }
 989:Drivers/STM32H7xx_HAL_Driver/Src/stm32h7xx_hal_rcc.c **** 
 990:Drivers/STM32H7xx_HAL_Driver/Src/stm32h7xx_hal_rcc.c ****   /*-------------------------- D3PCLK1 Configuration ---------------------------*/
 991:Drivers/STM32H7xx_HAL_Driver/Src/stm32h7xx_hal_rcc.c ****   if(((RCC_ClkInitStruct->ClockType) & RCC_CLOCKTYPE_D3PCLK1) == RCC_CLOCKTYPE_D3PCLK1)
 992:Drivers/STM32H7xx_HAL_Driver/Src/stm32h7xx_hal_rcc.c ****   {
 993:Drivers/STM32H7xx_HAL_Driver/Src/stm32h7xx_hal_rcc.c **** #if defined(RCC_D3CFGR_D3PPRE)
 994:Drivers/STM32H7xx_HAL_Driver/Src/stm32h7xx_hal_rcc.c ****     if((RCC_ClkInitStruct->APB4CLKDivider) > (RCC->D3CFGR & RCC_D3CFGR_D3PPRE))
 995:Drivers/STM32H7xx_HAL_Driver/Src/stm32h7xx_hal_rcc.c ****     {
 996:Drivers/STM32H7xx_HAL_Driver/Src/stm32h7xx_hal_rcc.c ****       assert_param(IS_RCC_D3PCLK1(RCC_ClkInitStruct->APB4CLKDivider));
 997:Drivers/STM32H7xx_HAL_Driver/Src/stm32h7xx_hal_rcc.c ****       MODIFY_REG(RCC->D3CFGR, RCC_D3CFGR_D3PPRE, (RCC_ClkInitStruct->APB4CLKDivider) );
ARM GAS  C:\Users\ADMINI~1\AppData\Local\Temp\cc7xIC5f.s 			page 52


 998:Drivers/STM32H7xx_HAL_Driver/Src/stm32h7xx_hal_rcc.c ****     }
 999:Drivers/STM32H7xx_HAL_Driver/Src/stm32h7xx_hal_rcc.c **** #else
1000:Drivers/STM32H7xx_HAL_Driver/Src/stm32h7xx_hal_rcc.c ****     if((RCC_ClkInitStruct->APB4CLKDivider) > (RCC->SRDCFGR & RCC_SRDCFGR_SRDPPRE))
1001:Drivers/STM32H7xx_HAL_Driver/Src/stm32h7xx_hal_rcc.c ****     {
1002:Drivers/STM32H7xx_HAL_Driver/Src/stm32h7xx_hal_rcc.c ****       assert_param(IS_RCC_D3PCLK1(RCC_ClkInitStruct->APB4CLKDivider));
1003:Drivers/STM32H7xx_HAL_Driver/Src/stm32h7xx_hal_rcc.c ****       MODIFY_REG(RCC->SRDCFGR, RCC_SRDCFGR_SRDPPRE, (RCC_ClkInitStruct->APB4CLKDivider) );
1004:Drivers/STM32H7xx_HAL_Driver/Src/stm32h7xx_hal_rcc.c ****     }
1005:Drivers/STM32H7xx_HAL_Driver/Src/stm32h7xx_hal_rcc.c **** #endif
1006:Drivers/STM32H7xx_HAL_Driver/Src/stm32h7xx_hal_rcc.c ****   }
1007:Drivers/STM32H7xx_HAL_Driver/Src/stm32h7xx_hal_rcc.c **** 
1008:Drivers/STM32H7xx_HAL_Driver/Src/stm32h7xx_hal_rcc.c ****    /*-------------------------- HCLK Configuration --------------------------*/
1009:Drivers/STM32H7xx_HAL_Driver/Src/stm32h7xx_hal_rcc.c ****   if(((RCC_ClkInitStruct->ClockType) & RCC_CLOCKTYPE_HCLK) == RCC_CLOCKTYPE_HCLK)
1010:Drivers/STM32H7xx_HAL_Driver/Src/stm32h7xx_hal_rcc.c ****   {
1011:Drivers/STM32H7xx_HAL_Driver/Src/stm32h7xx_hal_rcc.c **** #if defined (RCC_D1CFGR_HPRE)
1012:Drivers/STM32H7xx_HAL_Driver/Src/stm32h7xx_hal_rcc.c ****     if((RCC_ClkInitStruct->AHBCLKDivider) > (RCC->D1CFGR & RCC_D1CFGR_HPRE))
1013:Drivers/STM32H7xx_HAL_Driver/Src/stm32h7xx_hal_rcc.c ****     {
1014:Drivers/STM32H7xx_HAL_Driver/Src/stm32h7xx_hal_rcc.c ****       /* Set the new HCLK clock divider */
1015:Drivers/STM32H7xx_HAL_Driver/Src/stm32h7xx_hal_rcc.c ****       assert_param(IS_RCC_HCLK(RCC_ClkInitStruct->AHBCLKDivider));
1016:Drivers/STM32H7xx_HAL_Driver/Src/stm32h7xx_hal_rcc.c ****       MODIFY_REG(RCC->D1CFGR, RCC_D1CFGR_HPRE, RCC_ClkInitStruct->AHBCLKDivider);
1017:Drivers/STM32H7xx_HAL_Driver/Src/stm32h7xx_hal_rcc.c ****     }
1018:Drivers/STM32H7xx_HAL_Driver/Src/stm32h7xx_hal_rcc.c **** #else
1019:Drivers/STM32H7xx_HAL_Driver/Src/stm32h7xx_hal_rcc.c ****         if((RCC_ClkInitStruct->AHBCLKDivider) > (RCC->CDCFGR1 & RCC_CDCFGR1_HPRE))
1020:Drivers/STM32H7xx_HAL_Driver/Src/stm32h7xx_hal_rcc.c ****     {
1021:Drivers/STM32H7xx_HAL_Driver/Src/stm32h7xx_hal_rcc.c ****       /* Set the new HCLK clock divider */
1022:Drivers/STM32H7xx_HAL_Driver/Src/stm32h7xx_hal_rcc.c ****       assert_param(IS_RCC_HCLK(RCC_ClkInitStruct->AHBCLKDivider));
1023:Drivers/STM32H7xx_HAL_Driver/Src/stm32h7xx_hal_rcc.c ****       MODIFY_REG(RCC->CDCFGR1, RCC_CDCFGR1_HPRE, RCC_ClkInitStruct->AHBCLKDivider);
1024:Drivers/STM32H7xx_HAL_Driver/Src/stm32h7xx_hal_rcc.c ****     }
1025:Drivers/STM32H7xx_HAL_Driver/Src/stm32h7xx_hal_rcc.c **** #endif
1026:Drivers/STM32H7xx_HAL_Driver/Src/stm32h7xx_hal_rcc.c ****   }
1027:Drivers/STM32H7xx_HAL_Driver/Src/stm32h7xx_hal_rcc.c **** 
1028:Drivers/STM32H7xx_HAL_Driver/Src/stm32h7xx_hal_rcc.c ****     /*------------------------- SYSCLK Configuration -------------------------*/
1029:Drivers/STM32H7xx_HAL_Driver/Src/stm32h7xx_hal_rcc.c ****     if(((RCC_ClkInitStruct->ClockType) & RCC_CLOCKTYPE_SYSCLK) == RCC_CLOCKTYPE_SYSCLK)
1030:Drivers/STM32H7xx_HAL_Driver/Src/stm32h7xx_hal_rcc.c ****     {
1031:Drivers/STM32H7xx_HAL_Driver/Src/stm32h7xx_hal_rcc.c ****       assert_param(IS_RCC_SYSCLK(RCC_ClkInitStruct->SYSCLKDivider));
1032:Drivers/STM32H7xx_HAL_Driver/Src/stm32h7xx_hal_rcc.c ****       assert_param(IS_RCC_SYSCLKSOURCE(RCC_ClkInitStruct->SYSCLKSource));
1033:Drivers/STM32H7xx_HAL_Driver/Src/stm32h7xx_hal_rcc.c **** #if defined(RCC_D1CFGR_D1CPRE)
1034:Drivers/STM32H7xx_HAL_Driver/Src/stm32h7xx_hal_rcc.c ****       MODIFY_REG(RCC->D1CFGR, RCC_D1CFGR_D1CPRE, RCC_ClkInitStruct->SYSCLKDivider);
1035:Drivers/STM32H7xx_HAL_Driver/Src/stm32h7xx_hal_rcc.c **** #else
1036:Drivers/STM32H7xx_HAL_Driver/Src/stm32h7xx_hal_rcc.c ****       MODIFY_REG(RCC->CDCFGR1, RCC_CDCFGR1_CDCPRE, RCC_ClkInitStruct->SYSCLKDivider);
1037:Drivers/STM32H7xx_HAL_Driver/Src/stm32h7xx_hal_rcc.c **** #endif
1038:Drivers/STM32H7xx_HAL_Driver/Src/stm32h7xx_hal_rcc.c ****       /* HSE is selected as System Clock Source */
1039:Drivers/STM32H7xx_HAL_Driver/Src/stm32h7xx_hal_rcc.c ****       if(RCC_ClkInitStruct->SYSCLKSource == RCC_SYSCLKSOURCE_HSE)
1040:Drivers/STM32H7xx_HAL_Driver/Src/stm32h7xx_hal_rcc.c ****       {
1041:Drivers/STM32H7xx_HAL_Driver/Src/stm32h7xx_hal_rcc.c ****         /* Check the HSE ready flag */
1042:Drivers/STM32H7xx_HAL_Driver/Src/stm32h7xx_hal_rcc.c ****         if(__HAL_RCC_GET_FLAG(RCC_FLAG_HSERDY) == 0U)
1043:Drivers/STM32H7xx_HAL_Driver/Src/stm32h7xx_hal_rcc.c ****         {
1044:Drivers/STM32H7xx_HAL_Driver/Src/stm32h7xx_hal_rcc.c ****           return HAL_ERROR;
1045:Drivers/STM32H7xx_HAL_Driver/Src/stm32h7xx_hal_rcc.c ****         }
1046:Drivers/STM32H7xx_HAL_Driver/Src/stm32h7xx_hal_rcc.c ****       }
1047:Drivers/STM32H7xx_HAL_Driver/Src/stm32h7xx_hal_rcc.c ****       /* PLL is selected as System Clock Source */
1048:Drivers/STM32H7xx_HAL_Driver/Src/stm32h7xx_hal_rcc.c ****       else if(RCC_ClkInitStruct->SYSCLKSource == RCC_SYSCLKSOURCE_PLLCLK)
1049:Drivers/STM32H7xx_HAL_Driver/Src/stm32h7xx_hal_rcc.c ****       {
1050:Drivers/STM32H7xx_HAL_Driver/Src/stm32h7xx_hal_rcc.c ****         /* Check the PLL ready flag */
1051:Drivers/STM32H7xx_HAL_Driver/Src/stm32h7xx_hal_rcc.c ****         if(__HAL_RCC_GET_FLAG(RCC_FLAG_PLLRDY) == 0U)
1052:Drivers/STM32H7xx_HAL_Driver/Src/stm32h7xx_hal_rcc.c ****         {
1053:Drivers/STM32H7xx_HAL_Driver/Src/stm32h7xx_hal_rcc.c ****           return HAL_ERROR;
1054:Drivers/STM32H7xx_HAL_Driver/Src/stm32h7xx_hal_rcc.c ****         }
ARM GAS  C:\Users\ADMINI~1\AppData\Local\Temp\cc7xIC5f.s 			page 53


1055:Drivers/STM32H7xx_HAL_Driver/Src/stm32h7xx_hal_rcc.c ****       }
1056:Drivers/STM32H7xx_HAL_Driver/Src/stm32h7xx_hal_rcc.c ****       /* CSI is selected as System Clock Source */
1057:Drivers/STM32H7xx_HAL_Driver/Src/stm32h7xx_hal_rcc.c ****       else if(RCC_ClkInitStruct->SYSCLKSource == RCC_SYSCLKSOURCE_CSI)
1058:Drivers/STM32H7xx_HAL_Driver/Src/stm32h7xx_hal_rcc.c ****       {
1059:Drivers/STM32H7xx_HAL_Driver/Src/stm32h7xx_hal_rcc.c ****         /* Check the PLL ready flag */
1060:Drivers/STM32H7xx_HAL_Driver/Src/stm32h7xx_hal_rcc.c ****         if(__HAL_RCC_GET_FLAG(RCC_FLAG_CSIRDY) == 0U)
1061:Drivers/STM32H7xx_HAL_Driver/Src/stm32h7xx_hal_rcc.c ****         {
1062:Drivers/STM32H7xx_HAL_Driver/Src/stm32h7xx_hal_rcc.c ****           return HAL_ERROR;
1063:Drivers/STM32H7xx_HAL_Driver/Src/stm32h7xx_hal_rcc.c ****         }
1064:Drivers/STM32H7xx_HAL_Driver/Src/stm32h7xx_hal_rcc.c ****       }
1065:Drivers/STM32H7xx_HAL_Driver/Src/stm32h7xx_hal_rcc.c ****       /* HSI is selected as System Clock Source */
1066:Drivers/STM32H7xx_HAL_Driver/Src/stm32h7xx_hal_rcc.c ****       else
1067:Drivers/STM32H7xx_HAL_Driver/Src/stm32h7xx_hal_rcc.c ****       {
1068:Drivers/STM32H7xx_HAL_Driver/Src/stm32h7xx_hal_rcc.c ****         /* Check the HSI ready flag */
1069:Drivers/STM32H7xx_HAL_Driver/Src/stm32h7xx_hal_rcc.c ****         if(__HAL_RCC_GET_FLAG(RCC_FLAG_HSIRDY) == 0U)
1070:Drivers/STM32H7xx_HAL_Driver/Src/stm32h7xx_hal_rcc.c ****         {
1071:Drivers/STM32H7xx_HAL_Driver/Src/stm32h7xx_hal_rcc.c ****           return HAL_ERROR;
1072:Drivers/STM32H7xx_HAL_Driver/Src/stm32h7xx_hal_rcc.c ****         }
1073:Drivers/STM32H7xx_HAL_Driver/Src/stm32h7xx_hal_rcc.c ****       }
1074:Drivers/STM32H7xx_HAL_Driver/Src/stm32h7xx_hal_rcc.c ****       MODIFY_REG(RCC->CFGR, RCC_CFGR_SW, RCC_ClkInitStruct->SYSCLKSource);
1075:Drivers/STM32H7xx_HAL_Driver/Src/stm32h7xx_hal_rcc.c **** 
1076:Drivers/STM32H7xx_HAL_Driver/Src/stm32h7xx_hal_rcc.c ****       /* Get Start Tick*/
1077:Drivers/STM32H7xx_HAL_Driver/Src/stm32h7xx_hal_rcc.c ****       tickstart = HAL_GetTick();
1078:Drivers/STM32H7xx_HAL_Driver/Src/stm32h7xx_hal_rcc.c **** 
1079:Drivers/STM32H7xx_HAL_Driver/Src/stm32h7xx_hal_rcc.c ****         while (__HAL_RCC_GET_SYSCLK_SOURCE() !=  (RCC_ClkInitStruct->SYSCLKSource << RCC_CFGR_SWS_P
1080:Drivers/STM32H7xx_HAL_Driver/Src/stm32h7xx_hal_rcc.c ****         {
1081:Drivers/STM32H7xx_HAL_Driver/Src/stm32h7xx_hal_rcc.c ****           if((HAL_GetTick() - tickstart ) > CLOCKSWITCH_TIMEOUT_VALUE)
1082:Drivers/STM32H7xx_HAL_Driver/Src/stm32h7xx_hal_rcc.c ****           {
1083:Drivers/STM32H7xx_HAL_Driver/Src/stm32h7xx_hal_rcc.c ****             return HAL_TIMEOUT;
1084:Drivers/STM32H7xx_HAL_Driver/Src/stm32h7xx_hal_rcc.c ****           }
1085:Drivers/STM32H7xx_HAL_Driver/Src/stm32h7xx_hal_rcc.c ****         }
1086:Drivers/STM32H7xx_HAL_Driver/Src/stm32h7xx_hal_rcc.c **** 
1087:Drivers/STM32H7xx_HAL_Driver/Src/stm32h7xx_hal_rcc.c ****     }
1088:Drivers/STM32H7xx_HAL_Driver/Src/stm32h7xx_hal_rcc.c **** 
1089:Drivers/STM32H7xx_HAL_Driver/Src/stm32h7xx_hal_rcc.c ****     /* Decreasing the BUS frequency divider */
1090:Drivers/STM32H7xx_HAL_Driver/Src/stm32h7xx_hal_rcc.c ****    /*-------------------------- HCLK Configuration --------------------------*/
1091:Drivers/STM32H7xx_HAL_Driver/Src/stm32h7xx_hal_rcc.c ****   if(((RCC_ClkInitStruct->ClockType) & RCC_CLOCKTYPE_HCLK) == RCC_CLOCKTYPE_HCLK)
1092:Drivers/STM32H7xx_HAL_Driver/Src/stm32h7xx_hal_rcc.c ****   {
1093:Drivers/STM32H7xx_HAL_Driver/Src/stm32h7xx_hal_rcc.c **** #if defined(RCC_D1CFGR_HPRE)
1094:Drivers/STM32H7xx_HAL_Driver/Src/stm32h7xx_hal_rcc.c ****     if((RCC_ClkInitStruct->AHBCLKDivider) < (RCC->D1CFGR & RCC_D1CFGR_HPRE))
1095:Drivers/STM32H7xx_HAL_Driver/Src/stm32h7xx_hal_rcc.c ****     {
1096:Drivers/STM32H7xx_HAL_Driver/Src/stm32h7xx_hal_rcc.c ****       /* Set the new HCLK clock divider */
1097:Drivers/STM32H7xx_HAL_Driver/Src/stm32h7xx_hal_rcc.c ****       assert_param(IS_RCC_HCLK(RCC_ClkInitStruct->AHBCLKDivider));
1098:Drivers/STM32H7xx_HAL_Driver/Src/stm32h7xx_hal_rcc.c ****       MODIFY_REG(RCC->D1CFGR, RCC_D1CFGR_HPRE, RCC_ClkInitStruct->AHBCLKDivider);
1099:Drivers/STM32H7xx_HAL_Driver/Src/stm32h7xx_hal_rcc.c ****     }
1100:Drivers/STM32H7xx_HAL_Driver/Src/stm32h7xx_hal_rcc.c **** #else
1101:Drivers/STM32H7xx_HAL_Driver/Src/stm32h7xx_hal_rcc.c ****     if((RCC_ClkInitStruct->AHBCLKDivider) < (RCC->CDCFGR1 & RCC_CDCFGR1_HPRE))
1102:Drivers/STM32H7xx_HAL_Driver/Src/stm32h7xx_hal_rcc.c ****     {
1103:Drivers/STM32H7xx_HAL_Driver/Src/stm32h7xx_hal_rcc.c ****       /* Set the new HCLK clock divider */
1104:Drivers/STM32H7xx_HAL_Driver/Src/stm32h7xx_hal_rcc.c ****       assert_param(IS_RCC_HCLK(RCC_ClkInitStruct->AHBCLKDivider));
1105:Drivers/STM32H7xx_HAL_Driver/Src/stm32h7xx_hal_rcc.c ****       MODIFY_REG(RCC->CDCFGR1, RCC_CDCFGR1_HPRE, RCC_ClkInitStruct->AHBCLKDivider);
1106:Drivers/STM32H7xx_HAL_Driver/Src/stm32h7xx_hal_rcc.c ****     }
1107:Drivers/STM32H7xx_HAL_Driver/Src/stm32h7xx_hal_rcc.c **** #endif
1108:Drivers/STM32H7xx_HAL_Driver/Src/stm32h7xx_hal_rcc.c ****   }
1109:Drivers/STM32H7xx_HAL_Driver/Src/stm32h7xx_hal_rcc.c **** 
1110:Drivers/STM32H7xx_HAL_Driver/Src/stm32h7xx_hal_rcc.c ****   /* Decreasing the number of wait states because of lower CPU frequency */
1111:Drivers/STM32H7xx_HAL_Driver/Src/stm32h7xx_hal_rcc.c ****   if(FLatency < __HAL_FLASH_GET_LATENCY())
ARM GAS  C:\Users\ADMINI~1\AppData\Local\Temp\cc7xIC5f.s 			page 54


1112:Drivers/STM32H7xx_HAL_Driver/Src/stm32h7xx_hal_rcc.c ****   {
1113:Drivers/STM32H7xx_HAL_Driver/Src/stm32h7xx_hal_rcc.c ****     /* Program the new number of wait states to the LATENCY bits in the FLASH_ACR register */
1114:Drivers/STM32H7xx_HAL_Driver/Src/stm32h7xx_hal_rcc.c ****     __HAL_FLASH_SET_LATENCY(FLatency);
1115:Drivers/STM32H7xx_HAL_Driver/Src/stm32h7xx_hal_rcc.c **** 
1116:Drivers/STM32H7xx_HAL_Driver/Src/stm32h7xx_hal_rcc.c ****     /* Check that the new number of wait states is taken into account to access the Flash
1117:Drivers/STM32H7xx_HAL_Driver/Src/stm32h7xx_hal_rcc.c ****     memory by reading the FLASH_ACR register */
1118:Drivers/STM32H7xx_HAL_Driver/Src/stm32h7xx_hal_rcc.c ****     if(__HAL_FLASH_GET_LATENCY() != FLatency)
1119:Drivers/STM32H7xx_HAL_Driver/Src/stm32h7xx_hal_rcc.c ****     {
1120:Drivers/STM32H7xx_HAL_Driver/Src/stm32h7xx_hal_rcc.c ****       return HAL_ERROR;
1121:Drivers/STM32H7xx_HAL_Driver/Src/stm32h7xx_hal_rcc.c ****     }
1122:Drivers/STM32H7xx_HAL_Driver/Src/stm32h7xx_hal_rcc.c ****  }
1123:Drivers/STM32H7xx_HAL_Driver/Src/stm32h7xx_hal_rcc.c **** 
1124:Drivers/STM32H7xx_HAL_Driver/Src/stm32h7xx_hal_rcc.c ****   /*-------------------------- D1PCLK1/CDPCLK Configuration ---------------------------*/
1125:Drivers/STM32H7xx_HAL_Driver/Src/stm32h7xx_hal_rcc.c ****  if(((RCC_ClkInitStruct->ClockType) & RCC_CLOCKTYPE_D1PCLK1) == RCC_CLOCKTYPE_D1PCLK1)
1126:Drivers/STM32H7xx_HAL_Driver/Src/stm32h7xx_hal_rcc.c ****  {
1127:Drivers/STM32H7xx_HAL_Driver/Src/stm32h7xx_hal_rcc.c **** #if defined(RCC_D1CFGR_D1PPRE)
1128:Drivers/STM32H7xx_HAL_Driver/Src/stm32h7xx_hal_rcc.c ****    if((RCC_ClkInitStruct->APB3CLKDivider) < (RCC->D1CFGR & RCC_D1CFGR_D1PPRE))
1129:Drivers/STM32H7xx_HAL_Driver/Src/stm32h7xx_hal_rcc.c ****    {
1130:Drivers/STM32H7xx_HAL_Driver/Src/stm32h7xx_hal_rcc.c ****      assert_param(IS_RCC_D1PCLK1(RCC_ClkInitStruct->APB3CLKDivider));
1131:Drivers/STM32H7xx_HAL_Driver/Src/stm32h7xx_hal_rcc.c ****      MODIFY_REG(RCC->D1CFGR, RCC_D1CFGR_D1PPRE, RCC_ClkInitStruct->APB3CLKDivider);
1132:Drivers/STM32H7xx_HAL_Driver/Src/stm32h7xx_hal_rcc.c ****    }
1133:Drivers/STM32H7xx_HAL_Driver/Src/stm32h7xx_hal_rcc.c **** #else
1134:Drivers/STM32H7xx_HAL_Driver/Src/stm32h7xx_hal_rcc.c ****    if((RCC_ClkInitStruct->APB3CLKDivider) < (RCC->CDCFGR1 & RCC_CDCFGR1_CDPPRE))
1135:Drivers/STM32H7xx_HAL_Driver/Src/stm32h7xx_hal_rcc.c ****    {
1136:Drivers/STM32H7xx_HAL_Driver/Src/stm32h7xx_hal_rcc.c ****      assert_param(IS_RCC_CDPCLK1(RCC_ClkInitStruct->APB3CLKDivider));
1137:Drivers/STM32H7xx_HAL_Driver/Src/stm32h7xx_hal_rcc.c ****      MODIFY_REG(RCC->CDCFGR1, RCC_CDCFGR1_CDPPRE, RCC_ClkInitStruct->APB3CLKDivider);
1138:Drivers/STM32H7xx_HAL_Driver/Src/stm32h7xx_hal_rcc.c ****    }
1139:Drivers/STM32H7xx_HAL_Driver/Src/stm32h7xx_hal_rcc.c **** #endif
1140:Drivers/STM32H7xx_HAL_Driver/Src/stm32h7xx_hal_rcc.c ****  }
1141:Drivers/STM32H7xx_HAL_Driver/Src/stm32h7xx_hal_rcc.c **** 
1142:Drivers/STM32H7xx_HAL_Driver/Src/stm32h7xx_hal_rcc.c ****   /*-------------------------- PCLK1 Configuration ---------------------------*/
1143:Drivers/STM32H7xx_HAL_Driver/Src/stm32h7xx_hal_rcc.c ****  if(((RCC_ClkInitStruct->ClockType) & RCC_CLOCKTYPE_PCLK1) == RCC_CLOCKTYPE_PCLK1)
1144:Drivers/STM32H7xx_HAL_Driver/Src/stm32h7xx_hal_rcc.c ****  {
1145:Drivers/STM32H7xx_HAL_Driver/Src/stm32h7xx_hal_rcc.c **** #if defined(RCC_D2CFGR_D2PPRE1)
1146:Drivers/STM32H7xx_HAL_Driver/Src/stm32h7xx_hal_rcc.c ****    if((RCC_ClkInitStruct->APB1CLKDivider) < (RCC->D2CFGR & RCC_D2CFGR_D2PPRE1))
1147:Drivers/STM32H7xx_HAL_Driver/Src/stm32h7xx_hal_rcc.c ****    {
1148:Drivers/STM32H7xx_HAL_Driver/Src/stm32h7xx_hal_rcc.c ****      assert_param(IS_RCC_PCLK1(RCC_ClkInitStruct->APB1CLKDivider));
1149:Drivers/STM32H7xx_HAL_Driver/Src/stm32h7xx_hal_rcc.c ****      MODIFY_REG(RCC->D2CFGR, RCC_D2CFGR_D2PPRE1, (RCC_ClkInitStruct->APB1CLKDivider));
1150:Drivers/STM32H7xx_HAL_Driver/Src/stm32h7xx_hal_rcc.c ****    }
1151:Drivers/STM32H7xx_HAL_Driver/Src/stm32h7xx_hal_rcc.c **** #else
1152:Drivers/STM32H7xx_HAL_Driver/Src/stm32h7xx_hal_rcc.c ****    if((RCC_ClkInitStruct->APB1CLKDivider) < (RCC->CDCFGR2 & RCC_CDCFGR2_CDPPRE1))
1153:Drivers/STM32H7xx_HAL_Driver/Src/stm32h7xx_hal_rcc.c ****    {
1154:Drivers/STM32H7xx_HAL_Driver/Src/stm32h7xx_hal_rcc.c ****      assert_param(IS_RCC_PCLK1(RCC_ClkInitStruct->APB1CLKDivider));
1155:Drivers/STM32H7xx_HAL_Driver/Src/stm32h7xx_hal_rcc.c ****      MODIFY_REG(RCC->CDCFGR2, RCC_CDCFGR2_CDPPRE1, (RCC_ClkInitStruct->APB1CLKDivider));
1156:Drivers/STM32H7xx_HAL_Driver/Src/stm32h7xx_hal_rcc.c ****    }
1157:Drivers/STM32H7xx_HAL_Driver/Src/stm32h7xx_hal_rcc.c **** #endif
1158:Drivers/STM32H7xx_HAL_Driver/Src/stm32h7xx_hal_rcc.c ****  }
1159:Drivers/STM32H7xx_HAL_Driver/Src/stm32h7xx_hal_rcc.c **** 
1160:Drivers/STM32H7xx_HAL_Driver/Src/stm32h7xx_hal_rcc.c ****   /*-------------------------- PCLK2 Configuration ---------------------------*/
1161:Drivers/STM32H7xx_HAL_Driver/Src/stm32h7xx_hal_rcc.c ****  if(((RCC_ClkInitStruct->ClockType) & RCC_CLOCKTYPE_PCLK2) == RCC_CLOCKTYPE_PCLK2)
1162:Drivers/STM32H7xx_HAL_Driver/Src/stm32h7xx_hal_rcc.c ****  {
1163:Drivers/STM32H7xx_HAL_Driver/Src/stm32h7xx_hal_rcc.c **** #if defined (RCC_D2CFGR_D2PPRE2)
1164:Drivers/STM32H7xx_HAL_Driver/Src/stm32h7xx_hal_rcc.c ****    if((RCC_ClkInitStruct->APB2CLKDivider) < (RCC->D2CFGR & RCC_D2CFGR_D2PPRE2))
1165:Drivers/STM32H7xx_HAL_Driver/Src/stm32h7xx_hal_rcc.c ****    {
1166:Drivers/STM32H7xx_HAL_Driver/Src/stm32h7xx_hal_rcc.c ****      assert_param(IS_RCC_PCLK2(RCC_ClkInitStruct->APB2CLKDivider));
1167:Drivers/STM32H7xx_HAL_Driver/Src/stm32h7xx_hal_rcc.c ****      MODIFY_REG(RCC->D2CFGR, RCC_D2CFGR_D2PPRE2, (RCC_ClkInitStruct->APB2CLKDivider));
1168:Drivers/STM32H7xx_HAL_Driver/Src/stm32h7xx_hal_rcc.c ****    }
ARM GAS  C:\Users\ADMINI~1\AppData\Local\Temp\cc7xIC5f.s 			page 55


1169:Drivers/STM32H7xx_HAL_Driver/Src/stm32h7xx_hal_rcc.c **** #else
1170:Drivers/STM32H7xx_HAL_Driver/Src/stm32h7xx_hal_rcc.c ****    if((RCC_ClkInitStruct->APB2CLKDivider) < (RCC->CDCFGR2 & RCC_CDCFGR2_CDPPRE2))
1171:Drivers/STM32H7xx_HAL_Driver/Src/stm32h7xx_hal_rcc.c ****    {
1172:Drivers/STM32H7xx_HAL_Driver/Src/stm32h7xx_hal_rcc.c ****      assert_param(IS_RCC_PCLK2(RCC_ClkInitStruct->APB2CLKDivider));
1173:Drivers/STM32H7xx_HAL_Driver/Src/stm32h7xx_hal_rcc.c ****      MODIFY_REG(RCC->CDCFGR2, RCC_CDCFGR2_CDPPRE2, (RCC_ClkInitStruct->APB2CLKDivider));
1174:Drivers/STM32H7xx_HAL_Driver/Src/stm32h7xx_hal_rcc.c ****    }
1175:Drivers/STM32H7xx_HAL_Driver/Src/stm32h7xx_hal_rcc.c **** #endif
1176:Drivers/STM32H7xx_HAL_Driver/Src/stm32h7xx_hal_rcc.c ****  }
1177:Drivers/STM32H7xx_HAL_Driver/Src/stm32h7xx_hal_rcc.c **** 
1178:Drivers/STM32H7xx_HAL_Driver/Src/stm32h7xx_hal_rcc.c ****   /*-------------------------- D3PCLK1/SRDPCLK1 Configuration ---------------------------*/
1179:Drivers/STM32H7xx_HAL_Driver/Src/stm32h7xx_hal_rcc.c ****  if(((RCC_ClkInitStruct->ClockType) & RCC_CLOCKTYPE_D3PCLK1) == RCC_CLOCKTYPE_D3PCLK1)
1180:Drivers/STM32H7xx_HAL_Driver/Src/stm32h7xx_hal_rcc.c ****  {
1181:Drivers/STM32H7xx_HAL_Driver/Src/stm32h7xx_hal_rcc.c **** #if defined(RCC_D3CFGR_D3PPRE)
1182:Drivers/STM32H7xx_HAL_Driver/Src/stm32h7xx_hal_rcc.c ****    if((RCC_ClkInitStruct->APB4CLKDivider) < (RCC->D3CFGR & RCC_D3CFGR_D3PPRE))
1183:Drivers/STM32H7xx_HAL_Driver/Src/stm32h7xx_hal_rcc.c ****    {
1184:Drivers/STM32H7xx_HAL_Driver/Src/stm32h7xx_hal_rcc.c ****      assert_param(IS_RCC_D3PCLK1(RCC_ClkInitStruct->APB4CLKDivider));
1185:Drivers/STM32H7xx_HAL_Driver/Src/stm32h7xx_hal_rcc.c ****      MODIFY_REG(RCC->D3CFGR, RCC_D3CFGR_D3PPRE, (RCC_ClkInitStruct->APB4CLKDivider) );
1186:Drivers/STM32H7xx_HAL_Driver/Src/stm32h7xx_hal_rcc.c ****    }
1187:Drivers/STM32H7xx_HAL_Driver/Src/stm32h7xx_hal_rcc.c **** #else
1188:Drivers/STM32H7xx_HAL_Driver/Src/stm32h7xx_hal_rcc.c ****    if((RCC_ClkInitStruct->APB4CLKDivider) < (RCC->SRDCFGR & RCC_SRDCFGR_SRDPPRE))
1189:Drivers/STM32H7xx_HAL_Driver/Src/stm32h7xx_hal_rcc.c ****    {
1190:Drivers/STM32H7xx_HAL_Driver/Src/stm32h7xx_hal_rcc.c ****      assert_param(IS_RCC_SRDPCLK1(RCC_ClkInitStruct->APB4CLKDivider));
1191:Drivers/STM32H7xx_HAL_Driver/Src/stm32h7xx_hal_rcc.c ****      MODIFY_REG(RCC->SRDCFGR, RCC_SRDCFGR_SRDPPRE, (RCC_ClkInitStruct->APB4CLKDivider) );
1192:Drivers/STM32H7xx_HAL_Driver/Src/stm32h7xx_hal_rcc.c ****    }
1193:Drivers/STM32H7xx_HAL_Driver/Src/stm32h7xx_hal_rcc.c **** #endif
1194:Drivers/STM32H7xx_HAL_Driver/Src/stm32h7xx_hal_rcc.c ****  }
1195:Drivers/STM32H7xx_HAL_Driver/Src/stm32h7xx_hal_rcc.c **** 
1196:Drivers/STM32H7xx_HAL_Driver/Src/stm32h7xx_hal_rcc.c ****   /* Update the SystemCoreClock global variable */
1197:Drivers/STM32H7xx_HAL_Driver/Src/stm32h7xx_hal_rcc.c **** #if defined(RCC_D1CFGR_D1CPRE)
1198:Drivers/STM32H7xx_HAL_Driver/Src/stm32h7xx_hal_rcc.c ****   common_system_clock = HAL_RCC_GetSysClockFreq() >> ((D1CorePrescTable[(RCC->D1CFGR & RCC_D1CFGR_D
1199:Drivers/STM32H7xx_HAL_Driver/Src/stm32h7xx_hal_rcc.c **** #else
1200:Drivers/STM32H7xx_HAL_Driver/Src/stm32h7xx_hal_rcc.c ****   common_system_clock = HAL_RCC_GetSysClockFreq() >> ((D1CorePrescTable[(RCC->CDCFGR1 & RCC_CDCFGR1
1201:Drivers/STM32H7xx_HAL_Driver/Src/stm32h7xx_hal_rcc.c **** #endif
1202:Drivers/STM32H7xx_HAL_Driver/Src/stm32h7xx_hal_rcc.c **** 
1203:Drivers/STM32H7xx_HAL_Driver/Src/stm32h7xx_hal_rcc.c **** #if defined(RCC_D1CFGR_HPRE)
1204:Drivers/STM32H7xx_HAL_Driver/Src/stm32h7xx_hal_rcc.c ****   SystemD2Clock = (common_system_clock >> ((D1CorePrescTable[(RCC->D1CFGR & RCC_D1CFGR_HPRE)>> RCC_
1205:Drivers/STM32H7xx_HAL_Driver/Src/stm32h7xx_hal_rcc.c **** #else
1206:Drivers/STM32H7xx_HAL_Driver/Src/stm32h7xx_hal_rcc.c ****   SystemD2Clock = (common_system_clock >> ((D1CorePrescTable[(RCC->CDCFGR1 & RCC_CDCFGR1_HPRE)>> RC
1207:Drivers/STM32H7xx_HAL_Driver/Src/stm32h7xx_hal_rcc.c **** #endif
1208:Drivers/STM32H7xx_HAL_Driver/Src/stm32h7xx_hal_rcc.c **** 
1209:Drivers/STM32H7xx_HAL_Driver/Src/stm32h7xx_hal_rcc.c **** #if defined(DUAL_CORE) && defined(CORE_CM4)
1210:Drivers/STM32H7xx_HAL_Driver/Src/stm32h7xx_hal_rcc.c ****   SystemCoreClock = SystemD2Clock;
1211:Drivers/STM32H7xx_HAL_Driver/Src/stm32h7xx_hal_rcc.c **** #else
1212:Drivers/STM32H7xx_HAL_Driver/Src/stm32h7xx_hal_rcc.c ****   SystemCoreClock = common_system_clock;
1213:Drivers/STM32H7xx_HAL_Driver/Src/stm32h7xx_hal_rcc.c **** #endif /* DUAL_CORE && CORE_CM4 */
1214:Drivers/STM32H7xx_HAL_Driver/Src/stm32h7xx_hal_rcc.c **** 
1215:Drivers/STM32H7xx_HAL_Driver/Src/stm32h7xx_hal_rcc.c ****   /* Configure the source of time base considering new system clocks settings*/
1216:Drivers/STM32H7xx_HAL_Driver/Src/stm32h7xx_hal_rcc.c ****   halstatus = HAL_InitTick (uwTickPrio);
1217:Drivers/STM32H7xx_HAL_Driver/Src/stm32h7xx_hal_rcc.c **** 
1218:Drivers/STM32H7xx_HAL_Driver/Src/stm32h7xx_hal_rcc.c ****   return halstatus;
1219:Drivers/STM32H7xx_HAL_Driver/Src/stm32h7xx_hal_rcc.c **** }
1220:Drivers/STM32H7xx_HAL_Driver/Src/stm32h7xx_hal_rcc.c **** 
1221:Drivers/STM32H7xx_HAL_Driver/Src/stm32h7xx_hal_rcc.c **** /**
1222:Drivers/STM32H7xx_HAL_Driver/Src/stm32h7xx_hal_rcc.c ****   * @}
1223:Drivers/STM32H7xx_HAL_Driver/Src/stm32h7xx_hal_rcc.c ****   */
1224:Drivers/STM32H7xx_HAL_Driver/Src/stm32h7xx_hal_rcc.c **** 
1225:Drivers/STM32H7xx_HAL_Driver/Src/stm32h7xx_hal_rcc.c **** /** @defgroup RCC_Group2 Peripheral Control functions
ARM GAS  C:\Users\ADMINI~1\AppData\Local\Temp\cc7xIC5f.s 			page 56


1226:Drivers/STM32H7xx_HAL_Driver/Src/stm32h7xx_hal_rcc.c ****  *  @brief   RCC clocks control functions
1227:Drivers/STM32H7xx_HAL_Driver/Src/stm32h7xx_hal_rcc.c ****  *
1228:Drivers/STM32H7xx_HAL_Driver/Src/stm32h7xx_hal_rcc.c **** @verbatim
1229:Drivers/STM32H7xx_HAL_Driver/Src/stm32h7xx_hal_rcc.c ****  ===============================================================================
1230:Drivers/STM32H7xx_HAL_Driver/Src/stm32h7xx_hal_rcc.c ****                       ##### Peripheral Control functions #####
1231:Drivers/STM32H7xx_HAL_Driver/Src/stm32h7xx_hal_rcc.c ****  ===============================================================================
1232:Drivers/STM32H7xx_HAL_Driver/Src/stm32h7xx_hal_rcc.c ****     [..]
1233:Drivers/STM32H7xx_HAL_Driver/Src/stm32h7xx_hal_rcc.c ****     This subsection provides a set of functions allowing to control the RCC Clocks
1234:Drivers/STM32H7xx_HAL_Driver/Src/stm32h7xx_hal_rcc.c ****     frequencies.
1235:Drivers/STM32H7xx_HAL_Driver/Src/stm32h7xx_hal_rcc.c **** 
1236:Drivers/STM32H7xx_HAL_Driver/Src/stm32h7xx_hal_rcc.c **** @endverbatim
1237:Drivers/STM32H7xx_HAL_Driver/Src/stm32h7xx_hal_rcc.c ****   * @{
1238:Drivers/STM32H7xx_HAL_Driver/Src/stm32h7xx_hal_rcc.c ****   */
1239:Drivers/STM32H7xx_HAL_Driver/Src/stm32h7xx_hal_rcc.c **** 
1240:Drivers/STM32H7xx_HAL_Driver/Src/stm32h7xx_hal_rcc.c **** /**
1241:Drivers/STM32H7xx_HAL_Driver/Src/stm32h7xx_hal_rcc.c ****   * @brief  Selects the clock source to output on MCO1 pin(PA8) or on MCO2 pin(PC9).
1242:Drivers/STM32H7xx_HAL_Driver/Src/stm32h7xx_hal_rcc.c ****   * @note   PA8/PC9 should be configured in alternate function mode.
1243:Drivers/STM32H7xx_HAL_Driver/Src/stm32h7xx_hal_rcc.c ****   * @param  RCC_MCOx: specifies the output direction for the clock source.
1244:Drivers/STM32H7xx_HAL_Driver/Src/stm32h7xx_hal_rcc.c ****   *          This parameter can be one of the following values:
1245:Drivers/STM32H7xx_HAL_Driver/Src/stm32h7xx_hal_rcc.c ****   *            @arg RCC_MCO1: Clock source to output on MCO1 pin(PA8).
1246:Drivers/STM32H7xx_HAL_Driver/Src/stm32h7xx_hal_rcc.c ****   *            @arg RCC_MCO2: Clock source to output on MCO2 pin(PC9).
1247:Drivers/STM32H7xx_HAL_Driver/Src/stm32h7xx_hal_rcc.c ****   * @param  RCC_MCOSource: specifies the clock source to output.
1248:Drivers/STM32H7xx_HAL_Driver/Src/stm32h7xx_hal_rcc.c ****   *          This parameter can be one of the following values:
1249:Drivers/STM32H7xx_HAL_Driver/Src/stm32h7xx_hal_rcc.c ****   *            @arg RCC_MCO1SOURCE_HSI: HSI clock selected as MCO1 source
1250:Drivers/STM32H7xx_HAL_Driver/Src/stm32h7xx_hal_rcc.c ****   *            @arg RCC_MCO1SOURCE_LSE: LSE clock selected as MCO1 source
1251:Drivers/STM32H7xx_HAL_Driver/Src/stm32h7xx_hal_rcc.c ****   *            @arg RCC_MCO1SOURCE_HSE: HSE clock selected as MCO1 source
1252:Drivers/STM32H7xx_HAL_Driver/Src/stm32h7xx_hal_rcc.c ****   *            @arg RCC_MCO1SOURCE_PLL1QCLK:  PLL1Q clock selected as MCO1 source
1253:Drivers/STM32H7xx_HAL_Driver/Src/stm32h7xx_hal_rcc.c ****   *            @arg RCC_MCO1SOURCE_HSI48: HSI48 (48MHZ) selected as MCO1 source
1254:Drivers/STM32H7xx_HAL_Driver/Src/stm32h7xx_hal_rcc.c ****   *            @arg RCC_MCO2SOURCE_SYSCLK: System clock (SYSCLK) selected as MCO2 source
1255:Drivers/STM32H7xx_HAL_Driver/Src/stm32h7xx_hal_rcc.c ****   *            @arg RCC_MCO2SOURCE_PLL2PCLK: PLL2P clock selected as MCO2 source
1256:Drivers/STM32H7xx_HAL_Driver/Src/stm32h7xx_hal_rcc.c ****   *            @arg RCC_MCO2SOURCE_HSE: HSE clock selected as MCO2 source
1257:Drivers/STM32H7xx_HAL_Driver/Src/stm32h7xx_hal_rcc.c ****   *            @arg RCC_MCO2SOURCE_PLLCLK:  PLL1P clock selected as MCO2 source
1258:Drivers/STM32H7xx_HAL_Driver/Src/stm32h7xx_hal_rcc.c ****   *            @arg RCC_MCO2SOURCE_CSICLK:  CSI clock selected as MCO2 source
1259:Drivers/STM32H7xx_HAL_Driver/Src/stm32h7xx_hal_rcc.c ****   *            @arg RCC_MCO2SOURCE_LSICLK:  LSI clock selected as MCO2 source
1260:Drivers/STM32H7xx_HAL_Driver/Src/stm32h7xx_hal_rcc.c ****   * @param  RCC_MCODiv: specifies the MCOx pre-scaler.
1261:Drivers/STM32H7xx_HAL_Driver/Src/stm32h7xx_hal_rcc.c ****   *          This parameter can be one of the following values:
1262:Drivers/STM32H7xx_HAL_Driver/Src/stm32h7xx_hal_rcc.c ****   *            @arg RCC_MCODIV_1 up to RCC_MCODIV_15  : divider applied to MCOx clock
1263:Drivers/STM32H7xx_HAL_Driver/Src/stm32h7xx_hal_rcc.c ****   * @retval None
1264:Drivers/STM32H7xx_HAL_Driver/Src/stm32h7xx_hal_rcc.c ****   */
1265:Drivers/STM32H7xx_HAL_Driver/Src/stm32h7xx_hal_rcc.c **** void HAL_RCC_MCOConfig(uint32_t RCC_MCOx, uint32_t RCC_MCOSource, uint32_t RCC_MCODiv)
1266:Drivers/STM32H7xx_HAL_Driver/Src/stm32h7xx_hal_rcc.c **** {
 1658              		.loc 1 1266 1 is_stmt 1 view -0
 1659              		.cfi_startproc
 1660              		@ args = 0, pretend = 0, frame = 32
 1661              		@ frame_needed = 0, uses_anonymous_args = 0
 1662              		.loc 1 1266 1 is_stmt 0 view .LVU552
 1663 0000 70B5     		push	{r4, r5, r6, lr}
 1664              	.LCFI4:
 1665              		.cfi_def_cfa_offset 16
 1666              		.cfi_offset 4, -16
 1667              		.cfi_offset 5, -12
 1668              		.cfi_offset 6, -8
 1669              		.cfi_offset 14, -4
 1670 0002 88B0     		sub	sp, sp, #32
 1671              	.LCFI5:
 1672              		.cfi_def_cfa_offset 48
 1673 0004 0C46     		mov	r4, r1
ARM GAS  C:\Users\ADMINI~1\AppData\Local\Temp\cc7xIC5f.s 			page 57


 1674 0006 1546     		mov	r5, r2
1267:Drivers/STM32H7xx_HAL_Driver/Src/stm32h7xx_hal_rcc.c ****   GPIO_InitTypeDef GPIO_InitStruct;
 1675              		.loc 1 1267 3 is_stmt 1 view .LVU553
1268:Drivers/STM32H7xx_HAL_Driver/Src/stm32h7xx_hal_rcc.c ****   /* Check the parameters */
1269:Drivers/STM32H7xx_HAL_Driver/Src/stm32h7xx_hal_rcc.c ****   assert_param(IS_RCC_MCO(RCC_MCOx));
 1676              		.loc 1 1269 3 view .LVU554
1270:Drivers/STM32H7xx_HAL_Driver/Src/stm32h7xx_hal_rcc.c ****   assert_param(IS_RCC_MCODIV(RCC_MCODiv));
 1677              		.loc 1 1270 3 view .LVU555
1271:Drivers/STM32H7xx_HAL_Driver/Src/stm32h7xx_hal_rcc.c ****   /* RCC_MCO1 */
1272:Drivers/STM32H7xx_HAL_Driver/Src/stm32h7xx_hal_rcc.c ****   if(RCC_MCOx == RCC_MCO1)
 1678              		.loc 1 1272 3 view .LVU556
 1679              		.loc 1 1272 5 is_stmt 0 view .LVU557
 1680 0008 10BB     		cbnz	r0, .L158
1273:Drivers/STM32H7xx_HAL_Driver/Src/stm32h7xx_hal_rcc.c ****   {
1274:Drivers/STM32H7xx_HAL_Driver/Src/stm32h7xx_hal_rcc.c ****     assert_param(IS_RCC_MCO1SOURCE(RCC_MCOSource));
 1681              		.loc 1 1274 5 is_stmt 1 view .LVU558
1275:Drivers/STM32H7xx_HAL_Driver/Src/stm32h7xx_hal_rcc.c **** 
1276:Drivers/STM32H7xx_HAL_Driver/Src/stm32h7xx_hal_rcc.c ****     /* MCO1 Clock Enable */
1277:Drivers/STM32H7xx_HAL_Driver/Src/stm32h7xx_hal_rcc.c ****     MCO1_CLK_ENABLE();
 1682              		.loc 1 1277 5 view .LVU559
 1683              	.LBB13:
 1684              		.loc 1 1277 5 view .LVU560
 1685              		.loc 1 1277 5 view .LVU561
 1686 000a 234E     		ldr	r6, .L161
 1687 000c D6F8E030 		ldr	r3, [r6, #224]
 1688 0010 43F00103 		orr	r3, r3, #1
 1689 0014 C6F8E030 		str	r3, [r6, #224]
 1690              		.loc 1 1277 5 view .LVU562
 1691 0018 D6F8E030 		ldr	r3, [r6, #224]
 1692 001c 03F00103 		and	r3, r3, #1
 1693 0020 0193     		str	r3, [sp, #4]
 1694              		.loc 1 1277 5 view .LVU563
 1695 0022 019B     		ldr	r3, [sp, #4]
 1696              	.LBE13:
 1697              		.loc 1 1277 5 view .LVU564
1278:Drivers/STM32H7xx_HAL_Driver/Src/stm32h7xx_hal_rcc.c **** 
1279:Drivers/STM32H7xx_HAL_Driver/Src/stm32h7xx_hal_rcc.c ****     /* Configure the MCO1 pin in alternate function mode */
1280:Drivers/STM32H7xx_HAL_Driver/Src/stm32h7xx_hal_rcc.c ****     GPIO_InitStruct.Pin = MCO1_PIN;
 1698              		.loc 1 1280 5 view .LVU565
 1699              		.loc 1 1280 25 is_stmt 0 view .LVU566
 1700 0024 4FF48073 		mov	r3, #256
 1701 0028 0393     		str	r3, [sp, #12]
1281:Drivers/STM32H7xx_HAL_Driver/Src/stm32h7xx_hal_rcc.c ****     GPIO_InitStruct.Mode = GPIO_MODE_AF_PP;
 1702              		.loc 1 1281 5 is_stmt 1 view .LVU567
 1703              		.loc 1 1281 26 is_stmt 0 view .LVU568
 1704 002a 0223     		movs	r3, #2
 1705 002c 0493     		str	r3, [sp, #16]
1282:Drivers/STM32H7xx_HAL_Driver/Src/stm32h7xx_hal_rcc.c ****     GPIO_InitStruct.Speed = GPIO_SPEED_FREQ_VERY_HIGH;
 1706              		.loc 1 1282 5 is_stmt 1 view .LVU569
 1707              		.loc 1 1282 27 is_stmt 0 view .LVU570
 1708 002e 0323     		movs	r3, #3
 1709 0030 0693     		str	r3, [sp, #24]
1283:Drivers/STM32H7xx_HAL_Driver/Src/stm32h7xx_hal_rcc.c ****     GPIO_InitStruct.Pull = GPIO_NOPULL;
 1710              		.loc 1 1283 5 is_stmt 1 view .LVU571
 1711              		.loc 1 1283 26 is_stmt 0 view .LVU572
 1712 0032 0023     		movs	r3, #0
 1713 0034 0593     		str	r3, [sp, #20]
ARM GAS  C:\Users\ADMINI~1\AppData\Local\Temp\cc7xIC5f.s 			page 58


1284:Drivers/STM32H7xx_HAL_Driver/Src/stm32h7xx_hal_rcc.c ****     GPIO_InitStruct.Alternate = GPIO_AF0_MCO;
 1714              		.loc 1 1284 5 is_stmt 1 view .LVU573
 1715              		.loc 1 1284 31 is_stmt 0 view .LVU574
 1716 0036 0793     		str	r3, [sp, #28]
1285:Drivers/STM32H7xx_HAL_Driver/Src/stm32h7xx_hal_rcc.c ****     HAL_GPIO_Init(MCO1_GPIO_PORT, &GPIO_InitStruct);
 1717              		.loc 1 1285 5 is_stmt 1 view .LVU575
 1718 0038 03A9     		add	r1, sp, #12
 1719              	.LVL140:
 1720              		.loc 1 1285 5 is_stmt 0 view .LVU576
 1721 003a 1848     		ldr	r0, .L161+4
 1722              	.LVL141:
 1723              		.loc 1 1285 5 view .LVU577
 1724 003c FFF7FEFF 		bl	HAL_GPIO_Init
 1725              	.LVL142:
1286:Drivers/STM32H7xx_HAL_Driver/Src/stm32h7xx_hal_rcc.c **** 
1287:Drivers/STM32H7xx_HAL_Driver/Src/stm32h7xx_hal_rcc.c ****     /* Mask MCO1 and MCO1PRE[3:0] bits then Select MCO1 clock source and pre-scaler */
1288:Drivers/STM32H7xx_HAL_Driver/Src/stm32h7xx_hal_rcc.c ****     MODIFY_REG(RCC->CFGR, (RCC_CFGR_MCO1 | RCC_CFGR_MCO1PRE), (RCC_MCOSource | RCC_MCODiv));
 1726              		.loc 1 1288 5 is_stmt 1 view .LVU578
 1727 0040 3369     		ldr	r3, [r6, #16]
 1728 0042 23F0FE73 		bic	r3, r3, #33292288
 1729 0046 2543     		orrs	r5, r5, r4
 1730              	.LVL143:
 1731              		.loc 1 1288 5 is_stmt 0 view .LVU579
 1732 0048 1D43     		orrs	r5, r5, r3
 1733 004a 3561     		str	r5, [r6, #16]
 1734              	.LVL144:
 1735              	.L157:
1289:Drivers/STM32H7xx_HAL_Driver/Src/stm32h7xx_hal_rcc.c ****   }
1290:Drivers/STM32H7xx_HAL_Driver/Src/stm32h7xx_hal_rcc.c ****   else
1291:Drivers/STM32H7xx_HAL_Driver/Src/stm32h7xx_hal_rcc.c ****   {
1292:Drivers/STM32H7xx_HAL_Driver/Src/stm32h7xx_hal_rcc.c ****     assert_param(IS_RCC_MCO2SOURCE(RCC_MCOSource));
1293:Drivers/STM32H7xx_HAL_Driver/Src/stm32h7xx_hal_rcc.c **** 
1294:Drivers/STM32H7xx_HAL_Driver/Src/stm32h7xx_hal_rcc.c ****     /* MCO2 Clock Enable */
1295:Drivers/STM32H7xx_HAL_Driver/Src/stm32h7xx_hal_rcc.c ****     MCO2_CLK_ENABLE();
1296:Drivers/STM32H7xx_HAL_Driver/Src/stm32h7xx_hal_rcc.c **** 
1297:Drivers/STM32H7xx_HAL_Driver/Src/stm32h7xx_hal_rcc.c ****     /* Configure the MCO2 pin in alternate function mode */
1298:Drivers/STM32H7xx_HAL_Driver/Src/stm32h7xx_hal_rcc.c ****     GPIO_InitStruct.Pin = MCO2_PIN;
1299:Drivers/STM32H7xx_HAL_Driver/Src/stm32h7xx_hal_rcc.c ****     GPIO_InitStruct.Mode = GPIO_MODE_AF_PP;
1300:Drivers/STM32H7xx_HAL_Driver/Src/stm32h7xx_hal_rcc.c ****     GPIO_InitStruct.Speed = GPIO_SPEED_FREQ_VERY_HIGH;
1301:Drivers/STM32H7xx_HAL_Driver/Src/stm32h7xx_hal_rcc.c ****     GPIO_InitStruct.Pull = GPIO_NOPULL;
1302:Drivers/STM32H7xx_HAL_Driver/Src/stm32h7xx_hal_rcc.c ****     GPIO_InitStruct.Alternate = GPIO_AF0_MCO;
1303:Drivers/STM32H7xx_HAL_Driver/Src/stm32h7xx_hal_rcc.c ****     HAL_GPIO_Init(MCO2_GPIO_PORT, &GPIO_InitStruct);
1304:Drivers/STM32H7xx_HAL_Driver/Src/stm32h7xx_hal_rcc.c **** 
1305:Drivers/STM32H7xx_HAL_Driver/Src/stm32h7xx_hal_rcc.c ****     /* Mask MCO2 and MCO2PRE[3:0] bits then Select MCO2 clock source and pre-scaler */
1306:Drivers/STM32H7xx_HAL_Driver/Src/stm32h7xx_hal_rcc.c ****     MODIFY_REG(RCC->CFGR, (RCC_CFGR_MCO2 | RCC_CFGR_MCO2PRE), (RCC_MCOSource | (RCC_MCODiv << 7U)))
1307:Drivers/STM32H7xx_HAL_Driver/Src/stm32h7xx_hal_rcc.c ****   }
1308:Drivers/STM32H7xx_HAL_Driver/Src/stm32h7xx_hal_rcc.c **** }
 1736              		.loc 1 1308 1 view .LVU580
 1737 004c 08B0     		add	sp, sp, #32
 1738              	.LCFI6:
 1739              		.cfi_remember_state
 1740              		.cfi_def_cfa_offset 16
 1741              		@ sp needed
 1742 004e 70BD     		pop	{r4, r5, r6, pc}
 1743              	.LVL145:
 1744              	.L158:
 1745              	.LCFI7:
ARM GAS  C:\Users\ADMINI~1\AppData\Local\Temp\cc7xIC5f.s 			page 59


 1746              		.cfi_restore_state
1292:Drivers/STM32H7xx_HAL_Driver/Src/stm32h7xx_hal_rcc.c **** 
 1747              		.loc 1 1292 5 is_stmt 1 view .LVU581
1295:Drivers/STM32H7xx_HAL_Driver/Src/stm32h7xx_hal_rcc.c **** 
 1748              		.loc 1 1295 5 view .LVU582
 1749              	.LBB14:
1295:Drivers/STM32H7xx_HAL_Driver/Src/stm32h7xx_hal_rcc.c **** 
 1750              		.loc 1 1295 5 view .LVU583
1295:Drivers/STM32H7xx_HAL_Driver/Src/stm32h7xx_hal_rcc.c **** 
 1751              		.loc 1 1295 5 view .LVU584
 1752 0050 114E     		ldr	r6, .L161
 1753 0052 D6F8E030 		ldr	r3, [r6, #224]
 1754 0056 43F00403 		orr	r3, r3, #4
 1755 005a C6F8E030 		str	r3, [r6, #224]
1295:Drivers/STM32H7xx_HAL_Driver/Src/stm32h7xx_hal_rcc.c **** 
 1756              		.loc 1 1295 5 view .LVU585
 1757 005e D6F8E030 		ldr	r3, [r6, #224]
 1758 0062 03F00403 		and	r3, r3, #4
 1759 0066 0293     		str	r3, [sp, #8]
1295:Drivers/STM32H7xx_HAL_Driver/Src/stm32h7xx_hal_rcc.c **** 
 1760              		.loc 1 1295 5 view .LVU586
 1761 0068 029B     		ldr	r3, [sp, #8]
 1762              	.LBE14:
1295:Drivers/STM32H7xx_HAL_Driver/Src/stm32h7xx_hal_rcc.c **** 
 1763              		.loc 1 1295 5 view .LVU587
1298:Drivers/STM32H7xx_HAL_Driver/Src/stm32h7xx_hal_rcc.c ****     GPIO_InitStruct.Mode = GPIO_MODE_AF_PP;
 1764              		.loc 1 1298 5 view .LVU588
1298:Drivers/STM32H7xx_HAL_Driver/Src/stm32h7xx_hal_rcc.c ****     GPIO_InitStruct.Mode = GPIO_MODE_AF_PP;
 1765              		.loc 1 1298 25 is_stmt 0 view .LVU589
 1766 006a 4FF40073 		mov	r3, #512
 1767 006e 0393     		str	r3, [sp, #12]
1299:Drivers/STM32H7xx_HAL_Driver/Src/stm32h7xx_hal_rcc.c ****     GPIO_InitStruct.Speed = GPIO_SPEED_FREQ_VERY_HIGH;
 1768              		.loc 1 1299 5 is_stmt 1 view .LVU590
1299:Drivers/STM32H7xx_HAL_Driver/Src/stm32h7xx_hal_rcc.c ****     GPIO_InitStruct.Speed = GPIO_SPEED_FREQ_VERY_HIGH;
 1769              		.loc 1 1299 26 is_stmt 0 view .LVU591
 1770 0070 0223     		movs	r3, #2
 1771 0072 0493     		str	r3, [sp, #16]
1300:Drivers/STM32H7xx_HAL_Driver/Src/stm32h7xx_hal_rcc.c ****     GPIO_InitStruct.Pull = GPIO_NOPULL;
 1772              		.loc 1 1300 5 is_stmt 1 view .LVU592
1300:Drivers/STM32H7xx_HAL_Driver/Src/stm32h7xx_hal_rcc.c ****     GPIO_InitStruct.Pull = GPIO_NOPULL;
 1773              		.loc 1 1300 27 is_stmt 0 view .LVU593
 1774 0074 0323     		movs	r3, #3
 1775 0076 0693     		str	r3, [sp, #24]
1301:Drivers/STM32H7xx_HAL_Driver/Src/stm32h7xx_hal_rcc.c ****     GPIO_InitStruct.Alternate = GPIO_AF0_MCO;
 1776              		.loc 1 1301 5 is_stmt 1 view .LVU594
1301:Drivers/STM32H7xx_HAL_Driver/Src/stm32h7xx_hal_rcc.c ****     GPIO_InitStruct.Alternate = GPIO_AF0_MCO;
 1777              		.loc 1 1301 26 is_stmt 0 view .LVU595
 1778 0078 0023     		movs	r3, #0
 1779 007a 0593     		str	r3, [sp, #20]
1302:Drivers/STM32H7xx_HAL_Driver/Src/stm32h7xx_hal_rcc.c ****     HAL_GPIO_Init(MCO2_GPIO_PORT, &GPIO_InitStruct);
 1780              		.loc 1 1302 5 is_stmt 1 view .LVU596
1302:Drivers/STM32H7xx_HAL_Driver/Src/stm32h7xx_hal_rcc.c ****     HAL_GPIO_Init(MCO2_GPIO_PORT, &GPIO_InitStruct);
 1781              		.loc 1 1302 31 is_stmt 0 view .LVU597
 1782 007c 0793     		str	r3, [sp, #28]
1303:Drivers/STM32H7xx_HAL_Driver/Src/stm32h7xx_hal_rcc.c **** 
 1783              		.loc 1 1303 5 is_stmt 1 view .LVU598
 1784 007e 03A9     		add	r1, sp, #12
ARM GAS  C:\Users\ADMINI~1\AppData\Local\Temp\cc7xIC5f.s 			page 60


 1785              	.LVL146:
1303:Drivers/STM32H7xx_HAL_Driver/Src/stm32h7xx_hal_rcc.c **** 
 1786              		.loc 1 1303 5 is_stmt 0 view .LVU599
 1787 0080 0748     		ldr	r0, .L161+8
 1788              	.LVL147:
1303:Drivers/STM32H7xx_HAL_Driver/Src/stm32h7xx_hal_rcc.c **** 
 1789              		.loc 1 1303 5 view .LVU600
 1790 0082 FFF7FEFF 		bl	HAL_GPIO_Init
 1791              	.LVL148:
1306:Drivers/STM32H7xx_HAL_Driver/Src/stm32h7xx_hal_rcc.c ****   }
 1792              		.loc 1 1306 5 is_stmt 1 view .LVU601
 1793 0086 3369     		ldr	r3, [r6, #16]
 1794 0088 23F07E43 		bic	r3, r3, #-33554432
 1795 008c 44EAC514 		orr	r4, r4, r5, lsl #7
 1796              	.LVL149:
1306:Drivers/STM32H7xx_HAL_Driver/Src/stm32h7xx_hal_rcc.c ****   }
 1797              		.loc 1 1306 5 is_stmt 0 view .LVU602
 1798 0090 1C43     		orrs	r4, r4, r3
 1799 0092 3461     		str	r4, [r6, #16]
 1800              		.loc 1 1308 1 view .LVU603
 1801 0094 DAE7     		b	.L157
 1802              	.L162:
 1803 0096 00BF     		.align	2
 1804              	.L161:
 1805 0098 00440258 		.word	1476543488
 1806 009c 00000258 		.word	1476526080
 1807 00a0 00080258 		.word	1476528128
 1808              		.cfi_endproc
 1809              	.LFE147:
 1811              		.section	.text.HAL_RCC_EnableCSS,"ax",%progbits
 1812              		.align	1
 1813              		.global	HAL_RCC_EnableCSS
 1814              		.syntax unified
 1815              		.thumb
 1816              		.thumb_func
 1817              		.fpu fpv5-d16
 1819              	HAL_RCC_EnableCSS:
 1820              	.LFB148:
1309:Drivers/STM32H7xx_HAL_Driver/Src/stm32h7xx_hal_rcc.c **** 
1310:Drivers/STM32H7xx_HAL_Driver/Src/stm32h7xx_hal_rcc.c **** /**
1311:Drivers/STM32H7xx_HAL_Driver/Src/stm32h7xx_hal_rcc.c ****   * @brief  Enables the Clock Security System.
1312:Drivers/STM32H7xx_HAL_Driver/Src/stm32h7xx_hal_rcc.c ****   * @note   If a failure is detected on the HSE oscillator clock, this oscillator
1313:Drivers/STM32H7xx_HAL_Driver/Src/stm32h7xx_hal_rcc.c ****   *         is automatically disabled and an interrupt is generated to inform the
1314:Drivers/STM32H7xx_HAL_Driver/Src/stm32h7xx_hal_rcc.c ****   *         software about the failure (Clock Security System Interrupt, CSSI),
1315:Drivers/STM32H7xx_HAL_Driver/Src/stm32h7xx_hal_rcc.c ****   *         allowing the MCU to perform rescue operations. The CSSI is linked to
1316:Drivers/STM32H7xx_HAL_Driver/Src/stm32h7xx_hal_rcc.c ****   *         the Cortex-M NMI (Non-Mask-able Interrupt) exception vector.
1317:Drivers/STM32H7xx_HAL_Driver/Src/stm32h7xx_hal_rcc.c ****   * @retval None
1318:Drivers/STM32H7xx_HAL_Driver/Src/stm32h7xx_hal_rcc.c ****   */
1319:Drivers/STM32H7xx_HAL_Driver/Src/stm32h7xx_hal_rcc.c **** void HAL_RCC_EnableCSS(void)
1320:Drivers/STM32H7xx_HAL_Driver/Src/stm32h7xx_hal_rcc.c **** {
 1821              		.loc 1 1320 1 is_stmt 1 view -0
 1822              		.cfi_startproc
 1823              		@ args = 0, pretend = 0, frame = 0
 1824              		@ frame_needed = 0, uses_anonymous_args = 0
 1825              		@ link register save eliminated.
1321:Drivers/STM32H7xx_HAL_Driver/Src/stm32h7xx_hal_rcc.c ****   SET_BIT(RCC->CR, RCC_CR_CSSHSEON) ;
 1826              		.loc 1 1321 3 view .LVU605
ARM GAS  C:\Users\ADMINI~1\AppData\Local\Temp\cc7xIC5f.s 			page 61


 1827 0000 024A     		ldr	r2, .L164
 1828 0002 1368     		ldr	r3, [r2]
 1829 0004 43F40023 		orr	r3, r3, #524288
 1830 0008 1360     		str	r3, [r2]
1322:Drivers/STM32H7xx_HAL_Driver/Src/stm32h7xx_hal_rcc.c **** }
 1831              		.loc 1 1322 1 is_stmt 0 view .LVU606
 1832 000a 7047     		bx	lr
 1833              	.L165:
 1834              		.align	2
 1835              	.L164:
 1836 000c 00440258 		.word	1476543488
 1837              		.cfi_endproc
 1838              	.LFE148:
 1840              		.section	.text.HAL_RCC_DisableCSS,"ax",%progbits
 1841              		.align	1
 1842              		.global	HAL_RCC_DisableCSS
 1843              		.syntax unified
 1844              		.thumb
 1845              		.thumb_func
 1846              		.fpu fpv5-d16
 1848              	HAL_RCC_DisableCSS:
 1849              	.LFB149:
1323:Drivers/STM32H7xx_HAL_Driver/Src/stm32h7xx_hal_rcc.c **** 
1324:Drivers/STM32H7xx_HAL_Driver/Src/stm32h7xx_hal_rcc.c **** /**
1325:Drivers/STM32H7xx_HAL_Driver/Src/stm32h7xx_hal_rcc.c ****   * @brief  Disables the Clock Security System.
1326:Drivers/STM32H7xx_HAL_Driver/Src/stm32h7xx_hal_rcc.c ****   * @retval None
1327:Drivers/STM32H7xx_HAL_Driver/Src/stm32h7xx_hal_rcc.c ****   */
1328:Drivers/STM32H7xx_HAL_Driver/Src/stm32h7xx_hal_rcc.c **** void HAL_RCC_DisableCSS(void)
1329:Drivers/STM32H7xx_HAL_Driver/Src/stm32h7xx_hal_rcc.c **** {
 1850              		.loc 1 1329 1 is_stmt 1 view -0
 1851              		.cfi_startproc
 1852              		@ args = 0, pretend = 0, frame = 0
 1853              		@ frame_needed = 0, uses_anonymous_args = 0
 1854              		@ link register save eliminated.
1330:Drivers/STM32H7xx_HAL_Driver/Src/stm32h7xx_hal_rcc.c ****   CLEAR_BIT(RCC->CR, RCC_CR_CSSHSEON);
 1855              		.loc 1 1330 3 view .LVU608
 1856 0000 024A     		ldr	r2, .L167
 1857 0002 1368     		ldr	r3, [r2]
 1858 0004 23F40023 		bic	r3, r3, #524288
 1859 0008 1360     		str	r3, [r2]
1331:Drivers/STM32H7xx_HAL_Driver/Src/stm32h7xx_hal_rcc.c **** }
 1860              		.loc 1 1331 1 is_stmt 0 view .LVU609
 1861 000a 7047     		bx	lr
 1862              	.L168:
 1863              		.align	2
 1864              	.L167:
 1865 000c 00440258 		.word	1476543488
 1866              		.cfi_endproc
 1867              	.LFE149:
 1869              		.section	.text.HAL_RCC_GetSysClockFreq,"ax",%progbits
 1870              		.align	1
 1871              		.global	HAL_RCC_GetSysClockFreq
 1872              		.syntax unified
 1873              		.thumb
 1874              		.thumb_func
 1875              		.fpu fpv5-d16
 1877              	HAL_RCC_GetSysClockFreq:
ARM GAS  C:\Users\ADMINI~1\AppData\Local\Temp\cc7xIC5f.s 			page 62


 1878              	.LFB150:
1332:Drivers/STM32H7xx_HAL_Driver/Src/stm32h7xx_hal_rcc.c **** 
1333:Drivers/STM32H7xx_HAL_Driver/Src/stm32h7xx_hal_rcc.c **** /**
1334:Drivers/STM32H7xx_HAL_Driver/Src/stm32h7xx_hal_rcc.c ****   * @brief  Returns the SYSCLK frequency
1335:Drivers/STM32H7xx_HAL_Driver/Src/stm32h7xx_hal_rcc.c ****   *
1336:Drivers/STM32H7xx_HAL_Driver/Src/stm32h7xx_hal_rcc.c ****   * @note   The system frequency computed by this function is not the real
1337:Drivers/STM32H7xx_HAL_Driver/Src/stm32h7xx_hal_rcc.c ****   *         frequency in the chip. It is calculated based on the predefined
1338:Drivers/STM32H7xx_HAL_Driver/Src/stm32h7xx_hal_rcc.c ****   *         constant and the selected clock source:
1339:Drivers/STM32H7xx_HAL_Driver/Src/stm32h7xx_hal_rcc.c ****   * @note     If SYSCLK source is CSI, function returns values based on CSI_VALUE(*)
1340:Drivers/STM32H7xx_HAL_Driver/Src/stm32h7xx_hal_rcc.c ****   * @note     If SYSCLK source is HSI, function returns values based on HSI_VALUE(**)
1341:Drivers/STM32H7xx_HAL_Driver/Src/stm32h7xx_hal_rcc.c ****   * @note     If SYSCLK source is HSE, function returns values based on HSE_VALUE(***)
1342:Drivers/STM32H7xx_HAL_Driver/Src/stm32h7xx_hal_rcc.c ****   * @note     If SYSCLK source is PLL, function returns values based on CSI_VALUE(*),
1343:Drivers/STM32H7xx_HAL_Driver/Src/stm32h7xx_hal_rcc.c ****   *           HSI_VALUE(**) or HSE_VALUE(***) multiplied/divided by the PLL factors.
1344:Drivers/STM32H7xx_HAL_Driver/Src/stm32h7xx_hal_rcc.c ****   * @note     (*) CSI_VALUE is a constant defined in stm32h7xx_hal_conf.h file (default value
1345:Drivers/STM32H7xx_HAL_Driver/Src/stm32h7xx_hal_rcc.c ****   *               4 MHz) but the real value may vary depending on the variations
1346:Drivers/STM32H7xx_HAL_Driver/Src/stm32h7xx_hal_rcc.c ****   *               in voltage and temperature.
1347:Drivers/STM32H7xx_HAL_Driver/Src/stm32h7xx_hal_rcc.c ****   * @note     (**) HSI_VALUE is a constant defined in stm32h7xx_hal_conf.h file (default value
1348:Drivers/STM32H7xx_HAL_Driver/Src/stm32h7xx_hal_rcc.c ****   *               64 MHz) but the real value may vary depending on the variations
1349:Drivers/STM32H7xx_HAL_Driver/Src/stm32h7xx_hal_rcc.c ****   *               in voltage and temperature.
1350:Drivers/STM32H7xx_HAL_Driver/Src/stm32h7xx_hal_rcc.c ****   * @note     (***) HSE_VALUE is a constant defined in stm32h7xx_hal_conf.h file (default value
1351:Drivers/STM32H7xx_HAL_Driver/Src/stm32h7xx_hal_rcc.c ****   *                25 MHz), user has to ensure that HSE_VALUE is same as the real
1352:Drivers/STM32H7xx_HAL_Driver/Src/stm32h7xx_hal_rcc.c ****   *                frequency of the crystal used. Otherwise, this function may
1353:Drivers/STM32H7xx_HAL_Driver/Src/stm32h7xx_hal_rcc.c ****   *                have wrong result.
1354:Drivers/STM32H7xx_HAL_Driver/Src/stm32h7xx_hal_rcc.c ****   *
1355:Drivers/STM32H7xx_HAL_Driver/Src/stm32h7xx_hal_rcc.c ****   * @note   The result of this function could be not correct when using fractional
1356:Drivers/STM32H7xx_HAL_Driver/Src/stm32h7xx_hal_rcc.c ****   *         value for HSE crystal.
1357:Drivers/STM32H7xx_HAL_Driver/Src/stm32h7xx_hal_rcc.c ****   *
1358:Drivers/STM32H7xx_HAL_Driver/Src/stm32h7xx_hal_rcc.c ****   * @note   This function can be used by the user application to compute the
1359:Drivers/STM32H7xx_HAL_Driver/Src/stm32h7xx_hal_rcc.c ****   *         baud rate for the communication peripherals or configure other parameters.
1360:Drivers/STM32H7xx_HAL_Driver/Src/stm32h7xx_hal_rcc.c ****   *
1361:Drivers/STM32H7xx_HAL_Driver/Src/stm32h7xx_hal_rcc.c ****   * @note   Each time SYSCLK changes, this function must be called to update the
1362:Drivers/STM32H7xx_HAL_Driver/Src/stm32h7xx_hal_rcc.c ****   *         right SYSCLK value. Otherwise, any configuration based on this function will be incorre
1363:Drivers/STM32H7xx_HAL_Driver/Src/stm32h7xx_hal_rcc.c ****   *
1364:Drivers/STM32H7xx_HAL_Driver/Src/stm32h7xx_hal_rcc.c ****   *
1365:Drivers/STM32H7xx_HAL_Driver/Src/stm32h7xx_hal_rcc.c ****   * @retval SYSCLK frequency
1366:Drivers/STM32H7xx_HAL_Driver/Src/stm32h7xx_hal_rcc.c ****   */
1367:Drivers/STM32H7xx_HAL_Driver/Src/stm32h7xx_hal_rcc.c **** uint32_t HAL_RCC_GetSysClockFreq(void)
1368:Drivers/STM32H7xx_HAL_Driver/Src/stm32h7xx_hal_rcc.c **** {
 1879              		.loc 1 1368 1 is_stmt 1 view -0
 1880              		.cfi_startproc
 1881              		@ args = 0, pretend = 0, frame = 0
 1882              		@ frame_needed = 0, uses_anonymous_args = 0
 1883              		@ link register save eliminated.
1369:Drivers/STM32H7xx_HAL_Driver/Src/stm32h7xx_hal_rcc.c ****   uint32_t pllp, pllsource, pllm, pllfracen, hsivalue;
 1884              		.loc 1 1369 3 view .LVU611
1370:Drivers/STM32H7xx_HAL_Driver/Src/stm32h7xx_hal_rcc.c ****   float_t fracn1, pllvco;
 1885              		.loc 1 1370 3 view .LVU612
1371:Drivers/STM32H7xx_HAL_Driver/Src/stm32h7xx_hal_rcc.c ****   uint32_t sysclockfreq;
 1886              		.loc 1 1371 3 view .LVU613
1372:Drivers/STM32H7xx_HAL_Driver/Src/stm32h7xx_hal_rcc.c **** 
1373:Drivers/STM32H7xx_HAL_Driver/Src/stm32h7xx_hal_rcc.c ****   /* Get SYSCLK source -------------------------------------------------------*/
1374:Drivers/STM32H7xx_HAL_Driver/Src/stm32h7xx_hal_rcc.c **** 
1375:Drivers/STM32H7xx_HAL_Driver/Src/stm32h7xx_hal_rcc.c ****   switch (RCC->CFGR & RCC_CFGR_SWS)
 1887              		.loc 1 1375 3 view .LVU614
 1888              		.loc 1 1375 14 is_stmt 0 view .LVU615
 1889 0000 744B     		ldr	r3, .L185
 1890 0002 1B69     		ldr	r3, [r3, #16]
ARM GAS  C:\Users\ADMINI~1\AppData\Local\Temp\cc7xIC5f.s 			page 63


 1891              		.loc 1 1375 21 view .LVU616
 1892 0004 03F03803 		and	r3, r3, #56
 1893              		.loc 1 1375 3 view .LVU617
 1894 0008 102B     		cmp	r3, #16
 1895 000a 00F0DE80 		beq	.L177
 1896 000e 182B     		cmp	r3, #24
 1897 0010 10D0     		beq	.L171
 1898 0012 0BB1     		cbz	r3, .L183
 1899 0014 7048     		ldr	r0, .L185+4
 1900 0016 7047     		bx	lr
 1901              	.L183:
1376:Drivers/STM32H7xx_HAL_Driver/Src/stm32h7xx_hal_rcc.c ****   {
1377:Drivers/STM32H7xx_HAL_Driver/Src/stm32h7xx_hal_rcc.c ****   case RCC_CFGR_SWS_HSI:  /* HSI used as system clock source */
1378:Drivers/STM32H7xx_HAL_Driver/Src/stm32h7xx_hal_rcc.c **** 
1379:Drivers/STM32H7xx_HAL_Driver/Src/stm32h7xx_hal_rcc.c ****    if (__HAL_RCC_GET_FLAG(RCC_FLAG_HSIDIV) != 0U)
 1902              		.loc 1 1379 4 is_stmt 1 view .LVU618
 1903              		.loc 1 1379 8 is_stmt 0 view .LVU619
 1904 0018 6E4B     		ldr	r3, .L185
 1905 001a 1B68     		ldr	r3, [r3]
 1906              		.loc 1 1379 7 view .LVU620
 1907 001c 13F0200F 		tst	r3, #32
 1908 0020 00F0D580 		beq	.L179
1380:Drivers/STM32H7xx_HAL_Driver/Src/stm32h7xx_hal_rcc.c ****       {
1381:Drivers/STM32H7xx_HAL_Driver/Src/stm32h7xx_hal_rcc.c ****         sysclockfreq = (uint32_t) (HSI_VALUE >> (__HAL_RCC_GET_HSI_DIVIDER()>> 3));
 1909              		.loc 1 1381 9 is_stmt 1 view .LVU621
 1910              		.loc 1 1381 50 is_stmt 0 view .LVU622
 1911 0024 6B4B     		ldr	r3, .L185
 1912 0026 1868     		ldr	r0, [r3]
 1913              		.loc 1 1381 77 view .LVU623
 1914 0028 C0F3C100 		ubfx	r0, r0, #3, #2
 1915              		.loc 1 1381 22 view .LVU624
 1916 002c 6B4B     		ldr	r3, .L185+8
 1917 002e 23FA00F0 		lsr	r0, r3, r0
 1918              	.LVL150:
 1919              		.loc 1 1381 22 view .LVU625
 1920 0032 7047     		bx	lr
 1921              	.LVL151:
 1922              	.L171:
1368:Drivers/STM32H7xx_HAL_Driver/Src/stm32h7xx_hal_rcc.c ****   uint32_t pllp, pllsource, pllm, pllfracen, hsivalue;
 1923              		.loc 1 1368 1 view .LVU626
 1924 0034 10B4     		push	{r4}
 1925              	.LCFI8:
 1926              		.cfi_def_cfa_offset 4
 1927              		.cfi_offset 4, -4
1382:Drivers/STM32H7xx_HAL_Driver/Src/stm32h7xx_hal_rcc.c ****       }
1383:Drivers/STM32H7xx_HAL_Driver/Src/stm32h7xx_hal_rcc.c ****       else
1384:Drivers/STM32H7xx_HAL_Driver/Src/stm32h7xx_hal_rcc.c ****       {
1385:Drivers/STM32H7xx_HAL_Driver/Src/stm32h7xx_hal_rcc.c ****         sysclockfreq = (uint32_t) HSI_VALUE;
1386:Drivers/STM32H7xx_HAL_Driver/Src/stm32h7xx_hal_rcc.c ****       }
1387:Drivers/STM32H7xx_HAL_Driver/Src/stm32h7xx_hal_rcc.c **** 
1388:Drivers/STM32H7xx_HAL_Driver/Src/stm32h7xx_hal_rcc.c ****     break;
1389:Drivers/STM32H7xx_HAL_Driver/Src/stm32h7xx_hal_rcc.c **** 
1390:Drivers/STM32H7xx_HAL_Driver/Src/stm32h7xx_hal_rcc.c ****   case RCC_CFGR_SWS_CSI:  /* CSI used as system clock  source */
1391:Drivers/STM32H7xx_HAL_Driver/Src/stm32h7xx_hal_rcc.c ****     sysclockfreq = CSI_VALUE;
1392:Drivers/STM32H7xx_HAL_Driver/Src/stm32h7xx_hal_rcc.c ****     break;
1393:Drivers/STM32H7xx_HAL_Driver/Src/stm32h7xx_hal_rcc.c **** 
1394:Drivers/STM32H7xx_HAL_Driver/Src/stm32h7xx_hal_rcc.c ****   case RCC_CFGR_SWS_HSE:  /* HSE used as system clock  source */
ARM GAS  C:\Users\ADMINI~1\AppData\Local\Temp\cc7xIC5f.s 			page 64


1395:Drivers/STM32H7xx_HAL_Driver/Src/stm32h7xx_hal_rcc.c ****     sysclockfreq = HSE_VALUE;
1396:Drivers/STM32H7xx_HAL_Driver/Src/stm32h7xx_hal_rcc.c ****     break;
1397:Drivers/STM32H7xx_HAL_Driver/Src/stm32h7xx_hal_rcc.c **** 
1398:Drivers/STM32H7xx_HAL_Driver/Src/stm32h7xx_hal_rcc.c ****   case RCC_CFGR_SWS_PLL1:  /* PLL1 used as system clock  source */
1399:Drivers/STM32H7xx_HAL_Driver/Src/stm32h7xx_hal_rcc.c **** 
1400:Drivers/STM32H7xx_HAL_Driver/Src/stm32h7xx_hal_rcc.c ****     /* PLL_VCO = (HSE_VALUE or HSI_VALUE or CSI_VALUE/ PLLM) * PLLN
1401:Drivers/STM32H7xx_HAL_Driver/Src/stm32h7xx_hal_rcc.c ****     SYSCLK = PLL_VCO / PLLR
1402:Drivers/STM32H7xx_HAL_Driver/Src/stm32h7xx_hal_rcc.c ****     */
1403:Drivers/STM32H7xx_HAL_Driver/Src/stm32h7xx_hal_rcc.c ****     pllsource = (RCC->PLLCKSELR & RCC_PLLCKSELR_PLLSRC);
 1928              		.loc 1 1403 5 is_stmt 1 view .LVU627
 1929              		.loc 1 1403 21 is_stmt 0 view .LVU628
 1930 0036 674A     		ldr	r2, .L185
 1931 0038 916A     		ldr	r1, [r2, #40]
 1932              		.loc 1 1403 15 view .LVU629
 1933 003a 01F00301 		and	r1, r1, #3
 1934              	.LVL152:
1404:Drivers/STM32H7xx_HAL_Driver/Src/stm32h7xx_hal_rcc.c ****     pllm = ((RCC->PLLCKSELR & RCC_PLLCKSELR_DIVM1)>> 4)  ;
 1935              		.loc 1 1404 5 is_stmt 1 view .LVU630
 1936              		.loc 1 1404 17 is_stmt 0 view .LVU631
 1937 003e 946A     		ldr	r4, [r2, #40]
 1938              		.loc 1 1404 10 view .LVU632
 1939 0040 C4F30510 		ubfx	r0, r4, #4, #6
 1940              	.LVL153:
1405:Drivers/STM32H7xx_HAL_Driver/Src/stm32h7xx_hal_rcc.c ****     pllfracen = ((RCC-> PLLCFGR & RCC_PLLCFGR_PLL1FRACEN)>>RCC_PLLCFGR_PLL1FRACEN_Pos);
 1941              		.loc 1 1405 5 is_stmt 1 view .LVU633
 1942              		.loc 1 1405 22 is_stmt 0 view .LVU634
 1943 0044 D36A     		ldr	r3, [r2, #44]
 1944              		.loc 1 1405 15 view .LVU635
 1945 0046 03F0010C 		and	ip, r3, #1
 1946              	.LVL154:
1406:Drivers/STM32H7xx_HAL_Driver/Src/stm32h7xx_hal_rcc.c ****     fracn1 = (float_t)(uint32_t)(pllfracen* ((RCC->PLL1FRACR & RCC_PLL1FRACR_FRACN1)>> 3));
 1947              		.loc 1 1406 5 is_stmt 1 view .LVU636
 1948              		.loc 1 1406 50 is_stmt 0 view .LVU637
 1949 004a 536B     		ldr	r3, [r2, #52]
 1950              		.loc 1 1406 85 view .LVU638
 1951 004c C3F3CC03 		ubfx	r3, r3, #3, #13
 1952              		.loc 1 1406 23 view .LVU639
 1953 0050 0CFB03F3 		mul	r3, ip, r3
 1954              		.loc 1 1406 12 view .LVU640
 1955 0054 07EE903A 		vmov	s15, r3	@ int
 1956 0058 F8EE677A 		vcvt.f32.u32	s15, s15
 1957              	.LVL155:
1407:Drivers/STM32H7xx_HAL_Driver/Src/stm32h7xx_hal_rcc.c **** 
1408:Drivers/STM32H7xx_HAL_Driver/Src/stm32h7xx_hal_rcc.c ****     if (pllm != 0U)
 1958              		.loc 1 1408 5 is_stmt 1 view .LVU641
 1959              		.loc 1 1408 8 is_stmt 0 view .LVU642
 1960 005c 14F47C7F 		tst	r4, #1008
 1961 0060 00F09380 		beq	.L169
1409:Drivers/STM32H7xx_HAL_Driver/Src/stm32h7xx_hal_rcc.c ****     {
1410:Drivers/STM32H7xx_HAL_Driver/Src/stm32h7xx_hal_rcc.c ****       switch (pllsource)
 1962              		.loc 1 1410 7 is_stmt 1 view .LVU643
 1963 0064 0129     		cmp	r1, #1
 1964 0066 65D0     		beq	.L172
 1965 0068 0229     		cmp	r1, #2
 1966 006a 00F09180 		beq	.L173
 1967 006e E1B1     		cbz	r1, .L184
1411:Drivers/STM32H7xx_HAL_Driver/Src/stm32h7xx_hal_rcc.c ****       {
ARM GAS  C:\Users\ADMINI~1\AppData\Local\Temp\cc7xIC5f.s 			page 65


1412:Drivers/STM32H7xx_HAL_Driver/Src/stm32h7xx_hal_rcc.c ****       case RCC_PLLSOURCE_HSI:  /* HSI used as PLL clock source */
1413:Drivers/STM32H7xx_HAL_Driver/Src/stm32h7xx_hal_rcc.c **** 
1414:Drivers/STM32H7xx_HAL_Driver/Src/stm32h7xx_hal_rcc.c ****        if (__HAL_RCC_GET_FLAG(RCC_FLAG_HSIDIV) != 0U)
1415:Drivers/STM32H7xx_HAL_Driver/Src/stm32h7xx_hal_rcc.c ****         {
1416:Drivers/STM32H7xx_HAL_Driver/Src/stm32h7xx_hal_rcc.c ****           hsivalue= (HSI_VALUE >> (__HAL_RCC_GET_HSI_DIVIDER()>> 3));
1417:Drivers/STM32H7xx_HAL_Driver/Src/stm32h7xx_hal_rcc.c ****           pllvco = ( (float_t)hsivalue / (float_t)pllm) * ((float_t)(uint32_t)(RCC->PLL1DIVR & RCC_
1418:Drivers/STM32H7xx_HAL_Driver/Src/stm32h7xx_hal_rcc.c ****         }
1419:Drivers/STM32H7xx_HAL_Driver/Src/stm32h7xx_hal_rcc.c ****         else
1420:Drivers/STM32H7xx_HAL_Driver/Src/stm32h7xx_hal_rcc.c ****         {
1421:Drivers/STM32H7xx_HAL_Driver/Src/stm32h7xx_hal_rcc.c ****           pllvco = ((float_t)HSI_VALUE / (float_t)pllm) * ((float_t)(uint32_t)(RCC->PLL1DIVR & RCC_
1422:Drivers/STM32H7xx_HAL_Driver/Src/stm32h7xx_hal_rcc.c ****         }
1423:Drivers/STM32H7xx_HAL_Driver/Src/stm32h7xx_hal_rcc.c ****         break;
1424:Drivers/STM32H7xx_HAL_Driver/Src/stm32h7xx_hal_rcc.c **** 
1425:Drivers/STM32H7xx_HAL_Driver/Src/stm32h7xx_hal_rcc.c ****       case RCC_PLLSOURCE_CSI:  /* CSI used as PLL clock source */
1426:Drivers/STM32H7xx_HAL_Driver/Src/stm32h7xx_hal_rcc.c ****         pllvco = ((float_t)CSI_VALUE / (float_t)pllm) * ((float_t)(uint32_t)(RCC->PLL1DIVR & RCC_PL
1427:Drivers/STM32H7xx_HAL_Driver/Src/stm32h7xx_hal_rcc.c ****         break;
1428:Drivers/STM32H7xx_HAL_Driver/Src/stm32h7xx_hal_rcc.c **** 
1429:Drivers/STM32H7xx_HAL_Driver/Src/stm32h7xx_hal_rcc.c ****       case RCC_PLLSOURCE_HSE:  /* HSE used as PLL clock source */
1430:Drivers/STM32H7xx_HAL_Driver/Src/stm32h7xx_hal_rcc.c ****         pllvco = ((float_t)HSE_VALUE / (float_t)pllm) * ((float_t)(uint32_t)(RCC->PLL1DIVR & RCC_PL
1431:Drivers/STM32H7xx_HAL_Driver/Src/stm32h7xx_hal_rcc.c ****         break;
1432:Drivers/STM32H7xx_HAL_Driver/Src/stm32h7xx_hal_rcc.c **** 
1433:Drivers/STM32H7xx_HAL_Driver/Src/stm32h7xx_hal_rcc.c ****       default:
1434:Drivers/STM32H7xx_HAL_Driver/Src/stm32h7xx_hal_rcc.c ****         pllvco = ((float_t)CSI_VALUE / (float_t)pllm) * ((float_t)(uint32_t)(RCC->PLL1DIVR & RCC_PL
 1968              		.loc 1 1434 9 view .LVU644
 1969              		.loc 1 1434 40 is_stmt 0 view .LVU645
 1970 0070 07EE100A 		vmov	s14, r0	@ int
 1971 0074 F8EE476A 		vcvt.f32.u32	s13, s14
 1972              		.loc 1 1434 38 view .LVU646
 1973 0078 9FED596A 		vldr.32	s12, .L185+12
 1974 007c 86EE267A 		vdiv.f32	s14, s12, s13
 1975              		.loc 1 1434 81 view .LVU647
 1976 0080 544B     		ldr	r3, .L185
 1977 0082 1B6B     		ldr	r3, [r3, #48]
 1978              		.loc 1 1434 67 view .LVU648
 1979 0084 C3F30803 		ubfx	r3, r3, #0, #9
 1980              		.loc 1 1434 58 view .LVU649
 1981 0088 06EE903A 		vmov	s13, r3	@ int
 1982 008c F8EE666A 		vcvt.f32.u32	s13, s13
 1983              		.loc 1 1434 120 view .LVU650
 1984 0090 9FED546A 		vldr.32	s12, .L185+16
 1985 0094 67EE867A 		vmul.f32	s15, s15, s12
 1986              	.LVL156:
 1987              		.loc 1 1434 111 view .LVU651
 1988 0098 76EEA77A 		vadd.f32	s15, s13, s15
 1989              		.loc 1 1434 138 view .LVU652
 1990 009c F7EE006A 		vmov.f32	s13, #1.0e+0
 1991 00a0 77EEA67A 		vadd.f32	s15, s15, s13
 1992              		.loc 1 1434 16 view .LVU653
 1993 00a4 27EE277A 		vmul.f32	s14, s14, s15
 1994              	.LVL157:
1435:Drivers/STM32H7xx_HAL_Driver/Src/stm32h7xx_hal_rcc.c ****         break;
 1995              		.loc 1 1435 9 is_stmt 1 view .LVU654
 1996 00a8 60E0     		b	.L176
 1997              	.LVL158:
 1998              	.L184:
1414:Drivers/STM32H7xx_HAL_Driver/Src/stm32h7xx_hal_rcc.c ****         {
 1999              		.loc 1 1414 8 view .LVU655
ARM GAS  C:\Users\ADMINI~1\AppData\Local\Temp\cc7xIC5f.s 			page 66


1414:Drivers/STM32H7xx_HAL_Driver/Src/stm32h7xx_hal_rcc.c ****         {
 2000              		.loc 1 1414 12 is_stmt 0 view .LVU656
 2001 00aa 1368     		ldr	r3, [r2]
1414:Drivers/STM32H7xx_HAL_Driver/Src/stm32h7xx_hal_rcc.c ****         {
 2002              		.loc 1 1414 11 view .LVU657
 2003 00ac 13F0200F 		tst	r3, #32
 2004 00b0 23D0     		beq	.L175
1416:Drivers/STM32H7xx_HAL_Driver/Src/stm32h7xx_hal_rcc.c ****           pllvco = ( (float_t)hsivalue / (float_t)pllm) * ((float_t)(uint32_t)(RCC->PLL1DIVR & RCC_
 2005              		.loc 1 1416 11 is_stmt 1 view .LVU658
1416:Drivers/STM32H7xx_HAL_Driver/Src/stm32h7xx_hal_rcc.c ****           pllvco = ( (float_t)hsivalue / (float_t)pllm) * ((float_t)(uint32_t)(RCC->PLL1DIVR & RCC_
 2006              		.loc 1 1416 36 is_stmt 0 view .LVU659
 2007 00b2 1146     		mov	r1, r2
 2008              	.LVL159:
1416:Drivers/STM32H7xx_HAL_Driver/Src/stm32h7xx_hal_rcc.c ****           pllvco = ( (float_t)hsivalue / (float_t)pllm) * ((float_t)(uint32_t)(RCC->PLL1DIVR & RCC_
 2009              		.loc 1 1416 36 view .LVU660
 2010 00b4 1268     		ldr	r2, [r2]
1416:Drivers/STM32H7xx_HAL_Driver/Src/stm32h7xx_hal_rcc.c ****           pllvco = ( (float_t)hsivalue / (float_t)pllm) * ((float_t)(uint32_t)(RCC->PLL1DIVR & RCC_
 2011              		.loc 1 1416 63 view .LVU661
 2012 00b6 C2F3C102 		ubfx	r2, r2, #3, #2
1416:Drivers/STM32H7xx_HAL_Driver/Src/stm32h7xx_hal_rcc.c ****           pllvco = ( (float_t)hsivalue / (float_t)pllm) * ((float_t)(uint32_t)(RCC->PLL1DIVR & RCC_
 2013              		.loc 1 1416 19 view .LVU662
 2014 00ba 484B     		ldr	r3, .L185+8
 2015 00bc D340     		lsrs	r3, r3, r2
 2016              	.LVL160:
1417:Drivers/STM32H7xx_HAL_Driver/Src/stm32h7xx_hal_rcc.c ****         }
 2017              		.loc 1 1417 11 is_stmt 1 view .LVU663
1417:Drivers/STM32H7xx_HAL_Driver/Src/stm32h7xx_hal_rcc.c ****         }
 2018              		.loc 1 1417 22 is_stmt 0 view .LVU664
 2019 00be 07EE103A 		vmov	s14, r3	@ int
 2020 00c2 F8EE476A 		vcvt.f32.u32	s13, s14
1417:Drivers/STM32H7xx_HAL_Driver/Src/stm32h7xx_hal_rcc.c ****         }
 2021              		.loc 1 1417 42 view .LVU665
 2022 00c6 07EE100A 		vmov	s14, r0	@ int
 2023 00ca B8EE476A 		vcvt.f32.u32	s12, s14
1417:Drivers/STM32H7xx_HAL_Driver/Src/stm32h7xx_hal_rcc.c ****         }
 2024              		.loc 1 1417 40 view .LVU666
 2025 00ce 86EE867A 		vdiv.f32	s14, s13, s12
1417:Drivers/STM32H7xx_HAL_Driver/Src/stm32h7xx_hal_rcc.c ****         }
 2026              		.loc 1 1417 83 view .LVU667
 2027 00d2 0B6B     		ldr	r3, [r1, #48]
 2028              	.LVL161:
1417:Drivers/STM32H7xx_HAL_Driver/Src/stm32h7xx_hal_rcc.c ****         }
 2029              		.loc 1 1417 69 view .LVU668
 2030 00d4 C3F30803 		ubfx	r3, r3, #0, #9
1417:Drivers/STM32H7xx_HAL_Driver/Src/stm32h7xx_hal_rcc.c ****         }
 2031              		.loc 1 1417 60 view .LVU669
 2032 00d8 06EE903A 		vmov	s13, r3	@ int
 2033 00dc F8EE666A 		vcvt.f32.u32	s13, s13
1417:Drivers/STM32H7xx_HAL_Driver/Src/stm32h7xx_hal_rcc.c ****         }
 2034              		.loc 1 1417 122 view .LVU670
 2035 00e0 9FED406A 		vldr.32	s12, .L185+16
 2036 00e4 67EE867A 		vmul.f32	s15, s15, s12
 2037              	.LVL162:
1417:Drivers/STM32H7xx_HAL_Driver/Src/stm32h7xx_hal_rcc.c ****         }
 2038              		.loc 1 1417 113 view .LVU671
 2039 00e8 76EEA77A 		vadd.f32	s15, s13, s15
1417:Drivers/STM32H7xx_HAL_Driver/Src/stm32h7xx_hal_rcc.c ****         }
ARM GAS  C:\Users\ADMINI~1\AppData\Local\Temp\cc7xIC5f.s 			page 67


 2040              		.loc 1 1417 140 view .LVU672
 2041 00ec F7EE006A 		vmov.f32	s13, #1.0e+0
 2042 00f0 77EEA67A 		vadd.f32	s15, s15, s13
1417:Drivers/STM32H7xx_HAL_Driver/Src/stm32h7xx_hal_rcc.c ****         }
 2043              		.loc 1 1417 18 view .LVU673
 2044 00f4 27EE277A 		vmul.f32	s14, s14, s15
 2045              	.LVL163:
1417:Drivers/STM32H7xx_HAL_Driver/Src/stm32h7xx_hal_rcc.c ****         }
 2046              		.loc 1 1417 18 view .LVU674
 2047 00f8 38E0     		b	.L176
 2048              	.LVL164:
 2049              	.L175:
1421:Drivers/STM32H7xx_HAL_Driver/Src/stm32h7xx_hal_rcc.c ****         }
 2050              		.loc 1 1421 11 is_stmt 1 view .LVU675
1421:Drivers/STM32H7xx_HAL_Driver/Src/stm32h7xx_hal_rcc.c ****         }
 2051              		.loc 1 1421 42 is_stmt 0 view .LVU676
 2052 00fa 07EE100A 		vmov	s14, r0	@ int
 2053 00fe F8EE476A 		vcvt.f32.u32	s13, s14
1421:Drivers/STM32H7xx_HAL_Driver/Src/stm32h7xx_hal_rcc.c ****         }
 2054              		.loc 1 1421 40 view .LVU677
 2055 0102 9FED396A 		vldr.32	s12, .L185+20
 2056 0106 86EE267A 		vdiv.f32	s14, s12, s13
1421:Drivers/STM32H7xx_HAL_Driver/Src/stm32h7xx_hal_rcc.c ****         }
 2057              		.loc 1 1421 83 view .LVU678
 2058 010a 324B     		ldr	r3, .L185
 2059 010c 1B6B     		ldr	r3, [r3, #48]
1421:Drivers/STM32H7xx_HAL_Driver/Src/stm32h7xx_hal_rcc.c ****         }
 2060              		.loc 1 1421 69 view .LVU679
 2061 010e C3F30803 		ubfx	r3, r3, #0, #9
1421:Drivers/STM32H7xx_HAL_Driver/Src/stm32h7xx_hal_rcc.c ****         }
 2062              		.loc 1 1421 60 view .LVU680
 2063 0112 06EE903A 		vmov	s13, r3	@ int
 2064 0116 F8EE666A 		vcvt.f32.u32	s13, s13
1421:Drivers/STM32H7xx_HAL_Driver/Src/stm32h7xx_hal_rcc.c ****         }
 2065              		.loc 1 1421 122 view .LVU681
 2066 011a 9FED326A 		vldr.32	s12, .L185+16
 2067 011e 67EE867A 		vmul.f32	s15, s15, s12
 2068              	.LVL165:
1421:Drivers/STM32H7xx_HAL_Driver/Src/stm32h7xx_hal_rcc.c ****         }
 2069              		.loc 1 1421 113 view .LVU682
 2070 0122 76EEA77A 		vadd.f32	s15, s13, s15
1421:Drivers/STM32H7xx_HAL_Driver/Src/stm32h7xx_hal_rcc.c ****         }
 2071              		.loc 1 1421 140 view .LVU683
 2072 0126 F7EE006A 		vmov.f32	s13, #1.0e+0
 2073 012a 77EEA67A 		vadd.f32	s15, s15, s13
1421:Drivers/STM32H7xx_HAL_Driver/Src/stm32h7xx_hal_rcc.c ****         }
 2074              		.loc 1 1421 18 view .LVU684
 2075 012e 27EE277A 		vmul.f32	s14, s14, s15
 2076              	.LVL166:
1421:Drivers/STM32H7xx_HAL_Driver/Src/stm32h7xx_hal_rcc.c ****         }
 2077              		.loc 1 1421 18 view .LVU685
 2078 0132 1BE0     		b	.L176
 2079              	.LVL167:
 2080              	.L172:
1426:Drivers/STM32H7xx_HAL_Driver/Src/stm32h7xx_hal_rcc.c ****         break;
 2081              		.loc 1 1426 9 is_stmt 1 view .LVU686
1426:Drivers/STM32H7xx_HAL_Driver/Src/stm32h7xx_hal_rcc.c ****         break;
ARM GAS  C:\Users\ADMINI~1\AppData\Local\Temp\cc7xIC5f.s 			page 68


 2082              		.loc 1 1426 40 is_stmt 0 view .LVU687
 2083 0134 07EE100A 		vmov	s14, r0	@ int
 2084 0138 F8EE476A 		vcvt.f32.u32	s13, s14
1426:Drivers/STM32H7xx_HAL_Driver/Src/stm32h7xx_hal_rcc.c ****         break;
 2085              		.loc 1 1426 38 view .LVU688
 2086 013c 9FED286A 		vldr.32	s12, .L185+12
 2087 0140 86EE267A 		vdiv.f32	s14, s12, s13
1426:Drivers/STM32H7xx_HAL_Driver/Src/stm32h7xx_hal_rcc.c ****         break;
 2088              		.loc 1 1426 81 view .LVU689
 2089 0144 234B     		ldr	r3, .L185
 2090 0146 1B6B     		ldr	r3, [r3, #48]
1426:Drivers/STM32H7xx_HAL_Driver/Src/stm32h7xx_hal_rcc.c ****         break;
 2091              		.loc 1 1426 67 view .LVU690
 2092 0148 C3F30803 		ubfx	r3, r3, #0, #9
1426:Drivers/STM32H7xx_HAL_Driver/Src/stm32h7xx_hal_rcc.c ****         break;
 2093              		.loc 1 1426 58 view .LVU691
 2094 014c 06EE903A 		vmov	s13, r3	@ int
 2095 0150 F8EE666A 		vcvt.f32.u32	s13, s13
1426:Drivers/STM32H7xx_HAL_Driver/Src/stm32h7xx_hal_rcc.c ****         break;
 2096              		.loc 1 1426 120 view .LVU692
 2097 0154 9FED236A 		vldr.32	s12, .L185+16
 2098 0158 67EE867A 		vmul.f32	s15, s15, s12
 2099              	.LVL168:
1426:Drivers/STM32H7xx_HAL_Driver/Src/stm32h7xx_hal_rcc.c ****         break;
 2100              		.loc 1 1426 111 view .LVU693
 2101 015c 76EEA77A 		vadd.f32	s15, s13, s15
1426:Drivers/STM32H7xx_HAL_Driver/Src/stm32h7xx_hal_rcc.c ****         break;
 2102              		.loc 1 1426 138 view .LVU694
 2103 0160 F7EE006A 		vmov.f32	s13, #1.0e+0
 2104 0164 77EEA67A 		vadd.f32	s15, s15, s13
1426:Drivers/STM32H7xx_HAL_Driver/Src/stm32h7xx_hal_rcc.c ****         break;
 2105              		.loc 1 1426 16 view .LVU695
 2106 0168 27EE277A 		vmul.f32	s14, s14, s15
 2107              	.LVL169:
1427:Drivers/STM32H7xx_HAL_Driver/Src/stm32h7xx_hal_rcc.c **** 
 2108              		.loc 1 1427 9 is_stmt 1 view .LVU696
 2109              	.L176:
1436:Drivers/STM32H7xx_HAL_Driver/Src/stm32h7xx_hal_rcc.c ****       }
1437:Drivers/STM32H7xx_HAL_Driver/Src/stm32h7xx_hal_rcc.c ****       pllp = (((RCC->PLL1DIVR & RCC_PLL1DIVR_P1) >>9) + 1U ) ;
 2110              		.loc 1 1437 7 view .LVU697
 2111              		.loc 1 1437 20 is_stmt 0 view .LVU698
 2112 016c 194B     		ldr	r3, .L185
 2113 016e 1B6B     		ldr	r3, [r3, #48]
 2114              		.loc 1 1437 50 view .LVU699
 2115 0170 C3F34623 		ubfx	r3, r3, #9, #7
 2116              		.loc 1 1437 12 view .LVU700
 2117 0174 0133     		adds	r3, r3, #1
 2118              	.LVL170:
1438:Drivers/STM32H7xx_HAL_Driver/Src/stm32h7xx_hal_rcc.c ****       sysclockfreq =  (uint32_t)(float_t)(pllvco/(float_t)pllp);
 2119              		.loc 1 1438 7 is_stmt 1 view .LVU701
 2120              		.loc 1 1438 50 is_stmt 0 view .LVU702
 2121 0176 07EE903A 		vmov	s15, r3	@ int
 2122 017a F8EE677A 		vcvt.f32.u32	s15, s15
 2123              		.loc 1 1438 33 view .LVU703
 2124 017e C7EE276A 		vdiv.f32	s13, s14, s15
 2125              		.loc 1 1438 20 view .LVU704
 2126 0182 FCEEE67A 		vcvt.u32.f32	s15, s13
ARM GAS  C:\Users\ADMINI~1\AppData\Local\Temp\cc7xIC5f.s 			page 69


 2127 0186 17EE900A 		vmov	r0, s15	@ int
 2128              	.LVL171:
 2129              	.L169:
1439:Drivers/STM32H7xx_HAL_Driver/Src/stm32h7xx_hal_rcc.c ****     }
1440:Drivers/STM32H7xx_HAL_Driver/Src/stm32h7xx_hal_rcc.c ****     else
1441:Drivers/STM32H7xx_HAL_Driver/Src/stm32h7xx_hal_rcc.c ****     {
1442:Drivers/STM32H7xx_HAL_Driver/Src/stm32h7xx_hal_rcc.c ****       sysclockfreq = 0U;
1443:Drivers/STM32H7xx_HAL_Driver/Src/stm32h7xx_hal_rcc.c ****     }
1444:Drivers/STM32H7xx_HAL_Driver/Src/stm32h7xx_hal_rcc.c ****     break;
1445:Drivers/STM32H7xx_HAL_Driver/Src/stm32h7xx_hal_rcc.c **** 
1446:Drivers/STM32H7xx_HAL_Driver/Src/stm32h7xx_hal_rcc.c ****   default:
1447:Drivers/STM32H7xx_HAL_Driver/Src/stm32h7xx_hal_rcc.c ****     sysclockfreq = CSI_VALUE;
1448:Drivers/STM32H7xx_HAL_Driver/Src/stm32h7xx_hal_rcc.c ****     break;
1449:Drivers/STM32H7xx_HAL_Driver/Src/stm32h7xx_hal_rcc.c ****   }
1450:Drivers/STM32H7xx_HAL_Driver/Src/stm32h7xx_hal_rcc.c **** 
1451:Drivers/STM32H7xx_HAL_Driver/Src/stm32h7xx_hal_rcc.c ****   return sysclockfreq;
1452:Drivers/STM32H7xx_HAL_Driver/Src/stm32h7xx_hal_rcc.c **** }
 2130              		.loc 1 1452 1 view .LVU705
 2131 018a 5DF8044B 		ldr	r4, [sp], #4
 2132              	.LCFI9:
 2133              		.cfi_remember_state
 2134              		.cfi_restore 4
 2135              		.cfi_def_cfa_offset 0
 2136              	.LVL172:
 2137              		.loc 1 1452 1 view .LVU706
 2138 018e 7047     		bx	lr
 2139              	.LVL173:
 2140              	.L173:
 2141              	.LCFI10:
 2142              		.cfi_restore_state
1430:Drivers/STM32H7xx_HAL_Driver/Src/stm32h7xx_hal_rcc.c ****         break;
 2143              		.loc 1 1430 9 is_stmt 1 view .LVU707
1430:Drivers/STM32H7xx_HAL_Driver/Src/stm32h7xx_hal_rcc.c ****         break;
 2144              		.loc 1 1430 40 is_stmt 0 view .LVU708
 2145 0190 07EE100A 		vmov	s14, r0	@ int
 2146 0194 F8EE476A 		vcvt.f32.u32	s13, s14
1430:Drivers/STM32H7xx_HAL_Driver/Src/stm32h7xx_hal_rcc.c ****         break;
 2147              		.loc 1 1430 38 view .LVU709
 2148 0198 9FED146A 		vldr.32	s12, .L185+24
 2149 019c 86EE267A 		vdiv.f32	s14, s12, s13
1430:Drivers/STM32H7xx_HAL_Driver/Src/stm32h7xx_hal_rcc.c ****         break;
 2150              		.loc 1 1430 81 view .LVU710
 2151 01a0 0C4B     		ldr	r3, .L185
 2152 01a2 1B6B     		ldr	r3, [r3, #48]
1430:Drivers/STM32H7xx_HAL_Driver/Src/stm32h7xx_hal_rcc.c ****         break;
 2153              		.loc 1 1430 67 view .LVU711
 2154 01a4 C3F30803 		ubfx	r3, r3, #0, #9
1430:Drivers/STM32H7xx_HAL_Driver/Src/stm32h7xx_hal_rcc.c ****         break;
 2155              		.loc 1 1430 58 view .LVU712
 2156 01a8 06EE903A 		vmov	s13, r3	@ int
 2157 01ac F8EE666A 		vcvt.f32.u32	s13, s13
1430:Drivers/STM32H7xx_HAL_Driver/Src/stm32h7xx_hal_rcc.c ****         break;
 2158              		.loc 1 1430 120 view .LVU713
 2159 01b0 9FED0C6A 		vldr.32	s12, .L185+16
 2160 01b4 67EE867A 		vmul.f32	s15, s15, s12
 2161              	.LVL174:
1430:Drivers/STM32H7xx_HAL_Driver/Src/stm32h7xx_hal_rcc.c ****         break;
ARM GAS  C:\Users\ADMINI~1\AppData\Local\Temp\cc7xIC5f.s 			page 70


 2162              		.loc 1 1430 111 view .LVU714
 2163 01b8 76EEA77A 		vadd.f32	s15, s13, s15
1430:Drivers/STM32H7xx_HAL_Driver/Src/stm32h7xx_hal_rcc.c ****         break;
 2164              		.loc 1 1430 138 view .LVU715
 2165 01bc F7EE006A 		vmov.f32	s13, #1.0e+0
 2166 01c0 77EEA67A 		vadd.f32	s15, s15, s13
1430:Drivers/STM32H7xx_HAL_Driver/Src/stm32h7xx_hal_rcc.c ****         break;
 2167              		.loc 1 1430 16 view .LVU716
 2168 01c4 27EE277A 		vmul.f32	s14, s14, s15
 2169              	.LVL175:
1431:Drivers/STM32H7xx_HAL_Driver/Src/stm32h7xx_hal_rcc.c **** 
 2170              		.loc 1 1431 9 is_stmt 1 view .LVU717
 2171 01c8 D0E7     		b	.L176
 2172              	.LVL176:
 2173              	.L177:
 2174              	.LCFI11:
 2175              		.cfi_def_cfa_offset 0
 2176              		.cfi_restore 4
1395:Drivers/STM32H7xx_HAL_Driver/Src/stm32h7xx_hal_rcc.c ****     break;
 2177              		.loc 1 1395 18 is_stmt 0 view .LVU718
 2178 01ca 0948     		ldr	r0, .L185+28
 2179 01cc 7047     		bx	lr
 2180              	.L179:
1385:Drivers/STM32H7xx_HAL_Driver/Src/stm32h7xx_hal_rcc.c ****       }
 2181              		.loc 1 1385 22 view .LVU719
 2182 01ce 0348     		ldr	r0, .L185+8
 2183              	.LVL177:
1451:Drivers/STM32H7xx_HAL_Driver/Src/stm32h7xx_hal_rcc.c **** }
 2184              		.loc 1 1451 3 is_stmt 1 view .LVU720
 2185              		.loc 1 1452 1 is_stmt 0 view .LVU721
 2186 01d0 7047     		bx	lr
 2187              	.L186:
 2188 01d2 00BF     		.align	2
 2189              	.L185:
 2190 01d4 00440258 		.word	1476543488
 2191 01d8 00093D00 		.word	4000000
 2192 01dc 0090D003 		.word	64000000
 2193 01e0 0024744A 		.word	1249125376
 2194 01e4 00000039 		.word	956301312
 2195 01e8 0024744C 		.word	1282679808
 2196 01ec 20BCBE4B 		.word	1270791200
 2197 01f0 40787D01 		.word	25000000
 2198              		.cfi_endproc
 2199              	.LFE150:
 2201              		.section	.text.HAL_RCC_ClockConfig,"ax",%progbits
 2202              		.align	1
 2203              		.global	HAL_RCC_ClockConfig
 2204              		.syntax unified
 2205              		.thumb
 2206              		.thumb_func
 2207              		.fpu fpv5-d16
 2209              	HAL_RCC_ClockConfig:
 2210              	.LVL178:
 2211              	.LFB146:
 902:Drivers/STM32H7xx_HAL_Driver/Src/stm32h7xx_hal_rcc.c ****   HAL_StatusTypeDef halstatus;
 2212              		.loc 1 902 1 is_stmt 1 view -0
 2213              		.cfi_startproc
ARM GAS  C:\Users\ADMINI~1\AppData\Local\Temp\cc7xIC5f.s 			page 71


 2214              		@ args = 0, pretend = 0, frame = 0
 2215              		@ frame_needed = 0, uses_anonymous_args = 0
 903:Drivers/STM32H7xx_HAL_Driver/Src/stm32h7xx_hal_rcc.c ****   uint32_t tickstart;
 2216              		.loc 1 903 3 view .LVU723
 904:Drivers/STM32H7xx_HAL_Driver/Src/stm32h7xx_hal_rcc.c ****   uint32_t common_system_clock;
 2217              		.loc 1 904 3 view .LVU724
 905:Drivers/STM32H7xx_HAL_Driver/Src/stm32h7xx_hal_rcc.c **** 
 2218              		.loc 1 905 3 view .LVU725
 908:Drivers/STM32H7xx_HAL_Driver/Src/stm32h7xx_hal_rcc.c ****   {
 2219              		.loc 1 908 3 view .LVU726
 908:Drivers/STM32H7xx_HAL_Driver/Src/stm32h7xx_hal_rcc.c ****   {
 2220              		.loc 1 908 5 is_stmt 0 view .LVU727
 2221 0000 0028     		cmp	r0, #0
 2222 0002 00F03281 		beq	.L208
 902:Drivers/STM32H7xx_HAL_Driver/Src/stm32h7xx_hal_rcc.c ****   HAL_StatusTypeDef halstatus;
 2223              		.loc 1 902 1 view .LVU728
 2224 0006 70B5     		push	{r4, r5, r6, lr}
 2225              	.LCFI12:
 2226              		.cfi_def_cfa_offset 16
 2227              		.cfi_offset 4, -16
 2228              		.cfi_offset 5, -12
 2229              		.cfi_offset 6, -8
 2230              		.cfi_offset 14, -4
 2231 0008 0D46     		mov	r5, r1
 2232 000a 0446     		mov	r4, r0
 914:Drivers/STM32H7xx_HAL_Driver/Src/stm32h7xx_hal_rcc.c ****   assert_param(IS_FLASH_LATENCY(FLatency));
 2233              		.loc 1 914 3 is_stmt 1 view .LVU729
 915:Drivers/STM32H7xx_HAL_Driver/Src/stm32h7xx_hal_rcc.c **** 
 2234              		.loc 1 915 3 view .LVU730
 922:Drivers/STM32H7xx_HAL_Driver/Src/stm32h7xx_hal_rcc.c ****   {
 2235              		.loc 1 922 3 view .LVU731
 922:Drivers/STM32H7xx_HAL_Driver/Src/stm32h7xx_hal_rcc.c ****   {
 2236              		.loc 1 922 17 is_stmt 0 view .LVU732
 2237 000c 9B4B     		ldr	r3, .L224
 2238 000e 1B68     		ldr	r3, [r3]
 2239 0010 03F00F03 		and	r3, r3, #15
 922:Drivers/STM32H7xx_HAL_Driver/Src/stm32h7xx_hal_rcc.c ****   {
 2240              		.loc 1 922 5 view .LVU733
 2241 0014 8B42     		cmp	r3, r1
 2242 0016 0BD2     		bcs	.L189
 925:Drivers/STM32H7xx_HAL_Driver/Src/stm32h7xx_hal_rcc.c **** 
 2243              		.loc 1 925 5 is_stmt 1 view .LVU734
 2244 0018 984A     		ldr	r2, .L224
 2245 001a 1368     		ldr	r3, [r2]
 2246 001c 23F00F03 		bic	r3, r3, #15
 2247 0020 0B43     		orrs	r3, r3, r1
 2248 0022 1360     		str	r3, [r2]
 929:Drivers/STM32H7xx_HAL_Driver/Src/stm32h7xx_hal_rcc.c ****     {
 2249              		.loc 1 929 5 view .LVU735
 929:Drivers/STM32H7xx_HAL_Driver/Src/stm32h7xx_hal_rcc.c ****     {
 2250              		.loc 1 929 8 is_stmt 0 view .LVU736
 2251 0024 1368     		ldr	r3, [r2]
 2252 0026 03F00F03 		and	r3, r3, #15
 929:Drivers/STM32H7xx_HAL_Driver/Src/stm32h7xx_hal_rcc.c ****     {
 2253              		.loc 1 929 7 view .LVU737
 2254 002a 8B42     		cmp	r3, r1
 2255 002c 40F01F81 		bne	.L209
ARM GAS  C:\Users\ADMINI~1\AppData\Local\Temp\cc7xIC5f.s 			page 72


 2256              	.L189:
 938:Drivers/STM32H7xx_HAL_Driver/Src/stm32h7xx_hal_rcc.c ****   {
 2257              		.loc 1 938 3 is_stmt 1 view .LVU738
 938:Drivers/STM32H7xx_HAL_Driver/Src/stm32h7xx_hal_rcc.c ****   {
 2258              		.loc 1 938 25 is_stmt 0 view .LVU739
 2259 0030 2368     		ldr	r3, [r4]
 938:Drivers/STM32H7xx_HAL_Driver/Src/stm32h7xx_hal_rcc.c ****   {
 2260              		.loc 1 938 5 view .LVU740
 2261 0032 13F0040F 		tst	r3, #4
 2262 0036 0CD0     		beq	.L190
 941:Drivers/STM32H7xx_HAL_Driver/Src/stm32h7xx_hal_rcc.c ****     {
 2263              		.loc 1 941 5 is_stmt 1 view .LVU741
 941:Drivers/STM32H7xx_HAL_Driver/Src/stm32h7xx_hal_rcc.c ****     {
 2264              		.loc 1 941 26 is_stmt 0 view .LVU742
 2265 0038 2269     		ldr	r2, [r4, #16]
 941:Drivers/STM32H7xx_HAL_Driver/Src/stm32h7xx_hal_rcc.c ****     {
 2266              		.loc 1 941 50 view .LVU743
 2267 003a 914B     		ldr	r3, .L224+4
 2268 003c 9B69     		ldr	r3, [r3, #24]
 941:Drivers/STM32H7xx_HAL_Driver/Src/stm32h7xx_hal_rcc.c ****     {
 2269              		.loc 1 941 59 view .LVU744
 2270 003e 03F07003 		and	r3, r3, #112
 941:Drivers/STM32H7xx_HAL_Driver/Src/stm32h7xx_hal_rcc.c ****     {
 2271              		.loc 1 941 7 view .LVU745
 2272 0042 9A42     		cmp	r2, r3
 2273 0044 05D9     		bls	.L190
 943:Drivers/STM32H7xx_HAL_Driver/Src/stm32h7xx_hal_rcc.c ****       MODIFY_REG(RCC->D1CFGR, RCC_D1CFGR_D1PPRE, RCC_ClkInitStruct->APB3CLKDivider);
 2274              		.loc 1 943 7 is_stmt 1 view .LVU746
 944:Drivers/STM32H7xx_HAL_Driver/Src/stm32h7xx_hal_rcc.c ****     }
 2275              		.loc 1 944 7 view .LVU747
 2276 0046 8E49     		ldr	r1, .L224+4
 2277              	.LVL179:
 944:Drivers/STM32H7xx_HAL_Driver/Src/stm32h7xx_hal_rcc.c ****     }
 2278              		.loc 1 944 7 is_stmt 0 view .LVU748
 2279 0048 8B69     		ldr	r3, [r1, #24]
 2280 004a 23F07003 		bic	r3, r3, #112
 2281 004e 1A43     		orrs	r2, r2, r3
 2282 0050 8A61     		str	r2, [r1, #24]
 2283              	.L190:
 956:Drivers/STM32H7xx_HAL_Driver/Src/stm32h7xx_hal_rcc.c ****   {
 2284              		.loc 1 956 3 is_stmt 1 view .LVU749
 956:Drivers/STM32H7xx_HAL_Driver/Src/stm32h7xx_hal_rcc.c ****   {
 2285              		.loc 1 956 25 is_stmt 0 view .LVU750
 2286 0052 2368     		ldr	r3, [r4]
 956:Drivers/STM32H7xx_HAL_Driver/Src/stm32h7xx_hal_rcc.c ****   {
 2287              		.loc 1 956 5 view .LVU751
 2288 0054 13F0080F 		tst	r3, #8
 2289 0058 0CD0     		beq	.L191
 959:Drivers/STM32H7xx_HAL_Driver/Src/stm32h7xx_hal_rcc.c ****     {
 2290              		.loc 1 959 5 is_stmt 1 view .LVU752
 959:Drivers/STM32H7xx_HAL_Driver/Src/stm32h7xx_hal_rcc.c ****     {
 2291              		.loc 1 959 26 is_stmt 0 view .LVU753
 2292 005a 6269     		ldr	r2, [r4, #20]
 959:Drivers/STM32H7xx_HAL_Driver/Src/stm32h7xx_hal_rcc.c ****     {
 2293              		.loc 1 959 50 view .LVU754
 2294 005c 884B     		ldr	r3, .L224+4
 2295 005e DB69     		ldr	r3, [r3, #28]
ARM GAS  C:\Users\ADMINI~1\AppData\Local\Temp\cc7xIC5f.s 			page 73


 959:Drivers/STM32H7xx_HAL_Driver/Src/stm32h7xx_hal_rcc.c ****     {
 2296              		.loc 1 959 59 view .LVU755
 2297 0060 03F07003 		and	r3, r3, #112
 959:Drivers/STM32H7xx_HAL_Driver/Src/stm32h7xx_hal_rcc.c ****     {
 2298              		.loc 1 959 7 view .LVU756
 2299 0064 9A42     		cmp	r2, r3
 2300 0066 05D9     		bls	.L191
 961:Drivers/STM32H7xx_HAL_Driver/Src/stm32h7xx_hal_rcc.c ****       MODIFY_REG(RCC->D2CFGR, RCC_D2CFGR_D2PPRE1, (RCC_ClkInitStruct->APB1CLKDivider));
 2301              		.loc 1 961 7 is_stmt 1 view .LVU757
 962:Drivers/STM32H7xx_HAL_Driver/Src/stm32h7xx_hal_rcc.c ****     }
 2302              		.loc 1 962 7 view .LVU758
 2303 0068 8549     		ldr	r1, .L224+4
 2304 006a CB69     		ldr	r3, [r1, #28]
 2305 006c 23F07003 		bic	r3, r3, #112
 2306 0070 1A43     		orrs	r2, r2, r3
 2307 0072 CA61     		str	r2, [r1, #28]
 2308              	.L191:
 973:Drivers/STM32H7xx_HAL_Driver/Src/stm32h7xx_hal_rcc.c ****   {
 2309              		.loc 1 973 3 view .LVU759
 973:Drivers/STM32H7xx_HAL_Driver/Src/stm32h7xx_hal_rcc.c ****   {
 2310              		.loc 1 973 25 is_stmt 0 view .LVU760
 2311 0074 2368     		ldr	r3, [r4]
 973:Drivers/STM32H7xx_HAL_Driver/Src/stm32h7xx_hal_rcc.c ****   {
 2312              		.loc 1 973 5 view .LVU761
 2313 0076 13F0100F 		tst	r3, #16
 2314 007a 0CD0     		beq	.L192
 976:Drivers/STM32H7xx_HAL_Driver/Src/stm32h7xx_hal_rcc.c ****     {
 2315              		.loc 1 976 5 is_stmt 1 view .LVU762
 976:Drivers/STM32H7xx_HAL_Driver/Src/stm32h7xx_hal_rcc.c ****     {
 2316              		.loc 1 976 26 is_stmt 0 view .LVU763
 2317 007c A269     		ldr	r2, [r4, #24]
 976:Drivers/STM32H7xx_HAL_Driver/Src/stm32h7xx_hal_rcc.c ****     {
 2318              		.loc 1 976 50 view .LVU764
 2319 007e 804B     		ldr	r3, .L224+4
 2320 0080 DB69     		ldr	r3, [r3, #28]
 976:Drivers/STM32H7xx_HAL_Driver/Src/stm32h7xx_hal_rcc.c ****     {
 2321              		.loc 1 976 59 view .LVU765
 2322 0082 03F4E063 		and	r3, r3, #1792
 976:Drivers/STM32H7xx_HAL_Driver/Src/stm32h7xx_hal_rcc.c ****     {
 2323              		.loc 1 976 7 view .LVU766
 2324 0086 9A42     		cmp	r2, r3
 2325 0088 05D9     		bls	.L192
 978:Drivers/STM32H7xx_HAL_Driver/Src/stm32h7xx_hal_rcc.c ****       MODIFY_REG(RCC->D2CFGR, RCC_D2CFGR_D2PPRE2, (RCC_ClkInitStruct->APB2CLKDivider));
 2326              		.loc 1 978 7 is_stmt 1 view .LVU767
 979:Drivers/STM32H7xx_HAL_Driver/Src/stm32h7xx_hal_rcc.c ****     }
 2327              		.loc 1 979 7 view .LVU768
 2328 008a 7D49     		ldr	r1, .L224+4
 2329 008c CB69     		ldr	r3, [r1, #28]
 2330 008e 23F4E063 		bic	r3, r3, #1792
 2331 0092 1A43     		orrs	r2, r2, r3
 2332 0094 CA61     		str	r2, [r1, #28]
 2333              	.L192:
 991:Drivers/STM32H7xx_HAL_Driver/Src/stm32h7xx_hal_rcc.c ****   {
 2334              		.loc 1 991 3 view .LVU769
 991:Drivers/STM32H7xx_HAL_Driver/Src/stm32h7xx_hal_rcc.c ****   {
 2335              		.loc 1 991 25 is_stmt 0 view .LVU770
 2336 0096 2368     		ldr	r3, [r4]
ARM GAS  C:\Users\ADMINI~1\AppData\Local\Temp\cc7xIC5f.s 			page 74


 991:Drivers/STM32H7xx_HAL_Driver/Src/stm32h7xx_hal_rcc.c ****   {
 2337              		.loc 1 991 5 view .LVU771
 2338 0098 13F0200F 		tst	r3, #32
 2339 009c 0CD0     		beq	.L193
 994:Drivers/STM32H7xx_HAL_Driver/Src/stm32h7xx_hal_rcc.c ****     {
 2340              		.loc 1 994 5 is_stmt 1 view .LVU772
 994:Drivers/STM32H7xx_HAL_Driver/Src/stm32h7xx_hal_rcc.c ****     {
 2341              		.loc 1 994 26 is_stmt 0 view .LVU773
 2342 009e E269     		ldr	r2, [r4, #28]
 994:Drivers/STM32H7xx_HAL_Driver/Src/stm32h7xx_hal_rcc.c ****     {
 2343              		.loc 1 994 50 view .LVU774
 2344 00a0 774B     		ldr	r3, .L224+4
 2345 00a2 1B6A     		ldr	r3, [r3, #32]
 994:Drivers/STM32H7xx_HAL_Driver/Src/stm32h7xx_hal_rcc.c ****     {
 2346              		.loc 1 994 59 view .LVU775
 2347 00a4 03F07003 		and	r3, r3, #112
 994:Drivers/STM32H7xx_HAL_Driver/Src/stm32h7xx_hal_rcc.c ****     {
 2348              		.loc 1 994 7 view .LVU776
 2349 00a8 9A42     		cmp	r2, r3
 2350 00aa 05D9     		bls	.L193
 996:Drivers/STM32H7xx_HAL_Driver/Src/stm32h7xx_hal_rcc.c ****       MODIFY_REG(RCC->D3CFGR, RCC_D3CFGR_D3PPRE, (RCC_ClkInitStruct->APB4CLKDivider) );
 2351              		.loc 1 996 7 is_stmt 1 view .LVU777
 997:Drivers/STM32H7xx_HAL_Driver/Src/stm32h7xx_hal_rcc.c ****     }
 2352              		.loc 1 997 7 view .LVU778
 2353 00ac 7449     		ldr	r1, .L224+4
 2354 00ae 0B6A     		ldr	r3, [r1, #32]
 2355 00b0 23F07003 		bic	r3, r3, #112
 2356 00b4 1A43     		orrs	r2, r2, r3
 2357 00b6 0A62     		str	r2, [r1, #32]
 2358              	.L193:
1009:Drivers/STM32H7xx_HAL_Driver/Src/stm32h7xx_hal_rcc.c ****   {
 2359              		.loc 1 1009 3 view .LVU779
1009:Drivers/STM32H7xx_HAL_Driver/Src/stm32h7xx_hal_rcc.c ****   {
 2360              		.loc 1 1009 25 is_stmt 0 view .LVU780
 2361 00b8 2368     		ldr	r3, [r4]
1009:Drivers/STM32H7xx_HAL_Driver/Src/stm32h7xx_hal_rcc.c ****   {
 2362              		.loc 1 1009 5 view .LVU781
 2363 00ba 13F0020F 		tst	r3, #2
 2364 00be 0CD0     		beq	.L194
1012:Drivers/STM32H7xx_HAL_Driver/Src/stm32h7xx_hal_rcc.c ****     {
 2365              		.loc 1 1012 5 is_stmt 1 view .LVU782
1012:Drivers/STM32H7xx_HAL_Driver/Src/stm32h7xx_hal_rcc.c ****     {
 2366              		.loc 1 1012 26 is_stmt 0 view .LVU783
 2367 00c0 E268     		ldr	r2, [r4, #12]
1012:Drivers/STM32H7xx_HAL_Driver/Src/stm32h7xx_hal_rcc.c ****     {
 2368              		.loc 1 1012 49 view .LVU784
 2369 00c2 6F4B     		ldr	r3, .L224+4
 2370 00c4 9B69     		ldr	r3, [r3, #24]
1012:Drivers/STM32H7xx_HAL_Driver/Src/stm32h7xx_hal_rcc.c ****     {
 2371              		.loc 1 1012 58 view .LVU785
 2372 00c6 03F00F03 		and	r3, r3, #15
1012:Drivers/STM32H7xx_HAL_Driver/Src/stm32h7xx_hal_rcc.c ****     {
 2373              		.loc 1 1012 7 view .LVU786
 2374 00ca 9A42     		cmp	r2, r3
 2375 00cc 05D9     		bls	.L194
1015:Drivers/STM32H7xx_HAL_Driver/Src/stm32h7xx_hal_rcc.c ****       MODIFY_REG(RCC->D1CFGR, RCC_D1CFGR_HPRE, RCC_ClkInitStruct->AHBCLKDivider);
 2376              		.loc 1 1015 7 is_stmt 1 view .LVU787
ARM GAS  C:\Users\ADMINI~1\AppData\Local\Temp\cc7xIC5f.s 			page 75


1016:Drivers/STM32H7xx_HAL_Driver/Src/stm32h7xx_hal_rcc.c ****     }
 2377              		.loc 1 1016 7 view .LVU788
 2378 00ce 6C49     		ldr	r1, .L224+4
 2379 00d0 8B69     		ldr	r3, [r1, #24]
 2380 00d2 23F00F03 		bic	r3, r3, #15
 2381 00d6 1A43     		orrs	r2, r2, r3
 2382 00d8 8A61     		str	r2, [r1, #24]
 2383              	.L194:
1029:Drivers/STM32H7xx_HAL_Driver/Src/stm32h7xx_hal_rcc.c ****     {
 2384              		.loc 1 1029 5 view .LVU789
1029:Drivers/STM32H7xx_HAL_Driver/Src/stm32h7xx_hal_rcc.c ****     {
 2385              		.loc 1 1029 27 is_stmt 0 view .LVU790
 2386 00da 2368     		ldr	r3, [r4]
1029:Drivers/STM32H7xx_HAL_Driver/Src/stm32h7xx_hal_rcc.c ****     {
 2387              		.loc 1 1029 7 view .LVU791
 2388 00dc 13F0010F 		tst	r3, #1
 2389 00e0 41D0     		beq	.L195
1031:Drivers/STM32H7xx_HAL_Driver/Src/stm32h7xx_hal_rcc.c ****       assert_param(IS_RCC_SYSCLKSOURCE(RCC_ClkInitStruct->SYSCLKSource));
 2390              		.loc 1 1031 7 is_stmt 1 view .LVU792
1032:Drivers/STM32H7xx_HAL_Driver/Src/stm32h7xx_hal_rcc.c **** #if defined(RCC_D1CFGR_D1CPRE)
 2391              		.loc 1 1032 7 view .LVU793
1034:Drivers/STM32H7xx_HAL_Driver/Src/stm32h7xx_hal_rcc.c **** #else
 2392              		.loc 1 1034 7 view .LVU794
 2393 00e2 674A     		ldr	r2, .L224+4
 2394 00e4 9369     		ldr	r3, [r2, #24]
 2395 00e6 23F47063 		bic	r3, r3, #3840
 2396 00ea A168     		ldr	r1, [r4, #8]
 2397 00ec 0B43     		orrs	r3, r3, r1
 2398 00ee 9361     		str	r3, [r2, #24]
1039:Drivers/STM32H7xx_HAL_Driver/Src/stm32h7xx_hal_rcc.c ****       {
 2399              		.loc 1 1039 7 view .LVU795
1039:Drivers/STM32H7xx_HAL_Driver/Src/stm32h7xx_hal_rcc.c ****       {
 2400              		.loc 1 1039 27 is_stmt 0 view .LVU796
 2401 00f0 6368     		ldr	r3, [r4, #4]
1039:Drivers/STM32H7xx_HAL_Driver/Src/stm32h7xx_hal_rcc.c ****       {
 2402              		.loc 1 1039 9 view .LVU797
 2403 00f2 022B     		cmp	r3, #2
 2404 00f4 0AD0     		beq	.L220
1048:Drivers/STM32H7xx_HAL_Driver/Src/stm32h7xx_hal_rcc.c ****       {
 2405              		.loc 1 1048 12 is_stmt 1 view .LVU798
1048:Drivers/STM32H7xx_HAL_Driver/Src/stm32h7xx_hal_rcc.c ****       {
 2406              		.loc 1 1048 14 is_stmt 0 view .LVU799
 2407 00f6 032B     		cmp	r3, #3
 2408 00f8 27D0     		beq	.L221
1057:Drivers/STM32H7xx_HAL_Driver/Src/stm32h7xx_hal_rcc.c ****       {
 2409              		.loc 1 1057 12 is_stmt 1 view .LVU800
1057:Drivers/STM32H7xx_HAL_Driver/Src/stm32h7xx_hal_rcc.c ****       {
 2410              		.loc 1 1057 14 is_stmt 0 view .LVU801
 2411 00fa 012B     		cmp	r3, #1
 2412 00fc 2CD0     		beq	.L222
1069:Drivers/STM32H7xx_HAL_Driver/Src/stm32h7xx_hal_rcc.c ****         {
 2413              		.loc 1 1069 9 is_stmt 1 view .LVU802
1069:Drivers/STM32H7xx_HAL_Driver/Src/stm32h7xx_hal_rcc.c ****         {
 2414              		.loc 1 1069 12 is_stmt 0 view .LVU803
 2415 00fe 604A     		ldr	r2, .L224+4
 2416 0100 1268     		ldr	r2, [r2]
1069:Drivers/STM32H7xx_HAL_Driver/Src/stm32h7xx_hal_rcc.c ****         {
ARM GAS  C:\Users\ADMINI~1\AppData\Local\Temp\cc7xIC5f.s 			page 76


 2417              		.loc 1 1069 11 view .LVU804
 2418 0102 12F0040F 		tst	r2, #4
 2419 0106 06D1     		bne	.L197
1071:Drivers/STM32H7xx_HAL_Driver/Src/stm32h7xx_hal_rcc.c ****         }
 2420              		.loc 1 1071 18 view .LVU805
 2421 0108 0120     		movs	r0, #1
 2422              	.LVL180:
1071:Drivers/STM32H7xx_HAL_Driver/Src/stm32h7xx_hal_rcc.c ****         }
 2423              		.loc 1 1071 18 view .LVU806
 2424 010a ADE0     		b	.L188
 2425              	.LVL181:
 2426              	.L220:
1042:Drivers/STM32H7xx_HAL_Driver/Src/stm32h7xx_hal_rcc.c ****         {
 2427              		.loc 1 1042 9 is_stmt 1 view .LVU807
1042:Drivers/STM32H7xx_HAL_Driver/Src/stm32h7xx_hal_rcc.c ****         {
 2428              		.loc 1 1042 12 is_stmt 0 view .LVU808
 2429 010c 1268     		ldr	r2, [r2]
1042:Drivers/STM32H7xx_HAL_Driver/Src/stm32h7xx_hal_rcc.c ****         {
 2430              		.loc 1 1042 11 view .LVU809
 2431 010e 12F4003F 		tst	r2, #131072
 2432 0112 00F0AE80 		beq	.L223
 2433              	.L197:
1074:Drivers/STM32H7xx_HAL_Driver/Src/stm32h7xx_hal_rcc.c **** 
 2434              		.loc 1 1074 7 is_stmt 1 view .LVU810
 2435 0116 5A49     		ldr	r1, .L224+4
 2436 0118 0A69     		ldr	r2, [r1, #16]
 2437 011a 22F00702 		bic	r2, r2, #7
 2438 011e 1343     		orrs	r3, r3, r2
 2439 0120 0B61     		str	r3, [r1, #16]
1077:Drivers/STM32H7xx_HAL_Driver/Src/stm32h7xx_hal_rcc.c **** 
 2440              		.loc 1 1077 7 view .LVU811
1077:Drivers/STM32H7xx_HAL_Driver/Src/stm32h7xx_hal_rcc.c **** 
 2441              		.loc 1 1077 19 is_stmt 0 view .LVU812
 2442 0122 FFF7FEFF 		bl	HAL_GetTick
 2443              	.LVL182:
1077:Drivers/STM32H7xx_HAL_Driver/Src/stm32h7xx_hal_rcc.c **** 
 2444              		.loc 1 1077 19 view .LVU813
 2445 0126 0646     		mov	r6, r0
 2446              	.LVL183:
1079:Drivers/STM32H7xx_HAL_Driver/Src/stm32h7xx_hal_rcc.c ****         {
 2447              		.loc 1 1079 9 is_stmt 1 view .LVU814
 2448              	.L200:
1079:Drivers/STM32H7xx_HAL_Driver/Src/stm32h7xx_hal_rcc.c ****         {
 2449              		.loc 1 1079 15 view .LVU815
1079:Drivers/STM32H7xx_HAL_Driver/Src/stm32h7xx_hal_rcc.c ****         {
 2450              		.loc 1 1079 16 is_stmt 0 view .LVU816
 2451 0128 554B     		ldr	r3, .L224+4
 2452 012a 1B69     		ldr	r3, [r3, #16]
 2453 012c 03F03803 		and	r3, r3, #56
1079:Drivers/STM32H7xx_HAL_Driver/Src/stm32h7xx_hal_rcc.c ****         {
 2454              		.loc 1 1079 68 view .LVU817
 2455 0130 6268     		ldr	r2, [r4, #4]
1079:Drivers/STM32H7xx_HAL_Driver/Src/stm32h7xx_hal_rcc.c ****         {
 2456              		.loc 1 1079 15 view .LVU818
 2457 0132 B3EBC20F 		cmp	r3, r2, lsl #3
 2458 0136 16D0     		beq	.L195
1081:Drivers/STM32H7xx_HAL_Driver/Src/stm32h7xx_hal_rcc.c ****           {
ARM GAS  C:\Users\ADMINI~1\AppData\Local\Temp\cc7xIC5f.s 			page 77


 2459              		.loc 1 1081 11 is_stmt 1 view .LVU819
1081:Drivers/STM32H7xx_HAL_Driver/Src/stm32h7xx_hal_rcc.c ****           {
 2460              		.loc 1 1081 15 is_stmt 0 view .LVU820
 2461 0138 FFF7FEFF 		bl	HAL_GetTick
 2462              	.LVL184:
1081:Drivers/STM32H7xx_HAL_Driver/Src/stm32h7xx_hal_rcc.c ****           {
 2463              		.loc 1 1081 29 view .LVU821
 2464 013c 801B     		subs	r0, r0, r6
1081:Drivers/STM32H7xx_HAL_Driver/Src/stm32h7xx_hal_rcc.c ****           {
 2465              		.loc 1 1081 13 view .LVU822
 2466 013e 41F28833 		movw	r3, #5000
 2467 0142 9842     		cmp	r0, r3
 2468 0144 F0D9     		bls	.L200
1083:Drivers/STM32H7xx_HAL_Driver/Src/stm32h7xx_hal_rcc.c ****           }
 2469              		.loc 1 1083 20 view .LVU823
 2470 0146 0320     		movs	r0, #3
 2471 0148 8EE0     		b	.L188
 2472              	.LVL185:
 2473              	.L221:
1051:Drivers/STM32H7xx_HAL_Driver/Src/stm32h7xx_hal_rcc.c ****         {
 2474              		.loc 1 1051 9 is_stmt 1 view .LVU824
1051:Drivers/STM32H7xx_HAL_Driver/Src/stm32h7xx_hal_rcc.c ****         {
 2475              		.loc 1 1051 12 is_stmt 0 view .LVU825
 2476 014a 4D4A     		ldr	r2, .L224+4
 2477 014c 1268     		ldr	r2, [r2]
1051:Drivers/STM32H7xx_HAL_Driver/Src/stm32h7xx_hal_rcc.c ****         {
 2478              		.loc 1 1051 11 view .LVU826
 2479 014e 12F0007F 		tst	r2, #33554432
 2480 0152 E0D1     		bne	.L197
1053:Drivers/STM32H7xx_HAL_Driver/Src/stm32h7xx_hal_rcc.c ****         }
 2481              		.loc 1 1053 18 view .LVU827
 2482 0154 0120     		movs	r0, #1
 2483              	.LVL186:
1053:Drivers/STM32H7xx_HAL_Driver/Src/stm32h7xx_hal_rcc.c ****         }
 2484              		.loc 1 1053 18 view .LVU828
 2485 0156 87E0     		b	.L188
 2486              	.LVL187:
 2487              	.L222:
1060:Drivers/STM32H7xx_HAL_Driver/Src/stm32h7xx_hal_rcc.c ****         {
 2488              		.loc 1 1060 9 is_stmt 1 view .LVU829
1060:Drivers/STM32H7xx_HAL_Driver/Src/stm32h7xx_hal_rcc.c ****         {
 2489              		.loc 1 1060 12 is_stmt 0 view .LVU830
 2490 0158 494A     		ldr	r2, .L224+4
 2491 015a 1268     		ldr	r2, [r2]
1060:Drivers/STM32H7xx_HAL_Driver/Src/stm32h7xx_hal_rcc.c ****         {
 2492              		.loc 1 1060 11 view .LVU831
 2493 015c 12F4807F 		tst	r2, #256
 2494 0160 D9D1     		bne	.L197
1062:Drivers/STM32H7xx_HAL_Driver/Src/stm32h7xx_hal_rcc.c ****         }
 2495              		.loc 1 1062 18 view .LVU832
 2496 0162 0120     		movs	r0, #1
 2497              	.LVL188:
1062:Drivers/STM32H7xx_HAL_Driver/Src/stm32h7xx_hal_rcc.c ****         }
 2498              		.loc 1 1062 18 view .LVU833
 2499 0164 80E0     		b	.L188
 2500              	.L195:
1091:Drivers/STM32H7xx_HAL_Driver/Src/stm32h7xx_hal_rcc.c ****   {
ARM GAS  C:\Users\ADMINI~1\AppData\Local\Temp\cc7xIC5f.s 			page 78


 2501              		.loc 1 1091 3 is_stmt 1 view .LVU834
1091:Drivers/STM32H7xx_HAL_Driver/Src/stm32h7xx_hal_rcc.c ****   {
 2502              		.loc 1 1091 25 is_stmt 0 view .LVU835
 2503 0166 2368     		ldr	r3, [r4]
1091:Drivers/STM32H7xx_HAL_Driver/Src/stm32h7xx_hal_rcc.c ****   {
 2504              		.loc 1 1091 5 view .LVU836
 2505 0168 13F0020F 		tst	r3, #2
 2506 016c 0CD0     		beq	.L202
1094:Drivers/STM32H7xx_HAL_Driver/Src/stm32h7xx_hal_rcc.c ****     {
 2507              		.loc 1 1094 5 is_stmt 1 view .LVU837
1094:Drivers/STM32H7xx_HAL_Driver/Src/stm32h7xx_hal_rcc.c ****     {
 2508              		.loc 1 1094 26 is_stmt 0 view .LVU838
 2509 016e E268     		ldr	r2, [r4, #12]
1094:Drivers/STM32H7xx_HAL_Driver/Src/stm32h7xx_hal_rcc.c ****     {
 2510              		.loc 1 1094 49 view .LVU839
 2511 0170 434B     		ldr	r3, .L224+4
 2512 0172 9B69     		ldr	r3, [r3, #24]
1094:Drivers/STM32H7xx_HAL_Driver/Src/stm32h7xx_hal_rcc.c ****     {
 2513              		.loc 1 1094 58 view .LVU840
 2514 0174 03F00F03 		and	r3, r3, #15
1094:Drivers/STM32H7xx_HAL_Driver/Src/stm32h7xx_hal_rcc.c ****     {
 2515              		.loc 1 1094 7 view .LVU841
 2516 0178 9A42     		cmp	r2, r3
 2517 017a 05D2     		bcs	.L202
1097:Drivers/STM32H7xx_HAL_Driver/Src/stm32h7xx_hal_rcc.c ****       MODIFY_REG(RCC->D1CFGR, RCC_D1CFGR_HPRE, RCC_ClkInitStruct->AHBCLKDivider);
 2518              		.loc 1 1097 7 is_stmt 1 view .LVU842
1098:Drivers/STM32H7xx_HAL_Driver/Src/stm32h7xx_hal_rcc.c ****     }
 2519              		.loc 1 1098 7 view .LVU843
 2520 017c 4049     		ldr	r1, .L224+4
 2521 017e 8B69     		ldr	r3, [r1, #24]
 2522 0180 23F00F03 		bic	r3, r3, #15
 2523 0184 1A43     		orrs	r2, r2, r3
 2524 0186 8A61     		str	r2, [r1, #24]
 2525              	.L202:
1111:Drivers/STM32H7xx_HAL_Driver/Src/stm32h7xx_hal_rcc.c ****   {
 2526              		.loc 1 1111 3 view .LVU844
1111:Drivers/STM32H7xx_HAL_Driver/Src/stm32h7xx_hal_rcc.c ****   {
 2527              		.loc 1 1111 17 is_stmt 0 view .LVU845
 2528 0188 3C4B     		ldr	r3, .L224
 2529 018a 1B68     		ldr	r3, [r3]
 2530 018c 03F00F03 		and	r3, r3, #15
1111:Drivers/STM32H7xx_HAL_Driver/Src/stm32h7xx_hal_rcc.c ****   {
 2531              		.loc 1 1111 5 view .LVU846
 2532 0190 AB42     		cmp	r3, r5
 2533 0192 0AD9     		bls	.L203
1114:Drivers/STM32H7xx_HAL_Driver/Src/stm32h7xx_hal_rcc.c **** 
 2534              		.loc 1 1114 5 is_stmt 1 view .LVU847
 2535 0194 394A     		ldr	r2, .L224
 2536 0196 1368     		ldr	r3, [r2]
 2537 0198 23F00F03 		bic	r3, r3, #15
 2538 019c 2B43     		orrs	r3, r3, r5
 2539 019e 1360     		str	r3, [r2]
1118:Drivers/STM32H7xx_HAL_Driver/Src/stm32h7xx_hal_rcc.c ****     {
 2540              		.loc 1 1118 5 view .LVU848
1118:Drivers/STM32H7xx_HAL_Driver/Src/stm32h7xx_hal_rcc.c ****     {
 2541              		.loc 1 1118 8 is_stmt 0 view .LVU849
 2542 01a0 1368     		ldr	r3, [r2]
ARM GAS  C:\Users\ADMINI~1\AppData\Local\Temp\cc7xIC5f.s 			page 79


 2543 01a2 03F00F03 		and	r3, r3, #15
1118:Drivers/STM32H7xx_HAL_Driver/Src/stm32h7xx_hal_rcc.c ****     {
 2544              		.loc 1 1118 7 view .LVU850
 2545 01a6 AB42     		cmp	r3, r5
 2546 01a8 65D1     		bne	.L215
 2547              	.L203:
1125:Drivers/STM32H7xx_HAL_Driver/Src/stm32h7xx_hal_rcc.c ****  {
 2548              		.loc 1 1125 2 is_stmt 1 view .LVU851
1125:Drivers/STM32H7xx_HAL_Driver/Src/stm32h7xx_hal_rcc.c ****  {
 2549              		.loc 1 1125 24 is_stmt 0 view .LVU852
 2550 01aa 2368     		ldr	r3, [r4]
1125:Drivers/STM32H7xx_HAL_Driver/Src/stm32h7xx_hal_rcc.c ****  {
 2551              		.loc 1 1125 4 view .LVU853
 2552 01ac 13F0040F 		tst	r3, #4
 2553 01b0 0CD0     		beq	.L204
1128:Drivers/STM32H7xx_HAL_Driver/Src/stm32h7xx_hal_rcc.c ****    {
 2554              		.loc 1 1128 4 is_stmt 1 view .LVU854
1128:Drivers/STM32H7xx_HAL_Driver/Src/stm32h7xx_hal_rcc.c ****    {
 2555              		.loc 1 1128 25 is_stmt 0 view .LVU855
 2556 01b2 2269     		ldr	r2, [r4, #16]
1128:Drivers/STM32H7xx_HAL_Driver/Src/stm32h7xx_hal_rcc.c ****    {
 2557              		.loc 1 1128 49 view .LVU856
 2558 01b4 324B     		ldr	r3, .L224+4
 2559 01b6 9B69     		ldr	r3, [r3, #24]
1128:Drivers/STM32H7xx_HAL_Driver/Src/stm32h7xx_hal_rcc.c ****    {
 2560              		.loc 1 1128 58 view .LVU857
 2561 01b8 03F07003 		and	r3, r3, #112
1128:Drivers/STM32H7xx_HAL_Driver/Src/stm32h7xx_hal_rcc.c ****    {
 2562              		.loc 1 1128 6 view .LVU858
 2563 01bc 9A42     		cmp	r2, r3
 2564 01be 05D2     		bcs	.L204
1130:Drivers/STM32H7xx_HAL_Driver/Src/stm32h7xx_hal_rcc.c ****      MODIFY_REG(RCC->D1CFGR, RCC_D1CFGR_D1PPRE, RCC_ClkInitStruct->APB3CLKDivider);
 2565              		.loc 1 1130 6 is_stmt 1 view .LVU859
1131:Drivers/STM32H7xx_HAL_Driver/Src/stm32h7xx_hal_rcc.c ****    }
 2566              		.loc 1 1131 6 view .LVU860
 2567 01c0 2F49     		ldr	r1, .L224+4
 2568 01c2 8B69     		ldr	r3, [r1, #24]
 2569 01c4 23F07003 		bic	r3, r3, #112
 2570 01c8 1A43     		orrs	r2, r2, r3
 2571 01ca 8A61     		str	r2, [r1, #24]
 2572              	.L204:
1143:Drivers/STM32H7xx_HAL_Driver/Src/stm32h7xx_hal_rcc.c ****  {
 2573              		.loc 1 1143 2 view .LVU861
1143:Drivers/STM32H7xx_HAL_Driver/Src/stm32h7xx_hal_rcc.c ****  {
 2574              		.loc 1 1143 24 is_stmt 0 view .LVU862
 2575 01cc 2368     		ldr	r3, [r4]
1143:Drivers/STM32H7xx_HAL_Driver/Src/stm32h7xx_hal_rcc.c ****  {
 2576              		.loc 1 1143 4 view .LVU863
 2577 01ce 13F0080F 		tst	r3, #8
 2578 01d2 0CD0     		beq	.L205
1146:Drivers/STM32H7xx_HAL_Driver/Src/stm32h7xx_hal_rcc.c ****    {
 2579              		.loc 1 1146 4 is_stmt 1 view .LVU864
1146:Drivers/STM32H7xx_HAL_Driver/Src/stm32h7xx_hal_rcc.c ****    {
 2580              		.loc 1 1146 25 is_stmt 0 view .LVU865
 2581 01d4 6269     		ldr	r2, [r4, #20]
1146:Drivers/STM32H7xx_HAL_Driver/Src/stm32h7xx_hal_rcc.c ****    {
 2582              		.loc 1 1146 49 view .LVU866
ARM GAS  C:\Users\ADMINI~1\AppData\Local\Temp\cc7xIC5f.s 			page 80


 2583 01d6 2A4B     		ldr	r3, .L224+4
 2584 01d8 DB69     		ldr	r3, [r3, #28]
1146:Drivers/STM32H7xx_HAL_Driver/Src/stm32h7xx_hal_rcc.c ****    {
 2585              		.loc 1 1146 58 view .LVU867
 2586 01da 03F07003 		and	r3, r3, #112
1146:Drivers/STM32H7xx_HAL_Driver/Src/stm32h7xx_hal_rcc.c ****    {
 2587              		.loc 1 1146 6 view .LVU868
 2588 01de 9A42     		cmp	r2, r3
 2589 01e0 05D2     		bcs	.L205
1148:Drivers/STM32H7xx_HAL_Driver/Src/stm32h7xx_hal_rcc.c ****      MODIFY_REG(RCC->D2CFGR, RCC_D2CFGR_D2PPRE1, (RCC_ClkInitStruct->APB1CLKDivider));
 2590              		.loc 1 1148 6 is_stmt 1 view .LVU869
1149:Drivers/STM32H7xx_HAL_Driver/Src/stm32h7xx_hal_rcc.c ****    }
 2591              		.loc 1 1149 6 view .LVU870
 2592 01e2 2749     		ldr	r1, .L224+4
 2593 01e4 CB69     		ldr	r3, [r1, #28]
 2594 01e6 23F07003 		bic	r3, r3, #112
 2595 01ea 1A43     		orrs	r2, r2, r3
 2596 01ec CA61     		str	r2, [r1, #28]
 2597              	.L205:
1161:Drivers/STM32H7xx_HAL_Driver/Src/stm32h7xx_hal_rcc.c ****  {
 2598              		.loc 1 1161 2 view .LVU871
1161:Drivers/STM32H7xx_HAL_Driver/Src/stm32h7xx_hal_rcc.c ****  {
 2599              		.loc 1 1161 24 is_stmt 0 view .LVU872
 2600 01ee 2368     		ldr	r3, [r4]
1161:Drivers/STM32H7xx_HAL_Driver/Src/stm32h7xx_hal_rcc.c ****  {
 2601              		.loc 1 1161 4 view .LVU873
 2602 01f0 13F0100F 		tst	r3, #16
 2603 01f4 0CD0     		beq	.L206
1164:Drivers/STM32H7xx_HAL_Driver/Src/stm32h7xx_hal_rcc.c ****    {
 2604              		.loc 1 1164 4 is_stmt 1 view .LVU874
1164:Drivers/STM32H7xx_HAL_Driver/Src/stm32h7xx_hal_rcc.c ****    {
 2605              		.loc 1 1164 25 is_stmt 0 view .LVU875
 2606 01f6 A269     		ldr	r2, [r4, #24]
1164:Drivers/STM32H7xx_HAL_Driver/Src/stm32h7xx_hal_rcc.c ****    {
 2607              		.loc 1 1164 49 view .LVU876
 2608 01f8 214B     		ldr	r3, .L224+4
 2609 01fa DB69     		ldr	r3, [r3, #28]
1164:Drivers/STM32H7xx_HAL_Driver/Src/stm32h7xx_hal_rcc.c ****    {
 2610              		.loc 1 1164 58 view .LVU877
 2611 01fc 03F4E063 		and	r3, r3, #1792
1164:Drivers/STM32H7xx_HAL_Driver/Src/stm32h7xx_hal_rcc.c ****    {
 2612              		.loc 1 1164 6 view .LVU878
 2613 0200 9A42     		cmp	r2, r3
 2614 0202 05D2     		bcs	.L206
1166:Drivers/STM32H7xx_HAL_Driver/Src/stm32h7xx_hal_rcc.c ****      MODIFY_REG(RCC->D2CFGR, RCC_D2CFGR_D2PPRE2, (RCC_ClkInitStruct->APB2CLKDivider));
 2615              		.loc 1 1166 6 is_stmt 1 view .LVU879
1167:Drivers/STM32H7xx_HAL_Driver/Src/stm32h7xx_hal_rcc.c ****    }
 2616              		.loc 1 1167 6 view .LVU880
 2617 0204 1E49     		ldr	r1, .L224+4
 2618 0206 CB69     		ldr	r3, [r1, #28]
 2619 0208 23F4E063 		bic	r3, r3, #1792
 2620 020c 1A43     		orrs	r2, r2, r3
 2621 020e CA61     		str	r2, [r1, #28]
 2622              	.L206:
1179:Drivers/STM32H7xx_HAL_Driver/Src/stm32h7xx_hal_rcc.c ****  {
 2623              		.loc 1 1179 2 view .LVU881
1179:Drivers/STM32H7xx_HAL_Driver/Src/stm32h7xx_hal_rcc.c ****  {
ARM GAS  C:\Users\ADMINI~1\AppData\Local\Temp\cc7xIC5f.s 			page 81


 2624              		.loc 1 1179 24 is_stmt 0 view .LVU882
 2625 0210 2368     		ldr	r3, [r4]
1179:Drivers/STM32H7xx_HAL_Driver/Src/stm32h7xx_hal_rcc.c ****  {
 2626              		.loc 1 1179 4 view .LVU883
 2627 0212 13F0200F 		tst	r3, #32
 2628 0216 0CD0     		beq	.L207
1182:Drivers/STM32H7xx_HAL_Driver/Src/stm32h7xx_hal_rcc.c ****    {
 2629              		.loc 1 1182 4 is_stmt 1 view .LVU884
1182:Drivers/STM32H7xx_HAL_Driver/Src/stm32h7xx_hal_rcc.c ****    {
 2630              		.loc 1 1182 25 is_stmt 0 view .LVU885
 2631 0218 E269     		ldr	r2, [r4, #28]
1182:Drivers/STM32H7xx_HAL_Driver/Src/stm32h7xx_hal_rcc.c ****    {
 2632              		.loc 1 1182 49 view .LVU886
 2633 021a 194B     		ldr	r3, .L224+4
 2634 021c 1B6A     		ldr	r3, [r3, #32]
1182:Drivers/STM32H7xx_HAL_Driver/Src/stm32h7xx_hal_rcc.c ****    {
 2635              		.loc 1 1182 58 view .LVU887
 2636 021e 03F07003 		and	r3, r3, #112
1182:Drivers/STM32H7xx_HAL_Driver/Src/stm32h7xx_hal_rcc.c ****    {
 2637              		.loc 1 1182 6 view .LVU888
 2638 0222 9A42     		cmp	r2, r3
 2639 0224 05D2     		bcs	.L207
1184:Drivers/STM32H7xx_HAL_Driver/Src/stm32h7xx_hal_rcc.c ****      MODIFY_REG(RCC->D3CFGR, RCC_D3CFGR_D3PPRE, (RCC_ClkInitStruct->APB4CLKDivider) );
 2640              		.loc 1 1184 6 is_stmt 1 view .LVU889
1185:Drivers/STM32H7xx_HAL_Driver/Src/stm32h7xx_hal_rcc.c ****    }
 2641              		.loc 1 1185 6 view .LVU890
 2642 0226 1649     		ldr	r1, .L224+4
 2643 0228 0B6A     		ldr	r3, [r1, #32]
 2644 022a 23F07003 		bic	r3, r3, #112
 2645 022e 1A43     		orrs	r2, r2, r3
 2646 0230 0A62     		str	r2, [r1, #32]
 2647              	.L207:
1198:Drivers/STM32H7xx_HAL_Driver/Src/stm32h7xx_hal_rcc.c **** #else
 2648              		.loc 1 1198 3 view .LVU891
1198:Drivers/STM32H7xx_HAL_Driver/Src/stm32h7xx_hal_rcc.c **** #else
 2649              		.loc 1 1198 25 is_stmt 0 view .LVU892
 2650 0232 FFF7FEFF 		bl	HAL_RCC_GetSysClockFreq
 2651              	.LVL189:
1198:Drivers/STM32H7xx_HAL_Driver/Src/stm32h7xx_hal_rcc.c **** #else
 2652              		.loc 1 1198 77 view .LVU893
 2653 0236 1249     		ldr	r1, .L224+4
 2654 0238 8B69     		ldr	r3, [r1, #24]
1198:Drivers/STM32H7xx_HAL_Driver/Src/stm32h7xx_hal_rcc.c **** #else
 2655              		.loc 1 1198 106 view .LVU894
 2656 023a C3F30323 		ubfx	r3, r3, #8, #4
1198:Drivers/STM32H7xx_HAL_Driver/Src/stm32h7xx_hal_rcc.c **** #else
 2657              		.loc 1 1198 72 view .LVU895
 2658 023e 114A     		ldr	r2, .L224+8
 2659 0240 D35C     		ldrb	r3, [r2, r3]	@ zero_extendqisi2
1198:Drivers/STM32H7xx_HAL_Driver/Src/stm32h7xx_hal_rcc.c **** #else
 2660              		.loc 1 1198 133 view .LVU896
 2661 0242 03F01F03 		and	r3, r3, #31
1198:Drivers/STM32H7xx_HAL_Driver/Src/stm32h7xx_hal_rcc.c **** #else
 2662              		.loc 1 1198 23 view .LVU897
 2663 0246 D840     		lsrs	r0, r0, r3
 2664              	.LVL190:
1204:Drivers/STM32H7xx_HAL_Driver/Src/stm32h7xx_hal_rcc.c **** #else
ARM GAS  C:\Users\ADMINI~1\AppData\Local\Temp\cc7xIC5f.s 			page 82


 2665              		.loc 1 1204 3 is_stmt 1 view .LVU898
1204:Drivers/STM32H7xx_HAL_Driver/Src/stm32h7xx_hal_rcc.c **** #else
 2666              		.loc 1 1204 66 is_stmt 0 view .LVU899
 2667 0248 8B69     		ldr	r3, [r1, #24]
1204:Drivers/STM32H7xx_HAL_Driver/Src/stm32h7xx_hal_rcc.c **** #else
 2668              		.loc 1 1204 93 view .LVU900
 2669 024a 03F00F03 		and	r3, r3, #15
1204:Drivers/STM32H7xx_HAL_Driver/Src/stm32h7xx_hal_rcc.c **** #else
 2670              		.loc 1 1204 61 view .LVU901
 2671 024e D35C     		ldrb	r3, [r2, r3]	@ zero_extendqisi2
1204:Drivers/STM32H7xx_HAL_Driver/Src/stm32h7xx_hal_rcc.c **** #else
 2672              		.loc 1 1204 118 view .LVU902
 2673 0250 03F01F03 		and	r3, r3, #31
1204:Drivers/STM32H7xx_HAL_Driver/Src/stm32h7xx_hal_rcc.c **** #else
 2674              		.loc 1 1204 40 view .LVU903
 2675 0254 20FA03F3 		lsr	r3, r0, r3
1204:Drivers/STM32H7xx_HAL_Driver/Src/stm32h7xx_hal_rcc.c **** #else
 2676              		.loc 1 1204 17 view .LVU904
 2677 0258 0B4A     		ldr	r2, .L224+12
 2678 025a 1360     		str	r3, [r2]
1212:Drivers/STM32H7xx_HAL_Driver/Src/stm32h7xx_hal_rcc.c **** #endif /* DUAL_CORE && CORE_CM4 */
 2679              		.loc 1 1212 3 is_stmt 1 view .LVU905
1212:Drivers/STM32H7xx_HAL_Driver/Src/stm32h7xx_hal_rcc.c **** #endif /* DUAL_CORE && CORE_CM4 */
 2680              		.loc 1 1212 19 is_stmt 0 view .LVU906
 2681 025c 0B4B     		ldr	r3, .L224+16
 2682 025e 1860     		str	r0, [r3]
1216:Drivers/STM32H7xx_HAL_Driver/Src/stm32h7xx_hal_rcc.c **** 
 2683              		.loc 1 1216 3 is_stmt 1 view .LVU907
1216:Drivers/STM32H7xx_HAL_Driver/Src/stm32h7xx_hal_rcc.c **** 
 2684              		.loc 1 1216 15 is_stmt 0 view .LVU908
 2685 0260 0B4B     		ldr	r3, .L224+20
 2686 0262 1868     		ldr	r0, [r3]
 2687              	.LVL191:
1216:Drivers/STM32H7xx_HAL_Driver/Src/stm32h7xx_hal_rcc.c **** 
 2688              		.loc 1 1216 15 view .LVU909
 2689 0264 FFF7FEFF 		bl	HAL_InitTick
 2690              	.LVL192:
1218:Drivers/STM32H7xx_HAL_Driver/Src/stm32h7xx_hal_rcc.c **** }
 2691              		.loc 1 1218 3 is_stmt 1 view .LVU910
 2692              	.L188:
1219:Drivers/STM32H7xx_HAL_Driver/Src/stm32h7xx_hal_rcc.c **** 
 2693              		.loc 1 1219 1 is_stmt 0 view .LVU911
 2694 0268 70BD     		pop	{r4, r5, r6, pc}
 2695              	.LVL193:
 2696              	.L208:
 2697              	.LCFI13:
 2698              		.cfi_def_cfa_offset 0
 2699              		.cfi_restore 4
 2700              		.cfi_restore 5
 2701              		.cfi_restore 6
 2702              		.cfi_restore 14
 910:Drivers/STM32H7xx_HAL_Driver/Src/stm32h7xx_hal_rcc.c ****   }
 2703              		.loc 1 910 12 view .LVU912
 2704 026a 0120     		movs	r0, #1
 2705              	.LVL194:
1219:Drivers/STM32H7xx_HAL_Driver/Src/stm32h7xx_hal_rcc.c **** 
 2706              		.loc 1 1219 1 view .LVU913
ARM GAS  C:\Users\ADMINI~1\AppData\Local\Temp\cc7xIC5f.s 			page 83


 2707 026c 7047     		bx	lr
 2708              	.LVL195:
 2709              	.L209:
 2710              	.LCFI14:
 2711              		.cfi_def_cfa_offset 16
 2712              		.cfi_offset 4, -16
 2713              		.cfi_offset 5, -12
 2714              		.cfi_offset 6, -8
 2715              		.cfi_offset 14, -4
 931:Drivers/STM32H7xx_HAL_Driver/Src/stm32h7xx_hal_rcc.c ****     }
 2716              		.loc 1 931 14 view .LVU914
 2717 026e 0120     		movs	r0, #1
 2718              	.LVL196:
 931:Drivers/STM32H7xx_HAL_Driver/Src/stm32h7xx_hal_rcc.c ****     }
 2719              		.loc 1 931 14 view .LVU915
 2720 0270 FAE7     		b	.L188
 2721              	.LVL197:
 2722              	.L223:
1044:Drivers/STM32H7xx_HAL_Driver/Src/stm32h7xx_hal_rcc.c ****         }
 2723              		.loc 1 1044 18 view .LVU916
 2724 0272 0120     		movs	r0, #1
 2725              	.LVL198:
1044:Drivers/STM32H7xx_HAL_Driver/Src/stm32h7xx_hal_rcc.c ****         }
 2726              		.loc 1 1044 18 view .LVU917
 2727 0274 F8E7     		b	.L188
 2728              	.L215:
1120:Drivers/STM32H7xx_HAL_Driver/Src/stm32h7xx_hal_rcc.c ****     }
 2729              		.loc 1 1120 14 view .LVU918
 2730 0276 0120     		movs	r0, #1
 2731 0278 F6E7     		b	.L188
 2732              	.L225:
 2733 027a 00BF     		.align	2
 2734              	.L224:
 2735 027c 00200052 		.word	1375739904
 2736 0280 00440258 		.word	1476543488
 2737 0284 00000000 		.word	D1CorePrescTable
 2738 0288 00000000 		.word	SystemD2Clock
 2739 028c 00000000 		.word	SystemCoreClock
 2740 0290 00000000 		.word	uwTickPrio
 2741              		.cfi_endproc
 2742              	.LFE146:
 2744              		.section	.text.HAL_RCC_GetHCLKFreq,"ax",%progbits
 2745              		.align	1
 2746              		.global	HAL_RCC_GetHCLKFreq
 2747              		.syntax unified
 2748              		.thumb
 2749              		.thumb_func
 2750              		.fpu fpv5-d16
 2752              	HAL_RCC_GetHCLKFreq:
 2753              	.LFB151:
1453:Drivers/STM32H7xx_HAL_Driver/Src/stm32h7xx_hal_rcc.c **** 
1454:Drivers/STM32H7xx_HAL_Driver/Src/stm32h7xx_hal_rcc.c **** 
1455:Drivers/STM32H7xx_HAL_Driver/Src/stm32h7xx_hal_rcc.c **** /**
1456:Drivers/STM32H7xx_HAL_Driver/Src/stm32h7xx_hal_rcc.c ****   * @brief  Returns the HCLK frequency
1457:Drivers/STM32H7xx_HAL_Driver/Src/stm32h7xx_hal_rcc.c ****   * @note   Each time HCLK changes, this function must be called to update the
1458:Drivers/STM32H7xx_HAL_Driver/Src/stm32h7xx_hal_rcc.c ****   *         right HCLK value. Otherwise, any configuration based on this function will be incorrect
1459:Drivers/STM32H7xx_HAL_Driver/Src/stm32h7xx_hal_rcc.c ****   *
ARM GAS  C:\Users\ADMINI~1\AppData\Local\Temp\cc7xIC5f.s 			page 84


1460:Drivers/STM32H7xx_HAL_Driver/Src/stm32h7xx_hal_rcc.c ****   * @note   The SystemD2Clock CMSIS variable is used to store System domain2 Clock Frequency
1461:Drivers/STM32H7xx_HAL_Driver/Src/stm32h7xx_hal_rcc.c ****   *         and updated within this function
1462:Drivers/STM32H7xx_HAL_Driver/Src/stm32h7xx_hal_rcc.c ****   * @retval HCLK frequency
1463:Drivers/STM32H7xx_HAL_Driver/Src/stm32h7xx_hal_rcc.c ****   */
1464:Drivers/STM32H7xx_HAL_Driver/Src/stm32h7xx_hal_rcc.c **** uint32_t HAL_RCC_GetHCLKFreq(void)
1465:Drivers/STM32H7xx_HAL_Driver/Src/stm32h7xx_hal_rcc.c **** {
 2754              		.loc 1 1465 1 is_stmt 1 view -0
 2755              		.cfi_startproc
 2756              		@ args = 0, pretend = 0, frame = 0
 2757              		@ frame_needed = 0, uses_anonymous_args = 0
 2758 0000 08B5     		push	{r3, lr}
 2759              	.LCFI15:
 2760              		.cfi_def_cfa_offset 8
 2761              		.cfi_offset 3, -8
 2762              		.cfi_offset 14, -4
1466:Drivers/STM32H7xx_HAL_Driver/Src/stm32h7xx_hal_rcc.c **** uint32_t common_system_clock;
 2763              		.loc 1 1466 1 view .LVU920
1467:Drivers/STM32H7xx_HAL_Driver/Src/stm32h7xx_hal_rcc.c **** 
1468:Drivers/STM32H7xx_HAL_Driver/Src/stm32h7xx_hal_rcc.c **** #if defined(RCC_D1CFGR_D1CPRE)
1469:Drivers/STM32H7xx_HAL_Driver/Src/stm32h7xx_hal_rcc.c ****   common_system_clock = HAL_RCC_GetSysClockFreq() >> (D1CorePrescTable[(RCC->D1CFGR & RCC_D1CFGR_D1
 2764              		.loc 1 1469 3 view .LVU921
 2765              		.loc 1 1469 25 is_stmt 0 view .LVU922
 2766 0002 FFF7FEFF 		bl	HAL_RCC_GetSysClockFreq
 2767              	.LVL199:
 2768              		.loc 1 1469 76 view .LVU923
 2769 0006 0B4A     		ldr	r2, .L228
 2770 0008 9369     		ldr	r3, [r2, #24]
 2771              		.loc 1 1469 105 view .LVU924
 2772 000a C3F30323 		ubfx	r3, r3, #8, #4
 2773              		.loc 1 1469 71 view .LVU925
 2774 000e 0A49     		ldr	r1, .L228+4
 2775 0010 CB5C     		ldrb	r3, [r1, r3]	@ zero_extendqisi2
 2776              		.loc 1 1469 131 view .LVU926
 2777 0012 03F01F03 		and	r3, r3, #31
 2778              		.loc 1 1469 23 view .LVU927
 2779 0016 20FA03F3 		lsr	r3, r0, r3
 2780              	.LVL200:
1470:Drivers/STM32H7xx_HAL_Driver/Src/stm32h7xx_hal_rcc.c **** #else
1471:Drivers/STM32H7xx_HAL_Driver/Src/stm32h7xx_hal_rcc.c ****   common_system_clock = HAL_RCC_GetSysClockFreq() >> (D1CorePrescTable[(RCC->CDCFGR1 & RCC_CDCFGR1_
1472:Drivers/STM32H7xx_HAL_Driver/Src/stm32h7xx_hal_rcc.c **** #endif
1473:Drivers/STM32H7xx_HAL_Driver/Src/stm32h7xx_hal_rcc.c **** 
1474:Drivers/STM32H7xx_HAL_Driver/Src/stm32h7xx_hal_rcc.c **** #if defined(RCC_D1CFGR_HPRE)
1475:Drivers/STM32H7xx_HAL_Driver/Src/stm32h7xx_hal_rcc.c ****   SystemD2Clock = (common_system_clock >> ((D1CorePrescTable[(RCC->D1CFGR & RCC_D1CFGR_HPRE)>> RCC_
 2781              		.loc 1 1475 3 is_stmt 1 view .LVU928
 2782              		.loc 1 1475 66 is_stmt 0 view .LVU929
 2783 001a 9269     		ldr	r2, [r2, #24]
 2784              		.loc 1 1475 93 view .LVU930
 2785 001c 02F00F02 		and	r2, r2, #15
 2786              		.loc 1 1475 61 view .LVU931
 2787 0020 885C     		ldrb	r0, [r1, r2]	@ zero_extendqisi2
 2788              		.loc 1 1475 118 view .LVU932
 2789 0022 00F01F00 		and	r0, r0, #31
 2790              		.loc 1 1475 40 view .LVU933
 2791 0026 23FA00F0 		lsr	r0, r3, r0
 2792              		.loc 1 1475 17 view .LVU934
 2793 002a 044A     		ldr	r2, .L228+8
 2794 002c 1060     		str	r0, [r2]
ARM GAS  C:\Users\ADMINI~1\AppData\Local\Temp\cc7xIC5f.s 			page 85


1476:Drivers/STM32H7xx_HAL_Driver/Src/stm32h7xx_hal_rcc.c **** #else
1477:Drivers/STM32H7xx_HAL_Driver/Src/stm32h7xx_hal_rcc.c ****   SystemD2Clock = (common_system_clock >> ((D1CorePrescTable[(RCC->CDCFGR1 & RCC_CDCFGR1_HPRE)>> RC
1478:Drivers/STM32H7xx_HAL_Driver/Src/stm32h7xx_hal_rcc.c **** #endif
1479:Drivers/STM32H7xx_HAL_Driver/Src/stm32h7xx_hal_rcc.c **** 
1480:Drivers/STM32H7xx_HAL_Driver/Src/stm32h7xx_hal_rcc.c **** #if defined(DUAL_CORE) && defined(CORE_CM4)
1481:Drivers/STM32H7xx_HAL_Driver/Src/stm32h7xx_hal_rcc.c ****   SystemCoreClock = SystemD2Clock;
1482:Drivers/STM32H7xx_HAL_Driver/Src/stm32h7xx_hal_rcc.c **** #else
1483:Drivers/STM32H7xx_HAL_Driver/Src/stm32h7xx_hal_rcc.c ****   SystemCoreClock = common_system_clock;
 2795              		.loc 1 1483 3 is_stmt 1 view .LVU935
 2796              		.loc 1 1483 19 is_stmt 0 view .LVU936
 2797 002e 044A     		ldr	r2, .L228+12
 2798 0030 1360     		str	r3, [r2]
1484:Drivers/STM32H7xx_HAL_Driver/Src/stm32h7xx_hal_rcc.c **** #endif /* DUAL_CORE && CORE_CM4 */
1485:Drivers/STM32H7xx_HAL_Driver/Src/stm32h7xx_hal_rcc.c **** 
1486:Drivers/STM32H7xx_HAL_Driver/Src/stm32h7xx_hal_rcc.c ****   return SystemD2Clock;
 2799              		.loc 1 1486 3 is_stmt 1 view .LVU937
1487:Drivers/STM32H7xx_HAL_Driver/Src/stm32h7xx_hal_rcc.c **** }
 2800              		.loc 1 1487 1 is_stmt 0 view .LVU938
 2801 0032 08BD     		pop	{r3, pc}
 2802              	.LVL201:
 2803              	.L229:
 2804              		.loc 1 1487 1 view .LVU939
 2805              		.align	2
 2806              	.L228:
 2807 0034 00440258 		.word	1476543488
 2808 0038 00000000 		.word	D1CorePrescTable
 2809 003c 00000000 		.word	SystemD2Clock
 2810 0040 00000000 		.word	SystemCoreClock
 2811              		.cfi_endproc
 2812              	.LFE151:
 2814              		.section	.text.HAL_RCC_GetPCLK1Freq,"ax",%progbits
 2815              		.align	1
 2816              		.global	HAL_RCC_GetPCLK1Freq
 2817              		.syntax unified
 2818              		.thumb
 2819              		.thumb_func
 2820              		.fpu fpv5-d16
 2822              	HAL_RCC_GetPCLK1Freq:
 2823              	.LFB152:
1488:Drivers/STM32H7xx_HAL_Driver/Src/stm32h7xx_hal_rcc.c **** 
1489:Drivers/STM32H7xx_HAL_Driver/Src/stm32h7xx_hal_rcc.c **** 
1490:Drivers/STM32H7xx_HAL_Driver/Src/stm32h7xx_hal_rcc.c **** /**
1491:Drivers/STM32H7xx_HAL_Driver/Src/stm32h7xx_hal_rcc.c ****   * @brief  Returns the PCLK1 frequency
1492:Drivers/STM32H7xx_HAL_Driver/Src/stm32h7xx_hal_rcc.c ****   * @note   Each time PCLK1 changes, this function must be called to update the
1493:Drivers/STM32H7xx_HAL_Driver/Src/stm32h7xx_hal_rcc.c ****   *         right PCLK1 value. Otherwise, any configuration based on this function will be incorrec
1494:Drivers/STM32H7xx_HAL_Driver/Src/stm32h7xx_hal_rcc.c ****   * @retval PCLK1 frequency
1495:Drivers/STM32H7xx_HAL_Driver/Src/stm32h7xx_hal_rcc.c ****   */
1496:Drivers/STM32H7xx_HAL_Driver/Src/stm32h7xx_hal_rcc.c **** uint32_t HAL_RCC_GetPCLK1Freq(void)
1497:Drivers/STM32H7xx_HAL_Driver/Src/stm32h7xx_hal_rcc.c **** {
 2824              		.loc 1 1497 1 is_stmt 1 view -0
 2825              		.cfi_startproc
 2826              		@ args = 0, pretend = 0, frame = 0
 2827              		@ frame_needed = 0, uses_anonymous_args = 0
 2828 0000 08B5     		push	{r3, lr}
 2829              	.LCFI16:
 2830              		.cfi_def_cfa_offset 8
 2831              		.cfi_offset 3, -8
ARM GAS  C:\Users\ADMINI~1\AppData\Local\Temp\cc7xIC5f.s 			page 86


 2832              		.cfi_offset 14, -4
1498:Drivers/STM32H7xx_HAL_Driver/Src/stm32h7xx_hal_rcc.c **** #if defined (RCC_D2CFGR_D2PPRE1)
1499:Drivers/STM32H7xx_HAL_Driver/Src/stm32h7xx_hal_rcc.c ****   /* Get HCLK source and Compute PCLK1 frequency ---------------------------*/
1500:Drivers/STM32H7xx_HAL_Driver/Src/stm32h7xx_hal_rcc.c ****   return (HAL_RCC_GetHCLKFreq() >> ((D1CorePrescTable[(RCC->D2CFGR & RCC_D2CFGR_D2PPRE1)>> RCC_D2CF
 2833              		.loc 1 1500 3 view .LVU941
 2834              		.loc 1 1500 11 is_stmt 0 view .LVU942
 2835 0002 FFF7FEFF 		bl	HAL_RCC_GetHCLKFreq
 2836              	.LVL202:
 2837              		.loc 1 1500 59 view .LVU943
 2838 0006 054B     		ldr	r3, .L232
 2839 0008 DB69     		ldr	r3, [r3, #28]
 2840              		.loc 1 1500 89 view .LVU944
 2841 000a C3F30213 		ubfx	r3, r3, #4, #3
 2842              		.loc 1 1500 54 view .LVU945
 2843 000e 044A     		ldr	r2, .L232+4
 2844 0010 D35C     		ldrb	r3, [r2, r3]	@ zero_extendqisi2
 2845              		.loc 1 1500 117 view .LVU946
 2846 0012 03F01F03 		and	r3, r3, #31
1501:Drivers/STM32H7xx_HAL_Driver/Src/stm32h7xx_hal_rcc.c **** #else
1502:Drivers/STM32H7xx_HAL_Driver/Src/stm32h7xx_hal_rcc.c ****  /* Get HCLK source and Compute PCLK1 frequency ---------------------------*/
1503:Drivers/STM32H7xx_HAL_Driver/Src/stm32h7xx_hal_rcc.c ****   return (HAL_RCC_GetHCLKFreq() >> ((D1CorePrescTable[(RCC->CDCFGR2 & RCC_CDCFGR2_CDPPRE1)>> RCC_CD
1504:Drivers/STM32H7xx_HAL_Driver/Src/stm32h7xx_hal_rcc.c **** #endif
1505:Drivers/STM32H7xx_HAL_Driver/Src/stm32h7xx_hal_rcc.c **** }
 2847              		.loc 1 1505 1 view .LVU947
 2848 0016 D840     		lsrs	r0, r0, r3
 2849 0018 08BD     		pop	{r3, pc}
 2850              	.L233:
 2851 001a 00BF     		.align	2
 2852              	.L232:
 2853 001c 00440258 		.word	1476543488
 2854 0020 00000000 		.word	D1CorePrescTable
 2855              		.cfi_endproc
 2856              	.LFE152:
 2858              		.section	.text.HAL_RCC_GetPCLK2Freq,"ax",%progbits
 2859              		.align	1
 2860              		.global	HAL_RCC_GetPCLK2Freq
 2861              		.syntax unified
 2862              		.thumb
 2863              		.thumb_func
 2864              		.fpu fpv5-d16
 2866              	HAL_RCC_GetPCLK2Freq:
 2867              	.LFB153:
1506:Drivers/STM32H7xx_HAL_Driver/Src/stm32h7xx_hal_rcc.c **** 
1507:Drivers/STM32H7xx_HAL_Driver/Src/stm32h7xx_hal_rcc.c **** 
1508:Drivers/STM32H7xx_HAL_Driver/Src/stm32h7xx_hal_rcc.c **** /**
1509:Drivers/STM32H7xx_HAL_Driver/Src/stm32h7xx_hal_rcc.c ****   * @brief  Returns the PCLK2 frequency
1510:Drivers/STM32H7xx_HAL_Driver/Src/stm32h7xx_hal_rcc.c ****   * @note   Each time PCLK2 changes, this function must be called to update the
1511:Drivers/STM32H7xx_HAL_Driver/Src/stm32h7xx_hal_rcc.c ****   *         right PCLK2 value. Otherwise, any configuration based on this function will be incorrec
1512:Drivers/STM32H7xx_HAL_Driver/Src/stm32h7xx_hal_rcc.c ****   * @retval PCLK1 frequency
1513:Drivers/STM32H7xx_HAL_Driver/Src/stm32h7xx_hal_rcc.c ****   */
1514:Drivers/STM32H7xx_HAL_Driver/Src/stm32h7xx_hal_rcc.c **** uint32_t HAL_RCC_GetPCLK2Freq(void)
1515:Drivers/STM32H7xx_HAL_Driver/Src/stm32h7xx_hal_rcc.c **** {
 2868              		.loc 1 1515 1 is_stmt 1 view -0
 2869              		.cfi_startproc
 2870              		@ args = 0, pretend = 0, frame = 0
 2871              		@ frame_needed = 0, uses_anonymous_args = 0
 2872 0000 08B5     		push	{r3, lr}
ARM GAS  C:\Users\ADMINI~1\AppData\Local\Temp\cc7xIC5f.s 			page 87


 2873              	.LCFI17:
 2874              		.cfi_def_cfa_offset 8
 2875              		.cfi_offset 3, -8
 2876              		.cfi_offset 14, -4
1516:Drivers/STM32H7xx_HAL_Driver/Src/stm32h7xx_hal_rcc.c ****   /* Get HCLK source and Compute PCLK1 frequency ---------------------------*/
1517:Drivers/STM32H7xx_HAL_Driver/Src/stm32h7xx_hal_rcc.c **** #if defined(RCC_D2CFGR_D2PPRE2)
1518:Drivers/STM32H7xx_HAL_Driver/Src/stm32h7xx_hal_rcc.c ****   return (HAL_RCC_GetHCLKFreq() >> ((D1CorePrescTable[(RCC->D2CFGR & RCC_D2CFGR_D2PPRE2)>> RCC_D2CF
 2877              		.loc 1 1518 3 view .LVU949
 2878              		.loc 1 1518 11 is_stmt 0 view .LVU950
 2879 0002 FFF7FEFF 		bl	HAL_RCC_GetHCLKFreq
 2880              	.LVL203:
 2881              		.loc 1 1518 59 view .LVU951
 2882 0006 054B     		ldr	r3, .L236
 2883 0008 DB69     		ldr	r3, [r3, #28]
 2884              		.loc 1 1518 89 view .LVU952
 2885 000a C3F30223 		ubfx	r3, r3, #8, #3
 2886              		.loc 1 1518 54 view .LVU953
 2887 000e 044A     		ldr	r2, .L236+4
 2888 0010 D35C     		ldrb	r3, [r2, r3]	@ zero_extendqisi2
 2889              		.loc 1 1518 117 view .LVU954
 2890 0012 03F01F03 		and	r3, r3, #31
1519:Drivers/STM32H7xx_HAL_Driver/Src/stm32h7xx_hal_rcc.c **** #else
1520:Drivers/STM32H7xx_HAL_Driver/Src/stm32h7xx_hal_rcc.c ****   return (HAL_RCC_GetHCLKFreq() >> ((D1CorePrescTable[(RCC->CDCFGR2 & RCC_CDCFGR2_CDPPRE2)>> RCC_CD
1521:Drivers/STM32H7xx_HAL_Driver/Src/stm32h7xx_hal_rcc.c **** #endif
1522:Drivers/STM32H7xx_HAL_Driver/Src/stm32h7xx_hal_rcc.c **** }
 2891              		.loc 1 1522 1 view .LVU955
 2892 0016 D840     		lsrs	r0, r0, r3
 2893 0018 08BD     		pop	{r3, pc}
 2894              	.L237:
 2895 001a 00BF     		.align	2
 2896              	.L236:
 2897 001c 00440258 		.word	1476543488
 2898 0020 00000000 		.word	D1CorePrescTable
 2899              		.cfi_endproc
 2900              	.LFE153:
 2902              		.section	.text.HAL_RCC_GetOscConfig,"ax",%progbits
 2903              		.align	1
 2904              		.global	HAL_RCC_GetOscConfig
 2905              		.syntax unified
 2906              		.thumb
 2907              		.thumb_func
 2908              		.fpu fpv5-d16
 2910              	HAL_RCC_GetOscConfig:
 2911              	.LVL204:
 2912              	.LFB154:
1523:Drivers/STM32H7xx_HAL_Driver/Src/stm32h7xx_hal_rcc.c **** 
1524:Drivers/STM32H7xx_HAL_Driver/Src/stm32h7xx_hal_rcc.c **** /**
1525:Drivers/STM32H7xx_HAL_Driver/Src/stm32h7xx_hal_rcc.c ****   * @brief  Configures the RCC_OscInitStruct according to the internal
1526:Drivers/STM32H7xx_HAL_Driver/Src/stm32h7xx_hal_rcc.c ****   * RCC configuration registers.
1527:Drivers/STM32H7xx_HAL_Driver/Src/stm32h7xx_hal_rcc.c ****   * @param  RCC_OscInitStruct: pointer to an RCC_OscInitTypeDef structure that
1528:Drivers/STM32H7xx_HAL_Driver/Src/stm32h7xx_hal_rcc.c ****   * will be configured.
1529:Drivers/STM32H7xx_HAL_Driver/Src/stm32h7xx_hal_rcc.c ****   * @retval None
1530:Drivers/STM32H7xx_HAL_Driver/Src/stm32h7xx_hal_rcc.c ****   */
1531:Drivers/STM32H7xx_HAL_Driver/Src/stm32h7xx_hal_rcc.c **** void HAL_RCC_GetOscConfig(RCC_OscInitTypeDef  *RCC_OscInitStruct)
1532:Drivers/STM32H7xx_HAL_Driver/Src/stm32h7xx_hal_rcc.c **** {
 2913              		.loc 1 1532 1 is_stmt 1 view -0
 2914              		.cfi_startproc
ARM GAS  C:\Users\ADMINI~1\AppData\Local\Temp\cc7xIC5f.s 			page 88


 2915              		@ args = 0, pretend = 0, frame = 0
 2916              		@ frame_needed = 0, uses_anonymous_args = 0
 2917              		@ link register save eliminated.
1533:Drivers/STM32H7xx_HAL_Driver/Src/stm32h7xx_hal_rcc.c ****   /* Set all possible values for the Oscillator type parameter ---------------*/
1534:Drivers/STM32H7xx_HAL_Driver/Src/stm32h7xx_hal_rcc.c ****   RCC_OscInitStruct->OscillatorType = RCC_OSCILLATORTYPE_HSE | RCC_OSCILLATORTYPE_HSI | RCC_OSCILLA
 2918              		.loc 1 1534 3 view .LVU957
 2919              		.loc 1 1534 37 is_stmt 0 view .LVU958
 2920 0000 3F23     		movs	r3, #63
 2921 0002 0360     		str	r3, [r0]
1535:Drivers/STM32H7xx_HAL_Driver/Src/stm32h7xx_hal_rcc.c ****                                       RCC_OSCILLATORTYPE_LSE | RCC_OSCILLATORTYPE_LSI| RCC_OSCILLAT
1536:Drivers/STM32H7xx_HAL_Driver/Src/stm32h7xx_hal_rcc.c **** 
1537:Drivers/STM32H7xx_HAL_Driver/Src/stm32h7xx_hal_rcc.c ****   /* Get the HSE configuration -----------------------------------------------*/
1538:Drivers/STM32H7xx_HAL_Driver/Src/stm32h7xx_hal_rcc.c **** #if defined(RCC_CR_HSEEXT)
1539:Drivers/STM32H7xx_HAL_Driver/Src/stm32h7xx_hal_rcc.c ****   if((RCC->CR &(RCC_CR_HSEBYP | RCC_CR_HSEEXT)) == RCC_CR_HSEBYP)
1540:Drivers/STM32H7xx_HAL_Driver/Src/stm32h7xx_hal_rcc.c ****   {
1541:Drivers/STM32H7xx_HAL_Driver/Src/stm32h7xx_hal_rcc.c ****     RCC_OscInitStruct->HSEState = RCC_HSE_BYPASS;
1542:Drivers/STM32H7xx_HAL_Driver/Src/stm32h7xx_hal_rcc.c ****   }
1543:Drivers/STM32H7xx_HAL_Driver/Src/stm32h7xx_hal_rcc.c ****   else if((RCC->CR &(RCC_CR_HSEBYP | RCC_CR_HSEEXT)) == (RCC_CR_HSEBYP | RCC_CR_HSEEXT))
1544:Drivers/STM32H7xx_HAL_Driver/Src/stm32h7xx_hal_rcc.c ****   {
1545:Drivers/STM32H7xx_HAL_Driver/Src/stm32h7xx_hal_rcc.c ****     RCC_OscInitStruct->HSEState = RCC_HSE_BYPASS_DIGITAL;
1546:Drivers/STM32H7xx_HAL_Driver/Src/stm32h7xx_hal_rcc.c ****   }
1547:Drivers/STM32H7xx_HAL_Driver/Src/stm32h7xx_hal_rcc.c ****   else if((RCC->CR &RCC_CR_HSEON) == RCC_CR_HSEON)
1548:Drivers/STM32H7xx_HAL_Driver/Src/stm32h7xx_hal_rcc.c ****   {
1549:Drivers/STM32H7xx_HAL_Driver/Src/stm32h7xx_hal_rcc.c ****     RCC_OscInitStruct->HSEState = RCC_HSE_ON;
1550:Drivers/STM32H7xx_HAL_Driver/Src/stm32h7xx_hal_rcc.c ****   }
1551:Drivers/STM32H7xx_HAL_Driver/Src/stm32h7xx_hal_rcc.c ****   else
1552:Drivers/STM32H7xx_HAL_Driver/Src/stm32h7xx_hal_rcc.c ****   {
1553:Drivers/STM32H7xx_HAL_Driver/Src/stm32h7xx_hal_rcc.c ****     RCC_OscInitStruct->HSEState = RCC_HSE_OFF;
1554:Drivers/STM32H7xx_HAL_Driver/Src/stm32h7xx_hal_rcc.c ****   }
1555:Drivers/STM32H7xx_HAL_Driver/Src/stm32h7xx_hal_rcc.c **** #else
1556:Drivers/STM32H7xx_HAL_Driver/Src/stm32h7xx_hal_rcc.c ****   if((RCC->CR &RCC_CR_HSEBYP) == RCC_CR_HSEBYP)
 2922              		.loc 1 1556 3 is_stmt 1 view .LVU959
 2923              		.loc 1 1556 10 is_stmt 0 view .LVU960
 2924 0004 444B     		ldr	r3, .L255
 2925 0006 1B68     		ldr	r3, [r3]
 2926              		.loc 1 1556 5 view .LVU961
 2927 0008 13F4802F 		tst	r3, #262144
 2928 000c 5ED0     		beq	.L239
1557:Drivers/STM32H7xx_HAL_Driver/Src/stm32h7xx_hal_rcc.c ****   {
1558:Drivers/STM32H7xx_HAL_Driver/Src/stm32h7xx_hal_rcc.c ****     RCC_OscInitStruct->HSEState = RCC_HSE_BYPASS;
 2929              		.loc 1 1558 5 is_stmt 1 view .LVU962
 2930              		.loc 1 1558 33 is_stmt 0 view .LVU963
 2931 000e 4FF4A023 		mov	r3, #327680
 2932 0012 4360     		str	r3, [r0, #4]
 2933              	.L240:
1559:Drivers/STM32H7xx_HAL_Driver/Src/stm32h7xx_hal_rcc.c ****   }
1560:Drivers/STM32H7xx_HAL_Driver/Src/stm32h7xx_hal_rcc.c ****   else if((RCC->CR &RCC_CR_HSEON) == RCC_CR_HSEON)
1561:Drivers/STM32H7xx_HAL_Driver/Src/stm32h7xx_hal_rcc.c ****   {
1562:Drivers/STM32H7xx_HAL_Driver/Src/stm32h7xx_hal_rcc.c ****     RCC_OscInitStruct->HSEState = RCC_HSE_ON;
1563:Drivers/STM32H7xx_HAL_Driver/Src/stm32h7xx_hal_rcc.c ****   }
1564:Drivers/STM32H7xx_HAL_Driver/Src/stm32h7xx_hal_rcc.c ****   else
1565:Drivers/STM32H7xx_HAL_Driver/Src/stm32h7xx_hal_rcc.c ****   {
1566:Drivers/STM32H7xx_HAL_Driver/Src/stm32h7xx_hal_rcc.c ****     RCC_OscInitStruct->HSEState = RCC_HSE_OFF;
1567:Drivers/STM32H7xx_HAL_Driver/Src/stm32h7xx_hal_rcc.c ****   }
1568:Drivers/STM32H7xx_HAL_Driver/Src/stm32h7xx_hal_rcc.c **** #endif /* RCC_CR_HSEEXT */
1569:Drivers/STM32H7xx_HAL_Driver/Src/stm32h7xx_hal_rcc.c **** 
1570:Drivers/STM32H7xx_HAL_Driver/Src/stm32h7xx_hal_rcc.c ****    /* Get the CSI configuration -----------------------------------------------*/
ARM GAS  C:\Users\ADMINI~1\AppData\Local\Temp\cc7xIC5f.s 			page 89


1571:Drivers/STM32H7xx_HAL_Driver/Src/stm32h7xx_hal_rcc.c ****   if((RCC->CR &RCC_CR_CSION) == RCC_CR_CSION)
 2934              		.loc 1 1571 3 is_stmt 1 view .LVU964
 2935              		.loc 1 1571 10 is_stmt 0 view .LVU965
 2936 0014 404B     		ldr	r3, .L255
 2937 0016 1B68     		ldr	r3, [r3]
 2938              		.loc 1 1571 5 view .LVU966
 2939 0018 13F0800F 		tst	r3, #128
 2940 001c 62D0     		beq	.L242
1572:Drivers/STM32H7xx_HAL_Driver/Src/stm32h7xx_hal_rcc.c ****   {
1573:Drivers/STM32H7xx_HAL_Driver/Src/stm32h7xx_hal_rcc.c ****     RCC_OscInitStruct->CSIState = RCC_CSI_ON;
 2941              		.loc 1 1573 5 is_stmt 1 view .LVU967
 2942              		.loc 1 1573 33 is_stmt 0 view .LVU968
 2943 001e 8023     		movs	r3, #128
 2944 0020 C361     		str	r3, [r0, #28]
 2945              	.L243:
1574:Drivers/STM32H7xx_HAL_Driver/Src/stm32h7xx_hal_rcc.c ****   }
1575:Drivers/STM32H7xx_HAL_Driver/Src/stm32h7xx_hal_rcc.c ****   else
1576:Drivers/STM32H7xx_HAL_Driver/Src/stm32h7xx_hal_rcc.c ****   {
1577:Drivers/STM32H7xx_HAL_Driver/Src/stm32h7xx_hal_rcc.c ****     RCC_OscInitStruct->CSIState = RCC_CSI_OFF;
1578:Drivers/STM32H7xx_HAL_Driver/Src/stm32h7xx_hal_rcc.c ****   }
1579:Drivers/STM32H7xx_HAL_Driver/Src/stm32h7xx_hal_rcc.c **** 
1580:Drivers/STM32H7xx_HAL_Driver/Src/stm32h7xx_hal_rcc.c **** #if defined(RCC_VER_X)
1581:Drivers/STM32H7xx_HAL_Driver/Src/stm32h7xx_hal_rcc.c ****   if(HAL_GetREVID() <= REV_ID_Y)
1582:Drivers/STM32H7xx_HAL_Driver/Src/stm32h7xx_hal_rcc.c ****   {
1583:Drivers/STM32H7xx_HAL_Driver/Src/stm32h7xx_hal_rcc.c ****     RCC_OscInitStruct->CSICalibrationValue = (uint32_t)(READ_BIT(RCC->HSICFGR, HAL_RCC_REV_Y_CSITRI
1584:Drivers/STM32H7xx_HAL_Driver/Src/stm32h7xx_hal_rcc.c ****   }
1585:Drivers/STM32H7xx_HAL_Driver/Src/stm32h7xx_hal_rcc.c ****   else
1586:Drivers/STM32H7xx_HAL_Driver/Src/stm32h7xx_hal_rcc.c ****   {
1587:Drivers/STM32H7xx_HAL_Driver/Src/stm32h7xx_hal_rcc.c ****     RCC_OscInitStruct->CSICalibrationValue = (uint32_t)(READ_BIT(RCC->CSICFGR, RCC_CSICFGR_CSITRIM)
1588:Drivers/STM32H7xx_HAL_Driver/Src/stm32h7xx_hal_rcc.c ****   }
1589:Drivers/STM32H7xx_HAL_Driver/Src/stm32h7xx_hal_rcc.c **** #else
1590:Drivers/STM32H7xx_HAL_Driver/Src/stm32h7xx_hal_rcc.c ****  RCC_OscInitStruct->CSICalibrationValue = (uint32_t)(READ_BIT(RCC->CSICFGR, RCC_CSICFGR_CSITRIM) >>
 2946              		.loc 1 1590 2 is_stmt 1 view .LVU969
 2947              		.loc 1 1590 54 is_stmt 0 view .LVU970
 2948 0022 3D4A     		ldr	r2, .L255
 2949 0024 D368     		ldr	r3, [r2, #12]
 2950              		.loc 1 1590 43 view .LVU971
 2951 0026 C3F30563 		ubfx	r3, r3, #24, #6
 2952              		.loc 1 1590 41 view .LVU972
 2953 002a 0362     		str	r3, [r0, #32]
1591:Drivers/STM32H7xx_HAL_Driver/Src/stm32h7xx_hal_rcc.c **** #endif /*RCC_VER_X*/
1592:Drivers/STM32H7xx_HAL_Driver/Src/stm32h7xx_hal_rcc.c **** 
1593:Drivers/STM32H7xx_HAL_Driver/Src/stm32h7xx_hal_rcc.c ****   /* Get the HSI configuration -----------------------------------------------*/
1594:Drivers/STM32H7xx_HAL_Driver/Src/stm32h7xx_hal_rcc.c ****   if((RCC->CR &RCC_CR_HSION) == RCC_CR_HSION)
 2954              		.loc 1 1594 3 is_stmt 1 view .LVU973
 2955              		.loc 1 1594 10 is_stmt 0 view .LVU974
 2956 002c 1368     		ldr	r3, [r2]
 2957              		.loc 1 1594 5 view .LVU975
 2958 002e 13F0010F 		tst	r3, #1
 2959 0032 5AD0     		beq	.L244
1595:Drivers/STM32H7xx_HAL_Driver/Src/stm32h7xx_hal_rcc.c ****   {
1596:Drivers/STM32H7xx_HAL_Driver/Src/stm32h7xx_hal_rcc.c ****     RCC_OscInitStruct->HSIState = RCC_HSI_ON;
 2960              		.loc 1 1596 5 is_stmt 1 view .LVU976
 2961              		.loc 1 1596 33 is_stmt 0 view .LVU977
 2962 0034 0123     		movs	r3, #1
 2963 0036 C360     		str	r3, [r0, #12]
 2964              	.L245:
ARM GAS  C:\Users\ADMINI~1\AppData\Local\Temp\cc7xIC5f.s 			page 90


1597:Drivers/STM32H7xx_HAL_Driver/Src/stm32h7xx_hal_rcc.c ****   }
1598:Drivers/STM32H7xx_HAL_Driver/Src/stm32h7xx_hal_rcc.c ****   else
1599:Drivers/STM32H7xx_HAL_Driver/Src/stm32h7xx_hal_rcc.c ****   {
1600:Drivers/STM32H7xx_HAL_Driver/Src/stm32h7xx_hal_rcc.c ****     RCC_OscInitStruct->HSIState = RCC_HSI_OFF;
1601:Drivers/STM32H7xx_HAL_Driver/Src/stm32h7xx_hal_rcc.c ****   }
1602:Drivers/STM32H7xx_HAL_Driver/Src/stm32h7xx_hal_rcc.c **** 
1603:Drivers/STM32H7xx_HAL_Driver/Src/stm32h7xx_hal_rcc.c **** #if defined(RCC_VER_X)
1604:Drivers/STM32H7xx_HAL_Driver/Src/stm32h7xx_hal_rcc.c ****   if(HAL_GetREVID() <= REV_ID_Y)
1605:Drivers/STM32H7xx_HAL_Driver/Src/stm32h7xx_hal_rcc.c ****   {
1606:Drivers/STM32H7xx_HAL_Driver/Src/stm32h7xx_hal_rcc.c ****     RCC_OscInitStruct->HSICalibrationValue = (uint32_t)(READ_BIT(RCC->HSICFGR, HAL_RCC_REV_Y_HSITRI
1607:Drivers/STM32H7xx_HAL_Driver/Src/stm32h7xx_hal_rcc.c ****   }
1608:Drivers/STM32H7xx_HAL_Driver/Src/stm32h7xx_hal_rcc.c ****   else
1609:Drivers/STM32H7xx_HAL_Driver/Src/stm32h7xx_hal_rcc.c ****   {
1610:Drivers/STM32H7xx_HAL_Driver/Src/stm32h7xx_hal_rcc.c ****     RCC_OscInitStruct->HSICalibrationValue = (uint32_t)(READ_BIT(RCC->HSICFGR, RCC_HSICFGR_HSITRIM)
1611:Drivers/STM32H7xx_HAL_Driver/Src/stm32h7xx_hal_rcc.c ****   }
1612:Drivers/STM32H7xx_HAL_Driver/Src/stm32h7xx_hal_rcc.c **** #else
1613:Drivers/STM32H7xx_HAL_Driver/Src/stm32h7xx_hal_rcc.c ****     RCC_OscInitStruct->HSICalibrationValue = (uint32_t)(READ_BIT(RCC->HSICFGR, RCC_HSICFGR_HSITRIM)
 2965              		.loc 1 1613 5 is_stmt 1 view .LVU978
 2966              		.loc 1 1613 57 is_stmt 0 view .LVU979
 2967 0038 374A     		ldr	r2, .L255
 2968 003a 5368     		ldr	r3, [r2, #4]
 2969              		.loc 1 1613 46 view .LVU980
 2970 003c C3F30663 		ubfx	r3, r3, #24, #7
 2971              		.loc 1 1613 44 view .LVU981
 2972 0040 0361     		str	r3, [r0, #16]
1614:Drivers/STM32H7xx_HAL_Driver/Src/stm32h7xx_hal_rcc.c **** #endif /*RCC_VER_X*/
1615:Drivers/STM32H7xx_HAL_Driver/Src/stm32h7xx_hal_rcc.c **** 
1616:Drivers/STM32H7xx_HAL_Driver/Src/stm32h7xx_hal_rcc.c ****   /* Get the LSE configuration -----------------------------------------------*/
1617:Drivers/STM32H7xx_HAL_Driver/Src/stm32h7xx_hal_rcc.c **** #if defined(RCC_BDCR_LSEEXT)
1618:Drivers/STM32H7xx_HAL_Driver/Src/stm32h7xx_hal_rcc.c ****   if((RCC->BDCR &(RCC_BDCR_LSEBYP|RCC_BDCR_LSEEXT)) == RCC_BDCR_LSEBYP)
1619:Drivers/STM32H7xx_HAL_Driver/Src/stm32h7xx_hal_rcc.c ****   {
1620:Drivers/STM32H7xx_HAL_Driver/Src/stm32h7xx_hal_rcc.c ****     RCC_OscInitStruct->LSEState = RCC_LSE_BYPASS;
1621:Drivers/STM32H7xx_HAL_Driver/Src/stm32h7xx_hal_rcc.c ****   }
1622:Drivers/STM32H7xx_HAL_Driver/Src/stm32h7xx_hal_rcc.c ****   else if((RCC->BDCR &(RCC_BDCR_LSEBYP|RCC_BDCR_LSEEXT)) == (RCC_BDCR_LSEBYP|RCC_BDCR_LSEEXT))
1623:Drivers/STM32H7xx_HAL_Driver/Src/stm32h7xx_hal_rcc.c ****   {
1624:Drivers/STM32H7xx_HAL_Driver/Src/stm32h7xx_hal_rcc.c ****     RCC_OscInitStruct->LSEState = RCC_LSE_BYPASS_DIGITAL;
1625:Drivers/STM32H7xx_HAL_Driver/Src/stm32h7xx_hal_rcc.c ****   }
1626:Drivers/STM32H7xx_HAL_Driver/Src/stm32h7xx_hal_rcc.c ****   else if((RCC->BDCR &RCC_BDCR_LSEON) == RCC_BDCR_LSEON)
1627:Drivers/STM32H7xx_HAL_Driver/Src/stm32h7xx_hal_rcc.c ****   {
1628:Drivers/STM32H7xx_HAL_Driver/Src/stm32h7xx_hal_rcc.c ****     RCC_OscInitStruct->LSEState = RCC_LSE_ON;
1629:Drivers/STM32H7xx_HAL_Driver/Src/stm32h7xx_hal_rcc.c ****   }
1630:Drivers/STM32H7xx_HAL_Driver/Src/stm32h7xx_hal_rcc.c ****   else
1631:Drivers/STM32H7xx_HAL_Driver/Src/stm32h7xx_hal_rcc.c ****   {
1632:Drivers/STM32H7xx_HAL_Driver/Src/stm32h7xx_hal_rcc.c ****     RCC_OscInitStruct->LSEState = RCC_LSE_OFF;
1633:Drivers/STM32H7xx_HAL_Driver/Src/stm32h7xx_hal_rcc.c ****   }
1634:Drivers/STM32H7xx_HAL_Driver/Src/stm32h7xx_hal_rcc.c **** #else
1635:Drivers/STM32H7xx_HAL_Driver/Src/stm32h7xx_hal_rcc.c ****   if((RCC->BDCR &RCC_BDCR_LSEBYP) == RCC_BDCR_LSEBYP)
 2973              		.loc 1 1635 3 is_stmt 1 view .LVU982
 2974              		.loc 1 1635 10 is_stmt 0 view .LVU983
 2975 0042 136F     		ldr	r3, [r2, #112]
 2976              		.loc 1 1635 5 view .LVU984
 2977 0044 13F0040F 		tst	r3, #4
 2978 0048 52D0     		beq	.L246
1636:Drivers/STM32H7xx_HAL_Driver/Src/stm32h7xx_hal_rcc.c ****   {
1637:Drivers/STM32H7xx_HAL_Driver/Src/stm32h7xx_hal_rcc.c ****     RCC_OscInitStruct->LSEState = RCC_LSE_BYPASS;
 2979              		.loc 1 1637 5 is_stmt 1 view .LVU985
 2980              		.loc 1 1637 33 is_stmt 0 view .LVU986
ARM GAS  C:\Users\ADMINI~1\AppData\Local\Temp\cc7xIC5f.s 			page 91


 2981 004a 0523     		movs	r3, #5
 2982 004c 8360     		str	r3, [r0, #8]
 2983              	.L247:
1638:Drivers/STM32H7xx_HAL_Driver/Src/stm32h7xx_hal_rcc.c ****   }
1639:Drivers/STM32H7xx_HAL_Driver/Src/stm32h7xx_hal_rcc.c ****   else if((RCC->BDCR &RCC_BDCR_LSEON) == RCC_BDCR_LSEON)
1640:Drivers/STM32H7xx_HAL_Driver/Src/stm32h7xx_hal_rcc.c ****   {
1641:Drivers/STM32H7xx_HAL_Driver/Src/stm32h7xx_hal_rcc.c ****     RCC_OscInitStruct->LSEState = RCC_LSE_ON;
1642:Drivers/STM32H7xx_HAL_Driver/Src/stm32h7xx_hal_rcc.c ****   }
1643:Drivers/STM32H7xx_HAL_Driver/Src/stm32h7xx_hal_rcc.c ****   else
1644:Drivers/STM32H7xx_HAL_Driver/Src/stm32h7xx_hal_rcc.c ****   {
1645:Drivers/STM32H7xx_HAL_Driver/Src/stm32h7xx_hal_rcc.c ****     RCC_OscInitStruct->LSEState = RCC_LSE_OFF;
1646:Drivers/STM32H7xx_HAL_Driver/Src/stm32h7xx_hal_rcc.c ****   }
1647:Drivers/STM32H7xx_HAL_Driver/Src/stm32h7xx_hal_rcc.c **** #endif /* RCC_BDCR_LSEEXT */
1648:Drivers/STM32H7xx_HAL_Driver/Src/stm32h7xx_hal_rcc.c **** 
1649:Drivers/STM32H7xx_HAL_Driver/Src/stm32h7xx_hal_rcc.c ****   /* Get the LSI configuration -----------------------------------------------*/
1650:Drivers/STM32H7xx_HAL_Driver/Src/stm32h7xx_hal_rcc.c ****   if((RCC->CSR &RCC_CSR_LSION) == RCC_CSR_LSION)
 2984              		.loc 1 1650 3 is_stmt 1 view .LVU987
 2985              		.loc 1 1650 10 is_stmt 0 view .LVU988
 2986 004e 324B     		ldr	r3, .L255
 2987 0050 5B6F     		ldr	r3, [r3, #116]
 2988              		.loc 1 1650 5 view .LVU989
 2989 0052 13F0010F 		tst	r3, #1
 2990 0056 56D0     		beq	.L249
1651:Drivers/STM32H7xx_HAL_Driver/Src/stm32h7xx_hal_rcc.c ****   {
1652:Drivers/STM32H7xx_HAL_Driver/Src/stm32h7xx_hal_rcc.c ****     RCC_OscInitStruct->LSIState = RCC_LSI_ON;
 2991              		.loc 1 1652 5 is_stmt 1 view .LVU990
 2992              		.loc 1 1652 33 is_stmt 0 view .LVU991
 2993 0058 0123     		movs	r3, #1
 2994 005a 4361     		str	r3, [r0, #20]
 2995              	.L250:
1653:Drivers/STM32H7xx_HAL_Driver/Src/stm32h7xx_hal_rcc.c ****   }
1654:Drivers/STM32H7xx_HAL_Driver/Src/stm32h7xx_hal_rcc.c ****   else
1655:Drivers/STM32H7xx_HAL_Driver/Src/stm32h7xx_hal_rcc.c ****   {
1656:Drivers/STM32H7xx_HAL_Driver/Src/stm32h7xx_hal_rcc.c ****     RCC_OscInitStruct->LSIState = RCC_LSI_OFF;
1657:Drivers/STM32H7xx_HAL_Driver/Src/stm32h7xx_hal_rcc.c ****   }
1658:Drivers/STM32H7xx_HAL_Driver/Src/stm32h7xx_hal_rcc.c **** 
1659:Drivers/STM32H7xx_HAL_Driver/Src/stm32h7xx_hal_rcc.c ****   /* Get the HSI48 configuration ---------------------------------------------*/
1660:Drivers/STM32H7xx_HAL_Driver/Src/stm32h7xx_hal_rcc.c ****   if((RCC->CR & RCC_CR_HSI48ON) == RCC_CR_HSI48ON)
 2996              		.loc 1 1660 3 is_stmt 1 view .LVU992
 2997              		.loc 1 1660 10 is_stmt 0 view .LVU993
 2998 005c 2E4B     		ldr	r3, .L255
 2999 005e 1B68     		ldr	r3, [r3]
 3000              		.loc 1 1660 5 view .LVU994
 3001 0060 13F4805F 		tst	r3, #4096
 3002 0064 52D0     		beq	.L251
1661:Drivers/STM32H7xx_HAL_Driver/Src/stm32h7xx_hal_rcc.c ****   {
1662:Drivers/STM32H7xx_HAL_Driver/Src/stm32h7xx_hal_rcc.c ****     RCC_OscInitStruct->HSI48State = RCC_HSI48_ON;
 3003              		.loc 1 1662 5 is_stmt 1 view .LVU995
 3004              		.loc 1 1662 35 is_stmt 0 view .LVU996
 3005 0066 0123     		movs	r3, #1
 3006 0068 8361     		str	r3, [r0, #24]
 3007              	.L252:
1663:Drivers/STM32H7xx_HAL_Driver/Src/stm32h7xx_hal_rcc.c ****   }
1664:Drivers/STM32H7xx_HAL_Driver/Src/stm32h7xx_hal_rcc.c ****   else
1665:Drivers/STM32H7xx_HAL_Driver/Src/stm32h7xx_hal_rcc.c ****   {
1666:Drivers/STM32H7xx_HAL_Driver/Src/stm32h7xx_hal_rcc.c ****     RCC_OscInitStruct->HSI48State = RCC_HSI48_OFF;
1667:Drivers/STM32H7xx_HAL_Driver/Src/stm32h7xx_hal_rcc.c ****   }
ARM GAS  C:\Users\ADMINI~1\AppData\Local\Temp\cc7xIC5f.s 			page 92


1668:Drivers/STM32H7xx_HAL_Driver/Src/stm32h7xx_hal_rcc.c **** 
1669:Drivers/STM32H7xx_HAL_Driver/Src/stm32h7xx_hal_rcc.c ****   /* Get the PLL configuration -----------------------------------------------*/
1670:Drivers/STM32H7xx_HAL_Driver/Src/stm32h7xx_hal_rcc.c ****   if((RCC->CR &RCC_CR_PLLON) == RCC_CR_PLLON)
 3008              		.loc 1 1670 3 is_stmt 1 view .LVU997
 3009              		.loc 1 1670 10 is_stmt 0 view .LVU998
 3010 006a 2B4B     		ldr	r3, .L255
 3011 006c 1B68     		ldr	r3, [r3]
 3012              		.loc 1 1670 5 view .LVU999
 3013 006e 13F0807F 		tst	r3, #16777216
 3014 0072 4ED0     		beq	.L253
1671:Drivers/STM32H7xx_HAL_Driver/Src/stm32h7xx_hal_rcc.c ****   {
1672:Drivers/STM32H7xx_HAL_Driver/Src/stm32h7xx_hal_rcc.c ****     RCC_OscInitStruct->PLL.PLLState = RCC_PLL_ON;
 3015              		.loc 1 1672 5 is_stmt 1 view .LVU1000
 3016              		.loc 1 1672 37 is_stmt 0 view .LVU1001
 3017 0074 0223     		movs	r3, #2
 3018 0076 4362     		str	r3, [r0, #36]
 3019              	.L254:
1673:Drivers/STM32H7xx_HAL_Driver/Src/stm32h7xx_hal_rcc.c ****   }
1674:Drivers/STM32H7xx_HAL_Driver/Src/stm32h7xx_hal_rcc.c ****   else
1675:Drivers/STM32H7xx_HAL_Driver/Src/stm32h7xx_hal_rcc.c ****   {
1676:Drivers/STM32H7xx_HAL_Driver/Src/stm32h7xx_hal_rcc.c ****     RCC_OscInitStruct->PLL.PLLState = RCC_PLL_OFF;
1677:Drivers/STM32H7xx_HAL_Driver/Src/stm32h7xx_hal_rcc.c ****   }
1678:Drivers/STM32H7xx_HAL_Driver/Src/stm32h7xx_hal_rcc.c ****   RCC_OscInitStruct->PLL.PLLSource = (uint32_t)(RCC->PLLCKSELR & RCC_PLLCKSELR_PLLSRC);
 3020              		.loc 1 1678 3 is_stmt 1 view .LVU1002
 3021              		.loc 1 1678 52 is_stmt 0 view .LVU1003
 3022 0078 274B     		ldr	r3, .L255
 3023 007a 9A6A     		ldr	r2, [r3, #40]
 3024              		.loc 1 1678 38 view .LVU1004
 3025 007c 02F00302 		and	r2, r2, #3
 3026              		.loc 1 1678 36 view .LVU1005
 3027 0080 8262     		str	r2, [r0, #40]
1679:Drivers/STM32H7xx_HAL_Driver/Src/stm32h7xx_hal_rcc.c ****   RCC_OscInitStruct->PLL.PLLM = (uint32_t)((RCC->PLLCKSELR & RCC_PLLCKSELR_DIVM1)>> RCC_PLLCKSELR_D
 3028              		.loc 1 1679 3 is_stmt 1 view .LVU1006
 3029              		.loc 1 1679 48 is_stmt 0 view .LVU1007
 3030 0082 9A6A     		ldr	r2, [r3, #40]
 3031              		.loc 1 1679 33 view .LVU1008
 3032 0084 C2F30512 		ubfx	r2, r2, #4, #6
 3033              		.loc 1 1679 31 view .LVU1009
 3034 0088 C262     		str	r2, [r0, #44]
1680:Drivers/STM32H7xx_HAL_Driver/Src/stm32h7xx_hal_rcc.c ****   RCC_OscInitStruct->PLL.PLLN = (uint32_t)((RCC->PLL1DIVR & RCC_PLL1DIVR_N1) >> RCC_PLL1DIVR_N1_Pos
 3035              		.loc 1 1680 3 is_stmt 1 view .LVU1010
 3036              		.loc 1 1680 48 is_stmt 0 view .LVU1011
 3037 008a 1A6B     		ldr	r2, [r3, #48]
 3038              		.loc 1 1680 33 view .LVU1012
 3039 008c C2F30802 		ubfx	r2, r2, #0, #9
 3040              		.loc 1 1680 101 view .LVU1013
 3041 0090 0132     		adds	r2, r2, #1
 3042              		.loc 1 1680 31 view .LVU1014
 3043 0092 0263     		str	r2, [r0, #48]
1681:Drivers/STM32H7xx_HAL_Driver/Src/stm32h7xx_hal_rcc.c ****   RCC_OscInitStruct->PLL.PLLR = (uint32_t)((RCC->PLL1DIVR & RCC_PLL1DIVR_R1) >> RCC_PLL1DIVR_R1_Pos
 3044              		.loc 1 1681 3 is_stmt 1 view .LVU1015
 3045              		.loc 1 1681 48 is_stmt 0 view .LVU1016
 3046 0094 1A6B     		ldr	r2, [r3, #48]
 3047              		.loc 1 1681 33 view .LVU1017
 3048 0096 C2F30662 		ubfx	r2, r2, #24, #7
 3049              		.loc 1 1681 101 view .LVU1018
 3050 009a 0132     		adds	r2, r2, #1
ARM GAS  C:\Users\ADMINI~1\AppData\Local\Temp\cc7xIC5f.s 			page 93


 3051              		.loc 1 1681 31 view .LVU1019
 3052 009c C263     		str	r2, [r0, #60]
1682:Drivers/STM32H7xx_HAL_Driver/Src/stm32h7xx_hal_rcc.c ****   RCC_OscInitStruct->PLL.PLLP = (uint32_t)((RCC->PLL1DIVR & RCC_PLL1DIVR_P1) >> RCC_PLL1DIVR_P1_Pos
 3053              		.loc 1 1682 3 is_stmt 1 view .LVU1020
 3054              		.loc 1 1682 48 is_stmt 0 view .LVU1021
 3055 009e 1A6B     		ldr	r2, [r3, #48]
 3056              		.loc 1 1682 33 view .LVU1022
 3057 00a0 C2F34622 		ubfx	r2, r2, #9, #7
 3058              		.loc 1 1682 101 view .LVU1023
 3059 00a4 0132     		adds	r2, r2, #1
 3060              		.loc 1 1682 31 view .LVU1024
 3061 00a6 4263     		str	r2, [r0, #52]
1683:Drivers/STM32H7xx_HAL_Driver/Src/stm32h7xx_hal_rcc.c ****   RCC_OscInitStruct->PLL.PLLQ = (uint32_t)((RCC->PLL1DIVR & RCC_PLL1DIVR_Q1) >> RCC_PLL1DIVR_Q1_Pos
 3062              		.loc 1 1683 3 is_stmt 1 view .LVU1025
 3063              		.loc 1 1683 48 is_stmt 0 view .LVU1026
 3064 00a8 1A6B     		ldr	r2, [r3, #48]
 3065              		.loc 1 1683 33 view .LVU1027
 3066 00aa C2F30642 		ubfx	r2, r2, #16, #7
 3067              		.loc 1 1683 101 view .LVU1028
 3068 00ae 0132     		adds	r2, r2, #1
 3069              		.loc 1 1683 31 view .LVU1029
 3070 00b0 8263     		str	r2, [r0, #56]
1684:Drivers/STM32H7xx_HAL_Driver/Src/stm32h7xx_hal_rcc.c ****   RCC_OscInitStruct->PLL.PLLRGE = (uint32_t)((RCC->PLLCFGR & RCC_PLLCFGR_PLL1RGE));
 3071              		.loc 1 1684 3 is_stmt 1 view .LVU1030
 3072              		.loc 1 1684 50 is_stmt 0 view .LVU1031
 3073 00b2 DA6A     		ldr	r2, [r3, #44]
 3074              		.loc 1 1684 35 view .LVU1032
 3075 00b4 02F00C02 		and	r2, r2, #12
 3076              		.loc 1 1684 33 view .LVU1033
 3077 00b8 0264     		str	r2, [r0, #64]
1685:Drivers/STM32H7xx_HAL_Driver/Src/stm32h7xx_hal_rcc.c ****   RCC_OscInitStruct->PLL.PLLVCOSEL = (uint32_t)((RCC->PLLCFGR & RCC_PLLCFGR_PLL1VCOSEL) >> RCC_PLLC
 3078              		.loc 1 1685 3 is_stmt 1 view .LVU1034
 3079              		.loc 1 1685 53 is_stmt 0 view .LVU1035
 3080 00ba DA6A     		ldr	r2, [r3, #44]
 3081              		.loc 1 1685 38 view .LVU1036
 3082 00bc C2F34002 		ubfx	r2, r2, #1, #1
 3083              		.loc 1 1685 36 view .LVU1037
 3084 00c0 4264     		str	r2, [r0, #68]
1686:Drivers/STM32H7xx_HAL_Driver/Src/stm32h7xx_hal_rcc.c ****   RCC_OscInitStruct->PLL.PLLFRACN = (uint32_t)(((RCC->PLL1FRACR & RCC_PLL1FRACR_FRACN1) >> RCC_PLL1
 3085              		.loc 1 1686 3 is_stmt 1 view .LVU1038
 3086              		.loc 1 1686 53 is_stmt 0 view .LVU1039
 3087 00c2 5B6B     		ldr	r3, [r3, #52]
 3088              		.loc 1 1686 37 view .LVU1040
 3089 00c4 C3F3CC03 		ubfx	r3, r3, #3, #13
 3090              		.loc 1 1686 35 view .LVU1041
 3091 00c8 8364     		str	r3, [r0, #72]
1687:Drivers/STM32H7xx_HAL_Driver/Src/stm32h7xx_hal_rcc.c **** }
 3092              		.loc 1 1687 1 view .LVU1042
 3093 00ca 7047     		bx	lr
 3094              	.L239:
1560:Drivers/STM32H7xx_HAL_Driver/Src/stm32h7xx_hal_rcc.c ****   {
 3095              		.loc 1 1560 8 is_stmt 1 view .LVU1043
1560:Drivers/STM32H7xx_HAL_Driver/Src/stm32h7xx_hal_rcc.c ****   {
 3096              		.loc 1 1560 15 is_stmt 0 view .LVU1044
 3097 00cc 124B     		ldr	r3, .L255
 3098 00ce 1B68     		ldr	r3, [r3]
1560:Drivers/STM32H7xx_HAL_Driver/Src/stm32h7xx_hal_rcc.c ****   {
ARM GAS  C:\Users\ADMINI~1\AppData\Local\Temp\cc7xIC5f.s 			page 94


 3099              		.loc 1 1560 10 view .LVU1045
 3100 00d0 13F4803F 		tst	r3, #65536
 3101 00d4 03D0     		beq	.L241
1562:Drivers/STM32H7xx_HAL_Driver/Src/stm32h7xx_hal_rcc.c ****   }
 3102              		.loc 1 1562 5 is_stmt 1 view .LVU1046
1562:Drivers/STM32H7xx_HAL_Driver/Src/stm32h7xx_hal_rcc.c ****   }
 3103              		.loc 1 1562 33 is_stmt 0 view .LVU1047
 3104 00d6 4FF48033 		mov	r3, #65536
 3105 00da 4360     		str	r3, [r0, #4]
 3106 00dc 9AE7     		b	.L240
 3107              	.L241:
1566:Drivers/STM32H7xx_HAL_Driver/Src/stm32h7xx_hal_rcc.c ****   }
 3108              		.loc 1 1566 5 is_stmt 1 view .LVU1048
1566:Drivers/STM32H7xx_HAL_Driver/Src/stm32h7xx_hal_rcc.c ****   }
 3109              		.loc 1 1566 33 is_stmt 0 view .LVU1049
 3110 00de 0023     		movs	r3, #0
 3111 00e0 4360     		str	r3, [r0, #4]
 3112 00e2 97E7     		b	.L240
 3113              	.L242:
1577:Drivers/STM32H7xx_HAL_Driver/Src/stm32h7xx_hal_rcc.c ****   }
 3114              		.loc 1 1577 5 is_stmt 1 view .LVU1050
1577:Drivers/STM32H7xx_HAL_Driver/Src/stm32h7xx_hal_rcc.c ****   }
 3115              		.loc 1 1577 33 is_stmt 0 view .LVU1051
 3116 00e4 0023     		movs	r3, #0
 3117 00e6 C361     		str	r3, [r0, #28]
 3118 00e8 9BE7     		b	.L243
 3119              	.L244:
1600:Drivers/STM32H7xx_HAL_Driver/Src/stm32h7xx_hal_rcc.c ****   }
 3120              		.loc 1 1600 5 is_stmt 1 view .LVU1052
1600:Drivers/STM32H7xx_HAL_Driver/Src/stm32h7xx_hal_rcc.c ****   }
 3121              		.loc 1 1600 33 is_stmt 0 view .LVU1053
 3122 00ea 0023     		movs	r3, #0
 3123 00ec C360     		str	r3, [r0, #12]
 3124 00ee A3E7     		b	.L245
 3125              	.L246:
1639:Drivers/STM32H7xx_HAL_Driver/Src/stm32h7xx_hal_rcc.c ****   {
 3126              		.loc 1 1639 8 is_stmt 1 view .LVU1054
1639:Drivers/STM32H7xx_HAL_Driver/Src/stm32h7xx_hal_rcc.c ****   {
 3127              		.loc 1 1639 15 is_stmt 0 view .LVU1055
 3128 00f0 094B     		ldr	r3, .L255
 3129 00f2 1B6F     		ldr	r3, [r3, #112]
1639:Drivers/STM32H7xx_HAL_Driver/Src/stm32h7xx_hal_rcc.c ****   {
 3130              		.loc 1 1639 10 view .LVU1056
 3131 00f4 13F0010F 		tst	r3, #1
 3132 00f8 02D0     		beq	.L248
1641:Drivers/STM32H7xx_HAL_Driver/Src/stm32h7xx_hal_rcc.c ****   }
 3133              		.loc 1 1641 5 is_stmt 1 view .LVU1057
1641:Drivers/STM32H7xx_HAL_Driver/Src/stm32h7xx_hal_rcc.c ****   }
 3134              		.loc 1 1641 33 is_stmt 0 view .LVU1058
 3135 00fa 0123     		movs	r3, #1
 3136 00fc 8360     		str	r3, [r0, #8]
 3137 00fe A6E7     		b	.L247
 3138              	.L248:
1645:Drivers/STM32H7xx_HAL_Driver/Src/stm32h7xx_hal_rcc.c ****   }
 3139              		.loc 1 1645 5 is_stmt 1 view .LVU1059
1645:Drivers/STM32H7xx_HAL_Driver/Src/stm32h7xx_hal_rcc.c ****   }
 3140              		.loc 1 1645 33 is_stmt 0 view .LVU1060
ARM GAS  C:\Users\ADMINI~1\AppData\Local\Temp\cc7xIC5f.s 			page 95


 3141 0100 0023     		movs	r3, #0
 3142 0102 8360     		str	r3, [r0, #8]
 3143 0104 A3E7     		b	.L247
 3144              	.L249:
1656:Drivers/STM32H7xx_HAL_Driver/Src/stm32h7xx_hal_rcc.c ****   }
 3145              		.loc 1 1656 5 is_stmt 1 view .LVU1061
1656:Drivers/STM32H7xx_HAL_Driver/Src/stm32h7xx_hal_rcc.c ****   }
 3146              		.loc 1 1656 33 is_stmt 0 view .LVU1062
 3147 0106 0023     		movs	r3, #0
 3148 0108 4361     		str	r3, [r0, #20]
 3149 010a A7E7     		b	.L250
 3150              	.L251:
1666:Drivers/STM32H7xx_HAL_Driver/Src/stm32h7xx_hal_rcc.c ****   }
 3151              		.loc 1 1666 5 is_stmt 1 view .LVU1063
1666:Drivers/STM32H7xx_HAL_Driver/Src/stm32h7xx_hal_rcc.c ****   }
 3152              		.loc 1 1666 35 is_stmt 0 view .LVU1064
 3153 010c 0023     		movs	r3, #0
 3154 010e 8361     		str	r3, [r0, #24]
 3155 0110 ABE7     		b	.L252
 3156              	.L253:
1676:Drivers/STM32H7xx_HAL_Driver/Src/stm32h7xx_hal_rcc.c ****   }
 3157              		.loc 1 1676 5 is_stmt 1 view .LVU1065
1676:Drivers/STM32H7xx_HAL_Driver/Src/stm32h7xx_hal_rcc.c ****   }
 3158              		.loc 1 1676 37 is_stmt 0 view .LVU1066
 3159 0112 0123     		movs	r3, #1
 3160 0114 4362     		str	r3, [r0, #36]
 3161 0116 AFE7     		b	.L254
 3162              	.L256:
 3163              		.align	2
 3164              	.L255:
 3165 0118 00440258 		.word	1476543488
 3166              		.cfi_endproc
 3167              	.LFE154:
 3169              		.section	.text.HAL_RCC_GetClockConfig,"ax",%progbits
 3170              		.align	1
 3171              		.global	HAL_RCC_GetClockConfig
 3172              		.syntax unified
 3173              		.thumb
 3174              		.thumb_func
 3175              		.fpu fpv5-d16
 3177              	HAL_RCC_GetClockConfig:
 3178              	.LVL205:
 3179              	.LFB155:
1688:Drivers/STM32H7xx_HAL_Driver/Src/stm32h7xx_hal_rcc.c **** 
1689:Drivers/STM32H7xx_HAL_Driver/Src/stm32h7xx_hal_rcc.c **** /**
1690:Drivers/STM32H7xx_HAL_Driver/Src/stm32h7xx_hal_rcc.c ****   * @brief  Configures the RCC_ClkInitStruct according to the internal
1691:Drivers/STM32H7xx_HAL_Driver/Src/stm32h7xx_hal_rcc.c ****   * RCC configuration registers.
1692:Drivers/STM32H7xx_HAL_Driver/Src/stm32h7xx_hal_rcc.c ****   * @param  RCC_ClkInitStruct: pointer to an RCC_ClkInitTypeDef structure that
1693:Drivers/STM32H7xx_HAL_Driver/Src/stm32h7xx_hal_rcc.c ****   * will be configured.
1694:Drivers/STM32H7xx_HAL_Driver/Src/stm32h7xx_hal_rcc.c ****   * @param  pFLatency: Pointer on the Flash Latency.
1695:Drivers/STM32H7xx_HAL_Driver/Src/stm32h7xx_hal_rcc.c ****   * @retval None
1696:Drivers/STM32H7xx_HAL_Driver/Src/stm32h7xx_hal_rcc.c ****   */
1697:Drivers/STM32H7xx_HAL_Driver/Src/stm32h7xx_hal_rcc.c **** void HAL_RCC_GetClockConfig(RCC_ClkInitTypeDef  *RCC_ClkInitStruct, uint32_t *pFLatency)
1698:Drivers/STM32H7xx_HAL_Driver/Src/stm32h7xx_hal_rcc.c **** {
 3180              		.loc 1 1698 1 is_stmt 1 view -0
 3181              		.cfi_startproc
 3182              		@ args = 0, pretend = 0, frame = 0
ARM GAS  C:\Users\ADMINI~1\AppData\Local\Temp\cc7xIC5f.s 			page 96


 3183              		@ frame_needed = 0, uses_anonymous_args = 0
 3184              		@ link register save eliminated.
1699:Drivers/STM32H7xx_HAL_Driver/Src/stm32h7xx_hal_rcc.c ****   /* Set all possible values for the Clock type parameter --------------------*/
1700:Drivers/STM32H7xx_HAL_Driver/Src/stm32h7xx_hal_rcc.c ****   RCC_ClkInitStruct->ClockType = RCC_CLOCKTYPE_SYSCLK | RCC_CLOCKTYPE_HCLK | RCC_CLOCKTYPE_D1PCLK1 
 3185              		.loc 1 1700 3 view .LVU1068
 3186              		.loc 1 1700 32 is_stmt 0 view .LVU1069
 3187 0000 3F23     		movs	r3, #63
 3188 0002 0360     		str	r3, [r0]
1701:Drivers/STM32H7xx_HAL_Driver/Src/stm32h7xx_hal_rcc.c ****                                  RCC_CLOCKTYPE_PCLK2 |  RCC_CLOCKTYPE_D3PCLK1  ;
1702:Drivers/STM32H7xx_HAL_Driver/Src/stm32h7xx_hal_rcc.c **** 
1703:Drivers/STM32H7xx_HAL_Driver/Src/stm32h7xx_hal_rcc.c ****   /* Get the SYSCLK configuration --------------------------------------------*/
1704:Drivers/STM32H7xx_HAL_Driver/Src/stm32h7xx_hal_rcc.c ****   RCC_ClkInitStruct->SYSCLKSource = (uint32_t)(RCC->CFGR & RCC_CFGR_SW);
 3189              		.loc 1 1704 3 is_stmt 1 view .LVU1070
 3190              		.loc 1 1704 51 is_stmt 0 view .LVU1071
 3191 0004 114B     		ldr	r3, .L258
 3192 0006 1A69     		ldr	r2, [r3, #16]
 3193              		.loc 1 1704 37 view .LVU1072
 3194 0008 02F00702 		and	r2, r2, #7
 3195              		.loc 1 1704 35 view .LVU1073
 3196 000c 4260     		str	r2, [r0, #4]
1705:Drivers/STM32H7xx_HAL_Driver/Src/stm32h7xx_hal_rcc.c **** 
1706:Drivers/STM32H7xx_HAL_Driver/Src/stm32h7xx_hal_rcc.c **** #if defined(RCC_D1CFGR_D1CPRE)
1707:Drivers/STM32H7xx_HAL_Driver/Src/stm32h7xx_hal_rcc.c ****   /* Get the SYSCLK configuration ----------------------------------------------*/
1708:Drivers/STM32H7xx_HAL_Driver/Src/stm32h7xx_hal_rcc.c ****   RCC_ClkInitStruct->SYSCLKDivider = (uint32_t)(RCC->D1CFGR & RCC_D1CFGR_D1CPRE);
 3197              		.loc 1 1708 3 is_stmt 1 view .LVU1074
 3198              		.loc 1 1708 52 is_stmt 0 view .LVU1075
 3199 000e 9A69     		ldr	r2, [r3, #24]
 3200              		.loc 1 1708 38 view .LVU1076
 3201 0010 02F47062 		and	r2, r2, #3840
 3202              		.loc 1 1708 36 view .LVU1077
 3203 0014 8260     		str	r2, [r0, #8]
1709:Drivers/STM32H7xx_HAL_Driver/Src/stm32h7xx_hal_rcc.c **** 
1710:Drivers/STM32H7xx_HAL_Driver/Src/stm32h7xx_hal_rcc.c ****   /* Get the D1HCLK configuration ----------------------------------------------*/
1711:Drivers/STM32H7xx_HAL_Driver/Src/stm32h7xx_hal_rcc.c ****   RCC_ClkInitStruct->AHBCLKDivider = (uint32_t)(RCC->D1CFGR & RCC_D1CFGR_HPRE);
 3204              		.loc 1 1711 3 is_stmt 1 view .LVU1078
 3205              		.loc 1 1711 52 is_stmt 0 view .LVU1079
 3206 0016 9A69     		ldr	r2, [r3, #24]
 3207              		.loc 1 1711 38 view .LVU1080
 3208 0018 02F00F02 		and	r2, r2, #15
 3209              		.loc 1 1711 36 view .LVU1081
 3210 001c C260     		str	r2, [r0, #12]
1712:Drivers/STM32H7xx_HAL_Driver/Src/stm32h7xx_hal_rcc.c **** 
1713:Drivers/STM32H7xx_HAL_Driver/Src/stm32h7xx_hal_rcc.c ****   /* Get the APB3 configuration ----------------------------------------------*/
1714:Drivers/STM32H7xx_HAL_Driver/Src/stm32h7xx_hal_rcc.c ****   RCC_ClkInitStruct->APB3CLKDivider = (uint32_t)(RCC->D1CFGR & RCC_D1CFGR_D1PPRE);
 3211              		.loc 1 1714 3 is_stmt 1 view .LVU1082
 3212              		.loc 1 1714 53 is_stmt 0 view .LVU1083
 3213 001e 9A69     		ldr	r2, [r3, #24]
 3214              		.loc 1 1714 39 view .LVU1084
 3215 0020 02F07002 		and	r2, r2, #112
 3216              		.loc 1 1714 37 view .LVU1085
 3217 0024 0261     		str	r2, [r0, #16]
1715:Drivers/STM32H7xx_HAL_Driver/Src/stm32h7xx_hal_rcc.c **** 
1716:Drivers/STM32H7xx_HAL_Driver/Src/stm32h7xx_hal_rcc.c ****   /* Get the APB1 configuration ----------------------------------------------*/
1717:Drivers/STM32H7xx_HAL_Driver/Src/stm32h7xx_hal_rcc.c ****   RCC_ClkInitStruct->APB1CLKDivider = (uint32_t)(RCC->D2CFGR & RCC_D2CFGR_D2PPRE1);
 3218              		.loc 1 1717 3 is_stmt 1 view .LVU1086
 3219              		.loc 1 1717 53 is_stmt 0 view .LVU1087
 3220 0026 DA69     		ldr	r2, [r3, #28]
ARM GAS  C:\Users\ADMINI~1\AppData\Local\Temp\cc7xIC5f.s 			page 97


 3221              		.loc 1 1717 39 view .LVU1088
 3222 0028 02F07002 		and	r2, r2, #112
 3223              		.loc 1 1717 37 view .LVU1089
 3224 002c 4261     		str	r2, [r0, #20]
1718:Drivers/STM32H7xx_HAL_Driver/Src/stm32h7xx_hal_rcc.c **** 
1719:Drivers/STM32H7xx_HAL_Driver/Src/stm32h7xx_hal_rcc.c ****   /* Get the APB2 configuration ----------------------------------------------*/
1720:Drivers/STM32H7xx_HAL_Driver/Src/stm32h7xx_hal_rcc.c ****   RCC_ClkInitStruct->APB2CLKDivider = (uint32_t)(RCC->D2CFGR & RCC_D2CFGR_D2PPRE2);
 3225              		.loc 1 1720 3 is_stmt 1 view .LVU1090
 3226              		.loc 1 1720 53 is_stmt 0 view .LVU1091
 3227 002e DA69     		ldr	r2, [r3, #28]
 3228              		.loc 1 1720 39 view .LVU1092
 3229 0030 02F4E062 		and	r2, r2, #1792
 3230              		.loc 1 1720 37 view .LVU1093
 3231 0034 8261     		str	r2, [r0, #24]
1721:Drivers/STM32H7xx_HAL_Driver/Src/stm32h7xx_hal_rcc.c **** 
1722:Drivers/STM32H7xx_HAL_Driver/Src/stm32h7xx_hal_rcc.c ****   /* Get the APB4 configuration ----------------------------------------------*/
1723:Drivers/STM32H7xx_HAL_Driver/Src/stm32h7xx_hal_rcc.c ****   RCC_ClkInitStruct->APB4CLKDivider = (uint32_t)(RCC->D3CFGR & RCC_D3CFGR_D3PPRE);
 3232              		.loc 1 1723 3 is_stmt 1 view .LVU1094
 3233              		.loc 1 1723 53 is_stmt 0 view .LVU1095
 3234 0036 1B6A     		ldr	r3, [r3, #32]
 3235              		.loc 1 1723 39 view .LVU1096
 3236 0038 03F07003 		and	r3, r3, #112
 3237              		.loc 1 1723 37 view .LVU1097
 3238 003c C361     		str	r3, [r0, #28]
1724:Drivers/STM32H7xx_HAL_Driver/Src/stm32h7xx_hal_rcc.c **** #else
1725:Drivers/STM32H7xx_HAL_Driver/Src/stm32h7xx_hal_rcc.c ****   /* Get the SYSCLK configuration ----------------------------------------------*/
1726:Drivers/STM32H7xx_HAL_Driver/Src/stm32h7xx_hal_rcc.c ****   RCC_ClkInitStruct->SYSCLKDivider = (uint32_t)(RCC->CDCFGR1 & RCC_CDCFGR1_CDCPRE);
1727:Drivers/STM32H7xx_HAL_Driver/Src/stm32h7xx_hal_rcc.c **** 
1728:Drivers/STM32H7xx_HAL_Driver/Src/stm32h7xx_hal_rcc.c ****   /* Get the D1HCLK configuration ----------------------------------------------*/
1729:Drivers/STM32H7xx_HAL_Driver/Src/stm32h7xx_hal_rcc.c ****   RCC_ClkInitStruct->AHBCLKDivider = (uint32_t)(RCC->CDCFGR1 & RCC_CDCFGR1_HPRE);
1730:Drivers/STM32H7xx_HAL_Driver/Src/stm32h7xx_hal_rcc.c **** 
1731:Drivers/STM32H7xx_HAL_Driver/Src/stm32h7xx_hal_rcc.c ****   /* Get the APB3 configuration ----------------------------------------------*/
1732:Drivers/STM32H7xx_HAL_Driver/Src/stm32h7xx_hal_rcc.c ****   RCC_ClkInitStruct->APB3CLKDivider = (uint32_t)(RCC->CDCFGR1 & RCC_CDCFGR1_CDPPRE);
1733:Drivers/STM32H7xx_HAL_Driver/Src/stm32h7xx_hal_rcc.c **** 
1734:Drivers/STM32H7xx_HAL_Driver/Src/stm32h7xx_hal_rcc.c ****   /* Get the APB1 configuration ----------------------------------------------*/
1735:Drivers/STM32H7xx_HAL_Driver/Src/stm32h7xx_hal_rcc.c ****   RCC_ClkInitStruct->APB1CLKDivider = (uint32_t)(RCC->CDCFGR2 & RCC_CDCFGR2_CDPPRE1);
1736:Drivers/STM32H7xx_HAL_Driver/Src/stm32h7xx_hal_rcc.c **** 
1737:Drivers/STM32H7xx_HAL_Driver/Src/stm32h7xx_hal_rcc.c ****   /* Get the APB2 configuration ----------------------------------------------*/
1738:Drivers/STM32H7xx_HAL_Driver/Src/stm32h7xx_hal_rcc.c ****   RCC_ClkInitStruct->APB2CLKDivider = (uint32_t)(RCC->CDCFGR2 & RCC_CDCFGR2_CDPPRE2);
1739:Drivers/STM32H7xx_HAL_Driver/Src/stm32h7xx_hal_rcc.c **** 
1740:Drivers/STM32H7xx_HAL_Driver/Src/stm32h7xx_hal_rcc.c ****   /* Get the APB4 configuration ----------------------------------------------*/
1741:Drivers/STM32H7xx_HAL_Driver/Src/stm32h7xx_hal_rcc.c ****   RCC_ClkInitStruct->APB4CLKDivider = (uint32_t)(RCC->SRDCFGR & RCC_SRDCFGR_SRDPPRE);
1742:Drivers/STM32H7xx_HAL_Driver/Src/stm32h7xx_hal_rcc.c **** #endif
1743:Drivers/STM32H7xx_HAL_Driver/Src/stm32h7xx_hal_rcc.c **** 
1744:Drivers/STM32H7xx_HAL_Driver/Src/stm32h7xx_hal_rcc.c ****   /* Get the Flash Wait State (Latency) configuration ------------------------*/
1745:Drivers/STM32H7xx_HAL_Driver/Src/stm32h7xx_hal_rcc.c ****   *pFLatency = (uint32_t)(FLASH->ACR & FLASH_ACR_LATENCY);
 3239              		.loc 1 1745 3 is_stmt 1 view .LVU1098
 3240              		.loc 1 1745 32 is_stmt 0 view .LVU1099
 3241 003e 044B     		ldr	r3, .L258+4
 3242 0040 1B68     		ldr	r3, [r3]
 3243              		.loc 1 1745 16 view .LVU1100
 3244 0042 03F00F03 		and	r3, r3, #15
 3245              		.loc 1 1745 14 view .LVU1101
 3246 0046 0B60     		str	r3, [r1]
1746:Drivers/STM32H7xx_HAL_Driver/Src/stm32h7xx_hal_rcc.c **** }
 3247              		.loc 1 1746 1 view .LVU1102
 3248 0048 7047     		bx	lr
ARM GAS  C:\Users\ADMINI~1\AppData\Local\Temp\cc7xIC5f.s 			page 98


 3249              	.L259:
 3250 004a 00BF     		.align	2
 3251              	.L258:
 3252 004c 00440258 		.word	1476543488
 3253 0050 00200052 		.word	1375739904
 3254              		.cfi_endproc
 3255              	.LFE155:
 3257              		.section	.text.HAL_RCC_CSSCallback,"ax",%progbits
 3258              		.align	1
 3259              		.weak	HAL_RCC_CSSCallback
 3260              		.syntax unified
 3261              		.thumb
 3262              		.thumb_func
 3263              		.fpu fpv5-d16
 3265              	HAL_RCC_CSSCallback:
 3266              	.LFB157:
1747:Drivers/STM32H7xx_HAL_Driver/Src/stm32h7xx_hal_rcc.c **** 
1748:Drivers/STM32H7xx_HAL_Driver/Src/stm32h7xx_hal_rcc.c **** /**
1749:Drivers/STM32H7xx_HAL_Driver/Src/stm32h7xx_hal_rcc.c ****   * @brief This function handles the RCC CSS interrupt request.
1750:Drivers/STM32H7xx_HAL_Driver/Src/stm32h7xx_hal_rcc.c ****   * @note This API should be called under the NMI_Handler().
1751:Drivers/STM32H7xx_HAL_Driver/Src/stm32h7xx_hal_rcc.c ****   * @retval None
1752:Drivers/STM32H7xx_HAL_Driver/Src/stm32h7xx_hal_rcc.c ****   */
1753:Drivers/STM32H7xx_HAL_Driver/Src/stm32h7xx_hal_rcc.c **** void HAL_RCC_NMI_IRQHandler(void)
1754:Drivers/STM32H7xx_HAL_Driver/Src/stm32h7xx_hal_rcc.c **** {
1755:Drivers/STM32H7xx_HAL_Driver/Src/stm32h7xx_hal_rcc.c ****   /* Check RCC CSSF flag  */
1756:Drivers/STM32H7xx_HAL_Driver/Src/stm32h7xx_hal_rcc.c ****   if(__HAL_RCC_GET_IT(RCC_IT_CSS))
1757:Drivers/STM32H7xx_HAL_Driver/Src/stm32h7xx_hal_rcc.c ****   {
1758:Drivers/STM32H7xx_HAL_Driver/Src/stm32h7xx_hal_rcc.c ****     /* RCC Clock Security System interrupt user callback */
1759:Drivers/STM32H7xx_HAL_Driver/Src/stm32h7xx_hal_rcc.c ****     HAL_RCC_CCSCallback();
1760:Drivers/STM32H7xx_HAL_Driver/Src/stm32h7xx_hal_rcc.c **** 
1761:Drivers/STM32H7xx_HAL_Driver/Src/stm32h7xx_hal_rcc.c ****     /* Clear RCC CSS pending bit */
1762:Drivers/STM32H7xx_HAL_Driver/Src/stm32h7xx_hal_rcc.c ****     __HAL_RCC_CLEAR_IT(RCC_IT_CSS);
1763:Drivers/STM32H7xx_HAL_Driver/Src/stm32h7xx_hal_rcc.c ****   }
1764:Drivers/STM32H7xx_HAL_Driver/Src/stm32h7xx_hal_rcc.c **** }
1765:Drivers/STM32H7xx_HAL_Driver/Src/stm32h7xx_hal_rcc.c **** 
1766:Drivers/STM32H7xx_HAL_Driver/Src/stm32h7xx_hal_rcc.c **** /**
1767:Drivers/STM32H7xx_HAL_Driver/Src/stm32h7xx_hal_rcc.c ****   * @brief  RCC Clock Security System interrupt callback
1768:Drivers/STM32H7xx_HAL_Driver/Src/stm32h7xx_hal_rcc.c ****   * @retval none
1769:Drivers/STM32H7xx_HAL_Driver/Src/stm32h7xx_hal_rcc.c ****   */
1770:Drivers/STM32H7xx_HAL_Driver/Src/stm32h7xx_hal_rcc.c **** __weak void HAL_RCC_CCSCallback(void)
1771:Drivers/STM32H7xx_HAL_Driver/Src/stm32h7xx_hal_rcc.c **** {
 3267              		.loc 1 1771 1 is_stmt 1 view -0
 3268              		.cfi_startproc
 3269              		@ args = 0, pretend = 0, frame = 0
 3270              		@ frame_needed = 0, uses_anonymous_args = 0
 3271              		@ link register save eliminated.
1772:Drivers/STM32H7xx_HAL_Driver/Src/stm32h7xx_hal_rcc.c ****   /* NOTE : This function Should not be modified, when the callback is needed,
1773:Drivers/STM32H7xx_HAL_Driver/Src/stm32h7xx_hal_rcc.c ****             the HAL_RCC_CCSCallback could be implemented in the user file
1774:Drivers/STM32H7xx_HAL_Driver/Src/stm32h7xx_hal_rcc.c ****    */
1775:Drivers/STM32H7xx_HAL_Driver/Src/stm32h7xx_hal_rcc.c **** }
 3272              		.loc 1 1775 1 view .LVU1104
 3273 0000 7047     		bx	lr
 3274              		.cfi_endproc
 3275              	.LFE157:
 3277              		.section	.text.HAL_RCC_NMI_IRQHandler,"ax",%progbits
 3278              		.align	1
 3279              		.global	HAL_RCC_NMI_IRQHandler
ARM GAS  C:\Users\ADMINI~1\AppData\Local\Temp\cc7xIC5f.s 			page 99


 3280              		.syntax unified
 3281              		.thumb
 3282              		.thumb_func
 3283              		.fpu fpv5-d16
 3285              	HAL_RCC_NMI_IRQHandler:
 3286              	.LFB156:
1754:Drivers/STM32H7xx_HAL_Driver/Src/stm32h7xx_hal_rcc.c ****   /* Check RCC CSSF flag  */
 3287              		.loc 1 1754 1 view -0
 3288              		.cfi_startproc
 3289              		@ args = 0, pretend = 0, frame = 0
 3290              		@ frame_needed = 0, uses_anonymous_args = 0
 3291 0000 08B5     		push	{r3, lr}
 3292              	.LCFI18:
 3293              		.cfi_def_cfa_offset 8
 3294              		.cfi_offset 3, -8
 3295              		.cfi_offset 14, -4
1756:Drivers/STM32H7xx_HAL_Driver/Src/stm32h7xx_hal_rcc.c ****   {
 3296              		.loc 1 1756 3 view .LVU1106
1756:Drivers/STM32H7xx_HAL_Driver/Src/stm32h7xx_hal_rcc.c ****   {
 3297              		.loc 1 1756 6 is_stmt 0 view .LVU1107
 3298 0002 064B     		ldr	r3, .L265
 3299 0004 5B6E     		ldr	r3, [r3, #100]
1756:Drivers/STM32H7xx_HAL_Driver/Src/stm32h7xx_hal_rcc.c ****   {
 3300              		.loc 1 1756 5 view .LVU1108
 3301 0006 13F4806F 		tst	r3, #1024
 3302 000a 00D1     		bne	.L264
 3303              	.L261:
1764:Drivers/STM32H7xx_HAL_Driver/Src/stm32h7xx_hal_rcc.c **** 
 3304              		.loc 1 1764 1 view .LVU1109
 3305 000c 08BD     		pop	{r3, pc}
 3306              	.L264:
1759:Drivers/STM32H7xx_HAL_Driver/Src/stm32h7xx_hal_rcc.c **** 
 3307              		.loc 1 1759 5 is_stmt 1 view .LVU1110
 3308 000e FFF7FEFF 		bl	HAL_RCC_CSSCallback
 3309              	.LVL206:
1762:Drivers/STM32H7xx_HAL_Driver/Src/stm32h7xx_hal_rcc.c ****   }
 3310              		.loc 1 1762 5 view .LVU1111
 3311 0012 024B     		ldr	r3, .L265
 3312 0014 4FF48062 		mov	r2, #1024
 3313 0018 9A66     		str	r2, [r3, #104]
1764:Drivers/STM32H7xx_HAL_Driver/Src/stm32h7xx_hal_rcc.c **** 
 3314              		.loc 1 1764 1 is_stmt 0 view .LVU1112
 3315 001a F7E7     		b	.L261
 3316              	.L266:
 3317              		.align	2
 3318              	.L265:
 3319 001c 00440258 		.word	1476543488
 3320              		.cfi_endproc
 3321              	.LFE156:
 3323              		.text
 3324              	.Letext0:
 3325              		.file 2 "d:\\program files (x86)\\gcc-arm-none-eabi-10-2020-q4-major-win32\\tool\\arm-none-eabi\\i
 3326              		.file 3 "d:\\program files (x86)\\gcc-arm-none-eabi-10-2020-q4-major-win32\\tool\\arm-none-eabi\\i
 3327              		.file 4 "Drivers/CMSIS/Device/ST/STM32H7xx/Include/system_stm32h7xx.h"
 3328              		.file 5 "Drivers/CMSIS/Device/ST/STM32H7xx/Include/stm32h723xx.h"
 3329              		.file 6 "d:\\program files (x86)\\gcc-arm-none-eabi-10-2020-q4-major-win32\\tool\\arm-none-eabi\\i
 3330              		.file 7 "Drivers/STM32H7xx_HAL_Driver/Inc/stm32h7xx_hal_def.h"
ARM GAS  C:\Users\ADMINI~1\AppData\Local\Temp\cc7xIC5f.s 			page 100


 3331              		.file 8 "Drivers/STM32H7xx_HAL_Driver/Inc/stm32h7xx_hal_rcc.h"
 3332              		.file 9 "Drivers/STM32H7xx_HAL_Driver/Inc/stm32h7xx_hal_gpio.h"
 3333              		.file 10 "Drivers/STM32H7xx_HAL_Driver/Inc/stm32h7xx_hal.h"
ARM GAS  C:\Users\ADMINI~1\AppData\Local\Temp\cc7xIC5f.s 			page 101


DEFINED SYMBOLS
                            *ABS*:00000000 stm32h7xx_hal_rcc.c
C:\Users\ADMINI~1\AppData\Local\Temp\cc7xIC5f.s:17     .text.HAL_RCC_DeInit:00000000 $t
C:\Users\ADMINI~1\AppData\Local\Temp\cc7xIC5f.s:25     .text.HAL_RCC_DeInit:00000000 HAL_RCC_DeInit
C:\Users\ADMINI~1\AppData\Local\Temp\cc7xIC5f.s:372    .text.HAL_RCC_DeInit:000001a4 $d
C:\Users\ADMINI~1\AppData\Local\Temp\cc7xIC5f.s:386    .text.HAL_RCC_OscConfig:00000000 $t
C:\Users\ADMINI~1\AppData\Local\Temp\cc7xIC5f.s:393    .text.HAL_RCC_OscConfig:00000000 HAL_RCC_OscConfig
C:\Users\ADMINI~1\AppData\Local\Temp\cc7xIC5f.s:984    .text.HAL_RCC_OscConfig:00000294 $d
C:\Users\ADMINI~1\AppData\Local\Temp\cc7xIC5f.s:990    .text.HAL_RCC_OscConfig:00000298 $t
C:\Users\ADMINI~1\AppData\Local\Temp\cc7xIC5f.s:1469   .text.HAL_RCC_OscConfig:00000510 $d
C:\Users\ADMINI~1\AppData\Local\Temp\cc7xIC5f.s:1477   .text.HAL_RCC_OscConfig:00000520 $t
C:\Users\ADMINI~1\AppData\Local\Temp\cc7xIC5f.s:1643   .text.HAL_RCC_OscConfig:000005a4 $d
C:\Users\ADMINI~1\AppData\Local\Temp\cc7xIC5f.s:1648   .text.HAL_RCC_MCOConfig:00000000 $t
C:\Users\ADMINI~1\AppData\Local\Temp\cc7xIC5f.s:1655   .text.HAL_RCC_MCOConfig:00000000 HAL_RCC_MCOConfig
C:\Users\ADMINI~1\AppData\Local\Temp\cc7xIC5f.s:1805   .text.HAL_RCC_MCOConfig:00000098 $d
C:\Users\ADMINI~1\AppData\Local\Temp\cc7xIC5f.s:1812   .text.HAL_RCC_EnableCSS:00000000 $t
C:\Users\ADMINI~1\AppData\Local\Temp\cc7xIC5f.s:1819   .text.HAL_RCC_EnableCSS:00000000 HAL_RCC_EnableCSS
C:\Users\ADMINI~1\AppData\Local\Temp\cc7xIC5f.s:1836   .text.HAL_RCC_EnableCSS:0000000c $d
C:\Users\ADMINI~1\AppData\Local\Temp\cc7xIC5f.s:1841   .text.HAL_RCC_DisableCSS:00000000 $t
C:\Users\ADMINI~1\AppData\Local\Temp\cc7xIC5f.s:1848   .text.HAL_RCC_DisableCSS:00000000 HAL_RCC_DisableCSS
C:\Users\ADMINI~1\AppData\Local\Temp\cc7xIC5f.s:1865   .text.HAL_RCC_DisableCSS:0000000c $d
C:\Users\ADMINI~1\AppData\Local\Temp\cc7xIC5f.s:1870   .text.HAL_RCC_GetSysClockFreq:00000000 $t
C:\Users\ADMINI~1\AppData\Local\Temp\cc7xIC5f.s:1877   .text.HAL_RCC_GetSysClockFreq:00000000 HAL_RCC_GetSysClockFreq
C:\Users\ADMINI~1\AppData\Local\Temp\cc7xIC5f.s:2190   .text.HAL_RCC_GetSysClockFreq:000001d4 $d
C:\Users\ADMINI~1\AppData\Local\Temp\cc7xIC5f.s:2202   .text.HAL_RCC_ClockConfig:00000000 $t
C:\Users\ADMINI~1\AppData\Local\Temp\cc7xIC5f.s:2209   .text.HAL_RCC_ClockConfig:00000000 HAL_RCC_ClockConfig
C:\Users\ADMINI~1\AppData\Local\Temp\cc7xIC5f.s:2735   .text.HAL_RCC_ClockConfig:0000027c $d
C:\Users\ADMINI~1\AppData\Local\Temp\cc7xIC5f.s:2745   .text.HAL_RCC_GetHCLKFreq:00000000 $t
C:\Users\ADMINI~1\AppData\Local\Temp\cc7xIC5f.s:2752   .text.HAL_RCC_GetHCLKFreq:00000000 HAL_RCC_GetHCLKFreq
C:\Users\ADMINI~1\AppData\Local\Temp\cc7xIC5f.s:2807   .text.HAL_RCC_GetHCLKFreq:00000034 $d
C:\Users\ADMINI~1\AppData\Local\Temp\cc7xIC5f.s:2815   .text.HAL_RCC_GetPCLK1Freq:00000000 $t
C:\Users\ADMINI~1\AppData\Local\Temp\cc7xIC5f.s:2822   .text.HAL_RCC_GetPCLK1Freq:00000000 HAL_RCC_GetPCLK1Freq
C:\Users\ADMINI~1\AppData\Local\Temp\cc7xIC5f.s:2853   .text.HAL_RCC_GetPCLK1Freq:0000001c $d
C:\Users\ADMINI~1\AppData\Local\Temp\cc7xIC5f.s:2859   .text.HAL_RCC_GetPCLK2Freq:00000000 $t
C:\Users\ADMINI~1\AppData\Local\Temp\cc7xIC5f.s:2866   .text.HAL_RCC_GetPCLK2Freq:00000000 HAL_RCC_GetPCLK2Freq
C:\Users\ADMINI~1\AppData\Local\Temp\cc7xIC5f.s:2897   .text.HAL_RCC_GetPCLK2Freq:0000001c $d
C:\Users\ADMINI~1\AppData\Local\Temp\cc7xIC5f.s:2903   .text.HAL_RCC_GetOscConfig:00000000 $t
C:\Users\ADMINI~1\AppData\Local\Temp\cc7xIC5f.s:2910   .text.HAL_RCC_GetOscConfig:00000000 HAL_RCC_GetOscConfig
C:\Users\ADMINI~1\AppData\Local\Temp\cc7xIC5f.s:3165   .text.HAL_RCC_GetOscConfig:00000118 $d
C:\Users\ADMINI~1\AppData\Local\Temp\cc7xIC5f.s:3170   .text.HAL_RCC_GetClockConfig:00000000 $t
C:\Users\ADMINI~1\AppData\Local\Temp\cc7xIC5f.s:3177   .text.HAL_RCC_GetClockConfig:00000000 HAL_RCC_GetClockConfig
C:\Users\ADMINI~1\AppData\Local\Temp\cc7xIC5f.s:3252   .text.HAL_RCC_GetClockConfig:0000004c $d
C:\Users\ADMINI~1\AppData\Local\Temp\cc7xIC5f.s:3258   .text.HAL_RCC_CSSCallback:00000000 $t
C:\Users\ADMINI~1\AppData\Local\Temp\cc7xIC5f.s:3265   .text.HAL_RCC_CSSCallback:00000000 HAL_RCC_CSSCallback
C:\Users\ADMINI~1\AppData\Local\Temp\cc7xIC5f.s:3278   .text.HAL_RCC_NMI_IRQHandler:00000000 $t
C:\Users\ADMINI~1\AppData\Local\Temp\cc7xIC5f.s:3285   .text.HAL_RCC_NMI_IRQHandler:00000000 HAL_RCC_NMI_IRQHandler
C:\Users\ADMINI~1\AppData\Local\Temp\cc7xIC5f.s:3319   .text.HAL_RCC_NMI_IRQHandler:0000001c $d

UNDEFINED SYMBOLS
HAL_GetTick
HAL_InitTick
SystemCoreClock
SystemD2Clock
uwTickPrio
HAL_GPIO_Init
D1CorePrescTable
