ARM GAS  C:\Users\zhangge\AppData\Local\Temp\cclGjwHK.s 			page 1


   1              		.cpu cortex-m7
   2              		.arch armv7e-m
   3              		.fpu fpv5-d16
   4              		.eabi_attribute 28, 1
   5              		.eabi_attribute 20, 1
   6              		.eabi_attribute 21, 1
   7              		.eabi_attribute 23, 3
   8              		.eabi_attribute 24, 1
   9              		.eabi_attribute 25, 1
  10              		.eabi_attribute 26, 1
  11              		.eabi_attribute 30, 1
  12              		.eabi_attribute 34, 1
  13              		.eabi_attribute 18, 4
  14              		.file	"system_stm32h7xx.c"
  15              		.text
  16              	.Ltext0:
  17              		.cfi_sections	.debug_frame
  18              		.section	.text.SystemInit,"ax",%progbits
  19              		.align	1
  20              		.global	SystemInit
  21              		.syntax unified
  22              		.thumb
  23              		.thumb_func
  25              	SystemInit:
  26              	.LFB350:
  27              		.file 1 "Src/system_stm32h7xx.c"
   1:Src/system_stm32h7xx.c **** /**
   2:Src/system_stm32h7xx.c ****   ******************************************************************************
   3:Src/system_stm32h7xx.c ****   * @file    system_stm32h7xx.c
   4:Src/system_stm32h7xx.c ****   * @author  MCD Application Team
   5:Src/system_stm32h7xx.c ****   * @brief   CMSIS Cortex-Mx Device Peripheral Access Layer System Source File.
   6:Src/system_stm32h7xx.c ****   *
   7:Src/system_stm32h7xx.c ****   *   This file provides two functions and one global variable to be called from
   8:Src/system_stm32h7xx.c ****   *   user application:
   9:Src/system_stm32h7xx.c ****   *      - SystemInit(): This function is called at startup just after reset and
  10:Src/system_stm32h7xx.c ****   *                      before branch to main program. This call is made inside
  11:Src/system_stm32h7xx.c ****   *                      the "startup_stm32h7xx.s" file.
  12:Src/system_stm32h7xx.c ****   *
  13:Src/system_stm32h7xx.c ****   *      - SystemCoreClock variable: Contains the core clock, it can be used
  14:Src/system_stm32h7xx.c ****   *                                  by the user application to setup the SysTick
  15:Src/system_stm32h7xx.c ****   *                                  timer or configure other parameters.
  16:Src/system_stm32h7xx.c ****   *
  17:Src/system_stm32h7xx.c ****   *      - SystemCoreClockUpdate(): Updates the variable SystemCoreClock and must
  18:Src/system_stm32h7xx.c ****   *                                 be called whenever the core clock is changed
  19:Src/system_stm32h7xx.c ****   *                                 during program execution.
  20:Src/system_stm32h7xx.c ****   *
  21:Src/system_stm32h7xx.c ****   *
  22:Src/system_stm32h7xx.c ****   ******************************************************************************
  23:Src/system_stm32h7xx.c ****   * @attention
  24:Src/system_stm32h7xx.c ****   *
  25:Src/system_stm32h7xx.c ****   * Copyright (c) 2017 STMicroelectronics.
  26:Src/system_stm32h7xx.c ****   * All rights reserved.
  27:Src/system_stm32h7xx.c ****   *
  28:Src/system_stm32h7xx.c ****   * This software is licensed under terms that can be found in the LICENSE file
  29:Src/system_stm32h7xx.c ****   * in the root directory of this software component.
  30:Src/system_stm32h7xx.c ****   * If no LICENSE file comes with this software, it is provided AS-IS.
  31:Src/system_stm32h7xx.c ****   *
ARM GAS  C:\Users\zhangge\AppData\Local\Temp\cclGjwHK.s 			page 2


  32:Src/system_stm32h7xx.c ****   ******************************************************************************
  33:Src/system_stm32h7xx.c ****   */
  34:Src/system_stm32h7xx.c **** 
  35:Src/system_stm32h7xx.c **** /** @addtogroup CMSIS
  36:Src/system_stm32h7xx.c ****   * @{
  37:Src/system_stm32h7xx.c ****   */
  38:Src/system_stm32h7xx.c **** 
  39:Src/system_stm32h7xx.c **** /** @addtogroup stm32h7xx_system
  40:Src/system_stm32h7xx.c ****   * @{
  41:Src/system_stm32h7xx.c ****   */
  42:Src/system_stm32h7xx.c **** 
  43:Src/system_stm32h7xx.c **** /** @addtogroup STM32H7xx_System_Private_Includes
  44:Src/system_stm32h7xx.c ****   * @{
  45:Src/system_stm32h7xx.c ****   */
  46:Src/system_stm32h7xx.c **** 
  47:Src/system_stm32h7xx.c **** #include "stm32h7xx.h"
  48:Src/system_stm32h7xx.c **** #include <math.h>
  49:Src/system_stm32h7xx.c **** 
  50:Src/system_stm32h7xx.c **** #if !defined  (HSE_VALUE)
  51:Src/system_stm32h7xx.c **** #define HSE_VALUE    ((uint32_t)25000000) /*!< Value of the External oscillator in Hz */
  52:Src/system_stm32h7xx.c **** #endif /* HSE_VALUE */
  53:Src/system_stm32h7xx.c **** 
  54:Src/system_stm32h7xx.c **** #if !defined  (CSI_VALUE)
  55:Src/system_stm32h7xx.c ****   #define CSI_VALUE    ((uint32_t)4000000) /*!< Value of the Internal oscillator in Hz*/
  56:Src/system_stm32h7xx.c **** #endif /* CSI_VALUE */
  57:Src/system_stm32h7xx.c **** 
  58:Src/system_stm32h7xx.c **** #if !defined  (HSI_VALUE)
  59:Src/system_stm32h7xx.c ****   #define HSI_VALUE    ((uint32_t)64000000) /*!< Value of the Internal oscillator in Hz*/
  60:Src/system_stm32h7xx.c **** #endif /* HSI_VALUE */
  61:Src/system_stm32h7xx.c **** 
  62:Src/system_stm32h7xx.c **** 
  63:Src/system_stm32h7xx.c **** /**
  64:Src/system_stm32h7xx.c ****   * @}
  65:Src/system_stm32h7xx.c ****   */
  66:Src/system_stm32h7xx.c **** 
  67:Src/system_stm32h7xx.c **** /** @addtogroup STM32H7xx_System_Private_TypesDefinitions
  68:Src/system_stm32h7xx.c ****   * @{
  69:Src/system_stm32h7xx.c ****   */
  70:Src/system_stm32h7xx.c **** 
  71:Src/system_stm32h7xx.c **** /**
  72:Src/system_stm32h7xx.c ****   * @}
  73:Src/system_stm32h7xx.c ****   */
  74:Src/system_stm32h7xx.c **** 
  75:Src/system_stm32h7xx.c **** /** @addtogroup STM32H7xx_System_Private_Defines
  76:Src/system_stm32h7xx.c ****   * @{
  77:Src/system_stm32h7xx.c ****   */
  78:Src/system_stm32h7xx.c **** 
  79:Src/system_stm32h7xx.c **** /************************* Miscellaneous Configuration ************************/
  80:Src/system_stm32h7xx.c **** /*!< Uncomment the following line if you need to use initialized data in D2 domain SRAM (AHB SRAM) 
  81:Src/system_stm32h7xx.c **** /* #define DATA_IN_D2_SRAM */
  82:Src/system_stm32h7xx.c **** 
  83:Src/system_stm32h7xx.c **** /* Note: Following vector table addresses must be defined in line with linker
  84:Src/system_stm32h7xx.c ****          configuration. */
  85:Src/system_stm32h7xx.c **** /*!< Uncomment the following line if you need to relocate the vector table
  86:Src/system_stm32h7xx.c ****      anywhere in FLASH BANK1 or AXI SRAM, else the vector table is kept at the automatic
  87:Src/system_stm32h7xx.c ****      remap of boot address selected */
  88:Src/system_stm32h7xx.c **** /* #define USER_VECT_TAB_ADDRESS */
ARM GAS  C:\Users\zhangge\AppData\Local\Temp\cclGjwHK.s 			page 3


  89:Src/system_stm32h7xx.c **** 
  90:Src/system_stm32h7xx.c **** #if defined(USER_VECT_TAB_ADDRESS)
  91:Src/system_stm32h7xx.c **** #if defined(DUAL_CORE) && defined(CORE_CM4)
  92:Src/system_stm32h7xx.c **** /*!< Uncomment the following line if you need to relocate your vector Table
  93:Src/system_stm32h7xx.c ****      in D2 AXI SRAM else user remap will be done in FLASH BANK2. */
  94:Src/system_stm32h7xx.c **** /* #define VECT_TAB_SRAM */
  95:Src/system_stm32h7xx.c **** #if defined(VECT_TAB_SRAM)
  96:Src/system_stm32h7xx.c **** #define VECT_TAB_BASE_ADDRESS   D2_AXISRAM_BASE   /*!< Vector Table base address field.
  97:Src/system_stm32h7xx.c ****                                                        This value must be a multiple of 0x300. */
  98:Src/system_stm32h7xx.c **** #define VECT_TAB_OFFSET         0x00000000U       /*!< Vector Table base offset field.
  99:Src/system_stm32h7xx.c ****                                                        This value must be a multiple of 0x300. */
 100:Src/system_stm32h7xx.c **** #else
 101:Src/system_stm32h7xx.c **** #define VECT_TAB_BASE_ADDRESS   FLASH_BANK2_BASE  /*!< Vector Table base address field.
 102:Src/system_stm32h7xx.c ****                                                        This value must be a multiple of 0x300. */
 103:Src/system_stm32h7xx.c **** #define VECT_TAB_OFFSET         0x00000000U       /*!< Vector Table base offset field.
 104:Src/system_stm32h7xx.c ****                                                        This value must be a multiple of 0x300. */
 105:Src/system_stm32h7xx.c **** #endif /* VECT_TAB_SRAM */
 106:Src/system_stm32h7xx.c **** #else
 107:Src/system_stm32h7xx.c **** /*!< Uncomment the following line if you need to relocate your vector Table
 108:Src/system_stm32h7xx.c ****      in D1 AXI SRAM else user remap will be done in FLASH BANK1. */
 109:Src/system_stm32h7xx.c **** /* #define VECT_TAB_SRAM */
 110:Src/system_stm32h7xx.c **** #if defined(VECT_TAB_SRAM)
 111:Src/system_stm32h7xx.c **** #define VECT_TAB_BASE_ADDRESS   D1_AXISRAM_BASE   /*!< Vector Table base address field.
 112:Src/system_stm32h7xx.c ****                                                        This value must be a multiple of 0x300. */
 113:Src/system_stm32h7xx.c **** #define VECT_TAB_OFFSET         0x00000000U       /*!< Vector Table base offset field.
 114:Src/system_stm32h7xx.c ****                                                        This value must be a multiple of 0x300. */
 115:Src/system_stm32h7xx.c **** #else
 116:Src/system_stm32h7xx.c **** #define VECT_TAB_BASE_ADDRESS   FLASH_BANK1_BASE  /*!< Vector Table base address field.
 117:Src/system_stm32h7xx.c ****                                                        This value must be a multiple of 0x300. */
 118:Src/system_stm32h7xx.c **** #define VECT_TAB_OFFSET         0x00000000U       /*!< Vector Table base offset field.
 119:Src/system_stm32h7xx.c ****                                                        This value must be a multiple of 0x300. */
 120:Src/system_stm32h7xx.c **** #endif /* VECT_TAB_SRAM */
 121:Src/system_stm32h7xx.c **** #endif /* DUAL_CORE && CORE_CM4 */
 122:Src/system_stm32h7xx.c **** #endif /* USER_VECT_TAB_ADDRESS */
 123:Src/system_stm32h7xx.c **** /******************************************************************************/
 124:Src/system_stm32h7xx.c **** 
 125:Src/system_stm32h7xx.c **** /**
 126:Src/system_stm32h7xx.c ****   * @}
 127:Src/system_stm32h7xx.c ****   */
 128:Src/system_stm32h7xx.c **** 
 129:Src/system_stm32h7xx.c **** /** @addtogroup STM32H7xx_System_Private_Macros
 130:Src/system_stm32h7xx.c ****   * @{
 131:Src/system_stm32h7xx.c ****   */
 132:Src/system_stm32h7xx.c **** 
 133:Src/system_stm32h7xx.c **** /**
 134:Src/system_stm32h7xx.c ****   * @}
 135:Src/system_stm32h7xx.c ****   */
 136:Src/system_stm32h7xx.c **** 
 137:Src/system_stm32h7xx.c **** /** @addtogroup STM32H7xx_System_Private_Variables
 138:Src/system_stm32h7xx.c ****   * @{
 139:Src/system_stm32h7xx.c ****   */
 140:Src/system_stm32h7xx.c ****   /* This variable is updated in three ways:
 141:Src/system_stm32h7xx.c ****       1) by calling CMSIS function SystemCoreClockUpdate()
 142:Src/system_stm32h7xx.c ****       2) by calling HAL API function HAL_RCC_GetHCLKFreq()
 143:Src/system_stm32h7xx.c ****       3) each time HAL_RCC_ClockConfig() is called to configure the system clock frequency
 144:Src/system_stm32h7xx.c ****          Note: If you use this function to configure the system clock; then there
 145:Src/system_stm32h7xx.c ****                is no need to call the 2 first functions listed above, since SystemCoreClock
ARM GAS  C:\Users\zhangge\AppData\Local\Temp\cclGjwHK.s 			page 4


 146:Src/system_stm32h7xx.c ****                variable is updated automatically.
 147:Src/system_stm32h7xx.c ****   */
 148:Src/system_stm32h7xx.c ****   uint32_t SystemCoreClock = 64000000;
 149:Src/system_stm32h7xx.c ****   uint32_t SystemD2Clock = 64000000;
 150:Src/system_stm32h7xx.c ****   const  uint8_t D1CorePrescTable[16] = {0, 0, 0, 0, 1, 2, 3, 4, 1, 2, 3, 4, 6, 7, 8, 9};
 151:Src/system_stm32h7xx.c **** 
 152:Src/system_stm32h7xx.c **** /**
 153:Src/system_stm32h7xx.c ****   * @}
 154:Src/system_stm32h7xx.c ****   */
 155:Src/system_stm32h7xx.c **** 
 156:Src/system_stm32h7xx.c **** /** @addtogroup STM32H7xx_System_Private_FunctionPrototypes
 157:Src/system_stm32h7xx.c ****   * @{
 158:Src/system_stm32h7xx.c ****   */
 159:Src/system_stm32h7xx.c **** 
 160:Src/system_stm32h7xx.c **** /**
 161:Src/system_stm32h7xx.c ****   * @}
 162:Src/system_stm32h7xx.c ****   */
 163:Src/system_stm32h7xx.c **** 
 164:Src/system_stm32h7xx.c **** /** @addtogroup STM32H7xx_System_Private_Functions
 165:Src/system_stm32h7xx.c ****   * @{
 166:Src/system_stm32h7xx.c ****   */
 167:Src/system_stm32h7xx.c **** 
 168:Src/system_stm32h7xx.c **** /**
 169:Src/system_stm32h7xx.c ****   * @brief  Setup the microcontroller system
 170:Src/system_stm32h7xx.c ****   *         Initialize the FPU setting and  vector table location
 171:Src/system_stm32h7xx.c ****   *         configuration.
 172:Src/system_stm32h7xx.c ****   * @param  None
 173:Src/system_stm32h7xx.c ****   * @retval None
 174:Src/system_stm32h7xx.c ****   */
 175:Src/system_stm32h7xx.c **** void SystemInit (void)
 176:Src/system_stm32h7xx.c **** {
  28              		.loc 1 176 1 view -0
  29              		.cfi_startproc
  30              		@ args = 0, pretend = 0, frame = 0
  31              		@ frame_needed = 0, uses_anonymous_args = 0
  32              		@ link register save eliminated.
 177:Src/system_stm32h7xx.c **** #if defined (DATA_IN_D2_SRAM)
 178:Src/system_stm32h7xx.c ****  __IO uint32_t tmpreg;
 179:Src/system_stm32h7xx.c **** #endif /* DATA_IN_D2_SRAM */
 180:Src/system_stm32h7xx.c **** 
 181:Src/system_stm32h7xx.c ****   /* FPU settings ------------------------------------------------------------*/
 182:Src/system_stm32h7xx.c ****   #if (__FPU_PRESENT == 1) && (__FPU_USED == 1)
 183:Src/system_stm32h7xx.c ****     SCB->CPACR |= ((3UL << (10*2))|(3UL << (11*2)));  /* set CP10 and CP11 Full Access */
  33              		.loc 1 183 5 view .LVU1
  34              		.loc 1 183 16 is_stmt 0 view .LVU2
  35 0000 224A     		ldr	r2, .L4
  36 0002 D2F88830 		ldr	r3, [r2, #136]
  37 0006 43F47003 		orr	r3, r3, #15728640
  38 000a C2F88830 		str	r3, [r2, #136]
 184:Src/system_stm32h7xx.c ****   #endif
 185:Src/system_stm32h7xx.c ****   /* Reset the RCC clock configuration to the default reset state ------------*/
 186:Src/system_stm32h7xx.c **** 
 187:Src/system_stm32h7xx.c ****    /* Increasing the CPU frequency */
 188:Src/system_stm32h7xx.c ****   if(FLASH_LATENCY_DEFAULT  > (READ_BIT((FLASH->ACR), FLASH_ACR_LATENCY)))
  39              		.loc 1 188 3 is_stmt 1 view .LVU3
  40              		.loc 1 188 32 is_stmt 0 view .LVU4
  41 000e 204B     		ldr	r3, .L4+4
ARM GAS  C:\Users\zhangge\AppData\Local\Temp\cclGjwHK.s 			page 5


  42 0010 1B68     		ldr	r3, [r3]
  43 0012 03F00F03 		and	r3, r3, #15
  44              		.loc 1 188 5 view .LVU5
  45 0016 062B     		cmp	r3, #6
  46 0018 06D8     		bhi	.L2
 189:Src/system_stm32h7xx.c ****   {
 190:Src/system_stm32h7xx.c ****     /* Program the new number of wait states to the LATENCY bits in the FLASH_ACR register */
 191:Src/system_stm32h7xx.c ****     MODIFY_REG(FLASH->ACR, FLASH_ACR_LATENCY, (uint32_t)(FLASH_LATENCY_DEFAULT));
  47              		.loc 1 191 5 is_stmt 1 view .LVU6
  48 001a 1D4A     		ldr	r2, .L4+4
  49 001c 1368     		ldr	r3, [r2]
  50 001e 23F00F03 		bic	r3, r3, #15
  51 0022 43F00703 		orr	r3, r3, #7
  52 0026 1360     		str	r3, [r2]
  53              	.L2:
 192:Src/system_stm32h7xx.c ****   }
 193:Src/system_stm32h7xx.c **** 
 194:Src/system_stm32h7xx.c ****   /* Set HSION bit */
 195:Src/system_stm32h7xx.c ****   RCC->CR |= RCC_CR_HSION;
  54              		.loc 1 195 3 view .LVU7
  55              		.loc 1 195 11 is_stmt 0 view .LVU8
  56 0028 1A4B     		ldr	r3, .L4+8
  57 002a 1A68     		ldr	r2, [r3]
  58 002c 42F00102 		orr	r2, r2, #1
  59 0030 1A60     		str	r2, [r3]
 196:Src/system_stm32h7xx.c **** 
 197:Src/system_stm32h7xx.c ****   /* Reset CFGR register */
 198:Src/system_stm32h7xx.c ****   RCC->CFGR = 0x00000000;
  60              		.loc 1 198 3 is_stmt 1 view .LVU9
  61              		.loc 1 198 13 is_stmt 0 view .LVU10
  62 0032 0022     		movs	r2, #0
  63 0034 1A61     		str	r2, [r3, #16]
 199:Src/system_stm32h7xx.c **** 
 200:Src/system_stm32h7xx.c ****   /* Reset HSEON, HSECSSON, CSION, HSI48ON, CSIKERON, PLL1ON, PLL2ON and PLL3ON bits */
 201:Src/system_stm32h7xx.c ****   RCC->CR &= 0xEAF6ED7FU;
  64              		.loc 1 201 3 is_stmt 1 view .LVU11
  65              		.loc 1 201 11 is_stmt 0 view .LVU12
  66 0036 1968     		ldr	r1, [r3]
  67 0038 174A     		ldr	r2, .L4+12
  68 003a 0A40     		ands	r2, r2, r1
  69 003c 1A60     		str	r2, [r3]
 202:Src/system_stm32h7xx.c **** 
 203:Src/system_stm32h7xx.c ****    /* Decreasing the number of wait states because of lower CPU frequency */
 204:Src/system_stm32h7xx.c ****   if(FLASH_LATENCY_DEFAULT  < (READ_BIT((FLASH->ACR), FLASH_ACR_LATENCY)))
  70              		.loc 1 204 3 is_stmt 1 view .LVU13
  71              		.loc 1 204 32 is_stmt 0 view .LVU14
  72 003e 144B     		ldr	r3, .L4+4
  73 0040 1B68     		ldr	r3, [r3]
  74              		.loc 1 204 5 view .LVU15
  75 0042 13F0080F 		tst	r3, #8
  76 0046 06D0     		beq	.L3
 205:Src/system_stm32h7xx.c ****   {
 206:Src/system_stm32h7xx.c ****     /* Program the new number of wait states to the LATENCY bits in the FLASH_ACR register */
 207:Src/system_stm32h7xx.c ****     MODIFY_REG(FLASH->ACR, FLASH_ACR_LATENCY, (uint32_t)(FLASH_LATENCY_DEFAULT));
  77              		.loc 1 207 5 is_stmt 1 view .LVU16
  78 0048 114A     		ldr	r2, .L4+4
  79 004a 1368     		ldr	r3, [r2]
ARM GAS  C:\Users\zhangge\AppData\Local\Temp\cclGjwHK.s 			page 6


  80 004c 23F00F03 		bic	r3, r3, #15
  81 0050 43F00703 		orr	r3, r3, #7
  82 0054 1360     		str	r3, [r2]
  83              	.L3:
 208:Src/system_stm32h7xx.c ****   }
 209:Src/system_stm32h7xx.c **** 
 210:Src/system_stm32h7xx.c **** #if defined(D3_SRAM_BASE)
 211:Src/system_stm32h7xx.c ****   /* Reset D1CFGR register */
 212:Src/system_stm32h7xx.c ****   RCC->D1CFGR = 0x00000000;
  84              		.loc 1 212 3 view .LVU17
  85              		.loc 1 212 15 is_stmt 0 view .LVU18
  86 0056 0F4B     		ldr	r3, .L4+8
  87 0058 0022     		movs	r2, #0
  88 005a 9A61     		str	r2, [r3, #24]
 213:Src/system_stm32h7xx.c **** 
 214:Src/system_stm32h7xx.c ****   /* Reset D2CFGR register */
 215:Src/system_stm32h7xx.c ****   RCC->D2CFGR = 0x00000000;
  89              		.loc 1 215 3 is_stmt 1 view .LVU19
  90              		.loc 1 215 15 is_stmt 0 view .LVU20
  91 005c DA61     		str	r2, [r3, #28]
 216:Src/system_stm32h7xx.c **** 
 217:Src/system_stm32h7xx.c ****   /* Reset D3CFGR register */
 218:Src/system_stm32h7xx.c ****   RCC->D3CFGR = 0x00000000;
  92              		.loc 1 218 3 is_stmt 1 view .LVU21
  93              		.loc 1 218 15 is_stmt 0 view .LVU22
  94 005e 1A62     		str	r2, [r3, #32]
 219:Src/system_stm32h7xx.c **** #else
 220:Src/system_stm32h7xx.c ****   /* Reset CDCFGR1 register */
 221:Src/system_stm32h7xx.c ****   RCC->CDCFGR1 = 0x00000000;
 222:Src/system_stm32h7xx.c **** 
 223:Src/system_stm32h7xx.c ****   /* Reset CDCFGR2 register */
 224:Src/system_stm32h7xx.c ****   RCC->CDCFGR2 = 0x00000000;
 225:Src/system_stm32h7xx.c **** 
 226:Src/system_stm32h7xx.c ****   /* Reset SRDCFGR register */
 227:Src/system_stm32h7xx.c ****   RCC->SRDCFGR = 0x00000000;
 228:Src/system_stm32h7xx.c **** #endif
 229:Src/system_stm32h7xx.c ****   /* Reset PLLCKSELR register */
 230:Src/system_stm32h7xx.c ****   RCC->PLLCKSELR = 0x02020200;
  95              		.loc 1 230 3 is_stmt 1 view .LVU23
  96              		.loc 1 230 18 is_stmt 0 view .LVU24
  97 0060 0E49     		ldr	r1, .L4+16
  98 0062 9962     		str	r1, [r3, #40]
 231:Src/system_stm32h7xx.c **** 
 232:Src/system_stm32h7xx.c ****   /* Reset PLLCFGR register */
 233:Src/system_stm32h7xx.c ****   RCC->PLLCFGR = 0x01FF0000;
  99              		.loc 1 233 3 is_stmt 1 view .LVU25
 100              		.loc 1 233 16 is_stmt 0 view .LVU26
 101 0064 0E49     		ldr	r1, .L4+20
 102 0066 D962     		str	r1, [r3, #44]
 234:Src/system_stm32h7xx.c ****   /* Reset PLL1DIVR register */
 235:Src/system_stm32h7xx.c ****   RCC->PLL1DIVR = 0x01010280;
 103              		.loc 1 235 3 is_stmt 1 view .LVU27
 104              		.loc 1 235 17 is_stmt 0 view .LVU28
 105 0068 0E49     		ldr	r1, .L4+24
 106 006a 1963     		str	r1, [r3, #48]
 236:Src/system_stm32h7xx.c ****   /* Reset PLL1FRACR register */
 237:Src/system_stm32h7xx.c ****   RCC->PLL1FRACR = 0x00000000;
ARM GAS  C:\Users\zhangge\AppData\Local\Temp\cclGjwHK.s 			page 7


 107              		.loc 1 237 3 is_stmt 1 view .LVU29
 108              		.loc 1 237 18 is_stmt 0 view .LVU30
 109 006c 5A63     		str	r2, [r3, #52]
 238:Src/system_stm32h7xx.c **** 
 239:Src/system_stm32h7xx.c ****   /* Reset PLL2DIVR register */
 240:Src/system_stm32h7xx.c ****   RCC->PLL2DIVR = 0x01010280;
 110              		.loc 1 240 3 is_stmt 1 view .LVU31
 111              		.loc 1 240 17 is_stmt 0 view .LVU32
 112 006e 9963     		str	r1, [r3, #56]
 241:Src/system_stm32h7xx.c **** 
 242:Src/system_stm32h7xx.c ****   /* Reset PLL2FRACR register */
 243:Src/system_stm32h7xx.c **** 
 244:Src/system_stm32h7xx.c ****   RCC->PLL2FRACR = 0x00000000;
 113              		.loc 1 244 3 is_stmt 1 view .LVU33
 114              		.loc 1 244 18 is_stmt 0 view .LVU34
 115 0070 DA63     		str	r2, [r3, #60]
 245:Src/system_stm32h7xx.c ****   /* Reset PLL3DIVR register */
 246:Src/system_stm32h7xx.c ****   RCC->PLL3DIVR = 0x01010280;
 116              		.loc 1 246 3 is_stmt 1 view .LVU35
 117              		.loc 1 246 17 is_stmt 0 view .LVU36
 118 0072 1964     		str	r1, [r3, #64]
 247:Src/system_stm32h7xx.c **** 
 248:Src/system_stm32h7xx.c ****   /* Reset PLL3FRACR register */
 249:Src/system_stm32h7xx.c ****   RCC->PLL3FRACR = 0x00000000;
 119              		.loc 1 249 3 is_stmt 1 view .LVU37
 120              		.loc 1 249 18 is_stmt 0 view .LVU38
 121 0074 5A64     		str	r2, [r3, #68]
 250:Src/system_stm32h7xx.c **** 
 251:Src/system_stm32h7xx.c ****   /* Reset HSEBYP bit */
 252:Src/system_stm32h7xx.c ****   RCC->CR &= 0xFFFBFFFFU;
 122              		.loc 1 252 3 is_stmt 1 view .LVU39
 123              		.loc 1 252 11 is_stmt 0 view .LVU40
 124 0076 1968     		ldr	r1, [r3]
 125 0078 21F48021 		bic	r1, r1, #262144
 126 007c 1960     		str	r1, [r3]
 253:Src/system_stm32h7xx.c **** 
 254:Src/system_stm32h7xx.c ****   /* Disable all interrupts */
 255:Src/system_stm32h7xx.c ****   RCC->CIER = 0x00000000;
 127              		.loc 1 255 3 is_stmt 1 view .LVU41
 128              		.loc 1 255 13 is_stmt 0 view .LVU42
 129 007e 1A66     		str	r2, [r3, #96]
 256:Src/system_stm32h7xx.c **** 
 257:Src/system_stm32h7xx.c **** #if (STM32H7_DEV_ID == 0x450UL)
 258:Src/system_stm32h7xx.c ****   /* dual core CM7 or single core line */
 259:Src/system_stm32h7xx.c ****   if((DBGMCU->IDCODE & 0xFFFF0000U) < 0x20000000U)
 260:Src/system_stm32h7xx.c ****   {
 261:Src/system_stm32h7xx.c ****     /* if stm32h7 revY*/
 262:Src/system_stm32h7xx.c ****     /* Change  the switch matrix read issuing capability to 1 for the AXI SRAM target (Target 7) */
 263:Src/system_stm32h7xx.c ****     *((__IO uint32_t*)0x51008108) = 0x000000001U;
 264:Src/system_stm32h7xx.c ****   }
 265:Src/system_stm32h7xx.c **** #endif /* STM32H7_DEV_ID */
 266:Src/system_stm32h7xx.c **** 
 267:Src/system_stm32h7xx.c **** #if defined(DATA_IN_D2_SRAM)
 268:Src/system_stm32h7xx.c ****   /* in case of initialized data in D2 SRAM (AHB SRAM), enable the D2 SRAM clock (AHB SRAM clock) *
 269:Src/system_stm32h7xx.c **** #if defined(RCC_AHB2ENR_D2SRAM3EN)
 270:Src/system_stm32h7xx.c ****   RCC->AHB2ENR |= (RCC_AHB2ENR_D2SRAM1EN | RCC_AHB2ENR_D2SRAM2EN | RCC_AHB2ENR_D2SRAM3EN);
 271:Src/system_stm32h7xx.c **** #elif defined(RCC_AHB2ENR_D2SRAM2EN)
ARM GAS  C:\Users\zhangge\AppData\Local\Temp\cclGjwHK.s 			page 8


 272:Src/system_stm32h7xx.c ****   RCC->AHB2ENR |= (RCC_AHB2ENR_D2SRAM1EN | RCC_AHB2ENR_D2SRAM2EN);
 273:Src/system_stm32h7xx.c **** #else
 274:Src/system_stm32h7xx.c ****   RCC->AHB2ENR |= (RCC_AHB2ENR_AHBSRAM1EN | RCC_AHB2ENR_AHBSRAM2EN);
 275:Src/system_stm32h7xx.c **** #endif /* RCC_AHB2ENR_D2SRAM3EN */
 276:Src/system_stm32h7xx.c **** 
 277:Src/system_stm32h7xx.c ****   tmpreg = RCC->AHB2ENR;
 278:Src/system_stm32h7xx.c ****   (void) tmpreg;
 279:Src/system_stm32h7xx.c **** #endif /* DATA_IN_D2_SRAM */
 280:Src/system_stm32h7xx.c **** 
 281:Src/system_stm32h7xx.c **** #if defined(DUAL_CORE) && defined(CORE_CM4)
 282:Src/system_stm32h7xx.c ****   /* Configure the Vector Table location add offset address for cortex-M4 ------------------*/
 283:Src/system_stm32h7xx.c **** #if defined(USER_VECT_TAB_ADDRESS)
 284:Src/system_stm32h7xx.c ****   SCB->VTOR = VECT_TAB_BASE_ADDRESS | VECT_TAB_OFFSET; /* Vector Table Relocation in Internal D2 AX
 285:Src/system_stm32h7xx.c **** #endif /* USER_VECT_TAB_ADDRESS */
 286:Src/system_stm32h7xx.c **** 
 287:Src/system_stm32h7xx.c **** #else
 288:Src/system_stm32h7xx.c ****   /*
 289:Src/system_stm32h7xx.c ****    * Disable the FMC bank1 (enabled after reset).
 290:Src/system_stm32h7xx.c ****    * This, prevents CPU speculation access on this bank which blocks the use of FMC during
 291:Src/system_stm32h7xx.c ****    * 24us. During this time the others FMC master (such as LTDC) cannot use it!
 292:Src/system_stm32h7xx.c ****    */
 293:Src/system_stm32h7xx.c ****   FMC_Bank1_R->BTCR[0] = 0x000030D2;
 130              		.loc 1 293 3 is_stmt 1 view .LVU43
 131              		.loc 1 293 24 is_stmt 0 view .LVU44
 132 0080 094B     		ldr	r3, .L4+28
 133 0082 43F2D202 		movw	r2, #12498
 134 0086 1A60     		str	r2, [r3]
 294:Src/system_stm32h7xx.c **** 
 295:Src/system_stm32h7xx.c ****   /* Configure the Vector Table location -------------------------------------*/
 296:Src/system_stm32h7xx.c **** #if defined(USER_VECT_TAB_ADDRESS)
 297:Src/system_stm32h7xx.c ****   SCB->VTOR = VECT_TAB_BASE_ADDRESS | VECT_TAB_OFFSET; /* Vector Table Relocation in Internal D1 AX
 298:Src/system_stm32h7xx.c **** #endif /* USER_VECT_TAB_ADDRESS */
 299:Src/system_stm32h7xx.c **** 
 300:Src/system_stm32h7xx.c **** #endif /*DUAL_CORE && CORE_CM4*/
 301:Src/system_stm32h7xx.c **** }
 135              		.loc 1 301 1 view .LVU45
 136 0088 7047     		bx	lr
 137              	.L5:
 138 008a 00BF     		.align	2
 139              	.L4:
 140 008c 00ED00E0 		.word	-536810240
 141 0090 00200052 		.word	1375739904
 142 0094 00440258 		.word	1476543488
 143 0098 7FEDF6EA 		.word	-352916097
 144 009c 00020202 		.word	33686016
 145 00a0 0000FF01 		.word	33488896
 146 00a4 80020101 		.word	16843392
 147 00a8 00400052 		.word	1375748096
 148              		.cfi_endproc
 149              	.LFE350:
 151              		.section	.text.SystemCoreClockUpdate,"ax",%progbits
 152              		.align	1
 153              		.global	SystemCoreClockUpdate
 154              		.syntax unified
 155              		.thumb
 156              		.thumb_func
 158              	SystemCoreClockUpdate:
ARM GAS  C:\Users\zhangge\AppData\Local\Temp\cclGjwHK.s 			page 9


 159              	.LFB351:
 302:Src/system_stm32h7xx.c **** 
 303:Src/system_stm32h7xx.c **** /**
 304:Src/system_stm32h7xx.c ****    * @brief  Update SystemCoreClock variable according to Clock Register Values.
 305:Src/system_stm32h7xx.c ****   *         The SystemCoreClock variable contains the core clock , it can
 306:Src/system_stm32h7xx.c ****   *         be used by the user application to setup the SysTick timer or configure
 307:Src/system_stm32h7xx.c ****   *         other parameters.
 308:Src/system_stm32h7xx.c ****   *
 309:Src/system_stm32h7xx.c ****   * @note   Each time the core clock changes, this function must be called
 310:Src/system_stm32h7xx.c ****   *         to update SystemCoreClock variable value. Otherwise, any configuration
 311:Src/system_stm32h7xx.c ****   *         based on this variable will be incorrect.
 312:Src/system_stm32h7xx.c ****   *
 313:Src/system_stm32h7xx.c ****   * @note   - The system frequency computed by this function is not the real
 314:Src/system_stm32h7xx.c ****   *           frequency in the chip. It is calculated based on the predefined
 315:Src/system_stm32h7xx.c ****   *           constant and the selected clock source:
 316:Src/system_stm32h7xx.c ****   *
 317:Src/system_stm32h7xx.c ****   *           - If SYSCLK source is CSI, SystemCoreClock will contain the CSI_VALUE(*)
 318:Src/system_stm32h7xx.c ****   *           - If SYSCLK source is HSI, SystemCoreClock will contain the HSI_VALUE(**)
 319:Src/system_stm32h7xx.c ****   *           - If SYSCLK source is HSE, SystemCoreClock will contain the HSE_VALUE(***)
 320:Src/system_stm32h7xx.c ****   *           - If SYSCLK source is PLL, SystemCoreClock will contain the CSI_VALUE(*),
 321:Src/system_stm32h7xx.c ****   *             HSI_VALUE(**) or HSE_VALUE(***) multiplied/divided by the PLL factors.
 322:Src/system_stm32h7xx.c ****   *
 323:Src/system_stm32h7xx.c ****   *         (*) CSI_VALUE is a constant defined in stm32h7xx_hal.h file (default value
 324:Src/system_stm32h7xx.c ****   *             4 MHz) but the real value may vary depending on the variations
 325:Src/system_stm32h7xx.c ****   *             in voltage and temperature.
 326:Src/system_stm32h7xx.c ****   *         (**) HSI_VALUE is a constant defined in stm32h7xx_hal.h file (default value
 327:Src/system_stm32h7xx.c ****   *             64 MHz) but the real value may vary depending on the variations
 328:Src/system_stm32h7xx.c ****   *             in voltage and temperature.
 329:Src/system_stm32h7xx.c ****   *
 330:Src/system_stm32h7xx.c ****   *         (***)HSE_VALUE is a constant defined in stm32h7xx_hal.h file (default value
 331:Src/system_stm32h7xx.c ****   *              25 MHz), user has to ensure that HSE_VALUE is same as the real
 332:Src/system_stm32h7xx.c ****   *              frequency of the crystal used. Otherwise, this function may
 333:Src/system_stm32h7xx.c ****   *              have wrong result.
 334:Src/system_stm32h7xx.c ****   *
 335:Src/system_stm32h7xx.c ****   *         - The result of this function could be not correct when using fractional
 336:Src/system_stm32h7xx.c ****   *           value for HSE crystal.
 337:Src/system_stm32h7xx.c ****   * @param  None
 338:Src/system_stm32h7xx.c ****   * @retval None
 339:Src/system_stm32h7xx.c ****   */
 340:Src/system_stm32h7xx.c **** void SystemCoreClockUpdate (void)
 341:Src/system_stm32h7xx.c **** {
 160              		.loc 1 341 1 is_stmt 1 view -0
 161              		.cfi_startproc
 162              		@ args = 0, pretend = 0, frame = 0
 163              		@ frame_needed = 0, uses_anonymous_args = 0
 164              		@ link register save eliminated.
 165 0000 10B4     		push	{r4}
 166              	.LCFI0:
 167              		.cfi_def_cfa_offset 4
 168              		.cfi_offset 4, -4
 342:Src/system_stm32h7xx.c ****   uint32_t pllp, pllsource, pllm, pllfracen, hsivalue, tmp;
 169              		.loc 1 342 3 view .LVU47
 343:Src/system_stm32h7xx.c ****   uint32_t common_system_clock;
 170              		.loc 1 343 3 view .LVU48
 344:Src/system_stm32h7xx.c ****   float_t fracn1, pllvco;
 171              		.loc 1 344 3 view .LVU49
 345:Src/system_stm32h7xx.c **** 
ARM GAS  C:\Users\zhangge\AppData\Local\Temp\cclGjwHK.s 			page 10


 346:Src/system_stm32h7xx.c **** 
 347:Src/system_stm32h7xx.c ****   /* Get SYSCLK source -------------------------------------------------------*/
 348:Src/system_stm32h7xx.c **** 
 349:Src/system_stm32h7xx.c ****   switch (RCC->CFGR & RCC_CFGR_SWS)
 172              		.loc 1 349 3 view .LVU50
 173              		.loc 1 349 14 is_stmt 0 view .LVU51
 174 0002 7A4B     		ldr	r3, .L20
 175 0004 1B69     		ldr	r3, [r3, #16]
 176              		.loc 1 349 21 view .LVU52
 177 0006 03F03803 		and	r3, r3, #56
 178              		.loc 1 349 3 view .LVU53
 179 000a 182B     		cmp	r3, #24
 180 000c 00F2E580 		bhi	.L7
 181 0010 DFE813F0 		tbh	[pc, r3, lsl #1]
 182              	.L9:
 183 0014 1B00     		.2byte	(.L12-.L9)/2
 184 0016 E300     		.2byte	(.L7-.L9)/2
 185 0018 E300     		.2byte	(.L7-.L9)/2
 186 001a E300     		.2byte	(.L7-.L9)/2
 187 001c E300     		.2byte	(.L7-.L9)/2
 188 001e E300     		.2byte	(.L7-.L9)/2
 189 0020 E300     		.2byte	(.L7-.L9)/2
 190 0022 E300     		.2byte	(.L7-.L9)/2
 191 0024 1900     		.2byte	(.L11-.L9)/2
 192 0026 E300     		.2byte	(.L7-.L9)/2
 193 0028 E300     		.2byte	(.L7-.L9)/2
 194 002a E300     		.2byte	(.L7-.L9)/2
 195 002c E300     		.2byte	(.L7-.L9)/2
 196 002e E300     		.2byte	(.L7-.L9)/2
 197 0030 E300     		.2byte	(.L7-.L9)/2
 198 0032 E300     		.2byte	(.L7-.L9)/2
 199 0034 EA00     		.2byte	(.L17-.L9)/2
 200 0036 E300     		.2byte	(.L7-.L9)/2
 201 0038 E300     		.2byte	(.L7-.L9)/2
 202 003a E300     		.2byte	(.L7-.L9)/2
 203 003c E300     		.2byte	(.L7-.L9)/2
 204 003e E300     		.2byte	(.L7-.L9)/2
 205 0040 E300     		.2byte	(.L7-.L9)/2
 206 0042 E300     		.2byte	(.L7-.L9)/2
 207 0044 3700     		.2byte	(.L8-.L9)/2
 208              		.p2align 1
 209              	.L11:
 210 0046 6A4A     		ldr	r2, .L20+4
 211 0048 05E0     		b	.L10
 212              	.L12:
 350:Src/system_stm32h7xx.c ****   {
 351:Src/system_stm32h7xx.c ****   case RCC_CFGR_SWS_HSI:  /* HSI used as system clock source */
 352:Src/system_stm32h7xx.c ****     common_system_clock = (uint32_t) (HSI_VALUE >> ((RCC->CR & RCC_CR_HSIDIV)>> 3));
 213              		.loc 1 352 5 is_stmt 1 view .LVU54
 214              		.loc 1 352 57 is_stmt 0 view .LVU55
 215 004a 684B     		ldr	r3, .L20
 216 004c 1B68     		ldr	r3, [r3]
 217              		.loc 1 352 78 view .LVU56
 218 004e C3F3C103 		ubfx	r3, r3, #3, #2
 219              		.loc 1 352 25 view .LVU57
 220 0052 684A     		ldr	r2, .L20+8
 221 0054 DA40     		lsrs	r2, r2, r3
ARM GAS  C:\Users\zhangge\AppData\Local\Temp\cclGjwHK.s 			page 11


 222              	.LVL0:
 353:Src/system_stm32h7xx.c ****     break;
 223              		.loc 1 353 5 is_stmt 1 view .LVU58
 224              	.L10:
 354:Src/system_stm32h7xx.c **** 
 355:Src/system_stm32h7xx.c ****   case RCC_CFGR_SWS_CSI:  /* CSI used as system clock  source */
 356:Src/system_stm32h7xx.c ****     common_system_clock = CSI_VALUE;
 357:Src/system_stm32h7xx.c ****     break;
 358:Src/system_stm32h7xx.c **** 
 359:Src/system_stm32h7xx.c ****   case RCC_CFGR_SWS_HSE:  /* HSE used as system clock  source */
 360:Src/system_stm32h7xx.c ****     common_system_clock = HSE_VALUE;
 361:Src/system_stm32h7xx.c ****     break;
 362:Src/system_stm32h7xx.c **** 
 363:Src/system_stm32h7xx.c ****   case RCC_CFGR_SWS_PLL1:  /* PLL1 used as system clock  source */
 364:Src/system_stm32h7xx.c **** 
 365:Src/system_stm32h7xx.c ****     /* PLL_VCO = (HSE_VALUE or HSI_VALUE or CSI_VALUE/ PLLM) * PLLN
 366:Src/system_stm32h7xx.c ****     SYSCLK = PLL_VCO / PLLR
 367:Src/system_stm32h7xx.c ****     */
 368:Src/system_stm32h7xx.c ****     pllsource = (RCC->PLLCKSELR & RCC_PLLCKSELR_PLLSRC);
 369:Src/system_stm32h7xx.c ****     pllm = ((RCC->PLLCKSELR & RCC_PLLCKSELR_DIVM1)>> 4)  ;
 370:Src/system_stm32h7xx.c ****     pllfracen = ((RCC->PLLCFGR & RCC_PLLCFGR_PLL1FRACEN)>>RCC_PLLCFGR_PLL1FRACEN_Pos);
 371:Src/system_stm32h7xx.c ****     fracn1 = (float_t)(uint32_t)(pllfracen* ((RCC->PLL1FRACR & RCC_PLL1FRACR_FRACN1)>> 3));
 372:Src/system_stm32h7xx.c **** 
 373:Src/system_stm32h7xx.c ****     if (pllm != 0U)
 374:Src/system_stm32h7xx.c ****     {
 375:Src/system_stm32h7xx.c ****       switch (pllsource)
 376:Src/system_stm32h7xx.c ****       {
 377:Src/system_stm32h7xx.c ****         case RCC_PLLCKSELR_PLLSRC_HSI:  /* HSI used as PLL clock source */
 378:Src/system_stm32h7xx.c **** 
 379:Src/system_stm32h7xx.c ****         hsivalue = (HSI_VALUE >> ((RCC->CR & RCC_CR_HSIDIV)>> 3)) ;
 380:Src/system_stm32h7xx.c ****         pllvco = ( (float_t)hsivalue / (float_t)pllm) * ((float_t)(uint32_t)(RCC->PLL1DIVR & RCC_PL
 381:Src/system_stm32h7xx.c **** 
 382:Src/system_stm32h7xx.c ****         break;
 383:Src/system_stm32h7xx.c **** 
 384:Src/system_stm32h7xx.c ****         case RCC_PLLCKSELR_PLLSRC_CSI:  /* CSI used as PLL clock source */
 385:Src/system_stm32h7xx.c ****           pllvco = ((float_t)CSI_VALUE / (float_t)pllm) * ((float_t)(uint32_t)(RCC->PLL1DIVR & RCC_
 386:Src/system_stm32h7xx.c ****         break;
 387:Src/system_stm32h7xx.c **** 
 388:Src/system_stm32h7xx.c ****         case RCC_PLLCKSELR_PLLSRC_HSE:  /* HSE used as PLL clock source */
 389:Src/system_stm32h7xx.c ****           pllvco = ((float_t)HSE_VALUE / (float_t)pllm) * ((float_t)(uint32_t)(RCC->PLL1DIVR & RCC_
 390:Src/system_stm32h7xx.c ****         break;
 391:Src/system_stm32h7xx.c **** 
 392:Src/system_stm32h7xx.c ****       default:
 393:Src/system_stm32h7xx.c ****           hsivalue = (HSI_VALUE >> ((RCC->CR & RCC_CR_HSIDIV)>> 3)) ;
 394:Src/system_stm32h7xx.c ****           pllvco = ((float_t)hsivalue / (float_t)pllm) * ((float_t)(uint32_t)(RCC->PLL1DIVR & RCC_P
 395:Src/system_stm32h7xx.c ****         break;
 396:Src/system_stm32h7xx.c ****       }
 397:Src/system_stm32h7xx.c ****       pllp = (((RCC->PLL1DIVR & RCC_PLL1DIVR_P1) >>9) + 1U ) ;
 398:Src/system_stm32h7xx.c ****       common_system_clock =  (uint32_t)(float_t)(pllvco/(float_t)pllp);
 399:Src/system_stm32h7xx.c ****     }
 400:Src/system_stm32h7xx.c ****     else
 401:Src/system_stm32h7xx.c ****     {
 402:Src/system_stm32h7xx.c ****       common_system_clock = 0U;
 403:Src/system_stm32h7xx.c ****     }
 404:Src/system_stm32h7xx.c ****     break;
 405:Src/system_stm32h7xx.c **** 
 406:Src/system_stm32h7xx.c ****   default:
ARM GAS  C:\Users\zhangge\AppData\Local\Temp\cclGjwHK.s 			page 12


 407:Src/system_stm32h7xx.c ****     common_system_clock = (uint32_t) (HSI_VALUE >> ((RCC->CR & RCC_CR_HSIDIV)>> 3));
 408:Src/system_stm32h7xx.c ****     break;
 409:Src/system_stm32h7xx.c ****   }
 410:Src/system_stm32h7xx.c **** 
 411:Src/system_stm32h7xx.c ****   /* Compute SystemClock frequency --------------------------------------------------*/
 412:Src/system_stm32h7xx.c **** #if defined (RCC_D1CFGR_D1CPRE)
 413:Src/system_stm32h7xx.c ****   tmp = D1CorePrescTable[(RCC->D1CFGR & RCC_D1CFGR_D1CPRE)>> RCC_D1CFGR_D1CPRE_Pos];
 225              		.loc 1 413 3 view .LVU59
 226              		.loc 1 413 30 is_stmt 0 view .LVU60
 227 0056 6548     		ldr	r0, .L20
 228 0058 8369     		ldr	r3, [r0, #24]
 229              		.loc 1 413 59 view .LVU61
 230 005a C3F30323 		ubfx	r3, r3, #8, #4
 231              		.loc 1 413 25 view .LVU62
 232 005e 6649     		ldr	r1, .L20+12
 233 0060 CB5C     		ldrb	r3, [r1, r3]	@ zero_extendqisi2
 234              	.LVL1:
 414:Src/system_stm32h7xx.c **** 
 415:Src/system_stm32h7xx.c ****   /* common_system_clock frequency : CM7 CPU frequency  */
 416:Src/system_stm32h7xx.c ****   common_system_clock >>= tmp;
 235              		.loc 1 416 3 is_stmt 1 view .LVU63
 236              		.loc 1 416 23 is_stmt 0 view .LVU64
 237 0062 DA40     		lsrs	r2, r2, r3
 238              	.LVL2:
 417:Src/system_stm32h7xx.c **** 
 418:Src/system_stm32h7xx.c ****   /* SystemD2Clock frequency : CM4 CPU, AXI and AHBs Clock frequency  */
 419:Src/system_stm32h7xx.c ****   SystemD2Clock = (common_system_clock >> ((D1CorePrescTable[(RCC->D1CFGR & RCC_D1CFGR_HPRE)>> RCC_
 239              		.loc 1 419 3 is_stmt 1 view .LVU65
 240              		.loc 1 419 66 is_stmt 0 view .LVU66
 241 0064 8369     		ldr	r3, [r0, #24]
 242              	.LVL3:
 243              		.loc 1 419 93 view .LVU67
 244 0066 03F00F03 		and	r3, r3, #15
 245              		.loc 1 419 61 view .LVU68
 246 006a CB5C     		ldrb	r3, [r1, r3]	@ zero_extendqisi2
 247              		.loc 1 419 118 view .LVU69
 248 006c 03F01F03 		and	r3, r3, #31
 249              		.loc 1 419 40 view .LVU70
 250 0070 22FA03F3 		lsr	r3, r2, r3
 251              		.loc 1 419 17 view .LVU71
 252 0074 6149     		ldr	r1, .L20+16
 253              		.loc 1 419 17 view .LVU72
 254 0076 0B60     		str	r3, [r1]
 420:Src/system_stm32h7xx.c **** 
 421:Src/system_stm32h7xx.c **** #else
 422:Src/system_stm32h7xx.c ****   tmp = D1CorePrescTable[(RCC->CDCFGR1 & RCC_CDCFGR1_CDCPRE)>> RCC_CDCFGR1_CDCPRE_Pos];
 423:Src/system_stm32h7xx.c **** 
 424:Src/system_stm32h7xx.c ****   /* common_system_clock frequency : CM7 CPU frequency  */
 425:Src/system_stm32h7xx.c ****   common_system_clock >>= tmp;
 426:Src/system_stm32h7xx.c **** 
 427:Src/system_stm32h7xx.c ****   /* SystemD2Clock frequency : AXI and AHBs Clock frequency  */
 428:Src/system_stm32h7xx.c ****   SystemD2Clock = (common_system_clock >> ((D1CorePrescTable[(RCC->CDCFGR1 & RCC_CDCFGR1_HPRE)>> RC
 429:Src/system_stm32h7xx.c **** 
 430:Src/system_stm32h7xx.c **** #endif
 431:Src/system_stm32h7xx.c **** 
 432:Src/system_stm32h7xx.c **** #if defined(DUAL_CORE) && defined(CORE_CM4)
 433:Src/system_stm32h7xx.c ****   SystemCoreClock = SystemD2Clock;
ARM GAS  C:\Users\zhangge\AppData\Local\Temp\cclGjwHK.s 			page 13


 434:Src/system_stm32h7xx.c **** #else
 435:Src/system_stm32h7xx.c ****   SystemCoreClock = common_system_clock;
 255              		.loc 1 435 3 is_stmt 1 view .LVU73
 256              		.loc 1 435 19 is_stmt 0 view .LVU74
 257 0078 614B     		ldr	r3, .L20+20
 258 007a 1A60     		str	r2, [r3]
 436:Src/system_stm32h7xx.c **** #endif /* DUAL_CORE && CORE_CM4 */
 437:Src/system_stm32h7xx.c **** }
 259              		.loc 1 437 1 view .LVU75
 260 007c 5DF8044B 		ldr	r4, [sp], #4
 261              	.LCFI1:
 262              		.cfi_remember_state
 263              		.cfi_restore 4
 264              		.cfi_def_cfa_offset 0
 265 0080 7047     		bx	lr
 266              	.LVL4:
 267              	.L8:
 268              	.LCFI2:
 269              		.cfi_restore_state
 368:Src/system_stm32h7xx.c ****     pllm = ((RCC->PLLCKSELR & RCC_PLLCKSELR_DIVM1)>> 4)  ;
 270              		.loc 1 368 5 is_stmt 1 view .LVU76
 368:Src/system_stm32h7xx.c ****     pllm = ((RCC->PLLCKSELR & RCC_PLLCKSELR_DIVM1)>> 4)  ;
 271              		.loc 1 368 21 is_stmt 0 view .LVU77
 272 0082 5A49     		ldr	r1, .L20
 273 0084 886A     		ldr	r0, [r1, #40]
 368:Src/system_stm32h7xx.c ****     pllm = ((RCC->PLLCKSELR & RCC_PLLCKSELR_DIVM1)>> 4)  ;
 274              		.loc 1 368 15 view .LVU78
 275 0086 00F00300 		and	r0, r0, #3
 276              	.LVL5:
 369:Src/system_stm32h7xx.c ****     pllfracen = ((RCC->PLLCFGR & RCC_PLLCFGR_PLL1FRACEN)>>RCC_PLLCFGR_PLL1FRACEN_Pos);
 277              		.loc 1 369 5 is_stmt 1 view .LVU79
 369:Src/system_stm32h7xx.c ****     pllfracen = ((RCC->PLLCFGR & RCC_PLLCFGR_PLL1FRACEN)>>RCC_PLLCFGR_PLL1FRACEN_Pos);
 278              		.loc 1 369 17 is_stmt 0 view .LVU80
 279 008a 8C6A     		ldr	r4, [r1, #40]
 369:Src/system_stm32h7xx.c ****     pllfracen = ((RCC->PLLCFGR & RCC_PLLCFGR_PLL1FRACEN)>>RCC_PLLCFGR_PLL1FRACEN_Pos);
 280              		.loc 1 369 10 view .LVU81
 281 008c C4F30512 		ubfx	r2, r4, #4, #6
 282              	.LVL6:
 370:Src/system_stm32h7xx.c ****     fracn1 = (float_t)(uint32_t)(pllfracen* ((RCC->PLL1FRACR & RCC_PLL1FRACR_FRACN1)>> 3));
 283              		.loc 1 370 5 is_stmt 1 view .LVU82
 370:Src/system_stm32h7xx.c ****     fracn1 = (float_t)(uint32_t)(pllfracen* ((RCC->PLL1FRACR & RCC_PLL1FRACR_FRACN1)>> 3));
 284              		.loc 1 370 22 is_stmt 0 view .LVU83
 285 0090 CB6A     		ldr	r3, [r1, #44]
 370:Src/system_stm32h7xx.c ****     fracn1 = (float_t)(uint32_t)(pllfracen* ((RCC->PLL1FRACR & RCC_PLL1FRACR_FRACN1)>> 3));
 286              		.loc 1 370 15 view .LVU84
 287 0092 03F0010C 		and	ip, r3, #1
 288              	.LVL7:
 371:Src/system_stm32h7xx.c **** 
 289              		.loc 1 371 5 is_stmt 1 view .LVU85
 371:Src/system_stm32h7xx.c **** 
 290              		.loc 1 371 50 is_stmt 0 view .LVU86
 291 0096 4B6B     		ldr	r3, [r1, #52]
 371:Src/system_stm32h7xx.c **** 
 292              		.loc 1 371 85 view .LVU87
 293 0098 C3F3CC03 		ubfx	r3, r3, #3, #13
 371:Src/system_stm32h7xx.c **** 
 294              		.loc 1 371 23 view .LVU88
ARM GAS  C:\Users\zhangge\AppData\Local\Temp\cclGjwHK.s 			page 14


 295 009c 0CFB03F3 		mul	r3, ip, r3
 371:Src/system_stm32h7xx.c **** 
 296              		.loc 1 371 12 view .LVU89
 297 00a0 07EE903A 		vmov	s15, r3	@ int
 298 00a4 F8EE677A 		vcvt.f32.u32	s15, s15
 299              	.LVL8:
 373:Src/system_stm32h7xx.c ****     {
 300              		.loc 1 373 5 is_stmt 1 view .LVU90
 373:Src/system_stm32h7xx.c ****     {
 301              		.loc 1 373 8 is_stmt 0 view .LVU91
 302 00a8 14F47C7F 		tst	r4, #1008
 303 00ac D3D0     		beq	.L10
 375:Src/system_stm32h7xx.c ****       {
 304              		.loc 1 375 7 is_stmt 1 view .LVU92
 305 00ae 0128     		cmp	r0, #1
 306 00b0 59D0     		beq	.L13
 307 00b2 0228     		cmp	r0, #2
 308 00b4 74D0     		beq	.L14
 309 00b6 18B3     		cbz	r0, .L19
 393:Src/system_stm32h7xx.c ****           pllvco = ((float_t)hsivalue / (float_t)pllm) * ((float_t)(uint32_t)(RCC->PLL1DIVR & RCC_P
 310              		.loc 1 393 11 view .LVU93
 393:Src/system_stm32h7xx.c ****           pllvco = ((float_t)hsivalue / (float_t)pllm) * ((float_t)(uint32_t)(RCC->PLL1DIVR & RCC_P
 311              		.loc 1 393 41 is_stmt 0 view .LVU94
 312 00b8 4C48     		ldr	r0, .L20
 313              	.LVL9:
 393:Src/system_stm32h7xx.c ****           pllvco = ((float_t)hsivalue / (float_t)pllm) * ((float_t)(uint32_t)(RCC->PLL1DIVR & RCC_P
 314              		.loc 1 393 41 view .LVU95
 315 00ba 0168     		ldr	r1, [r0]
 393:Src/system_stm32h7xx.c ****           pllvco = ((float_t)hsivalue / (float_t)pllm) * ((float_t)(uint32_t)(RCC->PLL1DIVR & RCC_P
 316              		.loc 1 393 62 view .LVU96
 317 00bc C1F3C101 		ubfx	r1, r1, #3, #2
 393:Src/system_stm32h7xx.c ****           pllvco = ((float_t)hsivalue / (float_t)pllm) * ((float_t)(uint32_t)(RCC->PLL1DIVR & RCC_P
 318              		.loc 1 393 20 view .LVU97
 319 00c0 4C4B     		ldr	r3, .L20+8
 320 00c2 CB40     		lsrs	r3, r3, r1
 321              	.LVL10:
 394:Src/system_stm32h7xx.c ****         break;
 322              		.loc 1 394 11 is_stmt 1 view .LVU98
 394:Src/system_stm32h7xx.c ****         break;
 323              		.loc 1 394 21 is_stmt 0 view .LVU99
 324 00c4 07EE103A 		vmov	s14, r3	@ int
 325 00c8 F8EE476A 		vcvt.f32.u32	s13, s14
 394:Src/system_stm32h7xx.c ****         break;
 326              		.loc 1 394 41 view .LVU100
 327 00cc 07EE102A 		vmov	s14, r2	@ int
 328 00d0 B8EE476A 		vcvt.f32.u32	s12, s14
 394:Src/system_stm32h7xx.c ****         break;
 329              		.loc 1 394 39 view .LVU101
 330 00d4 86EE867A 		vdiv.f32	s14, s13, s12
 394:Src/system_stm32h7xx.c ****         break;
 331              		.loc 1 394 82 view .LVU102
 332 00d8 036B     		ldr	r3, [r0, #48]
 333              	.LVL11:
 394:Src/system_stm32h7xx.c ****         break;
 334              		.loc 1 394 68 view .LVU103
 335 00da C3F30803 		ubfx	r3, r3, #0, #9
 394:Src/system_stm32h7xx.c ****         break;
ARM GAS  C:\Users\zhangge\AppData\Local\Temp\cclGjwHK.s 			page 15


 336              		.loc 1 394 59 view .LVU104
 337 00de 06EE903A 		vmov	s13, r3	@ int
 338 00e2 F8EE666A 		vcvt.f32.u32	s13, s13
 394:Src/system_stm32h7xx.c ****         break;
 339              		.loc 1 394 121 view .LVU105
 340 00e6 9FED476A 		vldr.32	s12, .L20+24
 341 00ea 67EE867A 		vmul.f32	s15, s15, s12
 342              	.LVL12:
 394:Src/system_stm32h7xx.c ****         break;
 343              		.loc 1 394 112 view .LVU106
 344 00ee 76EEA77A 		vadd.f32	s15, s13, s15
 394:Src/system_stm32h7xx.c ****         break;
 345              		.loc 1 394 139 view .LVU107
 346 00f2 F7EE006A 		vmov.f32	s13, #1.0e+0
 347 00f6 77EEA67A 		vadd.f32	s15, s15, s13
 394:Src/system_stm32h7xx.c ****         break;
 348              		.loc 1 394 18 view .LVU108
 349 00fa 27EE277A 		vmul.f32	s14, s14, s15
 350              	.LVL13:
 395:Src/system_stm32h7xx.c ****       }
 351              		.loc 1 395 9 is_stmt 1 view .LVU109
 352 00fe 22E0     		b	.L16
 353              	.LVL14:
 354              	.L19:
 379:Src/system_stm32h7xx.c ****         pllvco = ( (float_t)hsivalue / (float_t)pllm) * ((float_t)(uint32_t)(RCC->PLL1DIVR & RCC_PL
 355              		.loc 1 379 9 view .LVU110
 379:Src/system_stm32h7xx.c ****         pllvco = ( (float_t)hsivalue / (float_t)pllm) * ((float_t)(uint32_t)(RCC->PLL1DIVR & RCC_PL
 356              		.loc 1 379 39 is_stmt 0 view .LVU111
 357 0100 0846     		mov	r0, r1
 358              	.LVL15:
 379:Src/system_stm32h7xx.c ****         pllvco = ( (float_t)hsivalue / (float_t)pllm) * ((float_t)(uint32_t)(RCC->PLL1DIVR & RCC_PL
 359              		.loc 1 379 39 view .LVU112
 360 0102 0968     		ldr	r1, [r1]
 379:Src/system_stm32h7xx.c ****         pllvco = ( (float_t)hsivalue / (float_t)pllm) * ((float_t)(uint32_t)(RCC->PLL1DIVR & RCC_PL
 361              		.loc 1 379 60 view .LVU113
 362 0104 C1F3C101 		ubfx	r1, r1, #3, #2
 379:Src/system_stm32h7xx.c ****         pllvco = ( (float_t)hsivalue / (float_t)pllm) * ((float_t)(uint32_t)(RCC->PLL1DIVR & RCC_PL
 363              		.loc 1 379 18 view .LVU114
 364 0108 3A4B     		ldr	r3, .L20+8
 365 010a CB40     		lsrs	r3, r3, r1
 366              	.LVL16:
 380:Src/system_stm32h7xx.c **** 
 367              		.loc 1 380 9 is_stmt 1 view .LVU115
 380:Src/system_stm32h7xx.c **** 
 368              		.loc 1 380 20 is_stmt 0 view .LVU116
 369 010c 07EE103A 		vmov	s14, r3	@ int
 370 0110 F8EE476A 		vcvt.f32.u32	s13, s14
 380:Src/system_stm32h7xx.c **** 
 371              		.loc 1 380 40 view .LVU117
 372 0114 07EE102A 		vmov	s14, r2	@ int
 373 0118 B8EE476A 		vcvt.f32.u32	s12, s14
 380:Src/system_stm32h7xx.c **** 
 374              		.loc 1 380 38 view .LVU118
 375 011c 86EE867A 		vdiv.f32	s14, s13, s12
 380:Src/system_stm32h7xx.c **** 
 376              		.loc 1 380 81 view .LVU119
 377 0120 036B     		ldr	r3, [r0, #48]
ARM GAS  C:\Users\zhangge\AppData\Local\Temp\cclGjwHK.s 			page 16


 378              	.LVL17:
 380:Src/system_stm32h7xx.c **** 
 379              		.loc 1 380 67 view .LVU120
 380 0122 C3F30803 		ubfx	r3, r3, #0, #9
 380:Src/system_stm32h7xx.c **** 
 381              		.loc 1 380 58 view .LVU121
 382 0126 06EE903A 		vmov	s13, r3	@ int
 383 012a F8EE666A 		vcvt.f32.u32	s13, s13
 380:Src/system_stm32h7xx.c **** 
 384              		.loc 1 380 120 view .LVU122
 385 012e 9FED356A 		vldr.32	s12, .L20+24
 386 0132 67EE867A 		vmul.f32	s15, s15, s12
 387              	.LVL18:
 380:Src/system_stm32h7xx.c **** 
 388              		.loc 1 380 111 view .LVU123
 389 0136 76EEA77A 		vadd.f32	s15, s13, s15
 380:Src/system_stm32h7xx.c **** 
 390              		.loc 1 380 138 view .LVU124
 391 013a F7EE006A 		vmov.f32	s13, #1.0e+0
 392 013e 77EEA67A 		vadd.f32	s15, s15, s13
 380:Src/system_stm32h7xx.c **** 
 393              		.loc 1 380 16 view .LVU125
 394 0142 27EE277A 		vmul.f32	s14, s14, s15
 395              	.LVL19:
 382:Src/system_stm32h7xx.c **** 
 396              		.loc 1 382 9 is_stmt 1 view .LVU126
 397              	.L16:
 397:Src/system_stm32h7xx.c ****       common_system_clock =  (uint32_t)(float_t)(pllvco/(float_t)pllp);
 398              		.loc 1 397 7 view .LVU127
 397:Src/system_stm32h7xx.c ****       common_system_clock =  (uint32_t)(float_t)(pllvco/(float_t)pllp);
 399              		.loc 1 397 20 is_stmt 0 view .LVU128
 400 0146 294B     		ldr	r3, .L20
 401 0148 1B6B     		ldr	r3, [r3, #48]
 397:Src/system_stm32h7xx.c ****       common_system_clock =  (uint32_t)(float_t)(pllvco/(float_t)pllp);
 402              		.loc 1 397 50 view .LVU129
 403 014a C3F34623 		ubfx	r3, r3, #9, #7
 397:Src/system_stm32h7xx.c ****       common_system_clock =  (uint32_t)(float_t)(pllvco/(float_t)pllp);
 404              		.loc 1 397 12 view .LVU130
 405 014e 0133     		adds	r3, r3, #1
 406              	.LVL20:
 398:Src/system_stm32h7xx.c ****     }
 407              		.loc 1 398 7 is_stmt 1 view .LVU131
 398:Src/system_stm32h7xx.c ****     }
 408              		.loc 1 398 57 is_stmt 0 view .LVU132
 409 0150 07EE903A 		vmov	s15, r3	@ int
 410 0154 F8EE677A 		vcvt.f32.u32	s15, s15
 398:Src/system_stm32h7xx.c ****     }
 411              		.loc 1 398 40 view .LVU133
 412 0158 C7EE276A 		vdiv.f32	s13, s14, s15
 398:Src/system_stm32h7xx.c ****     }
 413              		.loc 1 398 27 view .LVU134
 414 015c FCEEE67A 		vcvt.u32.f32	s15, s13
 415 0160 17EE902A 		vmov	r2, s15	@ int
 416              	.LVL21:
 398:Src/system_stm32h7xx.c ****     }
 417              		.loc 1 398 27 view .LVU135
 418 0164 77E7     		b	.L10
ARM GAS  C:\Users\zhangge\AppData\Local\Temp\cclGjwHK.s 			page 17


 419              	.LVL22:
 420              	.L13:
 385:Src/system_stm32h7xx.c ****         break;
 421              		.loc 1 385 11 is_stmt 1 view .LVU136
 385:Src/system_stm32h7xx.c ****         break;
 422              		.loc 1 385 42 is_stmt 0 view .LVU137
 423 0166 07EE102A 		vmov	s14, r2	@ int
 424 016a F8EE476A 		vcvt.f32.u32	s13, s14
 385:Src/system_stm32h7xx.c ****         break;
 425              		.loc 1 385 40 view .LVU138
 426 016e 9FED266A 		vldr.32	s12, .L20+28
 427 0172 86EE267A 		vdiv.f32	s14, s12, s13
 385:Src/system_stm32h7xx.c ****         break;
 428              		.loc 1 385 83 view .LVU139
 429 0176 1D4B     		ldr	r3, .L20
 430 0178 1B6B     		ldr	r3, [r3, #48]
 385:Src/system_stm32h7xx.c ****         break;
 431              		.loc 1 385 69 view .LVU140
 432 017a C3F30803 		ubfx	r3, r3, #0, #9
 385:Src/system_stm32h7xx.c ****         break;
 433              		.loc 1 385 60 view .LVU141
 434 017e 06EE903A 		vmov	s13, r3	@ int
 435 0182 F8EE666A 		vcvt.f32.u32	s13, s13
 385:Src/system_stm32h7xx.c ****         break;
 436              		.loc 1 385 122 view .LVU142
 437 0186 9FED1F6A 		vldr.32	s12, .L20+24
 438 018a 67EE867A 		vmul.f32	s15, s15, s12
 439              	.LVL23:
 385:Src/system_stm32h7xx.c ****         break;
 440              		.loc 1 385 113 view .LVU143
 441 018e 76EEA77A 		vadd.f32	s15, s13, s15
 385:Src/system_stm32h7xx.c ****         break;
 442              		.loc 1 385 140 view .LVU144
 443 0192 F7EE006A 		vmov.f32	s13, #1.0e+0
 444 0196 77EEA67A 		vadd.f32	s15, s15, s13
 385:Src/system_stm32h7xx.c ****         break;
 445              		.loc 1 385 18 view .LVU145
 446 019a 27EE277A 		vmul.f32	s14, s14, s15
 447              	.LVL24:
 386:Src/system_stm32h7xx.c **** 
 448              		.loc 1 386 9 is_stmt 1 view .LVU146
 449 019e D2E7     		b	.L16
 450              	.LVL25:
 451              	.L14:
 389:Src/system_stm32h7xx.c ****         break;
 452              		.loc 1 389 11 view .LVU147
 389:Src/system_stm32h7xx.c ****         break;
 453              		.loc 1 389 42 is_stmt 0 view .LVU148
 454 01a0 07EE102A 		vmov	s14, r2	@ int
 455 01a4 F8EE476A 		vcvt.f32.u32	s13, s14
 389:Src/system_stm32h7xx.c ****         break;
 456              		.loc 1 389 40 view .LVU149
 457 01a8 9FED186A 		vldr.32	s12, .L20+32
 458 01ac 86EE267A 		vdiv.f32	s14, s12, s13
 389:Src/system_stm32h7xx.c ****         break;
 459              		.loc 1 389 83 view .LVU150
 460 01b0 0E4B     		ldr	r3, .L20
ARM GAS  C:\Users\zhangge\AppData\Local\Temp\cclGjwHK.s 			page 18


 461 01b2 1B6B     		ldr	r3, [r3, #48]
 389:Src/system_stm32h7xx.c ****         break;
 462              		.loc 1 389 69 view .LVU151
 463 01b4 C3F30803 		ubfx	r3, r3, #0, #9
 389:Src/system_stm32h7xx.c ****         break;
 464              		.loc 1 389 60 view .LVU152
 465 01b8 06EE903A 		vmov	s13, r3	@ int
 466 01bc F8EE666A 		vcvt.f32.u32	s13, s13
 389:Src/system_stm32h7xx.c ****         break;
 467              		.loc 1 389 122 view .LVU153
 468 01c0 9FED106A 		vldr.32	s12, .L20+24
 469 01c4 67EE867A 		vmul.f32	s15, s15, s12
 470              	.LVL26:
 389:Src/system_stm32h7xx.c ****         break;
 471              		.loc 1 389 113 view .LVU154
 472 01c8 76EEA77A 		vadd.f32	s15, s13, s15
 389:Src/system_stm32h7xx.c ****         break;
 473              		.loc 1 389 140 view .LVU155
 474 01cc F7EE006A 		vmov.f32	s13, #1.0e+0
 475 01d0 77EEA67A 		vadd.f32	s15, s15, s13
 389:Src/system_stm32h7xx.c ****         break;
 476              		.loc 1 389 18 view .LVU156
 477 01d4 27EE277A 		vmul.f32	s14, s14, s15
 478              	.LVL27:
 390:Src/system_stm32h7xx.c **** 
 479              		.loc 1 390 9 is_stmt 1 view .LVU157
 480 01d8 B5E7     		b	.L16
 481              	.LVL28:
 482              	.L7:
 407:Src/system_stm32h7xx.c ****     break;
 483              		.loc 1 407 5 view .LVU158
 407:Src/system_stm32h7xx.c ****     break;
 484              		.loc 1 407 57 is_stmt 0 view .LVU159
 485 01da 044B     		ldr	r3, .L20
 486 01dc 1B68     		ldr	r3, [r3]
 407:Src/system_stm32h7xx.c ****     break;
 487              		.loc 1 407 78 view .LVU160
 488 01de C3F3C103 		ubfx	r3, r3, #3, #2
 407:Src/system_stm32h7xx.c ****     break;
 489              		.loc 1 407 25 view .LVU161
 490 01e2 044A     		ldr	r2, .L20+8
 491 01e4 DA40     		lsrs	r2, r2, r3
 492              	.LVL29:
 408:Src/system_stm32h7xx.c ****   }
 493              		.loc 1 408 5 is_stmt 1 view .LVU162
 494 01e6 36E7     		b	.L10
 495              	.LVL30:
 496              	.L17:
 360:Src/system_stm32h7xx.c ****     break;
 497              		.loc 1 360 25 is_stmt 0 view .LVU163
 498 01e8 094A     		ldr	r2, .L20+36
 499 01ea 34E7     		b	.L10
 500              	.L21:
 501              		.align	2
 502              	.L20:
 503 01ec 00440258 		.word	1476543488
 504 01f0 00093D00 		.word	4000000
ARM GAS  C:\Users\zhangge\AppData\Local\Temp\cclGjwHK.s 			page 19


 505 01f4 0090D003 		.word	64000000
 506 01f8 00000000 		.word	.LANCHOR0
 507 01fc 00000000 		.word	.LANCHOR1
 508 0200 00000000 		.word	.LANCHOR2
 509 0204 00000039 		.word	956301312
 510 0208 0024744A 		.word	1249125376
 511 020c 001B374B 		.word	1261902592
 512 0210 001BB700 		.word	12000000
 513              		.cfi_endproc
 514              	.LFE351:
 516              		.global	D1CorePrescTable
 517              		.global	SystemD2Clock
 518              		.global	SystemCoreClock
 519              		.section	.data.SystemCoreClock,"aw"
 520              		.align	2
 521              		.set	.LANCHOR2,. + 0
 524              	SystemCoreClock:
 525 0000 0090D003 		.word	64000000
 526              		.section	.data.SystemD2Clock,"aw"
 527              		.align	2
 528              		.set	.LANCHOR1,. + 0
 531              	SystemD2Clock:
 532 0000 0090D003 		.word	64000000
 533              		.section	.rodata.D1CorePrescTable,"a"
 534              		.align	2
 535              		.set	.LANCHOR0,. + 0
 538              	D1CorePrescTable:
 539 0000 00000000 		.ascii	"\000\000\000\000\001\002\003\004\001\002\003\004\006"
 539      01020304 
 539      01020304 
 539      06
 540 000d 070809   		.ascii	"\007\010\011"
 541              		.text
 542              	.Letext0:
 543              		.file 2 "d:\\program files\\gcc-arm-none-eabi-10.3-2021.10\\arm-none-eabi\\include\\machine\\_defa
 544              		.file 3 "d:\\program files\\gcc-arm-none-eabi-10.3-2021.10\\arm-none-eabi\\include\\sys\\_stdint.h
 545              		.file 4 "Drivers/CMSIS/Include/core_cm7.h"
 546              		.file 5 "Drivers/CMSIS/Device/ST/STM32H7xx/Include/system_stm32h7xx.h"
 547              		.file 6 "Drivers/CMSIS/Device/ST/STM32H7xx/Include/stm32h723xx.h"
 548              		.file 7 "d:\\program files\\gcc-arm-none-eabi-10.3-2021.10\\arm-none-eabi\\include\\math.h"
ARM GAS  C:\Users\zhangge\AppData\Local\Temp\cclGjwHK.s 			page 20

